; Listing generated by Microsoft (R) Optimizing Compiler Version 16.00.30319.01 

	TITLE	C:\Users\faelhs\mu-1.1\eMu - GameServer Sapphire S0\GameServer\BloodCastle.cpp
	.686P
	.XMM
	include listing.inc
	.model	flat

INCLUDELIB LIBCMT
INCLUDELIB OLDNAMES

CONST	SEGMENT
_g_btCastleEntranceMapXY DB 0dH
	DB	0fH
	DB	0fH
	DB	017H
	DB	0dH
	DB	0fH
	DB	0fH
	DB	017H
	DB	0dH
	DB	0fH
	DB	0fH
	DB	017H
	DB	0dH
	DB	0fH
	DB	0fH
	DB	017H
	DB	0dH
	DB	0fH
	DB	0fH
	DB	017H
	DB	0dH
	DB	0fH
	DB	0fH
	DB	017H
	DB	0dH
	DB	0fH
	DB	0fH
	DB	017H
_g_btCastleBridgeMapXY DB 0dH
	DB	046H
	DB	0fH
	DB	04bH
	DB	0dH
	DB	046H
	DB	0fH
	DB	04bH
	DB	0dH
	DB	046H
	DB	0fH
	DB	04bH
	DB	0dH
	DB	046H
	DB	0fH
	DB	04bH
	DB	0dH
	DB	046H
	DB	0fH
	DB	04bH
	DB	0dH
	DB	046H
	DB	0fH
	DB	04bH
	DB	0dH
	DB	046H
	DB	0fH
	DB	04bH
_g_btCastleDoorMapXY DB 0dH
	DB	04cH
	DB	0fH
	DB	04fH
	DB	0bH
	DB	050H
	DB	019H
	DB	059H
	DB	08H
	DB	050H
	DB	0aH
	DB	053H
	DB	0dH
	DB	04cH
	DB	0fH
	DB	04fH
	DB	0bH
	DB	050H
	DB	019H
	DB	059H
	DB	08H
	DB	050H
	DB	0aH
	DB	053H
	DB	0dH
	DB	04cH
	DB	0fH
	DB	04fH
	DB	0bH
	DB	050H
	DB	019H
	DB	059H
	DB	08H
	DB	050H
	DB	0aH
	DB	053H
	DB	0dH
	DB	04cH
	DB	0fH
	DB	04fH
	DB	0bH
	DB	050H
	DB	019H
	DB	059H
	DB	08H
	DB	050H
	DB	0aH
	DB	053H
	DB	0dH
	DB	04cH
	DB	0fH
	DB	04fH
	DB	0bH
	DB	050H
	DB	019H
	DB	059H
	DB	08H
	DB	050H
	DB	0aH
	DB	053H
	DB	0dH
	DB	04cH
	DB	0fH
	DB	04fH
	DB	0bH
	DB	050H
	DB	019H
	DB	059H
	DB	08H
	DB	050H
	DB	0aH
	DB	053H
	DB	0dH
	DB	04cH
	DB	0fH
	DB	04fH
	DB	0bH
	DB	050H
	DB	019H
	DB	059H
	DB	08H
	DB	050H
	DB	0aH
	DB	053H
_g_iQuestWinExpendZEN DD 04e20H
	DD	02710H
	DD	0c350H
	DD	061a8H
	DD	0186a0H
	DD	0c350H
	DD	0249f0H
	DD	013880H
	DD	030d40H
	DD	0186a0H
	DD	03d090H
	DD	01d4c0H
	DD	03d090H
	DD	01d4c0H
_g_iBC_ChoasMixSuccessRate DD 050H
	DD	050H
	DD	050H
	DD	050H
	DD	050H
	DD	050H
	DD	050H
_g_iBC_ChoasMixMoney DD 0c350H
	DD	013880H
	DD	0249f0H
	DD	03d090H
	DD	061a80H
	DD	0927c0H
	DD	0cf850H
_g_iBC_EventScore_Fail DD 0fffffed4H
	DD	0fffffed4H
	DD	0fffffed4H
	DD	0fffffed4H
	DD	0fffffed4H
	DD	0fffffed4H
	DD	0fffffed4H
_g_iBC_EventScore DD 0258H
	DD	012cH
	DD	03e8H
	DD	0320H
	DD	0190H
	DD	0258H
	DD	012cH
	DD	03e8H
	DD	0320H
	DD	0190H
	DD	0258H
	DD	012cH
	DD	03edH
	DD	0320H
	DD	0190H
	DD	0258H
	DD	012cH
	DD	03edH
	DD	0320H
	DD	0190H
	DD	0258H
	DD	012cH
	DD	03edH
	DD	0320H
	DD	0190H
	DD	0258H
	DD	012cH
	DD	03edH
	DD	0320H
	DD	0190H
	DD	0258H
	DD	012cH
	DD	03edH
	DD	0320H
	DD	0190H
_g_iBC_Party_EventPoint DD 05H
	DD	0aH
	DD	0fH
	DD	014H
	DD	01eH
_g_iBC_Add_Exp DD 04e20H
	DD	04e20H
	DD	01388H
	DD	0a0H
	DD	0c350H
	DD	0c350H
	DD	02710H
	DD	0b4H
	DD	013880H
	DD	013880H
	DD	03a98H
	DD	0c8H
	DD	015f90H
	DD	015f90H
	DD	04e20H
	DD	0dcH
	DD	0186a0H
	DD	0186a0H
	DD	061a8H
	DD	0f0H
	DD	01adb0H
	DD	01adb0H
	DD	07530H
	DD	0104H
	DD	01d4c0H
	DD	01d4c0H
	DD	088b8H
	DD	0118H
_g_iBC_MONSTER_CHANGE_STATE DD 0aH
	DD	014H
	DD	0fffffff2H
	DD	014H
	DD	028H
	DD	0ffffffe0H
CONST	ENDS
_DATA	SEGMENT
_g_sttBLOODCASTLE_LEVEL DD 0fH
	DD	050H
	DD	0aH
	DD	03cH
	DD	051H
	DD	082H
	DD	03dH
	DD	06eH
	DD	083H
	DD	0b4H
	DD	06fH
	DD	0a0H
	DD	0b5H
	DD	0e6H
	DD	0a1H
	DD	0d2H
	DD	0e7H
	DD	0118H
	DD	0d3H
	DD	0104H
	DD	0119H
	DD	014aH
	DD	0105H
	DD	0136H
	DD	014bH
	DD	0190H
	DD	0137H
	DD	0190H
_g_sttCHAOSCASTLE_LEVEL DD 0aH
	DD	031H
	DD	0aH
	DD	01dH
	DD	032H
	DD	077H
	DD	01eH
	DD	063H
	DD	078H
	DD	0b3H
	DD	064H
	DD	09fH
	DD	0b4H
	DD	0efH
	DD	0a0H
	DD	0dbH
	DD	0f0H
	DD	012bH
	DD	0dcH
	DD	0117H
	DD	012cH
	DD	0190H
	DD	0118H
	DD	0190H
_g_iChaosCastle_BlowOutDistance DD 03H
	DD	04H
	DD	03H
	DD	04H
	DD	02H
	DD	03H
	DD	00H
	DD	01H
_g_iChaosCastle_BlowOutDamage DD 0fH
	DD	0fH
	DD	0aH
	DD	05H
_g_iChaosCastle_EnterCost DD 061a8H
	DD	013880H
	DD	0249f0H
	DD	03d090H
	DD	061a80H
	DD	09eb10H
_g_iChaosCastle_GuardSetValue DD 09c4H
	DD	09c4H
	DD	09c4H
	DD	09c4H
	DD	09c4H
	DD	09c4H
_g_iChaosCastle_MonsterItems DD 01c0dH
	DD	01H
	DD	01c0eH
	DD	01H
	DD	01c0dH
	DD	01H
	DD	01c0eH
	DD	01H
	DD	01c0dH
	DD	01H
	DD	01c0eH
	DD	01H
	DD	01c0dH
	DD	01H
	DD	01c0eH
	DD	01H
	DD	01c0dH
	DD	01H
	DD	01c0eH
	DD	02H
	DD	01c0dH
	DD	01H
	DD	01c0eH
	DD	02H
_g_iChaosCastle_GroundAxis DD 017H
	DD	04bH
	DD	02cH
	DD	06cH
_g_iChaosCastle_DamageAxis DD 017H
	DD	04bH
	DD	02cH
	DD	06cH
	DD	019H
	DD	04dH
	DD	02aH
	DD	06aH
	DD	01bH
	DD	04fH
	DD	028H
	DD	068H
	DD	01dH
	DD	051H
	DD	026H
	DD	066H
_g_iChaosCastle_MapHollowZone DD 017H
	DD	04bH
	DD	02cH
	DD	04cH
	DD	02bH
	DD	04dH
	DD	02cH
	DD	06cH
	DD	017H
	DD	06bH
	DD	02aH
	DD	06cH
	DD	017H
	DD	04dH
	DD	018H
	DD	06aH
	DD	017H
	DD	04bH
	DD	02cH
	DD	04cH
	DD	02bH
	DD	04dH
	DD	02cH
	DD	06cH
	DD	017H
	DD	06bH
	DD	02aH
	DD	06cH
	DD	017H
	DD	04dH
	DD	018H
	DD	06aH
	DD	019H
	DD	04dH
	DD	02aH
	DD	04eH
	DD	029H
	DD	04fH
	DD	02aH
	DD	06aH
	DD	019H
	DD	069H
	DD	028H
	DD	06aH
	DD	019H
	DD	04fH
	DD	01aH
	DD	068H
	DD	01bH
	DD	04fH
	DD	028H
	DD	050H
	DD	027H
	DD	051H
	DD	028H
	DD	068H
	DD	01bH
	DD	067H
	DD	026H
	DD	068H
	DD	01bH
	DD	051H
	DD	01cH
	DD	066H
_DATA	ENDS
PUBLIC	?_ARGB@@YAKEEEE@Z				; _ARGB
; Function compile flags: /Ogtp
; File c:\users\faelhs\mu-1.1\emu - gameserver sapphire s0\gameserver\tnotice.h
;	COMDAT ?_ARGB@@YAKEEEE@Z
_TEXT	SEGMENT
_a$ = 8							; size = 1
_r$ = 12						; size = 1
_g$ = 16						; size = 1
_b$ = 20						; size = 1
?_ARGB@@YAKEEEE@Z PROC					; _ARGB, COMDAT

; 8    : __inline DWORD _ARGB(BYTE a, BYTE r, BYTE g, BYTE b){ return a*16777216 + b*65536 + g*256 + r;}; // in tnotice.h : line 8

  00000	55		 push	 ebp
  00001	8b ec		 mov	 ebp, esp
  00003	0f b6 45 08	 movzx	 eax, BYTE PTR _a$[ebp]
  00007	0f b6 4d 14	 movzx	 ecx, BYTE PTR _b$[ebp]
  0000b	0f b6 55 10	 movzx	 edx, BYTE PTR _g$[ebp]
  0000f	c1 e0 08	 shl	 eax, 8
  00012	03 c1		 add	 eax, ecx
  00014	0f b6 4d 0c	 movzx	 ecx, BYTE PTR _r$[ebp]
  00018	c1 e0 08	 shl	 eax, 8
  0001b	03 c2		 add	 eax, edx
  0001d	c1 e0 08	 shl	 eax, 8
  00020	03 c1		 add	 eax, ecx
  00022	5d		 pop	 ebp
  00023	c3		 ret	 0
?_ARGB@@YAKEEEE@Z ENDP					; _ARGB
_TEXT	ENDS
PUBLIC	??2@YAPAXIPAX@Z					; operator new
; Function compile flags: /Ogtp
; File c:\program files (x86)\microsoft visual studio 10.0\vc\include\new.h
;	COMDAT ??2@YAPAXIPAX@Z
_TEXT	SEGMENT
___formal$ = 8						; size = 4
__Where$ = 12						; size = 4
??2@YAPAXIPAX@Z PROC					; operator new, COMDAT

; 81   :         {return (_Where); }

  00000	55		 push	 ebp
  00001	8b ec		 mov	 ebp, esp
  00003	8b 45 0c	 mov	 eax, DWORD PTR __Where$[ebp]
  00006	5d		 pop	 ebp
  00007	c3		 ret	 0
??2@YAPAXIPAX@Z ENDP					; operator new
_TEXT	ENDS
PUBLIC	??3@YAXPAX0@Z					; operator delete
; Function compile flags: /Ogtp
;	COMDAT ??3@YAXPAX0@Z
_TEXT	SEGMENT
___formal$ = 8						; size = 4
___formal$ = 12						; size = 4
??3@YAXPAX0@Z PROC					; operator delete, COMDAT

; 83   :         {return; }

  00000	c3		 ret	 0
??3@YAXPAX0@Z ENDP					; operator delete
_TEXT	ENDS
PUBLIC	??_7CBloodCastle@@6B@				; CBloodCastle::`vftable'
PUBLIC	??1CBloodCastle@@UAE@XZ				; CBloodCastle::~CBloodCastle
PUBLIC	??_R4CBloodCastle@@6B@				; CBloodCastle::`RTTI Complete Object Locator'
PUBLIC	??_R0?AVCBloodCastle@@@8			; CBloodCastle `RTTI Type Descriptor'
PUBLIC	??_R3CBloodCastle@@8				; CBloodCastle::`RTTI Class Hierarchy Descriptor'
PUBLIC	??_R2CBloodCastle@@8				; CBloodCastle::`RTTI Base Class Array'
PUBLIC	??_R1A@?0A@EA@CBloodCastle@@8			; CBloodCastle::`RTTI Base Class Descriptor at (0,-1,0,64)'
EXTRN	__imp__DeleteCriticalSection@4:PROC
EXTRN	??_7type_info@@6B@:QWORD			; type_info::`vftable'
EXTRN	??_ECBloodCastle@@UAEPAXI@Z:PROC		; CBloodCastle::`vector deleting destructor'
;	COMDAT ??_R1A@?0A@EA@CBloodCastle@@8
; File c:\users\faelhs\mu-1.1\emu - gameserver sapphire s0\gameserver\bloodcastle.cpp
rdata$r	SEGMENT
??_R1A@?0A@EA@CBloodCastle@@8 DD FLAT:??_R0?AVCBloodCastle@@@8 ; CBloodCastle::`RTTI Base Class Descriptor at (0,-1,0,64)'
	DD	00H
	DD	00H
	DD	0ffffffffH
	DD	00H
	DD	040H
	DD	FLAT:??_R3CBloodCastle@@8
rdata$r	ENDS
;	COMDAT ??_R2CBloodCastle@@8
rdata$r	SEGMENT
??_R2CBloodCastle@@8 DD FLAT:??_R1A@?0A@EA@CBloodCastle@@8 ; CBloodCastle::`RTTI Base Class Array'
rdata$r	ENDS
;	COMDAT ??_R3CBloodCastle@@8
rdata$r	SEGMENT
??_R3CBloodCastle@@8 DD 00H				; CBloodCastle::`RTTI Class Hierarchy Descriptor'
	DD	00H
	DD	01H
	DD	FLAT:??_R2CBloodCastle@@8
rdata$r	ENDS
;	COMDAT ??_R0?AVCBloodCastle@@@8
_DATA	SEGMENT
??_R0?AVCBloodCastle@@@8 DD FLAT:??_7type_info@@6B@	; CBloodCastle `RTTI Type Descriptor'
	DD	00H
	DB	'.?AVCBloodCastle@@', 00H
_DATA	ENDS
;	COMDAT ??_R4CBloodCastle@@6B@
rdata$r	SEGMENT
??_R4CBloodCastle@@6B@ DD 00H				; CBloodCastle::`RTTI Complete Object Locator'
	DD	00H
	DD	00H
	DD	FLAT:??_R0?AVCBloodCastle@@@8
	DD	FLAT:??_R3CBloodCastle@@8
rdata$r	ENDS
;	COMDAT ??_7CBloodCastle@@6B@
CONST	SEGMENT
??_7CBloodCastle@@6B@ DD FLAT:??_R4CBloodCastle@@6B@	; CBloodCastle::`vftable'
	DD	FLAT:??_ECBloodCastle@@UAEPAXI@Z
; Function compile flags: /Ogtp
CONST	ENDS
;	COMDAT ??1CBloodCastle@@UAE@XZ
_TEXT	SEGMENT
??1CBloodCastle@@UAE@XZ PROC				; CBloodCastle::~CBloodCastle, COMDAT
; _this$ = ecx

; 126  : {

  00000	53		 push	 ebx
  00001	8b 1d 00 00 00
	00		 mov	 ebx, DWORD PTR __imp__DeleteCriticalSection@4
  00007	56		 push	 esi
  00008	57		 push	 edi
  00009	c7 01 00 00 00
	00		 mov	 DWORD PTR [ecx], OFFSET ??_7CBloodCastle@@6B@
  0000f	8d 71 04	 lea	 esi, DWORD PTR [ecx+4]
  00012	bf 07 00 00 00	 mov	 edi, 7
$LL3@CBloodCast:

; 127  : 	for ( int i =0; i<MAX_BLOOD_CASTLE_LEVEL ; i++ )
; 128  : 	{
; 129  : 		DeleteCriticalSection(&this->m_BridgeData[i].m_critUserData);

  00017	56		 push	 esi
  00018	ff d3		 call	 ebx
  0001a	81 c6 00 02 00
	00		 add	 esi, 512		; 00000200H
  00020	4f		 dec	 edi
  00021	75 f4		 jne	 SHORT $LL3@CBloodCast

; 130  : 	}
; 131  : }

  00023	5f		 pop	 edi
  00024	5e		 pop	 esi
  00025	5b		 pop	 ebx
  00026	c3		 ret	 0
??1CBloodCastle@@UAE@XZ ENDP				; CBloodCastle::~CBloodCastle
_TEXT	ENDS
PUBLIC	??_C@_0O@FHPHMJJK@StoneItemDrop?$AA@		; `string'
PUBLIC	??_C@_0O@PBCFFJJH@StoneDropRate?$AA@		; `string'
PUBLIC	??_C@_0BC@NGLLHLOE@BloodBoneDropRate?$AA@	; `string'
PUBLIC	??_C@_0BI@KPDDGOOE@AngelKingsPaperDropRate?$AA@	; `string'
PUBLIC	??_C@_0P@EMJDPFDH@GameServerInfo?$AA@		; `string'
PUBLIC	??_C@_0BB@DHAFCNAC@BloodCastleEvent?$AA@	; `string'
PUBLIC	??_C@_0BB@IGLHFEOF@commonserver?4cfg?$AA@	; `string'
PUBLIC	?LoadItemDropRate@CBloodCastle@@QAEXXZ		; CBloodCastle::LoadItemDropRate
EXTRN	?g_bStoneItemDrop@@3HA:DWORD			; g_bStoneItemDrop
EXTRN	?g_iStoneDropRate@@3HA:DWORD			; g_iStoneDropRate
EXTRN	?g_iBloodBoneDropRate@@3HA:DWORD		; g_iBloodBoneDropRate
EXTRN	?g_iAngelKingsPaperDropRate@@3HA:DWORD		; g_iAngelKingsPaperDropRate
EXTRN	?g_bBloodCastle@@3HA:DWORD			; g_bBloodCastle
EXTRN	__imp__GetPrivateProfileIntA@16:PROC
EXTRN	?GetNewPath@CDirPath@@QAEPADPAD@Z:PROC		; CDirPath::GetNewPath
EXTRN	?gDirPath@@3VCDirPath@@A:BYTE			; gDirPath
;	COMDAT ??_C@_0O@FHPHMJJK@StoneItemDrop?$AA@
CONST	SEGMENT
??_C@_0O@FHPHMJJK@StoneItemDrop?$AA@ DB 'StoneItemDrop', 00H ; `string'
CONST	ENDS
;	COMDAT ??_C@_0O@PBCFFJJH@StoneDropRate?$AA@
CONST	SEGMENT
??_C@_0O@PBCFFJJH@StoneDropRate?$AA@ DB 'StoneDropRate', 00H ; `string'
CONST	ENDS
;	COMDAT ??_C@_0BC@NGLLHLOE@BloodBoneDropRate?$AA@
CONST	SEGMENT
??_C@_0BC@NGLLHLOE@BloodBoneDropRate?$AA@ DB 'BloodBoneDropRate', 00H ; `string'
CONST	ENDS
;	COMDAT ??_C@_0BI@KPDDGOOE@AngelKingsPaperDropRate?$AA@
CONST	SEGMENT
??_C@_0BI@KPDDGOOE@AngelKingsPaperDropRate?$AA@ DB 'AngelKingsPaperDropRa'
	DB	'te', 00H					; `string'
CONST	ENDS
;	COMDAT ??_C@_0P@EMJDPFDH@GameServerInfo?$AA@
CONST	SEGMENT
??_C@_0P@EMJDPFDH@GameServerInfo?$AA@ DB 'GameServerInfo', 00H ; `string'
CONST	ENDS
;	COMDAT ??_C@_0BB@DHAFCNAC@BloodCastleEvent?$AA@
CONST	SEGMENT
??_C@_0BB@DHAFCNAC@BloodCastleEvent?$AA@ DB 'BloodCastleEvent', 00H ; `string'
CONST	ENDS
;	COMDAT ??_C@_0BB@IGLHFEOF@commonserver?4cfg?$AA@
CONST	SEGMENT
??_C@_0BB@IGLHFEOF@commonserver?4cfg?$AA@ DB 'commonserver.cfg', 00H ; `string'
; Function compile flags: /Ogtp
CONST	ENDS
;	COMDAT ?LoadItemDropRate@CBloodCastle@@QAEXXZ
_TEXT	SEGMENT
?LoadItemDropRate@CBloodCastle@@QAEXXZ PROC		; CBloodCastle::LoadItemDropRate, COMDAT
; _this$ = ecx

; 254  : {

  00000	56		 push	 esi

; 255  : 	g_bBloodCastle=GetPrivateProfileInt(COMMONSERVER_MAINSECTION, "BloodCastleEvent", 0, gDirPath.GetNewPath(COMMONSERVER_FILE));

  00001	68 00 00 00 00	 push	 OFFSET ??_C@_0BB@IGLHFEOF@commonserver?4cfg?$AA@
  00006	b9 00 00 00 00	 mov	 ecx, OFFSET ?gDirPath@@3VCDirPath@@A ; gDirPath
  0000b	e8 00 00 00 00	 call	 ?GetNewPath@CDirPath@@QAEPADPAD@Z ; CDirPath::GetNewPath
  00010	8b 35 00 00 00
	00		 mov	 esi, DWORD PTR __imp__GetPrivateProfileIntA@16
  00016	50		 push	 eax
  00017	6a 00		 push	 0
  00019	68 00 00 00 00	 push	 OFFSET ??_C@_0BB@DHAFCNAC@BloodCastleEvent?$AA@
  0001e	68 00 00 00 00	 push	 OFFSET ??_C@_0P@EMJDPFDH@GameServerInfo?$AA@
  00023	ff d6		 call	 esi

; 256  : 	g_iAngelKingsPaperDropRate=GetPrivateProfileInt(COMMONSERVER_MAINSECTION, "AngelKingsPaperDropRate", 0, gDirPath.GetNewPath(COMMONSERVER_FILE));

  00025	68 00 00 00 00	 push	 OFFSET ??_C@_0BB@IGLHFEOF@commonserver?4cfg?$AA@
  0002a	b9 00 00 00 00	 mov	 ecx, OFFSET ?gDirPath@@3VCDirPath@@A ; gDirPath
  0002f	a3 00 00 00 00	 mov	 DWORD PTR ?g_bBloodCastle@@3HA, eax ; g_bBloodCastle
  00034	e8 00 00 00 00	 call	 ?GetNewPath@CDirPath@@QAEPADPAD@Z ; CDirPath::GetNewPath
  00039	50		 push	 eax
  0003a	6a 00		 push	 0
  0003c	68 00 00 00 00	 push	 OFFSET ??_C@_0BI@KPDDGOOE@AngelKingsPaperDropRate?$AA@
  00041	68 00 00 00 00	 push	 OFFSET ??_C@_0P@EMJDPFDH@GameServerInfo?$AA@
  00046	ff d6		 call	 esi

; 257  : 	g_iBloodBoneDropRate=GetPrivateProfileInt(COMMONSERVER_MAINSECTION, "BloodBoneDropRate", 0, gDirPath.GetNewPath(COMMONSERVER_FILE));

  00048	68 00 00 00 00	 push	 OFFSET ??_C@_0BB@IGLHFEOF@commonserver?4cfg?$AA@
  0004d	b9 00 00 00 00	 mov	 ecx, OFFSET ?gDirPath@@3VCDirPath@@A ; gDirPath
  00052	a3 00 00 00 00	 mov	 DWORD PTR ?g_iAngelKingsPaperDropRate@@3HA, eax ; g_iAngelKingsPaperDropRate
  00057	e8 00 00 00 00	 call	 ?GetNewPath@CDirPath@@QAEPADPAD@Z ; CDirPath::GetNewPath
  0005c	50		 push	 eax
  0005d	6a 00		 push	 0
  0005f	68 00 00 00 00	 push	 OFFSET ??_C@_0BC@NGLLHLOE@BloodBoneDropRate?$AA@
  00064	68 00 00 00 00	 push	 OFFSET ??_C@_0P@EMJDPFDH@GameServerInfo?$AA@
  00069	ff d6		 call	 esi

; 258  : 	g_iStoneDropRate=GetPrivateProfileInt(COMMONSERVER_MAINSECTION, "StoneDropRate", 0, gDirPath.GetNewPath(COMMONSERVER_FILE));

  0006b	68 00 00 00 00	 push	 OFFSET ??_C@_0BB@IGLHFEOF@commonserver?4cfg?$AA@
  00070	b9 00 00 00 00	 mov	 ecx, OFFSET ?gDirPath@@3VCDirPath@@A ; gDirPath
  00075	a3 00 00 00 00	 mov	 DWORD PTR ?g_iBloodBoneDropRate@@3HA, eax ; g_iBloodBoneDropRate
  0007a	e8 00 00 00 00	 call	 ?GetNewPath@CDirPath@@QAEPADPAD@Z ; CDirPath::GetNewPath
  0007f	50		 push	 eax
  00080	6a 00		 push	 0
  00082	68 00 00 00 00	 push	 OFFSET ??_C@_0O@PBCFFJJH@StoneDropRate?$AA@
  00087	68 00 00 00 00	 push	 OFFSET ??_C@_0P@EMJDPFDH@GameServerInfo?$AA@
  0008c	ff d6		 call	 esi

; 259  : 	g_bStoneItemDrop=GetPrivateProfileInt(COMMONSERVER_MAINSECTION, "StoneItemDrop", 0, gDirPath.GetNewPath(COMMONSERVER_FILE));

  0008e	68 00 00 00 00	 push	 OFFSET ??_C@_0BB@IGLHFEOF@commonserver?4cfg?$AA@
  00093	b9 00 00 00 00	 mov	 ecx, OFFSET ?gDirPath@@3VCDirPath@@A ; gDirPath
  00098	a3 00 00 00 00	 mov	 DWORD PTR ?g_iStoneDropRate@@3HA, eax ; g_iStoneDropRate
  0009d	e8 00 00 00 00	 call	 ?GetNewPath@CDirPath@@QAEPADPAD@Z ; CDirPath::GetNewPath
  000a2	50		 push	 eax
  000a3	6a 00		 push	 0
  000a5	68 00 00 00 00	 push	 OFFSET ??_C@_0O@FHPHMJJK@StoneItemDrop?$AA@
  000aa	68 00 00 00 00	 push	 OFFSET ??_C@_0P@EMJDPFDH@GameServerInfo?$AA@
  000af	ff d6		 call	 esi
  000b1	a3 00 00 00 00	 mov	 DWORD PTR ?g_bStoneItemDrop@@3HA, eax ; g_bStoneItemDrop
  000b6	5e		 pop	 esi

; 260  : }

  000b7	c3		 ret	 0
?LoadItemDropRate@CBloodCastle@@QAEXXZ ENDP		; CBloodCastle::LoadItemDropRate
_TEXT	ENDS
PUBLIC	?ClearBridgeData@CBloodCastle@@IAEXH@Z		; CBloodCastle::ClearBridgeData
EXTRN	?gObj@@3PAUOBJECTSTRUCT@@A:BYTE			; gObj
; Function compile flags: /Ogtp
;	COMDAT ?ClearBridgeData@CBloodCastle@@IAEXH@Z
_TEXT	SEGMENT
tv3421 = 8						; size = 4
tv3416 = 8						; size = 4
tv3411 = 8						; size = 4
tv3406 = 8						; size = 4
tv3401 = 8						; size = 4
tv3396 = 8						; size = 4
_iBridgeIndex$ = 8					; size = 4
?ClearBridgeData@CBloodCastle@@IAEXH@Z PROC		; CBloodCastle::ClearBridgeData, COMDAT
; _this$ = ecx

; 342  : {

  00000	55		 push	 ebp
  00001	8b ec		 mov	 ebp, esp

; 343  : 	if ( BC_BRIDGE_RANGE(iBridgeIndex) == FALSE )

  00003	8b 45 08	 mov	 eax, DWORD PTR _iBridgeIndex$[ebp]
  00006	33 d2		 xor	 edx, edx
  00008	56		 push	 esi
  00009	8b f1		 mov	 esi, ecx
  0000b	3b c2		 cmp	 eax, edx
  0000d	0f 8c 5a 03 00
	00		 jl	 $LN12@ClearBridg
  00013	33 c9		 xor	 ecx, ecx
  00015	83 f8 06	 cmp	 eax, 6
  00018	0f 9e c1	 setle	 cl
  0001b	3b ca		 cmp	 ecx, edx
  0001d	0f 84 4a 03 00
	00		 je	 $LN12@ClearBridg

; 349  : 	this->m_BridgeData[iBridgeIndex].m_iBC_MONSTER_MAX_COUNT = 0;
; 350  : 	this->m_BridgeData[iBridgeIndex].m_iBC_MONSTER_KILL_COUNT = 0;
; 351  : 	this->m_BridgeData[iBridgeIndex].m_iBC_MONSTER_SUCCESS_MSG_COUNT = 0;
; 352  : 	this->m_BridgeData[iBridgeIndex].m_iBC_BOSS_MONSTER_MAX_COUNT = 0;
; 353  : 	this->m_BridgeData[iBridgeIndex].m_iBC_BOSS_MONSTER_KILL_COUNT = 0;
; 354  : 	this->m_BridgeData[iBridgeIndex].m_iBC_BOSS_MONSTER_SUCCESS_MSG_COUNT = 0;
; 355  : 	this->m_BridgeData[iBridgeIndex].m_btBC_QUEST_ITEM_NUMBER = 0;
; 356  : 	this->m_BridgeData[iBridgeIndex].m_dwBC_TICK_DOOR_OPEN = -1;
; 357  : 	this->m_BridgeData[iBridgeIndex].m_nBC_QUESTITEM_SERIAL = -1;
; 358  : 	this->m_BridgeData[iBridgeIndex].m_iBC_QUEST_ITEM_USER_INDEX = -1;
; 359  : 	this->m_BridgeData[iBridgeIndex].m_iMISSION_SUCCESS = -1;
; 360  : 	this->m_BridgeData[iBridgeIndex].m_iBC_NOTIFY_COUNT = -1;
; 361  : 	this->m_BridgeData[iBridgeIndex].m_bCASTLE_DOOR_LIVE = TRUE;
; 362  : 	this->m_BridgeData[iBridgeIndex].m_bBC_REWARDED = false;
; 363  : 	this->m_BridgeData[iBridgeIndex].m_bBC_MSG_BEFORE_ENTER = false;
; 364  : 	this->m_BridgeData[iBridgeIndex].m_bBC_MSG_BEFORE_PLAY = false;
; 365  : 	this->m_BridgeData[iBridgeIndex].m_bBC_MSG_BEFORE_END = false;
; 366  : 	this->m_BridgeData[iBridgeIndex].m_bBC_MSG_BEFORE_QUIT = false;
; 367  : 	this->m_BridgeData[iBridgeIndex].m_bBC_CAN_ENTER = false;
; 368  : 	this->m_BridgeData[iBridgeIndex].m_bBC_CAN_PARTY = false;
; 369  : 	this->m_BridgeData[iBridgeIndex].m_bBC_PLAY_START = false;
; 370  : 	this->m_BridgeData[iBridgeIndex].m_bBC_MONSTER_KILL_COMPLETE = false;
; 371  : 	this->m_BridgeData[iBridgeIndex].m_bBC_BOSS_MONSTER_KILL_COMPLETE = false;
; 372  : 	this->m_BridgeData[iBridgeIndex].m_bBC_DOOR_TERMINATE_COMPLETE = false;
; 373  : 	this->m_BridgeData[iBridgeIndex].m_iExtraEXP_Kill_Door_Index = -10;

  00023	b9 f6 ff ff ff	 mov	 ecx, -10		; fffffff6H
  00028	c1 e0 09	 shl	 eax, 9
  0002b	03 c6		 add	 eax, esi
  0002d	89 88 a4 01 00
	00		 mov	 DWORD PTR [eax+420], ecx

; 374  : 	this->m_BridgeData[iBridgeIndex].m_iExtraEXP_Kill_Door_Party = -10;

  00033	89 88 a0 01 00
	00		 mov	 DWORD PTR [eax+416], ecx

; 375  : 	this->m_BridgeData[iBridgeIndex].m_iExtraEXP_Kill_Statue_Index = -10;

  00039	89 88 c4 01 00
	00		 mov	 DWORD PTR [eax+452], ecx

; 376  : 	this->m_BridgeData[iBridgeIndex].m_iExtraEXP_Kill_Statue_Party = -10;

  0003f	89 88 c0 01 00
	00		 mov	 DWORD PTR [eax+448], ecx

; 377  : 	this->m_BridgeData[iBridgeIndex].m_iExtraEXP_Win_Quest_Index = -10;

  00045	89 88 e4 01 00
	00		 mov	 DWORD PTR [eax+484], ecx

; 378  : 	this->m_BridgeData[iBridgeIndex].m_iExtraEXP_Win_Quest_Party = -10;

  0004b	89 88 e0 01 00
	00		 mov	 DWORD PTR [eax+480], ecx
  00051	89 90 3c 01 00
	00		 mov	 DWORD PTR [eax+316], edx
  00057	89 90 74 01 00
	00		 mov	 DWORD PTR [eax+372], edx
  0005d	89 90 78 01 00
	00		 mov	 DWORD PTR [eax+376], edx
  00063	89 90 7c 01 00
	00		 mov	 DWORD PTR [eax+380], edx
  00069	89 90 84 01 00
	00		 mov	 DWORD PTR [eax+388], edx
  0006f	89 90 88 01 00
	00		 mov	 DWORD PTR [eax+392], edx
  00075	89 90 8c 01 00
	00		 mov	 DWORD PTR [eax+396], edx
  0007b	88 90 98 01 00
	00		 mov	 BYTE PTR [eax+408], dl
  00081	c7 80 4c 01 00
	00 01 00 00 00	 mov	 DWORD PTR [eax+332], 1
  0008b	89 90 66 01 00
	00		 mov	 DWORD PTR [eax+358], edx
  00091	88 90 6a 01 00
	00		 mov	 BYTE PTR [eax+362], dl
  00097	66 89 90 63 01
	00 00		 mov	 WORD PTR [eax+355], dx
  0009e	88 90 65 01 00
	00		 mov	 BYTE PTR [eax+357], dl
  000a4	66 89 90 60 01
	00 00		 mov	 WORD PTR [eax+352], dx
  000ab	88 90 62 01 00
	00		 mov	 BYTE PTR [eax+354], dl

; 379  : 
; 380  : 	memset(this->m_BridgeData[iBridgeIndex].m_szKill_Door_CharName , 0, sizeof(this->m_BridgeData[iBridgeIndex].m_szKill_Door_CharName));

  000b1	33 c9		 xor	 ecx, ecx
  000b3	89 4d 08	 mov	 DWORD PTR tv3421[ebp], ecx
  000b6	53		 push	 ebx
  000b7	83 cb ff	 or	 ebx, -1
  000ba	89 98 80 01 00
	00		 mov	 DWORD PTR [eax+384], ebx
  000c0	89 98 90 01 00
	00		 mov	 DWORD PTR [eax+400], ebx
  000c6	89 98 94 01 00
	00		 mov	 DWORD PTR [eax+404], ebx
  000cc	89 98 48 01 00
	00		 mov	 DWORD PTR [eax+328], ebx
  000d2	89 98 5c 01 00
	00		 mov	 DWORD PTR [eax+348], ebx
  000d8	89 88 b3 01 00
	00		 mov	 DWORD PTR [eax+435], ecx
  000de	89 88 b7 01 00
	00		 mov	 DWORD PTR [eax+439], ecx
  000e4	0f b7 c9	 movzx	 ecx, cx
  000e7	66 89 88 bb 01
	00 00		 mov	 WORD PTR [eax+443], cx
  000ee	0f b6 4d 08	 movzx	 ecx, BYTE PTR tv3421[ebp]
  000f2	88 88 bd 01 00
	00		 mov	 BYTE PTR [eax+445], cl

; 381  : 	memset(this->m_BridgeData[iBridgeIndex].m_szKill_Status_CharName, 0, sizeof(this->m_BridgeData[iBridgeIndex].m_szKill_Status_CharName));

  000f8	33 c9		 xor	 ecx, ecx
  000fa	89 88 c8 01 00
	00		 mov	 DWORD PTR [eax+456], ecx
  00100	89 88 cc 01 00
	00		 mov	 DWORD PTR [eax+460], ecx
  00106	89 4d 08	 mov	 DWORD PTR tv3416[ebp], ecx
  00109	0f b7 c9	 movzx	 ecx, cx
  0010c	66 89 88 d0 01
	00 00		 mov	 WORD PTR [eax+464], cx
  00113	0f b6 4d 08	 movzx	 ecx, BYTE PTR tv3416[ebp]
  00117	88 88 d2 01 00
	00		 mov	 BYTE PTR [eax+466], cl

; 382  : 	memset(this->m_BridgeData[iBridgeIndex].m_szWin_Quest_CharName, 0, sizeof(this->m_BridgeData[iBridgeIndex].m_szWin_Quest_CharName));

  0011d	33 c9		 xor	 ecx, ecx
  0011f	89 88 e8 01 00
	00		 mov	 DWORD PTR [eax+488], ecx
  00125	89 88 ec 01 00
	00		 mov	 DWORD PTR [eax+492], ecx
  0012b	89 4d 08	 mov	 DWORD PTR tv3411[ebp], ecx
  0012e	0f b7 c9	 movzx	 ecx, cx
  00131	66 89 88 f0 01
	00 00		 mov	 WORD PTR [eax+496], cx
  00138	0f b6 4d 08	 movzx	 ecx, BYTE PTR tv3411[ebp]
  0013c	88 88 f2 01 00
	00		 mov	 BYTE PTR [eax+498], cl

; 383  : 	memset(this->m_BridgeData[iBridgeIndex].m_szKill_Door_AccountID, 0, sizeof(this->m_BridgeData[iBridgeIndex].m_szKill_Door_AccountID));

  00142	33 c9		 xor	 ecx, ecx
  00144	89 88 a8 01 00
	00		 mov	 DWORD PTR [eax+424], ecx
  0014a	89 88 ac 01 00
	00		 mov	 DWORD PTR [eax+428], ecx
  00150	89 4d 08	 mov	 DWORD PTR tv3406[ebp], ecx
  00153	0f b7 c9	 movzx	 ecx, cx
  00156	66 89 88 b0 01
	00 00		 mov	 WORD PTR [eax+432], cx
  0015d	0f b6 4d 08	 movzx	 ecx, BYTE PTR tv3406[ebp]
  00161	88 88 b2 01 00
	00		 mov	 BYTE PTR [eax+434], cl

; 384  : 	memset(this->m_BridgeData[iBridgeIndex].m_szKill_Status_AccountID, 0, sizeof(this->m_BridgeData[iBridgeIndex].m_szKill_Status_AccountID));

  00167	33 c9		 xor	 ecx, ecx
  00169	89 88 d3 01 00
	00		 mov	 DWORD PTR [eax+467], ecx
  0016f	89 88 d7 01 00
	00		 mov	 DWORD PTR [eax+471], ecx
  00175	89 4d 08	 mov	 DWORD PTR tv3401[ebp], ecx
  00178	0f b7 c9	 movzx	 ecx, cx
  0017b	66 89 88 db 01
	00 00		 mov	 WORD PTR [eax+475], cx
  00182	0f b6 4d 08	 movzx	 ecx, BYTE PTR tv3401[ebp]
  00186	88 88 dd 01 00
	00		 mov	 BYTE PTR [eax+477], cl

; 385  : 	memset(this->m_BridgeData[iBridgeIndex].m_szWin_Quest_AccountID, 0, sizeof(this->m_BridgeData[iBridgeIndex].m_szWin_Quest_AccountID));

  0018c	33 c9		 xor	 ecx, ecx
  0018e	89 88 f3 01 00
	00		 mov	 DWORD PTR [eax+499], ecx
  00194	89 88 f7 01 00
	00		 mov	 DWORD PTR [eax+503], ecx
  0019a	89 4d 08	 mov	 DWORD PTR tv3396[ebp], ecx
  0019d	0f b7 c9	 movzx	 ecx, cx
  001a0	66 89 88 fb 01
	00 00		 mov	 WORD PTR [eax+507], cx
  001a7	0f b6 4d 08	 movzx	 ecx, BYTE PTR tv3396[ebp]
  001ab	88 88 fd 01 00
	00		 mov	 BYTE PTR [eax+509], cl
  001b1	57		 push	 edi
  001b2	8d 48 1c	 lea	 ecx, DWORD PTR [eax+28]

; 344  : 	{
; 345  : 		return;
; 346  : 	}
; 347  : 
; 348  : 	this->m_BridgeData[iBridgeIndex].m_iTOTAL_EXP = 0;

  001b5	8d 7a 02	 lea	 edi, DWORD PTR [edx+2]
$LL4@ClearBridg:

; 386  : 	
; 387  : 
; 388  : 	for ( int i=0;i<MAX_BLOOD_CASTLE_SUB_BRIDGE;i++)
; 389  : 	{
; 390  : 		if ( this->m_BridgeData[iBridgeIndex].m_UserData[i].m_iIndex != -1 )

  001b8	8b 31		 mov	 esi, DWORD PTR [ecx]
  001ba	3b f3		 cmp	 esi, ebx
  001bc	74 36		 je	 SHORT $LN1@ClearBridg

; 391  : 		{
; 392  : 			gObj[this->m_BridgeData[iBridgeIndex].m_UserData[i].m_iIndex].m_iBloodCastleEXP = 0;

  001be	69 f6 64 15 00
	00		 imul	 esi, 5476		; 00001564H
  001c4	89 96 04 0d 00
	00		 mov	 DWORD PTR ?gObj@@3PAUOBJECTSTRUCT@@A[esi+3332], edx

; 393  : 			gObj[this->m_BridgeData[iBridgeIndex].m_UserData[i].m_iIndex].m_cBloodCastleIndex = -1;

  001ca	8b 31		 mov	 esi, DWORD PTR [ecx]
  001cc	69 f6 64 15 00
	00		 imul	 esi, 5476		; 00001564H
  001d2	88 9e 02 0d 00
	00		 mov	 BYTE PTR ?gObj@@3PAUOBJECTSTRUCT@@A[esi+3330], bl

; 394  : 			gObj[this->m_BridgeData[iBridgeIndex].m_UserData[i].m_iIndex].m_cBloodCastleSubIndex = -1;

  001d8	8b 31		 mov	 esi, DWORD PTR [ecx]
  001da	69 f6 64 15 00
	00		 imul	 esi, 5476		; 00001564H
  001e0	88 9e 03 0d 00
	00		 mov	 BYTE PTR ?gObj@@3PAUOBJECTSTRUCT@@A[esi+3331], bl

; 395  : 			gObj[this->m_BridgeData[iBridgeIndex].m_UserData[i].m_iIndex].m_bBloodCastleComplete = false;

  001e6	8b 31		 mov	 esi, DWORD PTR [ecx]
  001e8	69 f6 64 15 00
	00		 imul	 esi, 5476		; 00001564H
  001ee	88 96 08 0d 00
	00		 mov	 BYTE PTR ?gObj@@3PAUOBJECTSTRUCT@@A[esi+3336], dl
$LN1@ClearBridg:

; 396  : 		}
; 397  : 
; 398  : 		this->m_BridgeData[iBridgeIndex].m_UserData[i].m_iEXP = 0;

  001f4	89 51 04	 mov	 DWORD PTR [ecx+4], edx

; 399  : 		this->m_BridgeData[iBridgeIndex].m_UserData[i].m_iScore = 0;

  001f7	89 51 08	 mov	 DWORD PTR [ecx+8], edx

; 400  : 		this->m_BridgeData[iBridgeIndex].m_UserData[i].m_iIndex = -1;

  001fa	89 19		 mov	 DWORD PTR [ecx], ebx

; 401  : 		this->m_BridgeData[iBridgeIndex].m_UserData[i].m_iUserState= 0;

  001fc	89 51 0c	 mov	 DWORD PTR [ecx+12], edx

; 402  : 		this->m_BridgeData[iBridgeIndex].m_UserData[i].m_bSendQuitMsg = false;

  001ff	66 89 51 10	 mov	 WORD PTR [ecx+16], dx

; 403  : 		this->m_BridgeData[iBridgeIndex].m_UserData[i].m_bLiveWhenDoorBreak = false;
; 404  : 		this->m_BridgeData[iBridgeIndex].m_iBC_COMPLETE_USER_INDEX = -1;

  00203	89 98 00 02 00
	00		 mov	 DWORD PTR [eax+512], ebx
  00209	8b 71 14	 mov	 esi, DWORD PTR [ecx+20]
  0020c	3b f3		 cmp	 esi, ebx
  0020e	74 39		 je	 SHORT $LN13@ClearBridg

; 391  : 		{
; 392  : 			gObj[this->m_BridgeData[iBridgeIndex].m_UserData[i].m_iIndex].m_iBloodCastleEXP = 0;

  00210	69 f6 64 15 00
	00		 imul	 esi, 5476		; 00001564H
  00216	89 96 04 0d 00
	00		 mov	 DWORD PTR ?gObj@@3PAUOBJECTSTRUCT@@A[esi+3332], edx

; 393  : 			gObj[this->m_BridgeData[iBridgeIndex].m_UserData[i].m_iIndex].m_cBloodCastleIndex = -1;

  0021c	8b 71 14	 mov	 esi, DWORD PTR [ecx+20]
  0021f	69 f6 64 15 00
	00		 imul	 esi, 5476		; 00001564H
  00225	88 9e 02 0d 00
	00		 mov	 BYTE PTR ?gObj@@3PAUOBJECTSTRUCT@@A[esi+3330], bl

; 394  : 			gObj[this->m_BridgeData[iBridgeIndex].m_UserData[i].m_iIndex].m_cBloodCastleSubIndex = -1;

  0022b	8b 71 14	 mov	 esi, DWORD PTR [ecx+20]
  0022e	69 f6 64 15 00
	00		 imul	 esi, 5476		; 00001564H
  00234	88 9e 03 0d 00
	00		 mov	 BYTE PTR ?gObj@@3PAUOBJECTSTRUCT@@A[esi+3331], bl

; 395  : 			gObj[this->m_BridgeData[iBridgeIndex].m_UserData[i].m_iIndex].m_bBloodCastleComplete = false;

  0023a	8b 71 14	 mov	 esi, DWORD PTR [ecx+20]
  0023d	69 f6 64 15 00
	00		 imul	 esi, 5476		; 00001564H
  00243	88 96 08 0d 00
	00		 mov	 BYTE PTR ?gObj@@3PAUOBJECTSTRUCT@@A[esi+3336], dl
$LN13@ClearBridg:

; 396  : 		}
; 397  : 
; 398  : 		this->m_BridgeData[iBridgeIndex].m_UserData[i].m_iEXP = 0;

  00249	89 51 18	 mov	 DWORD PTR [ecx+24], edx

; 399  : 		this->m_BridgeData[iBridgeIndex].m_UserData[i].m_iScore = 0;

  0024c	89 51 1c	 mov	 DWORD PTR [ecx+28], edx

; 400  : 		this->m_BridgeData[iBridgeIndex].m_UserData[i].m_iIndex = -1;

  0024f	89 59 14	 mov	 DWORD PTR [ecx+20], ebx

; 401  : 		this->m_BridgeData[iBridgeIndex].m_UserData[i].m_iUserState= 0;

  00252	89 51 20	 mov	 DWORD PTR [ecx+32], edx

; 402  : 		this->m_BridgeData[iBridgeIndex].m_UserData[i].m_bSendQuitMsg = false;

  00255	66 89 51 24	 mov	 WORD PTR [ecx+36], dx

; 403  : 		this->m_BridgeData[iBridgeIndex].m_UserData[i].m_bLiveWhenDoorBreak = false;
; 404  : 		this->m_BridgeData[iBridgeIndex].m_iBC_COMPLETE_USER_INDEX = -1;

  00259	89 98 00 02 00
	00		 mov	 DWORD PTR [eax+512], ebx
  0025f	8b 71 28	 mov	 esi, DWORD PTR [ecx+40]
  00262	3b f3		 cmp	 esi, ebx
  00264	74 39		 je	 SHORT $LN14@ClearBridg

; 391  : 		{
; 392  : 			gObj[this->m_BridgeData[iBridgeIndex].m_UserData[i].m_iIndex].m_iBloodCastleEXP = 0;

  00266	69 f6 64 15 00
	00		 imul	 esi, 5476		; 00001564H
  0026c	89 96 04 0d 00
	00		 mov	 DWORD PTR ?gObj@@3PAUOBJECTSTRUCT@@A[esi+3332], edx

; 393  : 			gObj[this->m_BridgeData[iBridgeIndex].m_UserData[i].m_iIndex].m_cBloodCastleIndex = -1;

  00272	8b 71 28	 mov	 esi, DWORD PTR [ecx+40]
  00275	69 f6 64 15 00
	00		 imul	 esi, 5476		; 00001564H
  0027b	88 9e 02 0d 00
	00		 mov	 BYTE PTR ?gObj@@3PAUOBJECTSTRUCT@@A[esi+3330], bl

; 394  : 			gObj[this->m_BridgeData[iBridgeIndex].m_UserData[i].m_iIndex].m_cBloodCastleSubIndex = -1;

  00281	8b 71 28	 mov	 esi, DWORD PTR [ecx+40]
  00284	69 f6 64 15 00
	00		 imul	 esi, 5476		; 00001564H
  0028a	88 9e 03 0d 00
	00		 mov	 BYTE PTR ?gObj@@3PAUOBJECTSTRUCT@@A[esi+3331], bl

; 395  : 			gObj[this->m_BridgeData[iBridgeIndex].m_UserData[i].m_iIndex].m_bBloodCastleComplete = false;

  00290	8b 71 28	 mov	 esi, DWORD PTR [ecx+40]
  00293	69 f6 64 15 00
	00		 imul	 esi, 5476		; 00001564H
  00299	88 96 08 0d 00
	00		 mov	 BYTE PTR ?gObj@@3PAUOBJECTSTRUCT@@A[esi+3336], dl
$LN14@ClearBridg:

; 396  : 		}
; 397  : 
; 398  : 		this->m_BridgeData[iBridgeIndex].m_UserData[i].m_iEXP = 0;

  0029f	89 51 2c	 mov	 DWORD PTR [ecx+44], edx

; 399  : 		this->m_BridgeData[iBridgeIndex].m_UserData[i].m_iScore = 0;

  002a2	89 51 30	 mov	 DWORD PTR [ecx+48], edx

; 400  : 		this->m_BridgeData[iBridgeIndex].m_UserData[i].m_iIndex = -1;

  002a5	89 59 28	 mov	 DWORD PTR [ecx+40], ebx

; 401  : 		this->m_BridgeData[iBridgeIndex].m_UserData[i].m_iUserState= 0;

  002a8	89 51 34	 mov	 DWORD PTR [ecx+52], edx

; 402  : 		this->m_BridgeData[iBridgeIndex].m_UserData[i].m_bSendQuitMsg = false;

  002ab	66 89 51 38	 mov	 WORD PTR [ecx+56], dx

; 403  : 		this->m_BridgeData[iBridgeIndex].m_UserData[i].m_bLiveWhenDoorBreak = false;
; 404  : 		this->m_BridgeData[iBridgeIndex].m_iBC_COMPLETE_USER_INDEX = -1;

  002af	89 98 00 02 00
	00		 mov	 DWORD PTR [eax+512], ebx
  002b5	8b 71 3c	 mov	 esi, DWORD PTR [ecx+60]
  002b8	3b f3		 cmp	 esi, ebx
  002ba	74 39		 je	 SHORT $LN15@ClearBridg

; 391  : 		{
; 392  : 			gObj[this->m_BridgeData[iBridgeIndex].m_UserData[i].m_iIndex].m_iBloodCastleEXP = 0;

  002bc	69 f6 64 15 00
	00		 imul	 esi, 5476		; 00001564H
  002c2	89 96 04 0d 00
	00		 mov	 DWORD PTR ?gObj@@3PAUOBJECTSTRUCT@@A[esi+3332], edx

; 393  : 			gObj[this->m_BridgeData[iBridgeIndex].m_UserData[i].m_iIndex].m_cBloodCastleIndex = -1;

  002c8	8b 71 3c	 mov	 esi, DWORD PTR [ecx+60]
  002cb	69 f6 64 15 00
	00		 imul	 esi, 5476		; 00001564H
  002d1	88 9e 02 0d 00
	00		 mov	 BYTE PTR ?gObj@@3PAUOBJECTSTRUCT@@A[esi+3330], bl

; 394  : 			gObj[this->m_BridgeData[iBridgeIndex].m_UserData[i].m_iIndex].m_cBloodCastleSubIndex = -1;

  002d7	8b 71 3c	 mov	 esi, DWORD PTR [ecx+60]
  002da	69 f6 64 15 00
	00		 imul	 esi, 5476		; 00001564H
  002e0	88 9e 03 0d 00
	00		 mov	 BYTE PTR ?gObj@@3PAUOBJECTSTRUCT@@A[esi+3331], bl

; 395  : 			gObj[this->m_BridgeData[iBridgeIndex].m_UserData[i].m_iIndex].m_bBloodCastleComplete = false;

  002e6	8b 71 3c	 mov	 esi, DWORD PTR [ecx+60]
  002e9	69 f6 64 15 00
	00		 imul	 esi, 5476		; 00001564H
  002ef	88 96 08 0d 00
	00		 mov	 BYTE PTR ?gObj@@3PAUOBJECTSTRUCT@@A[esi+3336], dl
$LN15@ClearBridg:

; 396  : 		}
; 397  : 
; 398  : 		this->m_BridgeData[iBridgeIndex].m_UserData[i].m_iEXP = 0;

  002f5	89 51 40	 mov	 DWORD PTR [ecx+64], edx

; 399  : 		this->m_BridgeData[iBridgeIndex].m_UserData[i].m_iScore = 0;

  002f8	89 51 44	 mov	 DWORD PTR [ecx+68], edx

; 400  : 		this->m_BridgeData[iBridgeIndex].m_UserData[i].m_iIndex = -1;

  002fb	89 59 3c	 mov	 DWORD PTR [ecx+60], ebx

; 401  : 		this->m_BridgeData[iBridgeIndex].m_UserData[i].m_iUserState= 0;

  002fe	89 51 48	 mov	 DWORD PTR [ecx+72], edx

; 402  : 		this->m_BridgeData[iBridgeIndex].m_UserData[i].m_bSendQuitMsg = false;

  00301	66 89 51 4c	 mov	 WORD PTR [ecx+76], dx

; 403  : 		this->m_BridgeData[iBridgeIndex].m_UserData[i].m_bLiveWhenDoorBreak = false;
; 404  : 		this->m_BridgeData[iBridgeIndex].m_iBC_COMPLETE_USER_INDEX = -1;

  00305	89 98 00 02 00
	00		 mov	 DWORD PTR [eax+512], ebx
  0030b	8b 71 50	 mov	 esi, DWORD PTR [ecx+80]
  0030e	3b f3		 cmp	 esi, ebx
  00310	74 39		 je	 SHORT $LN16@ClearBridg

; 391  : 		{
; 392  : 			gObj[this->m_BridgeData[iBridgeIndex].m_UserData[i].m_iIndex].m_iBloodCastleEXP = 0;

  00312	69 f6 64 15 00
	00		 imul	 esi, 5476		; 00001564H
  00318	89 96 04 0d 00
	00		 mov	 DWORD PTR ?gObj@@3PAUOBJECTSTRUCT@@A[esi+3332], edx

; 393  : 			gObj[this->m_BridgeData[iBridgeIndex].m_UserData[i].m_iIndex].m_cBloodCastleIndex = -1;

  0031e	8b 71 50	 mov	 esi, DWORD PTR [ecx+80]
  00321	69 f6 64 15 00
	00		 imul	 esi, 5476		; 00001564H
  00327	88 9e 02 0d 00
	00		 mov	 BYTE PTR ?gObj@@3PAUOBJECTSTRUCT@@A[esi+3330], bl

; 394  : 			gObj[this->m_BridgeData[iBridgeIndex].m_UserData[i].m_iIndex].m_cBloodCastleSubIndex = -1;

  0032d	8b 71 50	 mov	 esi, DWORD PTR [ecx+80]
  00330	69 f6 64 15 00
	00		 imul	 esi, 5476		; 00001564H
  00336	88 9e 03 0d 00
	00		 mov	 BYTE PTR ?gObj@@3PAUOBJECTSTRUCT@@A[esi+3331], bl

; 395  : 			gObj[this->m_BridgeData[iBridgeIndex].m_UserData[i].m_iIndex].m_bBloodCastleComplete = false;

  0033c	8b 71 50	 mov	 esi, DWORD PTR [ecx+80]
  0033f	69 f6 64 15 00
	00		 imul	 esi, 5476		; 00001564H
  00345	88 96 08 0d 00
	00		 mov	 BYTE PTR ?gObj@@3PAUOBJECTSTRUCT@@A[esi+3336], dl
$LN16@ClearBridg:

; 396  : 		}
; 397  : 
; 398  : 		this->m_BridgeData[iBridgeIndex].m_UserData[i].m_iEXP = 0;

  0034b	89 51 54	 mov	 DWORD PTR [ecx+84], edx

; 399  : 		this->m_BridgeData[iBridgeIndex].m_UserData[i].m_iScore = 0;

  0034e	89 51 58	 mov	 DWORD PTR [ecx+88], edx

; 400  : 		this->m_BridgeData[iBridgeIndex].m_UserData[i].m_iIndex = -1;

  00351	89 59 50	 mov	 DWORD PTR [ecx+80], ebx

; 401  : 		this->m_BridgeData[iBridgeIndex].m_UserData[i].m_iUserState= 0;

  00354	89 51 5c	 mov	 DWORD PTR [ecx+92], edx

; 402  : 		this->m_BridgeData[iBridgeIndex].m_UserData[i].m_bSendQuitMsg = false;

  00357	66 89 51 60	 mov	 WORD PTR [ecx+96], dx

; 403  : 		this->m_BridgeData[iBridgeIndex].m_UserData[i].m_bLiveWhenDoorBreak = false;
; 404  : 		this->m_BridgeData[iBridgeIndex].m_iBC_COMPLETE_USER_INDEX = -1;

  0035b	83 c1 64	 add	 ecx, 100		; 00000064H
  0035e	4f		 dec	 edi
  0035f	89 98 00 02 00
	00		 mov	 DWORD PTR [eax+512], ebx
  00365	0f 85 4d fe ff
	ff		 jne	 $LL4@ClearBridg
  0036b	5f		 pop	 edi
  0036c	5b		 pop	 ebx
$LN12@ClearBridg:
  0036d	5e		 pop	 esi

; 405  : 	}
; 406  : }

  0036e	5d		 pop	 ebp
  0036f	c2 04 00	 ret	 4
?ClearBridgeData@CBloodCastle@@IAEXH@Z ENDP		; CBloodCastle::ClearBridgeData
_TEXT	ENDS
PUBLIC	?ProcState_None@CBloodCastle@@IAEXH@Z		; CBloodCastle::ProcState_None
; Function compile flags: /Ogtp
;	COMDAT ?ProcState_None@CBloodCastle@@IAEXH@Z
_TEXT	SEGMENT
_iBridgeIndex$ = 8					; size = 4
?ProcState_None@CBloodCastle@@IAEXH@Z PROC		; CBloodCastle::ProcState_None, COMDAT
; _this$ = ecx

; 497  : 	return;
; 498  : }

  00000	c2 04 00	 ret	 4
?ProcState_None@CBloodCastle@@IAEXH@Z ENDP		; CBloodCastle::ProcState_None
_TEXT	ENDS
PUBLIC	?GetCurrentState@CBloodCastle@@QAEHH@Z		; CBloodCastle::GetCurrentState
; Function compile flags: /Ogtp
;	COMDAT ?GetCurrentState@CBloodCastle@@QAEHH@Z
_TEXT	SEGMENT
_iBridgeIndex$ = 8					; size = 4
?GetCurrentState@CBloodCastle@@QAEHH@Z PROC		; CBloodCastle::GetCurrentState, COMDAT
; _this$ = ecx

; 898  : {

  00000	55		 push	 ebp
  00001	8b ec		 mov	 ebp, esp

; 899  : 	if ( BC_BRIDGE_RANGE(iBridgeIndex) == FALSE )

  00003	8b 45 08	 mov	 eax, DWORD PTR _iBridgeIndex$[ebp]
  00006	85 c0		 test	 eax, eax
  00008	78 0c		 js	 SHORT $LN6@GetCurrent
  0000a	33 d2		 xor	 edx, edx
  0000c	83 f8 06	 cmp	 eax, 6
  0000f	0f 9e c2	 setle	 dl
  00012	85 d2		 test	 edx, edx
  00014	75 07		 jne	 SHORT $LN1@GetCurrent
$LN6@GetCurrent:

; 900  : 	{
; 901  : 		return -1;

  00016	83 c8 ff	 or	 eax, -1

; 905  : }

  00019	5d		 pop	 ebp
  0001a	c2 04 00	 ret	 4
$LN1@GetCurrent:

; 902  : 	}
; 903  : 
; 904  : 	return this->m_BridgeData[iBridgeIndex].m_iBC_STATE;

  0001d	c1 e0 09	 shl	 eax, 9
  00020	8b 84 08 50 01
	00 00		 mov	 eax, DWORD PTR [eax+ecx+336]

; 905  : }

  00027	5d		 pop	 ebp
  00028	c2 04 00	 ret	 4
?GetCurrentState@CBloodCastle@@QAEHH@Z ENDP		; CBloodCastle::GetCurrentState
_TEXT	ENDS
PUBLIC	?GetCurrentRemainSec@CBloodCastle@@QAEHH@Z	; CBloodCastle::GetCurrentRemainSec
; Function compile flags: /Ogtp
;	COMDAT ?GetCurrentRemainSec@CBloodCastle@@QAEHH@Z
_TEXT	SEGMENT
_iBridgeIndex$ = 8					; size = 4
?GetCurrentRemainSec@CBloodCastle@@QAEHH@Z PROC		; CBloodCastle::GetCurrentRemainSec, COMDAT
; _this$ = ecx

; 913  : {

  00000	55		 push	 ebp
  00001	8b ec		 mov	 ebp, esp

; 914  : 	return this->m_BridgeData[iBridgeIndex].m_iBC_REMAIN_MSEC / 1000;

  00003	8b 45 08	 mov	 eax, DWORD PTR _iBridgeIndex$[ebp]
  00006	c1 e0 09	 shl	 eax, 9
  00009	8b 8c 08 54 01
	00 00		 mov	 ecx, DWORD PTR [eax+ecx+340]
  00010	b8 d3 4d 62 10	 mov	 eax, 274877907		; 10624dd3H
  00015	f7 e9		 imul	 ecx
  00017	c1 fa 06	 sar	 edx, 6
  0001a	8b c2		 mov	 eax, edx
  0001c	c1 e8 1f	 shr	 eax, 31			; 0000001fH
  0001f	03 c2		 add	 eax, edx

; 915  : }

  00021	5d		 pop	 ebp
  00022	c2 04 00	 ret	 4
?GetCurrentRemainSec@CBloodCastle@@QAEHH@Z ENDP		; CBloodCastle::GetCurrentRemainSec
_TEXT	ENDS
PUBLIC	?CheckEnterLevel@CBloodCastle@@QAEHHH@Z		; CBloodCastle::CheckEnterLevel
; Function compile flags: /Ogtp
;	COMDAT ?CheckEnterLevel@CBloodCastle@@QAEHHH@Z
_TEXT	SEGMENT
_iIndex$ = 8						; size = 4
_iLevel$ = 12						; size = 4
?CheckEnterLevel@CBloodCastle@@QAEHHH@Z PROC		; CBloodCastle::CheckEnterLevel, COMDAT
; _this$ = ecx

; 923  : {

  00000	55		 push	 ebp
  00001	8b ec		 mov	 ebp, esp

; 924  : 	if ( OBJMAX_RANGE(iIndex) == FALSE )

  00003	8b 45 08	 mov	 eax, DWORD PTR _iIndex$[ebp]
  00006	85 c0		 test	 eax, eax
  00008	0f 88 b5 00 00
	00		 js	 $LN10@CheckEnter
  0000e	33 c9		 xor	 ecx, ecx
  00010	3d e7 1c 00 00	 cmp	 eax, 7399		; 00001ce7H
  00015	0f 9e c1	 setle	 cl
  00018	85 c9		 test	 ecx, ecx

; 925  : 	{
; 926  : 		return 2;

  0001a	0f 84 a3 00 00
	00		 je	 $LN10@CheckEnter

; 927  : 	}
; 928  : 
; 929  : 	if ( gObj[iIndex].Type != OBJ_USER || gObj[iIndex].Connected <= PLAYER_LOGGED )

  00020	69 c0 64 15 00
	00		 imul	 eax, 5476		; 00001564H
  00026	66 83 b8 60 00
	00 00 01	 cmp	 WORD PTR ?gObj@@3PAUOBJECTSTRUCT@@A[eax+96], 1
  0002e	0f 85 8f 00 00
	00		 jne	 $LN10@CheckEnter
  00034	80 b8 04 00 00
	00 02		 cmp	 BYTE PTR ?gObj@@3PAUOBJECTSTRUCT@@A[eax+4], 2
  0003b	0f 86 82 00 00
	00		 jbe	 $LN10@CheckEnter

; 932  : 	}
; 933  : 
; 934  : 	if ( gObj[iIndex].Class == CLASS_DARKLORD || gObj[iIndex].Class == CLASS_MAGUMSA )

  00041	0f b7 88 98 00
	00 00		 movzx	 ecx, WORD PTR ?gObj@@3PAUOBJECTSTRUCT@@A[eax+152]
  00048	83 f9 04	 cmp	 ecx, 4
  0004b	74 39		 je	 SHORT $LN8@CheckEnter
  0004d	83 f9 03	 cmp	 ecx, 3
  00050	74 34		 je	 SHORT $LN8@CheckEnter

; 949  : 		}
; 950  : 	}
; 951  : 	else
; 952  : 	{
; 953  : 		if ( gObj[iIndex].Level >= g_sttBLOODCASTLE_LEVEL[iLevel-1].iLOWER_BOUND && gObj[iIndex].Level <= g_sttBLOODCASTLE_LEVEL[iLevel-1].iUPPER_BOUND )

  00052	0f bf 88 9c 00
	00 00		 movsx	 ecx, WORD PTR ?gObj@@3PAUOBJECTSTRUCT@@A[eax+156]
  00059	8b 45 0c	 mov	 eax, DWORD PTR _iLevel$[ebp]
  0005c	c1 e0 04	 shl	 eax, 4
  0005f	8b 90 f0 ff ff
	ff		 mov	 edx, DWORD PTR _g_sttBLOODCASTLE_LEVEL[eax-16]
  00065	3b ca		 cmp	 ecx, edx
  00067	7c 46		 jl	 SHORT $LN21@CheckEnter
  00069	3b 88 f4 ff ff
	ff		 cmp	 ecx, DWORD PTR _g_sttBLOODCASTLE_LEVEL[eax-12]

; 954  : 		{
; 955  : 			return 0;

  0006f	7e 34		 jle	 SHORT $LN22@CheckEnter

; 956  : 		}
; 957  : 
; 958  : 		if ( gObj[iIndex].Level < g_sttBLOODCASTLE_LEVEL[iLevel-1].iLOWER_BOUND )

  00071	3b ca		 cmp	 ecx, edx

; 959  : 		{
; 960  : 			return -1;

  00073	7c 3a		 jl	 SHORT $LN21@CheckEnter

; 961  : 		}
; 962  : 
; 963  : 		if ( gObj[iIndex].Level > g_sttBLOODCASTLE_LEVEL[iLevel-1].iUPPER_BOUND )

  00075	3b 88 f4 ff ff
	ff		 cmp	 ecx, DWORD PTR _g_sttBLOODCASTLE_LEVEL[eax-12]
  0007b	7e 46		 jle	 SHORT $LN10@CheckEnter

; 964  : 		{
; 965  : 			return 1;

  0007d	b8 01 00 00 00	 mov	 eax, 1

; 966  : 		}
; 967  : 	}
; 968  : 
; 969  : 	return 2;
; 970  : }

  00082	5d		 pop	 ebp
  00083	c2 08 00	 ret	 8
$LN8@CheckEnter:

; 935  : 	{
; 936  : 		if ( gObj[iIndex].Level >= g_sttBLOODCASTLE_LEVEL[iLevel-1].iLOWER_BOUND_MAGUMSA && gObj[iIndex].Level <= g_sttBLOODCASTLE_LEVEL[iLevel-1].iUPPER_BOUND_MAGUMSA )

  00086	0f bf 88 9c 00
	00 00		 movsx	 ecx, WORD PTR ?gObj@@3PAUOBJECTSTRUCT@@A[eax+156]
  0008d	8b 45 0c	 mov	 eax, DWORD PTR _iLevel$[ebp]
  00090	c1 e0 04	 shl	 eax, 4
  00093	8b 90 f8 ff ff
	ff		 mov	 edx, DWORD PTR _g_sttBLOODCASTLE_LEVEL[eax-8]
  00099	3b ca		 cmp	 ecx, edx
  0009b	7c 12		 jl	 SHORT $LN21@CheckEnter
  0009d	3b 88 fc ff ff
	ff		 cmp	 ecx, DWORD PTR _g_sttBLOODCASTLE_LEVEL[eax-4]
  000a3	7f 06		 jg	 SHORT $LN7@CheckEnter
$LN22@CheckEnter:

; 937  : 		{
; 938  : 			return 0;

  000a5	33 c0		 xor	 eax, eax

; 966  : 		}
; 967  : 	}
; 968  : 
; 969  : 	return 2;
; 970  : }

  000a7	5d		 pop	 ebp
  000a8	c2 08 00	 ret	 8
$LN7@CheckEnter:

; 939  : 		}
; 940  : 
; 941  : 		if ( gObj[iIndex].Level < g_sttBLOODCASTLE_LEVEL[iLevel-1].iLOWER_BOUND_MAGUMSA )

  000ab	3b ca		 cmp	 ecx, edx
  000ad	7d 07		 jge	 SHORT $LN6@CheckEnter
$LN21@CheckEnter:

; 942  : 		{
; 943  : 			return -1;

  000af	83 c8 ff	 or	 eax, -1

; 966  : 		}
; 967  : 	}
; 968  : 
; 969  : 	return 2;
; 970  : }

  000b2	5d		 pop	 ebp
  000b3	c2 08 00	 ret	 8
$LN6@CheckEnter:

; 944  : 		}
; 945  : 
; 946  : 		if ( gObj[iIndex].Level > g_sttBLOODCASTLE_LEVEL[iLevel-1].iUPPER_BOUND_MAGUMSA )

  000b6	3b 88 fc ff ff
	ff		 cmp	 ecx, DWORD PTR _g_sttBLOODCASTLE_LEVEL[eax-4]

; 947  : 		{
; 948  : 			return 1;

  000bc	b8 01 00 00 00	 mov	 eax, 1
  000c1	7f 05		 jg	 SHORT $LN13@CheckEnter
$LN10@CheckEnter:

; 930  : 	{
; 931  : 		return 2;

  000c3	b8 02 00 00 00	 mov	 eax, 2
$LN13@CheckEnter:

; 966  : 		}
; 967  : 	}
; 968  : 
; 969  : 	return 2;
; 970  : }

  000c8	5d		 pop	 ebp
  000c9	c2 08 00	 ret	 8
?CheckEnterLevel@CBloodCastle@@QAEHHH@Z ENDP		; CBloodCastle::CheckEnterLevel
_TEXT	ENDS
PUBLIC	?CheckEnterFreeTicket@CBloodCastle@@QAE_NH@Z	; CBloodCastle::CheckEnterFreeTicket
EXTRN	?IsItem@CItem@@QAEHXZ:PROC			; CItem::IsItem
; Function compile flags: /Ogtp
;	COMDAT ?CheckEnterFreeTicket@CBloodCastle@@QAE_NH@Z
_TEXT	SEGMENT
_iIndex$ = 8						; size = 4
?CheckEnterFreeTicket@CBloodCastle@@QAE_NH@Z PROC	; CBloodCastle::CheckEnterFreeTicket, COMDAT
; _this$ = ecx

; 976  : {

  00000	55		 push	 ebp
  00001	8b ec		 mov	 ebp, esp
  00003	57		 push	 edi

; 977  : 	if ( !OBJMAX_RANGE(iIndex) )

  00004	8b 7d 08	 mov	 edi, DWORD PTR _iIndex$[ebp]
  00007	85 ff		 test	 edi, edi
  00009	78 0f		 js	 SHORT $LN16@CheckEnter@2
  0000b	33 c0		 xor	 eax, eax
  0000d	81 ff e7 1c 00
	00		 cmp	 edi, 7399		; 00001ce7H
  00013	0f 9e c0	 setle	 al
  00016	85 c0		 test	 eax, eax
  00018	75 07		 jne	 SHORT $LN8@CheckEnter@2
$LN16@CheckEnter@2:

; 978  : 		return false;

  0001a	32 c0		 xor	 al, al
  0001c	5f		 pop	 edi

; 995  : }

  0001d	5d		 pop	 ebp
  0001e	c2 04 00	 ret	 4
$LN8@CheckEnter@2:

; 979  : 
; 980  : 	if ( gObj[iIndex].Type != OBJ_USER || gObj[iIndex].Connected <= PLAYER_LOGGED )

  00021	69 ff 64 15 00
	00		 imul	 edi, 5476		; 00001564H
  00027	66 83 bf 60 00
	00 00 01	 cmp	 WORD PTR ?gObj@@3PAUOBJECTSTRUCT@@A[edi+96], 1
  0002f	75 e9		 jne	 SHORT $LN16@CheckEnter@2
  00031	80 bf 04 00 00
	00 02		 cmp	 BYTE PTR ?gObj@@3PAUOBJECTSTRUCT@@A[edi+4], 2
  00038	76 e0		 jbe	 SHORT $LN16@CheckEnter@2

; 981  : 		return false;
; 982  : 
; 983  : 	for (int x=0;x<MAIN_INVENTORY_SIZE;x++)

  0003a	56		 push	 esi
  0003b	33 f6		 xor	 esi, esi
  0003d	8d 49 00	 npad	 3
$LL5@CheckEnter@2:

; 984  : 	{
; 985  : 		if ( gObj[iIndex].pInventory[x].IsItem() == TRUE )

  00040	8b 8f 8c 0c 00
	00		 mov	 ecx, DWORD PTR ?gObj@@3PAUOBJECTSTRUCT@@A[edi+3212]
  00046	03 ce		 add	 ecx, esi
  00048	e8 00 00 00 00	 call	 ?IsItem@CItem@@QAEHXZ	; CItem::IsItem
  0004d	83 f8 01	 cmp	 eax, 1
  00050	75 12		 jne	 SHORT $LN4@CheckEnter@2

; 986  : 		{
; 987  : 			if ( gObj[iIndex].pInventory [x].m_Type == ITEMGET(13,47) )

  00052	8b 87 8c 0c 00
	00		 mov	 eax, DWORD PTR ?gObj@@3PAUOBJECTSTRUCT@@A[edi+3212]
  00058	b9 2f 1a 00 00	 mov	 ecx, 6703		; 00001a2fH
  0005d	66 39 4c 30 06	 cmp	 WORD PTR [eax+esi+6], cx
  00062	74 16		 je	 SHORT $LN14@CheckEnter@2
$LN4@CheckEnter@2:

; 981  : 		return false;
; 982  : 
; 983  : 	for (int x=0;x<MAIN_INVENTORY_SIZE;x++)

  00064	81 c6 a8 00 00
	00		 add	 esi, 168		; 000000a8H
  0006a	81 fe e0 31 00
	00		 cmp	 esi, 12768		; 000031e0H
  00070	7c ce		 jl	 SHORT $LL5@CheckEnter@2

; 990  : 			}
; 991  : 		}
; 992  : 	}
; 993  : 
; 994  : 	return false;

  00072	5e		 pop	 esi
  00073	32 c0		 xor	 al, al
  00075	5f		 pop	 edi

; 995  : }

  00076	5d		 pop	 ebp
  00077	c2 04 00	 ret	 4
$LN14@CheckEnter@2:
  0007a	5e		 pop	 esi

; 988  : 			{
; 989  : 				return true;

  0007b	b0 01		 mov	 al, 1
  0007d	5f		 pop	 edi

; 995  : }

  0007e	5d		 pop	 ebp
  0007f	c2 04 00	 ret	 4
?CheckEnterFreeTicket@CBloodCastle@@QAE_NH@Z ENDP	; CBloodCastle::CheckEnterFreeTicket
_TEXT	ENDS
EXTRN	__localtime64:PROC
; Function compile flags: /Ogtp
; File c:\program files (x86)\microsoft visual studio 10.0\vc\include\time.inl
;	COMDAT _localtime
_TEXT	SEGMENT
_localtime PROC						; COMDAT
; __Time$ = eax

; 114  : #pragma warning( push )
; 115  : #pragma warning( disable : 4996 )
; 116  :     return _localtime64(_Time);

  00000	50		 push	 eax
  00001	e8 00 00 00 00	 call	 __localtime64
  00006	83 c4 04	 add	 esp, 4

; 117  : #pragma warning( pop )
; 118  : }

  00009	c3		 ret	 0
_localtime ENDP
_TEXT	ENDS
PUBLIC	??_C@_0FK@JBBPPAMC@?$FLBlood?5Castle?$FNMix?5Chaos?5Mix?5Fail@ ; `string'
PUBLIC	??_C@_0CL@BPNNCCDO@?$FLMix?$FN?5?$FL?$CFs?$FN?$FL?$CFs?$FN?5CBMix?5Fail?5?$CFd?5Mon@ ; `string'
PUBLIC	??_C@_0CO@FCLAGPLL@?$FLMix?$FN?5?$FL?$CFs?$FN?$FL?$CFs?$FN?5CBMix?5Success?5?$CFd?5@ ; `string'
PUBLIC	??_C@_0GA@CFALPHEA@?$FLBlood?5Castle?$FN?5?E?u?$LI?m?$LI?A?E?d?5Mix?5Chao@ ; `string'
PUBLIC	??_C@_0FM@MNNOPKAN@?$FLBlood?5Castle?$FN?5?E?u?$LI?m?$LI?A?E?d?5Mix?5Chao@ ; `string'
PUBLIC	??_C@_03BHCFKDFC@Mix?$AA@			; `string'
PUBLIC	??_C@_0ED@OIEHENPN@?$FLBlood?5Castle?$FN?5Mix?5Chaos?5Mix?5Sta@ ; `string'
PUBLIC	_iLEVEL$GSCopy$
PUBLIC	__$ArrayPad$
PUBLIC	?BloodCastleChaosMix@CBloodCastle@@QAE_NHH@Z	; CBloodCastle::BloodCastleChaosMix
EXTRN	?GCUserChaosBoxSend@@YAXPAUOBJECTSTRUCT@@H@Z:PROC ; GCUserChaosBoxSend
EXTRN	?ChaosBoxInit@@YAHPAUOBJECTSTRUCT@@@Z:PROC	; ChaosBoxInit
EXTRN	?gObjInventoryCommit@@YAHH@Z:PROC		; gObjInventoryCommit
EXTRN	?ItemSerialCreateSend@@YAXHEEEHEEEEEHEE@Z:PROC	; ItemSerialCreateSend
EXTRN	_rand:PROC
EXTRN	?GCMoneySend@@YAXHK@Z:PROC			; GCMoneySend
EXTRN	?AddTributeMoney@CCastleSiegeSync@@QAEXH@Z:PROC	; CCastleSiegeSync::AddTributeMoney
EXTRN	?GetTaxRateChaos@CCastleSiegeSync@@QAEHH@Z:PROC	; CCastleSiegeSync::GetTaxRateChaos
EXTRN	?g_CastleSiegeSync@@3VCCastleSiegeSync@@A:BYTE	; g_CastleSiegeSync
EXTRN	?DataSend@@YAHHPAEK@Z:PROC			; DataSend
EXTRN	?LogChaosItem@@YAXPAUOBJECTSTRUCT@@PAD@Z:PROC	; LogChaosItem
EXTRN	?LogAdd@@YAXW4eLogColor@@PADZZ:PROC		; LogAdd
EXTRN	?PHeadSetB@@YAXPAEEH@Z:PROC			; PHeadSetB
EXTRN	___security_cookie:DWORD
EXTRN	@__security_check_cookie@4:PROC
EXTRN	__alldiv:PROC
;	COMDAT ??_C@_0FK@JBBPPAMC@?$FLBlood?5Castle?$FNMix?5Chaos?5Mix?5Fail@
; File c:\users\faelhs\mu-1.1\emu - gameserver sapphire s0\gameserver\bloodcastle.cpp
CONST	SEGMENT
??_C@_0FK@JBBPPAMC@?$FLBlood?5Castle?$FNMix?5Chaos?5Mix?5Fail@ DB '[Blood'
	DB	' Castle]Mix Chaos Mix Failed - MixRate Out of Bound (Account:'
	DB	'%s, Name:%s, Level:%d)', 00H		; `string'
CONST	ENDS
;	COMDAT ??_C@_0CL@BPNNCCDO@?$FLMix?$FN?5?$FL?$CFs?$FN?$FL?$CFs?$FN?5CBMix?5Fail?5?$CFd?5Mon@
CONST	SEGMENT
??_C@_0CL@BPNNCCDO@?$FLMix?$FN?5?$FL?$CFs?$FN?$FL?$CFs?$FN?5CBMix?5Fail?5?$CFd?5Mon@ DB '['
	DB	'Mix] [%s][%s] CBMix Fail %d Money : %d-%d', 00H ; `string'
CONST	ENDS
;	COMDAT ??_C@_0CO@FCLAGPLL@?$FLMix?$FN?5?$FL?$CFs?$FN?$FL?$CFs?$FN?5CBMix?5Success?5?$CFd?5@
CONST	SEGMENT
??_C@_0CO@FCLAGPLL@?$FLMix?$FN?5?$FL?$CFs?$FN?$FL?$CFs?$FN?5CBMix?5Success?5?$CFd?5@ DB '['
	DB	'Mix] [%s][%s] CBMix Success %d Money : %d-%d', 00H ; `string'
CONST	ENDS
;	COMDAT ??_C@_0GA@CFALPHEA@?$FLBlood?5Castle?$FN?5?E?u?$LI?m?$LI?A?E?d?5Mix?5Chao@
CONST	SEGMENT
??_C@_0GA@CFALPHEA@?$FLBlood?5Castle?$FN?5?E?u?$LI?m?$LI?A?E?d?5Mix?5Chao@ DB '['
	DB	'Blood Castle] ', 0c5H, 0f5H, 0b8H, 0edH, 0b8H, 0c1H, 0c5H, 0e4H
	DB	' Mix Chaos Mix Failed - Not Enough Money (Account:%s, Name:%s'
	DB	', Level:%d)', 00H				; `string'
CONST	ENDS
;	COMDAT ??_C@_0FM@MNNOPKAN@?$FLBlood?5Castle?$FN?5?E?u?$LI?m?$LI?A?E?d?5Mix?5Chao@
CONST	SEGMENT
??_C@_0FM@MNNOPKAN@?$FLBlood?5Castle?$FN?5?E?u?$LI?m?$LI?A?E?d?5Mix?5Chao@ DB '['
	DB	'Blood Castle] ', 0c5H, 0f5H, 0b8H, 0edH, 0b8H, 0c1H, 0c5H, 0e4H
	DB	' Mix Chaos Mix Failed - MixMoney < 0 (Account:%s, Name:%s, Le'
	DB	'vel:%d)', 00H				; `string'
CONST	ENDS
;	COMDAT ??_C@_03BHCFKDFC@Mix?$AA@
CONST	SEGMENT
??_C@_03BHCFKDFC@Mix?$AA@ DB 'Mix', 00H			; `string'
CONST	ENDS
;	COMDAT ??_C@_0ED@OIEHENPN@?$FLBlood?5Castle?$FN?5Mix?5Chaos?5Mix?5Sta@
CONST	SEGMENT
??_C@_0ED@OIEHENPN@?$FLBlood?5Castle?$FN?5Mix?5Chaos?5Mix?5Sta@ DB '[Bloo'
	DB	'd Castle] Mix Chaos Mix Start (Account:%s, Name:%s, Level:%d)'
	DB	00H						; `string'
; Function compile flags: /Ogtp
CONST	ENDS
;	COMDAT ?BloodCastleChaosMix@CBloodCastle@@QAE_NHH@Z
_TEXT	SEGMENT
_iLEVEL$GSCopy$ = -32					; size = 4
tv331 = -28						; size = 4
tv330 = -24						; size = 4
_iMIX_NEED_MONEY$ = -20					; size = 4
_pMsg$ = -16						; size = 11
__$ArrayPad$ = -4					; size = 4
_iIndex$ = 8						; size = 4
_iLEVEL$ = 12						; size = 4
?BloodCastleChaosMix@CBloodCastle@@QAE_NHH@Z PROC	; CBloodCastle::BloodCastleChaosMix, COMDAT
; _this$ = ecx

; 1002 : {

  00000	55		 push	 ebp
  00001	8b ec		 mov	 ebp, esp
  00003	83 ec 20	 sub	 esp, 32			; 00000020H
  00006	a1 00 00 00 00	 mov	 eax, DWORD PTR ___security_cookie
  0000b	33 c5		 xor	 eax, ebp
  0000d	89 45 fc	 mov	 DWORD PTR __$ArrayPad$[ebp], eax
  00010	53		 push	 ebx
  00011	8b 5d 0c	 mov	 ebx, DWORD PTR _iLEVEL$[ebp]
  00014	57		 push	 edi
  00015	8b 7d 08	 mov	 edi, DWORD PTR _iIndex$[ebp]

; 1089 : 	}
; 1090 : 	else	// Failure
; 1091 : 	{
; 1092 : 		ChaosBoxInit(&gObj[iIndex]);

  00018	89 5d e0	 mov	 DWORD PTR _iLEVEL$GSCopy$[ebp], ebx
  0001b	85 ff		 test	 edi, edi
  0001d	78 0f		 js	 SHORT $LN18@BloodCastl

; 1003 : 	if ( OBJMAX_RANGE(iIndex) == FALSE )

  0001f	33 c0		 xor	 eax, eax
  00021	81 ff e7 1c 00
	00		 cmp	 edi, 7399		; 00001ce7H
  00027	0f 9e c0	 setle	 al
  0002a	85 c0		 test	 eax, eax
  0002c	75 14		 jne	 SHORT $LN11@BloodCastl
$LN18@BloodCastl:
  0002e	5f		 pop	 edi

; 1004 : 	{
; 1005 : 		return false;

  0002f	32 c0		 xor	 al, al
  00031	5b		 pop	 ebx

; 1104 : }

  00032	8b 4d fc	 mov	 ecx, DWORD PTR __$ArrayPad$[ebp]
  00035	33 cd		 xor	 ecx, ebp
  00037	e8 00 00 00 00	 call	 @__security_check_cookie@4
  0003c	8b e5		 mov	 esp, ebp
  0003e	5d		 pop	 ebp
  0003f	c2 08 00	 ret	 8
$LN11@BloodCastl:

; 1006 : 	}
; 1007 : 
; 1008 : 	if ( BC_MAP_RANGE( (iLEVEL + 10) )  == FALSE )

  00042	8d 43 0a	 lea	 eax, DWORD PTR [ebx+10]
  00045	83 f8 0b	 cmp	 eax, 11			; 0000000bH
  00048	7c e4		 jl	 SHORT $LN18@BloodCastl
  0004a	33 c9		 xor	 ecx, ecx
  0004c	83 f8 11	 cmp	 eax, 17			; 00000011H
  0004f	0f 9e c1	 setle	 cl
  00052	8b c1		 mov	 eax, ecx
  00054	85 c0		 test	 eax, eax

; 1009 : 	{
; 1010 : 		return false;

  00056	74 d6		 je	 SHORT $LN18@BloodCastl

; 1011 : 	}
; 1012 : 
; 1013 : 	BOOL bMIX_RESULT = FALSE;
; 1014 : 
; 1015 : 	PMSG_CHAOSMIXRESULT pMsg;
; 1016 : 
; 1017 : 	PHeadSetB((LPBYTE)&pMsg.h, 0x86, sizeof(PMSG_CHAOSMIXRESULT));

  00058	56		 push	 esi
  00059	6a 0b		 push	 11			; 0000000bH
  0005b	8d 55 f0	 lea	 edx, DWORD PTR _pMsg$[ebp]
  0005e	68 86 00 00 00	 push	 134			; 00000086H
  00063	52		 push	 edx
  00064	e8 00 00 00 00	 call	 ?PHeadSetB@@YAXPAEEH@Z	; PHeadSetB

; 1018 : 	pMsg.Result = CB_ERROR;
; 1019 : 	gObj[iIndex].ChaosLock = TRUE;

  00069	8b f7		 mov	 esi, edi
  0006b	69 f6 64 15 00
	00		 imul	 esi, 5476		; 00001564H

; 1020 : 
; 1021 : 	LogAdd(LOG_BLACK, "[Blood Castle] Mix Chaos Mix Start (Account:%s, Name:%s, Level:%d)",
; 1022 : 		gObj[iIndex].AccountID, gObj[iIndex].Name, iLEVEL);

  00071	53		 push	 ebx
  00072	8d 86 6f 00 00
	00		 lea	 eax, DWORD PTR ?gObj@@3PAUOBJECTSTRUCT@@A[esi+111]
  00078	50		 push	 eax
  00079	8d 8e 64 00 00
	00		 lea	 ecx, DWORD PTR ?gObj@@3PAUOBJECTSTRUCT@@A[esi+100]
  0007f	51		 push	 ecx
  00080	68 00 00 00 00	 push	 OFFSET ??_C@_0ED@OIEHENPN@?$FLBlood?5Castle?$FN?5Mix?5Chaos?5Mix?5Sta@
  00085	6a 00		 push	 0
  00087	c6 45 f3 00	 mov	 BYTE PTR _pMsg$[ebp+3], 0
  0008b	c7 86 ec 0c 00
	00 01 00 00 00	 mov	 DWORD PTR ?gObj@@3PAUOBJECTSTRUCT@@A[esi+3308], 1
  00095	89 45 e8	 mov	 DWORD PTR tv330[ebp], eax
  00098	89 4d e4	 mov	 DWORD PTR tv331[ebp], ecx
  0009b	e8 00 00 00 00	 call	 ?LogAdd@@YAXW4eLogColor@@PADZZ ; LogAdd

; 1023 : 	LogChaosItem(&gObj[iIndex], "Mix");

  000a0	8d 86 00 00 00
	00		 lea	 eax, DWORD PTR ?gObj@@3PAUOBJECTSTRUCT@@A[esi]
  000a6	68 00 00 00 00	 push	 OFFSET ??_C@_03BHCFKDFC@Mix?$AA@
  000ab	50		 push	 eax
  000ac	e8 00 00 00 00	 call	 ?LogChaosItem@@YAXPAUOBJECTSTRUCT@@PAD@Z ; LogChaosItem

; 1024 : 
; 1025 : 	int iMIX_SUCCESS_RATE = g_iBC_ChoasMixSuccessRate[iLEVEL - 1];

  000b1	8b 1c 9d fc ff
	ff ff		 mov	 ebx, DWORD PTR _g_iBC_ChoasMixSuccessRate[ebx*4-4]
  000b8	83 c4 28	 add	 esp, 40			; 00000028H

; 1026 : 
; 1027 : 	if ( iMIX_SUCCESS_RATE < 0 || iMIX_SUCCESS_RATE > 100 )

  000bb	83 fb 64	 cmp	 ebx, 100		; 00000064H
  000be	0f 87 ad 01 00
	00		 ja	 $LN8@BloodCastl

; 1032 : 
; 1033 : 		return false;
; 1034 : 	}
; 1035 : 
; 1036 : 	if ( iMIX_SUCCESS_RATE > 80 )

  000c4	83 fb 50	 cmp	 ebx, 80			; 00000050H
  000c7	7e 05		 jle	 SHORT $LN7@BloodCastl

; 1037 : 	{
; 1038 : 		iMIX_SUCCESS_RATE = 80;

  000c9	bb 50 00 00 00	 mov	 ebx, 80			; 00000050H
$LN7@BloodCastl:

; 1039 : 	}
; 1040 : 
; 1041 : 	if ( gObj[iIndex].ChaosSuccessRate > 10 )

  000ce	83 be e8 0c 00
	00 0a		 cmp	 DWORD PTR ?gObj@@3PAUOBJECTSTRUCT@@A[esi+3304], 10 ; 0000000aH
  000d5	7e 20		 jle	 SHORT $LN6@BloodCastl

; 1042 : 	{
; 1043 : 		pMsg.Result = 0xF0;
; 1044 : 		gObj[iIndex].ChaosLock = FALSE;
; 1045 : 
; 1046 : 		DataSend(iIndex, (LPBYTE)&pMsg, pMsg.h.size);

  000d7	0f b6 45 f1	 movzx	 eax, BYTE PTR _pMsg$[ebp+1]
  000db	50		 push	 eax
  000dc	8d 4d f0	 lea	 ecx, DWORD PTR _pMsg$[ebp]
  000df	51		 push	 ecx
  000e0	57		 push	 edi
  000e1	c6 45 f3 f0	 mov	 BYTE PTR _pMsg$[ebp+3], 240 ; 000000f0H
  000e5	c7 86 ec 0c 00
	00 00 00 00 00	 mov	 DWORD PTR ?gObj@@3PAUOBJECTSTRUCT@@A[esi+3308], 0
  000ef	e8 00 00 00 00	 call	 ?DataSend@@YAHHPAEK@Z	; DataSend
  000f4	83 c4 0c	 add	 esp, 12			; 0000000cH
$LN6@BloodCastl:

; 1047 : 	}
; 1048 : 
; 1049 : 	iMIX_SUCCESS_RATE += gObj[iIndex].ChaosSuccessRate;
; 1050 : 	int iMIX_NEED_MONEY = g_iBC_ChoasMixMoney[iLEVEL - 1];

  000f7	8b 55 e0	 mov	 edx, DWORD PTR _iLEVEL$GSCopy$[ebp]
  000fa	8b 04 95 fc ff
	ff ff		 mov	 eax, DWORD PTR _g_iBC_ChoasMixMoney[edx*4-4]
  00101	03 9e e8 0c 00
	00		 add	 ebx, DWORD PTR ?gObj@@3PAUOBJECTSTRUCT@@A[esi+3304]

; 1051 : 	int iChaosTaxMoney = (int)((__int64)(iMIX_NEED_MONEY) * (__int64)(g_CastleSiegeSync.GetTaxRateChaos(iIndex)) / (__int64)100);

  00107	57		 push	 edi
  00108	b9 00 00 00 00	 mov	 ecx, OFFSET ?g_CastleSiegeSync@@3VCCastleSiegeSync@@A ; g_CastleSiegeSync
  0010d	89 45 ec	 mov	 DWORD PTR _iMIX_NEED_MONEY$[ebp], eax
  00110	e8 00 00 00 00	 call	 ?GetTaxRateChaos@CCastleSiegeSync@@QAEHH@Z ; CCastleSiegeSync::GetTaxRateChaos
  00115	f7 6d ec	 imul	 DWORD PTR _iMIX_NEED_MONEY$[ebp]
  00118	6a 00		 push	 0
  0011a	6a 64		 push	 100			; 00000064H
  0011c	52		 push	 edx
  0011d	50		 push	 eax
  0011e	e8 00 00 00 00	 call	 __alldiv

; 1052 : 
; 1053 : 	if ( iChaosTaxMoney < 0 )

  00123	85 c0		 test	 eax, eax
  00125	79 02		 jns	 SHORT $LN5@BloodCastl

; 1054 : 	{
; 1055 : 		iChaosTaxMoney = 0;

  00127	33 c0		 xor	 eax, eax
$LN5@BloodCastl:

; 1056 : 	}
; 1057 : 
; 1058 : 	iMIX_NEED_MONEY += iChaosTaxMoney;

  00129	01 45 ec	 add	 DWORD PTR _iMIX_NEED_MONEY$[ebp], eax

; 1059 : 
; 1060 : 	if ( iMIX_NEED_MONEY <  0 )

  0012c	79 25		 jns	 SHORT $LN4@BloodCastl

; 1061 : 	{
; 1062 : 		DataSend(iIndex, (UCHAR*)&pMsg, pMsg.h.size);

  0012e	0f b6 4d f1	 movzx	 ecx, BYTE PTR _pMsg$[ebp+1]
  00132	51		 push	 ecx
  00133	8d 55 f0	 lea	 edx, DWORD PTR _pMsg$[ebp]
  00136	52		 push	 edx
  00137	57		 push	 edi
  00138	e8 00 00 00 00	 call	 ?DataSend@@YAHHPAEK@Z	; DataSend

; 1063 : 		LogAdd(LOG_BLACK, "[Blood Castle]  Mix Chaos Mix Failed - MixMoney < 0 (Account:%s, Name:%s, Level:%d)",
; 1064 : 			gObj[iIndex].AccountID, gObj[iIndex].Name, iLEVEL);

  0013d	8b 45 e0	 mov	 eax, DWORD PTR _iLEVEL$GSCopy$[ebp]
  00140	8b 4d e8	 mov	 ecx, DWORD PTR tv330[ebp]
  00143	8b 55 e4	 mov	 edx, DWORD PTR tv331[ebp]
  00146	50		 push	 eax
  00147	51		 push	 ecx
  00148	52		 push	 edx
  00149	68 00 00 00 00	 push	 OFFSET ??_C@_0FM@MNNOPKAN@?$FLBlood?5Castle?$FN?5?E?u?$LI?m?$LI?A?E?d?5Mix?5Chao@

; 1065 : 
; 1066 : 		return false;

  0014e	e9 3e 01 00 00	 jmp	 $LN21@BloodCastl
$LN4@BloodCastl:

; 1067 : 	}
; 1068 : 
; 1069 : 	if ( (gObj[iIndex].Money - iMIX_NEED_MONEY) < 0 )	// Not enoght zen

  00153	8b 8e b0 00 00
	00		 mov	 ecx, DWORD PTR ?gObj@@3PAUOBJECTSTRUCT@@A[esi+176]
  00159	2b 4d ec	 sub	 ecx, DWORD PTR _iMIX_NEED_MONEY$[ebp]
  0015c	79 29		 jns	 SHORT $LN3@BloodCastl

; 1070 : 	{
; 1071 : 		pMsg.Result = CB_BC_NOT_ENOUGH_ZEN;
; 1072 : 		DataSend(iIndex, (UCHAR*)&pMsg, pMsg.h.size);

  0015e	0f b6 45 f1	 movzx	 eax, BYTE PTR _pMsg$[ebp+1]
  00162	50		 push	 eax
  00163	8d 4d f0	 lea	 ecx, DWORD PTR _pMsg$[ebp]
  00166	51		 push	 ecx
  00167	57		 push	 edi
  00168	c6 45 f3 0b	 mov	 BYTE PTR _pMsg$[ebp+3], 11 ; 0000000bH
  0016c	e8 00 00 00 00	 call	 ?DataSend@@YAHHPAEK@Z	; DataSend

; 1073 : 		LogAdd(LOG_BLACK, "[Blood Castle]  Mix Chaos Mix Failed - Not Enough Money (Account:%s, Name:%s, Level:%d)",
; 1074 : 			gObj[iIndex].AccountID, gObj[iIndex].Name, iLEVEL);

  00171	8b 55 e0	 mov	 edx, DWORD PTR _iLEVEL$GSCopy$[ebp]
  00174	8b 45 e8	 mov	 eax, DWORD PTR tv330[ebp]
  00177	8b 4d e4	 mov	 ecx, DWORD PTR tv331[ebp]
  0017a	52		 push	 edx
  0017b	50		 push	 eax
  0017c	51		 push	 ecx
  0017d	68 00 00 00 00	 push	 OFFSET ??_C@_0GA@CFALPHEA@?$FLBlood?5Castle?$FN?5?E?u?$LI?m?$LI?A?E?d?5Mix?5Chao@

; 1075 : 
; 1076 : 		return false;

  00182	e9 0a 01 00 00	 jmp	 $LN21@BloodCastl
$LN3@BloodCastl:

; 1077 : 	}
; 1078 : 
; 1079 : 	gObj[iIndex].Money -= iMIX_NEED_MONEY;

  00187	89 8e b0 00 00
	00		 mov	 DWORD PTR ?gObj@@3PAUOBJECTSTRUCT@@A[esi+176], ecx

; 1080 : 	g_CastleSiegeSync.AddTributeMoney(iChaosTaxMoney);

  0018d	50		 push	 eax
  0018e	b9 00 00 00 00	 mov	 ecx, OFFSET ?g_CastleSiegeSync@@3VCCastleSiegeSync@@A ; g_CastleSiegeSync
  00193	e8 00 00 00 00	 call	 ?AddTributeMoney@CCastleSiegeSync@@QAEXH@Z ; CCastleSiegeSync::AddTributeMoney

; 1081 : 	GCMoneySend(iIndex, gObj[iIndex].Money);

  00198	8b 96 b0 00 00
	00		 mov	 edx, DWORD PTR ?gObj@@3PAUOBJECTSTRUCT@@A[esi+176]
  0019e	52		 push	 edx
  0019f	57		 push	 edi
  001a0	e8 00 00 00 00	 call	 ?GCMoneySend@@YAXHK@Z	; GCMoneySend
  001a5	83 c4 08	 add	 esp, 8

; 1082 : 
; 1083 : 	if ( (rand()%100) < iMIX_SUCCESS_RATE )	// Siccess

  001a8	e8 00 00 00 00	 call	 _rand
  001ad	99		 cdq
  001ae	b9 64 00 00 00	 mov	 ecx, 100		; 00000064H
  001b3	f7 f9		 idiv	 ecx
  001b5	3b d3		 cmp	 edx, ebx
  001b7	7d 6a		 jge	 SHORT $LN2@BloodCastl

; 1084 : 	{
; 1085 : 		int item_num = ITEMGET(13,18);	// Invisibility Cloak
; 1086 : 		ItemSerialCreateSend(iIndex, -1, 0, 0, item_num, iLEVEL, 255, 0, 0, 0, -1, 0, 0);

  001b9	8b 55 e0	 mov	 edx, DWORD PTR _iLEVEL$GSCopy$[ebp]
  001bc	6a 00		 push	 0
  001be	6a 00		 push	 0
  001c0	6a ff		 push	 -1
  001c2	6a 00		 push	 0
  001c4	6a 00		 push	 0
  001c6	6a 00		 push	 0
  001c8	68 ff 00 00 00	 push	 255			; 000000ffH
  001cd	52		 push	 edx
  001ce	68 12 1a 00 00	 push	 6674			; 00001a12H
  001d3	6a 00		 push	 0
  001d5	6a 00		 push	 0
  001d7	68 ff 00 00 00	 push	 255			; 000000ffH
  001dc	57		 push	 edi
  001dd	e8 00 00 00 00	 call	 ?ItemSerialCreateSend@@YAXHEEEHEEEEEHEE@Z ; ItemSerialCreateSend

; 1087 : 		LogAdd(LOG_BLACK, "[Mix] [%s][%s] CBMix Success %d Money : %d-%d",
; 1088 : 			gObj[iIndex].AccountID, gObj[iIndex].Name, iMIX_SUCCESS_RATE, gObj[iIndex].Money, iMIX_NEED_MONEY);

  001e2	8b 45 ec	 mov	 eax, DWORD PTR _iMIX_NEED_MONEY$[ebp]
  001e5	8b 8e b0 00 00
	00		 mov	 ecx, DWORD PTR ?gObj@@3PAUOBJECTSTRUCT@@A[esi+176]
  001eb	8b 55 e8	 mov	 edx, DWORD PTR tv330[ebp]
  001ee	50		 push	 eax
  001ef	8b 45 e4	 mov	 eax, DWORD PTR tv331[ebp]
  001f2	51		 push	 ecx
  001f3	53		 push	 ebx
  001f4	52		 push	 edx
  001f5	50		 push	 eax
  001f6	68 00 00 00 00	 push	 OFFSET ??_C@_0CO@FCLAGPLL@?$FLMix?$FN?5?$FL?$CFs?$FN?$FL?$CFs?$FN?5CBMix?5Success?5?$CFd?5@
  001fb	6a 00		 push	 0
  001fd	e8 00 00 00 00	 call	 ?LogAdd@@YAXW4eLogColor@@PADZZ ; LogAdd
  00202	83 c4 50	 add	 esp, 80			; 00000050H

; 1099 : 	}
; 1100 : 
; 1101 : 	::gObjInventoryCommit(iIndex);

  00205	57		 push	 edi
  00206	e8 00 00 00 00	 call	 ?gObjInventoryCommit@@YAHH@Z ; gObjInventoryCommit
  0020b	83 c4 04	 add	 esp, 4
  0020e	5e		 pop	 esi
  0020f	5f		 pop	 edi

; 1102 : 
; 1103 : 	return true;

  00210	b0 01		 mov	 al, 1
  00212	5b		 pop	 ebx

; 1104 : }

  00213	8b 4d fc	 mov	 ecx, DWORD PTR __$ArrayPad$[ebp]
  00216	33 cd		 xor	 ecx, ebp
  00218	e8 00 00 00 00	 call	 @__security_check_cookie@4
  0021d	8b e5		 mov	 esp, ebp
  0021f	5d		 pop	 ebp
  00220	c2 08 00	 ret	 8
$LN2@BloodCastl:

; 1089 : 	}
; 1090 : 	else	// Failure
; 1091 : 	{
; 1092 : 		ChaosBoxInit(&gObj[iIndex]);

  00223	8d 86 00 00 00
	00		 lea	 eax, DWORD PTR ?gObj@@3PAUOBJECTSTRUCT@@A[esi]
  00229	50		 push	 eax
  0022a	e8 00 00 00 00	 call	 ?ChaosBoxInit@@YAHPAUOBJECTSTRUCT@@@Z ; ChaosBoxInit

; 1093 : 		GCUserChaosBoxSend(&gObj[iIndex], 0);

  0022f	8d 86 00 00 00
	00		 lea	 eax, DWORD PTR ?gObj@@3PAUOBJECTSTRUCT@@A[esi]
  00235	6a 00		 push	 0
  00237	50		 push	 eax
  00238	e8 00 00 00 00	 call	 ?GCUserChaosBoxSend@@YAXPAUOBJECTSTRUCT@@H@Z ; GCUserChaosBoxSend

; 1094 : 		DataSend(iIndex, (UCHAR*)&pMsg, pMsg.h.size);

  0023d	0f b6 4d f1	 movzx	 ecx, BYTE PTR _pMsg$[ebp+1]
  00241	51		 push	 ecx
  00242	8d 55 f0	 lea	 edx, DWORD PTR _pMsg$[ebp]
  00245	52		 push	 edx
  00246	57		 push	 edi
  00247	e8 00 00 00 00	 call	 ?DataSend@@YAHHPAEK@Z	; DataSend

; 1095 : 		LogAdd(LOG_BLACK, "[Mix] [%s][%s] CBMix Fail %d Money : %d-%d",
; 1096 : 			gObj[iIndex].AccountID, gObj[iIndex].Name, iMIX_SUCCESS_RATE, gObj[iIndex].Money, iMIX_NEED_MONEY);

  0024c	8b 45 ec	 mov	 eax, DWORD PTR _iMIX_NEED_MONEY$[ebp]
  0024f	8b 8e b0 00 00
	00		 mov	 ecx, DWORD PTR ?gObj@@3PAUOBJECTSTRUCT@@A[esi+176]
  00255	8b 55 e8	 mov	 edx, DWORD PTR tv330[ebp]
  00258	50		 push	 eax
  00259	8b 45 e4	 mov	 eax, DWORD PTR tv331[ebp]
  0025c	51		 push	 ecx
  0025d	53		 push	 ebx
  0025e	52		 push	 edx
  0025f	50		 push	 eax
  00260	68 00 00 00 00	 push	 OFFSET ??_C@_0CL@BPNNCCDO@?$FLMix?$FN?5?$FL?$CFs?$FN?$FL?$CFs?$FN?5CBMix?5Fail?5?$CFd?5Mon@
  00265	6a 00		 push	 0
  00267	e8 00 00 00 00	 call	 ?LogAdd@@YAXW4eLogColor@@PADZZ ; LogAdd
  0026c	83 c4 34	 add	 esp, 52			; 00000034H

; 1097 : 
; 1098 : 		return false;

  0026f	eb 2a		 jmp	 SHORT $LN22@BloodCastl
$LN8@BloodCastl:

; 1028 : 	{
; 1029 : 		DataSend(iIndex, (UCHAR*)&pMsg, pMsg.h.size);

  00271	0f b6 4d f1	 movzx	 ecx, BYTE PTR _pMsg$[ebp+1]
  00275	51		 push	 ecx
  00276	8d 55 f0	 lea	 edx, DWORD PTR _pMsg$[ebp]
  00279	52		 push	 edx
  0027a	57		 push	 edi
  0027b	e8 00 00 00 00	 call	 ?DataSend@@YAHHPAEK@Z	; DataSend

; 1030 : 		LogAdd(LOG_BLACK, "[Blood Castle]Mix Chaos Mix Failed - MixRate Out of Bound (Account:%s, Name:%s, Level:%d)",
; 1031 : 			gObj[iIndex].AccountID, gObj[iIndex].Name, iLEVEL);

  00280	8b 45 e0	 mov	 eax, DWORD PTR _iLEVEL$GSCopy$[ebp]
  00283	8b 4d e8	 mov	 ecx, DWORD PTR tv330[ebp]
  00286	8b 55 e4	 mov	 edx, DWORD PTR tv331[ebp]
  00289	50		 push	 eax
  0028a	51		 push	 ecx
  0028b	52		 push	 edx
  0028c	68 00 00 00 00	 push	 OFFSET ??_C@_0FK@JBBPPAMC@?$FLBlood?5Castle?$FNMix?5Chaos?5Mix?5Fail@
$LN21@BloodCastl:
  00291	6a 00		 push	 0
  00293	e8 00 00 00 00	 call	 ?LogAdd@@YAXW4eLogColor@@PADZZ ; LogAdd
  00298	83 c4 20	 add	 esp, 32			; 00000020H
$LN22@BloodCastl:

; 1104 : }

  0029b	8b 4d fc	 mov	 ecx, DWORD PTR __$ArrayPad$[ebp]
  0029e	5e		 pop	 esi
  0029f	5f		 pop	 edi
  002a0	33 cd		 xor	 ecx, ebp
  002a2	32 c0		 xor	 al, al
  002a4	5b		 pop	 ebx
  002a5	e8 00 00 00 00	 call	 @__security_check_cookie@4
  002aa	8b e5		 mov	 esp, ebp
  002ac	5d		 pop	 ebp
  002ad	c2 08 00	 ret	 8
?BloodCastleChaosMix@CBloodCastle@@QAE_NHH@Z ENDP	; CBloodCastle::BloodCastleChaosMix
_TEXT	ENDS
EXTRN	__time64:PROC
; Function compile flags: /Ogtp
; File c:\program files (x86)\microsoft visual studio 10.0\vc\include\time.inl
;	COMDAT _time
_TEXT	SEGMENT
_time	PROC						; COMDAT
; __Time$ = eax

; 133  :     return _time64(_Time);

  00000	50		 push	 eax
  00001	e8 00 00 00 00	 call	 __time64
  00006	83 c4 04	 add	 esp, 4

; 134  : }

  00009	c3		 ret	 0
_time	ENDP
_TEXT	ENDS
PUBLIC	?CheckChoasMixItem@CBloodCastle@@QAEHH@Z	; CBloodCastle::CheckChoasMixItem
EXTRN	__fltused:DWORD
EXTRN	__ftol2_sse:PROC
; Function compile flags: /Ogtp
; File c:\users\faelhs\mu-1.1\emu - gameserver sapphire s0\gameserver\bloodcastle.cpp
;	COMDAT ?CheckChoasMixItem@CBloodCastle@@QAEHH@Z
_TEXT	SEGMENT
_bIsChaosGemExist$ = -24				; size = 4
_iBloodBoneLevel$ = -20					; size = 4
_iAngelKingPaperLevel$ = -16				; size = 4
_bIsAngelKingPaperExist$ = -12				; size = 4
_bIsOtherItemExist$ = -8				; size = 4
_bIsBloodBoneExist$ = -4				; size = 4
_iCharmOfLuckCount$ = 8					; size = 4
_iIndex$ = 8						; size = 4
?CheckChoasMixItem@CBloodCastle@@QAEHH@Z PROC		; CBloodCastle::CheckChoasMixItem, COMDAT
; _this$ = ecx

; 1162 : {

  00000	55		 push	 ebp
  00001	8b ec		 mov	 ebp, esp
  00003	83 ec 18	 sub	 esp, 24			; 00000018H
  00006	56		 push	 esi

; 1163 : 	if ( OBJMAX_RANGE(iIndex) == FALSE )

  00007	8b 75 08	 mov	 esi, DWORD PTR _iIndex$[ebp]
  0000a	57		 push	 edi
  0000b	33 ff		 xor	 edi, edi
  0000d	3b f7		 cmp	 esi, edi
  0000f	7c 0f		 jl	 SHORT $LN41@CheckChoas
  00011	33 c0		 xor	 eax, eax
  00013	81 fe e7 1c 00
	00		 cmp	 esi, 7399		; 00001ce7H
  00019	0f 9e c0	 setle	 al
  0001c	3b c7		 cmp	 eax, edi
  0001e	75 0a		 jne	 SHORT $LN29@CheckChoas
$LN41@CheckChoas:
  00020	5f		 pop	 edi

; 1164 : 	{
; 1165 : 		return false;

  00021	33 c0		 xor	 eax, eax
  00023	5e		 pop	 esi

; 1276 : 	}
; 1277 : 
; 1278 : 	return 0;
; 1279 : }

  00024	8b e5		 mov	 esp, ebp
  00026	5d		 pop	 ebp
  00027	c2 04 00	 ret	 4
$LN29@CheckChoas:
  0002a	53		 push	 ebx

; 1166 : 	}
; 1167 : 
; 1168 : 	int iCHAOS_MIX_LEVEL = 0;
; 1169 : 	BOOL bIsChaosGemExist = FALSE;
; 1170 : 	BOOL bIsAngelKingPaperExist = FALSE;
; 1171 : 	BOOL bIsBloodBoneExist = FALSE;
; 1172 : 	BOOL bIsOtherItemExist = FALSE;
; 1173 : 	int iEventItemCount = 0;

  0002b	33 db		 xor	 ebx, ebx
  0002d	69 f6 64 15 00
	00		 imul	 esi, 5476		; 00001564H
  00033	89 7d e8	 mov	 DWORD PTR _bIsChaosGemExist$[ebp], edi
  00036	89 7d f4	 mov	 DWORD PTR _bIsAngelKingPaperExist$[ebp], edi
  00039	89 7d fc	 mov	 DWORD PTR _bIsBloodBoneExist$[ebp], edi
  0003c	89 7d f8	 mov	 DWORD PTR _bIsOtherItemExist$[ebp], edi

; 1174 : 	int iAngelKingPaperLevel = 0;

  0003f	89 7d f0	 mov	 DWORD PTR _iAngelKingPaperLevel$[ebp], edi

; 1175 : 	int iBloodBoneLevel = 0;

  00042	89 7d ec	 mov	 DWORD PTR _iBloodBoneLevel$[ebp], edi

; 1176 : 	int iCharmOfLuckCount=0;

  00045	89 7d 08	 mov	 DWORD PTR _iCharmOfLuckCount$[ebp], edi
  00048	eb 06 8d 9b 00
	00 00 00	 npad	 8
$LL28@CheckChoas:

; 1179 : 	{
; 1180 : 		if ( gObj[iIndex].pChaosBox[i].IsItem() == TRUE )

  00050	8b 8e dc 0c 00
	00		 mov	 ecx, DWORD PTR ?gObj@@3PAUOBJECTSTRUCT@@A[esi+3292]
  00056	03 cf		 add	 ecx, edi
  00058	e8 00 00 00 00	 call	 ?IsItem@CItem@@QAEHXZ	; CItem::IsItem
  0005d	83 f8 01	 cmp	 eax, 1
  00060	75 77		 jne	 SHORT $LN27@CheckChoas

; 1181 : 		{
; 1182 : 			if ( gObj[iIndex].pChaosBox[i].m_Type == ITEMGET(12,15) ) // Chaos

  00062	8b 86 dc 0c 00
	00		 mov	 eax, DWORD PTR ?gObj@@3PAUOBJECTSTRUCT@@A[esi+3292]
  00068	0f b7 4c 38 06	 movzx	 ecx, WORD PTR [eax+edi+6]
  0006d	03 c7		 add	 eax, edi
  0006f	ba 0f 18 00 00	 mov	 edx, 6159		; 0000180fH
  00074	66 3b ca	 cmp	 cx, dx
  00077	75 09		 jne	 SHORT $LN24@CheckChoas

; 1183 : 			{
; 1184 : 				bIsChaosGemExist = TRUE;

  00079	c7 45 e8 01 00
	00 00		 mov	 DWORD PTR _bIsChaosGemExist$[ebp], 1
  00080	eb 57		 jmp	 SHORT $LN27@CheckChoas
$LN24@CheckChoas:

; 1185 : 			}
; 1186 : 			else if ( gObj[iIndex].pChaosBox[i].m_Type == ITEMGET(13,16) ) //Scroll of Archangel

  00082	ba 10 1a 00 00	 mov	 edx, 6672		; 00001a10H
  00087	66 3b ca	 cmp	 cx, dx
  0008a	75 11		 jne	 SHORT $LN22@CheckChoas

; 1187 : 			{
; 1188 : 				int iSCROLL_LEVEL = gObj[iIndex].pChaosBox[i].m_Level;
; 1189 : 				iEventItemCount++;
; 1190 : 				bIsAngelKingPaperExist = TRUE;
; 1191 : 				iAngelKingPaperLevel = iSCROLL_LEVEL;

  0008c	0f bf 40 08	 movsx	 eax, WORD PTR [eax+8]
  00090	43		 inc	 ebx
  00091	c7 45 f4 01 00
	00 00		 mov	 DWORD PTR _bIsAngelKingPaperExist$[ebp], 1
  00098	89 45 f0	 mov	 DWORD PTR _iAngelKingPaperLevel$[ebp], eax
  0009b	eb 3c		 jmp	 SHORT $LN27@CheckChoas
$LN22@CheckChoas:

; 1192 : 			}
; 1193 : 			else if ( gObj[iIndex].pChaosBox[i].m_Type == ITEMGET(13,17) ) //Blood Bone

  0009d	ba 11 1a 00 00	 mov	 edx, 6673		; 00001a11H
  000a2	66 3b ca	 cmp	 cx, dx
  000a5	75 11		 jne	 SHORT $LN20@CheckChoas

; 1194 : 			{
; 1195 : 				int iBLOOD_BONE_LEVEL = gObj[iIndex].pChaosBox[i].m_Level;
; 1196 : 				iEventItemCount++;
; 1197 : 				bIsBloodBoneExist = TRUE;
; 1198 : 				iBloodBoneLevel = iBLOOD_BONE_LEVEL;

  000a7	0f bf 40 08	 movsx	 eax, WORD PTR [eax+8]
  000ab	43		 inc	 ebx
  000ac	c7 45 fc 01 00
	00 00		 mov	 DWORD PTR _bIsBloodBoneExist$[ebp], 1
  000b3	89 45 ec	 mov	 DWORD PTR _iBloodBoneLevel$[ebp], eax
  000b6	eb 21		 jmp	 SHORT $LN27@CheckChoas
$LN20@CheckChoas:

; 1199 : 			}
; 1200 : 			else if ( gObj[iIndex].pChaosBox[i].m_Type == ITEMGET(14,53) ) //Charm

  000b8	ba 35 1c 00 00	 mov	 edx, 7221		; 00001c35H
  000bd	66 3b ca	 cmp	 cx, dx
  000c0	75 10		 jne	 SHORT $LN18@CheckChoas

; 1201 : 			{
; 1202 : 				iCharmOfLuckCount += gObj[iIndex].pChaosBox[i].m_Durability;

  000c2	db 45 08	 fild	 DWORD PTR _iCharmOfLuckCount$[ebp]
  000c5	d8 40 24	 fadd	 DWORD PTR [eax+36]
  000c8	e8 00 00 00 00	 call	 __ftol2_sse
  000cd	89 45 08	 mov	 DWORD PTR _iCharmOfLuckCount$[ebp], eax

; 1203 : 			}
; 1204 : 			else

  000d0	eb 07		 jmp	 SHORT $LN27@CheckChoas
$LN18@CheckChoas:

; 1205 : 			{
; 1206 : 				bIsOtherItemExist = TRUE;

  000d2	c7 45 f8 01 00
	00 00		 mov	 DWORD PTR _bIsOtherItemExist$[ebp], 1
$LN27@CheckChoas:

; 1177 : 
; 1178 : 	for ( int i=0;i<CHAOS_BOX_SIZE;i++)

  000d9	81 c7 a8 00 00
	00		 add	 edi, 168		; 000000a8H
  000df	81 ff 00 15 00
	00		 cmp	 edi, 5376		; 00001500H
  000e5	0f 8c 65 ff ff
	ff		 jl	 $LL28@CheckChoas

; 1207 : 			}
; 1208 : 		}
; 1209 : 	}
; 1210 : 
; 1211 : 	gObj[iIndex].ChaosSuccessRate = iCharmOfLuckCount;
; 1212 : 
; 1213 : 	if ( bIsOtherItemExist != FALSE )

  000eb	83 7d f8 00	 cmp	 DWORD PTR _bIsOtherItemExist$[ebp], 0
  000ef	8b 45 08	 mov	 eax, DWORD PTR _iCharmOfLuckCount$[ebp]
  000f2	89 86 e8 0c 00
	00		 mov	 DWORD PTR ?gObj@@3PAUOBJECTSTRUCT@@A[esi+3304], eax
  000f8	74 0e		 je	 SHORT $LN16@CheckChoas

; 1214 : 	{
; 1215 : 		return 8;

  000fa	5b		 pop	 ebx
  000fb	5f		 pop	 edi
  000fc	b8 08 00 00 00	 mov	 eax, 8
  00101	5e		 pop	 esi

; 1276 : 	}
; 1277 : 
; 1278 : 	return 0;
; 1279 : }

  00102	8b e5		 mov	 esp, ebp
  00104	5d		 pop	 ebp
  00105	c2 04 00	 ret	 4
$LN16@CheckChoas:

; 1216 : 	}
; 1217 : 
; 1218 : 	if ( bIsAngelKingPaperExist == FALSE && bIsBloodBoneExist == FALSE )

  00108	83 7d f4 00	 cmp	 DWORD PTR _bIsAngelKingPaperExist$[ebp], 0
  0010c	75 15		 jne	 SHORT $LN40@CheckChoas
  0010e	83 7d fc 00	 cmp	 DWORD PTR _bIsBloodBoneExist$[ebp], 0
  00112	0f 85 e7 00 00
	00		 jne	 $LN13@CheckChoas

; 1219 : 	{
; 1220 : 		return 0;

  00118	5b		 pop	 ebx
  00119	5f		 pop	 edi
  0011a	33 c0		 xor	 eax, eax
  0011c	5e		 pop	 esi

; 1276 : 	}
; 1277 : 
; 1278 : 	return 0;
; 1279 : }

  0011d	8b e5		 mov	 esp, ebp
  0011f	5d		 pop	 ebp
  00120	c2 04 00	 ret	 4
$LN40@CheckChoas:

; 1221 : 	}
; 1222 : 
; 1223 : 	if ( bIsAngelKingPaperExist == FALSE || bIsBloodBoneExist == FALSE )

  00123	83 7d fc 00	 cmp	 DWORD PTR _bIsBloodBoneExist$[ebp], 0
  00127	0f 84 d2 00 00
	00		 je	 $LN13@CheckChoas

; 1226 : 	}
; 1227 : 
; 1228 : 	if ( iEventItemCount > 2 )

  0012d	83 fb 02	 cmp	 ebx, 2
  00130	7e 0e		 jle	 SHORT $LN12@CheckChoas

; 1229 : 	{
; 1230 : 		return 12;

  00132	5b		 pop	 ebx
  00133	5f		 pop	 edi
  00134	b8 0c 00 00 00	 mov	 eax, 12			; 0000000cH
  00139	5e		 pop	 esi

; 1276 : 	}
; 1277 : 
; 1278 : 	return 0;
; 1279 : }

  0013a	8b e5		 mov	 esp, ebp
  0013c	5d		 pop	 ebp
  0013d	c2 04 00	 ret	 4
$LN12@CheckChoas:

; 1231 : 	}
; 1232 : 
; 1233 : 	if ( iCharmOfLuckCount > 10 )

  00140	83 f8 0a	 cmp	 eax, 10			; 0000000aH
  00143	7e 0e		 jle	 SHORT $LN11@CheckChoas

; 1234 : 	{
; 1235 : 		return 15;

  00145	5b		 pop	 ebx
  00146	5f		 pop	 edi
  00147	b8 0f 00 00 00	 mov	 eax, 15			; 0000000fH
  0014c	5e		 pop	 esi

; 1276 : 	}
; 1277 : 
; 1278 : 	return 0;
; 1279 : }

  0014d	8b e5		 mov	 esp, ebp
  0014f	5d		 pop	 ebp
  00150	c2 04 00	 ret	 4
$LN11@CheckChoas:

; 1236 : 	}
; 1237 : 
; 1238 : 	if ( iAngelKingPaperLevel != iBloodBoneLevel )

  00153	8b 7d f0	 mov	 edi, DWORD PTR _iAngelKingPaperLevel$[ebp]
  00156	8b 4d ec	 mov	 ecx, DWORD PTR _iBloodBoneLevel$[ebp]
  00159	3b f9		 cmp	 edi, ecx

; 1239 : 	{
; 1240 : 		return 9;

  0015b	75 2a		 jne	 SHORT $LN43@CheckChoas

; 1241 : 	}
; 1242 : 
; 1243 : 	if ( BC_BRIDGE_RANGE(iAngelKingPaperLevel-1) == FALSE )

  0015d	8d 47 ff	 lea	 eax, DWORD PTR [edi-1]
  00160	85 c0		 test	 eax, eax
  00162	78 23		 js	 SHORT $LN43@CheckChoas
  00164	33 d2		 xor	 edx, edx
  00166	83 f8 06	 cmp	 eax, 6
  00169	0f 9e c2	 setle	 dl
  0016c	8b c2		 mov	 eax, edx
  0016e	85 c0		 test	 eax, eax

; 1244 : 	{
; 1245 : 		return 9;

  00170	74 15		 je	 SHORT $LN43@CheckChoas

; 1246 : 	}
; 1247 : 
; 1248 : 	if ( BC_BRIDGE_RANGE(iBloodBoneLevel-1) == FALSE )

  00172	8d 41 ff	 lea	 eax, DWORD PTR [ecx-1]
  00175	85 c0		 test	 eax, eax
  00177	78 0e		 js	 SHORT $LN43@CheckChoas
  00179	33 c9		 xor	 ecx, ecx
  0017b	83 f8 06	 cmp	 eax, 6
  0017e	0f 9e c1	 setle	 cl
  00181	8b c1		 mov	 eax, ecx
  00183	85 c0		 test	 eax, eax
  00185	75 0e		 jne	 SHORT $LN8@CheckChoas
$LN43@CheckChoas:
  00187	5b		 pop	 ebx
  00188	5f		 pop	 edi

; 1249 : 	{
; 1250 : 		return 9;

  00189	b8 09 00 00 00	 mov	 eax, 9
  0018e	5e		 pop	 esi

; 1276 : 	}
; 1277 : 
; 1278 : 	return 0;
; 1279 : }

  0018f	8b e5		 mov	 esp, ebp
  00191	5d		 pop	 ebp
  00192	c2 04 00	 ret	 4
$LN8@CheckChoas:

; 1251 : 	}
; 1252 : 
; 1253 : 	if ( bIsChaosGemExist == FALSE )

  00195	83 7d e8 00	 cmp	 DWORD PTR _bIsChaosGemExist$[ebp], 0
  00199	75 0e		 jne	 SHORT $LN7@CheckChoas

; 1254 : 	{
; 1255 : 		return 10;

  0019b	5b		 pop	 ebx
  0019c	5f		 pop	 edi
  0019d	b8 0a 00 00 00	 mov	 eax, 10			; 0000000aH
  001a2	5e		 pop	 esi

; 1276 : 	}
; 1277 : 
; 1278 : 	return 0;
; 1279 : }

  001a3	8b e5		 mov	 esp, ebp
  001a5	5d		 pop	 ebp
  001a6	c2 04 00	 ret	 4
$LN7@CheckChoas:

; 1256 : 	}
; 1257 : 
; 1258 : 	if ( gObj[iIndex].Class == CLASS_DARKLORD || gObj[iIndex].Class == CLASS_MAGUMSA )

  001a9	0f b7 86 98 00
	00 00		 movzx	 eax, WORD PTR ?gObj@@3PAUOBJECTSTRUCT@@A[esi+152]
  001b0	83 f8 04	 cmp	 eax, 4
  001b3	74 22		 je	 SHORT $LN5@CheckChoas
  001b5	83 f8 03	 cmp	 eax, 3
  001b8	74 1d		 je	 SHORT $LN5@CheckChoas

; 1263 : 		}
; 1264 : 	}
; 1265 : 	else
; 1266 : 	{
; 1267 : 		if ( gObj[iIndex].Level < g_sttBLOODCASTLE_LEVEL[0].iLOWER_BOUND )

  001ba	0f bf 96 9c 00
	00 00		 movsx	 edx, WORD PTR ?gObj@@3PAUOBJECTSTRUCT@@A[esi+156]
  001c1	3b 15 00 00 00
	00		 cmp	 edx, DWORD PTR _g_sttBLOODCASTLE_LEVEL
  001c7	7d 2b		 jge	 SHORT $LN4@CheckChoas

; 1268 : 		{
; 1269 : 			return 14;

  001c9	5b		 pop	 ebx
  001ca	5f		 pop	 edi
  001cb	b8 0e 00 00 00	 mov	 eax, 14			; 0000000eH
  001d0	5e		 pop	 esi

; 1276 : 	}
; 1277 : 
; 1278 : 	return 0;
; 1279 : }

  001d1	8b e5		 mov	 esp, ebp
  001d3	5d		 pop	 ebp
  001d4	c2 04 00	 ret	 4
$LN5@CheckChoas:

; 1259 : 	{
; 1260 : 		if ( gObj[iIndex].Level < g_sttBLOODCASTLE_LEVEL[0].iLOWER_BOUND_MAGUMSA )

  001d7	0f bf 86 9c 00
	00 00		 movsx	 eax, WORD PTR ?gObj@@3PAUOBJECTSTRUCT@@A[esi+156]
  001de	3b 05 08 00 00
	00		 cmp	 eax, DWORD PTR _g_sttBLOODCASTLE_LEVEL+8
  001e4	7d 0e		 jge	 SHORT $LN4@CheckChoas

; 1261 : 		{
; 1262 : 			return 14;

  001e6	5b		 pop	 ebx
  001e7	5f		 pop	 edi
  001e8	b8 0e 00 00 00	 mov	 eax, 14			; 0000000eH
  001ed	5e		 pop	 esi

; 1276 : 	}
; 1277 : 
; 1278 : 	return 0;
; 1279 : }

  001ee	8b e5		 mov	 esp, ebp
  001f0	5d		 pop	 ebp
  001f1	c2 04 00	 ret	 4
$LN4@CheckChoas:
  001f4	5b		 pop	 ebx

; 1270 : 		}
; 1271 : 	}
; 1272 : 
; 1273 : 	if ( bIsChaosGemExist != FALSE && bIsAngelKingPaperExist != FALSE && bIsBloodBoneExist != FALSE )
; 1274 : 	{
; 1275 : 		return iAngelKingPaperLevel;

  001f5	8b c7		 mov	 eax, edi
  001f7	5f		 pop	 edi
  001f8	5e		 pop	 esi

; 1276 : 	}
; 1277 : 
; 1278 : 	return 0;
; 1279 : }

  001f9	8b e5		 mov	 esp, ebp
  001fb	5d		 pop	 ebp
  001fc	c2 04 00	 ret	 4
$LN13@CheckChoas:
  001ff	5b		 pop	 ebx
  00200	5f		 pop	 edi

; 1224 : 	{
; 1225 : 		return 11;

  00201	b8 0b 00 00 00	 mov	 eax, 11			; 0000000bH
  00206	5e		 pop	 esi

; 1276 : 	}
; 1277 : 
; 1278 : 	return 0;
; 1279 : }

  00207	8b e5		 mov	 esp, ebp
  00209	5d		 pop	 ebp
  0020a	c2 04 00	 ret	 4
?CheckChoasMixItem@CBloodCastle@@QAEHH@Z ENDP		; CBloodCastle::CheckChoasMixItem
_TEXT	ENDS
PUBLIC	?CheckEnterItem@CBloodCastle@@QAEHH@Z		; CBloodCastle::CheckEnterItem
; Function compile flags: /Ogtp
;	COMDAT ?CheckEnterItem@CBloodCastle@@QAEHH@Z
_TEXT	SEGMENT
_iIndex$ = 8						; size = 4
?CheckEnterItem@CBloodCastle@@QAEHH@Z PROC		; CBloodCastle::CheckEnterItem, COMDAT
; _this$ = ecx

; 1288 : {

  00000	55		 push	 ebp
  00001	8b ec		 mov	 ebp, esp

; 1289 : 	int iITEM_LEVEL = 0;
; 1290 : 
; 1291 : 	if ( OBJMAX_RANGE(iIndex) == FALSE )

  00003	8b 45 08	 mov	 eax, DWORD PTR _iIndex$[ebp]
  00006	56		 push	 esi
  00007	33 f6		 xor	 esi, esi
  00009	85 c0		 test	 eax, eax
  0000b	78 0e		 js	 SHORT $LN21@CheckEnter@3
  0000d	33 c9		 xor	 ecx, ecx
  0000f	3d e7 1c 00 00	 cmp	 eax, 7399		; 00001ce7H
  00014	0f 9e c1	 setle	 cl
  00017	85 c9		 test	 ecx, ecx
  00019	75 07		 jne	 SHORT $LN11@CheckEnter@3
$LN21@CheckEnter@3:

; 1292 : 	{
; 1293 : 		return 0;

  0001b	33 c0		 xor	 eax, eax
  0001d	5e		 pop	 esi

; 1329 : }

  0001e	5d		 pop	 ebp
  0001f	c2 04 00	 ret	 4
$LN11@CheckEnter@3:
  00022	53		 push	 ebx

; 1294 : 	}
; 1295 : 
; 1296 : 	if ( gObj[iIndex].Type != OBJ_USER || gObj[iIndex].Connected <= PLAYER_LOGGED )

  00023	8b d8		 mov	 ebx, eax
  00025	69 db 64 15 00
	00		 imul	 ebx, 5476		; 00001564H
  0002b	66 83 bb 60 00
	00 00 01	 cmp	 WORD PTR ?gObj@@3PAUOBJECTSTRUCT@@A[ebx+96], 1
  00033	75 76		 jne	 SHORT $LN9@CheckEnter@3
  00035	80 bb 04 00 00
	00 02		 cmp	 BYTE PTR ?gObj@@3PAUOBJECTSTRUCT@@A[ebx+4], 2
  0003c	76 6d		 jbe	 SHORT $LN9@CheckEnter@3

; 1299 : 	}
; 1300 : 
; 1301 : 	for ( int x=0;x<MAIN_INVENTORY_SIZE;x++)

  0003e	57		 push	 edi
  0003f	33 ff		 xor	 edi, edi
$LL8@CheckEnter@3:

; 1302 : 	{
; 1303 : 		if ( gObj[iIndex].pInventory[x].IsItem() == TRUE )

  00041	8b 8b 8c 0c 00
	00		 mov	 ecx, DWORD PTR ?gObj@@3PAUOBJECTSTRUCT@@A[ebx+3212]
  00047	03 cf		 add	 ecx, edi
  00049	e8 00 00 00 00	 call	 ?IsItem@CItem@@QAEHXZ	; CItem::IsItem
  0004e	83 f8 01	 cmp	 eax, 1
  00051	75 41		 jne	 SHORT $LN7@CheckEnter@3

; 1304 : 		{
; 1305 : 			if ( gObj[iIndex].pInventory[x].m_Type == ITEMGET(13,18) ) // Invisibility Cloak

  00053	8b 83 8c 0c 00
	00		 mov	 eax, DWORD PTR ?gObj@@3PAUOBJECTSTRUCT@@A[ebx+3212]
  00059	0f b7 4c 38 06	 movzx	 ecx, WORD PTR [eax+edi+6]
  0005e	ba 12 1a 00 00	 mov	 edx, 6674		; 00001a12H
  00063	66 3b ca	 cmp	 cx, dx
  00066	75 1d		 jne	 SHORT $LN2@CheckEnter@3

; 1306 : 			{
; 1307 : 				iITEM_LEVEL = gObj[iIndex].pInventory[x].m_Level;

  00068	0f bf 74 38 08	 movsx	 esi, WORD PTR [eax+edi+8]

; 1308 : 
; 1309 : 				if ( CHECK_LIMIT(iITEM_LEVEL, MAX_CLOACK_LEVEL) == FALSE )

  0006d	85 f6		 test	 esi, esi
  0006f	78 0c		 js	 SHORT $LN22@CheckEnter@3
  00071	33 c0		 xor	 eax, eax
  00073	83 fe 07	 cmp	 esi, 7
  00076	0f 9e c0	 setle	 al
  00079	85 c0		 test	 eax, eax
  0007b	75 04		 jne	 SHORT $LN3@CheckEnter@3
$LN22@CheckEnter@3:

; 1310 : 				{
; 1311 : 					iITEM_LEVEL = 0;

  0007d	33 f6		 xor	 esi, esi

; 1312 : 
; 1313 : 				}
; 1314 : 
; 1315 : 				if ( iITEM_LEVEL != 0 )

  0007f	eb 04		 jmp	 SHORT $LN2@CheckEnter@3
$LN3@CheckEnter@3:
  00081	85 f6		 test	 esi, esi
  00083	75 1d		 jne	 SHORT $LN6@CheckEnter@3
$LN2@CheckEnter@3:

; 1316 : 				{
; 1317 : 					return iITEM_LEVEL;
; 1318 : 				}
; 1319 : 			}
; 1320 : 			
; 1321 : 			if ( gObj[iIndex].pInventory[x].m_Type == ITEMGET(13,47) ) // 

  00085	b8 2f 1a 00 00	 mov	 eax, 6703		; 00001a2fH
  0008a	66 3b c8	 cmp	 cx, ax
  0008d	75 05		 jne	 SHORT $LN7@CheckEnter@3

; 1322 : 			{
; 1323 : 				iITEM_LEVEL = 10;

  0008f	be 0a 00 00 00	 mov	 esi, 10			; 0000000aH
$LN7@CheckEnter@3:

; 1299 : 	}
; 1300 : 
; 1301 : 	for ( int x=0;x<MAIN_INVENTORY_SIZE;x++)

  00094	81 c7 a8 00 00
	00		 add	 edi, 168		; 000000a8H
  0009a	81 ff e0 31 00
	00		 cmp	 edi, 12768		; 000031e0H
  000a0	7c 9f		 jl	 SHORT $LL8@CheckEnter@3
$LN6@CheckEnter@3:
  000a2	5f		 pop	 edi
  000a3	5b		 pop	 ebx

; 1324 : 			}
; 1325 : 		}
; 1326 : 	}
; 1327 : 
; 1328 : 	return iITEM_LEVEL;

  000a4	8b c6		 mov	 eax, esi
  000a6	5e		 pop	 esi

; 1329 : }

  000a7	5d		 pop	 ebp
  000a8	c2 04 00	 ret	 4
$LN9@CheckEnter@3:
  000ab	5b		 pop	 ebx

; 1297 : 	{
; 1298 : 		return 0;

  000ac	33 c0		 xor	 eax, eax
  000ae	5e		 pop	 esi

; 1329 : }

  000af	5d		 pop	 ebp
  000b0	c2 04 00	 ret	 4
?CheckEnterItem@CBloodCastle@@QAEHH@Z ENDP		; CBloodCastle::CheckEnterItem
_TEXT	ENDS
PUBLIC	?CheckQuestItem@CBloodCastle@@QAEHH@Z		; CBloodCastle::CheckQuestItem
; Function compile flags: /Ogtp
;	COMDAT ?CheckQuestItem@CBloodCastle@@QAEHH@Z
_TEXT	SEGMENT
_this$ = -8						; size = 4
_iITEM_LEVEL$ = -4					; size = 4
_iIndex$ = 8						; size = 4
?CheckQuestItem@CBloodCastle@@QAEHH@Z PROC		; CBloodCastle::CheckQuestItem, COMDAT
; _this$ = ecx

; 1338 : {

  00000	55		 push	 ebp
  00001	8b ec		 mov	 ebp, esp
  00003	83 ec 08	 sub	 esp, 8
  00006	56		 push	 esi
  00007	57		 push	 edi

; 1339 : 	int iITEM_LEVEL = -1;
; 1340 : 
; 1341 : 	if ( OBJMAX_RANGE(iIndex) == FALSE )

  00008	8b 7d 08	 mov	 edi, DWORD PTR _iIndex$[ebp]
  0000b	83 ce ff	 or	 esi, -1
  0000e	89 4d f8	 mov	 DWORD PTR _this$[ebp], ecx
  00011	89 75 fc	 mov	 DWORD PTR _iITEM_LEVEL$[ebp], esi
  00014	85 ff		 test	 edi, edi
  00016	78 0f		 js	 SHORT $LN23@CheckQuest
  00018	33 d2		 xor	 edx, edx
  0001a	81 ff e7 1c 00
	00		 cmp	 edi, 7399		; 00001ce7H
  00020	0f 9e c2	 setle	 dl
  00023	85 d2		 test	 edx, edx
  00025	75 0a		 jne	 SHORT $LN13@CheckQuest
$LN23@CheckQuest:
  00027	5f		 pop	 edi

; 1342 : 	{
; 1343 : 		return -1;

  00028	8b c6		 mov	 eax, esi
  0002a	5e		 pop	 esi

; 1375 : 						
; 1376 : 					}
; 1377 : 
; 1378 : 					break;
; 1379 : 				}
; 1380 : 			}
; 1381 : 		}
; 1382 : 	}
; 1383 : 
; 1384 : 	return iITEM_LEVEL;
; 1385 : }

  0002b	8b e5		 mov	 esp, ebp
  0002d	5d		 pop	 ebp
  0002e	c2 04 00	 ret	 4
$LN13@CheckQuest:

; 1344 : 	}
; 1345 : 
; 1346 : 	if ( BC_MAP_RANGE(gObj[iIndex].MapNumber) == FALSE )

  00031	69 ff 64 15 00
	00		 imul	 edi, 5476		; 00001564H
  00037	53		 push	 ebx
  00038	8a 9f 09 01 00
	00		 mov	 bl, BYTE PTR ?gObj@@3PAUOBJECTSTRUCT@@A[edi+265]
  0003e	80 fb 0b	 cmp	 bl, 11			; 0000000bH
  00041	0f 82 ce 00 00
	00		 jb	 $LN9@CheckQuest
  00047	b0 11		 mov	 al, 17			; 00000011H
  00049	3a c3		 cmp	 al, bl
  0004b	1b d2		 sbb	 edx, edx
  0004d	42		 inc	 edx

; 1347 : 	{
; 1348 : 		return -1;

  0004e	0f 84 c1 00 00
	00		 je	 $LN9@CheckQuest

; 1349 : 	}
; 1350 : 
; 1351 : 
; 1352 : 	if ( this->m_BridgeData[gObj[iIndex].MapNumber - MAP_INDEX_BLOODCASTLE1 ].m_nBC_QUESTITEM_SERIAL == -1 )

  00054	0f b6 d3	 movzx	 edx, bl
  00057	c1 e2 09	 shl	 edx, 9
  0005a	39 b4 0a 90 eb
	ff ff		 cmp	 DWORD PTR [edx+ecx-5232], esi

; 1353 : 	{
; 1354 : 		return -1;

  00061	0f 84 ae 00 00
	00		 je	 $LN9@CheckQuest

; 1355 : 	}
; 1356 : 
; 1357 : 	if ( gObj[iIndex].Type != OBJ_USER || gObj[iIndex].Connected <= PLAYER_LOGGED )

  00067	66 83 bf 60 00
	00 00 01	 cmp	 WORD PTR ?gObj@@3PAUOBJECTSTRUCT@@A[edi+96], 1
  0006f	0f 85 a0 00 00
	00		 jne	 $LN9@CheckQuest
  00075	80 bf 04 00 00
	00 02		 cmp	 BYTE PTR ?gObj@@3PAUOBJECTSTRUCT@@A[edi+4], 2
  0007c	0f 86 93 00 00
	00		 jbe	 $LN9@CheckQuest

; 1360 : 	}
; 1361 : 
; 1362 : 	for ( int x=0;x<MAIN_INVENTORY_SIZE;x++)

  00082	33 db		 xor	 ebx, ebx
  00084	33 f6		 xor	 esi, esi
  00086	eb 08 8d a4 24
	00 00 00 00 90	 npad	 10
$LL8@CheckQuest:

; 1363 : 	{
; 1364 : 		if ( gObj[iIndex].pInventory[x].IsItem() == TRUE )

  00090	8b 8f 8c 0c 00
	00		 mov	 ecx, DWORD PTR ?gObj@@3PAUOBJECTSTRUCT@@A[edi+3212]
  00096	03 ce		 add	 ecx, esi
  00098	e8 00 00 00 00	 call	 ?IsItem@CItem@@QAEHXZ	; CItem::IsItem
  0009d	83 f8 01	 cmp	 eax, 1
  000a0	75 2b		 jne	 SHORT $LN7@CheckQuest

; 1365 : 		{
; 1366 : 			if ( gObj[iIndex].pInventory[x].m_Type == ITEMGET(13,19) ) // Absolute Weapon of Archangel QUEST ITEM

  000a2	8b 87 8c 0c 00
	00		 mov	 eax, DWORD PTR ?gObj@@3PAUOBJECTSTRUCT@@A[edi+3212]
  000a8	b9 13 1a 00 00	 mov	 ecx, 6675		; 00001a13H
  000ad	66 39 4c 30 06	 cmp	 WORD PTR [eax+esi+6], cx
  000b2	75 19		 jne	 SHORT $LN7@CheckQuest

; 1367 : 			{
; 1368 : 				if ( gObj[iIndex].pInventory[x].m_Number	== this->m_BridgeData[gObj[iIndex].MapNumber - MAP_INDEX_BLOODCASTLE1].m_nBC_QUESTITEM_SERIAL )

  000b4	0f b6 97 09 01
	00 00		 movzx	 edx, BYTE PTR ?gObj@@3PAUOBJECTSTRUCT@@A[edi+265]
  000bb	8b 04 30	 mov	 eax, DWORD PTR [eax+esi]
  000be	8b 4d f8	 mov	 ecx, DWORD PTR _this$[ebp]
  000c1	c1 e2 09	 shl	 edx, 9
  000c4	3b 84 0a 90 eb
	ff ff		 cmp	 eax, DWORD PTR [edx+ecx-5232]
  000cb	74 1b		 je	 SHORT $LN21@CheckQuest
$LN7@CheckQuest:

; 1360 : 	}
; 1361 : 
; 1362 : 	for ( int x=0;x<MAIN_INVENTORY_SIZE;x++)

  000cd	81 c6 a8 00 00
	00		 add	 esi, 168		; 000000a8H
  000d3	43		 inc	 ebx
  000d4	81 fe e0 31 00
	00		 cmp	 esi, 12768		; 000031e0H
  000da	7c b4		 jl	 SHORT $LL8@CheckQuest

; 1373 : 					{
; 1374 : 						iITEM_LEVEL = -1;

  000dc	8b 45 fc	 mov	 eax, DWORD PTR _iITEM_LEVEL$[ebp]
  000df	5b		 pop	 ebx
  000e0	5f		 pop	 edi
  000e1	5e		 pop	 esi

; 1375 : 						
; 1376 : 					}
; 1377 : 
; 1378 : 					break;
; 1379 : 				}
; 1380 : 			}
; 1381 : 		}
; 1382 : 	}
; 1383 : 
; 1384 : 	return iITEM_LEVEL;
; 1385 : }

  000e2	8b e5		 mov	 esp, ebp
  000e4	5d		 pop	 ebp
  000e5	c2 04 00	 ret	 4
$LN21@CheckQuest:

; 1369 : 				{
; 1370 : 					iITEM_LEVEL = gObj[iIndex].pInventory[x].m_Level;

  000e8	8b 97 8c 0c 00
	00		 mov	 edx, DWORD PTR ?gObj@@3PAUOBJECTSTRUCT@@A[edi+3212]
  000ee	69 db a8 00 00
	00		 imul	 ebx, 168		; 000000a8H
  000f4	0f bf 44 13 08	 movsx	 eax, WORD PTR [ebx+edx+8]

; 1371 : 
; 1372 : 					if ( iITEM_LEVEL < 0 || iITEM_LEVEL > 2 )

  000f9	85 c0		 test	 eax, eax
  000fb	78 05		 js	 SHORT $LN1@CheckQuest
  000fd	83 f8 02	 cmp	 eax, 2
  00100	7e 15		 jle	 SHORT $LN25@CheckQuest
$LN1@CheckQuest:
  00102	5b		 pop	 ebx

; 1373 : 					{
; 1374 : 						iITEM_LEVEL = -1;

  00103	c7 45 fc ff ff
	ff ff		 mov	 DWORD PTR _iITEM_LEVEL$[ebp], -1
  0010a	8b 45 fc	 mov	 eax, DWORD PTR _iITEM_LEVEL$[ebp]
  0010d	5f		 pop	 edi
  0010e	5e		 pop	 esi

; 1375 : 						
; 1376 : 					}
; 1377 : 
; 1378 : 					break;
; 1379 : 				}
; 1380 : 			}
; 1381 : 		}
; 1382 : 	}
; 1383 : 
; 1384 : 	return iITEM_LEVEL;
; 1385 : }

  0010f	8b e5		 mov	 esp, ebp
  00111	5d		 pop	 ebp
  00112	c2 04 00	 ret	 4
$LN9@CheckQuest:

; 1358 : 	{
; 1359 : 		return -1;

  00115	8b c6		 mov	 eax, esi
$LN25@CheckQuest:
  00117	5b		 pop	 ebx
  00118	5f		 pop	 edi
  00119	5e		 pop	 esi

; 1375 : 						
; 1376 : 					}
; 1377 : 
; 1378 : 					break;
; 1379 : 				}
; 1380 : 			}
; 1381 : 		}
; 1382 : 	}
; 1383 : 
; 1384 : 	return iITEM_LEVEL;
; 1385 : }

  0011a	8b e5		 mov	 esp, ebp
  0011c	5d		 pop	 ebp
  0011d	c2 04 00	 ret	 4
?CheckQuestItem@CBloodCastle@@QAEHH@Z ENDP		; CBloodCastle::CheckQuestItem
_TEXT	ENDS
PUBLIC	?CheckWalk@CBloodCastle@@QAE_NHHH@Z		; CBloodCastle::CheckWalk
EXTRN	?GetAttr@MapClass@@QAEEHH@Z:PROC		; MapClass::GetAttr
EXTRN	?MapC@@3PAVMapClass@@A:BYTE			; MapC
; Function compile flags: /Ogtp
;	COMDAT ?CheckWalk@CBloodCastle@@QAE_NHHH@Z
_TEXT	SEGMENT
_iIndex$ = 8						; size = 4
_iMoveX$ = 12						; size = 4
_iMoveY$ = 16						; size = 4
?CheckWalk@CBloodCastle@@QAE_NHHH@Z PROC		; CBloodCastle::CheckWalk, COMDAT
; _this$ = ecx

; 1393 : {

  00000	55		 push	 ebp
  00001	8b ec		 mov	 ebp, esp

; 1394 : 	if ( OBJMAX_RANGE(iIndex) == FALSE )

  00003	8b 45 08	 mov	 eax, DWORD PTR _iIndex$[ebp]
  00006	57		 push	 edi
  00007	8b f9		 mov	 edi, ecx
  00009	85 c0		 test	 eax, eax
  0000b	78 0e		 js	 SHORT $LN13@CheckWalk
  0000d	33 d2		 xor	 edx, edx
  0000f	3d e7 1c 00 00	 cmp	 eax, 7399		; 00001ce7H
  00014	0f 9e c2	 setle	 dl
  00017	85 d2		 test	 edx, edx
  00019	75 07		 jne	 SHORT $LN6@CheckWalk
$LN13@CheckWalk:

; 1395 : 	{
; 1396 : 		return false;

  0001b	32 c0		 xor	 al, al
  0001d	5f		 pop	 edi

; 1420 : }

  0001e	5d		 pop	 ebp
  0001f	c2 0c 00	 ret	 12			; 0000000cH
$LN6@CheckWalk:

; 1397 : 	}
; 1398 : 	
; 1399 : 	if ( BC_MAP_RANGE(gObj[iIndex].MapNumber) == FALSE )

  00022	69 c0 64 15 00
	00		 imul	 eax, 5476		; 00001564H
  00028	53		 push	 ebx
  00029	8a 98 09 01 00
	00		 mov	 bl, BYTE PTR ?gObj@@3PAUOBJECTSTRUCT@@A[eax+265]
  0002f	80 fb 0b	 cmp	 bl, 11			; 0000000bH
  00032	72 5e		 jb	 SHORT $LN3@CheckWalk
  00034	b1 11		 mov	 cl, 17			; 00000011H
  00036	3a cb		 cmp	 cl, bl
  00038	1b d2		 sbb	 edx, edx
  0003a	42		 inc	 edx

; 1400 : 	{
; 1401 : 		return false;

  0003b	74 55		 je	 SHORT $LN3@CheckWalk

; 1402 : 	}
; 1403 : 
; 1404 : 	if ( gObj[iIndex].Type != OBJ_USER || gObj[iIndex].Connected <= PLAYER_LOGGED )

  0003d	66 83 b8 60 00
	00 00 01	 cmp	 WORD PTR ?gObj@@3PAUOBJECTSTRUCT@@A[eax+96], 1
  00045	75 4b		 jne	 SHORT $LN3@CheckWalk
  00047	80 b8 04 00 00
	00 02		 cmp	 BYTE PTR ?gObj@@3PAUOBJECTSTRUCT@@A[eax+4], 2
  0004e	76 42		 jbe	 SHORT $LN3@CheckWalk

; 1407 : 	}
; 1408 : 
; 1409 : 	if ( this->GetCurrentState(gObj[iIndex].MapNumber ) == TRUE )	// Apply Deathway fix here : Add -MAP_INDEX_BLOODCASTLE1

  00050	56		 push	 esi
  00051	0f b6 f3	 movzx	 esi, bl
  00054	56		 push	 esi
  00055	8b cf		 mov	 ecx, edi
  00057	e8 00 00 00 00	 call	 ?GetCurrentState@CBloodCastle@@QAEHH@Z ; CBloodCastle::GetCurrentState
  0005c	83 f8 01	 cmp	 eax, 1
  0005f	75 28		 jne	 SHORT $LN1@CheckWalk

; 1410 : 	{
; 1411 : 		BYTE btMapAttr = MapC[gObj[iIndex].MapNumber].GetAttr(iMoveX, iMoveY);

  00061	8b 55 10	 mov	 edx, DWORD PTR _iMoveY$[ebp]
  00064	8b 45 0c	 mov	 eax, DWORD PTR _iMoveX$[ebp]
  00067	8b ce		 mov	 ecx, esi
  00069	69 c9 08 07 05
	00		 imul	 ecx, 329480		; 00050708H
  0006f	52		 push	 edx
  00070	50		 push	 eax
  00071	81 c1 00 00 00
	00		 add	 ecx, OFFSET ?MapC@@3PAVMapClass@@A ; MapC
  00077	e8 00 00 00 00	 call	 ?GetAttr@MapClass@@QAEEHH@Z ; MapClass::GetAttr

; 1412 : 
; 1413 : 		if ( (btMapAttr&1) != 1 )

  0007c	a8 01		 test	 al, 1
  0007e	75 09		 jne	 SHORT $LN1@CheckWalk

; 1414 : 		{
; 1415 : 			return true;

  00080	5e		 pop	 esi
  00081	5b		 pop	 ebx
  00082	b0 01		 mov	 al, 1
  00084	5f		 pop	 edi

; 1420 : }

  00085	5d		 pop	 ebp
  00086	c2 0c 00	 ret	 12			; 0000000cH
$LN1@CheckWalk:
  00089	5e		 pop	 esi
  0008a	5b		 pop	 ebx

; 1416 : 		}
; 1417 : 	}
; 1418 : 
; 1419 : 	return false;

  0008b	32 c0		 xor	 al, al
  0008d	5f		 pop	 edi

; 1420 : }

  0008e	5d		 pop	 ebp
  0008f	c2 0c 00	 ret	 12			; 0000000cH
$LN3@CheckWalk:
  00092	5b		 pop	 ebx

; 1405 : 	{
; 1406 : 		return false;

  00093	32 c0		 xor	 al, al
  00095	5f		 pop	 edi

; 1420 : }

  00096	5d		 pop	 ebp
  00097	c2 0c 00	 ret	 12			; 0000000cH
?CheckWalk@CBloodCastle@@QAE_NHHH@Z ENDP		; CBloodCastle::CheckWalk
_TEXT	ENDS
PUBLIC	?CheckCanEnter@CBloodCastle@@QAE_NH@Z		; CBloodCastle::CheckCanEnter
; Function compile flags: /Ogtp
;	COMDAT ?CheckCanEnter@CBloodCastle@@QAE_NH@Z
_TEXT	SEGMENT
_iBridgeIndex$ = 8					; size = 4
?CheckCanEnter@CBloodCastle@@QAE_NH@Z PROC		; CBloodCastle::CheckCanEnter, COMDAT
; _this$ = ecx

; 1428 : {

  00000	55		 push	 ebp
  00001	8b ec		 mov	 ebp, esp

; 1429 : 	if ( BC_BRIDGE_RANGE(iBridgeIndex) == FALSE )

  00003	8b 45 08	 mov	 eax, DWORD PTR _iBridgeIndex$[ebp]
  00006	85 c0		 test	 eax, eax
  00008	78 0c		 js	 SHORT $LN6@CheckCanEn
  0000a	33 d2		 xor	 edx, edx
  0000c	83 f8 06	 cmp	 eax, 6
  0000f	0f 9e c2	 setle	 dl
  00012	85 d2		 test	 edx, edx
  00014	75 06		 jne	 SHORT $LN1@CheckCanEn
$LN6@CheckCanEn:

; 1430 : 	{
; 1431 : 		return false;

  00016	32 c0		 xor	 al, al

; 1435 : }

  00018	5d		 pop	 ebp
  00019	c2 04 00	 ret	 4
$LN1@CheckCanEn:

; 1432 : 	}
; 1433 : 
; 1434 : 	return this->m_BridgeData[iBridgeIndex].m_bBC_CAN_ENTER;

  0001c	c1 e0 09	 shl	 eax, 9
  0001f	8a 84 08 63 01
	00 00		 mov	 al, BYTE PTR [eax+ecx+355]

; 1435 : }

  00026	5d		 pop	 ebp
  00027	c2 04 00	 ret	 4
?CheckCanEnter@CBloodCastle@@QAE_NH@Z ENDP		; CBloodCastle::CheckCanEnter
_TEXT	ENDS
PUBLIC	?CheckCanParty@CBloodCastle@@QAE_NH@Z		; CBloodCastle::CheckCanParty
; Function compile flags: /Ogtp
;	COMDAT ?CheckCanParty@CBloodCastle@@QAE_NH@Z
_TEXT	SEGMENT
_iBridgeIndex$ = 8					; size = 4
?CheckCanParty@CBloodCastle@@QAE_NH@Z PROC		; CBloodCastle::CheckCanParty, COMDAT
; _this$ = ecx

; 1443 : {

  00000	55		 push	 ebp
  00001	8b ec		 mov	 ebp, esp

; 1444 : 	if ( BC_BRIDGE_RANGE(iBridgeIndex) == FALSE )

  00003	8b 45 08	 mov	 eax, DWORD PTR _iBridgeIndex$[ebp]
  00006	85 c0		 test	 eax, eax
  00008	78 0c		 js	 SHORT $LN6@CheckCanPa
  0000a	33 d2		 xor	 edx, edx
  0000c	83 f8 06	 cmp	 eax, 6
  0000f	0f 9e c2	 setle	 dl
  00012	85 d2		 test	 edx, edx
  00014	75 06		 jne	 SHORT $LN1@CheckCanPa
$LN6@CheckCanPa:

; 1445 : 	{
; 1446 : 		return false;

  00016	32 c0		 xor	 al, al

; 1450 : }

  00018	5d		 pop	 ebp
  00019	c2 04 00	 ret	 4
$LN1@CheckCanPa:

; 1447 : 	}
; 1448 : 
; 1449 : 	return this->m_BridgeData[iBridgeIndex].m_bBC_CAN_PARTY;

  0001c	c1 e0 09	 shl	 eax, 9
  0001f	8a 84 08 64 01
	00 00		 mov	 al, BYTE PTR [eax+ecx+356]

; 1450 : }

  00026	5d		 pop	 ebp
  00027	c2 04 00	 ret	 4
?CheckCanParty@CBloodCastle@@QAE_NH@Z ENDP		; CBloodCastle::CheckCanParty
_TEXT	ENDS
PUBLIC	?CheckQuestItemSerial@CBloodCastle@@QAE_NHPAVCMapItem@@@Z ; CBloodCastle::CheckQuestItemSerial
; Function compile flags: /Ogtp
;	COMDAT ?CheckQuestItemSerial@CBloodCastle@@QAE_NHPAVCMapItem@@@Z
_TEXT	SEGMENT
_iBridgeIndex$ = 8					; size = 4
_lpItem$ = 12						; size = 4
?CheckQuestItemSerial@CBloodCastle@@QAE_NHPAVCMapItem@@@Z PROC ; CBloodCastle::CheckQuestItemSerial, COMDAT
; _this$ = ecx

; 1459 : {

  00000	55		 push	 ebp
  00001	8b ec		 mov	 ebp, esp

; 1460 : 	if ( BC_BRIDGE_RANGE(iBridgeIndex) == FALSE )

  00003	8b 45 08	 mov	 eax, DWORD PTR _iBridgeIndex$[ebp]
  00006	85 c0		 test	 eax, eax
  00008	78 0c		 js	 SHORT $LN13@CheckQuest@2
  0000a	33 d2		 xor	 edx, edx
  0000c	83 f8 06	 cmp	 eax, 6
  0000f	0f 9e c2	 setle	 dl
  00012	85 d2		 test	 edx, edx
  00014	75 06		 jne	 SHORT $LN6@CheckQuest@2
$LN13@CheckQuest@2:

; 1461 : 	{
; 1462 : 		return false;

  00016	32 c0		 xor	 al, al

; 1488 : 
; 1489 : }

  00018	5d		 pop	 ebp
  00019	c2 08 00	 ret	 8
$LN6@CheckQuest@2:

; 1463 : 	}
; 1464 : 
; 1465 : 	if ( this->m_BridgeData[iBridgeIndex].m_nBC_QUESTITEM_SERIAL == -1 )

  0001c	c1 e0 09	 shl	 eax, 9
  0001f	83 bc 08 90 01
	00 00 ff	 cmp	 DWORD PTR [eax+ecx+400], -1
  00027	53		 push	 ebx
  00028	8d 9c 08 90 01
	00 00		 lea	 ebx, DWORD PTR [eax+ecx+400]
  0002f	75 07		 jne	 SHORT $LN5@CheckQuest@2

; 1466 : 	{
; 1467 : 		return false;

  00031	32 c0		 xor	 al, al
  00033	5b		 pop	 ebx

; 1488 : 
; 1489 : }

  00034	5d		 pop	 ebp
  00035	c2 08 00	 ret	 8
$LN5@CheckQuest@2:
  00038	56		 push	 esi

; 1468 : 	}
; 1469 : 	
; 1470 : 	if ( lpItem->IsItem() == TRUE )

  00039	8b 75 0c	 mov	 esi, DWORD PTR _lpItem$[ebp]
  0003c	57		 push	 edi
  0003d	8d 4e 04	 lea	 ecx, DWORD PTR [esi+4]
  00040	e8 00 00 00 00	 call	 ?IsItem@CItem@@QAEHXZ	; CItem::IsItem
  00045	83 f8 01	 cmp	 eax, 1
  00048	75 31		 jne	 SHORT $LN1@CheckQuest@2

; 1471 : 	{
; 1472 : 		if ( lpItem->m_Type == ITEMGET(13,19) ) // Absolute Weapon

  0004a	b8 13 1a 00 00	 mov	 eax, 6675		; 00001a13H
  0004f	66 39 46 0a	 cmp	 WORD PTR [esi+10], ax
  00053	75 26		 jne	 SHORT $LN1@CheckQuest@2

; 1473 : 		{
; 1474 : 			int iLEVEL = lpItem->m_Level;

  00055	0f bf 46 0c	 movsx	 eax, WORD PTR [esi+12]

; 1475 : 
; 1476 : 			if ( BC_WEAPON_LEVEL_RANGE(iLEVEL) != FALSE )

  00059	85 c0		 test	 eax, eax
  0005b	78 1e		 js	 SHORT $LN1@CheckQuest@2
  0005d	33 c9		 xor	 ecx, ecx
  0005f	83 f8 02	 cmp	 eax, 2
  00062	0f 9e c1	 setle	 cl
  00065	8b c1		 mov	 eax, ecx
  00067	85 c0		 test	 eax, eax
  00069	74 10		 je	 SHORT $LN1@CheckQuest@2

; 1477 : 			{
; 1478 : 				if ( this->m_BridgeData[iBridgeIndex].m_nBC_QUESTITEM_SERIAL == lpItem->m_Number )

  0006b	8b 13		 mov	 edx, DWORD PTR [ebx]
  0006d	3b 56 04	 cmp	 edx, DWORD PTR [esi+4]
  00070	75 09		 jne	 SHORT $LN1@CheckQuest@2

; 1479 : 				{
; 1480 : 					return true;

  00072	5f		 pop	 edi
  00073	5e		 pop	 esi
  00074	b0 01		 mov	 al, 1
  00076	5b		 pop	 ebx

; 1488 : 
; 1489 : }

  00077	5d		 pop	 ebp
  00078	c2 08 00	 ret	 8
$LN1@CheckQuest@2:
  0007b	5f		 pop	 edi
  0007c	5e		 pop	 esi

; 1481 : 				}
; 1482 : 			}
; 1483 : 		}
; 1484 : 	}
; 1485 : 	
; 1486 : 
; 1487 : 	return false;

  0007d	32 c0		 xor	 al, al
  0007f	5b		 pop	 ebx

; 1488 : 
; 1489 : }

  00080	5d		 pop	 ebp
  00081	c2 08 00	 ret	 8
?CheckQuestItemSerial@CBloodCastle@@QAE_NHPAVCMapItem@@@Z ENDP ; CBloodCastle::CheckQuestItemSerial
_TEXT	ENDS
PUBLIC	?CheckPlayStart@CBloodCastle@@QAE_NH@Z		; CBloodCastle::CheckPlayStart
; Function compile flags: /Ogtp
;	COMDAT ?CheckPlayStart@CBloodCastle@@QAE_NH@Z
_TEXT	SEGMENT
_iBridgeIndex$ = 8					; size = 4
?CheckPlayStart@CBloodCastle@@QAE_NH@Z PROC		; CBloodCastle::CheckPlayStart, COMDAT
; _this$ = ecx

; 1497 : {

  00000	55		 push	 ebp
  00001	8b ec		 mov	 ebp, esp

; 1498 : 	if ( BC_BRIDGE_RANGE(iBridgeIndex) == FALSE )

  00003	8b 45 08	 mov	 eax, DWORD PTR _iBridgeIndex$[ebp]
  00006	85 c0		 test	 eax, eax
  00008	78 0c		 js	 SHORT $LN6@CheckPlayS
  0000a	33 d2		 xor	 edx, edx
  0000c	83 f8 06	 cmp	 eax, 6
  0000f	0f 9e c2	 setle	 dl
  00012	85 d2		 test	 edx, edx
  00014	75 06		 jne	 SHORT $LN1@CheckPlayS
$LN6@CheckPlayS:

; 1499 : 	{
; 1500 : 		return false;

  00016	32 c0		 xor	 al, al

; 1504 : }

  00018	5d		 pop	 ebp
  00019	c2 04 00	 ret	 4
$LN1@CheckPlayS:

; 1501 : 	}
; 1502 : 
; 1503 : 	return this->m_BridgeData[iBridgeIndex].m_bBC_PLAY_START;

  0001c	c1 e0 09	 shl	 eax, 9
  0001f	8a 84 08 65 01
	00 00		 mov	 al, BYTE PTR [eax+ecx+357]

; 1504 : }

  00026	5d		 pop	 ebp
  00027	c2 04 00	 ret	 4
?CheckPlayStart@CBloodCastle@@QAE_NH@Z ENDP		; CBloodCastle::CheckPlayStart
_TEXT	ENDS
PUBLIC	?GetRemainTime@CBloodCastle@@QAEHH@Z		; CBloodCastle::GetRemainTime
EXTRN	?g_iBloodCastle_StartHour@@3HA:DWORD		; g_iBloodCastle_StartHour
; Function compile flags: /Odtp
;	COMDAT ?GetRemainTime@CBloodCastle@@QAEHH@Z
_TEXT	SEGMENT
_this$ = -28						; size = 4
_ltime$157750 = -24					; size = 8
_iSTART_HOUR$157751 = -12				; size = 4
_today$157749 = -8					; size = 4
_iREMAIN_MINUTE$ = -4					; size = 4
_iBridgeIndex$ = 8					; size = 4
?GetRemainTime@CBloodCastle@@QAEHH@Z PROC		; CBloodCastle::GetRemainTime, COMDAT
; _this$ = ecx

; 1512 : {

  00000	55		 push	 ebp
  00001	8b ec		 mov	 ebp, esp
  00003	83 ec 1c	 sub	 esp, 28			; 0000001cH
  00006	89 4d e4	 mov	 DWORD PTR _this$[ebp], ecx

; 1513 : 	int iREMAIN_MINUTE = 0;

  00009	c7 45 fc 00 00
	00 00		 mov	 DWORD PTR _iREMAIN_MINUTE$[ebp], 0

; 1514 : 
; 1515 : 	if ( this->GetCurrentState(iBridgeIndex) == 1 )

  00010	8b 45 08	 mov	 eax, DWORD PTR _iBridgeIndex$[ebp]
  00013	50		 push	 eax
  00014	8b 4d e4	 mov	 ecx, DWORD PTR _this$[ebp]
  00017	e8 00 00 00 00	 call	 ?GetCurrentState@CBloodCastle@@QAEHH@Z ; CBloodCastle::GetCurrentState
  0001c	83 f8 01	 cmp	 eax, 1
  0001f	75 2c		 jne	 SHORT $LN12@GetRemainT

; 1516 : 	{
; 1517 : 		iREMAIN_MINUTE = this->m_BridgeData[iBridgeIndex].m_iBC_REMAIN_MSEC / 60000 - this->m_iBC_TIME_MIN_OPEN + 1;

  00021	8b 4d 08	 mov	 ecx, DWORD PTR _iBridgeIndex$[ebp]
  00024	c1 e1 09	 shl	 ecx, 9
  00027	8b 55 e4	 mov	 edx, DWORD PTR _this$[ebp]
  0002a	8b 84 0a 54 01
	00 00		 mov	 eax, DWORD PTR [edx+ecx+340]
  00031	99		 cdq
  00032	b9 60 ea 00 00	 mov	 ecx, 60000		; 0000ea60H
  00037	f7 f9		 idiv	 ecx
  00039	8b 55 e4	 mov	 edx, DWORD PTR _this$[ebp]
  0003c	2b 82 08 0e 00
	00		 sub	 eax, DWORD PTR [edx+3592]
  00042	83 c0 01	 add	 eax, 1
  00045	89 45 fc	 mov	 DWORD PTR _iREMAIN_MINUTE$[ebp], eax

; 1518 : 	}
; 1519 : 	else

  00048	e9 35 01 00 00	 jmp	 $skip$157759
$LN12@GetRemainT:

; 1520 : 	{
; 1521 : 		tm * today;
; 1522 : 		time_t ltime;
; 1523 : 		time(&ltime);

  0004d	8d 45 e8	 lea	 eax, DWORD PTR _ltime$157750[ebp]
  00050	e8 00 00 00 00	 call	 _time

; 1524 : 		today = localtime(&ltime);

  00055	8d 45 e8	 lea	 eax, DWORD PTR _ltime$157750[ebp]
  00058	e8 00 00 00 00	 call	 _localtime
  0005d	89 45 f8	 mov	 DWORD PTR _today$157749[ebp], eax

; 1525 : 
; 1526 : 		int iSTART_HOUR = g_iBloodCastle_StartHour;

  00060	a1 00 00 00 00	 mov	 eax, DWORD PTR ?g_iBloodCastle_StartHour@@3HA ; g_iBloodCastle_StartHour
  00065	89 45 f4	 mov	 DWORD PTR _iSTART_HOUR$157751[ebp], eax

; 1527 : 
; 1528 : 		if ( iSTART_HOUR != 2 )

  00068	83 7d f4 02	 cmp	 DWORD PTR _iSTART_HOUR$157751[ebp], 2
  0006c	74 05		 je	 SHORT $LN10@GetRemainT

; 1529 : 		{
; 1530 : 			//__asm JMP label2
; 1531 : 		}
; 1532 : 		else

  0006e	e9 a6 00 00 00	 jmp	 $LN9@GetRemainT
$LN10@GetRemainT:

; 1533 : 		{
; 1534 : 			if ( (today->tm_hour % 2) == 0 )

  00073	8b 4d f8	 mov	 ecx, DWORD PTR _today$157749[ebp]
  00076	8b 51 08	 mov	 edx, DWORD PTR [ecx+8]
  00079	81 e2 01 00 00
	80		 and	 edx, -2147483647	; 80000001H
  0007f	79 05		 jns	 SHORT $LN19@GetRemainT
  00081	4a		 dec	 edx
  00082	83 ca fe	 or	 edx, -2			; fffffffeH
  00085	42		 inc	 edx
$LN19@GetRemainT:
  00086	85 d2		 test	 edx, edx
  00088	75 5c		 jne	 SHORT $LN8@GetRemainT

; 1535 : 			{
; 1536 : 				if ( (today->tm_min * 60 + today->tm_sec) >= 1800 )

  0008a	8b 45 f8	 mov	 eax, DWORD PTR _today$157749[ebp]
  0008d	8b 48 04	 mov	 ecx, DWORD PTR [eax+4]
  00090	6b c9 3c	 imul	 ecx, 60			; 0000003cH
  00093	8b 55 f8	 mov	 edx, DWORD PTR _today$157749[ebp]
  00096	03 0a		 add	 ecx, DWORD PTR [edx]
  00098	81 f9 08 07 00
	00		 cmp	 ecx, 1800		; 00000708H
  0009e	7c 22		 jl	 SHORT $LN7@GetRemainT

; 1537 : 				{
; 1538 : 					iREMAIN_MINUTE = (9000 - (today->tm_min * 60 + today->tm_sec)) / 60;

  000a0	8b 45 f8	 mov	 eax, DWORD PTR _today$157749[ebp]
  000a3	8b 48 04	 mov	 ecx, DWORD PTR [eax+4]
  000a6	6b c9 3c	 imul	 ecx, 60			; 0000003cH
  000a9	8b 55 f8	 mov	 edx, DWORD PTR _today$157749[ebp]
  000ac	03 0a		 add	 ecx, DWORD PTR [edx]
  000ae	b8 28 23 00 00	 mov	 eax, 9000		; 00002328H
  000b3	2b c1		 sub	 eax, ecx
  000b5	99		 cdq
  000b6	b9 3c 00 00 00	 mov	 ecx, 60			; 0000003cH
  000bb	f7 f9		 idiv	 ecx
  000bd	89 45 fc	 mov	 DWORD PTR _iREMAIN_MINUTE$[ebp], eax

; 1539 : 				}
; 1540 : 				else

  000c0	eb 22		 jmp	 SHORT $LN6@GetRemainT
$LN7@GetRemainT:

; 1541 : 				{
; 1542 : 					iREMAIN_MINUTE = (1800 - (today->tm_min * 60 + today->tm_sec)) / 60;

  000c2	8b 55 f8	 mov	 edx, DWORD PTR _today$157749[ebp]
  000c5	8b 42 04	 mov	 eax, DWORD PTR [edx+4]
  000c8	6b c0 3c	 imul	 eax, 60			; 0000003cH
  000cb	8b 4d f8	 mov	 ecx, DWORD PTR _today$157749[ebp]
  000ce	03 01		 add	 eax, DWORD PTR [ecx]
  000d0	ba 08 07 00 00	 mov	 edx, 1800		; 00000708H
  000d5	2b d0		 sub	 edx, eax
  000d7	8b c2		 mov	 eax, edx
  000d9	99		 cdq
  000da	b9 3c 00 00 00	 mov	 ecx, 60			; 0000003cH
  000df	f7 f9		 idiv	 ecx
  000e1	89 45 fc	 mov	 DWORD PTR _iREMAIN_MINUTE$[ebp], eax
$LN6@GetRemainT:

; 1543 : 				}
; 1544 : 			}
; 1545 : 			else

  000e4	eb 22		 jmp	 SHORT $LN5@GetRemainT
$LN8@GetRemainT:

; 1546 : 			{
; 1547 : 				iREMAIN_MINUTE = (1800 - (today->tm_min * 60 + today->tm_sec)) / 60;

  000e6	8b 55 f8	 mov	 edx, DWORD PTR _today$157749[ebp]
  000e9	8b 42 04	 mov	 eax, DWORD PTR [edx+4]
  000ec	6b c0 3c	 imul	 eax, 60			; 0000003cH
  000ef	8b 4d f8	 mov	 ecx, DWORD PTR _today$157749[ebp]
  000f2	03 01		 add	 eax, DWORD PTR [ecx]
  000f4	ba 08 07 00 00	 mov	 edx, 1800		; 00000708H
  000f9	2b d0		 sub	 edx, eax
  000fb	8b c2		 mov	 eax, edx
  000fd	99		 cdq
  000fe	b9 3c 00 00 00	 mov	 ecx, 60			; 0000003cH
  00103	f7 f9		 idiv	 ecx
  00105	89 45 fc	 mov	 DWORD PTR _iREMAIN_MINUTE$[ebp], eax
$LN5@GetRemainT:

; 1548 : 			}
; 1549 : 
; 1550 : 			if ( iREMAIN_MINUTE < 0 )

  00108	83 7d fc 00	 cmp	 DWORD PTR _iREMAIN_MINUTE$[ebp], 0
  0010c	7d 09		 jge	 SHORT $LN4@GetRemainT

; 1551 : 			{
; 1552 : 				iREMAIN_MINUTE += 60;

  0010e	8b 55 fc	 mov	 edx, DWORD PTR _iREMAIN_MINUTE$[ebp]
  00111	83 c2 3c	 add	 edx, 60			; 0000003cH
  00114	89 55 fc	 mov	 DWORD PTR _iREMAIN_MINUTE$[ebp], edx
$LN4@GetRemainT:

; 1553 : 				
; 1554 : 			}
; 1555 : 
; 1556 : 			__asm JMP skip;

  00117	eb 69		 jmp	 SHORT $skip$157759
$LN9@GetRemainT:

; 1557 : 		}
; 1558 : 		
; 1559 : 		if ( today->tm_min * 60 + today->tm_sec >= 1800 )

  00119	8b 45 f8	 mov	 eax, DWORD PTR _today$157749[ebp]
  0011c	8b 48 04	 mov	 ecx, DWORD PTR [eax+4]
  0011f	6b c9 3c	 imul	 ecx, 60			; 0000003cH
  00122	8b 55 f8	 mov	 edx, DWORD PTR _today$157749[ebp]
  00125	03 0a		 add	 ecx, DWORD PTR [edx]
  00127	81 f9 08 07 00
	00		 cmp	 ecx, 1800		; 00000708H
  0012d	7c 22		 jl	 SHORT $LN3@GetRemainT

; 1560 : 		{
; 1561 : 			iREMAIN_MINUTE = (5400 - (today->tm_min * 60 + today->tm_sec)) / 60;

  0012f	8b 45 f8	 mov	 eax, DWORD PTR _today$157749[ebp]
  00132	8b 48 04	 mov	 ecx, DWORD PTR [eax+4]
  00135	6b c9 3c	 imul	 ecx, 60			; 0000003cH
  00138	8b 55 f8	 mov	 edx, DWORD PTR _today$157749[ebp]
  0013b	03 0a		 add	 ecx, DWORD PTR [edx]
  0013d	b8 18 15 00 00	 mov	 eax, 5400		; 00001518H
  00142	2b c1		 sub	 eax, ecx
  00144	99		 cdq
  00145	b9 3c 00 00 00	 mov	 ecx, 60			; 0000003cH
  0014a	f7 f9		 idiv	 ecx
  0014c	89 45 fc	 mov	 DWORD PTR _iREMAIN_MINUTE$[ebp], eax

; 1562 : 		}
; 1563 : 		else

  0014f	eb 22		 jmp	 SHORT $LN2@GetRemainT
$LN3@GetRemainT:

; 1564 : 		{
; 1565 : 			iREMAIN_MINUTE = (1800 - (today->tm_min * 60 + today->tm_sec)) / 60;

  00151	8b 55 f8	 mov	 edx, DWORD PTR _today$157749[ebp]
  00154	8b 42 04	 mov	 eax, DWORD PTR [edx+4]
  00157	6b c0 3c	 imul	 eax, 60			; 0000003cH
  0015a	8b 4d f8	 mov	 ecx, DWORD PTR _today$157749[ebp]
  0015d	03 01		 add	 eax, DWORD PTR [ecx]
  0015f	ba 08 07 00 00	 mov	 edx, 1800		; 00000708H
  00164	2b d0		 sub	 edx, eax
  00166	8b c2		 mov	 eax, edx
  00168	99		 cdq
  00169	b9 3c 00 00 00	 mov	 ecx, 60			; 0000003cH
  0016e	f7 f9		 idiv	 ecx
  00170	89 45 fc	 mov	 DWORD PTR _iREMAIN_MINUTE$[ebp], eax
$LN2@GetRemainT:

; 1566 : 		}
; 1567 : 
; 1568 : 		if ( iREMAIN_MINUTE < 0 )

  00173	83 7d fc 00	 cmp	 DWORD PTR _iREMAIN_MINUTE$[ebp], 0
  00177	7d 09		 jge	 SHORT $skip$157759

; 1569 : 		{
; 1570 : 			iREMAIN_MINUTE += 60;

  00179	8b 55 fc	 mov	 edx, DWORD PTR _iREMAIN_MINUTE$[ebp]
  0017c	83 c2 3c	 add	 edx, 60			; 0000003cH
  0017f	89 55 fc	 mov	 DWORD PTR _iREMAIN_MINUTE$[ebp], edx
$skip$157759:

; 1571 : 		}
; 1572 : 
; 1573 : 
; 1574 : 	}
; 1575 : 
; 1576 : 	skip:
; 1577 : 	return iREMAIN_MINUTE;

  00182	8b 45 fc	 mov	 eax, DWORD PTR _iREMAIN_MINUTE$[ebp]

; 1578 : }

  00185	8b e5		 mov	 esp, ebp
  00187	5d		 pop	 ebp
  00188	c2 04 00	 ret	 4
?GetRemainTime@CBloodCastle@@QAEHH@Z ENDP		; CBloodCastle::GetRemainTime
_TEXT	ENDS
PUBLIC	?ClearMonster@CBloodCastle@@QAEXH_N@Z		; CBloodCastle::ClearMonster
EXTRN	?gObjDel@@YAFH@Z:PROC				; gObjDel
; Function compile flags: /Ogtp
;	COMDAT ?ClearMonster@CBloodCastle@@QAEXH_N@Z
_TEXT	SEGMENT
_iBridgeIndex$ = 8					; size = 4
_bClearCastleDoor$ = 12					; size = 1
?ClearMonster@CBloodCastle@@QAEXH_N@Z PROC		; CBloodCastle::ClearMonster, COMDAT
; _this$ = ecx

; 1586 : {

  00000	55		 push	 ebp
  00001	8b ec		 mov	 ebp, esp

; 1587 : 	if ( BC_BRIDGE_RANGE(iBridgeIndex) == FALSE )

  00003	8b 45 08	 mov	 eax, DWORD PTR _iBridgeIndex$[ebp]
  00006	85 c0		 test	 eax, eax
  00008	78 56		 js	 SHORT $LN4@ClearMonst
  0000a	33 c9		 xor	 ecx, ecx
  0000c	83 f8 06	 cmp	 eax, 6
  0000f	0f 9e c1	 setle	 cl
  00012	85 c9		 test	 ecx, ecx
  00014	74 4a		 je	 SHORT $LN4@ClearMonst

; 1588 : 	{
; 1589 : 		return;
; 1590 : 	}
; 1591 : 
; 1592 : 	for ( int n=0;n<OBJ_MAXMONSTER;n++)

  00016	53		 push	 ebx
  00017	56		 push	 esi
  00018	57		 push	 edi
  00019	33 ff		 xor	 edi, edi
  0001b	8d 58 0b	 lea	 ebx, DWORD PTR [eax+11]
  0001e	be 98 00 00 00	 mov	 esi, OFFSET ?gObj@@3PAUOBJECTSTRUCT@@A+152
$LL6@ClearMonst:

; 1593 : 	{
; 1594 : 		if ( gObj[n].MapNumber == (iBridgeIndex+MAP_INDEX_BLOODCASTLE1))

  00023	0f b6 46 71	 movzx	 eax, BYTE PTR [esi+113]
  00027	3b c3		 cmp	 eax, ebx
  00029	75 23		 jne	 SHORT $LN5@ClearMonst

; 1595 : 		{
; 1596 : 			if ( bClearCastleDoor == false && gObj[n].Class == 131)

  0002b	80 7d 0c 00	 cmp	 BYTE PTR _bClearCastleDoor$[ebp], 0
  0002f	75 0a		 jne	 SHORT $LN2@ClearMonst
  00031	b9 83 00 00 00	 mov	 ecx, 131		; 00000083H
  00036	66 39 0e	 cmp	 WORD PTR [esi], cx
  00039	74 13		 je	 SHORT $LN5@ClearMonst
$LN2@ClearMonst:

; 1597 : 			{
; 1598 : 				continue;
; 1599 : 			}
; 1600 : 
; 1601 : 			if ( gObj[n].Class == 232 )

  0003b	ba e8 00 00 00	 mov	 edx, 232		; 000000e8H
  00040	66 39 16	 cmp	 WORD PTR [esi], dx
  00043	74 09		 je	 SHORT $LN5@ClearMonst

; 1602 : 			{
; 1603 : 				continue;
; 1604 : 			}
; 1605 : 
; 1606 : 			gObjDel(n);

  00045	57		 push	 edi
  00046	e8 00 00 00 00	 call	 ?gObjDel@@YAFH@Z	; gObjDel
  0004b	83 c4 04	 add	 esp, 4
$LN5@ClearMonst:

; 1588 : 	{
; 1589 : 		return;
; 1590 : 	}
; 1591 : 
; 1592 : 	for ( int n=0;n<OBJ_MAXMONSTER;n++)

  0004e	81 c6 64 15 00
	00		 add	 esi, 5476		; 00001564H
  00054	47		 inc	 edi
  00055	81 fe 38 a2 e4
	01		 cmp	 esi, OFFSET ?gObj@@3PAUOBJECTSTRUCT@@A+31760952
  0005b	7c c6		 jl	 SHORT $LL6@ClearMonst
  0005d	5f		 pop	 edi
  0005e	5e		 pop	 esi
  0005f	5b		 pop	 ebx
$LN4@ClearMonst:

; 1607 : 		}
; 1608 : 	}
; 1609 : }

  00060	5d		 pop	 ebp
  00061	c2 08 00	 ret	 8
?ClearMonster@CBloodCastle@@QAEXH_N@Z ENDP		; CBloodCastle::ClearMonster
_TEXT	ENDS
PUBLIC	?SetBossMonster@CBloodCastle@@QAEXH@Z		; CBloodCastle::SetBossMonster
EXTRN	?gObjSetMonster@@YAHHH@Z:PROC			; gObjSetMonster
EXTRN	?gObjSetPosMonster@@YAHHH@Z:PROC		; gObjSetPosMonster
EXTRN	?gObjAddMonster@@YAFH@Z:PROC			; gObjAddMonster
EXTRN	?gMSetBase@@3VCMonsterSetBase@@A:BYTE		; gMSetBase
; Function compile flags: /Ogtp
;	COMDAT ?SetBossMonster@CBloodCastle@@QAEXH@Z
_TEXT	SEGMENT
_this$ = -16						; size = 4
tv167 = -12						; size = 4
tv296 = -8						; size = 4
_btBloodCastleIndex$157819 = -1				; size = 1
_iBridgeIndex$ = 8					; size = 4
?SetBossMonster@CBloodCastle@@QAEXH@Z PROC		; CBloodCastle::SetBossMonster, COMDAT
; _this$ = ecx

; 1719 : {

  00000	55		 push	 ebp
  00001	8b ec		 mov	 ebp, esp
  00003	83 ec 10	 sub	 esp, 16			; 00000010H

; 1720 : 	int result;
; 1721 : 
; 1722 : 	if ( BC_BRIDGE_RANGE(iBridgeIndex) == FALSE )

  00006	8b 55 08	 mov	 edx, DWORD PTR _iBridgeIndex$[ebp]
  00009	89 4d f0	 mov	 DWORD PTR _this$[ebp], ecx
  0000c	85 d2		 test	 edx, edx
  0000e	0f 88 01 01 00
	00		 js	 $LN6@SetBossMon
  00014	33 c0		 xor	 eax, eax
  00016	83 fa 06	 cmp	 edx, 6
  00019	0f 9e c0	 setle	 al
  0001c	85 c0		 test	 eax, eax
  0001e	0f 84 f1 00 00
	00		 je	 $LN6@SetBossMon

; 1723 : 	{
; 1724 : 		return;
; 1725 : 	}
; 1726 : 
; 1727 : 	for ( int x=0;x<MAX_BLOOD_CASTLE_BOSS_MONSTER;x++)

  00024	8b c2		 mov	 eax, edx
  00026	53		 push	 ebx
  00027	c1 e0 09	 shl	 eax, 9
  0002a	56		 push	 esi
  0002b	8d 8c 08 e4 00
	00 00		 lea	 ecx, DWORD PTR [eax+ecx+228]
  00032	57		 push	 edi
  00033	89 4d f8	 mov	 DWORD PTR tv296[ebp], ecx
  00036	c7 45 f4 14 00
	00 00		 mov	 DWORD PTR tv167[ebp], 20 ; 00000014H
  0003d	eb 04		 jmp	 SHORT $LN8@SetBossMon
  0003f	90		 npad	 1
$LL17@SetBossMon:
  00040	8b 55 08	 mov	 edx, DWORD PTR _iBridgeIndex$[ebp]
$LN8@SetBossMon:

; 1728 : 	{
; 1729 : 		if ( this->m_BridgeData[iBridgeIndex].m_nBossMonsterPosNum[x] != -1 )

  00043	8b 39		 mov	 edi, DWORD PTR [ecx]
  00045	83 ff ff	 cmp	 edi, -1
  00048	0f 84 b2 00 00
	00		 je	 $LN7@SetBossMon

; 1730 : 		{
; 1731 : 			int nBossMonsterPosNum = this->m_BridgeData[iBridgeIndex].m_nBossMonsterPosNum[x];
; 1732 : 			BYTE btMonsterType = gMSetBase.m_Mp[nBossMonsterPosNum].m_Type;

  0004e	8d 04 7f	 lea	 eax, DWORD PTR [edi+edi*2]
  00051	03 c0		 add	 eax, eax
  00053	8a 9c 00 06 00
	00 00		 mov	 bl, BYTE PTR ?gMSetBase@@3VCMonsterSetBase@@A[eax+eax+6]
  0005a	03 c0		 add	 eax, eax

; 1733 : 			BYTE btMapNumber = gMSetBase.m_Mp[nBossMonsterPosNum].m_MapNumber;

  0005c	8a 80 08 00 00
	00		 mov	 al, BYTE PTR ?gMSetBase@@3VCMonsterSetBase@@A[eax+8]

; 1734 : 			BYTE btBloodCastleIndex = btMapNumber - MAP_INDEX_BLOODCASTLE1;

  00062	8d 48 f5	 lea	 ecx, DWORD PTR [eax-11]
  00065	88 4d ff	 mov	 BYTE PTR _btBloodCastleIndex$157819[ebp], cl

; 1735 : 
; 1736 : 			if ( btBloodCastleIndex != iBridgeIndex )

  00068	0f b6 c9	 movzx	 ecx, cl
  0006b	3b ca		 cmp	 ecx, edx
  0006d	0f 85 8d 00 00
	00		 jne	 $LN7@SetBossMon

; 1737 : 			{
; 1738 : 				continue;
; 1739 : 			}
; 1740 : 
; 1741 : 			if ( btMonsterType == 89 || btMonsterType == 95 || btMonsterType == 112 || btMonsterType == 118 || btMonsterType == 124 || btMonsterType == 130 || btMonsterType == 143 )

  00073	80 fb 59	 cmp	 bl, 89			; 00000059H
  00076	74 1e		 je	 SHORT $LN2@SetBossMon
  00078	80 fb 5f	 cmp	 bl, 95			; 0000005fH
  0007b	74 19		 je	 SHORT $LN2@SetBossMon
  0007d	80 fb 70	 cmp	 bl, 112			; 00000070H
  00080	74 14		 je	 SHORT $LN2@SetBossMon
  00082	80 fb 76	 cmp	 bl, 118			; 00000076H
  00085	74 0f		 je	 SHORT $LN2@SetBossMon
  00087	80 fb 7c	 cmp	 bl, 124			; 0000007cH
  0008a	74 0a		 je	 SHORT $LN2@SetBossMon
  0008c	80 fb 82	 cmp	 bl, 130			; 00000082H
  0008f	74 05		 je	 SHORT $LN2@SetBossMon
  00091	80 fb 8f	 cmp	 bl, 143			; 0000008fH
  00094	75 6a		 jne	 SHORT $LN7@SetBossMon
$LN2@SetBossMon:

; 1742 : 			{
; 1743 : 				result = ::gObjAddMonster(btMapNumber);

  00096	0f b6 d0	 movzx	 edx, al
  00099	52		 push	 edx
  0009a	e8 00 00 00 00	 call	 ?gObjAddMonster@@YAFH@Z	; gObjAddMonster
  0009f	0f bf f0	 movsx	 esi, ax
  000a2	83 c4 04	 add	 esp, 4

; 1744 : 
; 1745 : 				if ( result >= 0 )

  000a5	85 f6		 test	 esi, esi
  000a7	78 57		 js	 SHORT $LN7@SetBossMon

; 1746 : 				{
; 1747 : 					::gObjSetPosMonster(result, nBossMonsterPosNum);

  000a9	57		 push	 edi
  000aa	56		 push	 esi
  000ab	e8 00 00 00 00	 call	 ?gObjSetPosMonster@@YAHHH@Z ; gObjSetPosMonster

; 1748 : 					::gObjSetMonster(result, btMonsterType);

  000b0	0f b6 c3	 movzx	 eax, bl
  000b3	50		 push	 eax
  000b4	56		 push	 esi
  000b5	e8 00 00 00 00	 call	 ?gObjSetMonster@@YAHHH@Z ; gObjSetMonster

; 1749 : 					gObj[result].MaxRegenTime = this->m_iBC_MONSTER_REGEN;

  000ba	69 f6 64 15 00
	00		 imul	 esi, 5476		; 00001564H
  000c0	8b 45 f0	 mov	 eax, DWORD PTR _this$[ebp]
  000c3	8b 88 1c 0e 00
	00		 mov	 ecx, DWORD PTR [eax+3612]

; 1750 : 					gObj[result].m_cBloodCastleIndex = btBloodCastleIndex;

  000c9	8a 55 ff	 mov	 dl, BYTE PTR _btBloodCastleIndex$157819[ebp]
  000cc	89 8e 0c 02 00
	00		 mov	 DWORD PTR ?gObj@@3PAUOBJECTSTRUCT@@A[esi+524], ecx
  000d2	88 96 02 0d 00
	00		 mov	 BYTE PTR ?gObj@@3PAUOBJECTSTRUCT@@A[esi+3330], dl

; 1751 : 					gObj[result].m_ItemRate = this->m_iBC_NORMAL_ITEM_DROP;

  000d8	66 8b 80 14 0e
	00 00		 mov	 ax, WORD PTR [eax+3604]
  000df	83 c4 10	 add	 esp, 16			; 00000010H
  000e2	66 89 86 28 03
	00 00		 mov	 WORD PTR ?gObj@@3PAUOBJECTSTRUCT@@A[esi+808], ax

; 1752 : 					gObj[result].Dir = rand() % 8;

  000e9	e8 00 00 00 00	 call	 _rand
  000ee	25 07 00 00 80	 and	 eax, -2147483641	; 80000007H
  000f3	79 05		 jns	 SHORT $LN18@SetBossMon
  000f5	48		 dec	 eax
  000f6	83 c8 f8	 or	 eax, -8			; fffffff8H
  000f9	40		 inc	 eax
$LN18@SetBossMon:
  000fa	88 86 08 01 00
	00		 mov	 BYTE PTR ?gObj@@3PAUOBJECTSTRUCT@@A[esi+264], al
$LN7@SetBossMon:

; 1723 : 	{
; 1724 : 		return;
; 1725 : 	}
; 1726 : 
; 1727 : 	for ( int x=0;x<MAX_BLOOD_CASTLE_BOSS_MONSTER;x++)

  00100	8b 4d f8	 mov	 ecx, DWORD PTR tv296[ebp]
  00103	83 c1 04	 add	 ecx, 4
  00106	ff 4d f4	 dec	 DWORD PTR tv167[ebp]
  00109	89 4d f8	 mov	 DWORD PTR tv296[ebp], ecx
  0010c	0f 85 2e ff ff
	ff		 jne	 $LL17@SetBossMon
  00112	5f		 pop	 edi
  00113	5e		 pop	 esi
  00114	5b		 pop	 ebx
$LN6@SetBossMon:

; 1753 : 				}
; 1754 : 			}
; 1755 : 		}
; 1756 : 	}
; 1757 : }

  00115	8b e5		 mov	 esp, ebp
  00117	5d		 pop	 ebp
  00118	c2 04 00	 ret	 4
?SetBossMonster@CBloodCastle@@QAEXH@Z ENDP		; CBloodCastle::SetBossMonster
_TEXT	ENDS
PUBLIC	??_C@_0FO@DLJLMMJB@?$FLBlood?5Castle?$FN?$FLBug?5Tracer?$FN?5?$CI?$CFd?$CJ?5@ ; `string'
PUBLIC	?SetSaintStatue@CBloodCastle@@QAEXH@Z		; CBloodCastle::SetSaintStatue
;	COMDAT ??_C@_0FO@DLJLMMJB@?$FLBlood?5Castle?$FN?$FLBug?5Tracer?$FN?5?$CI?$CFd?$CJ?5@
CONST	SEGMENT
??_C@_0FO@DLJLMMJB@?$FLBlood?5Castle?$FN?$FLBug?5Tracer?$FN?5?$CI?$CFd?$CJ?5@ DB '['
	DB	'Blood Castle][Bug Tracer] (%d) It''s not Saint Statue( Map:%d'
	DB	', BloodCastleIndex:%d, Type:%d )', 00H	; `string'
; Function compile flags: /Ogtp
CONST	ENDS
;	COMDAT ?SetSaintStatue@CBloodCastle@@QAEXH@Z
_TEXT	SEGMENT
_this$ = -4						; size = 4
tv241 = 8						; size = 4
_iBridgeIndex$ = 8					; size = 4
?SetSaintStatue@CBloodCastle@@QAEXH@Z PROC		; CBloodCastle::SetSaintStatue, COMDAT
; _this$ = ecx

; 1764 : {

  00000	55		 push	 ebp
  00001	8b ec		 mov	 ebp, esp
  00003	51		 push	 ecx
  00004	57		 push	 edi

; 1765 : 	if ( BC_BRIDGE_RANGE(iBridgeIndex) == FALSE )

  00005	8b 7d 08	 mov	 edi, DWORD PTR _iBridgeIndex$[ebp]
  00008	89 4d fc	 mov	 DWORD PTR _this$[ebp], ecx
  0000b	85 ff		 test	 edi, edi
  0000d	0f 88 3d 01 00
	00		 js	 $LN1@SetSaintSt
  00013	33 c0		 xor	 eax, eax
  00015	83 ff 06	 cmp	 edi, 6
  00018	0f 9e c0	 setle	 al
  0001b	85 c0		 test	 eax, eax
  0001d	0f 84 2d 01 00
	00		 je	 $LN1@SetSaintSt

; 1766 : 	{
; 1767 : 		return;
; 1768 : 	}
; 1769 : 
; 1770 : 	int nSaintStatuePosNum = this->m_BridgeData[iBridgeIndex].m_nSaintStatuePosNum;

  00023	53		 push	 ebx
  00024	8b c7		 mov	 eax, edi
  00026	c1 e0 09	 shl	 eax, 9
  00029	56		 push	 esi
  0002a	8b b4 08 34 01
	00 00		 mov	 esi, DWORD PTR [eax+ecx+308]

; 1771 : 	BYTE btMonsterType = gMSetBase.m_Mp[nSaintStatuePosNum].m_Type;

  00031	8d 04 76	 lea	 eax, DWORD PTR [esi+esi*2]
  00034	03 c0		 add	 eax, eax
  00036	8a 8c 00 06 00
	00 00		 mov	 cl, BYTE PTR ?gMSetBase@@3VCMonsterSetBase@@A[eax+eax+6]
  0003d	03 c0		 add	 eax, eax

; 1772 : 	BYTE btMapNumber = gMSetBase.m_Mp[nSaintStatuePosNum].m_MapNumber;

  0003f	8a 80 08 00 00
	00		 mov	 al, BYTE PTR ?gMSetBase@@3VCMonsterSetBase@@A[eax+8]

; 1773 : 	BYTE btBloodCastleIndex = btMapNumber - MAP_INDEX_BLOODCASTLE1;

  00045	8d 58 f5	 lea	 ebx, DWORD PTR [eax-11]

; 1774 : 
; 1775 : 	if ( nSaintStatuePosNum != -1 )

  00048	83 fe ff	 cmp	 esi, -1
  0004b	0f 84 fd 00 00
	00		 je	 $LN14@SetSaintSt

; 1776 : 	{
; 1777 : 		if ( BC_STATUE_RANGE(btMonsterType-132) != FALSE )

  00051	0f b6 c9	 movzx	 ecx, cl
  00054	8d 91 7c ff ff
	ff		 lea	 edx, DWORD PTR [ecx-132]
  0005a	89 4d 08	 mov	 DWORD PTR tv241[ebp], ecx
  0005d	85 d2		 test	 edx, edx
  0005f	0f 88 cf 00 00
	00		 js	 $LN13@SetSaintSt
  00065	33 c9		 xor	 ecx, ecx
  00067	83 fa 02	 cmp	 edx, 2
  0006a	0f 9e c1	 setle	 cl
  0006d	85 c9		 test	 ecx, ecx
  0006f	0f 84 bc 00 00
	00		 je	 $LN12@SetSaintSt

; 1778 : 		{
; 1779 : 			int result = gObjAddMonster(btMapNumber);

  00075	0f b6 c8	 movzx	 ecx, al
  00078	51		 push	 ecx
  00079	e8 00 00 00 00	 call	 ?gObjAddMonster@@YAFH@Z	; gObjAddMonster
  0007e	0f bf f8	 movsx	 edi, ax
  00081	83 c4 04	 add	 esp, 4

; 1780 : 
; 1781 : 			if ( result >= 0 )

  00084	85 ff		 test	 edi, edi
  00086	0f 88 c2 00 00
	00		 js	 $LN14@SetSaintSt

; 1782 : 			{
; 1783 : 				::gObjSetPosMonster(result, nSaintStatuePosNum);

  0008c	56		 push	 esi
  0008d	57		 push	 edi
  0008e	e8 00 00 00 00	 call	 ?gObjSetPosMonster@@YAHHH@Z ; gObjSetPosMonster

; 1784 : 				::gObjSetMonster(result, btMonsterType);

  00093	8b 55 08	 mov	 edx, DWORD PTR tv241[ebp]
  00096	52		 push	 edx
  00097	57		 push	 edi
  00098	e8 00 00 00 00	 call	 ?gObjSetMonster@@YAHHH@Z ; gObjSetMonster

; 1785 : 				gObj[result].Class = rand() % 3 + 132;

  0009d	8b f7		 mov	 esi, edi
  0009f	83 c4 10	 add	 esp, 16			; 00000010H
  000a2	69 f6 64 15 00
	00		 imul	 esi, 5476		; 00001564H
  000a8	e8 00 00 00 00	 call	 _rand
  000ad	99		 cdq
  000ae	b9 03 00 00 00	 mov	 ecx, 3
  000b3	f7 f9		 idiv	 ecx

; 1786 : 				gObj[result].m_cBloodCastleIndex = btBloodCastleIndex;
; 1787 : 				gObj[result].m_ItemRate = this->m_iBC_NORMAL_ITEM_DROP;

  000b5	8b 4d fc	 mov	 ecx, DWORD PTR _this$[ebp]
  000b8	88 9e 02 0d 00
	00		 mov	 BYTE PTR ?gObj@@3PAUOBJECTSTRUCT@@A[esi+3330], bl

; 1788 : 				gObj[result].Dir = 1;

  000be	b8 01 00 00 00	 mov	 eax, 1
  000c3	81 c2 84 00 00
	00		 add	 edx, 132		; 00000084H
  000c9	66 89 96 98 00
	00 00		 mov	 WORD PTR ?gObj@@3PAUOBJECTSTRUCT@@A[esi+152], dx
  000d0	66 8b 91 14 0e
	00 00		 mov	 dx, WORD PTR [ecx+3604]
  000d7	88 86 08 01 00
	00		 mov	 BYTE PTR ?gObj@@3PAUOBJECTSTRUCT@@A[esi+264], al

; 1789 : 				gObj[result].m_PosNum = -1;
; 1790 : 				gObj[result].Live = TRUE;

  000dd	88 86 62 00 00
	00		 mov	 BYTE PTR ?gObj@@3PAUOBJECTSTRUCT@@A[esi+98], al

; 1791 : 				gObj[result].DieRegen = 0;
; 1792 : 				gObj[result].m_State = 1;

  000e3	89 86 bc 01 00
	00		 mov	 DWORD PTR ?gObj@@3PAUOBJECTSTRUCT@@A[esi+444], eax
  000e9	66 89 96 28 03
	00 00		 mov	 WORD PTR ?gObj@@3PAUOBJECTSTRUCT@@A[esi+808], dx

; 1793 : 				gObj[result].MaxRegenTime = 0;
; 1794 : 				gObj[result].MaxLife = this->m_BridgeData[btBloodCastleIndex].m_iCastleStatueHealth;// Maybe here Deathway Fix

  000f0	0f b6 c3	 movzx	 eax, bl
  000f3	83 ca ff	 or	 edx, -1
  000f6	c1 e0 09	 shl	 eax, 9
  000f9	66 89 96 10 02
	00 00		 mov	 WORD PTR ?gObj@@3PAUOBJECTSTRUCT@@A[esi+528], dx
  00100	c6 86 02 02 00
	00 00		 mov	 BYTE PTR ?gObj@@3PAUOBJECTSTRUCT@@A[esi+514], 0
  00107	c7 86 0c 02 00
	00 00 00 00 00	 mov	 DWORD PTR ?gObj@@3PAUOBJECTSTRUCT@@A[esi+524], 0
  00111	8d 84 08 6c 01
	00 00		 lea	 eax, DWORD PTR [eax+ecx+364]
  00118	d9 00		 fld	 DWORD PTR [eax]
  0011a	d9 9e c0 00 00
	00		 fstp	 DWORD PTR ?gObj@@3PAUOBJECTSTRUCT@@A[esi+192]

; 1795 : 				gObj[result].Life = this->m_BridgeData[btBloodCastleIndex].m_iCastleStatueHealth; // Maybe here Deathway Fix

  00120	d9 00		 fld	 DWORD PTR [eax]
  00122	d9 9e bc 00 00
	00		 fstp	 DWORD PTR ?gObj@@3PAUOBJECTSTRUCT@@A[esi+188]
  00128	5e		 pop	 esi
  00129	5b		 pop	 ebx
  0012a	5f		 pop	 edi

; 1802 : 		}
; 1803 : 	}
; 1804 : 
; 1805 : }

  0012b	8b e5		 mov	 esp, ebp
  0012d	5d		 pop	 ebp
  0012e	c2 04 00	 ret	 4
$LN12@SetSaintSt:

; 1776 : 	{
; 1777 : 		if ( BC_STATUE_RANGE(btMonsterType-132) != FALSE )

  00131	8b 4d 08	 mov	 ecx, DWORD PTR tv241[ebp]
$LN13@SetSaintSt:

; 1796 : 			}
; 1797 : 		}
; 1798 : 		else
; 1799 : 		{
; 1800 : 			LogAdd(LOG_BLACK, "[Blood Castle][Bug Tracer] (%d) It's not Saint Statue( Map:%d, BloodCastleIndex:%d, Type:%d )",
; 1801 : 				iBridgeIndex+1, btMapNumber, gMSetBase.m_Mp[nSaintStatuePosNum].m_MapNumber-11, btMonsterType);

  00134	51		 push	 ecx
  00135	0f b6 c0	 movzx	 eax, al
  00138	8d 48 f5	 lea	 ecx, DWORD PTR [eax-11]
  0013b	51		 push	 ecx
  0013c	50		 push	 eax
  0013d	47		 inc	 edi
  0013e	57		 push	 edi
  0013f	68 00 00 00 00	 push	 OFFSET ??_C@_0FO@DLJLMMJB@?$FLBlood?5Castle?$FN?$FLBug?5Tracer?$FN?5?$CI?$CFd?$CJ?5@
  00144	6a 00		 push	 0
  00146	e8 00 00 00 00	 call	 ?LogAdd@@YAXW4eLogColor@@PADZZ ; LogAdd
  0014b	83 c4 18	 add	 esp, 24			; 00000018H
$LN14@SetSaintSt:
  0014e	5e		 pop	 esi
  0014f	5b		 pop	 ebx
$LN1@SetSaintSt:
  00150	5f		 pop	 edi

; 1802 : 		}
; 1803 : 	}
; 1804 : 
; 1805 : }

  00151	8b e5		 mov	 esp, ebp
  00153	5d		 pop	 ebp
  00154	c2 04 00	 ret	 4
?SetSaintStatue@CBloodCastle@@QAEXH@Z ENDP		; CBloodCastle::SetSaintStatue
_TEXT	ENDS
PUBLIC	?LeaveUserBridge@CBloodCastle@@QAEHHHH@Z	; CBloodCastle::LeaveUserBridge
EXTRN	__imp__LeaveCriticalSection@4:PROC
EXTRN	__imp__EnterCriticalSection@4:PROC
; Function compile flags: /Ogtp
;	COMDAT ?LeaveUserBridge@CBloodCastle@@QAEHHHH@Z
_TEXT	SEGMENT
_iRET_VAL$ = 8						; size = 4
_iBridgeIndex$ = 8					; size = 4
tv200 = 12						; size = 4
_iBridgeSubIndex$ = 12					; size = 4
_iUserIndex$ = 16					; size = 4
?LeaveUserBridge@CBloodCastle@@QAEHHHH@Z PROC		; CBloodCastle::LeaveUserBridge, COMDAT
; _this$ = ecx

; 1812 : {

  00000	55		 push	 ebp
  00001	8b ec		 mov	 ebp, esp
  00003	53		 push	 ebx
  00004	56		 push	 esi

; 1813 : 	if ( BC_BRIDGE_RANGE(iBridgeIndex) == FALSE )

  00005	8b 75 08	 mov	 esi, DWORD PTR _iBridgeIndex$[ebp]
  00008	8b d9		 mov	 ebx, ecx
  0000a	85 f6		 test	 esi, esi
  0000c	78 0c		 js	 SHORT $LN10@LeaveUserB
  0000e	33 c0		 xor	 eax, eax
  00010	83 fe 06	 cmp	 esi, 6
  00013	0f 9e c0	 setle	 al
  00016	85 c0		 test	 eax, eax
  00018	75 09		 jne	 SHORT $LN3@LeaveUserB
$LN10@LeaveUserB:
  0001a	5e		 pop	 esi

; 1814 : 	{
; 1815 : 		return -1;

  0001b	83 c8 ff	 or	 eax, -1
  0001e	5b		 pop	 ebx

; 1839 : }

  0001f	5d		 pop	 ebp
  00020	c2 0c 00	 ret	 12			; 0000000cH
$LN3@LeaveUserB:
  00023	57		 push	 edi

; 1816 : 	}
; 1817 : 
; 1818 : 	if ( BC_SUB_BRIDGE_RANGE(iBridgeSubIndex) == FALSE )

  00024	8b 7d 0c	 mov	 edi, DWORD PTR _iBridgeSubIndex$[ebp]
  00027	85 ff		 test	 edi, edi
  00029	78 0c		 js	 SHORT $LN11@LeaveUserB
  0002b	33 c0		 xor	 eax, eax
  0002d	83 ff 09	 cmp	 edi, 9
  00030	0f 9e c0	 setle	 al
  00033	85 c0		 test	 eax, eax
  00035	75 0a		 jne	 SHORT $LN2@LeaveUserB
$LN11@LeaveUserB:
  00037	5f		 pop	 edi
  00038	5e		 pop	 esi

; 1819 : 	{
; 1820 : 		return -1;

  00039	83 c8 ff	 or	 eax, -1
  0003c	5b		 pop	 ebx

; 1839 : }

  0003d	5d		 pop	 ebp
  0003e	c2 0c 00	 ret	 12			; 0000000cH
$LN2@LeaveUserB:

; 1821 : 	}
; 1822 : 
; 1823 : 	int iRET_VAL = -1;
; 1824 : 
; 1825 : 	::EnterCriticalSection(&this->m_BridgeData[iBridgeIndex].m_critUserData);

  00041	c1 e6 09	 shl	 esi, 9
  00044	8d 44 1e 04	 lea	 eax, DWORD PTR [esi+ebx+4]
  00048	50		 push	 eax
  00049	c7 45 08 ff ff
	ff ff		 mov	 DWORD PTR _iRET_VAL$[ebp], -1
  00050	89 45 0c	 mov	 DWORD PTR tv200[ebp], eax
  00053	ff 15 00 00 00
	00		 call	 DWORD PTR __imp__EnterCriticalSection@4

; 1826 : 
; 1827 : 	if ( this->m_BridgeData[iBridgeIndex].m_UserData[iBridgeSubIndex].m_iIndex == iUserIndex )

  00059	8b 4d 10	 mov	 ecx, DWORD PTR _iUserIndex$[ebp]
  0005c	8d 04 bf	 lea	 eax, DWORD PTR [edi+edi*4]
  0005f	8d 04 86	 lea	 eax, DWORD PTR [esi+eax*4]
  00062	03 c3		 add	 eax, ebx
  00064	39 48 1c	 cmp	 DWORD PTR [eax+28], ecx
  00067	75 1c		 jne	 SHORT $LN1@LeaveUserB

; 1828 : 	{
; 1829 : 		iRET_VAL = iUserIndex;

  00069	89 4d 08	 mov	 DWORD PTR _iRET_VAL$[ebp], ecx

; 1830 : 		this->m_BridgeData[iBridgeIndex].m_UserData[iBridgeSubIndex].m_iIndex = -1;
; 1831 : 		this->m_BridgeData[iBridgeIndex].m_UserData[iBridgeSubIndex].m_iEXP = 0;

  0006c	33 c9		 xor	 ecx, ecx

; 1832 : 		this->m_BridgeData[iBridgeIndex].m_UserData[iBridgeSubIndex].m_iScore = 0;
; 1833 : 		this->m_BridgeData[iBridgeIndex].m_UserData[iBridgeSubIndex].m_iUserState = 0;

  0006e	8d 54 bf 0a	 lea	 edx, DWORD PTR [edi+edi*4+10]
  00072	c7 40 1c ff ff
	ff ff		 mov	 DWORD PTR [eax+28], -1
  00079	89 48 20	 mov	 DWORD PTR [eax+32], ecx
  0007c	89 48 24	 mov	 DWORD PTR [eax+36], ecx
  0007f	8d 04 96	 lea	 eax, DWORD PTR [esi+edx*4]
  00082	89 0c 18	 mov	 DWORD PTR [eax+ebx], ecx
$LN1@LeaveUserB:

; 1834 : 	}
; 1835 : 
; 1836 : 	::LeaveCriticalSection(&this->m_BridgeData[iBridgeIndex].m_critUserData);

  00085	8b 4d 0c	 mov	 ecx, DWORD PTR tv200[ebp]
  00088	51		 push	 ecx
  00089	ff 15 00 00 00
	00		 call	 DWORD PTR __imp__LeaveCriticalSection@4

; 1837 : 
; 1838 : 	return iRET_VAL;

  0008f	8b 45 08	 mov	 eax, DWORD PTR _iRET_VAL$[ebp]
  00092	5f		 pop	 edi
  00093	5e		 pop	 esi
  00094	5b		 pop	 ebx

; 1839 : }

  00095	5d		 pop	 ebp
  00096	c2 0c 00	 ret	 12			; 0000000cH
?LeaveUserBridge@CBloodCastle@@QAEHHHH@Z ENDP		; CBloodCastle::LeaveUserBridge
_TEXT	ENDS
PUBLIC	?EnterUserBridge@CBloodCastle@@QAEHHH@Z		; CBloodCastle::EnterUserBridge
; Function compile flags: /Ogtp
;	COMDAT ?EnterUserBridge@CBloodCastle@@QAEHHH@Z
_TEXT	SEGMENT
tv197 = -4						; size = 4
_iRET_VAL$ = 8						; size = 4
_iBridgeIndex$ = 8					; size = 4
_iUserIndex$ = 12					; size = 4
?EnterUserBridge@CBloodCastle@@QAEHHH@Z PROC		; CBloodCastle::EnterUserBridge, COMDAT
; _this$ = ecx

; 1847 : {

  00000	55		 push	 ebp
  00001	8b ec		 mov	 ebp, esp
  00003	51		 push	 ecx
  00004	56		 push	 esi

; 1848 : 	if ( BC_BRIDGE_RANGE(iBridgeIndex) == FALSE )

  00005	8b 75 08	 mov	 esi, DWORD PTR _iBridgeIndex$[ebp]
  00008	57		 push	 edi
  00009	8b f9		 mov	 edi, ecx
  0000b	85 f6		 test	 esi, esi
  0000d	78 0c		 js	 SHORT $LN16@EnterUserB
  0000f	33 c0		 xor	 eax, eax
  00011	83 fe 06	 cmp	 esi, 6
  00014	0f 9e c0	 setle	 al
  00017	85 c0		 test	 eax, eax
  00019	75 0b		 jne	 SHORT $LN7@EnterUserB
$LN16@EnterUserB:
  0001b	5f		 pop	 edi

; 1849 : 	{
; 1850 : 		return -1;

  0001c	83 c8 ff	 or	 eax, -1
  0001f	5e		 pop	 esi

; 1883 : }

  00020	8b e5		 mov	 esp, ebp
  00022	5d		 pop	 ebp
  00023	c2 08 00	 ret	 8
$LN7@EnterUserB:

; 1851 : 	}
; 1852 : 
; 1853 : 	int iRET_VAL = -1;
; 1854 : 
; 1855 : 	::EnterCriticalSection(&this->m_BridgeData[iBridgeIndex].m_critUserData);

  00026	c1 e6 09	 shl	 esi, 9
  00029	8d 44 3e 04	 lea	 eax, DWORD PTR [esi+edi+4]
  0002d	50		 push	 eax
  0002e	c7 45 08 ff ff
	ff ff		 mov	 DWORD PTR _iRET_VAL$[ebp], -1
  00035	89 45 fc	 mov	 DWORD PTR tv197[ebp], eax
  00038	ff 15 00 00 00
	00		 call	 DWORD PTR __imp__EnterCriticalSection@4
  0003e	8b 55 0c	 mov	 edx, DWORD PTR _iUserIndex$[ebp]

; 1856 : 
; 1857 : 	for ( int i=0;i<MAX_BLOOD_CASTLE_SUB_BRIDGE;i++)

  00041	33 c0		 xor	 eax, eax
  00043	8d 4c 3e 1c	 lea	 ecx, DWORD PTR [esi+edi+28]
  00047	53		 push	 ebx
$LL6@EnterUserB:

; 1858 : 	{
; 1859 : 		if ( this->m_BridgeData[iBridgeIndex].m_UserData[i].m_iIndex != -1 )

  00048	8b 19		 mov	 ebx, DWORD PTR [ecx]
  0004a	83 fb ff	 cmp	 ebx, -1
  0004d	74 14		 je	 SHORT $LN14@EnterUserB

; 1860 : 		{
; 1861 : 			if ( this->m_BridgeData[iBridgeIndex].m_UserData[i].m_iIndex == iUserIndex )

  0004f	3b da		 cmp	 ebx, edx
  00051	74 0b		 je	 SHORT $LN13@EnterUserB

; 1856 : 
; 1857 : 	for ( int i=0;i<MAX_BLOOD_CASTLE_SUB_BRIDGE;i++)

  00053	40		 inc	 eax
  00054	83 c1 14	 add	 ecx, 20			; 00000014H
  00057	83 f8 0a	 cmp	 eax, 10			; 0000000aH
  0005a	7c ec		 jl	 SHORT $LL6@EnterUserB

; 1865 : 			}
; 1866 : 		}
; 1867 : 
; 1868 : 		if ( this->m_BridgeData[iBridgeIndex].m_UserData[i].m_iIndex == -1 )

  0005c	eb 32		 jmp	 SHORT $LN4@EnterUserB
$LN13@EnterUserB:

; 1862 : 			{
; 1863 : 				iRET_VAL = i;

  0005e	89 45 08	 mov	 DWORD PTR _iRET_VAL$[ebp], eax

; 1864 : 				break;

  00061	eb 2d		 jmp	 SHORT $LN4@EnterUserB
$LN14@EnterUserB:

; 1869 : 		{
; 1870 : 			iRET_VAL = i;
; 1871 : 			this->m_BridgeData[iBridgeIndex].m_UserData[i].m_iIndex = iUserIndex;

  00063	8d 0c 80	 lea	 ecx, DWORD PTR [eax+eax*4]
  00066	8d 0c 8e	 lea	 ecx, DWORD PTR [esi+ecx*4]

; 1872 : 			this->m_BridgeData[iBridgeIndex].m_UserData[i].m_iEXP = 0;

  00069	33 db		 xor	 ebx, ebx
  0006b	89 54 39 1c	 mov	 DWORD PTR [ecx+edi+28], edx

; 1873 : 			this->m_BridgeData[iBridgeIndex].m_UserData[i].m_iScore = 0;
; 1874 : 			this->m_BridgeData[iBridgeIndex].m_UserData[i].m_iUserState = 0;
; 1875 : 			gObj[iUserIndex].m_bBloodCastleComplete = false;

  0006f	69 d2 64 15 00
	00		 imul	 edx, 5476		; 00001564H
  00075	89 45 08	 mov	 DWORD PTR _iRET_VAL$[ebp], eax
  00078	89 5c 39 20	 mov	 DWORD PTR [ecx+edi+32], ebx
  0007c	89 5c 39 24	 mov	 DWORD PTR [ecx+edi+36], ebx
  00080	8d 44 80 0a	 lea	 eax, DWORD PTR [eax+eax*4+10]
  00084	8d 0c 86	 lea	 ecx, DWORD PTR [esi+eax*4]
  00087	89 1c 39	 mov	 DWORD PTR [ecx+edi], ebx
  0008a	88 9a 08 0d 00
	00		 mov	 BYTE PTR ?gObj@@3PAUOBJECTSTRUCT@@A[edx+3336], bl
$LN4@EnterUserB:

; 1876 : 			break;
; 1877 : 		}
; 1878 : 	}
; 1879 : 
; 1880 : 	::LeaveCriticalSection(&this->m_BridgeData[iBridgeIndex].m_critUserData);

  00090	8b 55 fc	 mov	 edx, DWORD PTR tv197[ebp]
  00093	52		 push	 edx
  00094	ff 15 00 00 00
	00		 call	 DWORD PTR __imp__LeaveCriticalSection@4

; 1881 : 
; 1882 : 	return iRET_VAL;

  0009a	8b 45 08	 mov	 eax, DWORD PTR _iRET_VAL$[ebp]
  0009d	5b		 pop	 ebx
  0009e	5f		 pop	 edi
  0009f	5e		 pop	 esi

; 1883 : }

  000a0	8b e5		 mov	 esp, ebp
  000a2	5d		 pop	 ebp
  000a3	c2 08 00	 ret	 8
?EnterUserBridge@CBloodCastle@@QAEHHH@Z ENDP		; CBloodCastle::EnterUserBridge
_TEXT	ENDS
PUBLIC	??_C@_0DA@KDBPKGIM@?$FL?$CFs?$FN?$FL?$CFs?$FN?5LevelUp?5PlusStatQuest?5C@ ; `string'
PUBLIC	??_C@_0FC@MCCJHJPM@Experience?5?3?5Map?$FL?$CFd?$FN?9?$CI?$CFd?0?$CFd?$CJ?5?$FL?$CFs@ ; `string'
PUBLIC	?LevelUp@CBloodCastle@@QAEHHHH@Z		; CBloodCastle::LevelUp
EXTRN	?GJSetCharacterInfo@@YAXPAUOBJECTSTRUCT@@HH@Z:PROC ; GJSetCharacterInfo
EXTRN	?gObjCalcMaxLifePower@@YAXH@Z:PROC		; gObjCalcMaxLifePower
EXTRN	?GCLevelUpMsgSend@@YAXHH@Z:PROC			; GCLevelUpMsgSend
EXTRN	?gObjSetBP@@YAXH@Z:PROC				; gObjSetBP
EXTRN	?gObjNextExpCal@@YAXPAUOBJECTSTRUCT@@@Z:PROC	; gObjNextExpCal
EXTRN	?DCInfo@@3Vclassdef@@A:BYTE			; DCInfo
EXTRN	?GCServerMsgStringSend@@YAXPADHE@Z:PROC		; GCServerMsgStringSend
EXTRN	?Get@CMsg@@QAEPADH@Z:PROC			; CMsg::Get
EXTRN	?lMsg@@3VCMsg@@A:BYTE				; lMsg
EXTRN	?gObjSetExpPetItem@@YAXHH@Z:PROC		; gObjSetExpPetItem
;	COMDAT ??_C@_0DA@KDBPKGIM@?$FL?$CFs?$FN?$FL?$CFs?$FN?5LevelUp?5PlusStatQuest?5C@
CONST	SEGMENT
??_C@_0DA@KDBPKGIM@?$FL?$CFs?$FN?$FL?$CFs?$FN?5LevelUp?5PlusStatQuest?5C@ DB '['
	DB	'%s][%s] LevelUp PlusStatQuest Clear AddStat %d', 00H ; `string'
CONST	ENDS
;	COMDAT ??_C@_0FC@MCCJHJPM@Experience?5?3?5Map?$FL?$CFd?$FN?9?$CI?$CFd?0?$CFd?$CJ?5?$FL?$CFs@
CONST	SEGMENT
??_C@_0FC@MCCJHJPM@Experience?5?3?5Map?$FL?$CFd?$FN?9?$CI?$CFd?0?$CFd?$CJ?5?$FL?$CFs@ DB 'E'
	DB	'xperience : Map[%d]-(%d,%d) [%s][%s](%d) %u %d MonsterIndex :'
	DB	' %d, EventType : %d', 00H			; `string'
; Function compile flags: /Ogtp
CONST	ENDS
;	COMDAT ?LevelUp@CBloodCastle@@QAEHHHH@Z
_TEXT	SEGMENT
_iLEFT_EXP$ = -4					; size = 4
tv453 = 8						; size = 4
tv443 = 8						; size = 4
tv396 = 8						; size = 4
_iIndex$ = 8						; size = 4
_iAddExp$ = 12						; size = 4
_iEventType$ = 16					; size = 4
?LevelUp@CBloodCastle@@QAEHHHH@Z PROC			; CBloodCastle::LevelUp, COMDAT
; _this$ = ecx

; 1891 : {

  00000	55		 push	 ebp
  00001	8b ec		 mov	 ebp, esp
  00003	51		 push	 ecx
  00004	53		 push	 ebx

; 1892 : 	if ( OBJMAX_RANGE(iIndex) == FALSE )

  00005	8b 5d 08	 mov	 ebx, DWORD PTR _iIndex$[ebp]
  00008	85 db		 test	 ebx, ebx
  0000a	78 0f		 js	 SHORT $LN13@LevelUp
  0000c	33 c0		 xor	 eax, eax
  0000e	81 fb e7 1c 00
	00		 cmp	 ebx, 7399		; 00001ce7H
  00014	0f 9e c0	 setle	 al
  00017	85 c0		 test	 eax, eax
  00019	75 09		 jne	 SHORT $LN8@LevelUp
$LN13@LevelUp:

; 1893 : 	{
; 1894 : 		return 0;

  0001b	33 c0		 xor	 eax, eax
  0001d	5b		 pop	 ebx

; 1960 : }

  0001e	8b e5		 mov	 esp, ebp
  00020	5d		 pop	 ebp
  00021	c2 0c 00	 ret	 12			; 0000000cH
$LN8@LevelUp:

; 1895 : 	}
; 1896 : 
; 1897 : 	int iLEFT_EXP = 0;
; 1898 : 
; 1899 :     #if LOG_DECREASE == 0
; 1900 : 	LogAdd(LOG_BLACK, "Experience : Map[%d]-(%d,%d) [%s][%s](%d) %u %d MonsterIndex : %d, EventType : %d",
; 1901 : 	gObj[iIndex].MapNumber, gObj[iIndex].X, gObj[iIndex].X,	 
; 1902 : 	gObj[iIndex].AccountID,	gObj[iIndex].Name,
; 1903 : 	gObj[iIndex].Level, gObj[iIndex].Experience,
; 1904 : 	iAddExp, 0, iEventType);

  00024	8b 55 10	 mov	 edx, DWORD PTR _iEventType$[ebp]
  00027	56		 push	 esi
  00028	57		 push	 edi
  00029	8b 7d 0c	 mov	 edi, DWORD PTR _iAddExp$[ebp]
  0002c	52		 push	 edx
  0002d	8b f3		 mov	 esi, ebx
  0002f	69 f6 64 15 00
	00		 imul	 esi, 5476		; 00001564H
  00035	8b 96 a8 00 00
	00		 mov	 edx, DWORD PTR ?gObj@@3PAUOBJECTSTRUCT@@A[esi+168]
  0003b	6a 00		 push	 0
  0003d	57		 push	 edi
  0003e	52		 push	 edx
  0003f	0f bf 96 9c 00
	00 00		 movsx	 edx, WORD PTR ?gObj@@3PAUOBJECTSTRUCT@@A[esi+156]
  00046	52		 push	 edx
  00047	0f b6 96 09 01
	00 00		 movzx	 edx, BYTE PTR ?gObj@@3PAUOBJECTSTRUCT@@A[esi+265]
  0004e	8d 86 64 00 00
	00		 lea	 eax, DWORD PTR ?gObj@@3PAUOBJECTSTRUCT@@A[esi+100]
  00054	8d 8e 6f 00 00
	00		 lea	 ecx, DWORD PTR ?gObj@@3PAUOBJECTSTRUCT@@A[esi+111]
  0005a	51		 push	 ecx
  0005b	89 45 08	 mov	 DWORD PTR tv396[ebp], eax
  0005e	0f bf 86 04 01
	00 00		 movsx	 eax, WORD PTR ?gObj@@3PAUOBJECTSTRUCT@@A[esi+260]
  00065	8b 4d 08	 mov	 ecx, DWORD PTR tv396[ebp]
  00068	51		 push	 ecx
  00069	50		 push	 eax
  0006a	50		 push	 eax
  0006b	52		 push	 edx
  0006c	68 00 00 00 00	 push	 OFFSET ??_C@_0FC@MCCJHJPM@Experience?5?3?5Map?$FL?$CFd?$FN?9?$CI?$CFd?0?$CFd?$CJ?5?$FL?$CFs@
  00071	6a 00		 push	 0
  00073	c7 45 fc 00 00
	00 00		 mov	 DWORD PTR _iLEFT_EXP$[ebp], 0
  0007a	e8 00 00 00 00	 call	 ?LogAdd@@YAXW4eLogColor@@PADZZ ; LogAdd

; 1905 :     #endif
; 1906 : 
; 1907 : 	::gObjSetExpPetItem(iIndex, iAddExp);

  0007f	57		 push	 edi
  00080	53		 push	 ebx
  00081	e8 00 00 00 00	 call	 ?gObjSetExpPetItem@@YAXHH@Z ; gObjSetExpPetItem

; 1908 : 
; 1909 : 	if ( gObj[iIndex].Level >= MAX_CHAR_LEVEL )

  00086	0f b7 96 9c 00
	00 00		 movzx	 edx, WORD PTR ?gObj@@3PAUOBJECTSTRUCT@@A[esi+156]
  0008d	b8 90 01 00 00	 mov	 eax, 400		; 00000190H
  00092	83 c4 38	 add	 esp, 56			; 00000038H
  00095	66 3b d0	 cmp	 dx, ax
  00098	7c 2c		 jl	 SHORT $LN7@LevelUp

; 1910 : 	{
; 1911 : 		::GCServerMsgStringSend(lMsg.Get(MSGGET(4, 112)), gObj[iIndex].m_Index, 1);

  0009a	8b 8e 00 00 00
	00		 mov	 ecx, DWORD PTR ?gObj@@3PAUOBJECTSTRUCT@@A[esi]
  000a0	6a 01		 push	 1
  000a2	51		 push	 ecx
  000a3	68 70 04 00 00	 push	 1136			; 00000470H
  000a8	b9 00 00 00 00	 mov	 ecx, OFFSET ?lMsg@@3VCMsg@@A ; lMsg
  000ad	e8 00 00 00 00	 call	 ?Get@CMsg@@QAEPADH@Z	; CMsg::Get
  000b2	50		 push	 eax
  000b3	e8 00 00 00 00	 call	 ?GCServerMsgStringSend@@YAXPADHE@Z ; GCServerMsgStringSend
  000b8	83 c4 0c	 add	 esp, 12			; 0000000cH
  000bb	5f		 pop	 edi
  000bc	5e		 pop	 esi

; 1912 : 		return 0;

  000bd	33 c0		 xor	 eax, eax
  000bf	5b		 pop	 ebx

; 1960 : }

  000c0	8b e5		 mov	 esp, ebp
  000c2	5d		 pop	 ebp
  000c3	c2 0c 00	 ret	 12			; 0000000cH
$LN7@LevelUp:

; 1913 : 	}
; 1914 : 
; 1915 : 	if ( (gObj[iIndex].Experience + iAddExp) < gObj[iIndex].NextExp )

  000c6	8b 86 a8 00 00
	00		 mov	 eax, DWORD PTR ?gObj@@3PAUOBJECTSTRUCT@@A[esi+168]
  000cc	8b 8e ac 00 00
	00		 mov	 ecx, DWORD PTR ?gObj@@3PAUOBJECTSTRUCT@@A[esi+172]
  000d2	8d 1c 38	 lea	 ebx, DWORD PTR [eax+edi]
  000d5	3b d9		 cmp	 ebx, ecx
  000d7	73 0e		 jae	 SHORT $LN6@LevelUp

; 1916 : 	{
; 1917 : 		gObj[iIndex].Experience += iAddExp;

  000d9	89 9e a8 00 00
	00		 mov	 DWORD PTR ?gObj@@3PAUOBJECTSTRUCT@@A[esi+168], ebx

; 1918 : 	}
; 1919 : 	else

  000df	8b 5d fc	 mov	 ebx, DWORD PTR _iLEFT_EXP$[ebp]
  000e2	e9 09 01 00 00	 jmp	 $LN5@LevelUp
$LN6@LevelUp:

; 1920 : 	{
; 1921 : 		iLEFT_EXP = gObj[iIndex].Experience + iAddExp - gObj[iIndex].NextExp;

  000e7	2b c1		 sub	 eax, ecx
  000e9	8d 1c 07	 lea	 ebx, DWORD PTR [edi+eax]

; 1922 : 		gObj[iIndex].Experience = gObj[iIndex].NextExp;
; 1923 : 		gObj[iIndex].Level++;
; 1924 : 
; 1925 : 		if ( gObj[iIndex].Class == CLASS_DARKLORD || gObj[iIndex].Class == CLASS_MAGUMSA )

  000ec	0f b7 86 98 00
	00 00		 movzx	 eax, WORD PTR ?gObj@@3PAUOBJECTSTRUCT@@A[esi+152]
  000f3	42		 inc	 edx
  000f4	89 8e a8 00 00
	00		 mov	 DWORD PTR ?gObj@@3PAUOBJECTSTRUCT@@A[esi+168], ecx
  000fa	66 89 96 9c 00
	00 00		 mov	 WORD PTR ?gObj@@3PAUOBJECTSTRUCT@@A[esi+156], dx
  00101	83 f8 04	 cmp	 eax, 4
  00104	74 0e		 je	 SHORT $LN3@LevelUp
  00106	83 f8 03	 cmp	 eax, 3
  00109	74 09		 je	 SHORT $LN3@LevelUp

; 1928 : 		}
; 1929 : 		else
; 1930 : 		{
; 1931 : 			gObj[iIndex].LevelUpPoint += 5;

  0010b	83 86 a0 00 00
	00 05		 add	 DWORD PTR ?gObj@@3PAUOBJECTSTRUCT@@A[esi+160], 5
  00112	eb 07		 jmp	 SHORT $LN2@LevelUp
$LN3@LevelUp:

; 1926 : 		{
; 1927 : 			gObj[iIndex].LevelUpPoint += 7;

  00114	83 86 a0 00 00
	00 07		 add	 DWORD PTR ?gObj@@3PAUOBJECTSTRUCT@@A[esi+160], 7
$LN2@LevelUp:

; 1932 : 		}
; 1933 : 
; 1934 : 		if ( gObj[iIndex].PlusStatQuestClear != false )

  0011b	80 be 88 00 00
	00 00		 cmp	 BYTE PTR ?gObj@@3PAUOBJECTSTRUCT@@A[esi+136], 0
  00122	74 2a		 je	 SHORT $LN14@LevelUp

; 1935 : 		{
; 1936 : 			gObj[iIndex].LevelUpPoint++;

  00124	ff 86 a0 00 00
	00		 inc	 DWORD PTR ?gObj@@3PAUOBJECTSTRUCT@@A[esi+160]
  0012a	8b 86 a0 00 00
	00		 mov	 eax, DWORD PTR ?gObj@@3PAUOBJECTSTRUCT@@A[esi+160]

; 1937 : 
; 1938 : 			LogAdd(LOG_BLACK, "[%s][%s] LevelUp PlusStatQuest Clear AddStat %d",
; 1939 : 				gObj[iIndex].AccountID, gObj[iIndex].Name, gObj[iIndex].LevelUpPoint);

  00130	50		 push	 eax
  00131	8d 86 6f 00 00
	00		 lea	 eax, DWORD PTR ?gObj@@3PAUOBJECTSTRUCT@@A[esi+111]
  00137	50		 push	 eax
  00138	8d 86 64 00 00
	00		 lea	 eax, DWORD PTR ?gObj@@3PAUOBJECTSTRUCT@@A[esi+100]
  0013e	50		 push	 eax
  0013f	68 00 00 00 00	 push	 OFFSET ??_C@_0DA@KDBPKGIM@?$FL?$CFs?$FN?$FL?$CFs?$FN?5LevelUp?5PlusStatQuest?5C@
  00144	6a 00		 push	 0
  00146	e8 00 00 00 00	 call	 ?LogAdd@@YAXW4eLogColor@@PADZZ ; LogAdd
  0014b	83 c4 14	 add	 esp, 20			; 00000014H
$LN14@LevelUp:

; 1940 : 		}
; 1941 : 
; 1942 : 		gObj[iIndex].MaxLife += DCInfo.DefClass[gObj[iIndex].Class].LevelLife;

  0014e	0f b7 86 98 00
	00 00		 movzx	 eax, WORD PTR ?gObj@@3PAUOBJECTSTRUCT@@A[esi+152]
  00155	69 c0 60 09 00
	00		 imul	 eax, 2400		; 00000960H

; 1943 : 		gObj[iIndex].MaxMana += DCInfo.DefClass[gObj[iIndex].Class].LevelMana;
; 1944 : 
; 1945 : 		gObj[iIndex].Life = gObj[iIndex].MaxLife;
; 1946 : 		gObj[iIndex].Mana = gObj[iIndex].MaxMana;
; 1947 : 
; 1948 : 		gObjNextExpCal(&gObj[iIndex]);

  0015b	8d be 00 00 00
	00		 lea	 edi, DWORD PTR ?gObj@@3PAUOBJECTSTRUCT@@A[esi]
  00161	57		 push	 edi
  00162	d9 80 10 00 00
	00		 fld	 DWORD PTR ?DCInfo@@3Vclassdef@@A[eax+16]
  00168	d8 86 c0 00 00
	00		 fadd	 DWORD PTR ?gObj@@3PAUOBJECTSTRUCT@@A[esi+192]
  0016e	d9 5d 08	 fstp	 DWORD PTR tv443[ebp]
  00171	d9 45 08	 fld	 DWORD PTR tv443[ebp]
  00174	d9 96 c0 00 00
	00		 fst	 DWORD PTR ?gObj@@3PAUOBJECTSTRUCT@@A[esi+192]
  0017a	d9 80 1c 00 00
	00		 fld	 DWORD PTR ?DCInfo@@3Vclassdef@@A[eax+28]
  00180	d8 86 d4 00 00
	00		 fadd	 DWORD PTR ?gObj@@3PAUOBJECTSTRUCT@@A[esi+212]
  00186	d9 5d 08	 fstp	 DWORD PTR tv453[ebp]
  00189	d9 45 08	 fld	 DWORD PTR tv453[ebp]
  0018c	d9 96 d4 00 00
	00		 fst	 DWORD PTR ?gObj@@3PAUOBJECTSTRUCT@@A[esi+212]
  00192	d9 9e d0 00 00
	00		 fstp	 DWORD PTR ?gObj@@3PAUOBJECTSTRUCT@@A[esi+208]
  00198	d9 9e bc 00 00
	00		 fstp	 DWORD PTR ?gObj@@3PAUOBJECTSTRUCT@@A[esi+188]
  0019e	e8 00 00 00 00	 call	 ?gObjNextExpCal@@YAXPAUOBJECTSTRUCT@@@Z ; gObjNextExpCal

; 1949 : 		gObjSetBP(gObj[iIndex].m_Index);

  001a3	8b 17		 mov	 edx, DWORD PTR [edi]
  001a5	52		 push	 edx
  001a6	e8 00 00 00 00	 call	 ?gObjSetBP@@YAXH@Z	; gObjSetBP

; 1950 : 
; 1951 : 		GCLevelUpMsgSend(gObj[iIndex].m_Index, 1);

  001ab	8b 07		 mov	 eax, DWORD PTR [edi]
  001ad	6a 01		 push	 1
  001af	50		 push	 eax
  001b0	e8 00 00 00 00	 call	 ?GCLevelUpMsgSend@@YAXHH@Z ; GCLevelUpMsgSend

; 1952 : 
; 1953 : 		gObjCalcMaxLifePower(gObj[iIndex].m_Index);

  001b5	8b 0f		 mov	 ecx, DWORD PTR [edi]
  001b7	51		 push	 ecx
  001b8	e8 00 00 00 00	 call	 ?gObjCalcMaxLifePower@@YAXH@Z ; gObjCalcMaxLifePower

; 1954 : 		LogAdd(LOG_BLACK, lMsg.Get(MSGGET(2, 8)), gObj[iIndex].AccountID, gObj[iIndex].Name, gObj[iIndex].Level);

  001bd	0f bf 96 9c 00
	00 00		 movsx	 edx, WORD PTR ?gObj@@3PAUOBJECTSTRUCT@@A[esi+156]
  001c4	83 c4 14	 add	 esp, 20			; 00000014H
  001c7	52		 push	 edx
  001c8	8d 86 6f 00 00
	00		 lea	 eax, DWORD PTR ?gObj@@3PAUOBJECTSTRUCT@@A[esi+111]
  001ce	50		 push	 eax
  001cf	8d 86 64 00 00
	00		 lea	 eax, DWORD PTR ?gObj@@3PAUOBJECTSTRUCT@@A[esi+100]
  001d5	50		 push	 eax
  001d6	68 08 02 00 00	 push	 520			; 00000208H
  001db	b9 00 00 00 00	 mov	 ecx, OFFSET ?lMsg@@3VCMsg@@A ; lMsg
  001e0	e8 00 00 00 00	 call	 ?Get@CMsg@@QAEPADH@Z	; CMsg::Get
  001e5	50		 push	 eax
  001e6	6a 00		 push	 0
  001e8	e8 00 00 00 00	 call	 ?LogAdd@@YAXW4eLogColor@@PADZZ ; LogAdd
  001ed	83 c4 14	 add	 esp, 20			; 00000014H
$LN5@LevelUp:

; 1955 : 	}
; 1956 : 
; 1957 : 	GJSetCharacterInfo(&gObj[iIndex], gObj[iIndex].m_Index, 0);

  001f0	8b 86 00 00 00
	00		 mov	 eax, DWORD PTR ?gObj@@3PAUOBJECTSTRUCT@@A[esi]
  001f6	8d b6 00 00 00
	00		 lea	 esi, DWORD PTR ?gObj@@3PAUOBJECTSTRUCT@@A[esi]
  001fc	6a 00		 push	 0
  001fe	50		 push	 eax
  001ff	56		 push	 esi
  00200	e8 00 00 00 00	 call	 ?GJSetCharacterInfo@@YAXPAUOBJECTSTRUCT@@HH@Z ; GJSetCharacterInfo
  00205	83 c4 0c	 add	 esp, 12			; 0000000cH
  00208	5f		 pop	 edi
  00209	5e		 pop	 esi

; 1958 : 	
; 1959 : 	return iLEFT_EXP;

  0020a	8b c3		 mov	 eax, ebx
  0020c	5b		 pop	 ebx

; 1960 : }

  0020d	8b e5		 mov	 esp, ebp
  0020f	5d		 pop	 ebp
  00210	c2 0c 00	 ret	 12			; 0000000cH
?LevelUp@CBloodCastle@@QAEHHHH@Z ENDP			; CBloodCastle::LevelUp
_TEXT	ENDS
PUBLIC	?CheckUsersOnConnect@CBloodCastle@@QAEXH@Z	; CBloodCastle::CheckUsersOnConnect
EXTRN	?gObjIsConnected@@YAHH@Z:PROC			; gObjIsConnected
; Function compile flags: /Ogtp
;	COMDAT ?CheckUsersOnConnect@CBloodCastle@@QAEXH@Z
_TEXT	SEGMENT
tv197 = 8						; size = 4
_iBridgeIndex$ = 8					; size = 4
?CheckUsersOnConnect@CBloodCastle@@QAEXH@Z PROC		; CBloodCastle::CheckUsersOnConnect, COMDAT
; _this$ = ecx

; 1967 : {

  00000	55		 push	 ebp
  00001	8b ec		 mov	 ebp, esp
  00003	53		 push	 ebx

; 1968 : 	if ( BC_BRIDGE_RANGE(iBridgeIndex) == FALSE )

  00004	8b 5d 08	 mov	 ebx, DWORD PTR _iBridgeIndex$[ebp]
  00007	85 db		 test	 ebx, ebx
  00009	78 6c		 js	 SHORT $LN9@CheckUsers
  0000b	33 c0		 xor	 eax, eax
  0000d	83 fb 06	 cmp	 ebx, 6
  00010	0f 9e c0	 setle	 al
  00013	85 c0		 test	 eax, eax
  00015	74 60		 je	 SHORT $LN9@CheckUsers

; 1969 : 	{
; 1970 : 		return;
; 1971 : 	}
; 1972 : 
; 1973 : 	::EnterCriticalSection(&this->m_BridgeData[iBridgeIndex].m_critUserData);

  00017	56		 push	 esi
  00018	8b f3		 mov	 esi, ebx
  0001a	c1 e6 09	 shl	 esi, 9
  0001d	03 f1		 add	 esi, ecx
  0001f	8d 46 04	 lea	 eax, DWORD PTR [esi+4]
  00022	57		 push	 edi
  00023	50		 push	 eax
  00024	89 45 08	 mov	 DWORD PTR tv197[ebp], eax
  00027	ff 15 00 00 00
	00		 call	 DWORD PTR __imp__EnterCriticalSection@4
  0002d	83 c6 1c	 add	 esi, 28			; 0000001cH
  00030	bf 0a 00 00 00	 mov	 edi, 10			; 0000000aH
$LL7@CheckUsers:

; 1976 : 	{
; 1977 : 		if ( this->m_BridgeData[iBridgeIndex].m_UserData[i].m_iIndex != -1 )

  00035	8b 06		 mov	 eax, DWORD PTR [esi]
  00037	83 f8 ff	 cmp	 eax, -1
  0003a	74 29		 je	 SHORT $LN6@CheckUsers

; 1978 : 		{
; 1979 : 			if ( gObjIsConnected(this->m_BridgeData[iBridgeIndex].m_UserData[i].m_iIndex) == FALSE )

  0003c	50		 push	 eax
  0003d	e8 00 00 00 00	 call	 ?gObjIsConnected@@YAHH@Z ; gObjIsConnected
  00042	83 c4 04	 add	 esp, 4
  00045	85 c0		 test	 eax, eax

; 1980 : 			{
; 1981 : 				this->m_BridgeData[iBridgeIndex].m_UserData[i].m_iIndex = -1;
; 1982 : 			}
; 1983 : 			else

  00047	74 16		 je	 SHORT $LN15@CheckUsers

; 1984 : 			{
; 1985 : 				if ( gObj[this->m_BridgeData[iBridgeIndex].m_UserData[i].m_iIndex].MapNumber != (iBridgeIndex + MAP_INDEX_BLOODCASTLE1) )

  00049	8b 0e		 mov	 ecx, DWORD PTR [esi]
  0004b	69 c9 64 15 00
	00		 imul	 ecx, 5476		; 00001564H
  00051	0f b6 91 09 01
	00 00		 movzx	 edx, BYTE PTR ?gObj@@3PAUOBJECTSTRUCT@@A[ecx+265]
  00058	8d 43 0b	 lea	 eax, DWORD PTR [ebx+11]
  0005b	3b d0		 cmp	 edx, eax
  0005d	74 06		 je	 SHORT $LN6@CheckUsers
$LN15@CheckUsers:

; 1986 : 				{
; 1987 : 					this->m_BridgeData[iBridgeIndex].m_UserData[i].m_iIndex = -1;

  0005f	c7 06 ff ff ff
	ff		 mov	 DWORD PTR [esi], -1
$LN6@CheckUsers:

; 1974 : 
; 1975 : 	for ( int i=0;i<MAX_BLOOD_CASTLE_SUB_BRIDGE;i++)

  00065	83 c6 14	 add	 esi, 20			; 00000014H
  00068	4f		 dec	 edi
  00069	75 ca		 jne	 SHORT $LL7@CheckUsers

; 1988 : 				}
; 1989 : 			}
; 1990 : 		}
; 1991 : 	}
; 1992 : 
; 1993 : 	::LeaveCriticalSection(&this->m_BridgeData[iBridgeIndex].m_critUserData);

  0006b	8b 4d 08	 mov	 ecx, DWORD PTR tv197[ebp]
  0006e	51		 push	 ecx
  0006f	ff 15 00 00 00
	00		 call	 DWORD PTR __imp__LeaveCriticalSection@4
  00075	5f		 pop	 edi
  00076	5e		 pop	 esi
$LN9@CheckUsers:
  00077	5b		 pop	 ebx

; 1994 : 
; 1995 : }

  00078	5d		 pop	 ebp
  00079	c2 04 00	 ret	 4
?CheckUsersOnConnect@CBloodCastle@@QAEXH@Z ENDP		; CBloodCastle::CheckUsersOnConnect
_TEXT	ENDS
PUBLIC	?AddExperience@CBloodCastle@@QAE_NHH@Z		; CBloodCastle::AddExperience
; Function compile flags: /Ogtp
;	COMDAT ?AddExperience@CBloodCastle@@QAE_NHH@Z
_TEXT	SEGMENT
_iIndex$ = 8						; size = 4
_iEXP$ = 12						; size = 4
?AddExperience@CBloodCastle@@QAE_NHH@Z PROC		; CBloodCastle::AddExperience, COMDAT
; _this$ = ecx

; 2004 : {

  00000	55		 push	 ebp
  00001	8b ec		 mov	 ebp, esp

; 2005 : 	if ( OBJMAX_RANGE(iIndex) == FALSE )

  00003	8b 45 08	 mov	 eax, DWORD PTR _iIndex$[ebp]
  00006	57		 push	 edi
  00007	8b f9		 mov	 edi, ecx
  00009	85 c0		 test	 eax, eax
  0000b	78 0e		 js	 SHORT $LN13@AddExperie
  0000d	33 c9		 xor	 ecx, ecx
  0000f	3d e7 1c 00 00	 cmp	 eax, 7399		; 00001ce7H
  00014	0f 9e c1	 setle	 cl
  00017	85 c9		 test	 ecx, ecx
  00019	75 07		 jne	 SHORT $LN4@AddExperie
$LN13@AddExperie:

; 2006 : 	{
; 2007 : 		return false;

  0001b	32 c0		 xor	 al, al
  0001d	5f		 pop	 edi

; 2027 : }

  0001e	5d		 pop	 ebp
  0001f	c2 08 00	 ret	 8
$LN4@AddExperie:

; 2008 : 	}
; 2009 : 
; 2010 : 	if ( BC_BRIDGE_RANGE(gObj[iIndex].m_cBloodCastleIndex) == FALSE )

  00022	69 c0 64 15 00
	00		 imul	 eax, 5476		; 00001564H
  00028	8a 88 02 0d 00
	00		 mov	 cl, BYTE PTR ?gObj@@3PAUOBJECTSTRUCT@@A[eax+3330]
  0002e	84 c9		 test	 cl, cl
  00030	78 e9		 js	 SHORT $LN13@AddExperie
  00032	33 d2		 xor	 edx, edx
  00034	80 f9 06	 cmp	 cl, 6
  00037	0f 9e c2	 setle	 dl
  0003a	85 d2		 test	 edx, edx

; 2011 : 	{
; 2012 : 		return false;

  0003c	74 dd		 je	 SHORT $LN13@AddExperie

; 2013 : 	}
; 2014 : 
; 2015 : 	if ( BC_SUB_BRIDGE_RANGE(gObj[iIndex].m_cBloodCastleSubIndex) == FALSE )

  0003e	8a 90 03 0d 00
	00		 mov	 dl, BYTE PTR ?gObj@@3PAUOBJECTSTRUCT@@A[eax+3331]
  00044	56		 push	 esi
  00045	84 d2		 test	 dl, dl
  00047	78 10		 js	 SHORT $LN15@AddExperie
  00049	53		 push	 ebx
  0004a	33 db		 xor	 ebx, ebx
  0004c	80 fa 09	 cmp	 dl, 9
  0004f	0f 9e c3	 setle	 bl
  00052	8b f3		 mov	 esi, ebx
  00054	5b		 pop	 ebx
  00055	85 f6		 test	 esi, esi
  00057	75 08		 jne	 SHORT $LN2@AddExperie
$LN15@AddExperie:
  00059	5e		 pop	 esi

; 2016 : 	{
; 2017 : 		return false;

  0005a	32 c0		 xor	 al, al
  0005c	5f		 pop	 edi

; 2027 : }

  0005d	5d		 pop	 ebp
  0005e	c2 08 00	 ret	 8
$LN2@AddExperie:

; 2018 : 	}
; 2019 : 
; 2020 : 	if ( iEXP > 0 )

  00061	8b 75 0c	 mov	 esi, DWORD PTR _iEXP$[ebp]
  00064	85 f6		 test	 esi, esi
  00066	7e 1c		 jle	 SHORT $LN1@AddExperie

; 2021 : 	{
; 2022 : 		this->m_BridgeData[gObj[iIndex].m_cBloodCastleIndex].m_UserData[gObj[iIndex].m_cBloodCastleSubIndex].m_iEXP += iEXP;

  00068	0f be c9	 movsx	 ecx, cl
  0006b	c1 e1 09	 shl	 ecx, 9
  0006e	0f be d2	 movsx	 edx, dl
  00071	03 cf		 add	 ecx, edi
  00073	8d 14 92	 lea	 edx, DWORD PTR [edx+edx*4]
  00076	01 74 91 20	 add	 DWORD PTR [ecx+edx*4+32], esi

; 2023 : 		gObj[iIndex].m_iBloodCastleEXP += iEXP;

  0007a	01 b0 04 0d 00
	00		 add	 DWORD PTR ?gObj@@3PAUOBJECTSTRUCT@@A[eax+3332], esi
  00080	8d 4c 91 20	 lea	 ecx, DWORD PTR [ecx+edx*4+32]
$LN1@AddExperie:

; 2024 : 	}
; 2025 : 
; 2026 : 	return true;

  00084	5e		 pop	 esi
  00085	b0 01		 mov	 al, 1
  00087	5f		 pop	 edi

; 2027 : }

  00088	5d		 pop	 ebp
  00089	c2 08 00	 ret	 8
?AddExperience@CBloodCastle@@QAE_NHH@Z ENDP		; CBloodCastle::AddExperience
_TEXT	ENDS
PUBLIC	?BlockCastleEntrance@CBloodCastle@@QAEXH@Z	; CBloodCastle::BlockCastleEntrance
; Function compile flags: /Ogtp
;	COMDAT ?BlockCastleEntrance@CBloodCastle@@QAEXH@Z
_TEXT	SEGMENT
_iBridgeIndex$ = 8					; size = 4
?BlockCastleEntrance@CBloodCastle@@QAEXH@Z PROC		; CBloodCastle::BlockCastleEntrance, COMDAT
; _this$ = ecx

; 2034 : {

  00000	55		 push	 ebp
  00001	8b ec		 mov	 ebp, esp
  00003	53		 push	 ebx

; 2035 : 	if ( BC_BRIDGE_RANGE(iBridgeIndex) == FALSE )

  00004	8b 5d 08	 mov	 ebx, DWORD PTR _iBridgeIndex$[ebp]
  00007	85 db		 test	 ebx, ebx
  00009	78 7f		 js	 SHORT $LN4@BlockCastl
  0000b	33 c0		 xor	 eax, eax
  0000d	83 fb 06	 cmp	 ebx, 6
  00010	0f 9e c0	 setle	 al
  00013	85 c0		 test	 eax, eax
  00015	74 73		 je	 SHORT $LN4@BlockCastl

; 2036 : 	{
; 2037 : 		return;
; 2038 : 	}
; 2039 : 
; 2040 : 	for ( int i= ::g_btCastleEntranceMapXY[iBridgeIndex].btStartX;i<= ::g_btCastleEntranceMapXY[iBridgeIndex].btEndX;i++)

  00017	0f b6 04 9d 02
	00 00 00	 movzx	 eax, BYTE PTR _g_btCastleEntranceMapXY[ebx*4+2]
  0001f	57		 push	 edi
  00020	0f b6 3c 9d 00
	00 00 00	 movzx	 edi, BYTE PTR _g_btCastleEntranceMapXY[ebx*4]
  00028	3b f8		 cmp	 edi, eax
  0002a	7f 5d		 jg	 SHORT $LN16@BlockCastl
  0002c	0f b6 04 9d 03
	00 00 00	 movzx	 eax, BYTE PTR _g_btCastleEntranceMapXY[ebx*4+3]
  00034	56		 push	 esi
  00035	eb 09 8d a4 24
	00 00 00 00 8b
	ff		 npad	 11
$LL6@BlockCastl:

; 2041 : 	{
; 2042 : 		for ( int j= ::g_btCastleEntranceMapXY[iBridgeIndex].btStartY;j<= ::g_btCastleEntranceMapXY[iBridgeIndex].btEndY;j++)

  00040	0f b6 14 9d 01
	00 00 00	 movzx	 edx, BYTE PTR _g_btCastleEntranceMapXY[ebx*4+1]
  00048	3b d0		 cmp	 edx, eax
  0004a	7f 2f		 jg	 SHORT $LN5@BlockCastl
  0004c	8b cb		 mov	 ecx, ebx
  0004e	69 c9 08 07 05
	00		 imul	 ecx, 329480		; 00050708H
  00054	8d b1 68 4d 37
	00		 lea	 esi, DWORD PTR ?MapC@@3PAVMapClass@@A[ecx+3624296]
  0005a	8b ca		 mov	 ecx, edx
  0005c	c1 e1 08	 shl	 ecx, 8
  0005f	90		 npad	 1
$LL3@BlockCastl:

; 2043 : 		{
; 2044 : 			MapC[iBridgeIndex + MAP_INDEX_BLOODCASTLE1].m_attrbuf[j * 256 + i] |= 4;

  00060	8b 06		 mov	 eax, DWORD PTR [esi]
  00062	03 c1		 add	 eax, ecx
  00064	80 0c 38 04	 or	 BYTE PTR [eax+edi], 4
  00068	0f b6 04 9d 03
	00 00 00	 movzx	 eax, BYTE PTR _g_btCastleEntranceMapXY[ebx*4+3]
  00070	42		 inc	 edx
  00071	81 c1 00 01 00
	00		 add	 ecx, 256		; 00000100H
  00077	3b d0		 cmp	 edx, eax
  00079	7e e5		 jle	 SHORT $LL3@BlockCastl
$LN5@BlockCastl:

; 2036 : 	{
; 2037 : 		return;
; 2038 : 	}
; 2039 : 
; 2040 : 	for ( int i= ::g_btCastleEntranceMapXY[iBridgeIndex].btStartX;i<= ::g_btCastleEntranceMapXY[iBridgeIndex].btEndX;i++)

  0007b	0f b6 0c 9d 02
	00 00 00	 movzx	 ecx, BYTE PTR _g_btCastleEntranceMapXY[ebx*4+2]
  00083	47		 inc	 edi
  00084	3b f9		 cmp	 edi, ecx
  00086	7e b8		 jle	 SHORT $LL6@BlockCastl
  00088	5e		 pop	 esi
$LN16@BlockCastl:
  00089	5f		 pop	 edi
$LN4@BlockCastl:
  0008a	5b		 pop	 ebx

; 2045 : 		}
; 2046 : 	}
; 2047 : }

  0008b	5d		 pop	 ebp
  0008c	c2 04 00	 ret	 4
?BlockCastleEntrance@CBloodCastle@@QAEXH@Z ENDP		; CBloodCastle::BlockCastleEntrance
_TEXT	ENDS
PUBLIC	?ReleaseCastleEntrance@CBloodCastle@@QAEXH@Z	; CBloodCastle::ReleaseCastleEntrance
; Function compile flags: /Ogtp
;	COMDAT ?ReleaseCastleEntrance@CBloodCastle@@QAEXH@Z
_TEXT	SEGMENT
_iBridgeIndex$ = 8					; size = 4
?ReleaseCastleEntrance@CBloodCastle@@QAEXH@Z PROC	; CBloodCastle::ReleaseCastleEntrance, COMDAT
; _this$ = ecx

; 2055 : {

  00000	55		 push	 ebp
  00001	8b ec		 mov	 ebp, esp
  00003	53		 push	 ebx

; 2056 : 	if ( BC_BRIDGE_RANGE(iBridgeIndex) == FALSE )

  00004	8b 5d 08	 mov	 ebx, DWORD PTR _iBridgeIndex$[ebp]
  00007	85 db		 test	 ebx, ebx
  00009	78 7f		 js	 SHORT $LN4@ReleaseCas
  0000b	33 c0		 xor	 eax, eax
  0000d	83 fb 06	 cmp	 ebx, 6
  00010	0f 9e c0	 setle	 al
  00013	85 c0		 test	 eax, eax
  00015	74 73		 je	 SHORT $LN4@ReleaseCas

; 2057 : 	{
; 2058 : 		return;
; 2059 : 	}
; 2060 : 
; 2061 : 	for ( int i= ::g_btCastleEntranceMapXY[iBridgeIndex].btStartX;i<= ::g_btCastleEntranceMapXY[iBridgeIndex].btEndX;i++)

  00017	0f b6 04 9d 02
	00 00 00	 movzx	 eax, BYTE PTR _g_btCastleEntranceMapXY[ebx*4+2]
  0001f	57		 push	 edi
  00020	0f b6 3c 9d 00
	00 00 00	 movzx	 edi, BYTE PTR _g_btCastleEntranceMapXY[ebx*4]
  00028	3b f8		 cmp	 edi, eax
  0002a	7f 5d		 jg	 SHORT $LN16@ReleaseCas
  0002c	0f b6 04 9d 03
	00 00 00	 movzx	 eax, BYTE PTR _g_btCastleEntranceMapXY[ebx*4+3]
  00034	56		 push	 esi
  00035	eb 09 8d a4 24
	00 00 00 00 8b
	ff		 npad	 11
$LL6@ReleaseCas:

; 2062 : 	{
; 2063 : 		for ( int j= ::g_btCastleEntranceMapXY[iBridgeIndex].btStartY;j<= ::g_btCastleEntranceMapXY[iBridgeIndex].btEndY;j++)

  00040	0f b6 14 9d 01
	00 00 00	 movzx	 edx, BYTE PTR _g_btCastleEntranceMapXY[ebx*4+1]
  00048	3b d0		 cmp	 edx, eax
  0004a	7f 2f		 jg	 SHORT $LN5@ReleaseCas
  0004c	8b cb		 mov	 ecx, ebx
  0004e	69 c9 08 07 05
	00		 imul	 ecx, 329480		; 00050708H
  00054	8d b1 68 4d 37
	00		 lea	 esi, DWORD PTR ?MapC@@3PAVMapClass@@A[ecx+3624296]
  0005a	8b ca		 mov	 ecx, edx
  0005c	c1 e1 08	 shl	 ecx, 8
  0005f	90		 npad	 1
$LL3@ReleaseCas:

; 2064 : 		{
; 2065 : 			MapC[iBridgeIndex + MAP_INDEX_BLOODCASTLE1].m_attrbuf[j * 256 + i] &= ~4;

  00060	8b 06		 mov	 eax, DWORD PTR [esi]
  00062	03 c1		 add	 eax, ecx
  00064	80 24 38 fb	 and	 BYTE PTR [eax+edi], 251	; 000000fbH
  00068	0f b6 04 9d 03
	00 00 00	 movzx	 eax, BYTE PTR _g_btCastleEntranceMapXY[ebx*4+3]
  00070	42		 inc	 edx
  00071	81 c1 00 01 00
	00		 add	 ecx, 256		; 00000100H
  00077	3b d0		 cmp	 edx, eax
  00079	7e e5		 jle	 SHORT $LL3@ReleaseCas
$LN5@ReleaseCas:

; 2057 : 	{
; 2058 : 		return;
; 2059 : 	}
; 2060 : 
; 2061 : 	for ( int i= ::g_btCastleEntranceMapXY[iBridgeIndex].btStartX;i<= ::g_btCastleEntranceMapXY[iBridgeIndex].btEndX;i++)

  0007b	0f b6 0c 9d 02
	00 00 00	 movzx	 ecx, BYTE PTR _g_btCastleEntranceMapXY[ebx*4+2]
  00083	47		 inc	 edi
  00084	3b f9		 cmp	 edi, ecx
  00086	7e b8		 jle	 SHORT $LL6@ReleaseCas
  00088	5e		 pop	 esi
$LN16@ReleaseCas:
  00089	5f		 pop	 edi
$LN4@ReleaseCas:
  0008a	5b		 pop	 ebx

; 2066 : 		}
; 2067 : 	}
; 2068 : }

  0008b	5d		 pop	 ebp
  0008c	c2 04 00	 ret	 4
?ReleaseCastleEntrance@CBloodCastle@@QAEXH@Z ENDP	; CBloodCastle::ReleaseCastleEntrance
_TEXT	ENDS
PUBLIC	?BlockCastleBridge@CBloodCastle@@QAEXH@Z	; CBloodCastle::BlockCastleBridge
; Function compile flags: /Ogtp
;	COMDAT ?BlockCastleBridge@CBloodCastle@@QAEXH@Z
_TEXT	SEGMENT
_iBridgeIndex$ = 8					; size = 4
?BlockCastleBridge@CBloodCastle@@QAEXH@Z PROC		; CBloodCastle::BlockCastleBridge, COMDAT
; _this$ = ecx

; 2077 : {

  00000	55		 push	 ebp
  00001	8b ec		 mov	 ebp, esp
  00003	53		 push	 ebx

; 2078 : 	if ( BC_BRIDGE_RANGE(iBridgeIndex) == FALSE )

  00004	8b 5d 08	 mov	 ebx, DWORD PTR _iBridgeIndex$[ebp]
  00007	85 db		 test	 ebx, ebx
  00009	78 7f		 js	 SHORT $LN4@BlockCastl@2
  0000b	33 c0		 xor	 eax, eax
  0000d	83 fb 06	 cmp	 ebx, 6
  00010	0f 9e c0	 setle	 al
  00013	85 c0		 test	 eax, eax
  00015	74 73		 je	 SHORT $LN4@BlockCastl@2

; 2079 : 	{
; 2080 : 		return;
; 2081 : 	}
; 2082 : 
; 2083 : 	for ( int i= ::g_btCastleBridgeMapXY[iBridgeIndex].btStartX;i<= ::g_btCastleBridgeMapXY[iBridgeIndex].btEndX;i++)

  00017	0f b6 04 9d 02
	00 00 00	 movzx	 eax, BYTE PTR _g_btCastleBridgeMapXY[ebx*4+2]
  0001f	57		 push	 edi
  00020	0f b6 3c 9d 00
	00 00 00	 movzx	 edi, BYTE PTR _g_btCastleBridgeMapXY[ebx*4]
  00028	3b f8		 cmp	 edi, eax
  0002a	7f 5d		 jg	 SHORT $LN16@BlockCastl@2
  0002c	0f b6 04 9d 03
	00 00 00	 movzx	 eax, BYTE PTR _g_btCastleBridgeMapXY[ebx*4+3]
  00034	56		 push	 esi
  00035	eb 09 8d a4 24
	00 00 00 00 8b
	ff		 npad	 11
$LL6@BlockCastl@2:

; 2084 : 	{
; 2085 : 		for ( int j= ::g_btCastleBridgeMapXY[iBridgeIndex].btStartY;j<= ::g_btCastleBridgeMapXY[iBridgeIndex].btEndY;j++)

  00040	0f b6 14 9d 01
	00 00 00	 movzx	 edx, BYTE PTR _g_btCastleBridgeMapXY[ebx*4+1]
  00048	3b d0		 cmp	 edx, eax
  0004a	7f 2f		 jg	 SHORT $LN5@BlockCastl@2
  0004c	8b cb		 mov	 ecx, ebx
  0004e	69 c9 08 07 05
	00		 imul	 ecx, 329480		; 00050708H
  00054	8d b1 68 4d 37
	00		 lea	 esi, DWORD PTR ?MapC@@3PAVMapClass@@A[ecx+3624296]
  0005a	8b ca		 mov	 ecx, edx
  0005c	c1 e1 08	 shl	 ecx, 8
  0005f	90		 npad	 1
$LL3@BlockCastl@2:

; 2086 : 		{
; 2087 : 			MapC[iBridgeIndex + MAP_INDEX_BLOODCASTLE1].m_attrbuf[j * 256 + i] |= 8;

  00060	8b 06		 mov	 eax, DWORD PTR [esi]
  00062	03 c1		 add	 eax, ecx
  00064	80 0c 38 08	 or	 BYTE PTR [eax+edi], 8
  00068	0f b6 04 9d 03
	00 00 00	 movzx	 eax, BYTE PTR _g_btCastleBridgeMapXY[ebx*4+3]
  00070	42		 inc	 edx
  00071	81 c1 00 01 00
	00		 add	 ecx, 256		; 00000100H
  00077	3b d0		 cmp	 edx, eax
  00079	7e e5		 jle	 SHORT $LL3@BlockCastl@2
$LN5@BlockCastl@2:

; 2079 : 	{
; 2080 : 		return;
; 2081 : 	}
; 2082 : 
; 2083 : 	for ( int i= ::g_btCastleBridgeMapXY[iBridgeIndex].btStartX;i<= ::g_btCastleBridgeMapXY[iBridgeIndex].btEndX;i++)

  0007b	0f b6 0c 9d 02
	00 00 00	 movzx	 ecx, BYTE PTR _g_btCastleBridgeMapXY[ebx*4+2]
  00083	47		 inc	 edi
  00084	3b f9		 cmp	 edi, ecx
  00086	7e b8		 jle	 SHORT $LL6@BlockCastl@2
  00088	5e		 pop	 esi
$LN16@BlockCastl@2:
  00089	5f		 pop	 edi
$LN4@BlockCastl@2:
  0008a	5b		 pop	 ebx

; 2088 : 		}
; 2089 : 	}
; 2090 : }

  0008b	5d		 pop	 ebp
  0008c	c2 04 00	 ret	 4
?BlockCastleBridge@CBloodCastle@@QAEXH@Z ENDP		; CBloodCastle::BlockCastleBridge
_TEXT	ENDS
PUBLIC	??_C@_0DE@LNBDIFNP@?$FLBlood?5Castle?$FN?$FLBug?5Tracer?$FN?5Relea@ ; `string'
PUBLIC	?ReleaseCastleBridge@CBloodCastle@@QAEXH@Z	; CBloodCastle::ReleaseCastleBridge
;	COMDAT ??_C@_0DE@LNBDIFNP@?$FLBlood?5Castle?$FN?$FLBug?5Tracer?$FN?5Relea@
CONST	SEGMENT
??_C@_0DE@LNBDIFNP@?$FLBlood?5Castle?$FN?$FLBug?5Tracer?$FN?5Relea@ DB '['
	DB	'Blood Castle][Bug Tracer] ReleaseCastleBridge-> %d', 00H ; `string'
; Function compile flags: /Ogtp
CONST	ENDS
;	COMDAT ?ReleaseCastleBridge@CBloodCastle@@QAEXH@Z
_TEXT	SEGMENT
_i$157946 = -4						; size = 4
_iBridgeIndex$ = 8					; size = 4
?ReleaseCastleBridge@CBloodCastle@@QAEXH@Z PROC		; CBloodCastle::ReleaseCastleBridge, COMDAT
; _this$ = ecx

; 2096 : {

  00000	55		 push	 ebp
  00001	8b ec		 mov	 ebp, esp
  00003	51		 push	 ecx

; 2097 : 	if ( BC_BRIDGE_RANGE(iBridgeIndex) == FALSE )

  00004	8b 4d 08	 mov	 ecx, DWORD PTR _iBridgeIndex$[ebp]
  00007	85 c9		 test	 ecx, ecx
  00009	0f 88 98 00 00
	00		 js	 $LN4@ReleaseCas@2
  0000f	33 c0		 xor	 eax, eax
  00011	83 f9 06	 cmp	 ecx, 6
  00014	0f 9e c0	 setle	 al
  00017	85 c0		 test	 eax, eax
  00019	0f 84 88 00 00
	00		 je	 $LN4@ReleaseCas@2

; 2098 : 	{
; 2099 : 		return;
; 2100 : 	}
; 2101 : 
; 2102 : 	for ( int i= ::g_btCastleBridgeMapXY[iBridgeIndex].btStartX;i<= ::g_btCastleBridgeMapXY[iBridgeIndex].btEndX;i++)

  0001f	0f b6 14 8d 00
	00 00 00	 movzx	 edx, BYTE PTR _g_btCastleBridgeMapXY[ecx*4]
  00027	0f b6 04 8d 02
	00 00 00	 movzx	 eax, BYTE PTR _g_btCastleBridgeMapXY[ecx*4+2]
  0002f	89 55 fc	 mov	 DWORD PTR _i$157946[ebp], edx
  00032	3b d0		 cmp	 edx, eax
  00034	7f 71		 jg	 SHORT $LN4@ReleaseCas@2
  00036	0f b6 04 8d 03
	00 00 00	 movzx	 eax, BYTE PTR _g_btCastleBridgeMapXY[ecx*4+3]
  0003e	53		 push	 ebx
  0003f	56		 push	 esi
  00040	57		 push	 edi
$LL6@ReleaseCas@2:

; 2103 : 	{
; 2104 : 		for ( int j= ::g_btCastleBridgeMapXY[iBridgeIndex].btStartY;j<= ::g_btCastleBridgeMapXY[iBridgeIndex].btEndY;j++)

  00041	0f b6 3c 8d 01
	00 00 00	 movzx	 edi, BYTE PTR _g_btCastleBridgeMapXY[ecx*4+1]
  00049	3b f8		 cmp	 edi, eax
  0004b	7f 47		 jg	 SHORT $LN5@ReleaseCas@2
  0004d	8b c1		 mov	 eax, ecx
  0004f	69 c0 08 07 05
	00		 imul	 eax, 329480		; 00050708H
  00055	8b f7		 mov	 esi, edi
  00057	8d 98 68 4d 37
	00		 lea	 ebx, DWORD PTR ?MapC@@3PAVMapClass@@A[eax+3624296]
  0005d	c1 e6 08	 shl	 esi, 8
$LL16@ReleaseCas@2:

; 2105 : 		{
; 2106 : 			MapC[iBridgeIndex + MAP_INDEX_BLOODCASTLE1].m_attrbuf[j * 256 + i] &= ~8;

  00060	8b 03		 mov	 eax, DWORD PTR [ebx]
  00062	03 c6		 add	 eax, esi
  00064	80 24 10 f7	 and	 BYTE PTR [eax+edx], 247	; 000000f7H

; 2107 : 
; 2108 : 			LogAdd(LOG_BLACK, "[Blood Castle][Bug Tracer] ReleaseCastleBridge-> %d", iBridgeIndex+1);

  00068	8d 41 01	 lea	 eax, DWORD PTR [ecx+1]
  0006b	50		 push	 eax
  0006c	68 00 00 00 00	 push	 OFFSET ??_C@_0DE@LNBDIFNP@?$FLBlood?5Castle?$FN?$FLBug?5Tracer?$FN?5Relea@
  00071	6a 00		 push	 0
  00073	e8 00 00 00 00	 call	 ?LogAdd@@YAXW4eLogColor@@PADZZ ; LogAdd
  00078	8b 4d 08	 mov	 ecx, DWORD PTR _iBridgeIndex$[ebp]
  0007b	0f b6 04 8d 03
	00 00 00	 movzx	 eax, BYTE PTR _g_btCastleBridgeMapXY[ecx*4+3]
  00083	8b 55 fc	 mov	 edx, DWORD PTR _i$157946[ebp]
  00086	47		 inc	 edi
  00087	83 c4 0c	 add	 esp, 12			; 0000000cH
  0008a	81 c6 00 01 00
	00		 add	 esi, 256		; 00000100H
  00090	3b f8		 cmp	 edi, eax
  00092	7e cc		 jle	 SHORT $LL16@ReleaseCas@2
$LN5@ReleaseCas@2:

; 2098 : 	{
; 2099 : 		return;
; 2100 : 	}
; 2101 : 
; 2102 : 	for ( int i= ::g_btCastleBridgeMapXY[iBridgeIndex].btStartX;i<= ::g_btCastleBridgeMapXY[iBridgeIndex].btEndX;i++)

  00094	0f b6 34 8d 02
	00 00 00	 movzx	 esi, BYTE PTR _g_btCastleBridgeMapXY[ecx*4+2]
  0009c	42		 inc	 edx
  0009d	89 55 fc	 mov	 DWORD PTR _i$157946[ebp], edx
  000a0	3b d6		 cmp	 edx, esi
  000a2	7e 9d		 jle	 SHORT $LL6@ReleaseCas@2
  000a4	5f		 pop	 edi
  000a5	5e		 pop	 esi
  000a6	5b		 pop	 ebx
$LN4@ReleaseCas@2:

; 2109 : 		}
; 2110 : 	}
; 2111 : }

  000a7	8b e5		 mov	 esp, ebp
  000a9	5d		 pop	 ebp
  000aa	c2 04 00	 ret	 4
?ReleaseCastleBridge@CBloodCastle@@QAEXH@Z ENDP		; CBloodCastle::ReleaseCastleBridge
_TEXT	ENDS
PUBLIC	?BlockCastleDoor@CBloodCastle@@QAEXH@Z		; CBloodCastle::BlockCastleDoor
; Function compile flags: /Ogtp
;	COMDAT ?BlockCastleDoor@CBloodCastle@@QAEXH@Z
_TEXT	SEGMENT
tv425 = -4						; size = 4
_iBridgeIndex$ = 8					; size = 4
?BlockCastleDoor@CBloodCastle@@QAEXH@Z PROC		; CBloodCastle::BlockCastleDoor, COMDAT
; _this$ = ecx

; 2118 : {

  00000	55		 push	 ebp
  00001	8b ec		 mov	 ebp, esp
  00003	51		 push	 ecx

; 2119 : 	if ( BC_BRIDGE_RANGE(iBridgeIndex) == FALSE )

  00004	8b 4d 08	 mov	 ecx, DWORD PTR _iBridgeIndex$[ebp]
  00007	85 c9		 test	 ecx, ecx
  00009	0f 88 7e 00 00
	00		 js	 $LN7@BlockCastl@3
  0000f	33 c0		 xor	 eax, eax
  00011	83 f9 06	 cmp	 ecx, 6
  00014	0f 9e c0	 setle	 al
  00017	85 c0		 test	 eax, eax
  00019	74 72		 je	 SHORT $LN7@BlockCastl@3

; 2120 : 	{
; 2121 : 		return;
; 2122 : 	}
; 2123 : 
; 2124 : 	for ( int x=0;x<3;x++)

  0001b	53		 push	 ebx
  0001c	56		 push	 esi
  0001d	8d 34 49	 lea	 esi, DWORD PTR [ecx+ecx*2]
  00020	57		 push	 edi
  00021	8d 34 b5 03 00
	00 00		 lea	 esi, DWORD PTR _g_btCastleDoorMapXY[esi*4+3]
  00028	c7 45 fc 03 00
	00 00		 mov	 DWORD PTR tv425[ebp], 3
  0002f	90		 npad	 1
$LL9@BlockCastl@3:

; 2125 : 	{
; 2126 : 		for ( int y=::g_btCastleDoorMapXY[iBridgeIndex][x].btStartX; y <= ::g_btCastleDoorMapXY[iBridgeIndex][x].btEndX ;y++)

  00030	0f b6 7e fd	 movzx	 edi, BYTE PTR [esi-3]
  00034	0f b6 46 ff	 movzx	 eax, BYTE PTR [esi-1]
  00038	3b f8		 cmp	 edi, eax
  0003a	7f 46		 jg	 SHORT $LN8@BlockCastl@3
  0003c	0f b6 06	 movzx	 eax, BYTE PTR [esi]
  0003f	90		 npad	 1
$LL6@BlockCastl@3:

; 2127 : 		{
; 2128 : 			for ( int z = ::g_btCastleDoorMapXY[iBridgeIndex][x].btStartY; z <= ::g_btCastleDoorMapXY[iBridgeIndex][x].btEndY ; z++)

  00040	0f b6 56 fe	 movzx	 edx, BYTE PTR [esi-2]
  00044	3b d0		 cmp	 edx, eax
  00046	7f 31		 jg	 SHORT $LN5@BlockCastl@3
  00048	69 c9 08 07 05
	00		 imul	 ecx, 329480		; 00050708H
  0004e	8d 99 68 4d 37
	00		 lea	 ebx, DWORD PTR ?MapC@@3PAVMapClass@@A[ecx+3624296]
  00054	8b ca		 mov	 ecx, edx
  00056	c1 e1 08	 shl	 ecx, 8
  00059	8d a4 24 00 00
	00 00		 npad	 7
$LL3@BlockCastl@3:

; 2129 : 			{
; 2130 : 				MapC[iBridgeIndex + MAP_INDEX_BLOODCASTLE1].m_attrbuf[z * 256 + y] |= 4;

  00060	8b 03		 mov	 eax, DWORD PTR [ebx]
  00062	03 c1		 add	 eax, ecx
  00064	80 0c 38 04	 or	 BYTE PTR [eax+edi], 4
  00068	0f b6 06	 movzx	 eax, BYTE PTR [esi]
  0006b	42		 inc	 edx
  0006c	81 c1 00 01 00
	00		 add	 ecx, 256		; 00000100H
  00072	3b d0		 cmp	 edx, eax
  00074	7e ea		 jle	 SHORT $LL3@BlockCastl@3

; 2127 : 		{
; 2128 : 			for ( int z = ::g_btCastleDoorMapXY[iBridgeIndex][x].btStartY; z <= ::g_btCastleDoorMapXY[iBridgeIndex][x].btEndY ; z++)

  00076	8b 4d 08	 mov	 ecx, DWORD PTR _iBridgeIndex$[ebp]
$LN5@BlockCastl@3:

; 2125 : 	{
; 2126 : 		for ( int y=::g_btCastleDoorMapXY[iBridgeIndex][x].btStartX; y <= ::g_btCastleDoorMapXY[iBridgeIndex][x].btEndX ;y++)

  00079	0f b6 56 ff	 movzx	 edx, BYTE PTR [esi-1]
  0007d	47		 inc	 edi
  0007e	3b fa		 cmp	 edi, edx
  00080	7e be		 jle	 SHORT $LL6@BlockCastl@3
$LN8@BlockCastl@3:

; 2120 : 	{
; 2121 : 		return;
; 2122 : 	}
; 2123 : 
; 2124 : 	for ( int x=0;x<3;x++)

  00082	83 c6 04	 add	 esi, 4
  00085	ff 4d fc	 dec	 DWORD PTR tv425[ebp]
  00088	75 a6		 jne	 SHORT $LL9@BlockCastl@3
  0008a	5f		 pop	 edi
  0008b	5e		 pop	 esi
  0008c	5b		 pop	 ebx
$LN7@BlockCastl@3:

; 2131 : 			}
; 2132 : 		}
; 2133 : 	}
; 2134 : }

  0008d	8b e5		 mov	 esp, ebp
  0008f	5d		 pop	 ebp
  00090	c2 04 00	 ret	 4
?BlockCastleDoor@CBloodCastle@@QAEXH@Z ENDP		; CBloodCastle::BlockCastleDoor
_TEXT	ENDS
PUBLIC	?ReleaseCastleDoor@CBloodCastle@@QAEXH@Z	; CBloodCastle::ReleaseCastleDoor
; Function compile flags: /Ogtp
;	COMDAT ?ReleaseCastleDoor@CBloodCastle@@QAEXH@Z
_TEXT	SEGMENT
tv425 = -4						; size = 4
_iBridgeIndex$ = 8					; size = 4
?ReleaseCastleDoor@CBloodCastle@@QAEXH@Z PROC		; CBloodCastle::ReleaseCastleDoor, COMDAT
; _this$ = ecx

; 2142 : {

  00000	55		 push	 ebp
  00001	8b ec		 mov	 ebp, esp
  00003	51		 push	 ecx

; 2143 : 	if ( BC_BRIDGE_RANGE(iBridgeIndex) == FALSE )

  00004	8b 4d 08	 mov	 ecx, DWORD PTR _iBridgeIndex$[ebp]
  00007	85 c9		 test	 ecx, ecx
  00009	0f 88 7e 00 00
	00		 js	 $LN7@ReleaseCas@3
  0000f	33 c0		 xor	 eax, eax
  00011	83 f9 06	 cmp	 ecx, 6
  00014	0f 9e c0	 setle	 al
  00017	85 c0		 test	 eax, eax
  00019	74 72		 je	 SHORT $LN7@ReleaseCas@3

; 2144 : 	{
; 2145 : 		return;
; 2146 : 	}
; 2147 : 
; 2148 : 	for ( int x=0;x<3;x++)

  0001b	53		 push	 ebx
  0001c	56		 push	 esi
  0001d	8d 34 49	 lea	 esi, DWORD PTR [ecx+ecx*2]
  00020	57		 push	 edi
  00021	8d 34 b5 03 00
	00 00		 lea	 esi, DWORD PTR _g_btCastleDoorMapXY[esi*4+3]
  00028	c7 45 fc 03 00
	00 00		 mov	 DWORD PTR tv425[ebp], 3
  0002f	90		 npad	 1
$LL9@ReleaseCas@3:

; 2149 : 	{
; 2150 : 		for ( int y=::g_btCastleDoorMapXY[iBridgeIndex][x].btStartX; y <= ::g_btCastleDoorMapXY[iBridgeIndex][x].btEndX ;y++)

  00030	0f b6 7e fd	 movzx	 edi, BYTE PTR [esi-3]
  00034	0f b6 46 ff	 movzx	 eax, BYTE PTR [esi-1]
  00038	3b f8		 cmp	 edi, eax
  0003a	7f 46		 jg	 SHORT $LN8@ReleaseCas@3
  0003c	0f b6 06	 movzx	 eax, BYTE PTR [esi]
  0003f	90		 npad	 1
$LL6@ReleaseCas@3:

; 2151 : 		{
; 2152 : 			for ( int z = ::g_btCastleDoorMapXY[iBridgeIndex][x].btStartY; z <= ::g_btCastleDoorMapXY[iBridgeIndex][x].btEndY ; z++)

  00040	0f b6 56 fe	 movzx	 edx, BYTE PTR [esi-2]
  00044	3b d0		 cmp	 edx, eax
  00046	7f 31		 jg	 SHORT $LN5@ReleaseCas@3
  00048	69 c9 08 07 05
	00		 imul	 ecx, 329480		; 00050708H
  0004e	8d 99 68 4d 37
	00		 lea	 ebx, DWORD PTR ?MapC@@3PAVMapClass@@A[ecx+3624296]
  00054	8b ca		 mov	 ecx, edx
  00056	c1 e1 08	 shl	 ecx, 8
  00059	8d a4 24 00 00
	00 00		 npad	 7
$LL3@ReleaseCas@3:

; 2153 : 			{
; 2154 : 				MapC[iBridgeIndex + MAP_INDEX_BLOODCASTLE1].m_attrbuf[z * 256 + y] &= ~4;

  00060	8b 03		 mov	 eax, DWORD PTR [ebx]
  00062	03 c1		 add	 eax, ecx
  00064	80 24 38 fb	 and	 BYTE PTR [eax+edi], 251	; 000000fbH
  00068	0f b6 06	 movzx	 eax, BYTE PTR [esi]
  0006b	42		 inc	 edx
  0006c	81 c1 00 01 00
	00		 add	 ecx, 256		; 00000100H
  00072	3b d0		 cmp	 edx, eax
  00074	7e ea		 jle	 SHORT $LL3@ReleaseCas@3

; 2151 : 		{
; 2152 : 			for ( int z = ::g_btCastleDoorMapXY[iBridgeIndex][x].btStartY; z <= ::g_btCastleDoorMapXY[iBridgeIndex][x].btEndY ; z++)

  00076	8b 4d 08	 mov	 ecx, DWORD PTR _iBridgeIndex$[ebp]
$LN5@ReleaseCas@3:

; 2149 : 	{
; 2150 : 		for ( int y=::g_btCastleDoorMapXY[iBridgeIndex][x].btStartX; y <= ::g_btCastleDoorMapXY[iBridgeIndex][x].btEndX ;y++)

  00079	0f b6 56 ff	 movzx	 edx, BYTE PTR [esi-1]
  0007d	47		 inc	 edi
  0007e	3b fa		 cmp	 edi, edx
  00080	7e be		 jle	 SHORT $LL6@ReleaseCas@3
$LN8@ReleaseCas@3:

; 2144 : 	{
; 2145 : 		return;
; 2146 : 	}
; 2147 : 
; 2148 : 	for ( int x=0;x<3;x++)

  00082	83 c6 04	 add	 esi, 4
  00085	ff 4d fc	 dec	 DWORD PTR tv425[ebp]
  00088	75 a6		 jne	 SHORT $LL9@ReleaseCas@3
  0008a	5f		 pop	 edi
  0008b	5e		 pop	 esi
  0008c	5b		 pop	 ebx
$LN7@ReleaseCas@3:

; 2155 : 			}
; 2156 : 		}
; 2157 : 	}
; 2158 : }

  0008d	8b e5		 mov	 esp, ebp
  0008f	5d		 pop	 ebp
  00090	c2 04 00	 ret	 4
?ReleaseCastleDoor@CBloodCastle@@QAEXH@Z ENDP		; CBloodCastle::ReleaseCastleDoor
_TEXT	ENDS
PUBLIC	?BlockSector@CBloodCastle@@IAEXHHHHH@Z		; CBloodCastle::BlockSector
; Function compile flags: /Ogtp
;	COMDAT ?BlockSector@CBloodCastle@@IAEXHHHHH@Z
_TEXT	SEGMENT
_iMAP_NUM$ = 8						; size = 4
_iSTART_X$ = 12						; size = 4
_iSTART_Y$ = 16						; size = 4
_iEND_X$ = 20						; size = 4
_iEND_Y$ = 24						; size = 4
?BlockSector@CBloodCastle@@IAEXHHHHH@Z PROC		; CBloodCastle::BlockSector, COMDAT
; _this$ = ecx

; 2166 : {

  00000	55		 push	 ebp
  00001	8b ec		 mov	 ebp, esp

; 2167 : 	if ( BC_MAP_RANGE(iMAP_NUM) == FALSE )

  00003	8b 45 08	 mov	 eax, DWORD PTR _iMAP_NUM$[ebp]
  00006	83 f8 0b	 cmp	 eax, 11			; 0000000bH
  00009	7c 51		 jl	 SHORT $LN4@BlockSecto
  0000b	33 c9		 xor	 ecx, ecx
  0000d	83 f8 11	 cmp	 eax, 17			; 00000011H
  00010	0f 9e c1	 setle	 cl
  00013	85 c9		 test	 ecx, ecx
  00015	74 45		 je	 SHORT $LN4@BlockSecto

; 2168 : 	{
; 2169 : 		return;
; 2170 : 	}
; 2171 : 
; 2172 : 	for ( int i=iSTART_X;i<=iEND_X;i++)

  00017	57		 push	 edi
  00018	8b 7d 0c	 mov	 edi, DWORD PTR _iSTART_X$[ebp]
  0001b	3b 7d 14	 cmp	 edi, DWORD PTR _iEND_X$[ebp]
  0001e	7f 3b		 jg	 SHORT $LN16@BlockSecto
  00020	53		 push	 ebx
  00021	8b 5d 10	 mov	 ebx, DWORD PTR _iSTART_Y$[ebp]
  00024	56		 push	 esi
$LL6@BlockSecto:

; 2173 : 	{
; 2174 : 		for ( int j=iSTART_Y;j<=iEND_Y;j++ )

  00025	8b 55 18	 mov	 edx, DWORD PTR _iEND_Y$[ebp]
  00028	3b da		 cmp	 ebx, edx
  0002a	7f 27		 jg	 SHORT $LN5@BlockSecto
  0002c	69 c0 08 07 05
	00		 imul	 eax, 329480		; 00050708H
  00032	8d b0 10 00 00
	00		 lea	 esi, DWORD PTR ?MapC@@3PAVMapClass@@A[eax+16]
  00038	8b c3		 mov	 eax, ebx
  0003a	2b d3		 sub	 edx, ebx
  0003c	c1 e0 08	 shl	 eax, 8
  0003f	42		 inc	 edx
$LL3@BlockSecto:

; 2175 : 		{
; 2176 : 			MapC[iMAP_NUM].m_attrbuf[j * 256 + i] |= 4;

  00040	8b 0e		 mov	 ecx, DWORD PTR [esi]
  00042	03 c8		 add	 ecx, eax
  00044	80 0c 39 04	 or	 BYTE PTR [ecx+edi], 4
  00048	05 00 01 00 00	 add	 eax, 256		; 00000100H
  0004d	4a		 dec	 edx
  0004e	75 f0		 jne	 SHORT $LL3@BlockSecto

; 2173 : 	{
; 2174 : 		for ( int j=iSTART_Y;j<=iEND_Y;j++ )

  00050	8b 45 08	 mov	 eax, DWORD PTR _iMAP_NUM$[ebp]
$LN5@BlockSecto:

; 2168 : 	{
; 2169 : 		return;
; 2170 : 	}
; 2171 : 
; 2172 : 	for ( int i=iSTART_X;i<=iEND_X;i++)

  00053	47		 inc	 edi
  00054	3b 7d 14	 cmp	 edi, DWORD PTR _iEND_X$[ebp]
  00057	7e cc		 jle	 SHORT $LL6@BlockSecto
  00059	5e		 pop	 esi
  0005a	5b		 pop	 ebx
$LN16@BlockSecto:
  0005b	5f		 pop	 edi
$LN4@BlockSecto:

; 2177 : 		}
; 2178 : 	}
; 2179 : }

  0005c	5d		 pop	 ebp
  0005d	c2 14 00	 ret	 20			; 00000014H
?BlockSector@CBloodCastle@@IAEXHHHHH@Z ENDP		; CBloodCastle::BlockSector
_TEXT	ENDS
PUBLIC	?ReleaseSector@CBloodCastle@@IAEXHHHHH@Z	; CBloodCastle::ReleaseSector
; Function compile flags: /Ogtp
;	COMDAT ?ReleaseSector@CBloodCastle@@IAEXHHHHH@Z
_TEXT	SEGMENT
_iMAP_NUM$ = 8						; size = 4
_iSTART_X$ = 12						; size = 4
_iSTART_Y$ = 16						; size = 4
_iEND_X$ = 20						; size = 4
_iEND_Y$ = 24						; size = 4
?ReleaseSector@CBloodCastle@@IAEXHHHHH@Z PROC		; CBloodCastle::ReleaseSector, COMDAT
; _this$ = ecx

; 2186 : {

  00000	55		 push	 ebp
  00001	8b ec		 mov	 ebp, esp

; 2187 : 
; 2188 : 	if ( BC_MAP_RANGE(iMAP_NUM) == FALSE )

  00003	8b 45 08	 mov	 eax, DWORD PTR _iMAP_NUM$[ebp]
  00006	83 f8 0b	 cmp	 eax, 11			; 0000000bH
  00009	7c 51		 jl	 SHORT $LN4@ReleaseSec
  0000b	33 c9		 xor	 ecx, ecx
  0000d	83 f8 11	 cmp	 eax, 17			; 00000011H
  00010	0f 9e c1	 setle	 cl
  00013	85 c9		 test	 ecx, ecx
  00015	74 45		 je	 SHORT $LN4@ReleaseSec

; 2189 : 	{
; 2190 : 		return;
; 2191 : 	}
; 2192 : 
; 2193 : 	for ( int i=iSTART_X;i<=iEND_X;i++)

  00017	57		 push	 edi
  00018	8b 7d 0c	 mov	 edi, DWORD PTR _iSTART_X$[ebp]
  0001b	3b 7d 14	 cmp	 edi, DWORD PTR _iEND_X$[ebp]
  0001e	7f 3b		 jg	 SHORT $LN16@ReleaseSec
  00020	53		 push	 ebx
  00021	8b 5d 10	 mov	 ebx, DWORD PTR _iSTART_Y$[ebp]
  00024	56		 push	 esi
$LL6@ReleaseSec:

; 2194 : 	{
; 2195 : 		for ( int j=iSTART_Y;j<=iEND_Y;j++ )

  00025	8b 55 18	 mov	 edx, DWORD PTR _iEND_Y$[ebp]
  00028	3b da		 cmp	 ebx, edx
  0002a	7f 27		 jg	 SHORT $LN5@ReleaseSec
  0002c	69 c0 08 07 05
	00		 imul	 eax, 329480		; 00050708H
  00032	8d b0 10 00 00
	00		 lea	 esi, DWORD PTR ?MapC@@3PAVMapClass@@A[eax+16]
  00038	8b c3		 mov	 eax, ebx
  0003a	2b d3		 sub	 edx, ebx
  0003c	c1 e0 08	 shl	 eax, 8
  0003f	42		 inc	 edx
$LL3@ReleaseSec:

; 2196 : 		{
; 2197 : 			MapC[iMAP_NUM].m_attrbuf[j * 256 + i] &= ~4;

  00040	8b 0e		 mov	 ecx, DWORD PTR [esi]
  00042	03 c8		 add	 ecx, eax
  00044	80 24 39 fb	 and	 BYTE PTR [ecx+edi], 251	; 000000fbH
  00048	05 00 01 00 00	 add	 eax, 256		; 00000100H
  0004d	4a		 dec	 edx
  0004e	75 f0		 jne	 SHORT $LL3@ReleaseSec

; 2194 : 	{
; 2195 : 		for ( int j=iSTART_Y;j<=iEND_Y;j++ )

  00050	8b 45 08	 mov	 eax, DWORD PTR _iMAP_NUM$[ebp]
$LN5@ReleaseSec:

; 2189 : 	{
; 2190 : 		return;
; 2191 : 	}
; 2192 : 
; 2193 : 	for ( int i=iSTART_X;i<=iEND_X;i++)

  00053	47		 inc	 edi
  00054	3b 7d 14	 cmp	 edi, DWORD PTR _iEND_X$[ebp]
  00057	7e cc		 jle	 SHORT $LL6@ReleaseSec
  00059	5e		 pop	 esi
  0005a	5b		 pop	 ebx
$LN16@ReleaseSec:
  0005b	5f		 pop	 edi
$LN4@ReleaseSec:

; 2198 : 		}
; 2199 : 	}
; 2200 : 
; 2201 : }

  0005c	5d		 pop	 ebp
  0005d	c2 14 00	 ret	 20			; 00000014H
?ReleaseSector@CBloodCastle@@IAEXHHHHH@Z ENDP		; CBloodCastle::ReleaseSector
_TEXT	ENDS
PUBLIC	__$ArrayPad$
PUBLIC	?SendCastleEntranceBlockInfo@CBloodCastle@@QAEXH_N@Z ; CBloodCastle::SendCastleEntranceBlockInfo
; Function compile flags: /Ogtp
;	COMDAT ?SendCastleEntranceBlockInfo@CBloodCastle@@QAEXH_N@Z
_TEXT	SEGMENT
_cTEMP_BUF$ = -260					; size = 256
__$ArrayPad$ = -4					; size = 4
_iBridgeIndex$ = 8					; size = 4
_bLive$ = 12						; size = 1
?SendCastleEntranceBlockInfo@CBloodCastle@@QAEXH_N@Z PROC ; CBloodCastle::SendCastleEntranceBlockInfo, COMDAT
; _this$ = ecx

; 2212 : {

  00000	55		 push	 ebp
  00001	8b ec		 mov	 ebp, esp
  00003	81 ec 04 01 00
	00		 sub	 esp, 260		; 00000104H
  00009	a1 00 00 00 00	 mov	 eax, DWORD PTR ___security_cookie
  0000e	33 c5		 xor	 eax, ebp
  00010	89 45 fc	 mov	 DWORD PTR __$ArrayPad$[ebp], eax
  00013	56		 push	 esi

; 2213 : 	if ( BC_BRIDGE_RANGE(iBridgeIndex) == FALSE )

  00014	8b 75 08	 mov	 esi, DWORD PTR _iBridgeIndex$[ebp]
  00017	85 f6		 test	 esi, esi
  00019	0f 88 be 00 00
	00		 js	 $LN3@SendCastle
  0001f	33 c0		 xor	 eax, eax
  00021	83 fe 06	 cmp	 esi, 6
  00024	0f 9e c0	 setle	 al
  00027	85 c0		 test	 eax, eax
  00029	0f 84 ae 00 00
	00		 je	 $LN3@SendCastle

; 2214 : 	{
; 2215 : 		return;
; 2216 : 	}
; 2217 : 
; 2218 : 	char cTEMP_BUF[256];
; 2219 : 	PMSG_SETMAPATTR_COUNT * lpMsg = (PMSG_SETMAPATTR_COUNT *)cTEMP_BUF;
; 2220 : 
; 2221 : 	PHeadSetB((LPBYTE)lpMsg, 0x46, sizeof(PMSG_SETMAPATTR_COUNT)+sizeof(PMSG_SETMAPATTR)*6);

  0002f	53		 push	 ebx
  00030	57		 push	 edi
  00031	6a 13		 push	 19			; 00000013H
  00033	8d 85 fc fe ff
	ff		 lea	 eax, DWORD PTR _cTEMP_BUF$[ebp]
  00039	6a 46		 push	 70			; 00000046H
  0003b	50		 push	 eax
  0003c	e8 00 00 00 00	 call	 ?PHeadSetB@@YAXPAEEH@Z	; PHeadSetB

; 2222 : 	PMSG_SETMAPATTR * lpMsgBody = (PMSG_SETMAPATTR *)&cTEMP_BUF[7];
; 2223 : 	lpMsg->btType = 0;
; 2224 : 	lpMsg->btCount = 1;
; 2225 : 	lpMsg->btMapAttr = 4;
; 2226 : 	(bLive)?(lpMsg->btMapSetType=0) :( lpMsg->btMapSetType=1);
; 2227 : 
; 2228 : 	lpMsgBody[0].btX = ::g_btCastleEntranceMapXY[iBridgeIndex].btStartX;

  00041	0f b6 14 b5 00
	00 00 00	 movzx	 edx, BYTE PTR _g_btCastleEntranceMapXY[esi*4]

; 2229 : 	lpMsgBody[0].btY = ::g_btCastleEntranceMapXY[iBridgeIndex].btStartY;

  00049	8a 04 b5 01 00
	00 00		 mov	 al, BYTE PTR _g_btCastleEntranceMapXY[esi*4+1]
  00050	83 c4 0c	 add	 esp, 12			; 0000000cH
  00053	80 7d 0c 00	 cmp	 BYTE PTR _bLive$[ebp], 0
  00057	88 95 03 ff ff
	ff		 mov	 BYTE PTR _cTEMP_BUF$[ebp+7], dl

; 2230 : 	lpMsgBody[1].btX   = ::g_btCastleEntranceMapXY[iBridgeIndex].btEndX;
; 2231 : 	lpMsgBody[1].btY   = ::g_btCastleEntranceMapXY[iBridgeIndex].btEndY;

  0005d	0f b6 14 b5 03
	00 00 00	 movzx	 edx, BYTE PTR _g_btCastleEntranceMapXY[esi*4+3]
  00065	0f 94 c1	 sete	 cl
  00068	88 8d 01 ff ff
	ff		 mov	 BYTE PTR _cTEMP_BUF$[ebp+5], cl
  0006e	8a 0c b5 02 00
	00 00		 mov	 cl, BYTE PTR _g_btCastleEntranceMapXY[esi*4+2]
  00075	8d 5e 0b	 lea	 ebx, DWORD PTR [esi+11]
  00078	c6 85 02 ff ff
	ff 01		 mov	 BYTE PTR _cTEMP_BUF$[ebp+6], 1
  0007f	66 c7 85 ff fe
	ff ff 00 04	 mov	 WORD PTR _cTEMP_BUF$[ebp+3], 1024 ; 00000400H
  00088	88 85 04 ff ff
	ff		 mov	 BYTE PTR _cTEMP_BUF$[ebp+8], al
  0008e	88 8d 05 ff ff
	ff		 mov	 BYTE PTR _cTEMP_BUF$[ebp+9], cl
  00094	88 95 06 ff ff
	ff		 mov	 BYTE PTR _cTEMP_BUF$[ebp+10], dl

; 2232 : 
; 2233 : 	for (int i=OBJ_MAXMONSTER;i<OBJMAX;i++)

  0009a	bf a8 16 00 00	 mov	 edi, 5800		; 000016a8H
  0009f	be a4 a1 e4 01	 mov	 esi, OFFSET ?gObj@@3PAUOBJECTSTRUCT@@A+31760804
$LL5@SendCastle:

; 2234 : 	{
; 2235 : 		if ( gObj[i].MapNumber == (iBridgeIndex + MAP_INDEX_BLOODCASTLE1) )

  000a4	0f b6 86 05 01
	00 00		 movzx	 eax, BYTE PTR [esi+261]
  000ab	3b c3		 cmp	 eax, ebx
  000ad	75 1d		 jne	 SHORT $LN4@SendCastle

; 2236 : 		{
; 2237 : 			if ( gObj[i].Connected > PLAYER_LOGGED )

  000af	80 3e 02	 cmp	 BYTE PTR [esi], 2
  000b2	76 18		 jbe	 SHORT $LN4@SendCastle

; 2238 : 			{
; 2239 : 				DataSend(i, (unsigned char *)lpMsg, lpMsg->h.size);

  000b4	0f b6 8d fd fe
	ff ff		 movzx	 ecx, BYTE PTR _cTEMP_BUF$[ebp+1]
  000bb	51		 push	 ecx
  000bc	8d 95 fc fe ff
	ff		 lea	 edx, DWORD PTR _cTEMP_BUF$[ebp]
  000c2	52		 push	 edx
  000c3	57		 push	 edi
  000c4	e8 00 00 00 00	 call	 ?DataSend@@YAHHPAEK@Z	; DataSend
  000c9	83 c4 0c	 add	 esp, 12			; 0000000cH
$LN4@SendCastle:

; 2232 : 
; 2233 : 	for (int i=OBJ_MAXMONSTER;i<OBJMAX;i++)

  000cc	81 c6 64 15 00
	00		 add	 esi, 5476		; 00001564H
  000d2	47		 inc	 edi
  000d3	81 fe a4 52 6a
	02		 cmp	 esi, OFFSET ?gObj@@3PAUOBJECTSTRUCT@@A+40522404
  000d9	7c c9		 jl	 SHORT $LL5@SendCastle
  000db	5f		 pop	 edi
  000dc	5b		 pop	 ebx
$LN3@SendCastle:

; 2240 : 			}
; 2241 : 		}
; 2242 : 	}
; 2243 : 
; 2244 : }

  000dd	8b 4d fc	 mov	 ecx, DWORD PTR __$ArrayPad$[ebp]
  000e0	33 cd		 xor	 ecx, ebp
  000e2	5e		 pop	 esi
  000e3	e8 00 00 00 00	 call	 @__security_check_cookie@4
  000e8	8b e5		 mov	 esp, ebp
  000ea	5d		 pop	 ebp
  000eb	c2 08 00	 ret	 8
?SendCastleEntranceBlockInfo@CBloodCastle@@QAEXH_N@Z ENDP ; CBloodCastle::SendCastleEntranceBlockInfo
_TEXT	ENDS
PUBLIC	??_C@_0FI@NGHAEIOD@?$FLBlood?5Castle?$FN?$FLBug?5Tracer?$FN?5SendC@ ; `string'
PUBLIC	__$ArrayPad$
PUBLIC	?SendCastleBridgeBlockInfo@CBloodCastle@@QAEXH_N@Z ; CBloodCastle::SendCastleBridgeBlockInfo
;	COMDAT ??_C@_0FI@NGHAEIOD@?$FLBlood?5Castle?$FN?$FLBug?5Tracer?$FN?5SendC@
CONST	SEGMENT
??_C@_0FI@NGHAEIOD@?$FLBlood?5Castle?$FN?$FLBug?5Tracer?$FN?5SendC@ DB '['
	DB	'Blood Castle][Bug Tracer] SendCastleBridgeBlockInfo-> Bridge:'
	DB	'%d/Live:%d, (%d,%d,%d,%d)', 00H		; `string'
; Function compile flags: /Ogtp
CONST	ENDS
;	COMDAT ?SendCastleBridgeBlockInfo@CBloodCastle@@QAEXH_N@Z
_TEXT	SEGMENT
_cTEMP_BUF$ = -260					; size = 256
__$ArrayPad$ = -4					; size = 4
_iBridgeIndex$ = 8					; size = 4
_bLive$ = 12						; size = 1
?SendCastleBridgeBlockInfo@CBloodCastle@@QAEXH_N@Z PROC	; CBloodCastle::SendCastleBridgeBlockInfo, COMDAT
; _this$ = ecx

; 2252 : {

  00000	55		 push	 ebp
  00001	8b ec		 mov	 ebp, esp
  00003	81 ec 04 01 00
	00		 sub	 esp, 260		; 00000104H
  00009	a1 00 00 00 00	 mov	 eax, DWORD PTR ___security_cookie
  0000e	33 c5		 xor	 eax, ebp
  00010	89 45 fc	 mov	 DWORD PTR __$ArrayPad$[ebp], eax
  00013	56		 push	 esi
  00014	8b 75 08	 mov	 esi, DWORD PTR _iBridgeIndex$[ebp]

; 2253 : 	if ( BC_BRIDGE_RANGE(iBridgeIndex) == FALSE )

  00017	85 f6		 test	 esi, esi
  00019	0f 88 f3 00 00
	00		 js	 $LN3@SendCastle@2
  0001f	33 c0		 xor	 eax, eax
  00021	83 fe 06	 cmp	 esi, 6
  00024	0f 9e c0	 setle	 al
  00027	85 c0		 test	 eax, eax
  00029	0f 84 e3 00 00
	00		 je	 $LN3@SendCastle@2

; 2254 : 	{
; 2255 : 		return;
; 2256 : 	}
; 2257 : 
; 2258 : 	char cTEMP_BUF[256];
; 2259 : 	PMSG_SETMAPATTR_COUNT * lpMsg = (PMSG_SETMAPATTR_COUNT *)cTEMP_BUF;
; 2260 : 
; 2261 : 	PHeadSetB((LPBYTE)lpMsg, 0x46, sizeof(PMSG_SETMAPATTR_COUNT)+sizeof(PMSG_SETMAPATTR)*6);

  0002f	53		 push	 ebx
  00030	57		 push	 edi
  00031	6a 13		 push	 19			; 00000013H
  00033	8d 85 fc fe ff
	ff		 lea	 eax, DWORD PTR _cTEMP_BUF$[ebp]
  00039	6a 46		 push	 70			; 00000046H
  0003b	50		 push	 eax
  0003c	e8 00 00 00 00	 call	 ?PHeadSetB@@YAXPAEEH@Z	; PHeadSetB

; 2262 : 	PMSG_SETMAPATTR * lpMsgBody = (PMSG_SETMAPATTR *)&cTEMP_BUF[7];
; 2263 : 	lpMsg->btType = 0;
; 2264 : 	lpMsg->btCount = 1;
; 2265 : 	lpMsg->btMapAttr = 8;
; 2266 : 	(bLive)?lpMsg->btMapSetType=0:lpMsg->btMapSetType=1;
; 2267 : 
; 2268 : 	lpMsgBody[0].btX = ::g_btCastleEntranceMapXY[iBridgeIndex].btStartX;

  00041	0f b6 14 b5 00
	00 00 00	 movzx	 edx, BYTE PTR _g_btCastleEntranceMapXY[esi*4]

; 2269 : 	lpMsgBody[0].btY = ::g_btCastleEntranceMapXY[iBridgeIndex].btStartY;

  00049	8a 04 b5 01 00
	00 00		 mov	 al, BYTE PTR _g_btCastleEntranceMapXY[esi*4+1]
  00050	83 c4 0c	 add	 esp, 12			; 0000000cH
  00053	80 7d 0c 00	 cmp	 BYTE PTR _bLive$[ebp], 0
  00057	88 95 03 ff ff
	ff		 mov	 BYTE PTR _cTEMP_BUF$[ebp+7], dl

; 2270 : 	lpMsgBody[1].btX   = ::g_btCastleEntranceMapXY[iBridgeIndex].btEndX;
; 2271 : 	lpMsgBody[1].btY   = ::g_btCastleEntranceMapXY[iBridgeIndex].btEndY;

  0005d	0f b6 14 b5 03
	00 00 00	 movzx	 edx, BYTE PTR _g_btCastleEntranceMapXY[esi*4+3]
  00065	0f 94 c1	 sete	 cl
  00068	88 8d 01 ff ff
	ff		 mov	 BYTE PTR _cTEMP_BUF$[ebp+5], cl
  0006e	8a 0c b5 02 00
	00 00		 mov	 cl, BYTE PTR _g_btCastleEntranceMapXY[esi*4+2]
  00075	c6 85 02 ff ff
	ff 01		 mov	 BYTE PTR _cTEMP_BUF$[ebp+6], 1
  0007c	66 c7 85 ff fe
	ff ff 00 08	 mov	 WORD PTR _cTEMP_BUF$[ebp+3], 2048 ; 00000800H
  00085	88 85 04 ff ff
	ff		 mov	 BYTE PTR _cTEMP_BUF$[ebp+8], al
  0008b	88 8d 05 ff ff
	ff		 mov	 BYTE PTR _cTEMP_BUF$[ebp+9], cl
  00091	88 95 06 ff ff
	ff		 mov	 BYTE PTR _cTEMP_BUF$[ebp+10], dl

; 2272 : 
; 2273 : 	for ( int i=OBJ_MAXMONSTER;i<OBJMAX;i++)

  00097	bb a8 16 00 00	 mov	 ebx, 5800		; 000016a8H
  0009c	bf a4 a1 e4 01	 mov	 edi, OFFSET ?gObj@@3PAUOBJECTSTRUCT@@A+31760804
$LL5@SendCastle@2:

; 2274 : 	{
; 2275 : 		if ( gObj[i].MapNumber == (iBridgeIndex + MAP_INDEX_BLOODCASTLE1) )

  000a1	0f b6 8f 05 01
	00 00		 movzx	 ecx, BYTE PTR [edi+261]
  000a8	8d 46 0b	 lea	 eax, DWORD PTR [esi+11]
  000ab	3b c8		 cmp	 ecx, eax
  000ad	75 52		 jne	 SHORT $LN4@SendCastle@2

; 2276 : 		{
; 2277 : 			if ( gObj[i].Connected > PLAYER_LOGGED )

  000af	80 3f 02	 cmp	 BYTE PTR [edi], 2
  000b2	76 4d		 jbe	 SHORT $LN4@SendCastle@2

; 2278 : 			{
; 2279 : 				DataSend(i, (UCHAR *)lpMsg, lpMsg->h.size);

  000b4	0f b6 95 fd fe
	ff ff		 movzx	 edx, BYTE PTR _cTEMP_BUF$[ebp+1]
  000bb	52		 push	 edx
  000bc	8d 85 fc fe ff
	ff		 lea	 eax, DWORD PTR _cTEMP_BUF$[ebp]
  000c2	50		 push	 eax
  000c3	53		 push	 ebx
  000c4	e8 00 00 00 00	 call	 ?DataSend@@YAHHPAEK@Z	; DataSend

; 2280 : 
; 2281 : 				LogAdd(LOG_BLACK, "[Blood Castle][Bug Tracer] SendCastleBridgeBlockInfo-> Bridge:%d/Live:%d, (%d,%d,%d,%d)",
; 2282 : 					iBridgeIndex+1, bLive, lpMsgBody[0].btX, lpMsgBody[0].btY, lpMsgBody[1].btX, lpMsgBody[1].btY);

  000c9	0f b6 8d 06 ff
	ff ff		 movzx	 ecx, BYTE PTR _cTEMP_BUF$[ebp+10]
  000d0	0f b6 95 05 ff
	ff ff		 movzx	 edx, BYTE PTR _cTEMP_BUF$[ebp+9]
  000d7	0f b6 85 04 ff
	ff ff		 movzx	 eax, BYTE PTR _cTEMP_BUF$[ebp+8]
  000de	51		 push	 ecx
  000df	0f b6 8d 03 ff
	ff ff		 movzx	 ecx, BYTE PTR _cTEMP_BUF$[ebp+7]
  000e6	52		 push	 edx
  000e7	0f b6 55 0c	 movzx	 edx, BYTE PTR _bLive$[ebp]
  000eb	50		 push	 eax
  000ec	51		 push	 ecx
  000ed	52		 push	 edx
  000ee	8d 46 01	 lea	 eax, DWORD PTR [esi+1]
  000f1	50		 push	 eax
  000f2	68 00 00 00 00	 push	 OFFSET ??_C@_0FI@NGHAEIOD@?$FLBlood?5Castle?$FN?$FLBug?5Tracer?$FN?5SendC@
  000f7	6a 00		 push	 0
  000f9	e8 00 00 00 00	 call	 ?LogAdd@@YAXW4eLogColor@@PADZZ ; LogAdd
  000fe	83 c4 2c	 add	 esp, 44			; 0000002cH
$LN4@SendCastle@2:

; 2272 : 
; 2273 : 	for ( int i=OBJ_MAXMONSTER;i<OBJMAX;i++)

  00101	81 c7 64 15 00
	00		 add	 edi, 5476		; 00001564H
  00107	43		 inc	 ebx
  00108	81 ff a4 52 6a
	02		 cmp	 edi, OFFSET ?gObj@@3PAUOBJECTSTRUCT@@A+40522404
  0010e	7c 91		 jl	 SHORT $LL5@SendCastle@2
  00110	5f		 pop	 edi
  00111	5b		 pop	 ebx
$LN3@SendCastle@2:

; 2283 : 			}
; 2284 : 		}
; 2285 : 	}
; 2286 : }

  00112	8b 4d fc	 mov	 ecx, DWORD PTR __$ArrayPad$[ebp]
  00115	33 cd		 xor	 ecx, ebp
  00117	5e		 pop	 esi
  00118	e8 00 00 00 00	 call	 @__security_check_cookie@4
  0011d	8b e5		 mov	 esp, ebp
  0011f	5d		 pop	 ebp
  00120	c2 08 00	 ret	 8
?SendCastleBridgeBlockInfo@CBloodCastle@@QAEXH_N@Z ENDP	; CBloodCastle::SendCastleBridgeBlockInfo
_TEXT	ENDS
PUBLIC	__$ArrayPad$
PUBLIC	?SendCastleDoorBlockInfo@CBloodCastle@@QAEXH_N@Z ; CBloodCastle::SendCastleDoorBlockInfo
; Function compile flags: /Ogtp
;	COMDAT ?SendCastleDoorBlockInfo@CBloodCastle@@QAEXH_N@Z
_TEXT	SEGMENT
_cTEMP_BUF$ = -260					; size = 256
__$ArrayPad$ = -4					; size = 4
_iBridgeIndex$ = 8					; size = 4
_bLive$ = 12						; size = 1
?SendCastleDoorBlockInfo@CBloodCastle@@QAEXH_N@Z PROC	; CBloodCastle::SendCastleDoorBlockInfo, COMDAT
; _this$ = ecx

; 2293 : {

  00000	55		 push	 ebp
  00001	8b ec		 mov	 ebp, esp
  00003	81 ec 04 01 00
	00		 sub	 esp, 260		; 00000104H
  00009	a1 00 00 00 00	 mov	 eax, DWORD PTR ___security_cookie
  0000e	33 c5		 xor	 eax, ebp
  00010	89 45 fc	 mov	 DWORD PTR __$ArrayPad$[ebp], eax
  00013	56		 push	 esi

; 2294 : 	if ( BC_BRIDGE_RANGE(iBridgeIndex) == FALSE )

  00014	8b 75 08	 mov	 esi, DWORD PTR _iBridgeIndex$[ebp]
  00017	85 f6		 test	 esi, esi
  00019	0f 88 2b 01 00
	00		 js	 $LN3@SendCastle@3
  0001f	33 c0		 xor	 eax, eax
  00021	83 fe 06	 cmp	 esi, 6
  00024	0f 9e c0	 setle	 al
  00027	85 c0		 test	 eax, eax
  00029	0f 84 1b 01 00
	00		 je	 $LN3@SendCastle@3

; 2295 : 	{
; 2296 : 		return;
; 2297 : 	}
; 2298 : 
; 2299 : 	char cTEMP_BUF[256];
; 2300 : 	PMSG_SETMAPATTR_COUNT * lpMsg = (PMSG_SETMAPATTR_COUNT *)cTEMP_BUF;
; 2301 : 
; 2302 : 	PHeadSetB((LPBYTE)lpMsg, 0x46, sizeof(PMSG_SETMAPATTR_COUNT)+sizeof(PMSG_SETMAPATTR)*6);

  0002f	53		 push	 ebx
  00030	57		 push	 edi
  00031	6a 13		 push	 19			; 00000013H
  00033	8d 85 fc fe ff
	ff		 lea	 eax, DWORD PTR _cTEMP_BUF$[ebp]
  00039	6a 46		 push	 70			; 00000046H
  0003b	50		 push	 eax
  0003c	e8 00 00 00 00	 call	 ?PHeadSetB@@YAXPAEEH@Z	; PHeadSetB
  00041	83 c4 0c	 add	 esp, 12			; 0000000cH

; 2303 : 	PMSG_SETMAPATTR * lpMsgBody = (PMSG_SETMAPATTR *)&cTEMP_BUF[7];
; 2304 : 	lpMsg->btType = 0;
; 2305 : 	lpMsg->btCount = 3;
; 2306 : 	lpMsg->btMapAttr = 4;
; 2307 : 	(bLive)?lpMsg->btMapSetType=0:lpMsg->btMapSetType=1;

  00044	80 7d 0c 00	 cmp	 BYTE PTR _bLive$[ebp], 0

; 2308 : 
; 2309 : 	lpMsgBody[0].btX = ::g_btCastleDoorMapXY[iBridgeIndex][0].btStartX;

  00048	8d 04 76	 lea	 eax, DWORD PTR [esi+esi*2]
  0004b	0f 94 c1	 sete	 cl
  0004e	03 c0		 add	 eax, eax
  00050	0f b6 94 00 00
	00 00 00	 movzx	 edx, BYTE PTR _g_btCastleDoorMapXY[eax+eax]
  00058	03 c0		 add	 eax, eax
  0005a	88 8d 01 ff ff
	ff		 mov	 BYTE PTR _cTEMP_BUF$[ebp+5], cl

; 2310 : 	lpMsgBody[0].btY = ::g_btCastleDoorMapXY[iBridgeIndex][0].btStartY;

  00060	0f b6 88 01 00
	00 00		 movzx	 ecx, BYTE PTR _g_btCastleDoorMapXY[eax+1]
  00067	88 95 03 ff ff
	ff		 mov	 BYTE PTR _cTEMP_BUF$[ebp+7], dl

; 2311 : 	lpMsgBody[1].btX   = ::g_btCastleDoorMapXY[iBridgeIndex][0].btEndX;

  0006d	0f b6 90 02 00
	00 00		 movzx	 edx, BYTE PTR _g_btCastleDoorMapXY[eax+2]
  00074	88 8d 04 ff ff
	ff		 mov	 BYTE PTR _cTEMP_BUF$[ebp+8], cl

; 2312 : 	lpMsgBody[1].btY   = ::g_btCastleDoorMapXY[iBridgeIndex][0].btEndY;

  0007a	0f b6 88 03 00
	00 00		 movzx	 ecx, BYTE PTR _g_btCastleDoorMapXY[eax+3]
  00081	88 95 05 ff ff
	ff		 mov	 BYTE PTR _cTEMP_BUF$[ebp+9], dl

; 2313 : 
; 2314 : 	lpMsgBody[2].btX = ::g_btCastleDoorMapXY[iBridgeIndex][1].btStartX;

  00087	0f b6 90 04 00
	00 00		 movzx	 edx, BYTE PTR _g_btCastleDoorMapXY[eax+4]
  0008e	88 8d 06 ff ff
	ff		 mov	 BYTE PTR _cTEMP_BUF$[ebp+10], cl

; 2315 : 	lpMsgBody[2].btY = ::g_btCastleDoorMapXY[iBridgeIndex][1].btStartY;

  00094	0f b6 88 05 00
	00 00		 movzx	 ecx, BYTE PTR _g_btCastleDoorMapXY[eax+5]
  0009b	88 95 07 ff ff
	ff		 mov	 BYTE PTR _cTEMP_BUF$[ebp+11], dl

; 2316 : 	lpMsgBody[3].btX   = ::g_btCastleDoorMapXY[iBridgeIndex][1].btEndX;

  000a1	0f b6 90 06 00
	00 00		 movzx	 edx, BYTE PTR _g_btCastleDoorMapXY[eax+6]
  000a8	88 8d 08 ff ff
	ff		 mov	 BYTE PTR _cTEMP_BUF$[ebp+12], cl

; 2317 : 	lpMsgBody[3].btY   = ::g_btCastleDoorMapXY[iBridgeIndex][1].btEndY;

  000ae	0f b6 88 07 00
	00 00		 movzx	 ecx, BYTE PTR _g_btCastleDoorMapXY[eax+7]
  000b5	88 95 09 ff ff
	ff		 mov	 BYTE PTR _cTEMP_BUF$[ebp+13], dl

; 2318 : 
; 2319 : 	lpMsgBody[4].btX = ::g_btCastleDoorMapXY[iBridgeIndex][2].btStartX;

  000bb	0f b6 90 08 00
	00 00		 movzx	 edx, BYTE PTR _g_btCastleDoorMapXY[eax+8]
  000c2	88 8d 0a ff ff
	ff		 mov	 BYTE PTR _cTEMP_BUF$[ebp+14], cl

; 2320 : 	lpMsgBody[4].btY = ::g_btCastleDoorMapXY[iBridgeIndex][2].btStartY;

  000c8	0f b6 88 09 00
	00 00		 movzx	 ecx, BYTE PTR _g_btCastleDoorMapXY[eax+9]
  000cf	88 95 0b ff ff
	ff		 mov	 BYTE PTR _cTEMP_BUF$[ebp+15], dl

; 2321 : 	lpMsgBody[5].btX   = ::g_btCastleDoorMapXY[iBridgeIndex][2].btEndX;

  000d5	0f b6 90 0a 00
	00 00		 movzx	 edx, BYTE PTR _g_btCastleDoorMapXY[eax+10]

; 2322 : 	lpMsgBody[5].btY   = ::g_btCastleDoorMapXY[iBridgeIndex][2].btEndY;

  000dc	8a 80 0b 00 00
	00		 mov	 al, BYTE PTR _g_btCastleDoorMapXY[eax+11]
  000e2	8d 5e 0b	 lea	 ebx, DWORD PTR [esi+11]
  000e5	c6 85 02 ff ff
	ff 03		 mov	 BYTE PTR _cTEMP_BUF$[ebp+6], 3
  000ec	66 c7 85 ff fe
	ff ff 00 04	 mov	 WORD PTR _cTEMP_BUF$[ebp+3], 1024 ; 00000400H
  000f5	88 8d 0c ff ff
	ff		 mov	 BYTE PTR _cTEMP_BUF$[ebp+16], cl
  000fb	88 95 0d ff ff
	ff		 mov	 BYTE PTR _cTEMP_BUF$[ebp+17], dl
  00101	88 85 0e ff ff
	ff		 mov	 BYTE PTR _cTEMP_BUF$[ebp+18], al

; 2323 : 
; 2324 : 	for ( int i=OBJ_MAXMONSTER;i<OBJMAX;i++)

  00107	bf a8 16 00 00	 mov	 edi, 5800		; 000016a8H
  0010c	be a4 a1 e4 01	 mov	 esi, OFFSET ?gObj@@3PAUOBJECTSTRUCT@@A+31760804
$LL5@SendCastle@3:

; 2325 : 	{
; 2326 : 		if ( gObj[i].MapNumber == (iBridgeIndex + MAP_INDEX_BLOODCASTLE1) )

  00111	0f b6 8e 05 01
	00 00		 movzx	 ecx, BYTE PTR [esi+261]
  00118	3b cb		 cmp	 ecx, ebx
  0011a	75 1d		 jne	 SHORT $LN4@SendCastle@3

; 2327 : 		{
; 2328 : 			if ( gObj[i].Connected > PLAYER_LOGGED )

  0011c	80 3e 02	 cmp	 BYTE PTR [esi], 2
  0011f	76 18		 jbe	 SHORT $LN4@SendCastle@3

; 2329 : 			{
; 2330 : 				DataSend(i, (UCHAR *)lpMsg, lpMsg->h.size);

  00121	0f b6 95 fd fe
	ff ff		 movzx	 edx, BYTE PTR _cTEMP_BUF$[ebp+1]
  00128	52		 push	 edx
  00129	8d 85 fc fe ff
	ff		 lea	 eax, DWORD PTR _cTEMP_BUF$[ebp]
  0012f	50		 push	 eax
  00130	57		 push	 edi
  00131	e8 00 00 00 00	 call	 ?DataSend@@YAHHPAEK@Z	; DataSend
  00136	83 c4 0c	 add	 esp, 12			; 0000000cH
$LN4@SendCastle@3:

; 2323 : 
; 2324 : 	for ( int i=OBJ_MAXMONSTER;i<OBJMAX;i++)

  00139	81 c6 64 15 00
	00		 add	 esi, 5476		; 00001564H
  0013f	47		 inc	 edi
  00140	81 fe a4 52 6a
	02		 cmp	 esi, OFFSET ?gObj@@3PAUOBJECTSTRUCT@@A+40522404
  00146	7c c9		 jl	 SHORT $LL5@SendCastle@3
  00148	5f		 pop	 edi
  00149	5b		 pop	 ebx
$LN3@SendCastle@3:

; 2331 : 			}
; 2332 : 		}
; 2333 : 	}
; 2334 : }

  0014a	8b 4d fc	 mov	 ecx, DWORD PTR __$ArrayPad$[ebp]
  0014d	33 cd		 xor	 ecx, ebp
  0014f	5e		 pop	 esi
  00150	e8 00 00 00 00	 call	 @__security_check_cookie@4
  00155	8b e5		 mov	 esp, ebp
  00157	5d		 pop	 ebp
  00158	c2 08 00	 ret	 8
?SendCastleDoorBlockInfo@CBloodCastle@@QAEXH_N@Z ENDP	; CBloodCastle::SendCastleDoorBlockInfo
_TEXT	ENDS
PUBLIC	__$ArrayPad$
PUBLIC	?SendNoticeMessage@CBloodCastle@@QAEXHPAD@Z	; CBloodCastle::SendNoticeMessage
EXTRN	?MakeNoticeMsg@TNotice@@SAXPAXEPAD@Z:PROC	; TNotice::MakeNoticeMsg
; Function compile flags: /Ogtp
;	COMDAT ?SendNoticeMessage@CBloodCastle@@QAEXHPAD@Z
_TEXT	SEGMENT
_pNotice$ = -276					; size = 272
__$ArrayPad$ = -4					; size = 4
_iBridgeIndex$ = 8					; size = 4
_lpszMSG$ = 12						; size = 4
?SendNoticeMessage@CBloodCastle@@QAEXHPAD@Z PROC	; CBloodCastle::SendNoticeMessage, COMDAT
; _this$ = ecx

; 2341 : {

  00000	55		 push	 ebp
  00001	8b ec		 mov	 ebp, esp
  00003	81 ec 14 01 00
	00		 sub	 esp, 276		; 00000114H
  00009	a1 00 00 00 00	 mov	 eax, DWORD PTR ___security_cookie
  0000e	33 c5		 xor	 eax, ebp
  00010	89 45 fc	 mov	 DWORD PTR __$ArrayPad$[ebp], eax
  00013	8b 45 0c	 mov	 eax, DWORD PTR _lpszMSG$[ebp]
  00016	56		 push	 esi
  00017	8b 75 08	 mov	 esi, DWORD PTR _iBridgeIndex$[ebp]
  0001a	57		 push	 edi
  0001b	8b f9		 mov	 edi, ecx

; 2342 : 	if ( BC_BRIDGE_RANGE(iBridgeIndex) == FALSE )

  0001d	85 f6		 test	 esi, esi
  0001f	78 75		 js	 SHORT $LN5@SendNotice
  00021	33 c9		 xor	 ecx, ecx
  00023	83 fe 06	 cmp	 esi, 6
  00026	0f 9e c1	 setle	 cl
  00029	85 c9		 test	 ecx, ecx
  0002b	74 69		 je	 SHORT $LN5@SendNotice

; 2343 : 	{
; 2344 : 		return;
; 2345 : 	}
; 2346 : 
; 2347 : 	PMSG_NOTICE pNotice;
; 2348 : 
; 2349 : 	TNotice::MakeNoticeMsg( &pNotice, 0, lpszMSG);

  0002d	53		 push	 ebx
  0002e	50		 push	 eax
  0002f	8d 85 ec fe ff
	ff		 lea	 eax, DWORD PTR _pNotice$[ebp]
  00035	6a 00		 push	 0
  00037	50		 push	 eax
  00038	e8 00 00 00 00	 call	 ?MakeNoticeMsg@TNotice@@SAXPAXEPAD@Z ; TNotice::MakeNoticeMsg
  0003d	c1 e6 09	 shl	 esi, 9
  00040	83 c4 0c	 add	 esp, 12			; 0000000cH
  00043	8d 74 3e 1c	 lea	 esi, DWORD PTR [esi+edi+28]
  00047	bf 0a 00 00 00	 mov	 edi, 10			; 0000000aH
  0004c	83 cb ff	 or	 ebx, -1
  0004f	90		 npad	 1
$LL7@SendNotice:

; 2352 : 	{
; 2353 : 		if ( this->m_BridgeData[iBridgeIndex].m_UserData[i].m_iIndex != -1 )

  00050	8b 0e		 mov	 ecx, DWORD PTR [esi]
  00052	3b cb		 cmp	 ecx, ebx
  00054	74 39		 je	 SHORT $LN6@SendNotice

; 2354 : 		{
; 2355 : 			if ( gObj[this->m_BridgeData[iBridgeIndex].m_UserData[i].m_iIndex].Connected > PLAYER_LOGGED )

  00056	8b c1		 mov	 eax, ecx
  00058	69 c0 64 15 00
	00		 imul	 eax, 5476		; 00001564H
  0005e	80 b8 04 00 00
	00 02		 cmp	 BYTE PTR ?gObj@@3PAUOBJECTSTRUCT@@A[eax+4], 2
  00065	76 28		 jbe	 SHORT $LN6@SendNotice

; 2356 : 			{
; 2357 : 				if ( gObj[this->m_BridgeData[iBridgeIndex].m_UserData[i].m_iIndex].m_cBloodCastleIndex != -1 )

  00067	38 98 02 0d 00
	00		 cmp	 BYTE PTR ?gObj@@3PAUOBJECTSTRUCT@@A[eax+3330], bl
  0006d	74 20		 je	 SHORT $LN6@SendNotice

; 2358 : 				{
; 2359 : 					if ( gObj[this->m_BridgeData[iBridgeIndex].m_UserData[i].m_iIndex].m_cBloodCastleSubIndex != -1 )

  0006f	38 98 03 0d 00
	00		 cmp	 BYTE PTR ?gObj@@3PAUOBJECTSTRUCT@@A[eax+3331], bl
  00075	74 18		 je	 SHORT $LN6@SendNotice

; 2360 : 					{
; 2361 : 						DataSend(this->m_BridgeData[iBridgeIndex].m_UserData[i].m_iIndex, (UCHAR*)&pNotice, pNotice.h.size);

  00077	0f b6 95 ed fe
	ff ff		 movzx	 edx, BYTE PTR _pNotice$[ebp+1]
  0007e	52		 push	 edx
  0007f	8d 85 ec fe ff
	ff		 lea	 eax, DWORD PTR _pNotice$[ebp]
  00085	50		 push	 eax
  00086	51		 push	 ecx
  00087	e8 00 00 00 00	 call	 ?DataSend@@YAHHPAEK@Z	; DataSend
  0008c	83 c4 0c	 add	 esp, 12			; 0000000cH
$LN6@SendNotice:

; 2350 : 
; 2351 : 	for ( int i=0;i<MAX_BLOOD_CASTLE_SUB_BRIDGE;i++)

  0008f	83 c6 14	 add	 esi, 20			; 00000014H
  00092	4f		 dec	 edi
  00093	75 bb		 jne	 SHORT $LL7@SendNotice
  00095	5b		 pop	 ebx
$LN5@SendNotice:

; 2362 : 					}
; 2363 : 				}
; 2364 : 			}
; 2365 : 		}
; 2366 : 	}
; 2367 : }

  00096	8b 4d fc	 mov	 ecx, DWORD PTR __$ArrayPad$[ebp]
  00099	5f		 pop	 edi
  0009a	33 cd		 xor	 ecx, ebp
  0009c	5e		 pop	 esi
  0009d	e8 00 00 00 00	 call	 @__security_check_cookie@4
  000a2	8b e5		 mov	 esp, ebp
  000a4	5d		 pop	 ebp
  000a5	c2 08 00	 ret	 8
?SendNoticeMessage@CBloodCastle@@QAEXHPAD@Z ENDP	; CBloodCastle::SendNoticeMessage
_TEXT	ENDS
PUBLIC	__$ArrayPad$
PUBLIC	?SendNoticeScore@CBloodCastle@@QAEXH@Z		; CBloodCastle::SendNoticeScore
EXTRN	?MakeNoticeMsgEx@TNotice@@SAXPAXEPADZZ:PROC	; TNotice::MakeNoticeMsgEx
; Function compile flags: /Ogtp
;	COMDAT ?SendNoticeScore@CBloodCastle@@QAEXH@Z
_TEXT	SEGMENT
_pNotice$ = -276					; size = 272
__$ArrayPad$ = -4					; size = 4
_iBridgeIndex$ = 8					; size = 4
?SendNoticeScore@CBloodCastle@@QAEXH@Z PROC		; CBloodCastle::SendNoticeScore, COMDAT
; _this$ = ecx

; 2374 : {

  00000	55		 push	 ebp
  00001	8b ec		 mov	 ebp, esp
  00003	81 ec 14 01 00
	00		 sub	 esp, 276		; 00000114H
  00009	a1 00 00 00 00	 mov	 eax, DWORD PTR ___security_cookie
  0000e	33 c5		 xor	 eax, ebp
  00010	89 45 fc	 mov	 DWORD PTR __$ArrayPad$[ebp], eax
  00013	57		 push	 edi
  00014	8b 7d 08	 mov	 edi, DWORD PTR _iBridgeIndex$[ebp]

; 2375 : 	if ( BC_BRIDGE_RANGE(iBridgeIndex) == FALSE )

  00017	85 ff		 test	 edi, edi
  00019	0f 88 97 00 00
	00		 js	 $LN5@SendNotice@2
  0001f	33 c0		 xor	 eax, eax
  00021	83 ff 06	 cmp	 edi, 6
  00024	0f 9e c0	 setle	 al
  00027	85 c0		 test	 eax, eax
  00029	0f 84 87 00 00
	00		 je	 $LN5@SendNotice@2

; 2376 : 	{
; 2377 : 		return;
; 2378 : 	}
; 2379 : 
; 2380 : 	PMSG_NOTICE pNotice;
; 2381 : 	pNotice.type = 0;

  0002f	53		 push	 ebx
  00030	8b c7		 mov	 eax, edi
  00032	c1 e0 09	 shl	 eax, 9
  00035	56		 push	 esi
  00036	c6 85 ef fe ff
	ff 00		 mov	 BYTE PTR _pNotice$[ebp+3], 0
  0003d	8d 74 08 1c	 lea	 esi, DWORD PTR [eax+ecx+28]
  00041	bb 0a 00 00 00	 mov	 ebx, 10			; 0000000aH
$LL7@SendNotice@2:

; 2384 : 	{
; 2385 : 		if ( this->m_BridgeData[iBridgeIndex].m_UserData[i].m_iIndex != -1 )

  00046	8b 06		 mov	 eax, DWORD PTR [esi]
  00048	83 f8 ff	 cmp	 eax, -1
  0004b	74 61		 je	 SHORT $LN6@SendNotice@2

; 2386 : 		{
; 2387 : 			if ( gObj[this->m_BridgeData[iBridgeIndex].m_UserData[i].m_iIndex].Connected > PLAYER_LOGGED )

  0004d	69 c0 64 15 00
	00		 imul	 eax, 5476		; 00001564H
  00053	80 b8 04 00 00
	00 02		 cmp	 BYTE PTR ?gObj@@3PAUOBJECTSTRUCT@@A[eax+4], 2
  0005a	76 52		 jbe	 SHORT $LN6@SendNotice@2

; 2388 : 			{
; 2389 : 				if ( gObj[this->m_BridgeData[iBridgeIndex].m_UserData[i].m_iIndex].m_cBloodCastleIndex != -1 )

  0005c	80 b8 02 0d 00
	00 ff		 cmp	 BYTE PTR ?gObj@@3PAUOBJECTSTRUCT@@A[eax+3330], -1
  00063	74 49		 je	 SHORT $LN6@SendNotice@2

; 2390 : 				{
; 2391 : 					if ( gObj[this->m_BridgeData[iBridgeIndex].m_UserData[i].m_iIndex].m_cBloodCastleSubIndex != -1 )

  00065	80 b8 03 0d 00
	00 ff		 cmp	 BYTE PTR ?gObj@@3PAUOBJECTSTRUCT@@A[eax+3331], -1
  0006c	74 40		 je	 SHORT $LN6@SendNotice@2

; 2392 : 					{
; 2393 : 						TNotice::MakeNoticeMsgEx(&pNotice, 0, lMsg.Get(MSGGET(4, 140)), iBridgeIndex+1, this->m_BridgeData[iBridgeIndex].m_UserData[i].m_iEXP);

  0006e	8b 4e 04	 mov	 ecx, DWORD PTR [esi+4]
  00071	51		 push	 ecx
  00072	8d 57 01	 lea	 edx, DWORD PTR [edi+1]
  00075	52		 push	 edx
  00076	68 8c 04 00 00	 push	 1164			; 0000048cH
  0007b	b9 00 00 00 00	 mov	 ecx, OFFSET ?lMsg@@3VCMsg@@A ; lMsg
  00080	e8 00 00 00 00	 call	 ?Get@CMsg@@QAEPADH@Z	; CMsg::Get
  00085	50		 push	 eax
  00086	8d 85 ec fe ff
	ff		 lea	 eax, DWORD PTR _pNotice$[ebp]
  0008c	6a 00		 push	 0
  0008e	50		 push	 eax
  0008f	e8 00 00 00 00	 call	 ?MakeNoticeMsgEx@TNotice@@SAXPAXEPADZZ ; TNotice::MakeNoticeMsgEx

; 2394 : 						DataSend(this->m_BridgeData[iBridgeIndex].m_UserData[i].m_iIndex, (UCHAR*)&pNotice, pNotice.h.size);

  00094	0f b6 8d ed fe
	ff ff		 movzx	 ecx, BYTE PTR _pNotice$[ebp+1]
  0009b	8b 06		 mov	 eax, DWORD PTR [esi]
  0009d	51		 push	 ecx
  0009e	8d 95 ec fe ff
	ff		 lea	 edx, DWORD PTR _pNotice$[ebp]
  000a4	52		 push	 edx
  000a5	50		 push	 eax
  000a6	e8 00 00 00 00	 call	 ?DataSend@@YAHHPAEK@Z	; DataSend
  000ab	83 c4 20	 add	 esp, 32			; 00000020H
$LN6@SendNotice@2:

; 2382 : 
; 2383 : 	for ( int i=0;i<MAX_BLOOD_CASTLE_SUB_BRIDGE;i++)

  000ae	83 c6 14	 add	 esi, 20			; 00000014H
  000b1	4b		 dec	 ebx
  000b2	75 92		 jne	 SHORT $LL7@SendNotice@2
  000b4	5e		 pop	 esi
  000b5	5b		 pop	 ebx
$LN5@SendNotice@2:

; 2395 : 					}
; 2396 : 				}
; 2397 : 			}
; 2398 : 		}
; 2399 : 	}
; 2400 : }

  000b6	8b 4d fc	 mov	 ecx, DWORD PTR __$ArrayPad$[ebp]
  000b9	33 cd		 xor	 ecx, ebp
  000bb	5f		 pop	 edi
  000bc	e8 00 00 00 00	 call	 @__security_check_cookie@4
  000c1	8b e5		 mov	 esp, ebp
  000c3	5d		 pop	 ebp
  000c4	c2 04 00	 ret	 4
?SendNoticeScore@CBloodCastle@@QAEXH@Z ENDP		; CBloodCastle::SendNoticeScore
_TEXT	ENDS
PUBLIC	__$ArrayPad$
PUBLIC	?SendNoticeState@CBloodCastle@@QAEXHH@Z		; CBloodCastle::SendNoticeState
; Function compile flags: /Ogtp
;	COMDAT ?SendNoticeState@CBloodCastle@@QAEXHH@Z
_TEXT	SEGMENT
_pMsg$ = -20						; size = 14
__$ArrayPad$ = -4					; size = 4
_iBridgeIndex$ = 8					; size = 4
_iPlayState$ = 12					; size = 4
?SendNoticeState@CBloodCastle@@QAEXHH@Z PROC		; CBloodCastle::SendNoticeState, COMDAT
; _this$ = ecx

; 2407 : {

  00000	55		 push	 ebp
  00001	8b ec		 mov	 ebp, esp
  00003	83 ec 14	 sub	 esp, 20			; 00000014H
  00006	a1 00 00 00 00	 mov	 eax, DWORD PTR ___security_cookie
  0000b	33 c5		 xor	 eax, ebp
  0000d	89 45 fc	 mov	 DWORD PTR __$ArrayPad$[ebp], eax
  00010	56		 push	 esi
  00011	8b 75 08	 mov	 esi, DWORD PTR _iBridgeIndex$[ebp]
  00014	57		 push	 edi
  00015	8b f9		 mov	 edi, ecx

; 2408 : 	if ( BC_BRIDGE_RANGE(iBridgeIndex) == FALSE )

  00017	85 f6		 test	 esi, esi
  00019	0f 88 d5 00 00
	00		 js	 $LN5@SendNotice@3
  0001f	33 c0		 xor	 eax, eax
  00021	83 fe 06	 cmp	 esi, 6
  00024	0f 9e c0	 setle	 al
  00027	85 c0		 test	 eax, eax
  00029	0f 84 c5 00 00
	00		 je	 $LN5@SendNotice@3

; 2409 : 	{
; 2410 : 		return;
; 2411 : 	}
; 2412 : 
; 2413 : 	PMSG_STATEBLOODCASTLE pMsg;
; 2414 : 
; 2415 : 	PHeadSetB((LPBYTE)&pMsg, 0x9B, sizeof(PMSG_STATEBLOODCASTLE));

  0002f	53		 push	 ebx
  00030	6a 0e		 push	 14			; 0000000eH
  00032	8d 45 ec	 lea	 eax, DWORD PTR _pMsg$[ebp]
  00035	68 9b 00 00 00	 push	 155			; 0000009bH
  0003a	50		 push	 eax
  0003b	e8 00 00 00 00	 call	 ?PHeadSetB@@YAXPAEEH@Z	; PHeadSetB

; 2416 : 	pMsg.btPlayState = iPlayState;

  00040	8b 5d 0c	 mov	 ebx, DWORD PTR _iPlayState$[ebp]

; 2417 : 	pMsg.wRemainSec = this->m_BridgeData[iBridgeIndex].m_iBC_REMAIN_MSEC / 1000;

  00043	c1 e6 09	 shl	 esi, 9
  00046	8d 0c 3e	 lea	 ecx, DWORD PTR [esi+edi]
  00049	b8 d3 4d 62 10	 mov	 eax, 274877907		; 10624dd3H
  0004e	f7 a9 54 01 00
	00		 imul	 DWORD PTR [ecx+340]
  00054	c1 fa 06	 sar	 edx, 6
  00057	8b c2		 mov	 eax, edx
  00059	c1 e8 1f	 shr	 eax, 31			; 0000001fH
  0005c	03 c2		 add	 eax, edx
  0005e	83 c4 0c	 add	 esp, 12			; 0000000cH
  00061	88 5d ef	 mov	 BYTE PTR _pMsg$[ebp+3], bl
  00064	66 89 45 f0	 mov	 WORD PTR _pMsg$[ebp+4], ax

; 2418 : 
; 2419 : 	if ( iPlayState == 4 )

  00068	83 fb 04	 cmp	 ebx, 4
  0006b	75 10		 jne	 SHORT $LN9@SendNotice@3

; 2420 : 	{
; 2421 : 		pMsg.wMaxKillMonster = this->m_BridgeData[iBridgeIndex].m_iBC_BOSS_MONSTER_MAX_COUNT;

  0006d	66 8b 91 84 01
	00 00		 mov	 dx, WORD PTR [ecx+388]

; 2422 : 		pMsg.wCurKillMonster = this->m_BridgeData[iBridgeIndex].m_iBC_BOSS_MONSTER_KILL_COUNT;

  00074	66 8b 81 88 01
	00 00		 mov	 ax, WORD PTR [ecx+392]

; 2423 : 	}
; 2424 : 	else

  0007b	eb 0e		 jmp	 SHORT $LN17@SendNotice@3
$LN9@SendNotice@3:

; 2425 : 	{
; 2426 : 		pMsg.wMaxKillMonster = this->m_BridgeData[iBridgeIndex].m_iBC_MONSTER_MAX_COUNT;

  0007d	66 8b 91 74 01
	00 00		 mov	 dx, WORD PTR [ecx+372]

; 2427 : 		pMsg.wCurKillMonster = this->m_BridgeData[iBridgeIndex].m_iBC_MONSTER_KILL_COUNT;

  00084	66 8b 81 78 01
	00 00		 mov	 ax, WORD PTR [ecx+376]
$LN17@SendNotice@3:
  0008b	66 89 45 f4	 mov	 WORD PTR _pMsg$[ebp+8], ax

; 2428 : 	}
; 2429 : 
; 2430 : 	pMsg.wUserHaveWeapon = this->m_BridgeData[iBridgeIndex].m_iBC_QUEST_ITEM_USER_INDEX;
; 2431 : 	pMsg.btWeaponNum = this->m_BridgeData[iBridgeIndex].m_btBC_QUEST_ITEM_NUMBER + 1;

  0008f	8a 81 98 01 00
	00		 mov	 al, BYTE PTR [ecx+408]
  00095	66 89 55 f2	 mov	 WORD PTR _pMsg$[ebp+6], dx
  00099	66 8b 91 94 01
	00 00		 mov	 dx, WORD PTR [ecx+404]
  000a0	fe c0		 inc	 al
  000a2	66 89 55 f6	 mov	 WORD PTR _pMsg$[ebp+10], dx
  000a6	88 45 f8	 mov	 BYTE PTR _pMsg$[ebp+12], al
  000a9	8d 71 1c	 lea	 esi, DWORD PTR [ecx+28]
  000ac	bf 0a 00 00 00	 mov	 edi, 10			; 0000000aH
  000b1	83 cb ff	 or	 ebx, -1
$LL7@SendNotice@3:

; 2434 : 	{
; 2435 : 		if ( this->m_BridgeData[iBridgeIndex].m_UserData[i].m_iIndex != -1 )

  000b4	8b 0e		 mov	 ecx, DWORD PTR [esi]
  000b6	3b cb		 cmp	 ecx, ebx
  000b8	74 33		 je	 SHORT $LN6@SendNotice@3

; 2436 : 		{
; 2437 : 			if ( gObj[this->m_BridgeData[iBridgeIndex].m_UserData[i].m_iIndex].Connected > PLAYER_LOGGED )

  000ba	8b c1		 mov	 eax, ecx
  000bc	69 c0 64 15 00
	00		 imul	 eax, 5476		; 00001564H
  000c2	80 b8 04 00 00
	00 02		 cmp	 BYTE PTR ?gObj@@3PAUOBJECTSTRUCT@@A[eax+4], 2
  000c9	76 22		 jbe	 SHORT $LN6@SendNotice@3

; 2438 : 			{
; 2439 : 				if ( gObj[this->m_BridgeData[iBridgeIndex].m_UserData[i].m_iIndex].m_cBloodCastleIndex != -1 )

  000cb	38 98 02 0d 00
	00		 cmp	 BYTE PTR ?gObj@@3PAUOBJECTSTRUCT@@A[eax+3330], bl
  000d1	74 1a		 je	 SHORT $LN6@SendNotice@3

; 2440 : 				{
; 2441 : 					if ( gObj[this->m_BridgeData[iBridgeIndex].m_UserData[i].m_iIndex].m_cBloodCastleSubIndex != -1 )

  000d3	38 98 03 0d 00
	00		 cmp	 BYTE PTR ?gObj@@3PAUOBJECTSTRUCT@@A[eax+3331], bl
  000d9	74 12		 je	 SHORT $LN6@SendNotice@3

; 2442 : 					{
; 2443 : 						DataSend(this->m_BridgeData[iBridgeIndex].m_UserData[i].m_iIndex, (UCHAR *)&pMsg, pMsg.h.size);

  000db	0f b6 55 ed	 movzx	 edx, BYTE PTR _pMsg$[ebp+1]
  000df	52		 push	 edx
  000e0	8d 45 ec	 lea	 eax, DWORD PTR _pMsg$[ebp]
  000e3	50		 push	 eax
  000e4	51		 push	 ecx
  000e5	e8 00 00 00 00	 call	 ?DataSend@@YAHHPAEK@Z	; DataSend
  000ea	83 c4 0c	 add	 esp, 12			; 0000000cH
$LN6@SendNotice@3:

; 2432 : 
; 2433 : 	for ( int i=0;i<MAX_BLOOD_CASTLE_SUB_BRIDGE;i++)

  000ed	83 c6 14	 add	 esi, 20			; 00000014H
  000f0	4f		 dec	 edi
  000f1	75 c1		 jne	 SHORT $LL7@SendNotice@3
  000f3	5b		 pop	 ebx
$LN5@SendNotice@3:

; 2444 : 					}
; 2445 : 				}
; 2446 : 			}
; 2447 : 		}
; 2448 : 	}
; 2449 : }

  000f4	8b 4d fc	 mov	 ecx, DWORD PTR __$ArrayPad$[ebp]
  000f7	5f		 pop	 edi
  000f8	33 cd		 xor	 ecx, ebp
  000fa	5e		 pop	 esi
  000fb	e8 00 00 00 00	 call	 @__security_check_cookie@4
  00100	8b e5		 mov	 esp, ebp
  00102	5d		 pop	 ebp
  00103	c2 08 00	 ret	 8
?SendNoticeState@CBloodCastle@@QAEXHH@Z ENDP		; CBloodCastle::SendNoticeState
_TEXT	ENDS
PUBLIC	?CheckUserBridgeMember@CBloodCastle@@QAE_NHH@Z	; CBloodCastle::CheckUserBridgeMember
; Function compile flags: /Ogtp
;	COMDAT ?CheckUserBridgeMember@CBloodCastle@@QAE_NHH@Z
_TEXT	SEGMENT
_iBridgeIndex$ = 8					; size = 4
_iIndex$ = 12						; size = 4
?CheckUserBridgeMember@CBloodCastle@@QAE_NHH@Z PROC	; CBloodCastle::CheckUserBridgeMember, COMDAT
; _this$ = ecx

; 2459 : {

  00000	55		 push	 ebp
  00001	8b ec		 mov	 ebp, esp

; 2460 : 	if ( BC_BRIDGE_RANGE(iBridgeIndex) == FALSE )

  00003	8b 55 08	 mov	 edx, DWORD PTR _iBridgeIndex$[ebp]
  00006	85 d2		 test	 edx, edx
  00008	78 0c		 js	 SHORT $LN16@CheckUserB
  0000a	33 c0		 xor	 eax, eax
  0000c	83 fa 06	 cmp	 edx, 6
  0000f	0f 9e c0	 setle	 al
  00012	85 c0		 test	 eax, eax
  00014	75 06		 jne	 SHORT $LN6@CheckUserB
$LN16@CheckUserB:

; 2461 : 	{
; 2462 : 		return false;

  00016	32 c0		 xor	 al, al

; 2479 : }

  00018	5d		 pop	 ebp
  00019	c2 08 00	 ret	 8
$LN6@CheckUserB:
  0001c	56		 push	 esi

; 2463 : 	}
; 2464 : 
; 2465 : 	if ( OBJMAX_RANGE(iIndex) == FALSE )

  0001d	8b 75 0c	 mov	 esi, DWORD PTR _iIndex$[ebp]
  00020	85 f6		 test	 esi, esi
  00022	78 29		 js	 SHORT $LN2@CheckUserB
  00024	33 c0		 xor	 eax, eax
  00026	81 fe e7 1c 00
	00		 cmp	 esi, 7399		; 00001ce7H
  0002c	0f 9e c0	 setle	 al
  0002f	85 c0		 test	 eax, eax

; 2466 : 	{
; 2467 : 		return false;

  00031	74 1a		 je	 SHORT $LN2@CheckUserB

; 2468 : 	}
; 2469 : 
; 2470 : 	for ( int i=0;i<MAX_BLOOD_CASTLE_SUB_BRIDGE;i++)

  00033	33 c0		 xor	 eax, eax
  00035	c1 e2 09	 shl	 edx, 9
  00038	8d 4c 0a 1c	 lea	 ecx, DWORD PTR [edx+ecx+28]
  0003c	8d 64 24 00	 npad	 4
$LL4@CheckUserB:

; 2471 : 	{
; 2472 : 		if ( this->m_BridgeData[iBridgeIndex].m_UserData[i].m_iIndex == iIndex )

  00040	39 31		 cmp	 DWORD PTR [ecx], esi
  00042	74 10		 je	 SHORT $LN14@CheckUserB

; 2468 : 	}
; 2469 : 
; 2470 : 	for ( int i=0;i<MAX_BLOOD_CASTLE_SUB_BRIDGE;i++)

  00044	40		 inc	 eax
  00045	83 c1 14	 add	 ecx, 20			; 00000014H
  00048	83 f8 0a	 cmp	 eax, 10			; 0000000aH
  0004b	7c f3		 jl	 SHORT $LL4@CheckUserB
$LN2@CheckUserB:

; 2475 : 		}
; 2476 : 	}
; 2477 : 
; 2478 : 	return false;

  0004d	32 c0		 xor	 al, al
  0004f	5e		 pop	 esi

; 2479 : }

  00050	5d		 pop	 ebp
  00051	c2 08 00	 ret	 8
$LN14@CheckUserB:

; 2473 : 		{
; 2474 : 			return true;

  00054	b0 01		 mov	 al, 1
  00056	5e		 pop	 esi

; 2479 : }

  00057	5d		 pop	 ebp
  00058	c2 08 00	 ret	 8
?CheckUserBridgeMember@CBloodCastle@@QAE_NHH@Z ENDP	; CBloodCastle::CheckUserBridgeMember
_TEXT	ENDS
PUBLIC	?GetAliveUserTotalEXP@CBloodCastle@@IAEHH@Z	; CBloodCastle::GetAliveUserTotalEXP
; Function compile flags: /Ogtp
;	COMDAT ?GetAliveUserTotalEXP@CBloodCastle@@IAEHH@Z
_TEXT	SEGMENT
_iBridgeIndex$ = 8					; size = 4
?GetAliveUserTotalEXP@CBloodCastle@@IAEHH@Z PROC	; CBloodCastle::GetAliveUserTotalEXP, COMDAT
; _this$ = ecx

; 2486 : {

  00000	55		 push	 ebp
  00001	8b ec		 mov	 ebp, esp

; 2487 : 	if ( BC_BRIDGE_RANGE(iBridgeIndex) == FALSE )

  00003	8b 55 08	 mov	 edx, DWORD PTR _iBridgeIndex$[ebp]
  00006	85 d2		 test	 edx, edx
  00008	78 0c		 js	 SHORT $LN29@GetAliveUs
  0000a	33 c0		 xor	 eax, eax
  0000c	83 fa 06	 cmp	 edx, 6
  0000f	0f 9e c0	 setle	 al
  00012	85 c0		 test	 eax, eax
  00014	75 06		 jne	 SHORT $LN7@GetAliveUs
$LN29@GetAliveUs:

; 2488 : 	{
; 2489 : 		return 0;

  00016	33 c0		 xor	 eax, eax

; 2509 : }

  00018	5d		 pop	 ebp
  00019	c2 04 00	 ret	 4
$LN7@GetAliveUs:
  0001c	53		 push	 ebx
  0001d	56		 push	 esi

; 2490 : 	}
; 2491 : 
; 2492 : 	int iRET_EXP = 0;

  0001e	33 f6		 xor	 esi, esi
  00020	c1 e2 09	 shl	 edx, 9
  00023	b8 02 00 00 00	 mov	 eax, 2
  00028	57		 push	 edi
  00029	8d 54 0a 1c	 lea	 edx, DWORD PTR [edx+ecx+28]
  0002d	8b f8		 mov	 edi, eax
  0002f	90		 npad	 1
$LL35@GetAliveUs:

; 2495 : 	{
; 2496 : 		if ( this->m_BridgeData[iBridgeIndex].m_UserData[i].m_iIndex != -1 )

  00030	8b 0a		 mov	 ecx, DWORD PTR [edx]
  00032	83 f9 ff	 cmp	 ecx, -1
  00035	74 26		 je	 SHORT $LN5@GetAliveUs

; 2497 : 		{
; 2498 : 			if ( gObj[this->m_BridgeData[iBridgeIndex].m_UserData[i].m_iIndex].Connected > PLAYER_LOGGED )

  00037	69 c9 64 15 00
	00		 imul	 ecx, 5476		; 00001564H
  0003d	38 81 04 00 00
	00		 cmp	 BYTE PTR ?gObj@@3PAUOBJECTSTRUCT@@A[ecx+4], al
  00043	76 18		 jbe	 SHORT $LN5@GetAliveUs

; 2499 : 			{
; 2500 : 				if ( BC_MAP_RANGE(gObj[this->m_BridgeData[iBridgeIndex].m_UserData[i].m_iIndex].MapNumber) != FALSE )

  00045	0f b6 89 09 01
	00 00		 movzx	 ecx, BYTE PTR ?gObj@@3PAUOBJECTSTRUCT@@A[ecx+265]
  0004c	80 f9 0b	 cmp	 cl, 11			; 0000000bH
  0004f	72 0c		 jb	 SHORT $LN5@GetAliveUs
  00051	b3 11		 mov	 bl, 17			; 00000011H
  00053	3a d9		 cmp	 bl, cl
  00055	1b c9		 sbb	 ecx, ecx
  00057	41		 inc	 ecx
  00058	74 03		 je	 SHORT $LN5@GetAliveUs

; 2501 : 				{
; 2502 : 					iRET_EXP += this->m_BridgeData[iBridgeIndex].m_UserData[i].m_iEXP;

  0005a	03 72 04	 add	 esi, DWORD PTR [edx+4]
$LN5@GetAliveUs:

; 2495 : 	{
; 2496 : 		if ( this->m_BridgeData[iBridgeIndex].m_UserData[i].m_iIndex != -1 )

  0005d	8b 4a 14	 mov	 ecx, DWORD PTR [edx+20]
  00060	83 f9 ff	 cmp	 ecx, -1
  00063	74 26		 je	 SHORT $LN31@GetAliveUs

; 2497 : 		{
; 2498 : 			if ( gObj[this->m_BridgeData[iBridgeIndex].m_UserData[i].m_iIndex].Connected > PLAYER_LOGGED )

  00065	69 c9 64 15 00
	00		 imul	 ecx, 5476		; 00001564H
  0006b	38 81 04 00 00
	00		 cmp	 BYTE PTR ?gObj@@3PAUOBJECTSTRUCT@@A[ecx+4], al
  00071	76 18		 jbe	 SHORT $LN31@GetAliveUs

; 2499 : 			{
; 2500 : 				if ( BC_MAP_RANGE(gObj[this->m_BridgeData[iBridgeIndex].m_UserData[i].m_iIndex].MapNumber) != FALSE )

  00073	0f b6 89 09 01
	00 00		 movzx	 ecx, BYTE PTR ?gObj@@3PAUOBJECTSTRUCT@@A[ecx+265]
  0007a	80 f9 0b	 cmp	 cl, 11			; 0000000bH
  0007d	72 0c		 jb	 SHORT $LN31@GetAliveUs
  0007f	b3 11		 mov	 bl, 17			; 00000011H
  00081	3a d9		 cmp	 bl, cl
  00083	1b c9		 sbb	 ecx, ecx
  00085	41		 inc	 ecx
  00086	74 03		 je	 SHORT $LN31@GetAliveUs

; 2501 : 				{
; 2502 : 					iRET_EXP += this->m_BridgeData[iBridgeIndex].m_UserData[i].m_iEXP;

  00088	03 72 18	 add	 esi, DWORD PTR [edx+24]
$LN31@GetAliveUs:

; 2495 : 	{
; 2496 : 		if ( this->m_BridgeData[iBridgeIndex].m_UserData[i].m_iIndex != -1 )

  0008b	8b 4a 28	 mov	 ecx, DWORD PTR [edx+40]
  0008e	83 f9 ff	 cmp	 ecx, -1
  00091	74 26		 je	 SHORT $LN32@GetAliveUs

; 2497 : 		{
; 2498 : 			if ( gObj[this->m_BridgeData[iBridgeIndex].m_UserData[i].m_iIndex].Connected > PLAYER_LOGGED )

  00093	69 c9 64 15 00
	00		 imul	 ecx, 5476		; 00001564H
  00099	38 81 04 00 00
	00		 cmp	 BYTE PTR ?gObj@@3PAUOBJECTSTRUCT@@A[ecx+4], al
  0009f	76 18		 jbe	 SHORT $LN32@GetAliveUs

; 2499 : 			{
; 2500 : 				if ( BC_MAP_RANGE(gObj[this->m_BridgeData[iBridgeIndex].m_UserData[i].m_iIndex].MapNumber) != FALSE )

  000a1	0f b6 89 09 01
	00 00		 movzx	 ecx, BYTE PTR ?gObj@@3PAUOBJECTSTRUCT@@A[ecx+265]
  000a8	80 f9 0b	 cmp	 cl, 11			; 0000000bH
  000ab	72 0c		 jb	 SHORT $LN32@GetAliveUs
  000ad	b3 11		 mov	 bl, 17			; 00000011H
  000af	3a d9		 cmp	 bl, cl
  000b1	1b c9		 sbb	 ecx, ecx
  000b3	41		 inc	 ecx
  000b4	74 03		 je	 SHORT $LN32@GetAliveUs

; 2501 : 				{
; 2502 : 					iRET_EXP += this->m_BridgeData[iBridgeIndex].m_UserData[i].m_iEXP;

  000b6	03 72 2c	 add	 esi, DWORD PTR [edx+44]
$LN32@GetAliveUs:

; 2495 : 	{
; 2496 : 		if ( this->m_BridgeData[iBridgeIndex].m_UserData[i].m_iIndex != -1 )

  000b9	8b 4a 3c	 mov	 ecx, DWORD PTR [edx+60]
  000bc	83 f9 ff	 cmp	 ecx, -1
  000bf	74 26		 je	 SHORT $LN33@GetAliveUs

; 2497 : 		{
; 2498 : 			if ( gObj[this->m_BridgeData[iBridgeIndex].m_UserData[i].m_iIndex].Connected > PLAYER_LOGGED )

  000c1	69 c9 64 15 00
	00		 imul	 ecx, 5476		; 00001564H
  000c7	38 81 04 00 00
	00		 cmp	 BYTE PTR ?gObj@@3PAUOBJECTSTRUCT@@A[ecx+4], al
  000cd	76 18		 jbe	 SHORT $LN33@GetAliveUs

; 2499 : 			{
; 2500 : 				if ( BC_MAP_RANGE(gObj[this->m_BridgeData[iBridgeIndex].m_UserData[i].m_iIndex].MapNumber) != FALSE )

  000cf	0f b6 89 09 01
	00 00		 movzx	 ecx, BYTE PTR ?gObj@@3PAUOBJECTSTRUCT@@A[ecx+265]
  000d6	80 f9 0b	 cmp	 cl, 11			; 0000000bH
  000d9	72 0c		 jb	 SHORT $LN33@GetAliveUs
  000db	b3 11		 mov	 bl, 17			; 00000011H
  000dd	3a d9		 cmp	 bl, cl
  000df	1b c9		 sbb	 ecx, ecx
  000e1	41		 inc	 ecx
  000e2	74 03		 je	 SHORT $LN33@GetAliveUs

; 2501 : 				{
; 2502 : 					iRET_EXP += this->m_BridgeData[iBridgeIndex].m_UserData[i].m_iEXP;

  000e4	03 72 40	 add	 esi, DWORD PTR [edx+64]
$LN33@GetAliveUs:

; 2495 : 	{
; 2496 : 		if ( this->m_BridgeData[iBridgeIndex].m_UserData[i].m_iIndex != -1 )

  000e7	8b 4a 50	 mov	 ecx, DWORD PTR [edx+80]
  000ea	83 f9 ff	 cmp	 ecx, -1
  000ed	74 26		 je	 SHORT $LN34@GetAliveUs

; 2497 : 		{
; 2498 : 			if ( gObj[this->m_BridgeData[iBridgeIndex].m_UserData[i].m_iIndex].Connected > PLAYER_LOGGED )

  000ef	69 c9 64 15 00
	00		 imul	 ecx, 5476		; 00001564H
  000f5	38 81 04 00 00
	00		 cmp	 BYTE PTR ?gObj@@3PAUOBJECTSTRUCT@@A[ecx+4], al
  000fb	76 18		 jbe	 SHORT $LN34@GetAliveUs

; 2499 : 			{
; 2500 : 				if ( BC_MAP_RANGE(gObj[this->m_BridgeData[iBridgeIndex].m_UserData[i].m_iIndex].MapNumber) != FALSE )

  000fd	0f b6 89 09 01
	00 00		 movzx	 ecx, BYTE PTR ?gObj@@3PAUOBJECTSTRUCT@@A[ecx+265]
  00104	80 f9 0b	 cmp	 cl, 11			; 0000000bH
  00107	72 0c		 jb	 SHORT $LN34@GetAliveUs
  00109	b3 11		 mov	 bl, 17			; 00000011H
  0010b	3a d9		 cmp	 bl, cl
  0010d	1b c9		 sbb	 ecx, ecx
  0010f	41		 inc	 ecx
  00110	74 03		 je	 SHORT $LN34@GetAliveUs

; 2501 : 				{
; 2502 : 					iRET_EXP += this->m_BridgeData[iBridgeIndex].m_UserData[i].m_iEXP;

  00112	03 72 54	 add	 esi, DWORD PTR [edx+84]
$LN34@GetAliveUs:

; 2490 : 	}
; 2491 : 
; 2492 : 	int iRET_EXP = 0;

  00115	83 c2 64	 add	 edx, 100		; 00000064H

; 2493 : 
; 2494 : 	for ( int i=0;i<MAX_BLOOD_CASTLE_SUB_BRIDGE;i++)

  00118	4f		 dec	 edi
  00119	0f 85 11 ff ff
	ff		 jne	 $LL35@GetAliveUs

; 2503 : 				}
; 2504 : 			}
; 2505 : 		}
; 2506 : 	}
; 2507 : 
; 2508 : 	return iRET_EXP;

  0011f	5f		 pop	 edi
  00120	8b c6		 mov	 eax, esi
  00122	5e		 pop	 esi
  00123	5b		 pop	 ebx

; 2509 : }

  00124	5d		 pop	 ebp
  00125	c2 04 00	 ret	 4
?GetAliveUserTotalEXP@CBloodCastle@@IAEHH@Z ENDP	; CBloodCastle::GetAliveUserTotalEXP
_TEXT	ENDS
PUBLIC	??_C@_0FK@LLMALHHB@?$FLBlood?5Castle?$FN?5Force?5?$CIAccount?3?$CFs@ ; `string'
PUBLIC	?SearchUserDeleteQuestItem@CBloodCastle@@QAEXH@Z ; CBloodCastle::SearchUserDeleteQuestItem
EXTRN	?GCInventoryItemDeleteSend@@YAXHEE@Z:PROC	; GCInventoryItemDeleteSend
EXTRN	?gObjInventoryDeleteItem@@YAEHH@Z:PROC		; gObjInventoryDeleteItem
EXTRN	?gObjInventoryItemSet@@YAXHHE@Z:PROC		; gObjInventoryItemSet
;	COMDAT ??_C@_0FK@LLMALHHB@?$FLBlood?5Castle?$FN?5Force?5?$CIAccount?3?$CFs@
CONST	SEGMENT
??_C@_0FK@LLMALHHB@?$FLBlood?5Castle?$FN?5Force?5?$CIAccount?3?$CFs@ DB '['
	DB	'Blood Castle] Force (Account:%s, Name:%s) to Delete Angel Kin'
	DB	'g''s Weapon (%d) [Serial:%d]', 00H		; `string'
; Function compile flags: /Ogtp
CONST	ENDS
;	COMDAT ?SearchUserDeleteQuestItem@CBloodCastle@@QAEXH@Z
_TEXT	SEGMENT
_iLEVEL$158174 = -4					; size = 4
_iIndex$ = 8						; size = 4
?SearchUserDeleteQuestItem@CBloodCastle@@QAEXH@Z PROC	; CBloodCastle::SearchUserDeleteQuestItem, COMDAT
; _this$ = ecx

; 2514 : {

  00000	55		 push	 ebp
  00001	8b ec		 mov	 ebp, esp
  00003	51		 push	 ecx
  00004	56		 push	 esi

; 2515 : 	if ( gObjIsConnected(iIndex) == FALSE )

  00005	8b 75 08	 mov	 esi, DWORD PTR _iIndex$[ebp]
  00008	56		 push	 esi
  00009	e8 00 00 00 00	 call	 ?gObjIsConnected@@YAHH@Z ; gObjIsConnected
  0000e	83 c4 04	 add	 esp, 4
  00011	85 c0		 test	 eax, eax
  00013	0f 84 ba 00 00
	00		 je	 $LN4@SearchUser

; 2516 : 	{
; 2517 : 		return;
; 2518 : 	}
; 2519 : 
; 2520 : 	for ( int x=0;x<INVENTORY_SIZE;x++)

  00019	53		 push	 ebx
  0001a	69 f6 64 15 00
	00		 imul	 esi, 5476		; 00001564H
  00020	57		 push	 edi
  00021	33 ff		 xor	 edi, edi
  00023	33 db		 xor	 ebx, ebx
  00025	eb 09 8d a4 24
	00 00 00 00 8b
	ff		 npad	 11
$LL6@SearchUser:

; 2521 : 	{
; 2522 : 		if ( gObj[iIndex].pInventory[x].IsItem() == TRUE )

  00030	8b 8e 8c 0c 00
	00		 mov	 ecx, DWORD PTR ?gObj@@3PAUOBJECTSTRUCT@@A[esi+3212]
  00036	03 cb		 add	 ecx, ebx
  00038	e8 00 00 00 00	 call	 ?IsItem@CItem@@QAEHXZ	; CItem::IsItem
  0003d	83 f8 01	 cmp	 eax, 1
  00040	75 7c		 jne	 SHORT $LN5@SearchUser

; 2523 : 		{
; 2524 : 			if ( gObj[iIndex].pInventory[x].m_Type == ITEMGET(13,19) )

  00042	8b 86 8c 0c 00
	00		 mov	 eax, DWORD PTR ?gObj@@3PAUOBJECTSTRUCT@@A[esi+3212]
  00048	b9 13 1a 00 00	 mov	 ecx, 6675		; 00001a13H
  0004d	66 39 4c 18 06	 cmp	 WORD PTR [eax+ebx+6], cx
  00052	75 6a		 jne	 SHORT $LN5@SearchUser

; 2525 : 			{
; 2526 : 				int iLEVEL = gObj[iIndex].pInventory[x].m_Level;

  00054	0f bf 44 18 08	 movsx	 eax, WORD PTR [eax+ebx+8]
  00059	89 45 fc	 mov	 DWORD PTR _iLEVEL$158174[ebp], eax

; 2527 : 
; 2528 : 				if ( BC_WEAPON_LEVEL_RANGE(iLEVEL) != FALSE )

  0005c	85 c0		 test	 eax, eax
  0005e	78 5e		 js	 SHORT $LN5@SearchUser
  00060	33 d2		 xor	 edx, edx
  00062	83 f8 02	 cmp	 eax, 2
  00065	0f 9e c2	 setle	 dl
  00068	8b c2		 mov	 eax, edx
  0006a	85 c0		 test	 eax, eax
  0006c	74 50		 je	 SHORT $LN5@SearchUser

; 2529 : 				{
; 2530 : 					::gObjInventoryItemSet(iIndex, x, -1);

  0006e	8b 45 08	 mov	 eax, DWORD PTR _iIndex$[ebp]
  00071	68 ff 00 00 00	 push	 255			; 000000ffH
  00076	57		 push	 edi
  00077	50		 push	 eax
  00078	e8 00 00 00 00	 call	 ?gObjInventoryItemSet@@YAXHHE@Z ; gObjInventoryItemSet

; 2531 : 					::gObjInventoryDeleteItem(iIndex, x);

  0007d	8b 4d 08	 mov	 ecx, DWORD PTR _iIndex$[ebp]
  00080	57		 push	 edi
  00081	51		 push	 ecx
  00082	e8 00 00 00 00	 call	 ?gObjInventoryDeleteItem@@YAEHH@Z ; gObjInventoryDeleteItem

; 2532 : 					::GCInventoryItemDeleteSend(iIndex, x, TRUE);

  00087	8b 55 08	 mov	 edx, DWORD PTR _iIndex$[ebp]
  0008a	6a 01		 push	 1
  0008c	57		 push	 edi
  0008d	52		 push	 edx
  0008e	e8 00 00 00 00	 call	 ?GCInventoryItemDeleteSend@@YAXHEE@Z ; GCInventoryItemDeleteSend

; 2533 : 
; 2534 : 					LogAdd(LOG_BLACK, "[Blood Castle] Force (Account:%s, Name:%s) to Delete Angel King's Weapon (%d) [Serial:%d]",
; 2535 : 						gObj[iIndex].AccountID, gObj[iIndex].Name, iLEVEL, gObj[iIndex].pInventory[x].m_Number);

  00093	8b 86 8c 0c 00
	00		 mov	 eax, DWORD PTR ?gObj@@3PAUOBJECTSTRUCT@@A[esi+3212]
  00099	8b 0c 18	 mov	 ecx, DWORD PTR [eax+ebx]
  0009c	8b 55 fc	 mov	 edx, DWORD PTR _iLEVEL$158174[ebp]
  0009f	51		 push	 ecx
  000a0	52		 push	 edx
  000a1	8d 86 6f 00 00
	00		 lea	 eax, DWORD PTR ?gObj@@3PAUOBJECTSTRUCT@@A[esi+111]
  000a7	50		 push	 eax
  000a8	8d 8e 64 00 00
	00		 lea	 ecx, DWORD PTR ?gObj@@3PAUOBJECTSTRUCT@@A[esi+100]
  000ae	51		 push	 ecx
  000af	68 00 00 00 00	 push	 OFFSET ??_C@_0FK@LLMALHHB@?$FLBlood?5Castle?$FN?5Force?5?$CIAccount?3?$CFs@
  000b4	6a 00		 push	 0
  000b6	e8 00 00 00 00	 call	 ?LogAdd@@YAXW4eLogColor@@PADZZ ; LogAdd
  000bb	83 c4 38	 add	 esp, 56			; 00000038H
$LN5@SearchUser:

; 2516 : 	{
; 2517 : 		return;
; 2518 : 	}
; 2519 : 
; 2520 : 	for ( int x=0;x<INVENTORY_SIZE;x++)

  000be	81 c3 a8 00 00
	00		 add	 ebx, 168		; 000000a8H
  000c4	47		 inc	 edi
  000c5	81 fb e0 46 00
	00		 cmp	 ebx, 18144		; 000046e0H
  000cb	0f 8c 5f ff ff
	ff		 jl	 $LL6@SearchUser
  000d1	5f		 pop	 edi
  000d2	5b		 pop	 ebx
$LN4@SearchUser:
  000d3	5e		 pop	 esi

; 2536 : 				}
; 2537 : 			}
; 2538 : 		}
; 2539 : 	}
; 2540 : }

  000d4	8b e5		 mov	 esp, ebp
  000d6	5d		 pop	 ebp
  000d7	c2 04 00	 ret	 4
?SearchUserDeleteQuestItem@CBloodCastle@@QAEXH@Z ENDP	; CBloodCastle::SearchUserDeleteQuestItem
_TEXT	ENDS
PUBLIC	?SetUserState@CBloodCastle@@QAEXHH@Z		; CBloodCastle::SetUserState
; Function compile flags: /Ogtp
;	COMDAT ?SetUserState@CBloodCastle@@QAEXHH@Z
_TEXT	SEGMENT
tv803 = -8						; size = 4
_iBridgeSubIndex$ = -4					; size = 4
tv1060 = 8						; size = 4
_iIndex$ = 8						; size = 4
_iState$ = 12						; size = 4
?SetUserState@CBloodCastle@@QAEXHH@Z PROC		; CBloodCastle::SetUserState, COMDAT
; _this$ = ecx

; 2609 : {

  00000	55		 push	 ebp
  00001	8b ec		 mov	 ebp, esp

; 2610 : 	if ( OBJMAX_RANGE(iIndex) == FALSE )

  00003	8b 45 08	 mov	 eax, DWORD PTR _iIndex$[ebp]
  00006	83 ec 08	 sub	 esp, 8
  00009	56		 push	 esi
  0000a	8b f1		 mov	 esi, ecx
  0000c	85 c0		 test	 eax, eax
  0000e	0f 88 dd 02 00
	00		 js	 $LN14@SetUserSta
  00014	33 c9		 xor	 ecx, ecx
  00016	3d e7 1c 00 00	 cmp	 eax, 7399		; 00001ce7H
  0001b	0f 9e c1	 setle	 cl
  0001e	85 c9		 test	 ecx, ecx
  00020	0f 84 cb 02 00
	00		 je	 $LN14@SetUserSta

; 2611 : 	{
; 2612 : 		return;
; 2613 : 	}
; 2614 : 
; 2615 : 	int iBridgeIndex = gObj[iIndex].m_cBloodCastleIndex;

  00026	53		 push	 ebx
  00027	8b d8		 mov	 ebx, eax
  00029	69 db 64 15 00
	00		 imul	 ebx, 5476		; 00001564H
  0002f	0f be 93 02 0d
	00 00		 movsx	 edx, BYTE PTR ?gObj@@3PAUOBJECTSTRUCT@@A[ebx+3330]

; 2616 : 	int iBridgeSubIndex = gObj[iIndex].m_cBloodCastleSubIndex;

  00036	0f be 8b 03 0d
	00 00		 movsx	 ecx, BYTE PTR ?gObj@@3PAUOBJECTSTRUCT@@A[ebx+3331]
  0003d	89 5d f8	 mov	 DWORD PTR tv803[ebp], ebx
  00040	89 4d fc	 mov	 DWORD PTR _iBridgeSubIndex$[ebp], ecx

; 2617 : 
; 2618 : 	if ( BC_BRIDGE_RANGE(iBridgeIndex) == FALSE )

  00043	85 d2		 test	 edx, edx
  00045	0f 88 a5 02 00
	00		 js	 $LN55@SetUserSta
  0004b	33 c0		 xor	 eax, eax
  0004d	83 fa 06	 cmp	 edx, 6
  00050	0f 9e c0	 setle	 al
  00053	85 c0		 test	 eax, eax
  00055	0f 84 95 02 00
	00		 je	 $LN55@SetUserSta

; 2619 : 	{
; 2620 : 		return;
; 2621 : 	}
; 2622 : 
; 2623 : 	if ( BC_SUB_BRIDGE_RANGE(iBridgeSubIndex) == FALSE )

  0005b	85 c9		 test	 ecx, ecx
  0005d	0f 88 8d 02 00
	00		 js	 $LN55@SetUserSta
  00063	33 c0		 xor	 eax, eax
  00065	83 f9 09	 cmp	 ecx, 9
  00068	0f 9e c0	 setle	 al
  0006b	85 c0		 test	 eax, eax
  0006d	0f 84 7d 02 00
	00		 je	 $LN55@SetUserSta

; 2624 : 	{
; 2625 : 		return;
; 2626 : 	}
; 2627 : 
; 2628 : 	switch ( iState )

  00073	8b 45 0c	 mov	 eax, DWORD PTR _iState$[ebp]
  00076	83 f8 04	 cmp	 eax, 4
  00079	0f 87 71 02 00
	00		 ja	 $LN55@SetUserSta
  0007f	ff 24 85 00 00
	00 00		 jmp	 DWORD PTR $LN56@SetUserSta[eax*4]
$LN13@SetUserSta:

; 2629 : 	{
; 2630 : 		case 0:
; 2631 : 			this->m_BridgeData[iBridgeIndex].m_UserData[iBridgeSubIndex].m_iUserState = 0;

  00086	c1 e2 09	 shl	 edx, 9
  00089	03 d6		 add	 edx, esi
  0008b	8d 44 89 0a	 lea	 eax, DWORD PTR [ecx+ecx*4+10]
  0008f	5b		 pop	 ebx
  00090	c7 04 82 00 00
	00 00		 mov	 DWORD PTR [edx+eax*4], 0
  00097	5e		 pop	 esi

; 2672 : 			break;
; 2673 : 	}
; 2674 : }

  00098	8b e5		 mov	 esp, ebp
  0009a	5d		 pop	 ebp
  0009b	c2 08 00	 ret	 8
$LN12@SetUserSta:

; 2632 : 			break;
; 2633 : 
; 2634 : 		case 1:
; 2635 : 			this->m_BridgeData[iBridgeIndex].m_UserData[iBridgeSubIndex].m_iUserState = 1;

  0009e	c1 e2 09	 shl	 edx, 9
  000a1	03 d6		 add	 edx, esi
  000a3	8d 4c 89 0a	 lea	 ecx, DWORD PTR [ecx+ecx*4+10]
  000a7	5b		 pop	 ebx
  000a8	c7 04 8a 01 00
	00 00		 mov	 DWORD PTR [edx+ecx*4], 1
  000af	5e		 pop	 esi

; 2672 : 			break;
; 2673 : 	}
; 2674 : }

  000b0	8b e5		 mov	 esp, ebp
  000b2	5d		 pop	 ebp
  000b3	c2 08 00	 ret	 8
$LN11@SetUserSta:

; 2636 : 			break;
; 2637 : 
; 2638 : 		case 2:
; 2639 : 			if ( gObj[iIndex].PartyNumber >= 0 )

  000b6	83 bb a8 02 00
	00 00		 cmp	 DWORD PTR ?gObj@@3PAUOBJECTSTRUCT@@A[ebx+680], 0
  000bd	0f 8c e5 01 00
	00		 jl	 $LN31@SetUserSta

; 2640 : 			{
; 2641 : 				for ( int i=0;i<MAX_BLOOD_CASTLE_SUB_BRIDGE;i++)

  000c3	57		 push	 edi
  000c4	bf 02 00 00 00	 mov	 edi, 2
  000c9	33 c0		 xor	 eax, eax
  000cb	89 7d 08	 mov	 DWORD PTR tv1060[ebp], edi
  000ce	eb 03		 jmp	 SHORT $LN9@SetUserSta
$LL53@SetUserSta:
  000d0	8b 5d f8	 mov	 ebx, DWORD PTR tv803[ebp]
$LN9@SetUserSta:

; 2642 : 				{
; 2643 : 					if ( i == iBridgeSubIndex )

  000d3	83 c7 fe	 add	 edi, -2			; fffffffeH
  000d6	3b f9		 cmp	 edi, ecx
  000d8	74 4d		 je	 SHORT $LN8@SetUserSta

; 2644 : 					{
; 2645 : 						continue;
; 2646 : 					}
; 2647 : 
; 2648 : 					if ( gObj[iIndex].PartyNumber == gObj[this->m_BridgeData[iBridgeIndex].m_UserData[i].m_iIndex].PartyNumber )

  000da	8b 9b a8 02 00
	00		 mov	 ebx, DWORD PTR ?gObj@@3PAUOBJECTSTRUCT@@A[ebx+680]
  000e0	8b fa		 mov	 edi, edx
  000e2	c1 e7 09	 shl	 edi, 9
  000e5	8d 0c 38	 lea	 ecx, DWORD PTR [eax+edi]
  000e8	8b 4c 31 1c	 mov	 ecx, DWORD PTR [ecx+esi+28]
  000ec	69 c9 64 15 00
	00		 imul	 ecx, 5476		; 00001564H
  000f2	3b 99 a8 02 00
	00		 cmp	 ebx, DWORD PTR ?gObj@@3PAUOBJECTSTRUCT@@A[ecx+680]
  000f8	75 2d		 jne	 SHORT $LN8@SetUserSta

; 2649 : 					{
; 2650 : 						if ( BC_MAP_RANGE( gObj[this->m_BridgeData[iBridgeIndex].m_UserData[i].m_iIndex ].MapNumber ) != FALSE )

  000fa	0f b6 89 09 01
	00 00		 movzx	 ecx, BYTE PTR ?gObj@@3PAUOBJECTSTRUCT@@A[ecx+265]
  00101	80 f9 0b	 cmp	 cl, 11			; 0000000bH
  00104	72 16		 jb	 SHORT $LN4@SetUserSta
  00106	b3 11		 mov	 bl, 17			; 00000011H
  00108	3a d9		 cmp	 bl, cl
  0010a	1b c9		 sbb	 ecx, ecx
  0010c	41		 inc	 ecx
  0010d	74 0d		 je	 SHORT $LN4@SetUserSta

; 2651 : 						{
; 2652 : 							this->m_BridgeData[iBridgeIndex].m_UserData[i].m_iUserState = 3;

  0010f	8d 0c 38	 lea	 ecx, DWORD PTR [eax+edi]
  00112	c7 44 31 28 03
	00 00 00	 mov	 DWORD PTR [ecx+esi+40], 3

; 2653 : 						}
; 2654 : 						else

  0011a	eb 0b		 jmp	 SHORT $LN8@SetUserSta
$LN4@SetUserSta:

; 2655 : 						{
; 2656 : 							this->m_BridgeData[iBridgeIndex].m_UserData[i].m_iUserState = 4;

  0011c	8d 0c 38	 lea	 ecx, DWORD PTR [eax+edi]
  0011f	c7 44 31 28 04
	00 00 00	 mov	 DWORD PTR [ecx+esi+40], 4
$LN8@SetUserSta:

; 2642 : 				{
; 2643 : 					if ( i == iBridgeSubIndex )

  00127	8b 4d 08	 mov	 ecx, DWORD PTR tv1060[ebp]
  0012a	49		 dec	 ecx
  0012b	3b 4d fc	 cmp	 ecx, DWORD PTR _iBridgeSubIndex$[ebp]
  0012e	74 50		 je	 SHORT $LN49@SetUserSta

; 2644 : 					{
; 2645 : 						continue;
; 2646 : 					}
; 2647 : 
; 2648 : 					if ( gObj[iIndex].PartyNumber == gObj[this->m_BridgeData[iBridgeIndex].m_UserData[i].m_iIndex].PartyNumber )

  00130	8b 5d f8	 mov	 ebx, DWORD PTR tv803[ebp]
  00133	8b 9b a8 02 00
	00		 mov	 ebx, DWORD PTR ?gObj@@3PAUOBJECTSTRUCT@@A[ebx+680]
  00139	8b fa		 mov	 edi, edx
  0013b	c1 e7 09	 shl	 edi, 9
  0013e	8d 0c 38	 lea	 ecx, DWORD PTR [eax+edi]
  00141	8b 4c 31 30	 mov	 ecx, DWORD PTR [ecx+esi+48]
  00145	69 c9 64 15 00
	00		 imul	 ecx, 5476		; 00001564H
  0014b	3b 99 a8 02 00
	00		 cmp	 ebx, DWORD PTR ?gObj@@3PAUOBJECTSTRUCT@@A[ecx+680]
  00151	75 2d		 jne	 SHORT $LN49@SetUserSta

; 2649 : 					{
; 2650 : 						if ( BC_MAP_RANGE( gObj[this->m_BridgeData[iBridgeIndex].m_UserData[i].m_iIndex ].MapNumber ) != FALSE )

  00153	0f b6 89 09 01
	00 00		 movzx	 ecx, BYTE PTR ?gObj@@3PAUOBJECTSTRUCT@@A[ecx+265]
  0015a	80 f9 0b	 cmp	 cl, 11			; 0000000bH
  0015d	72 16		 jb	 SHORT $LN34@SetUserSta
  0015f	b3 11		 mov	 bl, 17			; 00000011H
  00161	3a d9		 cmp	 bl, cl
  00163	1b c9		 sbb	 ecx, ecx
  00165	41		 inc	 ecx
  00166	74 0d		 je	 SHORT $LN34@SetUserSta

; 2651 : 						{
; 2652 : 							this->m_BridgeData[iBridgeIndex].m_UserData[i].m_iUserState = 3;

  00168	8d 0c 38	 lea	 ecx, DWORD PTR [eax+edi]
  0016b	c7 44 31 3c 03
	00 00 00	 mov	 DWORD PTR [ecx+esi+60], 3

; 2653 : 						}
; 2654 : 						else

  00173	eb 0b		 jmp	 SHORT $LN49@SetUserSta
$LN34@SetUserSta:

; 2655 : 						{
; 2656 : 							this->m_BridgeData[iBridgeIndex].m_UserData[i].m_iUserState = 4;

  00175	8d 0c 38	 lea	 ecx, DWORD PTR [eax+edi]
  00178	c7 44 31 3c 04
	00 00 00	 mov	 DWORD PTR [ecx+esi+60], 4
$LN49@SetUserSta:

; 2642 : 				{
; 2643 : 					if ( i == iBridgeSubIndex )

  00180	8b 4d fc	 mov	 ecx, DWORD PTR _iBridgeSubIndex$[ebp]
  00183	39 4d 08	 cmp	 DWORD PTR tv1060[ebp], ecx
  00186	74 50		 je	 SHORT $LN50@SetUserSta

; 2644 : 					{
; 2645 : 						continue;
; 2646 : 					}
; 2647 : 
; 2648 : 					if ( gObj[iIndex].PartyNumber == gObj[this->m_BridgeData[iBridgeIndex].m_UserData[i].m_iIndex].PartyNumber )

  00188	8b 5d f8	 mov	 ebx, DWORD PTR tv803[ebp]
  0018b	8b 9b a8 02 00
	00		 mov	 ebx, DWORD PTR ?gObj@@3PAUOBJECTSTRUCT@@A[ebx+680]
  00191	8b fa		 mov	 edi, edx
  00193	c1 e7 09	 shl	 edi, 9
  00196	8d 0c 38	 lea	 ecx, DWORD PTR [eax+edi]
  00199	8b 4c 31 44	 mov	 ecx, DWORD PTR [ecx+esi+68]
  0019d	69 c9 64 15 00
	00		 imul	 ecx, 5476		; 00001564H
  001a3	3b 99 a8 02 00
	00		 cmp	 ebx, DWORD PTR ?gObj@@3PAUOBJECTSTRUCT@@A[ecx+680]
  001a9	75 2d		 jne	 SHORT $LN50@SetUserSta

; 2649 : 					{
; 2650 : 						if ( BC_MAP_RANGE( gObj[this->m_BridgeData[iBridgeIndex].m_UserData[i].m_iIndex ].MapNumber ) != FALSE )

  001ab	0f b6 89 09 01
	00 00		 movzx	 ecx, BYTE PTR ?gObj@@3PAUOBJECTSTRUCT@@A[ecx+265]
  001b2	80 f9 0b	 cmp	 cl, 11			; 0000000bH
  001b5	72 16		 jb	 SHORT $LN38@SetUserSta
  001b7	b3 11		 mov	 bl, 17			; 00000011H
  001b9	3a d9		 cmp	 bl, cl
  001bb	1b c9		 sbb	 ecx, ecx
  001bd	41		 inc	 ecx
  001be	74 0d		 je	 SHORT $LN38@SetUserSta

; 2651 : 						{
; 2652 : 							this->m_BridgeData[iBridgeIndex].m_UserData[i].m_iUserState = 3;

  001c0	8d 0c 38	 lea	 ecx, DWORD PTR [eax+edi]
  001c3	c7 44 31 50 03
	00 00 00	 mov	 DWORD PTR [ecx+esi+80], 3

; 2653 : 						}
; 2654 : 						else

  001cb	eb 0b		 jmp	 SHORT $LN50@SetUserSta
$LN38@SetUserSta:

; 2655 : 						{
; 2656 : 							this->m_BridgeData[iBridgeIndex].m_UserData[i].m_iUserState = 4;

  001cd	8d 0c 38	 lea	 ecx, DWORD PTR [eax+edi]
  001d0	c7 44 31 50 04
	00 00 00	 mov	 DWORD PTR [ecx+esi+80], 4
$LN50@SetUserSta:

; 2642 : 				{
; 2643 : 					if ( i == iBridgeSubIndex )

  001d8	8b 4d 08	 mov	 ecx, DWORD PTR tv1060[ebp]
  001db	41		 inc	 ecx
  001dc	3b 4d fc	 cmp	 ecx, DWORD PTR _iBridgeSubIndex$[ebp]
  001df	74 50		 je	 SHORT $LN51@SetUserSta

; 2644 : 					{
; 2645 : 						continue;
; 2646 : 					}
; 2647 : 
; 2648 : 					if ( gObj[iIndex].PartyNumber == gObj[this->m_BridgeData[iBridgeIndex].m_UserData[i].m_iIndex].PartyNumber )

  001e1	8b 5d f8	 mov	 ebx, DWORD PTR tv803[ebp]
  001e4	8b 9b a8 02 00
	00		 mov	 ebx, DWORD PTR ?gObj@@3PAUOBJECTSTRUCT@@A[ebx+680]
  001ea	8b fa		 mov	 edi, edx
  001ec	c1 e7 09	 shl	 edi, 9
  001ef	8d 0c 38	 lea	 ecx, DWORD PTR [eax+edi]
  001f2	8b 4c 31 58	 mov	 ecx, DWORD PTR [ecx+esi+88]
  001f6	69 c9 64 15 00
	00		 imul	 ecx, 5476		; 00001564H
  001fc	3b 99 a8 02 00
	00		 cmp	 ebx, DWORD PTR ?gObj@@3PAUOBJECTSTRUCT@@A[ecx+680]
  00202	75 2d		 jne	 SHORT $LN51@SetUserSta

; 2649 : 					{
; 2650 : 						if ( BC_MAP_RANGE( gObj[this->m_BridgeData[iBridgeIndex].m_UserData[i].m_iIndex ].MapNumber ) != FALSE )

  00204	0f b6 89 09 01
	00 00		 movzx	 ecx, BYTE PTR ?gObj@@3PAUOBJECTSTRUCT@@A[ecx+265]
  0020b	80 f9 0b	 cmp	 cl, 11			; 0000000bH
  0020e	72 16		 jb	 SHORT $LN42@SetUserSta
  00210	b3 11		 mov	 bl, 17			; 00000011H
  00212	3a d9		 cmp	 bl, cl
  00214	1b c9		 sbb	 ecx, ecx
  00216	41		 inc	 ecx
  00217	74 0d		 je	 SHORT $LN42@SetUserSta

; 2651 : 						{
; 2652 : 							this->m_BridgeData[iBridgeIndex].m_UserData[i].m_iUserState = 3;

  00219	8d 0c 38	 lea	 ecx, DWORD PTR [eax+edi]
  0021c	c7 44 31 64 03
	00 00 00	 mov	 DWORD PTR [ecx+esi+100], 3

; 2653 : 						}
; 2654 : 						else

  00224	eb 0b		 jmp	 SHORT $LN51@SetUserSta
$LN42@SetUserSta:

; 2655 : 						{
; 2656 : 							this->m_BridgeData[iBridgeIndex].m_UserData[i].m_iUserState = 4;

  00226	8d 0c 38	 lea	 ecx, DWORD PTR [eax+edi]
  00229	c7 44 31 64 04
	00 00 00	 mov	 DWORD PTR [ecx+esi+100], 4
$LN51@SetUserSta:

; 2642 : 				{
; 2643 : 					if ( i == iBridgeSubIndex )

  00231	8b 4d 08	 mov	 ecx, DWORD PTR tv1060[ebp]
  00234	83 c1 02	 add	 ecx, 2
  00237	3b 4d fc	 cmp	 ecx, DWORD PTR _iBridgeSubIndex$[ebp]
  0023a	74 50		 je	 SHORT $LN52@SetUserSta

; 2644 : 					{
; 2645 : 						continue;
; 2646 : 					}
; 2647 : 
; 2648 : 					if ( gObj[iIndex].PartyNumber == gObj[this->m_BridgeData[iBridgeIndex].m_UserData[i].m_iIndex].PartyNumber )

  0023c	8b 5d f8	 mov	 ebx, DWORD PTR tv803[ebp]
  0023f	8b 9b a8 02 00
	00		 mov	 ebx, DWORD PTR ?gObj@@3PAUOBJECTSTRUCT@@A[ebx+680]
  00245	8b fa		 mov	 edi, edx
  00247	c1 e7 09	 shl	 edi, 9
  0024a	8d 0c 38	 lea	 ecx, DWORD PTR [eax+edi]
  0024d	8b 4c 31 6c	 mov	 ecx, DWORD PTR [ecx+esi+108]
  00251	69 c9 64 15 00
	00		 imul	 ecx, 5476		; 00001564H
  00257	3b 99 a8 02 00
	00		 cmp	 ebx, DWORD PTR ?gObj@@3PAUOBJECTSTRUCT@@A[ecx+680]
  0025d	75 2d		 jne	 SHORT $LN52@SetUserSta

; 2649 : 					{
; 2650 : 						if ( BC_MAP_RANGE( gObj[this->m_BridgeData[iBridgeIndex].m_UserData[i].m_iIndex ].MapNumber ) != FALSE )

  0025f	0f b6 89 09 01
	00 00		 movzx	 ecx, BYTE PTR ?gObj@@3PAUOBJECTSTRUCT@@A[ecx+265]
  00266	80 f9 0b	 cmp	 cl, 11			; 0000000bH
  00269	72 16		 jb	 SHORT $LN46@SetUserSta
  0026b	b3 11		 mov	 bl, 17			; 00000011H
  0026d	3a d9		 cmp	 bl, cl
  0026f	1b c9		 sbb	 ecx, ecx
  00271	41		 inc	 ecx
  00272	74 0d		 je	 SHORT $LN46@SetUserSta

; 2651 : 						{
; 2652 : 							this->m_BridgeData[iBridgeIndex].m_UserData[i].m_iUserState = 3;

  00274	8d 0c 38	 lea	 ecx, DWORD PTR [eax+edi]
  00277	c7 44 31 78 03
	00 00 00	 mov	 DWORD PTR [ecx+esi+120], 3

; 2653 : 						}
; 2654 : 						else

  0027f	eb 0b		 jmp	 SHORT $LN52@SetUserSta
$LN46@SetUserSta:

; 2655 : 						{
; 2656 : 							this->m_BridgeData[iBridgeIndex].m_UserData[i].m_iUserState = 4;

  00281	8d 0c 38	 lea	 ecx, DWORD PTR [eax+edi]
  00284	c7 44 31 78 04
	00 00 00	 mov	 DWORD PTR [ecx+esi+120], 4
$LN52@SetUserSta:

; 2640 : 			{
; 2641 : 				for ( int i=0;i<MAX_BLOOD_CASTLE_SUB_BRIDGE;i++)

  0028c	8b 7d 08	 mov	 edi, DWORD PTR tv1060[ebp]
  0028f	83 c7 05	 add	 edi, 5
  00292	8d 4f fe	 lea	 ecx, DWORD PTR [edi-2]
  00295	83 c0 64	 add	 eax, 100		; 00000064H
  00298	83 f9 0a	 cmp	 ecx, 10			; 0000000aH
  0029b	8b 4d fc	 mov	 ecx, DWORD PTR _iBridgeSubIndex$[ebp]
  0029e	89 7d 08	 mov	 DWORD PTR tv1060[ebp], edi
  002a1	0f 8c 29 fe ff
	ff		 jl	 $LL53@SetUserSta
  002a7	5f		 pop	 edi
$LN31@SetUserSta:

; 2657 : 						}
; 2658 : 					}
; 2659 : 				}
; 2660 : 			}
; 2661 : 
; 2662 : 			this->m_BridgeData[iBridgeIndex].m_UserData[iBridgeSubIndex].m_iUserState = 2;

  002a8	c1 e2 09	 shl	 edx, 9
  002ab	8d 44 89 0a	 lea	 eax, DWORD PTR [ecx+ecx*4+10]
  002af	8d 04 82	 lea	 eax, DWORD PTR [edx+eax*4]
  002b2	c7 04 30 02 00
	00 00		 mov	 DWORD PTR [eax+esi], 2
  002b9	5b		 pop	 ebx

; 2663 : 			this->m_BridgeData[iBridgeIndex].m_iMISSION_SUCCESS = iBridgeSubIndex;

  002ba	89 8c 32 48 01
	00 00		 mov	 DWORD PTR [edx+esi+328], ecx
  002c1	5e		 pop	 esi

; 2672 : 			break;
; 2673 : 	}
; 2674 : }

  002c2	8b e5		 mov	 esp, ebp
  002c4	5d		 pop	 ebp
  002c5	c2 08 00	 ret	 8
$LN2@SetUserSta:

; 2664 : 			break;
; 2665 : 
; 2666 : 		case 3:
; 2667 : 			this->m_BridgeData[iBridgeIndex].m_UserData[iBridgeSubIndex].m_iUserState = 3;

  002c8	c1 e2 09	 shl	 edx, 9
  002cb	03 d6		 add	 edx, esi
  002cd	8d 4c 89 0a	 lea	 ecx, DWORD PTR [ecx+ecx*4+10]
  002d1	5b		 pop	 ebx
  002d2	c7 04 8a 03 00
	00 00		 mov	 DWORD PTR [edx+ecx*4], 3
  002d9	5e		 pop	 esi

; 2672 : 			break;
; 2673 : 	}
; 2674 : }

  002da	8b e5		 mov	 esp, ebp
  002dc	5d		 pop	 ebp
  002dd	c2 08 00	 ret	 8
$LN1@SetUserSta:

; 2668 : 			break;
; 2669 : 
; 2670 : 		case 4:
; 2671 : 			this->m_BridgeData[iBridgeIndex].m_UserData[iBridgeSubIndex].m_iUserState = 4;

  002e0	c1 e2 09	 shl	 edx, 9
  002e3	8d 44 89 0a	 lea	 eax, DWORD PTR [ecx+ecx*4+10]
  002e7	03 d6		 add	 edx, esi
  002e9	c7 04 82 04 00
	00 00		 mov	 DWORD PTR [edx+eax*4], 4
$LN55@SetUserSta:
  002f0	5b		 pop	 ebx
$LN14@SetUserSta:
  002f1	5e		 pop	 esi

; 2672 : 			break;
; 2673 : 	}
; 2674 : }

  002f2	8b e5		 mov	 esp, ebp
  002f4	5d		 pop	 ebp
  002f5	c2 08 00	 ret	 8
$LN56@SetUserSta:
  002f8	00 00 00 00	 DD	 $LN13@SetUserSta
  002fc	00 00 00 00	 DD	 $LN12@SetUserSta
  00300	00 00 00 00	 DD	 $LN11@SetUserSta
  00304	00 00 00 00	 DD	 $LN2@SetUserSta
  00308	00 00 00 00	 DD	 $LN1@SetUserSta
?SetUserState@CBloodCastle@@QAEXHH@Z ENDP		; CBloodCastle::SetUserState
_TEXT	ENDS
PUBLIC	__$ArrayPad$
PUBLIC	?CalcSendRewardEXP@CBloodCastle@@QAEHHH@Z	; CBloodCastle::CalcSendRewardEXP
EXTRN	?PHeadSetBE@@YAXPAEEH@Z:PROC			; PHeadSetBE
; Function compile flags: /Ogtp
;	COMDAT ?CalcSendRewardEXP@CBloodCastle@@QAEHHH@Z
_TEXT	SEGMENT
_pMsg$158361 = -16					; size = 12
__$ArrayPad$ = -4					; size = 4
_iIndex$ = 8						; size = 4
_iEXP$ = 12						; size = 4
?CalcSendRewardEXP@CBloodCastle@@QAEHHH@Z PROC		; CBloodCastle::CalcSendRewardEXP, COMDAT
; _this$ = ecx

; 3004 : {

  00000	55		 push	 ebp
  00001	8b ec		 mov	 ebp, esp
  00003	83 ec 10	 sub	 esp, 16			; 00000010H
  00006	a1 00 00 00 00	 mov	 eax, DWORD PTR ___security_cookie
  0000b	33 c5		 xor	 eax, ebp
  0000d	89 45 fc	 mov	 DWORD PTR __$ArrayPad$[ebp], eax
  00010	53		 push	 ebx

; 3005 : 	if ( iEXP <= 0 )

  00011	8b 5d 0c	 mov	 ebx, DWORD PTR _iEXP$[ebp]
  00014	56		 push	 esi
  00015	8b 75 08	 mov	 esi, DWORD PTR _iIndex$[ebp]
  00018	57		 push	 edi
  00019	8b f9		 mov	 edi, ecx
  0001b	85 db		 test	 ebx, ebx
  0001d	7f 15		 jg	 SHORT $LN7@CalcSendRe
$LN14@CalcSendRe:
  0001f	5f		 pop	 edi
  00020	5e		 pop	 esi

; 3006 : 	{
; 3007 : 		return 0;

  00021	33 c0		 xor	 eax, eax
  00023	5b		 pop	 ebx

; 3055 : 	}
; 3056 : 
; 3057 : 	return iRET_EXP;
; 3058 : }

  00024	8b 4d fc	 mov	 ecx, DWORD PTR __$ArrayPad$[ebp]
  00027	33 cd		 xor	 ecx, ebp
  00029	e8 00 00 00 00	 call	 @__security_check_cookie@4
  0002e	8b e5		 mov	 esp, ebp
  00030	5d		 pop	 ebp
  00031	c2 08 00	 ret	 8
$LN7@CalcSendRe:

; 3008 : 	}
; 3009 : 
; 3010 : 	int iRET_EXP = 0;
; 3011 : 	int iCAL_EXP = iEXP;

  00034	8b c3		 mov	 eax, ebx

; 3012 : 
; 3013 : 	if ( OBJMAX_RANGE(iIndex) == FALSE )

  00036	85 f6		 test	 esi, esi
  00038	78 e5		 js	 SHORT $LN14@CalcSendRe
  0003a	33 c9		 xor	 ecx, ecx
  0003c	81 fe e7 1c 00
	00		 cmp	 esi, 7399		; 00001ce7H
  00042	0f 9e c1	 setle	 cl
  00045	85 c9		 test	 ecx, ecx

; 3014 : 	{
; 3015 : 		return 0;

  00047	74 d6		 je	 SHORT $LN14@CalcSendRe

; 3016 : 	}
; 3017 : 
; 3018 : 	if ( gObj[iIndex].Connected < PLAYER_PLAYING )

  00049	8b ce		 mov	 ecx, esi
  0004b	69 c9 64 15 00
	00		 imul	 ecx, 5476		; 00001564H
  00051	80 b9 04 00 00
	00 03		 cmp	 BYTE PTR ?gObj@@3PAUOBJECTSTRUCT@@A[ecx+4], 3

; 3019 : 	{
; 3020 : 		return 0;

  00058	72 c5		 jb	 SHORT $LN14@CalcSendRe

; 3021 : 	}
; 3022 : 
; 3023 : 	iRET_EXP = iCAL_EXP;
; 3024 : 
; 3025 : 	if ( gObj[iIndex].Type == OBJ_USER )

  0005a	66 83 b9 60 00
	00 00 01	 cmp	 WORD PTR ?gObj@@3PAUOBJECTSTRUCT@@A[ecx+96], 1
  00062	75 4e		 jne	 SHORT $LN4@CalcSendRe

; 3026 : 	{
; 3027 : 		while ( iCAL_EXP > 0 )
; 3028 : 		{
; 3029 : 			if ( iCAL_EXP > 0 )

  00064	85 c0		 test	 eax, eax
  00066	7e 0f		 jle	 SHORT $LN13@CalcSendRe
$LN17@CalcSendRe:

; 3030 : 			{
; 3031 : 				/*if ( gObj[iIndex].m_wExprienceRate > 0 )
; 3032 : 				{*/
; 3033 : 					iCAL_EXP = this->LevelUp(iIndex, iCAL_EXP, 4);

  00068	6a 04		 push	 4
  0006a	50		 push	 eax
  0006b	56		 push	 esi
  0006c	8b cf		 mov	 ecx, edi
  0006e	e8 00 00 00 00	 call	 ?LevelUp@CBloodCastle@@QAEHHHH@Z ; CBloodCastle::LevelUp
  00073	85 c0		 test	 eax, eax
  00075	7f f1		 jg	 SHORT $LN17@CalcSendRe
$LN13@CalcSendRe:

; 3034 : 				/*}
; 3035 : 				else
; 3036 : 				{
; 3037 : 					iEXP = 0;
; 3038 : 					iCAL_EXP = 0;
; 3039 : 					iRET_EXP = 0;
; 3040 : 				}*/
; 3041 : 			}
; 3042 : 		}
; 3043 : 
; 3044 : 		PMSG_KILLPLAYER_EXT pMsg;
; 3045 : 
; 3046 : 		PHeadSetBE((LPBYTE)&pMsg, 0x9C, sizeof(pMsg));

  00077	6a 0c		 push	 12			; 0000000cH
  00079	8d 45 f0	 lea	 eax, DWORD PTR _pMsg$158361[ebp]
  0007c	68 9c 00 00 00	 push	 156			; 0000009cH
  00081	50		 push	 eax
  00082	e8 00 00 00 00	 call	 ?PHeadSetBE@@YAXPAEEH@Z	; PHeadSetBE

; 3047 : 		pMsg.NumberH = -1;
; 3048 : 		pMsg.NumberL = -1;
; 3049 : 		pMsg.ExpH = SET_NUMBERHW(iEXP);
; 3050 : 		pMsg.ExpL = SET_NUMBERLW(iEXP);
; 3051 : 		pMsg.DamageH = 0;
; 3052 : 		pMsg.DamageL = 0;
; 3053 : 
; 3054 : 		DataSend(iIndex, (UCHAR*)&pMsg, pMsg.h.size);

  00087	0f b6 55 f1	 movzx	 edx, BYTE PTR _pMsg$158361[ebp+1]
  0008b	52		 push	 edx
  0008c	8d 45 f0	 lea	 eax, DWORD PTR _pMsg$158361[ebp]
  0008f	8b cb		 mov	 ecx, ebx
  00091	50		 push	 eax
  00092	c1 e9 10	 shr	 ecx, 16			; 00000010H
  00095	56		 push	 esi
  00096	66 c7 45 f3 ff
	ff		 mov	 WORD PTR _pMsg$158361[ebp+3], 65535 ; 0000ffffH
  0009c	66 89 4d f6	 mov	 WORD PTR _pMsg$158361[ebp+6], cx
  000a0	66 89 5d f8	 mov	 WORD PTR _pMsg$158361[ebp+8], bx
  000a4	66 c7 45 fa 00
	00		 mov	 WORD PTR _pMsg$158361[ebp+10], 0
  000aa	e8 00 00 00 00	 call	 ?DataSend@@YAHHPAEK@Z	; DataSend
  000af	83 c4 18	 add	 esp, 24			; 00000018H
$LN4@CalcSendRe:

; 3055 : 	}
; 3056 : 
; 3057 : 	return iRET_EXP;
; 3058 : }

  000b2	8b 4d fc	 mov	 ecx, DWORD PTR __$ArrayPad$[ebp]
  000b5	5f		 pop	 edi
  000b6	5e		 pop	 esi
  000b7	8b c3		 mov	 eax, ebx
  000b9	33 cd		 xor	 ecx, ebp
  000bb	5b		 pop	 ebx
  000bc	e8 00 00 00 00	 call	 @__security_check_cookie@4
  000c1	8b e5		 mov	 esp, ebp
  000c3	5d		 pop	 ebp
  000c4	c2 08 00	 ret	 8
?CalcSendRewardEXP@CBloodCastle@@QAEHHH@Z ENDP		; CBloodCastle::CalcSendRewardEXP
_TEXT	ENDS
PUBLIC	?CalcSendRewardZEN@CBloodCastle@@QAEHHH@Z	; CBloodCastle::CalcSendRewardZEN
EXTRN	?gObjCheckMaxZen@@YAHHH@Z:PROC			; gObjCheckMaxZen
; Function compile flags: /Ogtp
;	COMDAT ?CalcSendRewardZEN@CBloodCastle@@QAEHHH@Z
_TEXT	SEGMENT
_iIndex$ = 8						; size = 4
_iZEN$ = 12						; size = 4
?CalcSendRewardZEN@CBloodCastle@@QAEHHH@Z PROC		; CBloodCastle::CalcSendRewardZEN, COMDAT
; _this$ = ecx

; 3063 : {

  00000	55		 push	 ebp
  00001	8b ec		 mov	 ebp, esp
  00003	53		 push	 ebx

; 3064 : 	if ( iZEN <= 0 )

  00004	8b 5d 0c	 mov	 ebx, DWORD PTR _iZEN$[ebp]
  00007	85 db		 test	 ebx, ebx
  00009	7f 07		 jg	 SHORT $LN4@CalcSendRe@2

; 3065 : 	{
; 3066 : 		return 0;

  0000b	33 c0		 xor	 eax, eax
  0000d	5b		 pop	 ebx

; 3095 : }

  0000e	5d		 pop	 ebp
  0000f	c2 08 00	 ret	 8
$LN4@CalcSendRe@2:
  00012	57		 push	 edi

; 3067 : 	}
; 3068 : 
; 3069 : 	int iRET_ZEN = 0;
; 3070 : 
; 3071 : 	if ( OBJMAX_RANGE(iIndex) == FALSE )

  00013	8b 7d 08	 mov	 edi, DWORD PTR _iIndex$[ebp]
  00016	85 ff		 test	 edi, edi
  00018	78 0f		 js	 SHORT $LN9@CalcSendRe@2
  0001a	33 c0		 xor	 eax, eax
  0001c	81 ff e7 1c 00
	00		 cmp	 edi, 7399		; 00001ce7H
  00022	0f 9e c0	 setle	 al
  00025	85 c0		 test	 eax, eax
  00027	75 08		 jne	 SHORT $LN3@CalcSendRe@2
$LN9@CalcSendRe@2:
  00029	5f		 pop	 edi

; 3072 : 	{
; 3073 : 		return 0;

  0002a	33 c0		 xor	 eax, eax
  0002c	5b		 pop	 ebx

; 3095 : }

  0002d	5d		 pop	 ebp
  0002e	c2 08 00	 ret	 8
$LN3@CalcSendRe@2:
  00031	56		 push	 esi

; 3074 : 	}
; 3075 : 
; 3076 : 	if ( gObj[iIndex].Connected < PLAYER_PLAYING )

