; Listing generated by Microsoft (R) Optimizing Compiler Version 16.00.30319.01 

	TITLE	C:\Users\faelhs\mu-1.1\eMu - GameServer Sapphire S0\GameServer\CastleSiegeSync.cpp
	.686P
	.XMM
	include listing.inc
	.model	flat

INCLUDELIB LIBCMT
INCLUDELIB OLDNAMES

PUBLIC	?GetMapSvrGroup@CMapServerManager@@QAEHXZ	; CMapServerManager::GetMapSvrGroup
; Function compile flags: /Ogtp
; File c:\users\faelhs\mu-1.1\emu - gameserver sapphire s0\gameserver\mapservermanager.h
;	COMDAT ?GetMapSvrGroup@CMapServerManager@@QAEHXZ
_TEXT	SEGMENT
?GetMapSvrGroup@CMapServerManager@@QAEHXZ PROC		; CMapServerManager::GetMapSvrGroup, COMDAT
; _this$ = ecx

; 50   : 		if ( this->m_lpThisMapSvrData != NULL )

  00000	8b 81 80 af 00
	00		 mov	 eax, DWORD PTR [ecx+44928]
  00006	85 c0		 test	 eax, eax
  00008	74 05		 je	 SHORT $LN1@GetMapSvrG

; 51   : 		{
; 52   : 			return m_lpThisMapSvrData->m_btMAPSVR_GROUP;

  0000a	0f b6 40 08	 movzx	 eax, BYTE PTR [eax+8]

; 55   : 	}

  0000e	c3		 ret	 0
$LN1@GetMapSvrG:

; 53   : 		}
; 54   : 		return -1;

  0000f	83 c8 ff	 or	 eax, -1

; 55   : 	}

  00012	c3		 ret	 0
?GetMapSvrGroup@CMapServerManager@@QAEHXZ ENDP		; CMapServerManager::GetMapSvrGroup
_TEXT	ENDS
PUBLIC	??_7CCastleSiegeSync@@6B@			; CCastleSiegeSync::`vftable'
PUBLIC	??1CCastleSiegeSync@@UAE@XZ			; CCastleSiegeSync::~CCastleSiegeSync
PUBLIC	??_R4CCastleSiegeSync@@6B@			; CCastleSiegeSync::`RTTI Complete Object Locator'
PUBLIC	??_R0?AVCCastleSiegeSync@@@8			; CCastleSiegeSync `RTTI Type Descriptor'
PUBLIC	??_R3CCastleSiegeSync@@8			; CCastleSiegeSync::`RTTI Class Hierarchy Descriptor'
PUBLIC	??_R2CCastleSiegeSync@@8			; CCastleSiegeSync::`RTTI Base Class Array'
PUBLIC	??_R1A@?0A@EA@CCastleSiegeSync@@8		; CCastleSiegeSync::`RTTI Base Class Descriptor at (0,-1,0,64)'
EXTRN	??_7type_info@@6B@:QWORD			; type_info::`vftable'
EXTRN	??_ECCastleSiegeSync@@UAEPAXI@Z:PROC		; CCastleSiegeSync::`vector deleting destructor'
;	COMDAT ??_R1A@?0A@EA@CCastleSiegeSync@@8
; File c:\users\faelhs\mu-1.1\emu - gameserver sapphire s0\gameserver\castlesiegesync.cpp
rdata$r	SEGMENT
??_R1A@?0A@EA@CCastleSiegeSync@@8 DD FLAT:??_R0?AVCCastleSiegeSync@@@8 ; CCastleSiegeSync::`RTTI Base Class Descriptor at (0,-1,0,64)'
	DD	00H
	DD	00H
	DD	0ffffffffH
	DD	00H
	DD	040H
	DD	FLAT:??_R3CCastleSiegeSync@@8
rdata$r	ENDS
;	COMDAT ??_R2CCastleSiegeSync@@8
rdata$r	SEGMENT
??_R2CCastleSiegeSync@@8 DD FLAT:??_R1A@?0A@EA@CCastleSiegeSync@@8 ; CCastleSiegeSync::`RTTI Base Class Array'
rdata$r	ENDS
;	COMDAT ??_R3CCastleSiegeSync@@8
rdata$r	SEGMENT
??_R3CCastleSiegeSync@@8 DD 00H				; CCastleSiegeSync::`RTTI Class Hierarchy Descriptor'
	DD	00H
	DD	01H
	DD	FLAT:??_R2CCastleSiegeSync@@8
rdata$r	ENDS
;	COMDAT ??_R0?AVCCastleSiegeSync@@@8
_DATA	SEGMENT
??_R0?AVCCastleSiegeSync@@@8 DD FLAT:??_7type_info@@6B@	; CCastleSiegeSync `RTTI Type Descriptor'
	DD	00H
	DB	'.?AVCCastleSiegeSync@@', 00H
_DATA	ENDS
;	COMDAT ??_R4CCastleSiegeSync@@6B@
rdata$r	SEGMENT
??_R4CCastleSiegeSync@@6B@ DD 00H			; CCastleSiegeSync::`RTTI Complete Object Locator'
	DD	00H
	DD	00H
	DD	FLAT:??_R0?AVCCastleSiegeSync@@@8
	DD	FLAT:??_R3CCastleSiegeSync@@8
rdata$r	ENDS
;	COMDAT ??_7CCastleSiegeSync@@6B@
CONST	SEGMENT
??_7CCastleSiegeSync@@6B@ DD FLAT:??_R4CCastleSiegeSync@@6B@ ; CCastleSiegeSync::`vftable'
	DD	FLAT:??_ECCastleSiegeSync@@UAEPAXI@Z
; Function compile flags: /Ogtp
CONST	ENDS
;	COMDAT ??1CCastleSiegeSync@@UAE@XZ
_TEXT	SEGMENT
??1CCastleSiegeSync@@UAE@XZ PROC			; CCastleSiegeSync::~CCastleSiegeSync, COMDAT
; _this$ = ecx

; 17   : {

  00000	c7 01 00 00 00
	00		 mov	 DWORD PTR [ecx], OFFSET ??_7CCastleSiegeSync@@6B@

; 18   : 	return;
; 19   : }

  00006	c3		 ret	 0
??1CCastleSiegeSync@@UAE@XZ ENDP			; CCastleSiegeSync::~CCastleSiegeSync
_TEXT	ENDS
PUBLIC	?Clear@CCastleSiegeSync@@QAEXXZ			; CCastleSiegeSync::Clear
; Function compile flags: /Ogtp
;	COMDAT ?Clear@CCastleSiegeSync@@QAEXXZ
_TEXT	SEGMENT
?Clear@CCastleSiegeSync@@QAEXXZ PROC			; CCastleSiegeSync::Clear, COMDAT
; _this$ = ecx

; 23   : 	this->m_iCurCastleState = -1;
; 24   : 	this->m_iCurTaxRateChaos = 0;

  00000	33 c0		 xor	 eax, eax
  00002	c7 41 04 ff ff
	ff ff		 mov	 DWORD PTR [ecx+4], -1
  00009	89 41 08	 mov	 DWORD PTR [ecx+8], eax

; 25   : 	this->m_iCurTaxRateStore  = 0;

  0000c	89 41 0c	 mov	 DWORD PTR [ecx+12], eax

; 26   : 	this->m_lCastleTributeMoney = 0;

  0000f	89 41 14	 mov	 DWORD PTR [ecx+20], eax

; 27   : 	this->m_iCsTributeMoneyTimer = 0;

  00012	89 41 28	 mov	 DWORD PTR [ecx+40], eax

; 28   : 	memset(this->m_szCastleOwnerGuild, 0, sizeof(this->m_szCastleOwnerGuild));

  00015	89 41 18	 mov	 DWORD PTR [ecx+24], eax
  00018	89 41 1c	 mov	 DWORD PTR [ecx+28], eax
  0001b	89 41 20	 mov	 DWORD PTR [ecx+32], eax
  0001e	89 41 24	 mov	 DWORD PTR [ecx+36], eax

; 29   : }

  00021	c3		 ret	 0
?Clear@CCastleSiegeSync@@QAEXXZ ENDP			; CCastleSiegeSync::Clear
_TEXT	ENDS
PUBLIC	?SetCastleOwnerGuild@CCastleSiegeSync@@QAEXPAD@Z ; CCastleSiegeSync::SetCastleOwnerGuild
; Function compile flags: /Ogtp
;	COMDAT ?SetCastleOwnerGuild@CCastleSiegeSync@@QAEXPAD@Z
_TEXT	SEGMENT
_lpszGuildName$ = 8					; size = 4
?SetCastleOwnerGuild@CCastleSiegeSync@@QAEXPAD@Z PROC	; CCastleSiegeSync::SetCastleOwnerGuild, COMDAT
; _this$ = ecx

; 32   : {

  00000	55		 push	 ebp
  00001	8b ec		 mov	 ebp, esp

; 33   : 	if ( lpszGuildName == NULL )

  00003	8b 55 08	 mov	 edx, DWORD PTR _lpszGuildName$[ebp]
  00006	85 d2		 test	 edx, edx
  00008	74 19		 je	 SHORT $LN2@SetCastleO

; 34   : 	{
; 35   : 		return;
; 36   : 	}
; 37   : 
; 38   : 	memset(this->m_szCastleOwnerGuild, 0, sizeof(this->m_szCastleOwnerGuild));

  0000a	33 c0		 xor	 eax, eax
  0000c	89 41 18	 mov	 DWORD PTR [ecx+24], eax
  0000f	89 41 1c	 mov	 DWORD PTR [ecx+28], eax
  00012	89 41 20	 mov	 DWORD PTR [ecx+32], eax
  00015	89 41 24	 mov	 DWORD PTR [ecx+36], eax

; 39   : 	memcpy(this->m_szCastleOwnerGuild, lpszGuildName, sizeof(this->m_szCastleOwnerGuild)/2);

  00018	8b 02		 mov	 eax, DWORD PTR [edx]
  0001a	89 41 18	 mov	 DWORD PTR [ecx+24], eax
  0001d	8b 52 04	 mov	 edx, DWORD PTR [edx+4]
  00020	89 51 1c	 mov	 DWORD PTR [ecx+28], edx
$LN2@SetCastleO:

; 40   : }

  00023	5d		 pop	 ebp
  00024	c2 04 00	 ret	 4
?SetCastleOwnerGuild@CCastleSiegeSync@@QAEXPAD@Z ENDP	; CCastleSiegeSync::SetCastleOwnerGuild
_TEXT	ENDS
PUBLIC	?AddTributeMoney@CCastleSiegeSync@@QAEXH@Z	; CCastleSiegeSync::AddTributeMoney
EXTRN	__imp__InterlockedExchangeAdd@8:PROC
EXTRN	__imp__InterlockedExchange@8:PROC
; Function compile flags: /Ogtp
;	COMDAT ?AddTributeMoney@CCastleSiegeSync@@QAEXH@Z
_TEXT	SEGMENT
_iMoney$ = 8						; size = 4
?AddTributeMoney@CCastleSiegeSync@@QAEXH@Z PROC		; CCastleSiegeSync::AddTributeMoney, COMDAT
; _this$ = ecx

; 84   : {

  00000	55		 push	 ebp
  00001	8b ec		 mov	 ebp, esp

; 85   : 	if ( this->m_lCastleTributeMoney < 0 )

  00003	83 79 14 00	 cmp	 DWORD PTR [ecx+20], 0
  00007	56		 push	 esi
  00008	8d 71 14	 lea	 esi, DWORD PTR [ecx+20]
  0000b	7d 09		 jge	 SHORT $LN3@AddTribute

; 86   : 	{
; 87   : 		InterlockedExchange((LPLONG)&this->m_lCastleTributeMoney, 0);

  0000d	6a 00		 push	 0
  0000f	56		 push	 esi
  00010	ff 15 00 00 00
	00		 call	 DWORD PTR __imp__InterlockedExchange@8
$LN3@AddTribute:

; 88   : 	}
; 89   : 
; 90   : 	if ( iMoney <= 0 )

  00016	8b 45 08	 mov	 eax, DWORD PTR _iMoney$[ebp]
  00019	85 c0		 test	 eax, eax
  0001b	7e 14		 jle	 SHORT $LN4@AddTribute

; 91   : 	{
; 92   : 		return;
; 93   : 	}
; 94   : 
; 95   : 	if ( (this->m_lCastleTributeMoney + iMoney) > MAX_TRIBUTE_MONEY )

  0001d	8b 0e		 mov	 ecx, DWORD PTR [esi]
  0001f	03 c8		 add	 ecx, eax
  00021	81 f9 00 94 35
	77		 cmp	 ecx, 2000000000		; 77359400H
  00027	7f 08		 jg	 SHORT $LN4@AddTribute

; 96   : 	{
; 97   : 		return;
; 98   : 	}
; 99   : 
; 100  : 	InterlockedExchangeAdd((LPLONG)&this->m_lCastleTributeMoney, iMoney);

  00029	50		 push	 eax
  0002a	56		 push	 esi
  0002b	ff 15 00 00 00
	00		 call	 DWORD PTR __imp__InterlockedExchangeAdd@8
$LN4@AddTribute:
  00031	5e		 pop	 esi

; 101  : }

  00032	5d		 pop	 ebp
  00033	c2 04 00	 ret	 4
?AddTributeMoney@CCastleSiegeSync@@QAEXH@Z ENDP		; CCastleSiegeSync::AddTributeMoney
_TEXT	ENDS
PUBLIC	?ResetTributeMoney@CCastleSiegeSync@@QAEXXZ	; CCastleSiegeSync::ResetTributeMoney
; Function compile flags: /Ogtp
;	COMDAT ?ResetTributeMoney@CCastleSiegeSync@@QAEXXZ
_TEXT	SEGMENT
?ResetTributeMoney@CCastleSiegeSync@@QAEXXZ PROC	; CCastleSiegeSync::ResetTributeMoney, COMDAT
; _this$ = ecx

; 105  : 	InterlockedExchange((LPLONG)&this->m_lCastleTributeMoney, 0);

  00000	6a 00		 push	 0
  00002	83 c1 14	 add	 ecx, 20			; 00000014H
  00005	51		 push	 ecx
  00006	ff 15 00 00 00
	00		 call	 DWORD PTR __imp__InterlockedExchange@8

; 106  : }

  0000c	c3		 ret	 0
?ResetTributeMoney@CCastleSiegeSync@@QAEXXZ ENDP	; CCastleSiegeSync::ResetTributeMoney
_TEXT	ENDS
PUBLIC	?AdjustTributeMoney@CCastleSiegeSync@@QAEXXZ	; CCastleSiegeSync::AdjustTributeMoney
EXTRN	?GS_GDReqCastleTributeMoney@@YAXHH@Z:PROC	; GS_GDReqCastleTributeMoney
EXTRN	?g_MapServerManager@@3VCMapServerManager@@A:BYTE ; g_MapServerManager
; Function compile flags: /Ogtp
;	COMDAT ?AdjustTributeMoney@CCastleSiegeSync@@QAEXXZ
_TEXT	SEGMENT
?AdjustTributeMoney@CCastleSiegeSync@@QAEXXZ PROC	; CCastleSiegeSync::AdjustTributeMoney, COMDAT
; _this$ = ecx

; 110  : {

  00000	56		 push	 esi
  00001	57		 push	 edi
  00002	8b f9		 mov	 edi, ecx

; 111  : 	if ( this->m_lCastleTributeMoney < 0 )

  00004	83 7f 14 00	 cmp	 DWORD PTR [edi+20], 0
  00008	8d 77 14	 lea	 esi, DWORD PTR [edi+20]
  0000b	7d 09		 jge	 SHORT $LN3@AdjustTrib

; 112  : 	{
; 113  : 		InterlockedExchange((LPLONG)&this->m_lCastleTributeMoney, 0);

  0000d	6a 00		 push	 0
  0000f	56		 push	 esi
  00010	ff 15 00 00 00
	00		 call	 DWORD PTR __imp__InterlockedExchange@8
$LN3@AdjustTrib:

; 114  : 	}
; 115  : 
; 116  : 	if ( this->m_lCastleTributeMoney == 0 )

  00016	8b 36		 mov	 esi, DWORD PTR [esi]
  00018	85 f6		 test	 esi, esi
  0001a	74 3a		 je	 SHORT $LN4@AdjustTrib

; 117  : 	{
; 118  : 		return;
; 119  : 	}
; 120  : 
; 121  : 	this->m_iCsTributeMoneyTimer++;

  0001c	8b 47 28	 mov	 eax, DWORD PTR [edi+40]
  0001f	40		 inc	 eax

; 122  : 
; 123  : 	this->m_iCsTributeMoneyTimer %= 180;

  00020	99		 cdq
  00021	b9 b4 00 00 00	 mov	 ecx, 180		; 000000b4H
  00026	f7 f9		 idiv	 ecx
  00028	89 57 28	 mov	 DWORD PTR [edi+40], edx

; 124  : 
; 125  : 	if ( this->m_iCsTributeMoneyTimer != 0 )

  0002b	85 d2		 test	 edx, edx
  0002d	75 27		 jne	 SHORT $LN4@AdjustTrib

; 126  : 	{
; 127  : 		return;
; 128  : 	}
; 129  : 
; 130  : 	GS_GDReqCastleTributeMoney(g_MapServerManager.GetMapSvrGroup(), this->m_lCastleTributeMoney);

  0002f	a1 80 af 00 00	 mov	 eax, DWORD PTR ?g_MapServerManager@@3VCMapServerManager@@A+44928
  00034	85 c0		 test	 eax, eax
  00036	74 11		 je	 SHORT $LN6@AdjustTrib
  00038	0f b6 40 08	 movzx	 eax, BYTE PTR [eax+8]
  0003c	56		 push	 esi
  0003d	50		 push	 eax
  0003e	e8 00 00 00 00	 call	 ?GS_GDReqCastleTributeMoney@@YAXHH@Z ; GS_GDReqCastleTributeMoney
  00043	83 c4 08	 add	 esp, 8
  00046	5f		 pop	 edi
  00047	5e		 pop	 esi

; 131  : }

  00048	c3		 ret	 0

; 126  : 	{
; 127  : 		return;
; 128  : 	}
; 129  : 
; 130  : 	GS_GDReqCastleTributeMoney(g_MapServerManager.GetMapSvrGroup(), this->m_lCastleTributeMoney);

$LN6@AdjustTrib:
  00049	83 c8 ff	 or	 eax, -1
  0004c	56		 push	 esi
  0004d	50		 push	 eax
  0004e	e8 00 00 00 00	 call	 ?GS_GDReqCastleTributeMoney@@YAXHH@Z ; GS_GDReqCastleTributeMoney
  00053	83 c4 08	 add	 esp, 8
$LN4@AdjustTrib:

; 131  : }

  00056	5f		 pop	 edi
  00057	5e		 pop	 esi
  00058	c3		 ret	 0
?AdjustTributeMoney@CCastleSiegeSync@@QAEXXZ ENDP	; CCastleSiegeSync::AdjustTributeMoney
_TEXT	ENDS
PUBLIC	??_C@_00CNPNBAHC@?$AA@				; `string'
PUBLIC	?CheckCastleOwnerMember@CCastleSiegeSync@@QAEHH@Z ; CCastleSiegeSync::CheckCastleOwnerMember
EXTRN	?gObj@@3PAUOBJECTSTRUCT@@A:BYTE			; gObj
EXTRN	?gObjIsConnected@@YAHH@Z:PROC			; gObjIsConnected
;	COMDAT ??_C@_00CNPNBAHC@?$AA@
CONST	SEGMENT
??_C@_00CNPNBAHC@?$AA@ DB 00H				; `string'
; Function compile flags: /Ogtp
CONST	ENDS
;	COMDAT ?CheckCastleOwnerMember@CCastleSiegeSync@@QAEHH@Z
_TEXT	SEGMENT
_iIndex$ = 8						; size = 4
?CheckCastleOwnerMember@CCastleSiegeSync@@QAEHH@Z PROC	; CCastleSiegeSync::CheckCastleOwnerMember, COMDAT
; _this$ = ecx

; 134  : {

  00000	55		 push	 ebp
  00001	8b ec		 mov	 ebp, esp
  00003	56		 push	 esi
  00004	57		 push	 edi

; 135  : 	if ( gObjIsConnected(iIndex) == FALSE )

  00005	8b 7d 08	 mov	 edi, DWORD PTR _iIndex$[ebp]
  00008	57		 push	 edi
  00009	8b f1		 mov	 esi, ecx
  0000b	e8 00 00 00 00	 call	 ?gObjIsConnected@@YAHH@Z ; gObjIsConnected
  00010	83 c4 04	 add	 esp, 4
  00013	85 c0		 test	 eax, eax
  00015	75 08		 jne	 SHORT $LN3@CheckCastl
$LN14@CheckCastl:
  00017	5f		 pop	 edi

; 136  : 	{
; 137  : 		return FALSE;

  00018	33 c0		 xor	 eax, eax
  0001a	5e		 pop	 esi

; 146  : 	{
; 147  : 		return FALSE;
; 148  : 	}
; 149  : 
; 150  : 	return TRUE;
; 151  : }

  0001b	5d		 pop	 ebp
  0001c	c2 04 00	 ret	 4
$LN3@CheckCastl:

; 138  : 	}
; 139  : 
; 140  : 	if ( strcmp(this->m_szCastleOwnerGuild, "") == 0 )

  0001f	b9 00 00 00 00	 mov	 ecx, OFFSET ??_C@_00CNPNBAHC@?$AA@
  00024	8d 46 18	 lea	 eax, DWORD PTR [esi+24]
$LL6@CheckCastl:
  00027	8a 10		 mov	 dl, BYTE PTR [eax]
  00029	3a 11		 cmp	 dl, BYTE PTR [ecx]
  0002b	75 1a		 jne	 SHORT $LN7@CheckCastl
  0002d	84 d2		 test	 dl, dl
  0002f	74 12		 je	 SHORT $LN8@CheckCastl
  00031	8a 50 01	 mov	 dl, BYTE PTR [eax+1]
  00034	3a 51 01	 cmp	 dl, BYTE PTR [ecx+1]
  00037	75 0e		 jne	 SHORT $LN7@CheckCastl
  00039	83 c0 02	 add	 eax, 2
  0003c	83 c1 02	 add	 ecx, 2
  0003f	84 d2		 test	 dl, dl
  00041	75 e4		 jne	 SHORT $LL6@CheckCastl
$LN8@CheckCastl:
  00043	33 c0		 xor	 eax, eax
  00045	eb 05		 jmp	 SHORT $LN9@CheckCastl
$LN7@CheckCastl:
  00047	1b c0		 sbb	 eax, eax
  00049	83 d8 ff	 sbb	 eax, -1
$LN9@CheckCastl:
  0004c	85 c0		 test	 eax, eax

; 141  : 	{
; 142  : 		return FALSE;

  0004e	74 c7		 je	 SHORT $LN14@CheckCastl

; 143  : 	}
; 144  : 
; 145  : 	if ( strcmp(gObj[iIndex].GuildName, this->m_szCastleOwnerGuild) != 0 )

  00050	69 ff 64 15 00
	00		 imul	 edi, 5476		; 00001564H
  00056	81 c7 b8 02 00
	00		 add	 edi, OFFSET ?gObj@@3PAUOBJECTSTRUCT@@A+696
  0005c	8d 4e 18	 lea	 ecx, DWORD PTR [esi+24]
  0005f	8b c7		 mov	 eax, edi
$LL10@CheckCastl:
  00061	8a 10		 mov	 dl, BYTE PTR [eax]
  00063	3a 11		 cmp	 dl, BYTE PTR [ecx]
  00065	75 27		 jne	 SHORT $LN11@CheckCastl
  00067	84 d2		 test	 dl, dl
  00069	74 12		 je	 SHORT $LN12@CheckCastl
  0006b	8a 50 01	 mov	 dl, BYTE PTR [eax+1]
  0006e	3a 51 01	 cmp	 dl, BYTE PTR [ecx+1]
  00071	75 1b		 jne	 SHORT $LN11@CheckCastl
  00073	83 c0 02	 add	 eax, 2
  00076	83 c1 02	 add	 ecx, 2
  00079	84 d2		 test	 dl, dl
  0007b	75 e4		 jne	 SHORT $LL10@CheckCastl
$LN12@CheckCastl:
  0007d	33 c0		 xor	 eax, eax
  0007f	33 c9		 xor	 ecx, ecx
  00081	85 c0		 test	 eax, eax
  00083	0f 94 c1	 sete	 cl
  00086	5f		 pop	 edi
  00087	5e		 pop	 esi
  00088	8b c1		 mov	 eax, ecx

; 146  : 	{
; 147  : 		return FALSE;
; 148  : 	}
; 149  : 
; 150  : 	return TRUE;
; 151  : }

  0008a	5d		 pop	 ebp
  0008b	c2 04 00	 ret	 4
$LN11@CheckCastl:

; 143  : 	}
; 144  : 
; 145  : 	if ( strcmp(gObj[iIndex].GuildName, this->m_szCastleOwnerGuild) != 0 )

  0008e	1b c0		 sbb	 eax, eax
  00090	83 d8 ff	 sbb	 eax, -1
  00093	33 c9		 xor	 ecx, ecx
  00095	85 c0		 test	 eax, eax
  00097	0f 94 c1	 sete	 cl
  0009a	5f		 pop	 edi
  0009b	5e		 pop	 esi
  0009c	8b c1		 mov	 eax, ecx

; 146  : 	{
; 147  : 		return FALSE;
; 148  : 	}
; 149  : 
; 150  : 	return TRUE;
; 151  : }

  0009e	5d		 pop	 ebp
  0009f	c2 04 00	 ret	 4
?CheckCastleOwnerMember@CCastleSiegeSync@@QAEHH@Z ENDP	; CCastleSiegeSync::CheckCastleOwnerMember
_TEXT	ENDS
PUBLIC	?CheckCastleOwnerUnionMember@CCastleSiegeSync@@QAEHH@Z ; CCastleSiegeSync::CheckCastleOwnerUnionMember
EXTRN	?SearchUnion@TUnion@@QAEPAVTUnionInfo@@H@Z:PROC	; TUnion::SearchUnion
EXTRN	?UnionManager@@3VTUnion@@A:BYTE			; UnionManager
; Function compile flags: /Ogtp
;	COMDAT ?CheckCastleOwnerUnionMember@CCastleSiegeSync@@QAEHH@Z
_TEXT	SEGMENT
_iIndex$ = 8						; size = 4
?CheckCastleOwnerUnionMember@CCastleSiegeSync@@QAEHH@Z PROC ; CCastleSiegeSync::CheckCastleOwnerUnionMember, COMDAT
; _this$ = ecx

; 154  : {

  00000	55		 push	 ebp
  00001	8b ec		 mov	 ebp, esp
  00003	56		 push	 esi
  00004	57		 push	 edi

; 155  : 	if ( gObjIsConnected(iIndex) == FALSE )

  00005	8b 7d 08	 mov	 edi, DWORD PTR _iIndex$[ebp]
  00008	57		 push	 edi
  00009	8b f1		 mov	 esi, ecx
  0000b	e8 00 00 00 00	 call	 ?gObjIsConnected@@YAHH@Z ; gObjIsConnected
  00010	83 c4 04	 add	 esp, 4
  00013	85 c0		 test	 eax, eax
  00015	75 08		 jne	 SHORT $LN5@CheckCastl@2
$LN16@CheckCastl@2:
  00017	5f		 pop	 edi

; 156  : 	{
; 157  : 		return FALSE;

  00018	33 c0		 xor	 eax, eax
  0001a	5e		 pop	 esi

; 180  : 	{
; 181  : 		return TRUE;
; 182  : 	}
; 183  : 
; 184  : 	return FALSE;
; 185  : }

  0001b	5d		 pop	 ebp
  0001c	c2 04 00	 ret	 4
$LN5@CheckCastl@2:

; 158  : 	}
; 159  : 
; 160  : 	if ( strcmp(this->m_szCastleOwnerGuild, "") == 0 )

  0001f	b9 00 00 00 00	 mov	 ecx, OFFSET ??_C@_00CNPNBAHC@?$AA@
  00024	8d 46 18	 lea	 eax, DWORD PTR [esi+24]
$LL8@CheckCastl@2:
  00027	8a 10		 mov	 dl, BYTE PTR [eax]
  00029	3a 11		 cmp	 dl, BYTE PTR [ecx]
  0002b	75 1a		 jne	 SHORT $LN9@CheckCastl@2
  0002d	84 d2		 test	 dl, dl
  0002f	74 12		 je	 SHORT $LN10@CheckCastl@2
  00031	8a 50 01	 mov	 dl, BYTE PTR [eax+1]
  00034	3a 51 01	 cmp	 dl, BYTE PTR [ecx+1]
  00037	75 0e		 jne	 SHORT $LN9@CheckCastl@2
  00039	83 c0 02	 add	 eax, 2
  0003c	83 c1 02	 add	 ecx, 2
  0003f	84 d2		 test	 dl, dl
  00041	75 e4		 jne	 SHORT $LL8@CheckCastl@2
$LN10@CheckCastl@2:
  00043	33 c0		 xor	 eax, eax
  00045	eb 05		 jmp	 SHORT $LN11@CheckCastl@2
$LN9@CheckCastl@2:
  00047	1b c0		 sbb	 eax, eax
  00049	83 d8 ff	 sbb	 eax, -1
$LN11@CheckCastl@2:
  0004c	85 c0		 test	 eax, eax

; 161  : 	{
; 162  : 		return FALSE;

  0004e	74 c7		 je	 SHORT $LN16@CheckCastl@2

; 163  : 	}
; 164  : 
; 165  : 	_GUILD_INFO_STRUCT * lpGuildInfo = gObj[iIndex].lpGuild;

  00050	69 ff 64 15 00
	00		 imul	 edi, 5476		; 00001564H
  00056	8b 87 b4 02 00
	00		 mov	 eax, DWORD PTR ?gObj@@3PAUOBJECTSTRUCT@@A[edi+692]

; 166  : 	
; 167  : 	if ( lpGuildInfo == NULL )

  0005c	85 c0		 test	 eax, eax

; 168  : 	{
; 169  : 		return FALSE;

  0005e	74 b7		 je	 SHORT $LN16@CheckCastl@2

; 170  : 	}
; 171  : 	
; 172  : 	TUnionInfo * pUnionInfo = UnionManager.SearchUnion(lpGuildInfo->iGuildUnion);

  00060	8b 80 1c 07 00
	00		 mov	 eax, DWORD PTR [eax+1820]
  00066	50		 push	 eax
  00067	b9 00 00 00 00	 mov	 ecx, OFFSET ?UnionManager@@3VTUnion@@A ; UnionManager
  0006c	e8 00 00 00 00	 call	 ?SearchUnion@TUnion@@QAEPAVTUnionInfo@@H@Z ; TUnion::SearchUnion

; 173  : 
; 174  : 	if ( pUnionInfo == NULL )

  00071	85 c0		 test	 eax, eax

; 175  : 	{
; 176  : 		return FALSE;

  00073	74 a2		 je	 SHORT $LN16@CheckCastl@2

; 177  : 	}
; 178  : 
; 179  : 	if ( strcmp( pUnionInfo->m_szMasterGuild, this->m_szCastleOwnerGuild) == 0 )

  00075	8d 4e 18	 lea	 ecx, DWORD PTR [esi+24]
  00078	83 c0 10	 add	 eax, 16			; 00000010H
  0007b	eb 03 8d 49 00	 npad	 5
$LL12@CheckCastl@2:
  00080	8a 10		 mov	 dl, BYTE PTR [eax]
  00082	3a 11		 cmp	 dl, BYTE PTR [ecx]
  00084	75 27		 jne	 SHORT $LN13@CheckCastl@2
  00086	84 d2		 test	 dl, dl
  00088	74 12		 je	 SHORT $LN14@CheckCastl@2
  0008a	8a 50 01	 mov	 dl, BYTE PTR [eax+1]
  0008d	3a 51 01	 cmp	 dl, BYTE PTR [ecx+1]
  00090	75 1b		 jne	 SHORT $LN13@CheckCastl@2
  00092	83 c0 02	 add	 eax, 2
  00095	83 c1 02	 add	 ecx, 2
  00098	84 d2		 test	 dl, dl
  0009a	75 e4		 jne	 SHORT $LL12@CheckCastl@2
$LN14@CheckCastl@2:
  0009c	33 c0		 xor	 eax, eax
  0009e	33 c9		 xor	 ecx, ecx
  000a0	85 c0		 test	 eax, eax
  000a2	0f 94 c1	 sete	 cl
  000a5	5f		 pop	 edi
  000a6	5e		 pop	 esi
  000a7	8b c1		 mov	 eax, ecx

; 180  : 	{
; 181  : 		return TRUE;
; 182  : 	}
; 183  : 
; 184  : 	return FALSE;
; 185  : }

  000a9	5d		 pop	 ebp
  000aa	c2 04 00	 ret	 4
$LN13@CheckCastl@2:

; 177  : 	}
; 178  : 
; 179  : 	if ( strcmp( pUnionInfo->m_szMasterGuild, this->m_szCastleOwnerGuild) == 0 )

  000ad	1b c0		 sbb	 eax, eax
  000af	83 d8 ff	 sbb	 eax, -1
  000b2	33 c9		 xor	 ecx, ecx
  000b4	85 c0		 test	 eax, eax
  000b6	0f 94 c1	 sete	 cl
  000b9	5f		 pop	 edi
  000ba	5e		 pop	 esi
  000bb	8b c1		 mov	 eax, ecx

; 180  : 	{
; 181  : 		return TRUE;
; 182  : 	}
; 183  : 
; 184  : 	return FALSE;
; 185  : }

  000bd	5d		 pop	 ebp
  000be	c2 04 00	 ret	 4
?CheckCastleOwnerUnionMember@CCastleSiegeSync@@QAEHH@Z ENDP ; CCastleSiegeSync::CheckCastleOwnerUnionMember
_TEXT	ENDS
PUBLIC	?CheckOverlapCsMarks@CCastleSiegeSync@@QAEHH@Z	; CCastleSiegeSync::CheckOverlapCsMarks
EXTRN	?IsItem@CItem@@QAEHXZ:PROC			; CItem::IsItem
EXTRN	__ftol2_sse:PROC
; Function compile flags: /Ogtp
;	COMDAT ?CheckOverlapCsMarks@CCastleSiegeSync@@QAEHH@Z
_TEXT	SEGMENT
_iIndex$ = 8						; size = 4
?CheckOverlapCsMarks@CCastleSiegeSync@@QAEHH@Z PROC	; CCastleSiegeSync::CheckOverlapCsMarks, COMDAT
; _this$ = ecx

; 188  : {

  00000	55		 push	 ebp
  00001	8b ec		 mov	 ebp, esp
  00003	53		 push	 ebx
  00004	56		 push	 esi
  00005	57		 push	 edi

; 189  : 	for ( int x=INVENTORY_BAG_START;x<MAIN_INVENTORY_SIZE;x++)

  00006	8b 7d 08	 mov	 edi, DWORD PTR _iIndex$[ebp]
  00009	69 ff 64 15 00
	00		 imul	 edi, 5476		; 00001564H
  0000f	bb 0c 00 00 00	 mov	 ebx, 12			; 0000000cH
  00014	8d bf 8c 0c 00
	00		 lea	 edi, DWORD PTR ?gObj@@3PAUOBJECTSTRUCT@@A[edi+3212]
  0001a	be e0 07 00 00	 mov	 esi, 2016		; 000007e0H
  0001f	90		 npad	 1
$LL7@CheckOverl:

; 190  : 	{
; 191  : 		if ( gObj[iIndex].pInventory[x].IsItem() == TRUE )

  00020	8b 0f		 mov	 ecx, DWORD PTR [edi]
  00022	03 ce		 add	 ecx, esi
  00024	e8 00 00 00 00	 call	 ?IsItem@CItem@@QAEHXZ	; CItem::IsItem
  00029	83 f8 01	 cmp	 eax, 1
  0002c	75 33		 jne	 SHORT $LN6@CheckOverl

; 192  : 		{
; 193  : 			if ( gObj[iIndex].pInventory[x].m_Type == ITEMGET(14,21) )

  0002e	8b 07		 mov	 eax, DWORD PTR [edi]
  00030	b9 15 1c 00 00	 mov	 ecx, 7189		; 00001c15H
  00035	66 39 4c 30 06	 cmp	 WORD PTR [eax+esi+6], cx
  0003a	75 25		 jne	 SHORT $LN6@CheckOverl

; 194  : 			{
; 195  : 				if ( gObj[iIndex].pInventory[x].m_Level == 3 )

  0003c	66 83 7c 30 08
	03		 cmp	 WORD PTR [eax+esi+8], 3
  00042	75 1d		 jne	 SHORT $LN6@CheckOverl

; 196  : 				{
; 197  : 					int op = gObj[iIndex].pInventory[x].m_Durability;

  00044	d9 44 30 24	 fld	 DWORD PTR [eax+esi+36]
  00048	e8 00 00 00 00	 call	 __ftol2_sse

; 198  : 
; 199  : 					if ( ITEM_DUR_RANGE(op) != FALSE)

  0004d	85 c0		 test	 eax, eax
  0004f	78 10		 js	 SHORT $LN6@CheckOverl
  00051	33 d2		 xor	 edx, edx
  00053	3d fe 00 00 00	 cmp	 eax, 254		; 000000feH
  00058	0f 9e c2	 setle	 dl
  0005b	8b c2		 mov	 eax, edx
  0005d	85 c0		 test	 eax, eax
  0005f	75 19		 jne	 SHORT $LN13@CheckOverl
$LN6@CheckOverl:

; 189  : 	for ( int x=INVENTORY_BAG_START;x<MAIN_INVENTORY_SIZE;x++)

  00061	81 c6 a8 00 00
	00		 add	 esi, 168		; 000000a8H
  00067	43		 inc	 ebx
  00068	81 fe e0 31 00
	00		 cmp	 esi, 12768		; 000031e0H
  0006e	7c b0		 jl	 SHORT $LL7@CheckOverl

; 202  : 					}
; 203  : 				}
; 204  : 			}
; 205  : 		}
; 206  : 	}
; 207  : 
; 208  : 	return -1;

  00070	5f		 pop	 edi
  00071	5e		 pop	 esi
  00072	83 c8 ff	 or	 eax, -1
  00075	5b		 pop	 ebx

; 209  : }

  00076	5d		 pop	 ebp
  00077	c2 04 00	 ret	 4
$LN13@CheckOverl:
  0007a	5f		 pop	 edi
  0007b	5e		 pop	 esi

; 200  : 					{
; 201  : 						return x;

  0007c	8b c3		 mov	 eax, ebx
  0007e	5b		 pop	 ebx

; 209  : }

  0007f	5d		 pop	 ebp
  00080	c2 04 00	 ret	 4
?CheckOverlapCsMarks@CCastleSiegeSync@@QAEHH@Z ENDP	; CCastleSiegeSync::CheckOverlapCsMarks
_TEXT	ENDS
PUBLIC	??0CCastleSiegeSync@@QAE@XZ			; CCastleSiegeSync::CCastleSiegeSync
; Function compile flags: /Ogtp
;	COMDAT ??0CCastleSiegeSync@@QAE@XZ
_TEXT	SEGMENT
??0CCastleSiegeSync@@QAE@XZ PROC			; CCastleSiegeSync::CCastleSiegeSync, COMDAT
; _this$ = ecx

; 12   : {

  00000	c7 01 00 00 00
	00		 mov	 DWORD PTR [ecx], OFFSET ??_7CCastleSiegeSync@@6B@

; 13   : 	this->Clear();

  00006	e8 00 00 00 00	 call	 ?Clear@CCastleSiegeSync@@QAEXXZ ; CCastleSiegeSync::Clear

; 14   : }

  0000b	8b c1		 mov	 eax, ecx
  0000d	c3		 ret	 0
??0CCastleSiegeSync@@QAE@XZ ENDP			; CCastleSiegeSync::CCastleSiegeSync
_TEXT	ENDS
EXTRN	??3@YAXPAX@Z:PROC				; operator delete
; Function compile flags: /Ogtp
;	COMDAT ??_GCCastleSiegeSync@@UAEPAXI@Z
_TEXT	SEGMENT
___flags$ = 8						; size = 4
??_GCCastleSiegeSync@@UAEPAXI@Z PROC			; CCastleSiegeSync::`scalar deleting destructor', COMDAT
; _this$ = ecx
  00000	55		 push	 ebp
  00001	8b ec		 mov	 ebp, esp
  00003	56		 push	 esi
  00004	8b f1		 mov	 esi, ecx
  00006	e8 00 00 00 00	 call	 ??1CCastleSiegeSync@@UAE@XZ ; CCastleSiegeSync::~CCastleSiegeSync
  0000b	f6 45 08 01	 test	 BYTE PTR ___flags$[ebp], 1
  0000f	74 09		 je	 SHORT $LN4@scalar
  00011	56		 push	 esi
  00012	e8 00 00 00 00	 call	 ??3@YAXPAX@Z		; operator delete
  00017	83 c4 04	 add	 esp, 4
$LN4@scalar:
  0001a	8b c6		 mov	 eax, esi
  0001c	5e		 pop	 esi
  0001d	5d		 pop	 ebp
  0001e	c2 04 00	 ret	 4
??_GCCastleSiegeSync@@UAEPAXI@Z ENDP			; CCastleSiegeSync::`scalar deleting destructor'
_TEXT	ENDS
PUBLIC	?GetTaxRateChaos@CCastleSiegeSync@@QAEHH@Z	; CCastleSiegeSync::GetTaxRateChaos
; Function compile flags: /Ogtp
;	COMDAT ?GetTaxRateChaos@CCastleSiegeSync@@QAEHH@Z
_TEXT	SEGMENT
_iIndex$ = 8						; size = 4
?GetTaxRateChaos@CCastleSiegeSync@@QAEHH@Z PROC		; CCastleSiegeSync::GetTaxRateChaos, COMDAT
; _this$ = ecx

; 44   : {

  00000	55		 push	 ebp
  00001	8b ec		 mov	 ebp, esp
  00003	53		 push	 ebx
  00004	56		 push	 esi
  00005	57		 push	 edi

; 45   : 	int iCurTaxRateChaos = this->m_iCurTaxRateChaos;
; 46   : 
; 47   : 	if ( this->CheckCastleOwnerMember(iIndex) == TRUE || this->CheckCastleOwnerUnionMember(iIndex) == TRUE )

  00006	8b 7d 08	 mov	 edi, DWORD PTR _iIndex$[ebp]
  00009	8b f1		 mov	 esi, ecx
  0000b	8b 5e 08	 mov	 ebx, DWORD PTR [esi+8]
  0000e	57		 push	 edi
  0000f	e8 00 00 00 00	 call	 ?CheckCastleOwnerMember@CCastleSiegeSync@@QAEHH@Z ; CCastleSiegeSync::CheckCastleOwnerMember
  00014	83 f8 01	 cmp	 eax, 1
  00017	74 0d		 je	 SHORT $LN1@GetTaxRate
  00019	57		 push	 edi
  0001a	8b ce		 mov	 ecx, esi
  0001c	e8 00 00 00 00	 call	 ?CheckCastleOwnerUnionMember@CCastleSiegeSync@@QAEHH@Z ; CCastleSiegeSync::CheckCastleOwnerUnionMember
  00021	83 f8 01	 cmp	 eax, 1
  00024	75 09		 jne	 SHORT $LN5@GetTaxRate
$LN1@GetTaxRate:
  00026	5f		 pop	 edi
  00027	5e		 pop	 esi

; 48   : 	{
; 49   : 		iCurTaxRateChaos = 0;

  00028	33 c0		 xor	 eax, eax
  0002a	5b		 pop	 ebx

; 53   : }

  0002b	5d		 pop	 ebp
  0002c	c2 04 00	 ret	 4
$LN5@GetTaxRate:
  0002f	5f		 pop	 edi
  00030	5e		 pop	 esi

; 50   : 	}
; 51   : 
; 52   : 	return iCurTaxRateChaos;

  00031	8b c3		 mov	 eax, ebx
  00033	5b		 pop	 ebx

; 53   : }

  00034	5d		 pop	 ebp
  00035	c2 04 00	 ret	 4
?GetTaxRateChaos@CCastleSiegeSync@@QAEHH@Z ENDP		; CCastleSiegeSync::GetTaxRateChaos
_TEXT	ENDS
PUBLIC	?GetTaxRateStore@CCastleSiegeSync@@QAEHH@Z	; CCastleSiegeSync::GetTaxRateStore
; Function compile flags: /Ogtp
;	COMDAT ?GetTaxRateStore@CCastleSiegeSync@@QAEHH@Z
_TEXT	SEGMENT
_iIndex$ = 8						; size = 4
?GetTaxRateStore@CCastleSiegeSync@@QAEHH@Z PROC		; CCastleSiegeSync::GetTaxRateStore, COMDAT
; _this$ = ecx

; 57   : {

  00000	55		 push	 ebp
  00001	8b ec		 mov	 ebp, esp
  00003	53		 push	 ebx
  00004	56		 push	 esi
  00005	57		 push	 edi

; 58   : 	int iCurTaxRateStore = this->m_iCurTaxRateStore;
; 59   : 
; 60   : 	if ( this->CheckCastleOwnerMember(iIndex) == TRUE || this->CheckCastleOwnerUnionMember(iIndex) == TRUE )

  00006	8b 7d 08	 mov	 edi, DWORD PTR _iIndex$[ebp]
  00009	8b f1		 mov	 esi, ecx
  0000b	8b 5e 0c	 mov	 ebx, DWORD PTR [esi+12]
  0000e	57		 push	 edi
  0000f	e8 00 00 00 00	 call	 ?CheckCastleOwnerMember@CCastleSiegeSync@@QAEHH@Z ; CCastleSiegeSync::CheckCastleOwnerMember
  00014	83 f8 01	 cmp	 eax, 1
  00017	74 0d		 je	 SHORT $LN1@GetTaxRate@2
  00019	57		 push	 edi
  0001a	8b ce		 mov	 ecx, esi
  0001c	e8 00 00 00 00	 call	 ?CheckCastleOwnerUnionMember@CCastleSiegeSync@@QAEHH@Z ; CCastleSiegeSync::CheckCastleOwnerUnionMember
  00021	83 f8 01	 cmp	 eax, 1
  00024	75 09		 jne	 SHORT $LN5@GetTaxRate@2
$LN1@GetTaxRate@2:
  00026	5f		 pop	 edi
  00027	5e		 pop	 esi

; 61   : 	{
; 62   : 		iCurTaxRateStore = 0;

  00028	33 c0		 xor	 eax, eax
  0002a	5b		 pop	 ebx

; 66   : }

  0002b	5d		 pop	 ebp
  0002c	c2 04 00	 ret	 4
$LN5@GetTaxRate@2:
  0002f	5f		 pop	 edi
  00030	5e		 pop	 esi

; 63   : 	}
; 64   : 
; 65   : 	return iCurTaxRateStore;

  00031	8b c3		 mov	 eax, ebx
  00033	5b		 pop	 ebx

; 66   : }

  00034	5d		 pop	 ebp
  00035	c2 04 00	 ret	 4
?GetTaxRateStore@CCastleSiegeSync@@QAEHH@Z ENDP		; CCastleSiegeSync::GetTaxRateStore
_TEXT	ENDS
PUBLIC	?GetTaxHuntZone@CCastleSiegeSync@@QAEHHH@Z	; CCastleSiegeSync::GetTaxHuntZone
; Function compile flags: /Ogtp
;	COMDAT ?GetTaxHuntZone@CCastleSiegeSync@@QAEHHH@Z
_TEXT	SEGMENT
_iIndex$ = 8						; size = 4
_bCheckOwnerGuild$ = 12					; size = 4
?GetTaxHuntZone@CCastleSiegeSync@@QAEHHH@Z PROC		; CCastleSiegeSync::GetTaxHuntZone, COMDAT
; _this$ = ecx

; 69   : {

  00000	55		 push	 ebp
  00001	8b ec		 mov	 ebp, esp

; 70   : 	int iCurTaxHuntZone = this->m_iCurTaxHuntZone;
; 71   : 
; 72   : 	if ( bCheckOwnerGuild == TRUE )

  00003	83 7d 0c 01	 cmp	 DWORD PTR _bCheckOwnerGuild$[ebp], 1
  00007	53		 push	 ebx
  00008	56		 push	 esi
  00009	8b f1		 mov	 esi, ecx
  0000b	8b 5e 10	 mov	 ebx, DWORD PTR [esi+16]
  0000e	75 2e		 jne	 SHORT $LN7@GetTaxHunt

; 73   : 	{
; 74   : 		if ( this->CheckCastleOwnerMember(iIndex) == TRUE || this->CheckCastleOwnerUnionMember(iIndex) == TRUE )

  00010	57		 push	 edi
  00011	8b 7d 08	 mov	 edi, DWORD PTR _iIndex$[ebp]
  00014	57		 push	 edi
  00015	e8 00 00 00 00	 call	 ?CheckCastleOwnerMember@CCastleSiegeSync@@QAEHH@Z ; CCastleSiegeSync::CheckCastleOwnerMember
  0001a	83 f8 01	 cmp	 eax, 1
  0001d	74 0d		 je	 SHORT $LN1@GetTaxHunt
  0001f	57		 push	 edi
  00020	8b ce		 mov	 ecx, esi
  00022	e8 00 00 00 00	 call	 ?CheckCastleOwnerUnionMember@CCastleSiegeSync@@QAEHH@Z ; CCastleSiegeSync::CheckCastleOwnerUnionMember
  00027	83 f8 01	 cmp	 eax, 1
  0002a	75 09		 jne	 SHORT $LN6@GetTaxHunt
$LN1@GetTaxHunt:
  0002c	5f		 pop	 edi
  0002d	5e		 pop	 esi

; 75   : 		{
; 76   : 			iCurTaxHuntZone = 0;

  0002e	33 c0		 xor	 eax, eax
  00030	5b		 pop	 ebx

; 81   : }

  00031	5d		 pop	 ebp
  00032	c2 08 00	 ret	 8
$LN6@GetTaxHunt:
  00035	5f		 pop	 edi
  00036	5e		 pop	 esi

; 77   : 		}
; 78   : 	}
; 79   : 
; 80   : 	return iCurTaxHuntZone;

  00037	8b c3		 mov	 eax, ebx
  00039	5b		 pop	 ebx

; 81   : }

  0003a	5d		 pop	 ebp
  0003b	c2 08 00	 ret	 8
$LN7@GetTaxHunt:
  0003e	5e		 pop	 esi

; 77   : 		}
; 78   : 	}
; 79   : 
; 80   : 	return iCurTaxHuntZone;

  0003f	8b c3		 mov	 eax, ebx
  00041	5b		 pop	 ebx

; 81   : }

  00042	5d		 pop	 ebp
  00043	c2 08 00	 ret	 8
?GetTaxHuntZone@CCastleSiegeSync@@QAEHHH@Z ENDP		; CCastleSiegeSync::GetTaxHuntZone
_TEXT	ENDS
EXTRN	_atexit:PROC
; Function compile flags: /Ogtp
;	COMDAT ??__Eg_CastleSiegeSync@@YAXXZ
text$yc	SEGMENT
??__Eg_CastleSiegeSync@@YAXXZ PROC			; `dynamic initializer for 'g_CastleSiegeSync'', COMDAT

; 212  : CCastleSiegeSync g_CastleSiegeSync;

  00000	b9 00 00 00 00	 mov	 ecx, OFFSET ?g_CastleSiegeSync@@3VCCastleSiegeSync@@A ; g_CastleSiegeSync
  00005	e8 00 00 00 00	 call	 ??0CCastleSiegeSync@@QAE@XZ ; CCastleSiegeSync::CCastleSiegeSync
  0000a	68 00 00 00 00	 push	 OFFSET ??__Fg_CastleSiegeSync@@YAXXZ ; `dynamic atexit destructor for 'g_CastleSiegeSync''
  0000f	e8 00 00 00 00	 call	 _atexit
  00014	59		 pop	 ecx
  00015	c3		 ret	 0
??__Eg_CastleSiegeSync@@YAXXZ ENDP			; `dynamic initializer for 'g_CastleSiegeSync''
; Function compile flags: /Ogtp
text$yc	ENDS
;	COMDAT ??__Fg_CastleSiegeSync@@YAXXZ
text$yd	SEGMENT
??__Fg_CastleSiegeSync@@YAXXZ PROC			; `dynamic atexit destructor for 'g_CastleSiegeSync'', COMDAT
  00000	b9 00 00 00 00	 mov	 ecx, OFFSET ?g_CastleSiegeSync@@3VCCastleSiegeSync@@A ; g_CastleSiegeSync
  00005	e9 00 00 00 00	 jmp	 ??1CCastleSiegeSync@@UAE@XZ ; CCastleSiegeSync::~CCastleSiegeSync
??__Fg_CastleSiegeSync@@YAXXZ ENDP			; `dynamic atexit destructor for 'g_CastleSiegeSync''
text$yd	ENDS
PUBLIC	?g_CastleSiegeSync@@3VCCastleSiegeSync@@A	; g_CastleSiegeSync
_BSS	SEGMENT
?g_CastleSiegeSync@@3VCCastleSiegeSync@@A DB 02cH DUP (?) ; g_CastleSiegeSync
_BSS	ENDS
CRT$XCU	SEGMENT
_g_CastleSiegeSync$initializer$ DD FLAT:??__Eg_CastleSiegeSync@@YAXXZ
CRT$XCU	ENDS
END
