; Listing generated by Microsoft (R) Optimizing Compiler Version 16.00.30319.01 

	TITLE	C:\Users\faelhs\mu-1.1\eMu - GameServer Sapphire S0\GameServer\ChaosCastle.cpp
	.686P
	.XMM
	include listing.inc
	.model	flat

INCLUDELIB LIBCMT
INCLUDELIB OLDNAMES

PUBLIC	?g_iChaosCastle_OffLineGiftRate@@3HA		; g_iChaosCastle_OffLineGiftRate
CONST	SEGMENT
_g_btCastleSafetyZoneMapXY DB 017H
	DB	04bH
	DB	02cH
	DB	06cH
	DB	017H
	DB	04bH
	DB	02cH
	DB	06cH
	DB	017H
	DB	04bH
	DB	02cH
	DB	06cH
	DB	017H
	DB	04bH
	DB	02cH
	DB	06cH
	DB	017H
	DB	04bH
	DB	02cH
	DB	06cH
	DB	017H
	DB	04bH
	DB	02cH
	DB	06cH
_g_btCastleCenterHollowZoneMapXY DB 020H
	DB	054H
	DB	023H
	DB	057H
	DB	020H
	DB	060H
	DB	023H
	DB	063H
	DB	020H
	DB	054H
	DB	023H
	DB	057H
	DB	020H
	DB	060H
	DB	023H
	DB	063H
	DB	020H
	DB	054H
	DB	023H
	DB	057H
	DB	020H
	DB	060H
	DB	023H
	DB	063H
	DB	020H
	DB	054H
	DB	023H
	DB	057H
	DB	020H
	DB	060H
	DB	023H
	DB	063H
	DB	020H
	DB	054H
	DB	023H
	DB	057H
	DB	020H
	DB	060H
	DB	023H
	DB	063H
	DB	020H
	DB	054H
	DB	023H
	DB	057H
	DB	020H
	DB	060H
	DB	023H
	DB	063H
_g_iChaosCastle_ExpTable DD 01f4H
	DD	03e8H
	DD	03e8H
	DD	05dcH
	DD	05dcH
	DD	07d0H
	DD	07d0H
	DD	09c4H
	DD	09c4H
	DD	0bb8H
	DD	0bb8H
	DD	0dacH
CONST	ENDS
_DATA	SEGMENT
_g_sttBLOODCASTLE_LEVEL DD 0fH
	DD	050H
	DD	0aH
	DD	03cH
	DD	051H
	DD	082H
	DD	03dH
	DD	06eH
	DD	083H
	DD	0b4H
	DD	06fH
	DD	0a0H
	DD	0b5H
	DD	0e6H
	DD	0a1H
	DD	0d2H
	DD	0e7H
	DD	0118H
	DD	0d3H
	DD	0104H
	DD	0119H
	DD	014aH
	DD	0105H
	DD	0136H
	DD	014bH
	DD	0190H
	DD	0137H
	DD	0190H
_g_sttCHAOSCASTLE_LEVEL DD 0aH
	DD	031H
	DD	0aH
	DD	01dH
	DD	032H
	DD	077H
	DD	01eH
	DD	063H
	DD	078H
	DD	0b3H
	DD	064H
	DD	09fH
	DD	0b4H
	DD	0efH
	DD	0a0H
	DD	0dbH
	DD	0f0H
	DD	012bH
	DD	0dcH
	DD	0117H
	DD	012cH
	DD	0190H
	DD	0118H
	DD	0190H
_g_iChaosCastle_BlowOutDistance DD 03H
	DD	04H
	DD	03H
	DD	04H
	DD	02H
	DD	03H
	DD	00H
	DD	01H
_g_iChaosCastle_BlowOutDamage DD 0fH
	DD	0fH
	DD	0aH
	DD	05H
_g_iChaosCastle_EnterCost DD 061a8H
	DD	013880H
	DD	0249f0H
	DD	03d090H
	DD	061a80H
	DD	09eb10H
_g_iChaosCastle_GuardSetValue DD 09c4H
	DD	09c4H
	DD	09c4H
	DD	09c4H
	DD	09c4H
	DD	09c4H
_g_iChaosCastle_MonsterItems DD 01c0dH
	DD	01H
	DD	01c0eH
	DD	01H
	DD	01c0dH
	DD	01H
	DD	01c0eH
	DD	01H
	DD	01c0dH
	DD	01H
	DD	01c0eH
	DD	01H
	DD	01c0dH
	DD	01H
	DD	01c0eH
	DD	01H
	DD	01c0dH
	DD	01H
	DD	01c0eH
	DD	02H
	DD	01c0dH
	DD	01H
	DD	01c0eH
	DD	02H
_g_iChaosCastle_GroundAxis DD 017H
	DD	04bH
	DD	02cH
	DD	06cH
_g_iChaosCastle_DamageAxis DD 017H
	DD	04bH
	DD	02cH
	DD	06cH
	DD	019H
	DD	04dH
	DD	02aH
	DD	06aH
	DD	01bH
	DD	04fH
	DD	028H
	DD	068H
	DD	01dH
	DD	051H
	DD	026H
	DD	066H
_g_iChaosCastle_MapHollowZone DD 017H
	DD	04bH
	DD	02cH
	DD	04cH
	DD	02bH
	DD	04dH
	DD	02cH
	DD	06cH
	DD	017H
	DD	06bH
	DD	02aH
	DD	06cH
	DD	017H
	DD	04dH
	DD	018H
	DD	06aH
	DD	017H
	DD	04bH
	DD	02cH
	DD	04cH
	DD	02bH
	DD	04dH
	DD	02cH
	DD	06cH
	DD	017H
	DD	06bH
	DD	02aH
	DD	06cH
	DD	017H
	DD	04dH
	DD	018H
	DD	06aH
	DD	019H
	DD	04dH
	DD	02aH
	DD	04eH
	DD	029H
	DD	04fH
	DD	02aH
	DD	06aH
	DD	019H
	DD	069H
	DD	028H
	DD	06aH
	DD	019H
	DD	04fH
	DD	01aH
	DD	068H
	DD	01bH
	DD	04fH
	DD	028H
	DD	050H
	DD	027H
	DD	051H
	DD	028H
	DD	068H
	DD	01bH
	DD	067H
	DD	026H
	DD	068H
	DD	01bH
	DD	051H
	DD	01cH
	DD	066H
?g_iChaosCastle_OffLineGiftRate@@3HA DD 02H		; g_iChaosCastle_OffLineGiftRate
_DATA	ENDS
PUBLIC	??0_MONSTER_ITEM_DROP@@QAE@XZ			; _MONSTER_ITEM_DROP::_MONSTER_ITEM_DROP
; Function compile flags: /Ogtp
; File c:\users\faelhs\mu-1.1\emu - gameserver sapphire s0\gameserver\chaoscastle.h
;	COMDAT ??0_MONSTER_ITEM_DROP@@QAE@XZ
_TEXT	SEGMENT
??0_MONSTER_ITEM_DROP@@QAE@XZ PROC			; _MONSTER_ITEM_DROP::_MONSTER_ITEM_DROP, COMDAT
; _this$ = ecx

; 123  : 	_MONSTER_ITEM_DROP()	// line : 229

  00000	8b c1		 mov	 eax, ecx

; 124  : 	{
; 125  : 		this->m_iIndex = -1;

  00002	c7 00 ff ff ff
	ff		 mov	 DWORD PTR [eax], -1

; 126  : 		this->m_iItemKind = -1;

  00008	c7 40 04 ff ff
	ff ff		 mov	 DWORD PTR [eax+4], -1

; 127  : 	};	// line : 232

  0000f	c3		 ret	 0
??0_MONSTER_ITEM_DROP@@QAE@XZ ENDP			; _MONSTER_ITEM_DROP::_MONSTER_ITEM_DROP
_TEXT	ENDS
PUBLIC	?Clear@_CHAOSCASTLE_USER@@QAEXXZ		; _CHAOSCASTLE_USER::Clear
; Function compile flags: /Ogtp
;	COMDAT ?Clear@_CHAOSCASTLE_USER@@QAEXXZ
_TEXT	SEGMENT
?Clear@_CHAOSCASTLE_USER@@QAEXXZ PROC			; _CHAOSCASTLE_USER::Clear, COMDAT
; _this$ = ecx

; 146  : 		this->m_iIndex = -1;
; 147  : 		this->m_iEXP = 0;

  00000	33 c0		 xor	 eax, eax
  00002	c7 01 ff ff ff
	ff		 mov	 DWORD PTR [ecx], -1
  00008	89 41 04	 mov	 DWORD PTR [ecx+4], eax

; 148  : 		this->m_iScore = 0;

  0000b	89 41 08	 mov	 DWORD PTR [ecx+8], eax

; 149  : 		this->m_iUserState = 0;

  0000e	89 41 0c	 mov	 DWORD PTR [ecx+12], eax

; 150  : 		this->m_bSendQuitMsg = false;

  00011	88 41 10	 mov	 BYTE PTR [ecx+16], al

; 151  : 	};	// line : 348

  00014	c3		 ret	 0
?Clear@_CHAOSCASTLE_USER@@QAEXXZ ENDP			; _CHAOSCASTLE_USER::Clear
_TEXT	ENDS
PUBLIC	??2@YAPAXIPAX@Z					; operator new
; Function compile flags: /Ogtp
; File c:\program files (x86)\microsoft visual studio 10.0\vc\include\new.h
;	COMDAT ??2@YAPAXIPAX@Z
_TEXT	SEGMENT
___formal$ = 8						; size = 4
__Where$ = 12						; size = 4
??2@YAPAXIPAX@Z PROC					; operator new, COMDAT

; 81   :         {return (_Where); }

  00000	55		 push	 ebp
  00001	8b ec		 mov	 ebp, esp
  00003	8b 45 0c	 mov	 eax, DWORD PTR __Where$[ebp]
  00006	5d		 pop	 ebp
  00007	c3		 ret	 0
??2@YAPAXIPAX@Z ENDP					; operator new
_TEXT	ENDS
PUBLIC	??3@YAXPAX0@Z					; operator delete
; Function compile flags: /Ogtp
;	COMDAT ??3@YAXPAX0@Z
_TEXT	SEGMENT
___formal$ = 8						; size = 4
___formal$ = 12						; size = 4
??3@YAXPAX0@Z PROC					; operator delete, COMDAT

; 83   :         {return; }

  00000	c3		 ret	 0
??3@YAXPAX0@Z ENDP					; operator delete
_TEXT	ENDS
PUBLIC	__$ArrayPad$
EXTRN	_isalnum:PROC
EXTRN	_isalpha:PROC
EXTRN	_atof:PROC
EXTRN	_isdigit:PROC
EXTRN	_getc:PROC
EXTRN	_ungetc:PROC
EXTRN	_isspace:PROC
EXTRN	_fgetc:PROC
EXTRN	___security_cookie:DWORD
EXTRN	__fltused:DWORD
EXTRN	@__security_check_cookie@4:PROC
_BSS	SEGMENT
_CurrentToken DD 01H DUP (?)
_TokenNumber DD	01H DUP (?)
_SMDFile DD	01H DUP (?)
_TokenString DB	064H DUP (?)
; Function compile flags: /Ogtp
; File c:\users\faelhs\mu-1.1\emu - gameserver sapphire s0\include\readscript.h
_BSS	ENDS
;	COMDAT ?GetToken@@YA?AW4SMDToken@@XZ
_TEXT	SEGMENT
_TempString$ = -104					; size = 100
__$ArrayPad$ = -4					; size = 4
?GetToken@@YA?AW4SMDToken@@XZ PROC			; GetToken, COMDAT

; 24   : {

  00000	55		 push	 ebp
  00001	8b ec		 mov	 ebp, esp
  00003	83 ec 68	 sub	 esp, 104		; 00000068H
  00006	a1 00 00 00 00	 mov	 eax, DWORD PTR ___security_cookie
  0000b	33 c5		 xor	 eax, ebp
  0000d	89 45 fc	 mov	 DWORD PTR __$ArrayPad$[ebp], eax

; 25   : 	char ch;
; 26   : 	char* p;
; 27   : 	char TempString[100];
; 28   : 
; 29   : 	TokenString[0]=0;

  00010	c6 05 00 00 00
	00 00		 mov	 BYTE PTR _TokenString, 0
  00017	53		 push	 ebx
  00018	eb 06 8d 9b 00
	00 00 00	 npad	 8
$LL31@GetToken:

; 30   : 
; 31   : 	do
; 32   : 	{
; 33   : 		if ((ch=fgetc(SMDFile)) == -1)

  00020	a1 00 00 00 00	 mov	 eax, DWORD PTR _SMDFile
  00025	50		 push	 eax
  00026	e8 00 00 00 00	 call	 _fgetc
  0002b	8a d8		 mov	 bl, al
  0002d	83 c4 04	 add	 esp, 4
  00030	80 fb ff	 cmp	 bl, -1
  00033	74 64		 je	 SHORT $LN39@GetToken

; 36   : 		}
; 37   : 		else
; 38   : 		{	
; 39   : 			if (ch=='/')		// this is /

  00035	80 fb 2f	 cmp	 bl, 47			; 0000002fH
  00038	75 31		 jne	 SHORT $LN30@GetToken

; 40   : 			{
; 41   : 				if((ch=fgetc(SMDFile)) == '/')

  0003a	8b 0d 00 00 00
	00		 mov	 ecx, DWORD PTR _SMDFile
  00040	51		 push	 ecx
  00041	e8 00 00 00 00	 call	 _fgetc
  00046	8a d8		 mov	 bl, al
  00048	83 c4 04	 add	 esp, 4
  0004b	80 fb 2f	 cmp	 bl, 47			; 0000002fH
  0004e	75 1b		 jne	 SHORT $LN30@GetToken
$LL24@GetToken:

; 42   : 				{
; 43   : 					while ((ch != '\n') && (ch != -1))	// End of Line (EOL)

  00050	80 fb ff	 cmp	 bl, -1
  00053	74 44		 je	 SHORT $LN39@GetToken

; 44   : 					{
; 45   : 						ch=fgetc(SMDFile);

  00055	8b 15 00 00 00
	00		 mov	 edx, DWORD PTR _SMDFile
  0005b	52		 push	 edx
  0005c	e8 00 00 00 00	 call	 _fgetc
  00061	8a d8		 mov	 bl, al
  00063	83 c4 04	 add	 esp, 4
  00066	80 fb 0a	 cmp	 bl, 10			; 0000000aH
  00069	75 e5		 jne	 SHORT $LL24@GetToken
$LN30@GetToken:

; 46   : 					}
; 47   : 	
; 48   : 					if (ch == -1)
; 49   : 					{
; 50   : 						return END;	// End of FILE
; 51   : 					}
; 52   : 				}
; 53   : 			}
; 54   : 		}
; 55   : 	}
; 56   : 	while (isspace(ch) != 0);

  0006b	0f be c3	 movsx	 eax, bl
  0006e	50		 push	 eax
  0006f	e8 00 00 00 00	 call	 _isspace
  00074	83 c4 04	 add	 esp, 4
  00077	85 c0		 test	 eax, eax
  00079	75 a5		 jne	 SHORT $LL31@GetToken

; 57   : 
; 58   : 	
; 59   : 	switch(ch)

  0007b	0f be c3	 movsx	 eax, bl
  0007e	8d 48 de	 lea	 ecx, DWORD PTR [eax-34]
  00081	56		 push	 esi
  00082	83 f9 5b	 cmp	 ecx, 91			; 0000005bH
  00085	0f 87 2b 01 00
	00		 ja	 $LN6@GetToken
  0008b	0f b6 89 00 00
	00 00		 movzx	 ecx, BYTE PTR $LN46@GetToken[ecx]
  00092	ff 24 8d 00 00
	00 00		 jmp	 DWORD PTR $LN50@GetToken[ecx*4]
$LN39@GetToken:

; 34   : 		{
; 35   : 			return END;	// End of FILE (EOF)

  00099	b8 02 00 00 00	 mov	 eax, 2
  0009e	5b		 pop	 ebx

; 147  : 		}
; 148  : 		break;
; 149  : 
; 150  : 	}
; 151  : 
; 152  : 	return NAME;
; 153  : }

  0009f	8b 4d fc	 mov	 ecx, DWORD PTR __$ArrayPad$[ebp]
  000a2	33 cd		 xor	 ecx, ebp
  000a4	e8 00 00 00 00	 call	 @__security_check_cookie@4
  000a9	8b e5		 mov	 esp, ebp
  000ab	5d		 pop	 ebp
  000ac	c3		 ret	 0
$LN19@GetToken:

; 60   : 	{
; 61   : 
; 62   : 	case 0x23:	// #
; 63   : 		return CurrentToken=COMMAND;

  000ad	b8 23 00 00 00	 mov	 eax, 35			; 00000023H
  000b2	e9 99 01 00 00	 jmp	 $LN48@GetToken
$LN18@GetToken:

; 64   : 		break;
; 65   : 	
; 66   : 	case 0x3B:	// ;
; 67   : 		return CurrentToken=SEMICOLON;

  000b7	b8 3b 00 00 00	 mov	 eax, 59			; 0000003bH
  000bc	e9 8f 01 00 00	 jmp	 $LN48@GetToken
$LN17@GetToken:

; 68   : 		break;
; 69   : 	
; 70   : 	case 0x2C:	// ,
; 71   : 
; 72   : 		return CurrentToken=COMMA;

  000c1	b8 2c 00 00 00	 mov	 eax, 44			; 0000002cH
  000c6	e9 85 01 00 00	 jmp	 $LN48@GetToken
$LN16@GetToken:

; 73   : 		break;
; 74   : 	
; 75   : 	case 0x7B:	// {
; 76   : 		return CurrentToken = LP;

  000cb	b8 7b 00 00 00	 mov	 eax, 123		; 0000007bH
  000d0	e9 7b 01 00 00	 jmp	 $LN48@GetToken
$LN15@GetToken:

; 77   : 		break;
; 78   : 
; 79   : 	case 0x7D:	// }
; 80   : 		return CurrentToken = RP;

  000d5	b8 7d 00 00 00	 mov	 eax, 125		; 0000007dH
  000da	e9 71 01 00 00	 jmp	 $LN48@GetToken
$LN14@GetToken:

; 81   : 		break;
; 82   : 	// Nice Index Table :)	by Deathway
; 83   : 	// Numbers Case
; 84   : 	case 0x2D:	//-
; 85   : 	case 0x2E:	//.
; 86   : 	case '0':	//0
; 87   : 	case '1':	//1
; 88   : 	case '2':	//2
; 89   : 	case '3':	//3
; 90   : 	case '4':	//4		
; 91   : 	case '5':	//5
; 92   : 	case '6':	//6
; 93   : 	case '7':	//7
; 94   : 	case '8':	//8
; 95   : 	case '9':	//9
; 96   : 		ungetc(ch, SMDFile);

  000df	8b 15 00 00 00
	00		 mov	 edx, DWORD PTR _SMDFile
  000e5	52		 push	 edx
  000e6	50		 push	 eax
  000e7	e8 00 00 00 00	 call	 _ungetc

; 97   : 		p = TempString;
; 98   : 		
; 99   : 		while (((ch=getc(SMDFile)) != -1) && ((ch == 0x2E) || (isdigit(ch) != 0) || (ch == 0x2D)))  // 2e '.'  2D '-'

  000ec	a1 00 00 00 00	 mov	 eax, DWORD PTR _SMDFile
  000f1	50		 push	 eax
  000f2	8d 75 98	 lea	 esi, DWORD PTR _TempString$[ebp]
  000f5	e8 00 00 00 00	 call	 _getc
  000fa	8a d8		 mov	 bl, al
  000fc	83 c4 0c	 add	 esp, 12			; 0000000cH
  000ff	80 fb ff	 cmp	 bl, -1
  00102	74 33		 je	 SHORT $LN12@GetToken
$LL13@GetToken:
  00104	80 fb 2e	 cmp	 bl, 46			; 0000002eH
  00107	74 15		 je	 SHORT $LN11@GetToken
  00109	0f be cb	 movsx	 ecx, bl
  0010c	51		 push	 ecx
  0010d	e8 00 00 00 00	 call	 _isdigit
  00112	83 c4 04	 add	 esp, 4
  00115	85 c0		 test	 eax, eax
  00117	75 05		 jne	 SHORT $LN11@GetToken
  00119	80 fb 2d	 cmp	 bl, 45			; 0000002dH
  0011c	75 19		 jne	 SHORT $LN12@GetToken
$LN11@GetToken:
  0011e	8b 15 00 00 00
	00		 mov	 edx, DWORD PTR _SMDFile

; 100  : 		{
; 101  : 			*p = ch;	// Construct a String

  00124	88 1e		 mov	 BYTE PTR [esi], bl
  00126	52		 push	 edx

; 102  : 			p++;

  00127	46		 inc	 esi
  00128	e8 00 00 00 00	 call	 _getc
  0012d	8a d8		 mov	 bl, al
  0012f	83 c4 04	 add	 esp, 4
  00132	80 fb ff	 cmp	 bl, -1
  00135	75 cd		 jne	 SHORT $LL13@GetToken
$LN12@GetToken:

; 103  : 		}		
; 104  : 		*p = 0;
; 105  : 		TokenNumber = atof( TempString);	// Select the first Byte as Main ID

  00137	8d 45 98	 lea	 eax, DWORD PTR _TempString$[ebp]
  0013a	50		 push	 eax
  0013b	c6 06 00	 mov	 BYTE PTR [esi], 0
  0013e	e8 00 00 00 00	 call	 _atof
  00143	d9 1d 00 00 00
	00		 fstp	 DWORD PTR _TokenNumber
  00149	83 c4 04	 add	 esp, 4
  0014c	5e		 pop	 esi

; 106  : 		return CurrentToken  = NUMBER ;

  0014d	c7 05 00 00 00
	00 01 00 00 00	 mov	 DWORD PTR _CurrentToken, 1
  00157	b8 01 00 00 00	 mov	 eax, 1
  0015c	5b		 pop	 ebx

; 147  : 		}
; 148  : 		break;
; 149  : 
; 150  : 	}
; 151  : 
; 152  : 	return NAME;
; 153  : }

  0015d	8b 4d fc	 mov	 ecx, DWORD PTR __$ArrayPad$[ebp]
  00160	33 cd		 xor	 ecx, ebp
  00162	e8 00 00 00 00	 call	 @__security_check_cookie@4
  00167	8b e5		 mov	 esp, ebp
  00169	5d		 pop	 ebp
  0016a	c3		 ret	 0
$LN10@GetToken:

; 107  : 		break;
; 108  : 
; 109  : 	case '\"':	// "	String Case
; 110  : 		p=&TokenString[0];
; 111  : 		
; 112  : 		while (((ch=getc(SMDFile)) != -1 ) && (ch != 0x22))	// nice

  0016b	8b 0d 00 00 00
	00		 mov	 ecx, DWORD PTR _SMDFile
  00171	51		 push	 ecx
  00172	be 00 00 00 00	 mov	 esi, OFFSET _TokenString
  00177	e8 00 00 00 00	 call	 _getc
  0017c	83 c4 04	 add	 esp, 4
  0017f	3c ff		 cmp	 al, -1
  00181	74 1e		 je	 SHORT $LN8@GetToken
$LL9@GetToken:
  00183	3c 22		 cmp	 al, 34			; 00000022H
  00185	0f 84 a1 00 00
	00		 je	 $LN7@GetToken
  0018b	8b 15 00 00 00
	00		 mov	 edx, DWORD PTR _SMDFile

; 113  : 		{
; 114  : 			*p = ch;

  00191	88 06		 mov	 BYTE PTR [esi], al
  00193	52		 push	 edx

; 115  : 			p++;

  00194	46		 inc	 esi
  00195	e8 00 00 00 00	 call	 _getc
  0019a	83 c4 04	 add	 esp, 4
  0019d	3c ff		 cmp	 al, -1
  0019f	75 e2		 jne	 SHORT $LL9@GetToken
$LN8@GetToken:

; 116  : 		}
; 117  : 		if (ch != 0x22 )

  001a1	3c 22		 cmp	 al, 34			; 00000022H
  001a3	0f 84 83 00 00
	00		 je	 $LN7@GetToken

; 118  : 		{
; 119  : 			ungetc(ch, SMDFile);

  001a9	8b 0d 00 00 00
	00		 mov	 ecx, DWORD PTR _SMDFile
  001af	0f be d0	 movsx	 edx, al
  001b2	51		 push	 ecx
  001b3	52		 push	 edx

; 120  : 		}
; 121  : 		*p = 0;
; 122  : 		return CurrentToken = NAME;

  001b4	eb 6e		 jmp	 SHORT $LN49@GetToken
$LN6@GetToken:

; 123  : 		break;
; 124  : 
; 125  : 	default:	// Others
; 126  : 		if (isalpha(ch))

  001b6	50		 push	 eax
  001b7	e8 00 00 00 00	 call	 _isalpha
  001bc	83 c4 04	 add	 esp, 4
  001bf	85 c0		 test	 eax, eax
  001c1	0f 84 84 00 00
	00		 je	 $LN5@GetToken

; 127  : 		{
; 128  : 			p=&TokenString[0];
; 129  : 			*p=ch;
; 130  : 			p++;
; 131  : 
; 132  : 			while ( ((ch=getc(SMDFile)) != -1) && ( (ch == 0x2E) || (ch == 0x5F) || (isalnum(ch) != 0) ) )

  001c7	a1 00 00 00 00	 mov	 eax, DWORD PTR _SMDFile
  001cc	50		 push	 eax
  001cd	88 1d 00 00 00
	00		 mov	 BYTE PTR _TokenString, bl
  001d3	be 01 00 00 00	 mov	 esi, OFFSET _TokenString+1
  001d8	e8 00 00 00 00	 call	 _getc
  001dd	8a d8		 mov	 bl, al
  001df	83 c4 04	 add	 esp, 4
  001e2	80 fb ff	 cmp	 bl, -1
  001e5	74 33		 je	 SHORT $LN3@GetToken
$LL4@GetToken:
  001e7	80 fb 2e	 cmp	 bl, 46			; 0000002eH
  001ea	74 15		 je	 SHORT $LN2@GetToken
  001ec	80 fb 5f	 cmp	 bl, 95			; 0000005fH
  001ef	74 10		 je	 SHORT $LN2@GetToken
  001f1	0f be cb	 movsx	 ecx, bl
  001f4	51		 push	 ecx
  001f5	e8 00 00 00 00	 call	 _isalnum
  001fa	83 c4 04	 add	 esp, 4
  001fd	85 c0		 test	 eax, eax
  001ff	74 19		 je	 SHORT $LN3@GetToken
$LN2@GetToken:
  00201	8b 15 00 00 00
	00		 mov	 edx, DWORD PTR _SMDFile

; 133  : 			{
; 134  : 				*p=ch;

  00207	88 1e		 mov	 BYTE PTR [esi], bl
  00209	52		 push	 edx

; 135  : 				p++;

  0020a	46		 inc	 esi
  0020b	e8 00 00 00 00	 call	 _getc
  00210	8a d8		 mov	 bl, al
  00212	83 c4 04	 add	 esp, 4
  00215	80 fb ff	 cmp	 bl, -1
  00218	75 cd		 jne	 SHORT $LL4@GetToken
$LN3@GetToken:

; 136  : 				
; 137  : 			}
; 138  : 
; 139  : 			ungetc(ch, SMDFile);

  0021a	a1 00 00 00 00	 mov	 eax, DWORD PTR _SMDFile
  0021f	0f be cb	 movsx	 ecx, bl
  00222	50		 push	 eax
  00223	51		 push	 ecx
$LN49@GetToken:
  00224	e8 00 00 00 00	 call	 _ungetc
  00229	83 c4 08	 add	 esp, 8
$LN7@GetToken:

; 140  : 			*p=0;

  0022c	c6 06 00	 mov	 BYTE PTR [esi], 0
  0022f	5e		 pop	 esi

; 141  : 			CurrentToken=NAME;

  00230	c7 05 00 00 00
	00 00 00 00 00	 mov	 DWORD PTR _CurrentToken, 0

; 142  : 			return CurrentToken;

  0023a	33 c0		 xor	 eax, eax
  0023c	5b		 pop	 ebx

; 147  : 		}
; 148  : 		break;
; 149  : 
; 150  : 	}
; 151  : 
; 152  : 	return NAME;
; 153  : }

  0023d	8b 4d fc	 mov	 ecx, DWORD PTR __$ArrayPad$[ebp]
  00240	33 cd		 xor	 ecx, ebp
  00242	e8 00 00 00 00	 call	 @__security_check_cookie@4
  00247	8b e5		 mov	 esp, ebp
  00249	5d		 pop	 ebp
  0024a	c3		 ret	 0
$LN5@GetToken:

; 143  : 		}
; 144  : 		else
; 145  : 		{
; 146  : 			return CurrentToken = SMD_ERROR; // '<'

  0024b	b8 3c 00 00 00	 mov	 eax, 60			; 0000003cH
$LN48@GetToken:

; 147  : 		}
; 148  : 		break;
; 149  : 
; 150  : 	}
; 151  : 
; 152  : 	return NAME;
; 153  : }

  00250	8b 4d fc	 mov	 ecx, DWORD PTR __$ArrayPad$[ebp]
  00253	5e		 pop	 esi
  00254	33 cd		 xor	 ecx, ebp
  00256	a3 00 00 00 00	 mov	 DWORD PTR _CurrentToken, eax
  0025b	5b		 pop	 ebx
  0025c	e8 00 00 00 00	 call	 @__security_check_cookie@4
  00261	8b e5		 mov	 esp, ebp
  00263	5d		 pop	 ebp
  00264	c3		 ret	 0
  00265	8d 49 00	 npad	 3
$LN50@GetToken:
  00268	00 00 00 00	 DD	 $LN10@GetToken
  0026c	00 00 00 00	 DD	 $LN19@GetToken
  00270	00 00 00 00	 DD	 $LN17@GetToken
  00274	00 00 00 00	 DD	 $LN14@GetToken
  00278	00 00 00 00	 DD	 $LN18@GetToken
  0027c	00 00 00 00	 DD	 $LN16@GetToken
  00280	00 00 00 00	 DD	 $LN15@GetToken
  00284	00 00 00 00	 DD	 $LN6@GetToken
$LN46@GetToken:
  00288	00		 DB	 0
  00289	01		 DB	 1
  0028a	07		 DB	 7
  0028b	07		 DB	 7
  0028c	07		 DB	 7
  0028d	07		 DB	 7
  0028e	07		 DB	 7
  0028f	07		 DB	 7
  00290	07		 DB	 7
  00291	07		 DB	 7
  00292	02		 DB	 2
  00293	03		 DB	 3
  00294	03		 DB	 3
  00295	07		 DB	 7
  00296	03		 DB	 3
  00297	03		 DB	 3
  00298	03		 DB	 3
  00299	03		 DB	 3
  0029a	03		 DB	 3
  0029b	03		 DB	 3
  0029c	03		 DB	 3
  0029d	03		 DB	 3
  0029e	03		 DB	 3
  0029f	03		 DB	 3
  002a0	07		 DB	 7
  002a1	04		 DB	 4
  002a2	07		 DB	 7
  002a3	07		 DB	 7
  002a4	07		 DB	 7
  002a5	07		 DB	 7
  002a6	07		 DB	 7
  002a7	07		 DB	 7
  002a8	07		 DB	 7
  002a9	07		 DB	 7
  002aa	07		 DB	 7
  002ab	07		 DB	 7
  002ac	07		 DB	 7
  002ad	07		 DB	 7
  002ae	07		 DB	 7
  002af	07		 DB	 7
  002b0	07		 DB	 7
  002b1	07		 DB	 7
  002b2	07		 DB	 7
  002b3	07		 DB	 7
  002b4	07		 DB	 7
  002b5	07		 DB	 7
  002b6	07		 DB	 7
  002b7	07		 DB	 7
  002b8	07		 DB	 7
  002b9	07		 DB	 7
  002ba	07		 DB	 7
  002bb	07		 DB	 7
  002bc	07		 DB	 7
  002bd	07		 DB	 7
  002be	07		 DB	 7
  002bf	07		 DB	 7
  002c0	07		 DB	 7
  002c1	07		 DB	 7
  002c2	07		 DB	 7
  002c3	07		 DB	 7
  002c4	07		 DB	 7
  002c5	07		 DB	 7
  002c6	07		 DB	 7
  002c7	07		 DB	 7
  002c8	07		 DB	 7
  002c9	07		 DB	 7
  002ca	07		 DB	 7
  002cb	07		 DB	 7
  002cc	07		 DB	 7
  002cd	07		 DB	 7
  002ce	07		 DB	 7
  002cf	07		 DB	 7
  002d0	07		 DB	 7
  002d1	07		 DB	 7
  002d2	07		 DB	 7
  002d3	07		 DB	 7
  002d4	07		 DB	 7
  002d5	07		 DB	 7
  002d6	07		 DB	 7
  002d7	07		 DB	 7
  002d8	07		 DB	 7
  002d9	07		 DB	 7
  002da	07		 DB	 7
  002db	07		 DB	 7
  002dc	07		 DB	 7
  002dd	07		 DB	 7
  002de	07		 DB	 7
  002df	07		 DB	 7
  002e0	07		 DB	 7
  002e1	05		 DB	 5
  002e2	07		 DB	 7
  002e3	06		 DB	 6
?GetToken@@YA?AW4SMDToken@@XZ ENDP			; GetToken
_TEXT	ENDS
PUBLIC	??_H@YGXPAXIHP6EPAX0@Z@Z			; `vector constructor iterator'
; Function compile flags: /Ogtp
;	COMDAT ??_H@YGXPAXIHP6EPAX0@Z@Z
_TEXT	SEGMENT
___t$ = 8						; size = 4
___s$ = 12						; size = 4
___n$ = 16						; size = 4
___f$ = 20						; size = 4
??_H@YGXPAXIHP6EPAX0@Z@Z PROC				; `vector constructor iterator', COMDAT
  00000	55		 push	 ebp
  00001	8b ec		 mov	 ebp, esp
  00003	57		 push	 edi
  00004	8b 7d 10	 mov	 edi, DWORD PTR ___n$[ebp]
  00007	4f		 dec	 edi
  00008	78 14		 js	 SHORT $LN1@vector
  0000a	53		 push	 ebx
  0000b	8b 5d 14	 mov	 ebx, DWORD PTR ___f$[ebp]
  0000e	56		 push	 esi
  0000f	8b 75 08	 mov	 esi, DWORD PTR ___t$[ebp]
$LL2@vector:
  00012	8b ce		 mov	 ecx, esi
  00014	ff d3		 call	 ebx
  00016	03 75 0c	 add	 esi, DWORD PTR ___s$[ebp]
  00019	4f		 dec	 edi
  0001a	79 f6		 jns	 SHORT $LL2@vector
  0001c	5e		 pop	 esi
  0001d	5b		 pop	 ebx
$LN1@vector:
  0001e	5f		 pop	 edi
  0001f	5d		 pop	 ebp
  00020	c2 10 00	 ret	 16			; 00000010H
??_H@YGXPAXIHP6EPAX0@Z@Z ENDP				; `vector constructor iterator'
_TEXT	ENDS
PUBLIC	?ProcState_None@CChaosCastle@@IAEXH@Z		; CChaosCastle::ProcState_None
; Function compile flags: /Ogtp
; File c:\users\faelhs\mu-1.1\emu - gameserver sapphire s0\gameserver\chaoscastle.cpp
;	COMDAT ?ProcState_None@CChaosCastle@@IAEXH@Z
_TEXT	SEGMENT
_iChaosCastleIndex$ = 8					; size = 4
?ProcState_None@CChaosCastle@@IAEXH@Z PROC		; CChaosCastle::ProcState_None, COMDAT
; _this$ = ecx

; 330  : 	return;
; 331  : }

  00000	c2 04 00	 ret	 4
?ProcState_None@CChaosCastle@@IAEXH@Z ENDP		; CChaosCastle::ProcState_None
_TEXT	ENDS
PUBLIC	?SetMapAttrHollow@CChaosCastle@@QAEXHH@Z	; CChaosCastle::SetMapAttrHollow
EXTRN	?MapC@@3PAVMapClass@@A:BYTE			; MapC
; Function compile flags: /Ogtp
;	COMDAT ?SetMapAttrHollow@CChaosCastle@@QAEXHH@Z
_TEXT	SEGMENT
_iChaosCastleIndex$ = 8					; size = 4
tv429 = 12						; size = 4
_iTRAP_STEP$ = 12					; size = 4
?SetMapAttrHollow@CChaosCastle@@QAEXHH@Z PROC		; CChaosCastle::SetMapAttrHollow, COMDAT
; _this$ = ecx

; 754  : {

  00000	55		 push	 ebp
  00001	8b ec		 mov	 ebp, esp

; 755  : 	if ( CC_FLOOR_RANGE(iChaosCastleIndex) == FALSE )

  00003	8b 4d 08	 mov	 ecx, DWORD PTR _iChaosCastleIndex$[ebp]
  00006	85 c9		 test	 ecx, ecx
  00008	0f 88 83 00 00
	00		 js	 $LN7@SetMapAttr
  0000e	33 c0		 xor	 eax, eax
  00010	83 f9 05	 cmp	 ecx, 5
  00013	0f 9e c0	 setle	 al
  00016	85 c0		 test	 eax, eax
  00018	74 77		 je	 SHORT $LN7@SetMapAttr

; 756  : 	{
; 757  : 		return;
; 758  : 	}
; 759  : 
; 760  : 	if ( CC_TRAP_STEP_RANGE(iTRAP_STEP) == FALSE )

  0001a	56		 push	 esi
  0001b	8b 75 0c	 mov	 esi, DWORD PTR _iTRAP_STEP$[ebp]
  0001e	85 f6		 test	 esi, esi
  00020	78 6e		 js	 SHORT $LN25@SetMapAttr
  00022	33 c0		 xor	 eax, eax
  00024	83 fe 03	 cmp	 esi, 3
  00027	0f 9e c0	 setle	 al
  0002a	85 c0		 test	 eax, eax
  0002c	74 62		 je	 SHORT $LN25@SetMapAttr

; 761  : 	{
; 762  : 		return;
; 763  : 	}
; 764  : 
; 765  : 	if ( iTRAP_STEP == 0 )

  0002e	85 f6		 test	 esi, esi
  00030	74 5e		 je	 SHORT $LN25@SetMapAttr

; 766  : 	{
; 767  : 		return;
; 768  : 	}
; 769  : 
; 770  : 	for ( int a=0;a<MAX_CC_HOLLOW_ZONE;a++)

  00032	c1 e6 06	 shl	 esi, 6
  00035	53		 push	 ebx
  00036	81 c6 0c 00 00
	00		 add	 esi, OFFSET _g_iChaosCastle_MapHollowZone+12
  0003c	c7 45 0c 04 00
	00 00		 mov	 DWORD PTR tv429[ebp], 4
  00043	57		 push	 edi
$LL9@SetMapAttr:

; 771  : 	{
; 772  : 		for ( int b=::g_iChaosCastle_MapHollowZone[iTRAP_STEP][a][0] ; b<=::g_iChaosCastle_MapHollowZone[iTRAP_STEP][a][2] ; b++)

  00044	8b 7e f4	 mov	 edi, DWORD PTR [esi-12]
  00047	3b 7e fc	 cmp	 edi, DWORD PTR [esi-4]
  0004a	7f 3a		 jg	 SHORT $LN8@SetMapAttr

; 766  : 	{
; 767  : 		return;
; 768  : 	}
; 769  : 
; 770  : 	for ( int a=0;a<MAX_CC_HOLLOW_ZONE;a++)

  0004c	8b 06		 mov	 eax, DWORD PTR [esi]
  0004e	8b ff		 npad	 2
$LL6@SetMapAttr:

; 773  : 		{
; 774  : 			for ( int c=::g_iChaosCastle_MapHollowZone[iTRAP_STEP][a][1] ; c<=::g_iChaosCastle_MapHollowZone[iTRAP_STEP][a][3] ; c++)

  00050	8b 56 f8	 mov	 edx, DWORD PTR [esi-8]
  00053	3b d0		 cmp	 edx, eax
  00055	7f 29		 jg	 SHORT $LN5@SetMapAttr
  00057	69 c9 08 07 05
	00		 imul	 ecx, 329480		; 00050708H
  0005d	8d 99 a0 7e 5a
	00		 lea	 ebx, DWORD PTR ?MapC@@3PAVMapClass@@A[ecx+5930656]
  00063	8b ca		 mov	 ecx, edx
  00065	c1 e1 08	 shl	 ecx, 8
$LL3@SetMapAttr:

; 775  : 			{
; 776  : 				MapC[iChaosCastleIndex +MAP_INDEX_CHAOSCASTLE1].m_attrbuf[ c * 256 + b] |= 8;

  00068	8b 03		 mov	 eax, DWORD PTR [ebx]
  0006a	03 c1		 add	 eax, ecx
  0006c	80 0c 38 08	 or	 BYTE PTR [eax+edi], 8
  00070	8b 06		 mov	 eax, DWORD PTR [esi]
  00072	42		 inc	 edx
  00073	81 c1 00 01 00
	00		 add	 ecx, 256		; 00000100H
  00079	3b d0		 cmp	 edx, eax
  0007b	7e eb		 jle	 SHORT $LL3@SetMapAttr

; 773  : 		{
; 774  : 			for ( int c=::g_iChaosCastle_MapHollowZone[iTRAP_STEP][a][1] ; c<=::g_iChaosCastle_MapHollowZone[iTRAP_STEP][a][3] ; c++)

  0007d	8b 4d 08	 mov	 ecx, DWORD PTR _iChaosCastleIndex$[ebp]
$LN5@SetMapAttr:

; 771  : 	{
; 772  : 		for ( int b=::g_iChaosCastle_MapHollowZone[iTRAP_STEP][a][0] ; b<=::g_iChaosCastle_MapHollowZone[iTRAP_STEP][a][2] ; b++)

  00080	47		 inc	 edi
  00081	3b 7e fc	 cmp	 edi, DWORD PTR [esi-4]
  00084	7e ca		 jle	 SHORT $LL6@SetMapAttr
$LN8@SetMapAttr:

; 766  : 	{
; 767  : 		return;
; 768  : 	}
; 769  : 
; 770  : 	for ( int a=0;a<MAX_CC_HOLLOW_ZONE;a++)

  00086	83 c6 10	 add	 esi, 16			; 00000010H
  00089	ff 4d 0c	 dec	 DWORD PTR tv429[ebp]
  0008c	75 b6		 jne	 SHORT $LL9@SetMapAttr
  0008e	5f		 pop	 edi
  0008f	5b		 pop	 ebx
$LN25@SetMapAttr:
  00090	5e		 pop	 esi
$LN7@SetMapAttr:

; 777  : 			}
; 778  : 		}
; 779  : 	}
; 780  : 	
; 781  : }

  00091	5d		 pop	 ebp
  00092	c2 08 00	 ret	 8
?SetMapAttrHollow@CChaosCastle@@QAEXHH@Z ENDP		; CChaosCastle::SetMapAttrHollow
_TEXT	ENDS
PUBLIC	?SetMapAttrFill@CChaosCastle@@QAEXH@Z		; CChaosCastle::SetMapAttrFill
; Function compile flags: /Ogtp
;	COMDAT ?SetMapAttrFill@CChaosCastle@@QAEXH@Z
_TEXT	SEGMENT
tv420 = -4						; size = 4
_iChaosCastleIndex$ = 8					; size = 4
?SetMapAttrFill@CChaosCastle@@QAEXH@Z PROC		; CChaosCastle::SetMapAttrFill, COMDAT
; _this$ = ecx

; 784  : {

  00000	55		 push	 ebp
  00001	8b ec		 mov	 ebp, esp
  00003	51		 push	 ecx

; 785  : 	if ( CC_FLOOR_RANGE(iChaosCastleIndex) == FALSE )

  00004	8b 4d 08	 mov	 ecx, DWORD PTR _iChaosCastleIndex$[ebp]
  00007	85 c9		 test	 ecx, ecx
  00009	78 76		 js	 SHORT $LN10@SetMapAttr@2
  0000b	33 c0		 xor	 eax, eax
  0000d	83 f9 05	 cmp	 ecx, 5
  00010	0f 9e c0	 setle	 al
  00013	85 c0		 test	 eax, eax
  00015	74 6a		 je	 SHORT $LN10@SetMapAttr@2

; 786  : 	{
; 787  : 		return;
; 788  : 	}
; 789  : 	
; 790  : 	for ( int iTRAP_STEP=1;iTRAP_STEP<MAX_CC_TRAP_STEP;iTRAP_STEP++)

  00017	53		 push	 ebx
  00018	56		 push	 esi
  00019	57		 push	 edi
  0001a	be 4c 00 00 00	 mov	 esi, OFFSET _g_iChaosCastle_MapHollowZone+76
  0001f	90		 npad	 1
$LL12@SetMapAttr@2:

; 791  : 	{
; 792  : 		for ( int a=0;a<MAX_CC_HOLLOW_ZONE;a++)

  00020	c7 45 fc 04 00
	00 00		 mov	 DWORD PTR tv420[ebp], 4
$LL9@SetMapAttr@2:

; 793  : 		{
; 794  : 			for ( int b=::g_iChaosCastle_MapHollowZone[iTRAP_STEP][a][0] ; b<=::g_iChaosCastle_MapHollowZone[iTRAP_STEP][a][2] ; b++)

  00027	8b 7e f4	 mov	 edi, DWORD PTR [esi-12]
  0002a	3b 7e fc	 cmp	 edi, DWORD PTR [esi-4]
  0002d	7f 3f		 jg	 SHORT $LN8@SetMapAttr@2
  0002f	8b 06		 mov	 eax, DWORD PTR [esi]
$LL6@SetMapAttr@2:

; 795  : 			{
; 796  : 				for ( int c=::g_iChaosCastle_MapHollowZone[iTRAP_STEP][a][1] ; c<=::g_iChaosCastle_MapHollowZone[iTRAP_STEP][a][3] ; c++)

  00031	8b 56 f8	 mov	 edx, DWORD PTR [esi-8]
  00034	3b d0		 cmp	 edx, eax
  00036	7f 30		 jg	 SHORT $LN5@SetMapAttr@2
  00038	69 c9 08 07 05
	00		 imul	 ecx, 329480		; 00050708H
  0003e	8d 99 a0 7e 5a
	00		 lea	 ebx, DWORD PTR ?MapC@@3PAVMapClass@@A[ecx+5930656]
  00044	8b ca		 mov	 ecx, edx
  00046	c1 e1 08	 shl	 ecx, 8
  00049	8d a4 24 00 00
	00 00		 npad	 7
$LL3@SetMapAttr@2:

; 797  : 				{
; 798  : 					MapC[iChaosCastleIndex +MAP_INDEX_CHAOSCASTLE1].m_attrbuf[ c * 256 + b] &= ~8;

  00050	8b 03		 mov	 eax, DWORD PTR [ebx]
  00052	03 c1		 add	 eax, ecx
  00054	80 24 38 f7	 and	 BYTE PTR [eax+edi], 247	; 000000f7H
  00058	8b 06		 mov	 eax, DWORD PTR [esi]
  0005a	42		 inc	 edx
  0005b	81 c1 00 01 00
	00		 add	 ecx, 256		; 00000100H
  00061	3b d0		 cmp	 edx, eax
  00063	7e eb		 jle	 SHORT $LL3@SetMapAttr@2

; 795  : 			{
; 796  : 				for ( int c=::g_iChaosCastle_MapHollowZone[iTRAP_STEP][a][1] ; c<=::g_iChaosCastle_MapHollowZone[iTRAP_STEP][a][3] ; c++)

  00065	8b 4d 08	 mov	 ecx, DWORD PTR _iChaosCastleIndex$[ebp]
$LN5@SetMapAttr@2:

; 793  : 		{
; 794  : 			for ( int b=::g_iChaosCastle_MapHollowZone[iTRAP_STEP][a][0] ; b<=::g_iChaosCastle_MapHollowZone[iTRAP_STEP][a][2] ; b++)

  00068	47		 inc	 edi
  00069	3b 7e fc	 cmp	 edi, DWORD PTR [esi-4]
  0006c	7e c3		 jle	 SHORT $LL6@SetMapAttr@2
$LN8@SetMapAttr@2:

; 791  : 	{
; 792  : 		for ( int a=0;a<MAX_CC_HOLLOW_ZONE;a++)

  0006e	83 c6 10	 add	 esi, 16			; 00000010H
  00071	ff 4d fc	 dec	 DWORD PTR tv420[ebp]
  00074	75 b1		 jne	 SHORT $LL9@SetMapAttr@2

; 786  : 	{
; 787  : 		return;
; 788  : 	}
; 789  : 	
; 790  : 	for ( int iTRAP_STEP=1;iTRAP_STEP<MAX_CC_TRAP_STEP;iTRAP_STEP++)

  00076	81 fe 0c 01 00
	00		 cmp	 esi, OFFSET _g_iChaosCastle_MapHollowZone+268
  0007c	7c a2		 jl	 SHORT $LL12@SetMapAttr@2
  0007e	5f		 pop	 edi
  0007f	5e		 pop	 esi
  00080	5b		 pop	 ebx
$LN10@SetMapAttr@2:

; 799  : 				}
; 800  : 			}
; 801  : 		}
; 802  : 	}
; 803  : }

  00081	8b e5		 mov	 esp, ebp
  00083	5d		 pop	 ebp
  00084	c2 04 00	 ret	 4
?SetMapAttrFill@CChaosCastle@@QAEXH@Z ENDP		; CChaosCastle::SetMapAttrFill
_TEXT	ENDS
EXTRN	__time64:PROC
; Function compile flags: /Ogtp
; File c:\program files (x86)\microsoft visual studio 10.0\vc\include\time.inl
;	COMDAT _time
_TEXT	SEGMENT
_time	PROC						; COMDAT
; __Time$ = eax

; 133  :     return _time64(_Time);

  00000	50		 push	 eax
  00001	e8 00 00 00 00	 call	 __time64
  00006	83 c4 04	 add	 esp, 4

; 134  : }

  00009	c3		 ret	 0
_time	ENDP
_TEXT	ENDS
PUBLIC	?SetState_None@CChaosCastle@@IAEXH@Z		; CChaosCastle::SetState_None
; Function compile flags: /Ogtp
; File c:\users\faelhs\mu-1.1\emu - gameserver sapphire s0\gameserver\chaoscastle.cpp
;	COMDAT ?SetState_None@CChaosCastle@@IAEXH@Z
_TEXT	SEGMENT
_iChaosCastleIndex$ = 8					; size = 4
?SetState_None@CChaosCastle@@IAEXH@Z PROC		; CChaosCastle::SetState_None, COMDAT
; _this$ = ecx

; 872  : 	return;
; 873  : }

  00000	c2 04 00	 ret	 4
?SetState_None@CChaosCastle@@IAEXH@Z ENDP		; CChaosCastle::SetState_None
_TEXT	ENDS
PUBLIC	?ClearMonster@CChaosCastle@@QAEXH@Z		; CChaosCastle::ClearMonster
EXTRN	?gObjDel@@YAFH@Z:PROC				; gObjDel
EXTRN	?gObj@@3PAUOBJECTSTRUCT@@A:BYTE			; gObj
; Function compile flags: /Ogtp
;	COMDAT ?ClearMonster@CChaosCastle@@QAEXH@Z
_TEXT	SEGMENT
_iChaosCastleIndex$ = 8					; size = 4
?ClearMonster@CChaosCastle@@QAEXH@Z PROC		; CChaosCastle::ClearMonster, COMDAT
; _this$ = ecx

; 973  : {

  00000	55		 push	 ebp
  00001	8b ec		 mov	 ebp, esp

; 974  : 	if ( CC_FLOOR_RANGE(iChaosCastleIndex) == FALSE )

  00003	8b 45 08	 mov	 eax, DWORD PTR _iChaosCastleIndex$[ebp]
  00006	85 c0		 test	 eax, eax
  00008	78 3b		 js	 SHORT $LN2@ClearMonst
  0000a	33 c9		 xor	 ecx, ecx
  0000c	83 f8 05	 cmp	 eax, 5
  0000f	0f 9e c1	 setle	 cl
  00012	85 c9		 test	 ecx, ecx
  00014	74 2f		 je	 SHORT $LN2@ClearMonst

; 975  : 	{
; 976  : 		return;
; 977  : 	}
; 978  : 
; 979  : 	for ( int n=0;n<OBJ_MAXMONSTER;n++)

  00016	53		 push	 ebx
  00017	56		 push	 esi
  00018	57		 push	 edi
  00019	33 ff		 xor	 edi, edi
  0001b	8d 58 12	 lea	 ebx, DWORD PTR [eax+18]
  0001e	be 09 01 00 00	 mov	 esi, OFFSET ?gObj@@3PAUOBJECTSTRUCT@@A+265
$LL4@ClearMonst:

; 980  : 	{
; 981  : 		if ( gObj[n].MapNumber == (iChaosCastleIndex+MAP_INDEX_CHAOSCASTLE1))

  00023	0f b6 06	 movzx	 eax, BYTE PTR [esi]
  00026	3b c3		 cmp	 eax, ebx
  00028	75 09		 jne	 SHORT $LN3@ClearMonst

; 982  : 		{
; 983  : 			gObjDel(n);

  0002a	57		 push	 edi
  0002b	e8 00 00 00 00	 call	 ?gObjDel@@YAFH@Z	; gObjDel
  00030	83 c4 04	 add	 esp, 4
$LN3@ClearMonst:

; 975  : 	{
; 976  : 		return;
; 977  : 	}
; 978  : 
; 979  : 	for ( int n=0;n<OBJ_MAXMONSTER;n++)

  00033	81 c6 64 15 00
	00		 add	 esi, 5476		; 00001564H
  00039	47		 inc	 edi
  0003a	81 fe a9 a2 e4
	01		 cmp	 esi, OFFSET ?gObj@@3PAUOBJECTSTRUCT@@A+31761065
  00040	7c e1		 jl	 SHORT $LL4@ClearMonst
  00042	5f		 pop	 edi
  00043	5e		 pop	 esi
  00044	5b		 pop	 ebx
$LN2@ClearMonst:

; 984  : 		}
; 985  : 	}
; 986  : }

  00045	5d		 pop	 ebp
  00046	c2 04 00	 ret	 4
?ClearMonster@CChaosCastle@@QAEXH@Z ENDP		; CChaosCastle::ClearMonster
_TEXT	ENDS
PUBLIC	?AddMonsterList@CChaosCastle@@QAEXHH@Z		; CChaosCastle::AddMonsterList
EXTRN	__imp__InterlockedExchange@8:PROC
; Function compile flags: /Ogtp
;	COMDAT ?AddMonsterList@CChaosCastle@@QAEXHH@Z
_TEXT	SEGMENT
_iChaosCastleIndex$ = 8					; size = 4
_iMonsterIndex$ = 12					; size = 4
?AddMonsterList@CChaosCastle@@QAEXHH@Z PROC		; CChaosCastle::AddMonsterList, COMDAT
; _this$ = ecx

; 1051 : {

  00000	55		 push	 ebp
  00001	8b ec		 mov	 ebp, esp
  00003	56		 push	 esi

; 1052 : 	if ( CC_FLOOR_RANGE(iChaosCastleIndex) == FALSE )

  00004	8b 75 08	 mov	 esi, DWORD PTR _iChaosCastleIndex$[ebp]
  00007	85 f6		 test	 esi, esi
  00009	78 4a		 js	 SHORT $LN2@AddMonster
  0000b	33 c0		 xor	 eax, eax
  0000d	83 fe 05	 cmp	 esi, 5
  00010	0f 9e c0	 setle	 al
  00013	85 c0		 test	 eax, eax
  00015	74 3e		 je	 SHORT $LN2@AddMonster

; 1053 : 	{
; 1054 : 		return;
; 1055 : 	}
; 1056 : 
; 1057 : 	for ( int iMON =0;iMON<MAX_CC_MONSTERS;iMON++)

  00017	8b d6		 mov	 edx, esi
  00019	33 c0		 xor	 eax, eax
  0001b	69 d2 6c 08 00
	00		 imul	 edx, 2156		; 0000086cH
  00021	8d 94 0a e4 05
	00 00		 lea	 edx, DWORD PTR [edx+ecx+1508]
$LL4@AddMonster:

; 1058 : 	{
; 1059 : 		if ( this->m_stChaosCastleData[iChaosCastleIndex].m_lCC_MONSTER_COUNT[iMON] == -1 )

  00028	83 3a ff	 cmp	 DWORD PTR [edx], -1
  0002b	74 0e		 je	 SHORT $LN11@AddMonster

; 1053 : 	{
; 1054 : 		return;
; 1055 : 	}
; 1056 : 
; 1057 : 	for ( int iMON =0;iMON<MAX_CC_MONSTERS;iMON++)

  0002d	40		 inc	 eax
  0002e	83 c2 04	 add	 edx, 4
  00031	83 f8 64	 cmp	 eax, 100		; 00000064H
  00034	7c f2		 jl	 SHORT $LL4@AddMonster
  00036	5e		 pop	 esi

; 1062 : 			break;
; 1063 : 		}
; 1064 : 	}
; 1065 : }

  00037	5d		 pop	 ebp
  00038	c2 08 00	 ret	 8
$LN11@AddMonster:

; 1060 : 		{
; 1061 : 			InterlockedExchange((LPLONG)&this->m_stChaosCastleData[iChaosCastleIndex].m_lCC_MONSTER_COUNT[iMON], iMonsterIndex);

  0003b	8b 55 0c	 mov	 edx, DWORD PTR _iMonsterIndex$[ebp]
  0003e	69 f6 1b 02 00
	00		 imul	 esi, 539		; 0000021bH
  00044	03 f0		 add	 esi, eax
  00046	52		 push	 edx
  00047	8d 84 b1 e4 05
	00 00		 lea	 eax, DWORD PTR [ecx+esi*4+1508]
  0004e	50		 push	 eax
  0004f	ff 15 00 00 00
	00		 call	 DWORD PTR __imp__InterlockedExchange@8
$LN2@AddMonster:
  00055	5e		 pop	 esi

; 1062 : 			break;
; 1063 : 		}
; 1064 : 	}
; 1065 : }

  00056	5d		 pop	 ebp
  00057	c2 08 00	 ret	 8
?AddMonsterList@CChaosCastle@@QAEXHH@Z ENDP		; CChaosCastle::AddMonsterList
_TEXT	ENDS
PUBLIC	??_C@_0EI@EFJJJNMJ@?$FLChaos?5Castle?$FN?$FLBug?5Tracer?$FN?5MONST@ ; `string'
PUBLIC	??_C@_0EK@BMJDNMGE@?$FLChaos?5Castle?$FN?$FLBug?5Tracer?$FN?5MONST@ ; `string'
PUBLIC	?DelMonsterList@CChaosCastle@@QAEXHH@Z		; CChaosCastle::DelMonsterList
EXTRN	__imp__InterlockedDecrement@4:PROC
EXTRN	?LogAdd@@YAXW4eLogColor@@PADZZ:PROC		; LogAdd
;	COMDAT ??_C@_0EI@EFJJJNMJ@?$FLChaos?5Castle?$FN?$FLBug?5Tracer?$FN?5MONST@
CONST	SEGMENT
??_C@_0EI@EFJJJNMJ@?$FLChaos?5Castle?$FN?$FLBug?5Tracer?$FN?5MONST@ DB '['
	DB	'Chaos Castle][Bug Tracer] MONSTER DEL (%d) Count(%d) : OUT - '
	DB	'Index(%d)', 00H				; `string'
CONST	ENDS
;	COMDAT ??_C@_0EK@BMJDNMGE@?$FLChaos?5Castle?$FN?$FLBug?5Tracer?$FN?5MONST@
CONST	SEGMENT
??_C@_0EK@BMJDNMGE@?$FLChaos?5Castle?$FN?$FLBug?5Tracer?$FN?5MONST@ DB '['
	DB	'Chaos Castle][Bug Tracer] MONSTER DEL (%d) Count(%d) : ENTER '
	DB	'- Index(%d)', 00H				; `string'
; Function compile flags: /Ogtp
CONST	ENDS
;	COMDAT ?DelMonsterList@CChaosCastle@@QAEXHH@Z
_TEXT	SEGMENT
_this$ = -4						; size = 4
tv200 = 8						; size = 4
_iChaosCastleIndex$ = 8					; size = 4
_iMonsterIndex$ = 12					; size = 4
?DelMonsterList@CChaosCastle@@QAEXHH@Z PROC		; CChaosCastle::DelMonsterList, COMDAT
; _this$ = ecx

; 1068 : {

  00000	55		 push	 ebp
  00001	8b ec		 mov	 ebp, esp
  00003	51		 push	 ecx
  00004	56		 push	 esi

; 1069 : 	if ( CC_FLOOR_RANGE(iChaosCastleIndex) == FALSE )

  00005	8b 75 08	 mov	 esi, DWORD PTR _iChaosCastleIndex$[ebp]
  00008	89 4d fc	 mov	 DWORD PTR _this$[ebp], ecx
  0000b	85 f6		 test	 esi, esi
  0000d	0f 88 9d 00 00
	00		 js	 $LN7@DelMonster
  00013	33 c0		 xor	 eax, eax
  00015	83 fe 05	 cmp	 esi, 5
  00018	0f 9e c0	 setle	 al
  0001b	85 c0		 test	 eax, eax
  0001d	0f 84 8d 00 00
	00		 je	 $LN7@DelMonster

; 1070 : 	{
; 1071 : 		return;
; 1072 : 	}
; 1073 : 
; 1074 : 	LogAdd(LOG_BLACK, "[Chaos Castle][Bug Tracer] MONSTER DEL (%d) Count(%d) : ENTER - Index(%d)",
; 1075 : 		iChaosCastleIndex+1, this->m_stChaosCastleData[iChaosCastleIndex].m_lCC_CURRENT_MONSTER_COUNT, iMonsterIndex);

  00023	53		 push	 ebx
  00024	57		 push	 edi
  00025	8b fe		 mov	 edi, esi
  00027	69 ff 6c 08 00
	00		 imul	 edi, 2156		; 0000086cH
  0002d	03 f9		 add	 edi, ecx
  0002f	8b 4d 0c	 mov	 ecx, DWORD PTR _iMonsterIndex$[ebp]
  00032	8b 57 60	 mov	 edx, DWORD PTR [edi+96]
  00035	51		 push	 ecx
  00036	8d 5f 60	 lea	 ebx, DWORD PTR [edi+96]
  00039	52		 push	 edx
  0003a	8d 46 01	 lea	 eax, DWORD PTR [esi+1]
  0003d	50		 push	 eax
  0003e	68 00 00 00 00	 push	 OFFSET ??_C@_0EK@BMJDNMGE@?$FLChaos?5Castle?$FN?$FLBug?5Tracer?$FN?5MONST@
  00043	6a 00		 push	 0
  00045	89 45 08	 mov	 DWORD PTR tv200[ebp], eax
  00048	e8 00 00 00 00	 call	 ?LogAdd@@YAXW4eLogColor@@PADZZ ; LogAdd
  0004d	83 c4 14	 add	 esp, 20			; 00000014H

; 1076 : 
; 1077 : 	for ( int iMON =0;iMON<MAX_CC_MONSTERS;iMON++)

  00050	33 c0		 xor	 eax, eax
  00052	8d 8f e4 05 00
	00		 lea	 ecx, DWORD PTR [edi+1508]
$LL5@DelMonster:

; 1078 : 	{
; 1079 : 		if ( this->m_stChaosCastleData[iChaosCastleIndex].m_lCC_MONSTER_COUNT[iMON] == iMonsterIndex )

  00058	8b 7d 0c	 mov	 edi, DWORD PTR _iMonsterIndex$[ebp]
  0005b	39 39		 cmp	 DWORD PTR [ecx], edi
  0005d	74 0b		 je	 SHORT $LN12@DelMonster

; 1076 : 
; 1077 : 	for ( int iMON =0;iMON<MAX_CC_MONSTERS;iMON++)

  0005f	40		 inc	 eax
  00060	83 c1 04	 add	 ecx, 4
  00063	83 f8 64	 cmp	 eax, 100		; 00000064H
  00066	7c f0		 jl	 SHORT $LL5@DelMonster

; 1078 : 	{
; 1079 : 		if ( this->m_stChaosCastleData[iChaosCastleIndex].m_lCC_MONSTER_COUNT[iMON] == iMonsterIndex )

  00068	eb 1b		 jmp	 SHORT $LN3@DelMonster
$LN12@DelMonster:

; 1080 : 		{
; 1081 : 			InterlockedExchange(&this->m_stChaosCastleData[iChaosCastleIndex].m_lCC_MONSTER_COUNT[iMON], -1);

  0006a	69 f6 1b 02 00
	00		 imul	 esi, 539		; 0000021bH
  00070	03 f0		 add	 esi, eax
  00072	8b 45 fc	 mov	 eax, DWORD PTR _this$[ebp]
  00075	6a ff		 push	 -1
  00077	8d 8c b0 e4 05
	00 00		 lea	 ecx, DWORD PTR [eax+esi*4+1508]
  0007e	51		 push	 ecx
  0007f	ff 15 00 00 00
	00		 call	 DWORD PTR __imp__InterlockedExchange@8
$LN3@DelMonster:

; 1082 : 			break;
; 1083 : 		}
; 1084 : 	}
; 1085 : 
; 1086 : 	InterlockedDecrement(&this->m_stChaosCastleData[iChaosCastleIndex].m_lCC_CURRENT_MONSTER_COUNT);

  00085	53		 push	 ebx
  00086	ff 15 00 00 00
	00		 call	 DWORD PTR __imp__InterlockedDecrement@4

; 1087 : 
; 1088 : 	if ( this->m_stChaosCastleData[iChaosCastleIndex].m_lCC_CURRENT_MONSTER_COUNT < 0 )

  0008c	83 3b 00	 cmp	 DWORD PTR [ebx], 0
  0008f	7d 06		 jge	 SHORT $LN1@DelMonster

; 1089 : 	{
; 1090 : 		this->m_stChaosCastleData[iChaosCastleIndex].m_lCC_CURRENT_MONSTER_COUNT = 0;

  00091	c7 03 00 00 00
	00		 mov	 DWORD PTR [ebx], 0
$LN1@DelMonster:

; 1091 : 	}
; 1092 : 
; 1093 : 	LogAdd(LOG_BLACK, "[Chaos Castle][Bug Tracer] MONSTER DEL (%d) Count(%d) : OUT - Index(%d)",
; 1094 : 		iChaosCastleIndex+1, this->m_stChaosCastleData[iChaosCastleIndex].m_lCC_CURRENT_MONSTER_COUNT, iMonsterIndex);

  00097	8b 13		 mov	 edx, DWORD PTR [ebx]
  00099	8b 45 08	 mov	 eax, DWORD PTR tv200[ebp]
  0009c	57		 push	 edi
  0009d	52		 push	 edx
  0009e	50		 push	 eax
  0009f	68 00 00 00 00	 push	 OFFSET ??_C@_0EI@EFJJJNMJ@?$FLChaos?5Castle?$FN?$FLBug?5Tracer?$FN?5MONST@
  000a4	6a 00		 push	 0
  000a6	e8 00 00 00 00	 call	 ?LogAdd@@YAXW4eLogColor@@PADZZ ; LogAdd
  000ab	83 c4 14	 add	 esp, 20			; 00000014H
  000ae	5f		 pop	 edi
  000af	5b		 pop	 ebx
$LN7@DelMonster:
  000b0	5e		 pop	 esi

; 1095 : }

  000b1	8b e5		 mov	 esp, ebp
  000b3	5d		 pop	 ebp
  000b4	c2 08 00	 ret	 8
?DelMonsterList@CChaosCastle@@QAEXHH@Z ENDP		; CChaosCastle::DelMonsterList
_TEXT	ENDS
PUBLIC	?GetMonsterListCount@CChaosCastle@@QAEHH@Z	; CChaosCastle::GetMonsterListCount
; Function compile flags: /Ogtp
;	COMDAT ?GetMonsterListCount@CChaosCastle@@QAEHH@Z
_TEXT	SEGMENT
_iChaosCastleIndex$ = 8					; size = 4
?GetMonsterListCount@CChaosCastle@@QAEHH@Z PROC		; CChaosCastle::GetMonsterListCount, COMDAT
; _this$ = ecx

; 1098 : {

  00000	55		 push	 ebp
  00001	8b ec		 mov	 ebp, esp

; 1099 : 	if ( CC_FLOOR_RANGE(iChaosCastleIndex) == FALSE )

  00003	8b 4d 08	 mov	 ecx, DWORD PTR _iChaosCastleIndex$[ebp]
  00006	85 c9		 test	 ecx, ecx
  00008	78 0c		 js	 SHORT $LN18@GetMonster
  0000a	33 c0		 xor	 eax, eax
  0000c	83 f9 05	 cmp	 ecx, 5
  0000f	0f 9e c0	 setle	 al
  00012	85 c0		 test	 eax, eax
  00014	75 07		 jne	 SHORT $LN6@GetMonster
$LN18@GetMonster:

; 1100 : 	{
; 1101 : 		return -1;

  00016	83 c8 ff	 or	 eax, -1

; 1116 : 			}
; 1117 : 		}
; 1118 : 	}
; 1119 : 	
; 1120 : 	return iAliveMonsterCount;
; 1121 : }

  00019	5d		 pop	 ebp
  0001a	c2 04 00	 ret	 4
$LN6@GetMonster:
  0001d	53		 push	 ebx
  0001e	56		 push	 esi

; 1102 : 	}
; 1103 : 
; 1104 : 	int iAliveMonsterCount = 0;

  0001f	33 c0		 xor	 eax, eax

; 1105 : 	int iMapNumber = iChaosCastleIndex + 18;

  00021	8d 51 12	 lea	 edx, DWORD PTR [ecx+18]
  00024	57		 push	 edi
  00025	b9 60 00 00 00	 mov	 ecx, OFFSET ?gObj@@3PAUOBJECTSTRUCT@@A+96
  0002a	8d 70 02	 lea	 esi, DWORD PTR [eax+2]
  0002d	8d 58 01	 lea	 ebx, DWORD PTR [eax+1]
$LL5@GetMonster:

; 1108 : 	{
; 1109 : 		if ( gObj[i].Connected == PLAYER_PLAYING &&
; 1110 : 			 gObj[i].Type == OBJ_MONSTER &&
; 1111 : 			 gObj[i].Live == 1) 

  00030	80 79 a4 03	 cmp	 BYTE PTR [ecx-92], 3
  00034	75 17		 jne	 SHORT $LN4@GetMonster
  00036	66 39 31	 cmp	 WORD PTR [ecx], si
  00039	75 12		 jne	 SHORT $LN4@GetMonster
  0003b	38 59 02	 cmp	 BYTE PTR [ecx+2], bl
  0003e	75 0d		 jne	 SHORT $LN4@GetMonster

; 1112 : 		{
; 1113 : 			if ( gObj[i].MapNumber == iMapNumber )

  00040	0f b6 b9 a9 00
	00 00		 movzx	 edi, BYTE PTR [ecx+169]
  00047	3b fa		 cmp	 edi, edx
  00049	75 02		 jne	 SHORT $LN4@GetMonster

; 1114 : 			{
; 1115 : 				iAliveMonsterCount++;

  0004b	03 c3		 add	 eax, ebx
$LN4@GetMonster:

; 1108 : 	{
; 1109 : 		if ( gObj[i].Connected == PLAYER_PLAYING &&
; 1110 : 			 gObj[i].Type == OBJ_MONSTER &&
; 1111 : 			 gObj[i].Live == 1) 

  0004d	80 b9 08 15 00
	00 03		 cmp	 BYTE PTR [ecx+5384], 3
  00054	75 1e		 jne	 SHORT $LN14@GetMonster
  00056	66 39 b1 64 15
	00 00		 cmp	 WORD PTR [ecx+5476], si
  0005d	75 15		 jne	 SHORT $LN14@GetMonster
  0005f	38 99 66 15 00
	00		 cmp	 BYTE PTR [ecx+5478], bl
  00065	75 0d		 jne	 SHORT $LN14@GetMonster

; 1112 : 		{
; 1113 : 			if ( gObj[i].MapNumber == iMapNumber )

  00067	0f b6 b9 0d 16
	00 00		 movzx	 edi, BYTE PTR [ecx+5645]
  0006e	3b fa		 cmp	 edi, edx
  00070	75 02		 jne	 SHORT $LN14@GetMonster

; 1114 : 			{
; 1115 : 				iAliveMonsterCount++;

  00072	03 c3		 add	 eax, ebx
$LN14@GetMonster:

; 1108 : 	{
; 1109 : 		if ( gObj[i].Connected == PLAYER_PLAYING &&
; 1110 : 			 gObj[i].Type == OBJ_MONSTER &&
; 1111 : 			 gObj[i].Live == 1) 

  00074	80 b9 6c 2a 00
	00 03		 cmp	 BYTE PTR [ecx+10860], 3
  0007b	75 1e		 jne	 SHORT $LN15@GetMonster
  0007d	66 39 b1 c8 2a
	00 00		 cmp	 WORD PTR [ecx+10952], si
  00084	75 15		 jne	 SHORT $LN15@GetMonster
  00086	38 99 ca 2a 00
	00		 cmp	 BYTE PTR [ecx+10954], bl
  0008c	75 0d		 jne	 SHORT $LN15@GetMonster

; 1112 : 		{
; 1113 : 			if ( gObj[i].MapNumber == iMapNumber )

  0008e	0f b6 b9 71 2b
	00 00		 movzx	 edi, BYTE PTR [ecx+11121]
  00095	3b fa		 cmp	 edi, edx
  00097	75 02		 jne	 SHORT $LN15@GetMonster

; 1114 : 			{
; 1115 : 				iAliveMonsterCount++;

  00099	03 c3		 add	 eax, ebx
$LN15@GetMonster:

; 1108 : 	{
; 1109 : 		if ( gObj[i].Connected == PLAYER_PLAYING &&
; 1110 : 			 gObj[i].Type == OBJ_MONSTER &&
; 1111 : 			 gObj[i].Live == 1) 

  0009b	80 b9 d0 3f 00
	00 03		 cmp	 BYTE PTR [ecx+16336], 3
  000a2	75 1e		 jne	 SHORT $LN16@GetMonster
  000a4	66 39 b1 2c 40
	00 00		 cmp	 WORD PTR [ecx+16428], si
  000ab	75 15		 jne	 SHORT $LN16@GetMonster
  000ad	38 99 2e 40 00
	00		 cmp	 BYTE PTR [ecx+16430], bl
  000b3	75 0d		 jne	 SHORT $LN16@GetMonster

; 1112 : 		{
; 1113 : 			if ( gObj[i].MapNumber == iMapNumber )

  000b5	0f b6 b9 d5 40
	00 00		 movzx	 edi, BYTE PTR [ecx+16597]
  000bc	3b fa		 cmp	 edi, edx
  000be	75 02		 jne	 SHORT $LN16@GetMonster

; 1114 : 			{
; 1115 : 				iAliveMonsterCount++;

  000c0	03 c3		 add	 eax, ebx
$LN16@GetMonster:

; 1108 : 	{
; 1109 : 		if ( gObj[i].Connected == PLAYER_PLAYING &&
; 1110 : 			 gObj[i].Type == OBJ_MONSTER &&
; 1111 : 			 gObj[i].Live == 1) 

  000c2	80 b9 34 55 00
	00 03		 cmp	 BYTE PTR [ecx+21812], 3
  000c9	75 1e		 jne	 SHORT $LN17@GetMonster
  000cb	66 39 b1 90 55
	00 00		 cmp	 WORD PTR [ecx+21904], si
  000d2	75 15		 jne	 SHORT $LN17@GetMonster
  000d4	38 99 92 55 00
	00		 cmp	 BYTE PTR [ecx+21906], bl
  000da	75 0d		 jne	 SHORT $LN17@GetMonster

; 1112 : 		{
; 1113 : 			if ( gObj[i].MapNumber == iMapNumber )

  000dc	0f b6 b9 39 56
	00 00		 movzx	 edi, BYTE PTR [ecx+22073]
  000e3	3b fa		 cmp	 edi, edx
  000e5	75 02		 jne	 SHORT $LN17@GetMonster

; 1114 : 			{
; 1115 : 				iAliveMonsterCount++;

  000e7	03 c3		 add	 eax, ebx
$LN17@GetMonster:

; 1102 : 	}
; 1103 : 
; 1104 : 	int iAliveMonsterCount = 0;

  000e9	81 c1 f4 6a 00
	00		 add	 ecx, 27380		; 00006af4H

; 1106 : 
; 1107 : 	for (int i=0;i<OBJ_STARTUSERINDEX;i++)

  000ef	81 f9 60 c4 16
	02		 cmp	 ecx, OFFSET ?gObj@@3PAUOBJECTSTRUCT@@A+35046496
  000f5	0f 8c 35 ff ff
	ff		 jl	 $LL5@GetMonster
  000fb	5f		 pop	 edi
  000fc	5e		 pop	 esi
  000fd	5b		 pop	 ebx

; 1116 : 			}
; 1117 : 		}
; 1118 : 	}
; 1119 : 	
; 1120 : 	return iAliveMonsterCount;
; 1121 : }

  000fe	5d		 pop	 ebp
  000ff	c2 04 00	 ret	 4
?GetMonsterListCount@CChaosCastle@@QAEHH@Z ENDP		; CChaosCastle::GetMonsterListCount
_TEXT	ENDS
PUBLIC	?SendAllUserAnyMsg@CChaosCastle@@QAEXPAEH@Z	; CChaosCastle::SendAllUserAnyMsg
EXTRN	?DataSend@@YAHHPAEK@Z:PROC			; DataSend
; Function compile flags: /Ogtp
;	COMDAT ?SendAllUserAnyMsg@CChaosCastle@@QAEXPAEH@Z
_TEXT	SEGMENT
_lpMsg$ = 8						; size = 4
_iSize$ = 12						; size = 4
?SendAllUserAnyMsg@CChaosCastle@@QAEXPAEH@Z PROC	; CChaosCastle::SendAllUserAnyMsg, COMDAT
; _this$ = ecx

; 1206 : {

  00000	55		 push	 ebp
  00001	8b ec		 mov	 ebp, esp
  00003	53		 push	 ebx

; 1207 : 	for ( int i=OBJ_STARTUSERINDEX;i<OBJMAX;i++)

  00004	8b 5d 0c	 mov	 ebx, DWORD PTR _iSize$[ebp]
  00007	56		 push	 esi
  00008	57		 push	 edi
  00009	bf 00 19 00 00	 mov	 edi, 6400		; 00001900H
  0000e	be 60 c4 16 02	 mov	 esi, OFFSET ?gObj@@3PAUOBJECTSTRUCT@@A+35046496
$LL5@SendAllUse:

; 1208 : 	{
; 1209 : 		if ( gObj[i].Connected == PLAYER_PLAYING )

  00013	80 7e a4 03	 cmp	 BYTE PTR [esi-92], 3
  00017	75 14		 jne	 SHORT $LN4@SendAllUse

; 1210 : 		{
; 1211 : 			if ( gObj[i].Type == OBJ_USER )

  00019	66 83 3e 01	 cmp	 WORD PTR [esi], 1
  0001d	75 0e		 jne	 SHORT $LN4@SendAllUse

; 1212 : 			{
; 1213 : 				DataSend(i, lpMsg, iSize);

  0001f	8b 45 08	 mov	 eax, DWORD PTR _lpMsg$[ebp]
  00022	53		 push	 ebx
  00023	50		 push	 eax
  00024	57		 push	 edi
  00025	e8 00 00 00 00	 call	 ?DataSend@@YAHHPAEK@Z	; DataSend
  0002a	83 c4 0c	 add	 esp, 12			; 0000000cH
$LN4@SendAllUse:

; 1207 : 	for ( int i=OBJ_STARTUSERINDEX;i<OBJMAX;i++)

  0002d	81 c6 64 15 00
	00		 add	 esi, 5476		; 00001564H
  00033	47		 inc	 edi
  00034	81 fe 00 53 6a
	02		 cmp	 esi, OFFSET ?gObj@@3PAUOBJECTSTRUCT@@A+40522496
  0003a	7c d7		 jl	 SHORT $LL5@SendAllUse
  0003c	5f		 pop	 edi
  0003d	5e		 pop	 esi
  0003e	5b		 pop	 ebx

; 1214 : 			}
; 1215 : 		}
; 1216 : 	}
; 1217 : }

  0003f	5d		 pop	 ebp
  00040	c2 08 00	 ret	 8
?SendAllUserAnyMsg@CChaosCastle@@QAEXPAEH@Z ENDP	; CChaosCastle::SendAllUserAnyMsg
_TEXT	ENDS
PUBLIC	?SendChaosCastleAnyMsg@CChaosCastle@@QAEXPAEHH@Z ; CChaosCastle::SendChaosCastleAnyMsg
EXTRN	?gObjIsConnected@@YAHH@Z:PROC			; gObjIsConnected
; Function compile flags: /Ogtp
;	COMDAT ?SendChaosCastleAnyMsg@CChaosCastle@@QAEXPAEHH@Z
_TEXT	SEGMENT
_lpMsg$ = 8						; size = 4
_iSize$ = 12						; size = 4
_iChaosCastleIndex$ = 16				; size = 4
?SendChaosCastleAnyMsg@CChaosCastle@@QAEXPAEHH@Z PROC	; CChaosCastle::SendChaosCastleAnyMsg, COMDAT
; _this$ = ecx

; 1220 : {

  00000	55		 push	 ebp
  00001	8b ec		 mov	 ebp, esp

; 1221 : 	if ( CC_FLOOR_RANGE(iChaosCastleIndex) == FALSE )

  00003	8b 45 10	 mov	 eax, DWORD PTR _iChaosCastleIndex$[ebp]
  00006	85 c0		 test	 eax, eax
  00008	78 6d		 js	 SHORT $LN4@SendChaosC
  0000a	33 d2		 xor	 edx, edx
  0000c	83 f8 05	 cmp	 eax, 5
  0000f	0f 9e c2	 setle	 dl
  00012	85 d2		 test	 edx, edx
  00014	74 61		 je	 SHORT $LN4@SendChaosC

; 1222 : 	{
; 1223 : 		return;
; 1224 : 	}
; 1225 : 
; 1226 : 	for ( int i=0;i<MAX_CHAOSCASTLE_USER;i++)

  00016	69 c0 6c 08 00
	00		 imul	 eax, 2156		; 0000086cH
  0001c	53		 push	 ebx
  0001d	56		 push	 esi
  0001e	57		 push	 edi
  0001f	8d 74 08 6c	 lea	 esi, DWORD PTR [eax+ecx+108]
  00023	bf 46 00 00 00	 mov	 edi, 70			; 00000046H
  00028	83 cb ff	 or	 ebx, -1
  0002b	eb 03 8d 49 00	 npad	 5
$LL6@SendChaosC:

; 1227 : 	{
; 1228 : 		if ( this->m_stChaosCastleData[iChaosCastleIndex].m_UserData[i].m_iIndex != -1 )

  00030	8b 06		 mov	 eax, DWORD PTR [esi]
  00032	3b c3		 cmp	 eax, ebx
  00034	74 38		 je	 SHORT $LN5@SendChaosC

; 1229 : 		{
; 1230 : 			if ( gObjIsConnected(this->m_stChaosCastleData[iChaosCastleIndex].m_UserData[i].m_iIndex) != FALSE )

  00036	50		 push	 eax
  00037	e8 00 00 00 00	 call	 ?gObjIsConnected@@YAHH@Z ; gObjIsConnected
  0003c	83 c4 04	 add	 esp, 4
  0003f	85 c0		 test	 eax, eax
  00041	74 2b		 je	 SHORT $LN5@SendChaosC

; 1231 : 			{
; 1232 : 				if ( gObj[this->m_stChaosCastleData[iChaosCastleIndex].m_UserData[i].m_iIndex].m_cChaosCastleIndex != -1 && gObj[this->m_stChaosCastleData[iChaosCastleIndex].m_UserData[i].m_iIndex].m_cChaosCastleSubIndex != -1 )

  00043	8b 0e		 mov	 ecx, DWORD PTR [esi]
  00045	8b c1		 mov	 eax, ecx
  00047	69 c0 64 15 00
	00		 imul	 eax, 5476		; 00001564H
  0004d	38 98 09 0d 00
	00		 cmp	 BYTE PTR ?gObj@@3PAUOBJECTSTRUCT@@A[eax+3337], bl
  00053	74 19		 je	 SHORT $LN5@SendChaosC
  00055	38 98 0a 0d 00
	00		 cmp	 BYTE PTR ?gObj@@3PAUOBJECTSTRUCT@@A[eax+3338], bl
  0005b	74 11		 je	 SHORT $LN5@SendChaosC

; 1233 : 				{
; 1234 : 					DataSend(this->m_stChaosCastleData[iChaosCastleIndex].m_UserData[i].m_iIndex, lpMsg, iSize);

  0005d	8b 45 0c	 mov	 eax, DWORD PTR _iSize$[ebp]
  00060	8b 55 08	 mov	 edx, DWORD PTR _lpMsg$[ebp]
  00063	50		 push	 eax
  00064	52		 push	 edx
  00065	51		 push	 ecx
  00066	e8 00 00 00 00	 call	 ?DataSend@@YAHHPAEK@Z	; DataSend
  0006b	83 c4 0c	 add	 esp, 12			; 0000000cH
$LN5@SendChaosC:

; 1222 : 	{
; 1223 : 		return;
; 1224 : 	}
; 1225 : 
; 1226 : 	for ( int i=0;i<MAX_CHAOSCASTLE_USER;i++)

  0006e	83 c6 14	 add	 esi, 20			; 00000014H
  00071	4f		 dec	 edi
  00072	75 bc		 jne	 SHORT $LL6@SendChaosC
  00074	5f		 pop	 edi
  00075	5e		 pop	 esi
  00076	5b		 pop	 ebx
$LN4@SendChaosC:

; 1235 : 				}
; 1236 : 			}
; 1237 : 		}
; 1238 : 	}
; 1239 : }

  00077	5d		 pop	 ebp
  00078	c2 0c 00	 ret	 12			; 0000000cH
?SendChaosCastleAnyMsg@CChaosCastle@@QAEXPAEHH@Z ENDP	; CChaosCastle::SendChaosCastleAnyMsg
_TEXT	ENDS
PUBLIC	__$ArrayPad$
PUBLIC	?SendNoticeMessage@CChaosCastle@@QAEXHPAD@Z	; CChaosCastle::SendNoticeMessage
EXTRN	?MakeNoticeMsgEx@TNotice@@SAXPAXEPADZZ:PROC	; TNotice::MakeNoticeMsgEx
; Function compile flags: /Ogtp
;	COMDAT ?SendNoticeMessage@CChaosCastle@@QAEXHPAD@Z
_TEXT	SEGMENT
_pNotice$ = -276					; size = 272
__$ArrayPad$ = -4					; size = 4
_iChaosCastleIndex$ = 8					; size = 4
_lpszMSG$ = 12						; size = 4
?SendNoticeMessage@CChaosCastle@@QAEXHPAD@Z PROC	; CChaosCastle::SendNoticeMessage, COMDAT
; _this$ = ecx

; 1242 : {

  00000	55		 push	 ebp
  00001	8b ec		 mov	 ebp, esp
  00003	81 ec 14 01 00
	00		 sub	 esp, 276		; 00000114H
  00009	a1 00 00 00 00	 mov	 eax, DWORD PTR ___security_cookie
  0000e	33 c5		 xor	 eax, ebp
  00010	89 45 fc	 mov	 DWORD PTR __$ArrayPad$[ebp], eax
  00013	8b 45 0c	 mov	 eax, DWORD PTR _lpszMSG$[ebp]
  00016	56		 push	 esi
  00017	8b 75 08	 mov	 esi, DWORD PTR _iChaosCastleIndex$[ebp]
  0001a	57		 push	 edi
  0001b	8b f9		 mov	 edi, ecx

; 1243 : 	if ( CC_FLOOR_RANGE(iChaosCastleIndex) == FALSE )

  0001d	85 f6		 test	 esi, esi
  0001f	78 77		 js	 SHORT $LN4@SendNotice
  00021	33 c9		 xor	 ecx, ecx
  00023	83 fe 05	 cmp	 esi, 5
  00026	0f 9e c1	 setle	 cl
  00029	85 c9		 test	 ecx, ecx
  0002b	74 6b		 je	 SHORT $LN4@SendNotice

; 1244 : 	{
; 1245 : 		return;
; 1246 : 	}
; 1247 : 
; 1248 : 	PMSG_NOTICE pNotice;
; 1249 : 	TNotice::MakeNoticeMsgEx((TNotice *)&pNotice, 0, lpszMSG);

  0002d	53		 push	 ebx
  0002e	50		 push	 eax
  0002f	8d 85 ec fe ff
	ff		 lea	 eax, DWORD PTR _pNotice$[ebp]
  00035	6a 00		 push	 0
  00037	50		 push	 eax
  00038	e8 00 00 00 00	 call	 ?MakeNoticeMsgEx@TNotice@@SAXPAXEPADZZ ; TNotice::MakeNoticeMsgEx
  0003d	69 f6 6c 08 00
	00		 imul	 esi, 2156		; 0000086cH
  00043	83 c4 0c	 add	 esp, 12			; 0000000cH
  00046	8d 74 3e 6c	 lea	 esi, DWORD PTR [esi+edi+108]
  0004a	bf 46 00 00 00	 mov	 edi, 70			; 00000046H
  0004f	83 cb ff	 or	 ebx, -1
$LL6@SendNotice:

; 1252 : 	{
; 1253 : 		if ( this->m_stChaosCastleData[iChaosCastleIndex].m_UserData[i].m_iIndex != -1 )

  00052	8b 0e		 mov	 ecx, DWORD PTR [esi]
  00054	3b cb		 cmp	 ecx, ebx
  00056	74 39		 je	 SHORT $LN5@SendNotice

; 1254 : 		{
; 1255 : 			if ( gObj[this->m_stChaosCastleData[iChaosCastleIndex].m_UserData[i].m_iIndex].Connected > PLAYER_LOGGED )

  00058	8b c1		 mov	 eax, ecx
  0005a	69 c0 64 15 00
	00		 imul	 eax, 5476		; 00001564H
  00060	80 b8 04 00 00
	00 02		 cmp	 BYTE PTR ?gObj@@3PAUOBJECTSTRUCT@@A[eax+4], 2
  00067	76 28		 jbe	 SHORT $LN5@SendNotice

; 1256 : 			{
; 1257 : 				if ( gObj[this->m_stChaosCastleData[iChaosCastleIndex].m_UserData[i].m_iIndex].m_cChaosCastleIndex != -1 && gObj[this->m_stChaosCastleData[iChaosCastleIndex].m_UserData[i].m_iIndex].m_cChaosCastleSubIndex != -1 )

  00069	38 98 09 0d 00
	00		 cmp	 BYTE PTR ?gObj@@3PAUOBJECTSTRUCT@@A[eax+3337], bl
  0006f	74 20		 je	 SHORT $LN5@SendNotice
  00071	38 98 0a 0d 00
	00		 cmp	 BYTE PTR ?gObj@@3PAUOBJECTSTRUCT@@A[eax+3338], bl
  00077	74 18		 je	 SHORT $LN5@SendNotice

; 1258 : 				{
; 1259 : 					DataSend(this->m_stChaosCastleData[iChaosCastleIndex].m_UserData[i].m_iIndex, (UCHAR*)&pNotice, pNotice.h.size);

  00079	0f b6 95 ed fe
	ff ff		 movzx	 edx, BYTE PTR _pNotice$[ebp+1]
  00080	52		 push	 edx
  00081	8d 85 ec fe ff
	ff		 lea	 eax, DWORD PTR _pNotice$[ebp]
  00087	50		 push	 eax
  00088	51		 push	 ecx
  00089	e8 00 00 00 00	 call	 ?DataSend@@YAHHPAEK@Z	; DataSend
  0008e	83 c4 0c	 add	 esp, 12			; 0000000cH
$LN5@SendNotice:

; 1250 : 
; 1251 : 	for ( int i=0;i<MAX_CHAOSCASTLE_USER;i++)

  00091	83 c6 14	 add	 esi, 20			; 00000014H
  00094	4f		 dec	 edi
  00095	75 bb		 jne	 SHORT $LL6@SendNotice
  00097	5b		 pop	 ebx
$LN4@SendNotice:

; 1260 : 				}
; 1261 : 			}
; 1262 : 		}
; 1263 : 	}
; 1264 : 
; 1265 : }

  00098	8b 4d fc	 mov	 ecx, DWORD PTR __$ArrayPad$[ebp]
  0009b	5f		 pop	 edi
  0009c	33 cd		 xor	 ecx, ebp
  0009e	5e		 pop	 esi
  0009f	e8 00 00 00 00	 call	 @__security_check_cookie@4
  000a4	8b e5		 mov	 esp, ebp
  000a6	5d		 pop	 ebp
  000a7	c2 08 00	 ret	 8
?SendNoticeMessage@CChaosCastle@@QAEXHPAD@Z ENDP	; CChaosCastle::SendNoticeMessage
_TEXT	ENDS
PUBLIC	?EnterUserChaosCastle@CChaosCastle@@QAEHHH@Z	; CChaosCastle::EnterUserChaosCastle
; Function compile flags: /Ogtp
;	COMDAT ?EnterUserChaosCastle@CChaosCastle@@QAEHHH@Z
_TEXT	SEGMENT
_iChaosCastleIndex$ = 8					; size = 4
_iUserIndex$ = 12					; size = 4
?EnterUserChaosCastle@CChaosCastle@@QAEHHH@Z PROC	; CChaosCastle::EnterUserChaosCastle, COMDAT
; _this$ = ecx

; 1387 : {

  00000	55		 push	 ebp
  00001	8b ec		 mov	 ebp, esp
  00003	57		 push	 edi

; 1388 : 	if ( CC_FLOOR_RANGE(iChaosCastleIndex) == FALSE )

  00004	8b 7d 08	 mov	 edi, DWORD PTR _iChaosCastleIndex$[ebp]
  00007	85 ff		 test	 edi, edi
  00009	78 0c		 js	 SHORT $LN17@EnterUserC
  0000b	33 c0		 xor	 eax, eax
  0000d	83 ff 05	 cmp	 edi, 5
  00010	0f 9e c0	 setle	 al
  00013	85 c0		 test	 eax, eax
  00015	75 08		 jne	 SHORT $LN8@EnterUserC
$LN17@EnterUserC:

; 1389 : 	{
; 1390 : 		return -1;

  00017	83 c8 ff	 or	 eax, -1
  0001a	5f		 pop	 edi

; 1419 : 			}
; 1420 : 
; 1421 : 			break;
; 1422 : 		}
; 1423 : 	}
; 1424 : 
; 1425 : 	return iRET_VAL;
; 1426 : }

  0001b	5d		 pop	 ebp
  0001c	c2 08 00	 ret	 8
$LN8@EnterUserC:

; 1391 : 	}
; 1392 : 
; 1393 : 	int iRET_VAL = -1;

  0001f	83 c8 ff	 or	 eax, -1

; 1394 : 
; 1395 : 	for ( int i=0;i<MAX_CHAOSCASTLE_USER;i++)

  00022	33 d2		 xor	 edx, edx
  00024	69 ff 6c 08 00
	00		 imul	 edi, 2156		; 0000086cH
  0002a	53		 push	 ebx
  0002b	56		 push	 esi
  0002c	8d 74 0f 6c	 lea	 esi, DWORD PTR [edi+ecx+108]
$LL18@EnterUserC:

; 1396 : 	{
; 1397 : 		if ( this->m_stChaosCastleData[iChaosCastleIndex].m_UserData[i].m_iIndex != -1 )

  00030	8b 1e		 mov	 ebx, DWORD PTR [esi]
  00032	83 fb ff	 cmp	 ebx, -1
  00035	74 1e		 je	 SHORT $LN15@EnterUserC

; 1398 : 		{
; 1399 : 			if ( this->m_stChaosCastleData[iChaosCastleIndex].m_UserData[i].m_iIndex == iUserIndex )

  00037	3b 5d 0c	 cmp	 ebx, DWORD PTR _iUserIndex$[ebp]
  0003a	74 10		 je	 SHORT $LN14@EnterUserC

; 1394 : 
; 1395 : 	for ( int i=0;i<MAX_CHAOSCASTLE_USER;i++)

  0003c	42		 inc	 edx
  0003d	83 c6 14	 add	 esi, 20			; 00000014H
  00040	83 fa 46	 cmp	 edx, 70			; 00000046H
  00043	7c eb		 jl	 SHORT $LL18@EnterUserC
  00045	5e		 pop	 esi
  00046	5b		 pop	 ebx
  00047	5f		 pop	 edi

; 1419 : 			}
; 1420 : 
; 1421 : 			break;
; 1422 : 		}
; 1423 : 	}
; 1424 : 
; 1425 : 	return iRET_VAL;
; 1426 : }

  00048	5d		 pop	 ebp
  00049	c2 08 00	 ret	 8
$LN14@EnterUserC:
  0004c	5e		 pop	 esi
  0004d	5b		 pop	 ebx

; 1400 : 			{
; 1401 : 				iRET_VAL = i;

  0004e	8b c2		 mov	 eax, edx
  00050	5f		 pop	 edi

; 1419 : 			}
; 1420 : 
; 1421 : 			break;
; 1422 : 		}
; 1423 : 	}
; 1424 : 
; 1425 : 	return iRET_VAL;
; 1426 : }

  00051	5d		 pop	 ebp
  00052	c2 08 00	 ret	 8
$LN15@EnterUserC:

; 1402 : 				break;
; 1403 : 			}
; 1404 : 		}
; 1405 : 
; 1406 : 		if ( this->m_stChaosCastleData[iChaosCastleIndex].m_UserData[i].m_iIndex == -1 )
; 1407 : 		{
; 1408 : 			iRET_VAL = i;
; 1409 : 			this->m_stChaosCastleData[iChaosCastleIndex].m_UserData[i].m_iIndex = iUserIndex;

  00055	8b 5d 0c	 mov	 ebx, DWORD PTR _iUserIndex$[ebp]
  00058	8d 34 92	 lea	 esi, DWORD PTR [edx+edx*4]
  0005b	8d 34 b7	 lea	 esi, DWORD PTR [edi+esi*4]
  0005e	03 f1		 add	 esi, ecx
  00060	8b c2		 mov	 eax, edx
  00062	89 5e 6c	 mov	 DWORD PTR [esi+108], ebx

; 1410 : 			this->m_stChaosCastleData[iChaosCastleIndex].m_UserData[i].m_iEXP = 0;

  00065	33 db		 xor	 ebx, ebx

; 1411 : 			this->m_stChaosCastleData[iChaosCastleIndex].m_UserData[i].m_iScore = 0;
; 1412 : 			this->m_stChaosCastleData[iChaosCastleIndex].m_UserData[i].m_iUserState = 0;

  00067	8d 54 92 1e	 lea	 edx, DWORD PTR [edx+edx*4+30]
  0006b	8d 14 97	 lea	 edx, DWORD PTR [edi+edx*4]
  0006e	89 1c 0a	 mov	 DWORD PTR [edx+ecx], ebx

; 1413 : 			this->m_stChaosCastleData[iChaosCastleIndex].m_UserData[i].m_bSendQuitMsg = false;
; 1414 : 			this->m_stChaosCastleData[iChaosCastleIndex].m_iCC_ENTERED_USER++;

  00071	8d 4c 0f 54	 lea	 ecx, DWORD PTR [edi+ecx+84]
  00075	89 5e 70	 mov	 DWORD PTR [esi+112], ebx
  00078	89 5e 74	 mov	 DWORD PTR [esi+116], ebx
  0007b	88 5e 7c	 mov	 BYTE PTR [esi+124], bl
  0007e	ff 01		 inc	 DWORD PTR [ecx]

; 1415 : 	
; 1416 : 			if ( this->m_stChaosCastleData[iChaosCastleIndex].m_iCC_ENTERED_USER > MAX_CHAOSCASTLE_USER)

  00080	83 39 46	 cmp	 DWORD PTR [ecx], 70	; 00000046H
  00083	7e 06		 jle	 SHORT $LN1@EnterUserC

; 1417 : 			{
; 1418 : 				this->m_stChaosCastleData[iChaosCastleIndex].m_iCC_ENTERED_USER = MAX_CHAOSCASTLE_USER;

  00085	c7 01 46 00 00
	00		 mov	 DWORD PTR [ecx], 70	; 00000046H
$LN1@EnterUserC:
  0008b	5e		 pop	 esi
  0008c	5b		 pop	 ebx
  0008d	5f		 pop	 edi

; 1419 : 			}
; 1420 : 
; 1421 : 			break;
; 1422 : 		}
; 1423 : 	}
; 1424 : 
; 1425 : 	return iRET_VAL;
; 1426 : }

  0008e	5d		 pop	 ebp
  0008f	c2 08 00	 ret	 8
?EnterUserChaosCastle@CChaosCastle@@QAEHHH@Z ENDP	; CChaosCastle::EnterUserChaosCastle
_TEXT	ENDS
PUBLIC	?LeaveUserChaosCastle@CChaosCastle@@QAEHHH@Z	; CChaosCastle::LeaveUserChaosCastle
; Function compile flags: /Ogtp
;	COMDAT ?LeaveUserChaosCastle@CChaosCastle@@QAEHHH@Z
_TEXT	SEGMENT
_iChaosCastleIndex$ = 8					; size = 4
_iUserIndex$ = 12					; size = 4
?LeaveUserChaosCastle@CChaosCastle@@QAEHHH@Z PROC	; CChaosCastle::LeaveUserChaosCastle, COMDAT
; _this$ = ecx

; 1429 : {

  00000	55		 push	 ebp
  00001	8b ec		 mov	 ebp, esp
  00003	56		 push	 esi

; 1430 : 	if ( CC_FLOOR_RANGE(iChaosCastleIndex) == FALSE )

  00004	8b 75 08	 mov	 esi, DWORD PTR _iChaosCastleIndex$[ebp]
  00007	85 f6		 test	 esi, esi
  00009	78 0c		 js	 SHORT $LN14@LeaveUserC
  0000b	33 c0		 xor	 eax, eax
  0000d	83 fe 05	 cmp	 esi, 5
  00010	0f 9e c0	 setle	 al
  00013	85 c0		 test	 eax, eax
  00015	75 08		 jne	 SHORT $LN6@LeaveUserC
$LN14@LeaveUserC:

; 1431 : 	{
; 1432 : 		return -1;

  00017	83 c8 ff	 or	 eax, -1
  0001a	5e		 pop	 esi

; 1452 : 			}
; 1453 : 
; 1454 : 			break;
; 1455 : 		}
; 1456 : 	}
; 1457 : 
; 1458 : 	return iRET_VAL;
; 1459 : }

  0001b	5d		 pop	 ebp
  0001c	c2 08 00	 ret	 8
$LN6@LeaveUserC:

; 1433 : 	}
; 1434 : 
; 1435 : 	int iRET_VAL = -1;

  0001f	83 c8 ff	 or	 eax, -1

; 1436 : 
; 1437 : 	for ( int i=0;i<MAX_CHAOSCASTLE_USER;i++)

  00022	33 d2		 xor	 edx, edx
  00024	69 f6 6c 08 00
	00		 imul	 esi, 2156		; 0000086cH
  0002a	53		 push	 ebx
  0002b	8b 5d 0c	 mov	 ebx, DWORD PTR _iUserIndex$[ebp]
  0002e	57		 push	 edi
  0002f	8d 7c 0e 6c	 lea	 edi, DWORD PTR [esi+ecx+108]
$LL5@LeaveUserC:

; 1438 : 	{
; 1439 : 		if ( this->m_stChaosCastleData[iChaosCastleIndex].m_UserData[i].m_iIndex == iUserIndex )

  00033	39 1f		 cmp	 DWORD PTR [edi], ebx
  00035	74 10		 je	 SHORT $LN12@LeaveUserC

; 1436 : 
; 1437 : 	for ( int i=0;i<MAX_CHAOSCASTLE_USER;i++)

  00037	42		 inc	 edx
  00038	83 c7 14	 add	 edi, 20			; 00000014H
  0003b	83 fa 46	 cmp	 edx, 70			; 00000046H
  0003e	7c f3		 jl	 SHORT $LL5@LeaveUserC
  00040	5f		 pop	 edi
  00041	5b		 pop	 ebx
  00042	5e		 pop	 esi

; 1452 : 			}
; 1453 : 
; 1454 : 			break;
; 1455 : 		}
; 1456 : 	}
; 1457 : 
; 1458 : 	return iRET_VAL;
; 1459 : }

  00043	5d		 pop	 ebp
  00044	c2 08 00	 ret	 8
$LN12@LeaveUserC:

; 1440 : 		{
; 1441 : 			iRET_VAL = iUserIndex;	// #error Instead of iUserIndex put i
; 1442 : 			this->m_stChaosCastleData[iChaosCastleIndex].m_UserData[i].m_iIndex = -1;

  00047	8d 3c 92	 lea	 edi, DWORD PTR [edx+edx*4]

; 1443 : 			this->m_stChaosCastleData[iChaosCastleIndex].m_UserData[i].m_iEXP = 0;
; 1444 : 			this->m_stChaosCastleData[iChaosCastleIndex].m_UserData[i].m_iScore = 0;
; 1445 : 			this->m_stChaosCastleData[iChaosCastleIndex].m_UserData[i].m_iUserState = 0;

  0004a	8d 54 92 1e	 lea	 edx, DWORD PTR [edx+edx*4+30]
  0004e	8b c3		 mov	 eax, ebx
  00050	33 db		 xor	 ebx, ebx
  00052	8d 3c be	 lea	 edi, DWORD PTR [esi+edi*4]
  00055	03 f9		 add	 edi, ecx
  00057	8d 14 96	 lea	 edx, DWORD PTR [esi+edx*4]
  0005a	89 1c 0a	 mov	 DWORD PTR [edx+ecx], ebx

; 1446 : 			this->m_stChaosCastleData[iChaosCastleIndex].m_UserData[i].m_bSendQuitMsg = false;
; 1447 : 			this->m_stChaosCastleData[iChaosCastleIndex].m_iCC_ENTERED_USER--;

  0005d	8d 4c 0e 54	 lea	 ecx, DWORD PTR [esi+ecx+84]
  00061	c7 47 6c ff ff
	ff ff		 mov	 DWORD PTR [edi+108], -1
  00068	89 5f 70	 mov	 DWORD PTR [edi+112], ebx
  0006b	89 5f 74	 mov	 DWORD PTR [edi+116], ebx
  0006e	88 5f 7c	 mov	 BYTE PTR [edi+124], bl
  00071	ff 09		 dec	 DWORD PTR [ecx]

; 1448 : 	
; 1449 : 			if ( this->m_stChaosCastleData[iChaosCastleIndex].m_iCC_ENTERED_USER < 0)

  00073	79 02		 jns	 SHORT $LN1@LeaveUserC

; 1450 : 			{
; 1451 : 				this->m_stChaosCastleData[iChaosCastleIndex].m_iCC_ENTERED_USER = 0;

  00075	89 19		 mov	 DWORD PTR [ecx], ebx
$LN1@LeaveUserC:
  00077	5f		 pop	 edi
  00078	5b		 pop	 ebx
  00079	5e		 pop	 esi

; 1452 : 			}
; 1453 : 
; 1454 : 			break;
; 1455 : 		}
; 1456 : 	}
; 1457 : 
; 1458 : 	return iRET_VAL;
; 1459 : }

  0007a	5d		 pop	 ebp
  0007b	c2 08 00	 ret	 8
?LeaveUserChaosCastle@CChaosCastle@@QAEHHH@Z ENDP	; CChaosCastle::LeaveUserChaosCastle
_TEXT	ENDS
PUBLIC	?AddFallUser@CChaosCastle@@QAEXHH@Z		; CChaosCastle::AddFallUser
; Function compile flags: /Ogtp
;	COMDAT ?AddFallUser@CChaosCastle@@QAEXHH@Z
_TEXT	SEGMENT
_iChaosCastleIndex$ = 8					; size = 4
_iUserIndex$ = 12					; size = 4
?AddFallUser@CChaosCastle@@QAEXHH@Z PROC		; CChaosCastle::AddFallUser, COMDAT
; _this$ = ecx

; 1462 : {

  00000	55		 push	 ebp
  00001	8b ec		 mov	 ebp, esp
  00003	56		 push	 esi

; 1463 : 	if ( CC_FLOOR_RANGE(iChaosCastleIndex) == FALSE )

  00004	8b 75 08	 mov	 esi, DWORD PTR _iChaosCastleIndex$[ebp]
  00007	85 f6		 test	 esi, esi
  00009	78 4a		 js	 SHORT $LN2@AddFallUse
  0000b	33 c0		 xor	 eax, eax
  0000d	83 fe 05	 cmp	 esi, 5
  00010	0f 9e c0	 setle	 al
  00013	85 c0		 test	 eax, eax
  00015	74 3e		 je	 SHORT $LN2@AddFallUse

; 1464 : 	{
; 1465 : 		return;
; 1466 : 	}
; 1467 : 
; 1468 : 	for ( int iFALL=0;iFALL<MAX_CHAOSCASTLE_USER;iFALL++)

  00017	8b d6		 mov	 edx, esi
  00019	33 c0		 xor	 eax, eax
  0001b	69 d2 6c 08 00
	00		 imul	 edx, 2156		; 0000086cH
  00021	8d 94 0a 74 07
	00 00		 lea	 edx, DWORD PTR [edx+ecx+1908]
$LL4@AddFallUse:

; 1469 : 	{
; 1470 : 		if ( this->m_stChaosCastleData[iChaosCastleIndex].m_lFallUser[iFALL] == -1 )

  00028	83 3a ff	 cmp	 DWORD PTR [edx], -1
  0002b	74 0e		 je	 SHORT $LN11@AddFallUse

; 1464 : 	{
; 1465 : 		return;
; 1466 : 	}
; 1467 : 
; 1468 : 	for ( int iFALL=0;iFALL<MAX_CHAOSCASTLE_USER;iFALL++)

  0002d	40		 inc	 eax
  0002e	83 c2 04	 add	 edx, 4
  00031	83 f8 46	 cmp	 eax, 70			; 00000046H
  00034	7c f2		 jl	 SHORT $LL4@AddFallUse
  00036	5e		 pop	 esi

; 1473 : 			break;
; 1474 : 		}
; 1475 : 	}
; 1476 : }

  00037	5d		 pop	 ebp
  00038	c2 08 00	 ret	 8
$LN11@AddFallUse:

; 1471 : 		{
; 1472 : 			InterlockedExchange(&this->m_stChaosCastleData[iChaosCastleIndex].m_lFallUser[iFALL], iUserIndex);

  0003b	8b 55 0c	 mov	 edx, DWORD PTR _iUserIndex$[ebp]
  0003e	69 f6 1b 02 00
	00		 imul	 esi, 539		; 0000021bH
  00044	03 f0		 add	 esi, eax
  00046	52		 push	 edx
  00047	8d 84 b1 74 07
	00 00		 lea	 eax, DWORD PTR [ecx+esi*4+1908]
  0004e	50		 push	 eax
  0004f	ff 15 00 00 00
	00		 call	 DWORD PTR __imp__InterlockedExchange@8
$LN2@AddFallUse:
  00055	5e		 pop	 esi

; 1473 : 			break;
; 1474 : 		}
; 1475 : 	}
; 1476 : }

  00056	5d		 pop	 ebp
  00057	c2 08 00	 ret	 8
?AddFallUser@CChaosCastle@@QAEXHH@Z ENDP		; CChaosCastle::AddFallUser
_TEXT	ENDS
PUBLIC	__real@00000000
PUBLIC	?ProcessFallUser@CChaosCastle@@QAEXH@Z		; CChaosCastle::ProcessFallUser
EXTRN	?GCDiePlayerSend@@YAXPAUOBJECTSTRUCT@@HEH@Z:PROC ; GCDiePlayerSend
EXTRN	__imp__GetTickCount@0:PROC
;	COMDAT __real@00000000
CONST	SEGMENT
__real@00000000 DD 000000000r			; 0
; Function compile flags: /Ogtp
CONST	ENDS
;	COMDAT ?ProcessFallUser@CChaosCastle@@QAEXH@Z
_TEXT	SEGMENT
tv82 = -4						; size = 4
_iChaosCastleIndex$ = 8					; size = 4
?ProcessFallUser@CChaosCastle@@QAEXH@Z PROC		; CChaosCastle::ProcessFallUser, COMDAT
; _this$ = ecx

; 1479 : {

  00000	55		 push	 ebp
  00001	8b ec		 mov	 ebp, esp
  00003	51		 push	 ecx

; 1480 : 	if ( CC_FLOOR_RANGE(iChaosCastleIndex) == FALSE )

  00004	8b 45 08	 mov	 eax, DWORD PTR _iChaosCastleIndex$[ebp]
  00007	85 c0		 test	 eax, eax
  00009	0f 88 db 00 00
	00		 js	 $LN3@ProcessFal
  0000f	33 d2		 xor	 edx, edx
  00011	83 f8 05	 cmp	 eax, 5
  00014	0f 9e c2	 setle	 dl
  00017	85 d2		 test	 edx, edx
  00019	0f 84 cb 00 00
	00		 je	 $LN3@ProcessFal

; 1481 : 	{
; 1482 : 		return;
; 1483 : 	}
; 1484 : 
; 1485 : 	for ( int iFALL=0;iFALL<MAX_CHAOSCASTLE_USER;iFALL++)

  0001f	69 c0 6c 08 00
	00		 imul	 eax, 2156		; 0000086cH
  00025	53		 push	 ebx
  00026	56		 push	 esi
  00027	57		 push	 edi
  00028	8d 9c 08 74 07
	00 00		 lea	 ebx, DWORD PTR [eax+ecx+1908]
  0002f	c7 45 fc 46 00
	00 00		 mov	 DWORD PTR tv82[ebp], 70	; 00000046H
  00036	eb 08 8d a4 24
	00 00 00 00 90	 npad	 10
$LL5@ProcessFal:

; 1486 : 	{
; 1487 : 		if ( this->m_stChaosCastleData[iChaosCastleIndex].m_lFallUser[iFALL] != -1 )

  00040	8b 3b		 mov	 edi, DWORD PTR [ebx]
  00042	83 ff ff	 cmp	 edi, -1
  00045	0f 84 90 00 00
	00		 je	 $LN4@ProcessFal

; 1488 : 		{
; 1489 : 			int iFALL_INDEX = this->m_stChaosCastleData[iChaosCastleIndex].m_lFallUser[iFALL];
; 1490 : 			InterlockedExchange(&this->m_stChaosCastleData[iChaosCastleIndex].m_lFallUser[iFALL], -1);

  0004b	6a ff		 push	 -1
  0004d	53		 push	 ebx
  0004e	ff 15 00 00 00
	00		 call	 DWORD PTR __imp__InterlockedExchange@8

; 1491 : 
; 1492 : 			if ( (gObj[iFALL_INDEX].MapNumber) == (iChaosCastleIndex+18) &&
; 1493 : 				  gObjIsConnected(iFALL_INDEX) &&
; 1494 : 				  gObj[iFALL_INDEX].Life > 0 )

  00054	8b 4d 08	 mov	 ecx, DWORD PTR _iChaosCastleIndex$[ebp]
  00057	8b f7		 mov	 esi, edi
  00059	69 f6 64 15 00
	00		 imul	 esi, 5476		; 00001564H
  0005f	0f b6 86 09 01
	00 00		 movzx	 eax, BYTE PTR ?gObj@@3PAUOBJECTSTRUCT@@A[esi+265]
  00066	83 c1 12	 add	 ecx, 18			; 00000012H
  00069	3b c1		 cmp	 eax, ecx
  0006b	75 6e		 jne	 SHORT $LN4@ProcessFal
  0006d	57		 push	 edi
  0006e	e8 00 00 00 00	 call	 ?gObjIsConnected@@YAHH@Z ; gObjIsConnected
  00073	83 c4 04	 add	 esp, 4
  00076	85 c0		 test	 eax, eax
  00078	74 61		 je	 SHORT $LN4@ProcessFal
  0007a	d9 ee		 fldz
  0007c	d8 96 bc 00 00
	00		 fcom	 DWORD PTR ?gObj@@3PAUOBJECTSTRUCT@@A[esi+188]
  00082	df e0		 fnstsw	 ax
  00084	f6 c4 05	 test	 ah, 5
  00087	7a 50		 jp	 SHORT $LN16@ProcessFal

; 1495 : 			{
; 1496 : 				gObj[iFALL_INDEX].Life = 0;

  00089	d9 9e bc 00 00
	00		 fstp	 DWORD PTR ?gObj@@3PAUOBJECTSTRUCT@@A[esi+188]

; 1497 : 				gObj[iFALL_INDEX].m_State = 4;

  0008f	c7 86 bc 01 00
	00 04 00 00 00	 mov	 DWORD PTR ?gObj@@3PAUOBJECTSTRUCT@@A[esi+444], 4

; 1498 : 				gObj[iFALL_INDEX].KillerType = 1;

  00099	c6 86 01 02 00
	00 01		 mov	 BYTE PTR ?gObj@@3PAUOBJECTSTRUCT@@A[esi+513], 1

; 1499 : 				gObj[iFALL_INDEX].RegenTime = GetTickCount();

  000a0	ff 15 00 00 00
	00		 call	 DWORD PTR __imp__GetTickCount@0

; 1500 : 				gObj[iFALL_INDEX].DieRegen = 1;
; 1501 : 				gObj[iFALL_INDEX].PathCount = 0;
; 1502 : 				
; 1503 : 				GCDiePlayerSend(&gObj[iFALL_INDEX], gObj[iFALL_INDEX].m_Index, 0, 0);

  000a6	8b 96 00 00 00
	00		 mov	 edx, DWORD PTR ?gObj@@3PAUOBJECTSTRUCT@@A[esi]
  000ac	89 86 08 02 00
	00		 mov	 DWORD PTR ?gObj@@3PAUOBJECTSTRUCT@@A[esi+520], eax
  000b2	8d 86 00 00 00
	00		 lea	 eax, DWORD PTR ?gObj@@3PAUOBJECTSTRUCT@@A[esi]
  000b8	6a 00		 push	 0
  000ba	6a 00		 push	 0
  000bc	52		 push	 edx
  000bd	50		 push	 eax
  000be	c6 86 02 02 00
	00 01		 mov	 BYTE PTR ?gObj@@3PAUOBJECTSTRUCT@@A[esi+514], 1
  000c5	c7 86 28 01 00
	00 00 00 00 00	 mov	 DWORD PTR ?gObj@@3PAUOBJECTSTRUCT@@A[esi+296], 0
  000cf	e8 00 00 00 00	 call	 ?GCDiePlayerSend@@YAXPAUOBJECTSTRUCT@@HEH@Z ; GCDiePlayerSend
  000d4	83 c4 10	 add	 esp, 16			; 00000010H
  000d7	eb 02		 jmp	 SHORT $LN4@ProcessFal
$LN16@ProcessFal:
  000d9	dd d8		 fstp	 ST(0)
$LN4@ProcessFal:

; 1481 : 	{
; 1482 : 		return;
; 1483 : 	}
; 1484 : 
; 1485 : 	for ( int iFALL=0;iFALL<MAX_CHAOSCASTLE_USER;iFALL++)

  000db	83 c3 04	 add	 ebx, 4
  000de	ff 4d fc	 dec	 DWORD PTR tv82[ebp]
  000e1	0f 85 59 ff ff
	ff		 jne	 $LL5@ProcessFal
  000e7	5f		 pop	 edi
  000e8	5e		 pop	 esi
  000e9	5b		 pop	 ebx
$LN3@ProcessFal:

; 1504 : 			}
; 1505 : 		}
; 1506 : 	}
; 1507 : }

  000ea	8b e5		 mov	 esp, ebp
  000ec	5d		 pop	 ebp
  000ed	c2 04 00	 ret	 4
?ProcessFallUser@CChaosCastle@@QAEXH@Z ENDP		; CChaosCastle::ProcessFallUser
_TEXT	ENDS
PUBLIC	?SetUserState@CChaosCastle@@QAEXHH@Z		; CChaosCastle::SetUserState
; Function compile flags: /Ogtp
;	COMDAT ?SetUserState@CChaosCastle@@QAEXHH@Z
_TEXT	SEGMENT
_iUserIndex$ = 8					; size = 4
_iState$ = 12						; size = 4
?SetUserState@CChaosCastle@@QAEXHH@Z PROC		; CChaosCastle::SetUserState, COMDAT
; _this$ = ecx

; 1510 : {

  00000	55		 push	 ebp
  00001	8b ec		 mov	 ebp, esp

; 1511 : 	if ( !OBJMAX_RANGE(iUserIndex))

  00003	8b 55 08	 mov	 edx, DWORD PTR _iUserIndex$[ebp]
  00006	57		 push	 edi
  00007	8b f9		 mov	 edi, ecx
  00009	85 d2		 test	 edx, edx
  0000b	0f 88 80 00 00
	00		 js	 $LN3@SetUserSta
  00011	33 c0		 xor	 eax, eax
  00013	81 fa e7 1c 00
	00		 cmp	 edx, 7399		; 00001ce7H
  00019	0f 9e c0	 setle	 al
  0001c	85 c0		 test	 eax, eax
  0001e	74 71		 je	 SHORT $LN3@SetUserSta

; 1512 : 		return;
; 1513 : 
; 1514 : 	int iChaosCastleIndex = gObj[iUserIndex].m_cChaosCastleIndex;

  00020	69 d2 64 15 00
	00		 imul	 edx, 5476		; 00001564H
  00026	0f be 82 09 0d
	00 00		 movsx	 eax, BYTE PTR ?gObj@@3PAUOBJECTSTRUCT@@A[edx+3337]

; 1515 : 	int iChaosCastleSubIndex = gObj[iUserIndex].m_cChaosCastleSubIndex;

  0002d	0f be 92 0a 0d
	00 00		 movsx	 edx, BYTE PTR ?gObj@@3PAUOBJECTSTRUCT@@A[edx+3338]

; 1516 : 
; 1517 : 	if ( CC_FLOOR_RANGE(iChaosCastleIndex) == FALSE )

  00034	85 c0		 test	 eax, eax
  00036	78 59		 js	 SHORT $LN3@SetUserSta
  00038	33 c9		 xor	 ecx, ecx
  0003a	83 f8 05	 cmp	 eax, 5
  0003d	0f 9e c1	 setle	 cl
  00040	56		 push	 esi
  00041	8b f1		 mov	 esi, ecx
  00043	85 f6		 test	 esi, esi
  00045	74 49		 je	 SHORT $LN16@SetUserSta

; 1518 : 		return;
; 1519 : 
; 1520 : 	if ( CC_SUB_FLOOR_RANGE(iChaosCastleSubIndex) == FALSE )

  00047	85 d2		 test	 edx, edx
  00049	78 45		 js	 SHORT $LN16@SetUserSta
  0004b	33 c9		 xor	 ecx, ecx
  0004d	83 fa 45	 cmp	 edx, 69			; 00000045H
  00050	0f 9e c1	 setle	 cl
  00053	8b f1		 mov	 esi, ecx
  00055	85 f6		 test	 esi, esi
  00057	74 37		 je	 SHORT $LN16@SetUserSta

; 1521 : 		return;
; 1522 : 
; 1523 : 	switch ( iState )

  00059	8b 75 0c	 mov	 esi, DWORD PTR _iState$[ebp]
  0005c	83 ee 00	 sub	 esi, 0
  0005f	74 1c		 je	 SHORT $LN2@SetUserSta
  00061	4e		 dec	 esi
  00062	75 2c		 jne	 SHORT $LN16@SetUserSta

; 1527 : 			break;
; 1528 : 		case 1:
; 1529 : 			this->m_stChaosCastleData[iChaosCastleIndex].m_UserData[iChaosCastleSubIndex].m_iUserState = 1;

  00064	69 c0 6c 08 00
	00		 imul	 eax, 2156		; 0000086cH
  0006a	03 c7		 add	 eax, edi
  0006c	8d 54 92 1e	 lea	 edx, DWORD PTR [edx+edx*4+30]
  00070	5e		 pop	 esi
  00071	c7 04 90 01 00
	00 00		 mov	 DWORD PTR [eax+edx*4], 1
  00078	5f		 pop	 edi

; 1530 : 	}
; 1531 : }

  00079	5d		 pop	 ebp
  0007a	c2 08 00	 ret	 8
$LN2@SetUserSta:

; 1524 : 	{
; 1525 : 		case 0:
; 1526 : 			this->m_stChaosCastleData[iChaosCastleIndex].m_UserData[iChaosCastleSubIndex].m_iUserState = 0;

  0007d	69 c0 6c 08 00
	00		 imul	 eax, 2156		; 0000086cH
  00083	8d 4c 92 1e	 lea	 ecx, DWORD PTR [edx+edx*4+30]
  00087	03 c7		 add	 eax, edi
  00089	c7 04 88 00 00
	00 00		 mov	 DWORD PTR [eax+ecx*4], 0
$LN16@SetUserSta:
  00090	5e		 pop	 esi
$LN3@SetUserSta:
  00091	5f		 pop	 edi

; 1530 : 	}
; 1531 : }

  00092	5d		 pop	 ebp
  00093	c2 08 00	 ret	 8
?SetUserState@CChaosCastle@@QAEXHH@Z ENDP		; CChaosCastle::SetUserState
_TEXT	ENDS
PUBLIC	?GetUserLevelToEnter@CChaosCastle@@QAEHH@Z	; CChaosCastle::GetUserLevelToEnter
; Function compile flags: /Ogtp
;	COMDAT ?GetUserLevelToEnter@CChaosCastle@@QAEHH@Z
_TEXT	SEGMENT
_iUserIndex$ = 8					; size = 4
?GetUserLevelToEnter@CChaosCastle@@QAEHH@Z PROC		; CChaosCastle::GetUserLevelToEnter, COMDAT
; _this$ = ecx

; 1579 : {

  00000	55		 push	 ebp
  00001	8b ec		 mov	 ebp, esp
  00003	56		 push	 esi

; 1580 : 	if ( !gObjIsConnected(iUserIndex))

  00004	8b 75 08	 mov	 esi, DWORD PTR _iUserIndex$[ebp]
  00007	56		 push	 esi
  00008	e8 00 00 00 00	 call	 ?gObjIsConnected@@YAHH@Z ; gObjIsConnected
  0000d	83 c4 04	 add	 esp, 4
  00010	85 c0		 test	 eax, eax
  00012	75 08		 jne	 SHORT $LN9@GetUserLev

; 1581 : 		return -1;

  00014	83 c8 ff	 or	 eax, -1
  00017	5e		 pop	 esi

; 1601 : 			{
; 1602 : 				iENTER_LEVEL = i;
; 1603 : 				break;
; 1604 : 			}
; 1605 : 		}
; 1606 : 	}
; 1607 : 			 
; 1608 : 	return iENTER_LEVEL;
; 1609 : }

  00018	5d		 pop	 ebp
  00019	c2 04 00	 ret	 4
$LN9@GetUserLev:
  0001c	53		 push	 ebx
  0001d	57		 push	 edi

; 1582 : 
; 1583 : 	int iENTER_LEVEL = -1;
; 1584 : 
; 1585 : 	for (int i=0;i<MAX_CHAOSCASTLE_LEVEL;i++)

  0001e	8b d6		 mov	 edx, esi
  00020	83 c8 ff	 or	 eax, -1
  00023	33 ff		 xor	 edi, edi
  00025	69 d2 64 15 00
	00		 imul	 edx, 5476		; 00001564H
  0002b	0f b7 9a 98 00
	00 00		 movzx	 ebx, WORD PTR ?gObj@@3PAUOBJECTSTRUCT@@A[edx+152]
  00032	b9 04 00 00 00	 mov	 ecx, OFFSET _g_sttCHAOSCASTLE_LEVEL+4
$LL8@GetUserLev:

; 1586 : 	{
; 1587 : 		if ( gObj[iUserIndex].Class == CLASS_DARKLORD ||
; 1588 : 			 gObj[iUserIndex].Class == CLASS_MAGUMSA )

  00037	83 fb 04	 cmp	 ebx, 4
  0003a	74 15		 je	 SHORT $LN4@GetUserLev
  0003c	83 fb 03	 cmp	 ebx, 3
  0003f	74 10		 je	 SHORT $LN4@GetUserLev

; 1594 : 				break;
; 1595 : 			}
; 1596 : 		}
; 1597 : 		else
; 1598 : 		{
; 1599 : 			if ( gObj[iUserIndex].Level >= g_sttCHAOSCASTLE_LEVEL[i].iLOWER_BOUND &&
; 1600 : 				 gObj[iUserIndex].Level <= g_sttCHAOSCASTLE_LEVEL[i].iUPPER_BOUND )

  00041	0f bf b2 9c 00
	00 00		 movsx	 esi, WORD PTR ?gObj@@3PAUOBJECTSTRUCT@@A[edx+156]
  00048	3b 71 fc	 cmp	 esi, DWORD PTR [ecx-4]
  0004b	7c 15		 jl	 SHORT $LN7@GetUserLev
  0004d	3b 31		 cmp	 esi, DWORD PTR [ecx]
  0004f	eb 0f		 jmp	 SHORT $LN16@GetUserLev
$LN4@GetUserLev:

; 1589 : 		{
; 1590 : 			if ( gObj[iUserIndex].Level >= g_sttCHAOSCASTLE_LEVEL[i].iLOWER_BOUND_MAGUMSA &&
; 1591 : 				 gObj[iUserIndex].Level <= g_sttCHAOSCASTLE_LEVEL[i].iUPPER_BOUND_MAGUMSA )

  00051	0f bf b2 9c 00
	00 00		 movsx	 esi, WORD PTR ?gObj@@3PAUOBJECTSTRUCT@@A[edx+156]
  00058	3b 71 04	 cmp	 esi, DWORD PTR [ecx+4]
  0005b	7c 05		 jl	 SHORT $LN7@GetUserLev
  0005d	3b 71 08	 cmp	 esi, DWORD PTR [ecx+8]
$LN16@GetUserLev:
  00060	7e 13		 jle	 SHORT $LN14@GetUserLev
$LN7@GetUserLev:

; 1582 : 
; 1583 : 	int iENTER_LEVEL = -1;
; 1584 : 
; 1585 : 	for (int i=0;i<MAX_CHAOSCASTLE_LEVEL;i++)

  00062	83 c1 10	 add	 ecx, 16			; 00000010H
  00065	47		 inc	 edi
  00066	81 f9 64 00 00
	00		 cmp	 ecx, OFFSET _g_sttCHAOSCASTLE_LEVEL+100
  0006c	7c c9		 jl	 SHORT $LL8@GetUserLev
  0006e	5f		 pop	 edi
  0006f	5b		 pop	 ebx
  00070	5e		 pop	 esi

; 1601 : 			{
; 1602 : 				iENTER_LEVEL = i;
; 1603 : 				break;
; 1604 : 			}
; 1605 : 		}
; 1606 : 	}
; 1607 : 			 
; 1608 : 	return iENTER_LEVEL;
; 1609 : }

  00071	5d		 pop	 ebp
  00072	c2 04 00	 ret	 4
$LN14@GetUserLev:

; 1592 : 			{
; 1593 : 				iENTER_LEVEL = i;

  00075	8b c7		 mov	 eax, edi
  00077	5f		 pop	 edi
  00078	5b		 pop	 ebx
  00079	5e		 pop	 esi

; 1601 : 			{
; 1602 : 				iENTER_LEVEL = i;
; 1603 : 				break;
; 1604 : 			}
; 1605 : 		}
; 1606 : 	}
; 1607 : 			 
; 1608 : 	return iENTER_LEVEL;
; 1609 : }

  0007a	5d		 pop	 ebp
  0007b	c2 04 00	 ret	 4
?GetUserLevelToEnter@CChaosCastle@@QAEHH@Z ENDP		; CChaosCastle::GetUserLevelToEnter
_TEXT	ENDS
PUBLIC	?CheckUserEnterMoney@CChaosCastle@@QAEHHH@Z	; CChaosCastle::CheckUserEnterMoney
; Function compile flags: /Ogtp
;	COMDAT ?CheckUserEnterMoney@CChaosCastle@@QAEHHH@Z
_TEXT	SEGMENT
_iUserIndex$ = 8					; size = 4
_iEnterLevel$ = 12					; size = 4
?CheckUserEnterMoney@CChaosCastle@@QAEHHH@Z PROC	; CChaosCastle::CheckUserEnterMoney, COMDAT
; _this$ = ecx

; 1612 : {

  00000	55		 push	 ebp
  00001	8b ec		 mov	 ebp, esp

; 1613 : 	if ( OBJMAX_RANGE(iUserIndex) == FALSE )

  00003	8b 45 08	 mov	 eax, DWORD PTR _iUserIndex$[ebp]
  00006	85 c0		 test	 eax, eax
  00008	78 0e		 js	 SHORT $LN10@CheckUserE
  0000a	33 c9		 xor	 ecx, ecx
  0000c	3d e7 1c 00 00	 cmp	 eax, 7399		; 00001ce7H
  00011	0f 9e c1	 setle	 cl
  00014	85 c9		 test	 ecx, ecx
  00016	75 06		 jne	 SHORT $LN3@CheckUserE
$LN10@CheckUserE:

; 1614 : 	{
; 1615 : 		return FALSE;

  00018	33 c0		 xor	 eax, eax

; 1624 : 	{
; 1625 : 		return TRUE;
; 1626 : 	}
; 1627 : 
; 1628 : 	return FALSE;
; 1629 : }

  0001a	5d		 pop	 ebp
  0001b	c2 08 00	 ret	 8
$LN3@CheckUserE:

; 1616 : 	}
; 1617 : 
; 1618 : 	if ( CC_FLOOR_RANGE(iEnterLevel) == FALSE )

  0001e	8b 4d 0c	 mov	 ecx, DWORD PTR _iEnterLevel$[ebp]
  00021	85 c9		 test	 ecx, ecx
  00023	78 f3		 js	 SHORT $LN10@CheckUserE
  00025	33 d2		 xor	 edx, edx
  00027	83 f9 05	 cmp	 ecx, 5
  0002a	0f 9e c2	 setle	 dl
  0002d	85 d2		 test	 edx, edx

; 1619 : 	{
; 1620 : 		return FALSE;

  0002f	74 e7		 je	 SHORT $LN10@CheckUserE

; 1621 : 	}
; 1622 : 
; 1623 : 	if ( gObj[iUserIndex].Money >= ::g_iChaosCastle_EnterCost[iEnterLevel] )

  00031	69 c0 64 15 00
	00		 imul	 eax, 5476		; 00001564H
  00037	8b 80 b0 00 00
	00		 mov	 eax, DWORD PTR ?gObj@@3PAUOBJECTSTRUCT@@A[eax+176]
  0003d	33 d2		 xor	 edx, edx
  0003f	3b 04 8d 00 00
	00 00		 cmp	 eax, DWORD PTR _g_iChaosCastle_EnterCost[ecx*4]
  00046	0f 9d c2	 setge	 dl
  00049	8b c2		 mov	 eax, edx

; 1624 : 	{
; 1625 : 		return TRUE;
; 1626 : 	}
; 1627 : 
; 1628 : 	return FALSE;
; 1629 : }

  0004b	5d		 pop	 ebp
  0004c	c2 08 00	 ret	 8
?CheckUserEnterMoney@CChaosCastle@@QAEHHH@Z ENDP	; CChaosCastle::CheckUserEnterMoney
_TEXT	ENDS
PUBLIC	?PayUserEnterMoney@CChaosCastle@@QAEHHH@Z	; CChaosCastle::PayUserEnterMoney
EXTRN	?GCMoneySend@@YAXHK@Z:PROC			; GCMoneySend
; Function compile flags: /Ogtp
;	COMDAT ?PayUserEnterMoney@CChaosCastle@@QAEHHH@Z
_TEXT	SEGMENT
_iUserIndex$ = 8					; size = 4
_iEnterLevel$ = 12					; size = 4
?PayUserEnterMoney@CChaosCastle@@QAEHHH@Z PROC		; CChaosCastle::PayUserEnterMoney, COMDAT
; _this$ = ecx

; 1632 : {

  00000	55		 push	 ebp
  00001	8b ec		 mov	 ebp, esp
  00003	56		 push	 esi

; 1633 : 	if ( OBJMAX_RANGE(iUserIndex) == FALSE )

  00004	8b 75 08	 mov	 esi, DWORD PTR _iUserIndex$[ebp]
  00007	85 f6		 test	 esi, esi
  00009	78 55		 js	 SHORT $LN1@PayUserEnt
  0000b	33 c0		 xor	 eax, eax
  0000d	81 fe e7 1c 00
	00		 cmp	 esi, 7399		; 00001ce7H
  00013	0f 9e c0	 setle	 al
  00016	85 c0		 test	 eax, eax

; 1634 : 	{
; 1635 : 		return FALSE;

  00018	74 46		 je	 SHORT $LN1@PayUserEnt

; 1636 : 	}
; 1637 : 
; 1638 : 	if ( CC_FLOOR_RANGE(iEnterLevel) == FALSE )

  0001a	8b 55 0c	 mov	 edx, DWORD PTR _iEnterLevel$[ebp]
  0001d	85 d2		 test	 edx, edx
  0001f	78 3f		 js	 SHORT $LN1@PayUserEnt
  00021	33 c0		 xor	 eax, eax
  00023	83 fa 05	 cmp	 edx, 5
  00026	0f 9e c0	 setle	 al
  00029	85 c0		 test	 eax, eax

; 1639 : 	{
; 1640 : 		return FALSE;

  0002b	74 33		 je	 SHORT $LN1@PayUserEnt

; 1641 : 	}
; 1642 : 
; 1643 : 	if ( gObj[iUserIndex].Money >= ::g_iChaosCastle_EnterCost[iEnterLevel] )

  0002d	8b 14 95 00 00
	00 00		 mov	 edx, DWORD PTR _g_iChaosCastle_EnterCost[edx*4]
  00034	8b c6		 mov	 eax, esi
  00036	69 c0 64 15 00
	00		 imul	 eax, 5476		; 00001564H
  0003c	8d 88 b0 00 00
	00		 lea	 ecx, DWORD PTR ?gObj@@3PAUOBJECTSTRUCT@@A[eax+176]
  00042	8b 01		 mov	 eax, DWORD PTR [ecx]
  00044	3b c2		 cmp	 eax, edx
  00046	7c 18		 jl	 SHORT $LN1@PayUserEnt

; 1644 : 	{
; 1645 : 		gObj[iUserIndex].Money -= ::g_iChaosCastle_EnterCost[iEnterLevel];

  00048	2b c2		 sub	 eax, edx

; 1646 : 		GCMoneySend(iUserIndex, gObj[iUserIndex].Money);

  0004a	50		 push	 eax
  0004b	56		 push	 esi
  0004c	89 01		 mov	 DWORD PTR [ecx], eax
  0004e	e8 00 00 00 00	 call	 ?GCMoneySend@@YAXHK@Z	; GCMoneySend
  00053	83 c4 08	 add	 esp, 8

; 1647 : 
; 1648 : 		return TRUE;

  00056	b8 01 00 00 00	 mov	 eax, 1
  0005b	5e		 pop	 esi

; 1652 : }

  0005c	5d		 pop	 ebp
  0005d	c2 08 00	 ret	 8
$LN1@PayUserEnt:

; 1649 : 	}
; 1650 : 
; 1651 : 	return FALSE;

  00060	33 c0		 xor	 eax, eax
  00062	5e		 pop	 esi

; 1652 : }

  00063	5d		 pop	 ebp
  00064	c2 08 00	 ret	 8
?PayUserEnterMoney@CChaosCastle@@QAEHHH@Z ENDP		; CChaosCastle::PayUserEnterMoney
_TEXT	ENDS
PUBLIC	?GiveUserDamage@CChaosCastle@@QAEXHH@Z		; CChaosCastle::GiveUserDamage
EXTRN	?PHeadSetB@@YAXPAEEH@Z:PROC			; PHeadSetB
; Function compile flags: /Ogtp
;	COMDAT ?GiveUserDamage@CChaosCastle@@QAEXHH@Z
_TEXT	SEGMENT
_pResult$ = -8						; size = 8
_iUserIndex$ = 8					; size = 4
tv209 = 12						; size = 4
_iDamage$ = 12						; size = 4
?GiveUserDamage@CChaosCastle@@QAEXHH@Z PROC		; CChaosCastle::GiveUserDamage, COMDAT
; _this$ = ecx

; 1655 : {

  00000	55		 push	 ebp
  00001	8b ec		 mov	 ebp, esp
  00003	83 ec 08	 sub	 esp, 8
  00006	53		 push	 ebx

; 1656 : 	if ( !gObjIsConnected(iUserIndex))

  00007	8b 5d 08	 mov	 ebx, DWORD PTR _iUserIndex$[ebp]
  0000a	53		 push	 ebx
  0000b	e8 00 00 00 00	 call	 ?gObjIsConnected@@YAHH@Z ; gObjIsConnected
  00010	83 c4 04	 add	 esp, 4
  00013	85 c0		 test	 eax, eax
  00015	0f 84 df 00 00
	00		 je	 $LN1@GiveUserDa

; 1657 : 		return;
; 1658 : 
; 1659 : 	if ( gObj[iUserIndex].Life <= 0.0 )

  0001b	d9 ee		 fldz
  0001d	56		 push	 esi
  0001e	8b f3		 mov	 esi, ebx
  00020	69 f6 64 15 00
	00		 imul	 esi, 5476		; 00001564H
  00026	d8 9e bc 00 00
	00		 fcomp	 DWORD PTR ?gObj@@3PAUOBJECTSTRUCT@@A[esi+188]
  0002c	df e0		 fnstsw	 ax
  0002e	f6 c4 01	 test	 ah, 1
  00031	0f 84 c2 00 00
	00		 je	 $LN7@GiveUserDa

; 1660 : 		return;
; 1661 : 
; 1662 : 	PMSG_ATTACKRESULT pResult;
; 1663 : 
; 1664 : 	PHeadSetB((LPBYTE)&pResult, PROTOCOL_ATTACK, sizeof(pResult));

  00037	6a 08		 push	 8
  00039	8d 45 f8	 lea	 eax, DWORD PTR _pResult$[ebp]
  0003c	68 d7 00 00 00	 push	 215			; 000000d7H
  00041	50		 push	 eax
  00042	e8 00 00 00 00	 call	 ?PHeadSetB@@YAXPAEEH@Z	; PHeadSetB

; 1665 : 	pResult.NumberH = SET_NUMBERH(iUserIndex);
; 1666 : 	pResult.NumberL = SET_NUMBERL(iUserIndex);
; 1667 : 	pResult.DamageH = SET_NUMBERH(iDamage);

  00047	8b 45 0c	 mov	 eax, DWORD PTR _iDamage$[ebp]
  0004a	8b cb		 mov	 ecx, ebx
  0004c	8b d0		 mov	 edx, eax
  0004e	c1 e9 08	 shr	 ecx, 8
  00051	c1 ea 08	 shr	 edx, 8
  00054	83 c4 0c	 add	 esp, 12			; 0000000cH

; 1668 : 	pResult.DamageL = SET_NUMBERL(iDamage);
; 1669 : 
; 1670 : 	if ( gObj[iUserIndex].Type == OBJ_USER )

  00057	66 83 be 60 00
	00 00 01	 cmp	 WORD PTR ?gObj@@3PAUOBJECTSTRUCT@@A[esi+96], 1
  0005f	88 4d fb	 mov	 BYTE PTR _pResult$[ebp+3], cl
  00062	88 5d fc	 mov	 BYTE PTR _pResult$[ebp+4], bl
  00065	88 55 fd	 mov	 BYTE PTR _pResult$[ebp+5], dl
  00068	88 45 fe	 mov	 BYTE PTR _pResult$[ebp+6], al
  0006b	75 12		 jne	 SHORT $LN2@GiveUserDa

; 1671 : 		DataSend(iUserIndex, (LPBYTE)&pResult, pResult.h.size);

  0006d	0f b6 45 f9	 movzx	 eax, BYTE PTR _pResult$[ebp+1]
  00071	50		 push	 eax
  00072	8d 4d f8	 lea	 ecx, DWORD PTR _pResult$[ebp]
  00075	51		 push	 ecx
  00076	53		 push	 ebx
  00077	e8 00 00 00 00	 call	 ?DataSend@@YAHHPAEK@Z	; DataSend
  0007c	83 c4 0c	 add	 esp, 12			; 0000000cH
$LN2@GiveUserDa:

; 1672 : 
; 1673 : 	gObj[iUserIndex].Life -= iDamage;

  0007f	d9 86 bc 00 00
	00		 fld	 DWORD PTR ?gObj@@3PAUOBJECTSTRUCT@@A[esi+188]
  00085	da 65 0c	 fisub	 DWORD PTR _iDamage$[ebp]
  00088	d9 5d 0c	 fstp	 DWORD PTR tv209[ebp]
  0008b	d9 45 0c	 fld	 DWORD PTR tv209[ebp]
  0008e	d9 96 bc 00 00
	00		 fst	 DWORD PTR ?gObj@@3PAUOBJECTSTRUCT@@A[esi+188]

; 1674 : 
; 1675 : 	if ( gObj[iUserIndex].Life <= 0.0 )

  00094	d9 ee		 fldz
  00096	d8 d1		 fcom	 ST(1)
  00098	df e0		 fnstsw	 ax
  0009a	dd d9		 fstp	 ST(1)
  0009c	f6 c4 01	 test	 ah, 1
  0009f	75 56		 jne	 SHORT $LN9@GiveUserDa

; 1676 : 	{
; 1677 : 		gObj[iUserIndex].Life = 0;

  000a1	d9 9e bc 00 00
	00		 fstp	 DWORD PTR ?gObj@@3PAUOBJECTSTRUCT@@A[esi+188]

; 1678 : 		gObj[iUserIndex].m_State = 4;

  000a7	c7 86 bc 01 00
	00 04 00 00 00	 mov	 DWORD PTR ?gObj@@3PAUOBJECTSTRUCT@@A[esi+444], 4

; 1679 : 		gObj[iUserIndex].KillerType = 1;

  000b1	c6 86 01 02 00
	00 01		 mov	 BYTE PTR ?gObj@@3PAUOBJECTSTRUCT@@A[esi+513], 1

; 1680 : 		gObj[iUserIndex].RegenTime = GetTickCount();

  000b8	ff 15 00 00 00
	00		 call	 DWORD PTR __imp__GetTickCount@0

; 1681 : 		gObj[iUserIndex].DieRegen = 1;
; 1682 : 		gObj[iUserIndex].PathCount = 0;
; 1683 : 		
; 1684 : 		GCDiePlayerSend(&gObj[iUserIndex], gObj[iUserIndex].m_Index, 0, 0);

  000be	8b 96 00 00 00
	00		 mov	 edx, DWORD PTR ?gObj@@3PAUOBJECTSTRUCT@@A[esi]
  000c4	89 86 08 02 00
	00		 mov	 DWORD PTR ?gObj@@3PAUOBJECTSTRUCT@@A[esi+520], eax
  000ca	8d 86 00 00 00
	00		 lea	 eax, DWORD PTR ?gObj@@3PAUOBJECTSTRUCT@@A[esi]
  000d0	6a 00		 push	 0
  000d2	6a 00		 push	 0
  000d4	52		 push	 edx
  000d5	50		 push	 eax
  000d6	c6 86 02 02 00
	00 01		 mov	 BYTE PTR ?gObj@@3PAUOBJECTSTRUCT@@A[esi+514], 1
  000dd	c7 86 28 01 00
	00 00 00 00 00	 mov	 DWORD PTR ?gObj@@3PAUOBJECTSTRUCT@@A[esi+296], 0
  000e7	e8 00 00 00 00	 call	 ?GCDiePlayerSend@@YAXPAUOBJECTSTRUCT@@HEH@Z ; GCDiePlayerSend
  000ec	83 c4 10	 add	 esp, 16			; 00000010H
  000ef	5e		 pop	 esi
  000f0	5b		 pop	 ebx

; 1685 : 	}
; 1686 : }

  000f1	8b e5		 mov	 esp, ebp
  000f3	5d		 pop	 ebp
  000f4	c2 08 00	 ret	 8
$LN9@GiveUserDa:

; 1674 : 
; 1675 : 	if ( gObj[iUserIndex].Life <= 0.0 )

  000f7	dd d8		 fstp	 ST(0)
$LN7@GiveUserDa:
  000f9	5e		 pop	 esi
$LN1@GiveUserDa:
  000fa	5b		 pop	 ebx

; 1685 : 	}
; 1686 : }

  000fb	8b e5		 mov	 esp, ebp
  000fd	5d		 pop	 ebp
  000fe	c2 08 00	 ret	 8
?GiveUserDamage@CChaosCastle@@QAEXHH@Z ENDP		; CChaosCastle::GiveUserDamage
_TEXT	ENDS
PUBLIC	??_C@_0DA@KDBPKGIM@?$FL?$CFs?$FN?$FL?$CFs?$FN?5LevelUp?5PlusStatQuest?5C@ ; `string'
PUBLIC	??_C@_0FC@MCCJHJPM@Experience?5?3?5Map?$FL?$CFd?$FN?9?$CI?$CFd?0?$CFd?$CJ?5?$FL?$CFs@ ; `string'
PUBLIC	?LevelUp@CChaosCastle@@QAEHHHH@Z		; CChaosCastle::LevelUp
EXTRN	?gObjCalcMaxLifePower@@YAXH@Z:PROC		; gObjCalcMaxLifePower
EXTRN	?GCLevelUpMsgSend@@YAXHH@Z:PROC			; GCLevelUpMsgSend
EXTRN	?gObjSetBP@@YAXH@Z:PROC				; gObjSetBP
EXTRN	?gObjNextExpCal@@YAXPAUOBJECTSTRUCT@@@Z:PROC	; gObjNextExpCal
EXTRN	?DCInfo@@3Vclassdef@@A:BYTE			; DCInfo
EXTRN	?GCServerMsgStringSend@@YAXPADHE@Z:PROC		; GCServerMsgStringSend
EXTRN	?Get@CMsg@@QAEPADH@Z:PROC			; CMsg::Get
EXTRN	?lMsg@@3VCMsg@@A:BYTE				; lMsg
EXTRN	?gObjSetExpPetItem@@YAXHH@Z:PROC		; gObjSetExpPetItem
;	COMDAT ??_C@_0DA@KDBPKGIM@?$FL?$CFs?$FN?$FL?$CFs?$FN?5LevelUp?5PlusStatQuest?5C@
CONST	SEGMENT
??_C@_0DA@KDBPKGIM@?$FL?$CFs?$FN?$FL?$CFs?$FN?5LevelUp?5PlusStatQuest?5C@ DB '['
	DB	'%s][%s] LevelUp PlusStatQuest Clear AddStat %d', 00H ; `string'
CONST	ENDS
;	COMDAT ??_C@_0FC@MCCJHJPM@Experience?5?3?5Map?$FL?$CFd?$FN?9?$CI?$CFd?0?$CFd?$CJ?5?$FL?$CFs@
CONST	SEGMENT
??_C@_0FC@MCCJHJPM@Experience?5?3?5Map?$FL?$CFd?$FN?9?$CI?$CFd?0?$CFd?$CJ?5?$FL?$CFs@ DB 'E'
	DB	'xperience : Map[%d]-(%d,%d) [%s][%s](%d) %u %d MonsterIndex :'
	DB	' %d, EventType : %d', 00H			; `string'
; Function compile flags: /Ogtp
CONST	ENDS
;	COMDAT ?LevelUp@CChaosCastle@@QAEHHHH@Z
_TEXT	SEGMENT
_iLEFT_EXP$ = -8					; size = 4
tv364 = -4						; size = 4
tv363 = 8						; size = 4
_iUserIndex$ = 8					; size = 4
_iAddExp$ = 12						; size = 4
tv425 = 16						; size = 4
tv415 = 16						; size = 4
_iEventType$ = 16					; size = 4
?LevelUp@CChaosCastle@@QAEHHHH@Z PROC			; CChaosCastle::LevelUp, COMDAT
; _this$ = ecx

; 1689 : {

  00000	55		 push	 ebp
  00001	8b ec		 mov	 ebp, esp
  00003	83 ec 08	 sub	 esp, 8
  00006	53		 push	 ebx

; 1690 : 	if ( OBJMAX_RANGE(iUserIndex) == FALSE )

  00007	8b 5d 08	 mov	 ebx, DWORD PTR _iUserIndex$[ebp]
  0000a	85 db		 test	 ebx, ebx
  0000c	78 0f		 js	 SHORT $LN13@LevelUp
  0000e	33 c0		 xor	 eax, eax
  00010	81 fb e7 1c 00
	00		 cmp	 ebx, 7399		; 00001ce7H
  00016	0f 9e c0	 setle	 al
  00019	85 c0		 test	 eax, eax
  0001b	75 09		 jne	 SHORT $LN8@LevelUp
$LN13@LevelUp:

; 1691 : 	{
; 1692 : 		return 0;

  0001d	33 c0		 xor	 eax, eax
  0001f	5b		 pop	 ebx

; 1750 : }

  00020	8b e5		 mov	 esp, ebp
  00022	5d		 pop	 ebp
  00023	c2 0c 00	 ret	 12			; 0000000cH
$LN8@LevelUp:

; 1693 : 	}
; 1694 : 
; 1695 : 	int iLEFT_EXP = 0;
; 1696 : 
; 1697 : 	LogAdd(LOG_BLACK, "Experience : Map[%d]-(%d,%d) [%s][%s](%d) %u %d MonsterIndex : %d, EventType : %d",
; 1698 : 		gObj[iUserIndex].MapNumber, gObj[iUserIndex].X, gObj[iUserIndex].Y,	
; 1699 : 		gObj[iUserIndex].AccountID,	gObj[iUserIndex].Name,
; 1700 : 		gObj[iUserIndex].Level, gObj[iUserIndex].Experience,
; 1701 : 		iAddExp, 0, iEventType);

  00026	8b 55 10	 mov	 edx, DWORD PTR _iEventType$[ebp]
  00029	56		 push	 esi
  0002a	57		 push	 edi
  0002b	8b 7d 0c	 mov	 edi, DWORD PTR _iAddExp$[ebp]
  0002e	52		 push	 edx
  0002f	8b f3		 mov	 esi, ebx
  00031	69 f6 64 15 00
	00		 imul	 esi, 5476		; 00001564H
  00037	8b 96 a8 00 00
	00		 mov	 edx, DWORD PTR ?gObj@@3PAUOBJECTSTRUCT@@A[esi+168]
  0003d	6a 00		 push	 0
  0003f	57		 push	 edi
  00040	52		 push	 edx
  00041	0f bf 96 9c 00
	00 00		 movsx	 edx, WORD PTR ?gObj@@3PAUOBJECTSTRUCT@@A[esi+156]
  00048	52		 push	 edx
  00049	0f b6 96 09 01
	00 00		 movzx	 edx, BYTE PTR ?gObj@@3PAUOBJECTSTRUCT@@A[esi+265]
  00050	8d 86 6f 00 00
	00		 lea	 eax, DWORD PTR ?gObj@@3PAUOBJECTSTRUCT@@A[esi+111]
  00056	50		 push	 eax
  00057	8d 8e 64 00 00
	00		 lea	 ecx, DWORD PTR ?gObj@@3PAUOBJECTSTRUCT@@A[esi+100]
  0005d	51		 push	 ecx
  0005e	89 45 08	 mov	 DWORD PTR tv363[ebp], eax
  00061	0f bf 86 06 01
	00 00		 movsx	 eax, WORD PTR ?gObj@@3PAUOBJECTSTRUCT@@A[esi+262]
  00068	89 4d fc	 mov	 DWORD PTR tv364[ebp], ecx
  0006b	0f bf 8e 04 01
	00 00		 movsx	 ecx, WORD PTR ?gObj@@3PAUOBJECTSTRUCT@@A[esi+260]
  00072	50		 push	 eax
  00073	51		 push	 ecx
  00074	52		 push	 edx
  00075	68 00 00 00 00	 push	 OFFSET ??_C@_0FC@MCCJHJPM@Experience?5?3?5Map?$FL?$CFd?$FN?9?$CI?$CFd?0?$CFd?$CJ?5?$FL?$CFs@
  0007a	6a 00		 push	 0
  0007c	c7 45 f8 00 00
	00 00		 mov	 DWORD PTR _iLEFT_EXP$[ebp], 0
  00083	e8 00 00 00 00	 call	 ?LogAdd@@YAXW4eLogColor@@PADZZ ; LogAdd

; 1702 : 
; 1703 : 	::gObjSetExpPetItem(iUserIndex, iAddExp);

  00088	57		 push	 edi
  00089	53		 push	 ebx
  0008a	e8 00 00 00 00	 call	 ?gObjSetExpPetItem@@YAXHH@Z ; gObjSetExpPetItem

; 1704 : 
; 1705 : 	if ( gObj[iUserIndex].Level >= MAX_CHAR_LEVEL )

  0008f	0f b7 96 9c 00
	00 00		 movzx	 edx, WORD PTR ?gObj@@3PAUOBJECTSTRUCT@@A[esi+156]
  00096	b8 90 01 00 00	 mov	 eax, 400		; 00000190H
  0009b	83 c4 38	 add	 esp, 56			; 00000038H
  0009e	66 3b d0	 cmp	 dx, ax
  000a1	7c 2c		 jl	 SHORT $LN7@LevelUp

; 1706 : 	{
; 1707 : 		::GCServerMsgStringSend(lMsg.Get(MSGGET(4, 112)), gObj[iUserIndex].m_Index, 1);

  000a3	8b 8e 00 00 00
	00		 mov	 ecx, DWORD PTR ?gObj@@3PAUOBJECTSTRUCT@@A[esi]
  000a9	6a 01		 push	 1
  000ab	51		 push	 ecx
  000ac	68 70 04 00 00	 push	 1136			; 00000470H
  000b1	b9 00 00 00 00	 mov	 ecx, OFFSET ?lMsg@@3VCMsg@@A ; lMsg
  000b6	e8 00 00 00 00	 call	 ?Get@CMsg@@QAEPADH@Z	; CMsg::Get
  000bb	50		 push	 eax
  000bc	e8 00 00 00 00	 call	 ?GCServerMsgStringSend@@YAXPADHE@Z ; GCServerMsgStringSend
  000c1	83 c4 0c	 add	 esp, 12			; 0000000cH
  000c4	5f		 pop	 edi
  000c5	5e		 pop	 esi

; 1708 : 		return 0;

  000c6	33 c0		 xor	 eax, eax
  000c8	5b		 pop	 ebx

; 1750 : }

  000c9	8b e5		 mov	 esp, ebp
  000cb	5d		 pop	 ebp
  000cc	c2 0c 00	 ret	 12			; 0000000cH
$LN7@LevelUp:

; 1709 : 	}
; 1710 : 
; 1711 : 	if ( (gObj[iUserIndex].Experience + iAddExp) < gObj[iUserIndex].NextExp )

  000cf	8b 86 a8 00 00
	00		 mov	 eax, DWORD PTR ?gObj@@3PAUOBJECTSTRUCT@@A[esi+168]
  000d5	8b 8e ac 00 00
	00		 mov	 ecx, DWORD PTR ?gObj@@3PAUOBJECTSTRUCT@@A[esi+172]
  000db	8d 1c 38	 lea	 ebx, DWORD PTR [eax+edi]
  000de	3b d9		 cmp	 ebx, ecx
  000e0	73 14		 jae	 SHORT $LN6@LevelUp

; 1712 : 	{
; 1713 : 		gObj[iUserIndex].Experience += iAddExp;

  000e2	89 9e a8 00 00
	00		 mov	 DWORD PTR ?gObj@@3PAUOBJECTSTRUCT@@A[esi+168], ebx

; 1714 : 	}
; 1715 : 	else

  000e8	8b 5d f8	 mov	 ebx, DWORD PTR _iLEFT_EXP$[ebp]
  000eb	5f		 pop	 edi
  000ec	5e		 pop	 esi

; 1747 : 	}
; 1748 : 
; 1749 : 	return iLEFT_EXP;

  000ed	8b c3		 mov	 eax, ebx
  000ef	5b		 pop	 ebx

; 1750 : }

  000f0	8b e5		 mov	 esp, ebp
  000f2	5d		 pop	 ebp
  000f3	c2 0c 00	 ret	 12			; 0000000cH
$LN6@LevelUp:

; 1716 : 	{
; 1717 : 		iLEFT_EXP = gObj[iUserIndex].Experience + iAddExp - gObj[iUserIndex].NextExp;

  000f6	2b c1		 sub	 eax, ecx
  000f8	8d 1c 07	 lea	 ebx, DWORD PTR [edi+eax]

; 1718 : 		gObj[iUserIndex].Experience = gObj[iUserIndex].NextExp;
; 1719 : 		gObj[iUserIndex].Level++;
; 1720 : 
; 1721 : 		if ( gObj[iUserIndex].Class == CLASS_DARKLORD || gObj[iUserIndex].Class == CLASS_MAGUMSA )

  000fb	0f b7 86 98 00
	00 00		 movzx	 eax, WORD PTR ?gObj@@3PAUOBJECTSTRUCT@@A[esi+152]
  00102	42		 inc	 edx
  00103	89 8e a8 00 00
	00		 mov	 DWORD PTR ?gObj@@3PAUOBJECTSTRUCT@@A[esi+168], ecx
  00109	66 89 96 9c 00
	00 00		 mov	 WORD PTR ?gObj@@3PAUOBJECTSTRUCT@@A[esi+156], dx
  00110	83 f8 04	 cmp	 eax, 4
  00113	74 0e		 je	 SHORT $LN3@LevelUp
  00115	83 f8 03	 cmp	 eax, 3
  00118	74 09		 je	 SHORT $LN3@LevelUp

; 1724 : 		}
; 1725 : 		else
; 1726 : 		{
; 1727 : 			gObj[iUserIndex].LevelUpPoint += 5;

  0011a	83 86 a0 00 00
	00 05		 add	 DWORD PTR ?gObj@@3PAUOBJECTSTRUCT@@A[esi+160], 5
  00121	eb 07		 jmp	 SHORT $LN2@LevelUp
$LN3@LevelUp:

; 1722 : 		{
; 1723 : 			gObj[iUserIndex].LevelUpPoint += 7;

  00123	83 86 a0 00 00
	00 07		 add	 DWORD PTR ?gObj@@3PAUOBJECTSTRUCT@@A[esi+160], 7
$LN2@LevelUp:

; 1728 : 		}
; 1729 : 
; 1730 : 		if ( gObj[iUserIndex].PlusStatQuestClear != false )

  0012a	80 be 88 00 00
	00 00		 cmp	 BYTE PTR ?gObj@@3PAUOBJECTSTRUCT@@A[esi+136], 0
  00131	74 24		 je	 SHORT $LN14@LevelUp

; 1731 : 		{
; 1732 : 			gObj[iUserIndex].LevelUpPoint++;

  00133	ff 86 a0 00 00
	00		 inc	 DWORD PTR ?gObj@@3PAUOBJECTSTRUCT@@A[esi+160]
  00139	8b 86 a0 00 00
	00		 mov	 eax, DWORD PTR ?gObj@@3PAUOBJECTSTRUCT@@A[esi+160]

; 1733 : 
; 1734 : 			LogAdd(LOG_BLACK, "[%s][%s] LevelUp PlusStatQuest Clear AddStat %d",
; 1735 : 				gObj[iUserIndex].AccountID, gObj[iUserIndex].Name, gObj[iUserIndex].LevelUpPoint);

  0013f	8b 55 08	 mov	 edx, DWORD PTR tv363[ebp]
  00142	50		 push	 eax
  00143	8b 45 fc	 mov	 eax, DWORD PTR tv364[ebp]
  00146	52		 push	 edx
  00147	50		 push	 eax
  00148	68 00 00 00 00	 push	 OFFSET ??_C@_0DA@KDBPKGIM@?$FL?$CFs?$FN?$FL?$CFs?$FN?5LevelUp?5PlusStatQuest?5C@
  0014d	6a 00		 push	 0
  0014f	e8 00 00 00 00	 call	 ?LogAdd@@YAXW4eLogColor@@PADZZ ; LogAdd
  00154	83 c4 14	 add	 esp, 20			; 00000014H
$LN14@LevelUp:

; 1736 : 		}
; 1737 : 
; 1738 : 		gObj[iUserIndex].MaxLife += DCInfo.DefClass[gObj[iUserIndex].Class].LevelLife;

  00157	0f b7 86 98 00
	00 00		 movzx	 eax, WORD PTR ?gObj@@3PAUOBJECTSTRUCT@@A[esi+152]
  0015e	69 c0 60 09 00
	00		 imul	 eax, 2400		; 00000960H

; 1739 : 		gObj[iUserIndex].MaxMana += DCInfo.DefClass[gObj[iUserIndex].Class].LevelMana;
; 1740 : 		gObj[iUserIndex].Life = gObj[iUserIndex].MaxLife;
; 1741 : 		gObj[iUserIndex].Mana = gObj[iUserIndex].MaxMana;
; 1742 : 		gObjNextExpCal(&gObj[iUserIndex]);

  00164	8d be 00 00 00
	00		 lea	 edi, DWORD PTR ?gObj@@3PAUOBJECTSTRUCT@@A[esi]
  0016a	57		 push	 edi
  0016b	d9 80 10 00 00
	00		 fld	 DWORD PTR ?DCInfo@@3Vclassdef@@A[eax+16]
  00171	d8 86 c0 00 00
	00		 fadd	 DWORD PTR ?gObj@@3PAUOBJECTSTRUCT@@A[esi+192]
  00177	d9 5d 10	 fstp	 DWORD PTR tv415[ebp]
  0017a	d9 45 10	 fld	 DWORD PTR tv415[ebp]
  0017d	d9 96 c0 00 00
	00		 fst	 DWORD PTR ?gObj@@3PAUOBJECTSTRUCT@@A[esi+192]
  00183	d9 80 1c 00 00
	00		 fld	 DWORD PTR ?DCInfo@@3Vclassdef@@A[eax+28]
  00189	d8 86 d4 00 00
	00		 fadd	 DWORD PTR ?gObj@@3PAUOBJECTSTRUCT@@A[esi+212]
  0018f	d9 5d 10	 fstp	 DWORD PTR tv425[ebp]
  00192	d9 45 10	 fld	 DWORD PTR tv425[ebp]
  00195	d9 96 d4 00 00
	00		 fst	 DWORD PTR ?gObj@@3PAUOBJECTSTRUCT@@A[esi+212]
  0019b	d9 9e d0 00 00
	00		 fstp	 DWORD PTR ?gObj@@3PAUOBJECTSTRUCT@@A[esi+208]
  001a1	d9 9e bc 00 00
	00		 fstp	 DWORD PTR ?gObj@@3PAUOBJECTSTRUCT@@A[esi+188]
  001a7	e8 00 00 00 00	 call	 ?gObjNextExpCal@@YAXPAUOBJECTSTRUCT@@@Z ; gObjNextExpCal

; 1743 : 		gObjSetBP(gObj[iUserIndex].m_Index);

  001ac	8b 0f		 mov	 ecx, DWORD PTR [edi]
  001ae	51		 push	 ecx
  001af	e8 00 00 00 00	 call	 ?gObjSetBP@@YAXH@Z	; gObjSetBP

; 1744 : 		GCLevelUpMsgSend(gObj[iUserIndex].m_Index, 1);

  001b4	8b 17		 mov	 edx, DWORD PTR [edi]
  001b6	6a 01		 push	 1
  001b8	52		 push	 edx
  001b9	e8 00 00 00 00	 call	 ?GCLevelUpMsgSend@@YAXHH@Z ; GCLevelUpMsgSend

; 1745 : 		gObjCalcMaxLifePower(gObj[iUserIndex].m_Index);

  001be	8b 07		 mov	 eax, DWORD PTR [edi]
  001c0	50		 push	 eax
  001c1	e8 00 00 00 00	 call	 ?gObjCalcMaxLifePower@@YAXH@Z ; gObjCalcMaxLifePower

; 1746 : 		LogAdd(LOG_BLACK, lMsg.Get(MSGGET(2, 8)), gObj[iUserIndex].AccountID, gObj[iUserIndex].Name, gObj[iUserIndex].Level);

  001c6	0f bf 8e 9c 00
	00 00		 movsx	 ecx, WORD PTR ?gObj@@3PAUOBJECTSTRUCT@@A[esi+156]
  001cd	8b 55 08	 mov	 edx, DWORD PTR tv363[ebp]
  001d0	8b 45 fc	 mov	 eax, DWORD PTR tv364[ebp]
  001d3	83 c4 14	 add	 esp, 20			; 00000014H
  001d6	51		 push	 ecx
  001d7	52		 push	 edx
  001d8	50		 push	 eax
  001d9	68 08 02 00 00	 push	 520			; 00000208H
  001de	b9 00 00 00 00	 mov	 ecx, OFFSET ?lMsg@@3VCMsg@@A ; lMsg
  001e3	e8 00 00 00 00	 call	 ?Get@CMsg@@QAEPADH@Z	; CMsg::Get
  001e8	50		 push	 eax
  001e9	6a 00		 push	 0
  001eb	e8 00 00 00 00	 call	 ?LogAdd@@YAXW4eLogColor@@PADZZ ; LogAdd
  001f0	83 c4 14	 add	 esp, 20			; 00000014H
  001f3	5f		 pop	 edi
  001f4	5e		 pop	 esi

; 1747 : 	}
; 1748 : 
; 1749 : 	return iLEFT_EXP;

  001f5	8b c3		 mov	 eax, ebx
  001f7	5b		 pop	 ebx

; 1750 : }

  001f8	8b e5		 mov	 esp, ebp
  001fa	5d		 pop	 ebp
  001fb	c2 0c 00	 ret	 12			; 0000000cH
?LevelUp@CChaosCastle@@QAEHHHH@Z ENDP			; CChaosCastle::LevelUp
_TEXT	ENDS
PUBLIC	?CheckEnterLevel@CChaosCastle@@QAEHHH@Z		; CChaosCastle::CheckEnterLevel
; Function compile flags: /Ogtp
;	COMDAT ?CheckEnterLevel@CChaosCastle@@QAEHHH@Z
_TEXT	SEGMENT
_iIndex$ = 8						; size = 4
_iLevel$ = 12						; size = 4
?CheckEnterLevel@CChaosCastle@@QAEHHH@Z PROC		; CChaosCastle::CheckEnterLevel, COMDAT
; _this$ = ecx

; 1802 : {

  00000	55		 push	 ebp
  00001	8b ec		 mov	 ebp, esp

; 1803 : 	if ( OBJMAX_RANGE(iIndex) == FALSE )

  00003	8b 45 08	 mov	 eax, DWORD PTR _iIndex$[ebp]
  00006	85 c0		 test	 eax, eax
  00008	0f 88 b5 00 00
	00		 js	 $LN10@CheckEnter
  0000e	33 c9		 xor	 ecx, ecx
  00010	3d e7 1c 00 00	 cmp	 eax, 7399		; 00001ce7H
  00015	0f 9e c1	 setle	 cl
  00018	85 c9		 test	 ecx, ecx

; 1804 : 	{
; 1805 : 		return 2;

  0001a	0f 84 a3 00 00
	00		 je	 $LN10@CheckEnter

; 1806 : 	}
; 1807 : 
; 1808 : 	if ( gObj[iIndex].Type != OBJ_USER || gObj[iIndex].Connected <= PLAYER_LOGGED )

  00020	69 c0 64 15 00
	00		 imul	 eax, 5476		; 00001564H
  00026	66 83 b8 60 00
	00 00 01	 cmp	 WORD PTR ?gObj@@3PAUOBJECTSTRUCT@@A[eax+96], 1
  0002e	0f 85 8f 00 00
	00		 jne	 $LN10@CheckEnter
  00034	80 b8 04 00 00
	00 02		 cmp	 BYTE PTR ?gObj@@3PAUOBJECTSTRUCT@@A[eax+4], 2
  0003b	0f 86 82 00 00
	00		 jbe	 $LN10@CheckEnter

; 1811 : 	}
; 1812 : 
; 1813 : 	if ( gObj[iIndex].Class == CLASS_DARKLORD || gObj[iIndex].Class == CLASS_MAGUMSA )

  00041	0f b7 88 98 00
	00 00		 movzx	 ecx, WORD PTR ?gObj@@3PAUOBJECTSTRUCT@@A[eax+152]
  00048	83 f9 04	 cmp	 ecx, 4
  0004b	74 39		 je	 SHORT $LN8@CheckEnter
  0004d	83 f9 03	 cmp	 ecx, 3
  00050	74 34		 je	 SHORT $LN8@CheckEnter

; 1828 : 		}
; 1829 : 	}
; 1830 : 	else
; 1831 : 	{
; 1832 : 		if ( gObj[iIndex].Level >= g_sttCHAOSCASTLE_LEVEL[iLevel-1].iLOWER_BOUND && gObj[iIndex].Level <= g_sttCHAOSCASTLE_LEVEL[iLevel-1].iUPPER_BOUND )

  00052	0f bf 88 9c 00
	00 00		 movsx	 ecx, WORD PTR ?gObj@@3PAUOBJECTSTRUCT@@A[eax+156]
  00059	8b 45 0c	 mov	 eax, DWORD PTR _iLevel$[ebp]
  0005c	c1 e0 04	 shl	 eax, 4
  0005f	8b 90 f0 ff ff
	ff		 mov	 edx, DWORD PTR _g_sttCHAOSCASTLE_LEVEL[eax-16]
  00065	3b ca		 cmp	 ecx, edx
  00067	7c 46		 jl	 SHORT $LN21@CheckEnter
  00069	3b 88 f4 ff ff
	ff		 cmp	 ecx, DWORD PTR _g_sttCHAOSCASTLE_LEVEL[eax-12]

; 1833 : 		{
; 1834 : 			return 0;

  0006f	7e 34		 jle	 SHORT $LN22@CheckEnter

; 1835 : 		}
; 1836 : 
; 1837 : 		if ( gObj[iIndex].Level < g_sttCHAOSCASTLE_LEVEL[iLevel-1].iLOWER_BOUND )

  00071	3b ca		 cmp	 ecx, edx

; 1838 : 		{
; 1839 : 			return -1;

  00073	7c 3a		 jl	 SHORT $LN21@CheckEnter

; 1840 : 		}
; 1841 : 
; 1842 : 		if ( gObj[iIndex].Level > g_sttCHAOSCASTLE_LEVEL[iLevel-1].iUPPER_BOUND )

  00075	3b 88 f4 ff ff
	ff		 cmp	 ecx, DWORD PTR _g_sttCHAOSCASTLE_LEVEL[eax-12]
  0007b	7e 46		 jle	 SHORT $LN10@CheckEnter

; 1843 : 		{
; 1844 : 			return 1;

  0007d	b8 01 00 00 00	 mov	 eax, 1

; 1845 : 		}
; 1846 : 	}
; 1847 : 
; 1848 : 	return 2;
; 1849 : }

  00082	5d		 pop	 ebp
  00083	c2 08 00	 ret	 8
$LN8@CheckEnter:

; 1814 : 	{
; 1815 : 		if ( gObj[iIndex].Level >= g_sttCHAOSCASTLE_LEVEL[iLevel-1].iLOWER_BOUND_MAGUMSA && gObj[iIndex].Level <= g_sttCHAOSCASTLE_LEVEL[iLevel-1].iUPPER_BOUND_MAGUMSA )

  00086	0f bf 88 9c 00
	00 00		 movsx	 ecx, WORD PTR ?gObj@@3PAUOBJECTSTRUCT@@A[eax+156]
  0008d	8b 45 0c	 mov	 eax, DWORD PTR _iLevel$[ebp]
  00090	c1 e0 04	 shl	 eax, 4
  00093	8b 90 f8 ff ff
	ff		 mov	 edx, DWORD PTR _g_sttCHAOSCASTLE_LEVEL[eax-8]
  00099	3b ca		 cmp	 ecx, edx
  0009b	7c 12		 jl	 SHORT $LN21@CheckEnter
  0009d	3b 88 fc ff ff
	ff		 cmp	 ecx, DWORD PTR _g_sttCHAOSCASTLE_LEVEL[eax-4]
  000a3	7f 06		 jg	 SHORT $LN7@CheckEnter
$LN22@CheckEnter:

; 1816 : 		{
; 1817 : 			return 0;

  000a5	33 c0		 xor	 eax, eax

; 1845 : 		}
; 1846 : 	}
; 1847 : 
; 1848 : 	return 2;
; 1849 : }

  000a7	5d		 pop	 ebp
  000a8	c2 08 00	 ret	 8
$LN7@CheckEnter:

; 1818 : 		}
; 1819 : 
; 1820 : 		if ( gObj[iIndex].Level < g_sttCHAOSCASTLE_LEVEL[iLevel-1].iLOWER_BOUND_MAGUMSA )

  000ab	3b ca		 cmp	 ecx, edx
  000ad	7d 07		 jge	 SHORT $LN6@CheckEnter
$LN21@CheckEnter:

; 1821 : 		{
; 1822 : 			return -1;

  000af	83 c8 ff	 or	 eax, -1

; 1845 : 		}
; 1846 : 	}
; 1847 : 
; 1848 : 	return 2;
; 1849 : }

  000b2	5d		 pop	 ebp
  000b3	c2 08 00	 ret	 8
$LN6@CheckEnter:

; 1823 : 		}
; 1824 : 
; 1825 : 		if ( gObj[iIndex].Level > g_sttCHAOSCASTLE_LEVEL[iLevel-1].iUPPER_BOUND_MAGUMSA )

  000b6	3b 88 fc ff ff
	ff		 cmp	 ecx, DWORD PTR _g_sttCHAOSCASTLE_LEVEL[eax-4]

; 1826 : 		{
; 1827 : 			return 1;

  000bc	b8 01 00 00 00	 mov	 eax, 1
  000c1	7f 05		 jg	 SHORT $LN13@CheckEnter
$LN10@CheckEnter:

; 1809 : 	{
; 1810 : 		return 2;

  000c3	b8 02 00 00 00	 mov	 eax, 2
$LN13@CheckEnter:

; 1845 : 		}
; 1846 : 	}
; 1847 : 
; 1848 : 	return 2;
; 1849 : }

  000c8	5d		 pop	 ebp
  000c9	c2 08 00	 ret	 8
?CheckEnterLevel@CChaosCastle@@QAEHHH@Z ENDP		; CChaosCastle::CheckEnterLevel
_TEXT	ENDS
PUBLIC	?CheckEnterItem@CChaosCastle@@QAEHH@Z		; CChaosCastle::CheckEnterItem
EXTRN	?IsItem@CItem@@QAEHXZ:PROC			; CItem::IsItem
; Function compile flags: /Ogtp
;	COMDAT ?CheckEnterItem@CChaosCastle@@QAEHH@Z
_TEXT	SEGMENT
_iIndex$ = 8						; size = 4
?CheckEnterItem@CChaosCastle@@QAEHH@Z PROC		; CChaosCastle::CheckEnterItem, COMDAT
; _this$ = ecx

; 1852 : {

  00000	55		 push	 ebp
  00001	8b ec		 mov	 ebp, esp
  00003	53		 push	 ebx

; 1853 : 	int iITEM_LEVEL = 0;
; 1854 : 
; 1855 : 	if ( OBJMAX_RANGE(iIndex) == FALSE )

  00004	8b 5d 08	 mov	 ebx, DWORD PTR _iIndex$[ebp]
  00007	56		 push	 esi
  00008	33 f6		 xor	 esi, esi
  0000a	85 db		 test	 ebx, ebx
  0000c	78 0f		 js	 SHORT $LN20@CheckEnter@2
  0000e	33 c0		 xor	 eax, eax
  00010	81 fb e7 1c 00
	00		 cmp	 ebx, 7399		; 00001ce7H
  00016	0f 9e c0	 setle	 al
  00019	85 c0		 test	 eax, eax
  0001b	75 08		 jne	 SHORT $LN10@CheckEnter@2
$LN20@CheckEnter@2:
  0001d	5e		 pop	 esi

; 1856 : 	{
; 1857 : 		return 0;

  0001e	33 c0		 xor	 eax, eax
  00020	5b		 pop	 ebx

; 1888 : }

  00021	5d		 pop	 ebp
  00022	c2 04 00	 ret	 4
$LN10@CheckEnter@2:

; 1858 : 	}
; 1859 : 
; 1860 : 	if ( gObj[iIndex].Type != OBJ_USER || gObj[iIndex].Connected <= PLAYER_LOGGED )

  00025	69 db 64 15 00
	00		 imul	 ebx, 5476		; 00001564H
  0002b	66 83 bb 60 00
	00 00 01	 cmp	 WORD PTR ?gObj@@3PAUOBJECTSTRUCT@@A[ebx+96], 1
  00033	75 e8		 jne	 SHORT $LN20@CheckEnter@2
  00035	80 bb 04 00 00
	00 02		 cmp	 BYTE PTR ?gObj@@3PAUOBJECTSTRUCT@@A[ebx+4], 2
  0003c	76 df		 jbe	 SHORT $LN20@CheckEnter@2

; 1861 : 	{
; 1862 : 		return 0;
; 1863 : 	}
; 1864 : 
; 1865 : 	for ( int x=0;x<MAIN_INVENTORY_SIZE;x++)

  0003e	57		 push	 edi
  0003f	33 ff		 xor	 edi, edi
$LL7@CheckEnter@2:

; 1866 : 	{
; 1867 : 		if ( gObj[iIndex].pInventory[x].IsItem() == TRUE )

  00041	8b 8b 8c 0c 00
	00		 mov	 ecx, DWORD PTR ?gObj@@3PAUOBJECTSTRUCT@@A[ebx+3212]
  00047	03 cf		 add	 ecx, edi
  00049	e8 00 00 00 00	 call	 ?IsItem@CItem@@QAEHXZ	; CItem::IsItem
  0004e	83 f8 01	 cmp	 eax, 1
  00051	75 2f		 jne	 SHORT $LN6@CheckEnter@2

; 1868 : 		{
; 1869 : 			if ( gObj[iIndex].pInventory[x].m_Type == ITEMGET(13,29) )

  00053	8b 83 8c 0c 00
	00		 mov	 eax, DWORD PTR ?gObj@@3PAUOBJECTSTRUCT@@A[ebx+3212]
  00059	b9 1d 1a 00 00	 mov	 ecx, 6685		; 00001a1dH
  0005e	66 39 4c 38 06	 cmp	 WORD PTR [eax+edi+6], cx
  00063	75 1d		 jne	 SHORT $LN6@CheckEnter@2

; 1870 : 			{
; 1871 : 				iITEM_LEVEL = gObj[iIndex].pInventory[x].m_Level;

  00065	0f bf 74 38 08	 movsx	 esi, WORD PTR [eax+edi+8]

; 1872 : 
; 1873 : 				if ( CHECK_LIMIT(iITEM_LEVEL, MAX_CHAOSCASTLE_LEVEL+2) == FALSE )	// #error Change 2 to 1

  0006a	85 f6		 test	 esi, esi
  0006c	78 0c		 js	 SHORT $LN21@CheckEnter@2
  0006e	33 c0		 xor	 eax, eax
  00070	83 fe 07	 cmp	 esi, 7
  00073	0f 9e c0	 setle	 al
  00076	85 c0		 test	 eax, eax
  00078	75 04		 jne	 SHORT $LN2@CheckEnter@2
$LN21@CheckEnter@2:

; 1874 : 				{
; 1875 : 					iITEM_LEVEL = 0;

  0007a	33 f6		 xor	 esi, esi

; 1876 : 
; 1877 : 				}
; 1878 : 
; 1879 : 				if ( iITEM_LEVEL != 0 )

  0007c	eb 04		 jmp	 SHORT $LN6@CheckEnter@2
$LN2@CheckEnter@2:
  0007e	85 f6		 test	 esi, esi
  00080	75 0e		 jne	 SHORT $LN5@CheckEnter@2
$LN6@CheckEnter@2:

; 1861 : 	{
; 1862 : 		return 0;
; 1863 : 	}
; 1864 : 
; 1865 : 	for ( int x=0;x<MAIN_INVENTORY_SIZE;x++)

  00082	81 c7 a8 00 00
	00		 add	 edi, 168		; 000000a8H
  00088	81 ff e0 31 00
	00		 cmp	 edi, 12768		; 000031e0H
  0008e	7c b1		 jl	 SHORT $LL7@CheckEnter@2
$LN5@CheckEnter@2:
  00090	5f		 pop	 edi

; 1880 : 				{
; 1881 : 					return iITEM_LEVEL;
; 1882 : 				}
; 1883 : 			}
; 1884 : 		}
; 1885 : 	}
; 1886 : 
; 1887 : 	return iITEM_LEVEL;

  00091	8b c6		 mov	 eax, esi
  00093	5e		 pop	 esi
  00094	5b		 pop	 ebx

; 1888 : }

  00095	5d		 pop	 ebp
  00096	c2 04 00	 ret	 4
?CheckEnterItem@CChaosCastle@@QAEHH@Z ENDP		; CChaosCastle::CheckEnterItem
_TEXT	ENDS
PUBLIC	?CheckCanEnter@CChaosCastle@@QAE_NH@Z		; CChaosCastle::CheckCanEnter
; Function compile flags: /Ogtp
;	COMDAT ?CheckCanEnter@CChaosCastle@@QAE_NH@Z
_TEXT	SEGMENT
_iChaosCastleIndex$ = 8					; size = 4
?CheckCanEnter@CChaosCastle@@QAE_NH@Z PROC		; CChaosCastle::CheckCanEnter, COMDAT
; _this$ = ecx

; 1915 : {

  00000	55		 push	 ebp
  00001	8b ec		 mov	 ebp, esp

; 1916 : 	if ( CC_FLOOR_RANGE(iChaosCastleIndex) == FALSE )

  00003	8b 45 08	 mov	 eax, DWORD PTR _iChaosCastleIndex$[ebp]
  00006	85 c0		 test	 eax, eax
  00008	78 0c		 js	 SHORT $LN6@CheckCanEn
  0000a	33 d2		 xor	 edx, edx
  0000c	83 f8 05	 cmp	 eax, 5
  0000f	0f 9e c2	 setle	 dl
  00012	85 d2		 test	 edx, edx
  00014	75 06		 jne	 SHORT $LN1@CheckCanEn
$LN6@CheckCanEn:

; 1917 : 	{
; 1918 : 		return false;

  00016	32 c0		 xor	 al, al

; 1922 : }

  00018	5d		 pop	 ebp
  00019	c2 04 00	 ret	 4
$LN1@CheckCanEn:

; 1919 : 	}
; 1920 : 
; 1921 : 	return this->m_stChaosCastleData[iChaosCastleIndex].m_bCC_CAN_ENTER;

  0001c	69 c0 6c 08 00
	00		 imul	 eax, 2156		; 0000086cH
  00022	8a 44 08 4c	 mov	 al, BYTE PTR [eax+ecx+76]

; 1922 : }

  00026	5d		 pop	 ebp
  00027	c2 04 00	 ret	 4
?CheckCanEnter@CChaosCastle@@QAE_NH@Z ENDP		; CChaosCastle::CheckCanEnter
_TEXT	ENDS
PUBLIC	?CheckPlayStart@CChaosCastle@@QAE_NH@Z		; CChaosCastle::CheckPlayStart
; Function compile flags: /Ogtp
;	COMDAT ?CheckPlayStart@CChaosCastle@@QAE_NH@Z
_TEXT	SEGMENT
_iChaosCastleIndex$ = 8					; size = 4
?CheckPlayStart@CChaosCastle@@QAE_NH@Z PROC		; CChaosCastle::CheckPlayStart, COMDAT
; _this$ = ecx

; 1925 : {

  00000	55		 push	 ebp
  00001	8b ec		 mov	 ebp, esp

; 1926 : 	if ( CC_FLOOR_RANGE(iChaosCastleIndex) == FALSE )

  00003	8b 45 08	 mov	 eax, DWORD PTR _iChaosCastleIndex$[ebp]
  00006	85 c0		 test	 eax, eax
  00008	78 0c		 js	 SHORT $LN6@CheckPlayS
  0000a	33 d2		 xor	 edx, edx
  0000c	83 f8 05	 cmp	 eax, 5
  0000f	0f 9e c2	 setle	 dl
  00012	85 d2		 test	 edx, edx
  00014	75 06		 jne	 SHORT $LN1@CheckPlayS
$LN6@CheckPlayS:

; 1927 : 	{
; 1928 : 		return false;

  00016	32 c0		 xor	 al, al

; 1932 : }

  00018	5d		 pop	 ebp
  00019	c2 04 00	 ret	 4
$LN1@CheckPlayS:

; 1929 : 	}
; 1930 : 
; 1931 : 	return this->m_stChaosCastleData[iChaosCastleIndex].m_bCC_PLAY_START;

  0001c	69 c0 6c 08 00
	00		 imul	 eax, 2156		; 0000086cH
  00022	8a 44 08 4e	 mov	 al, BYTE PTR [eax+ecx+78]

; 1932 : }

  00026	5d		 pop	 ebp
  00027	c2 04 00	 ret	 4
?CheckPlayStart@CChaosCastle@@QAE_NH@Z ENDP		; CChaosCastle::CheckPlayStart
_TEXT	ENDS
PUBLIC	?GetCurrentState@CChaosCastle@@QAEHH@Z		; CChaosCastle::GetCurrentState
; Function compile flags: /Ogtp
;	COMDAT ?GetCurrentState@CChaosCastle@@QAEHH@Z
_TEXT	SEGMENT
_iChaosCastleIndex$ = 8					; size = 4
?GetCurrentState@CChaosCastle@@QAEHH@Z PROC		; CChaosCastle::GetCurrentState, COMDAT
; _this$ = ecx

; 1954 : {

  00000	55		 push	 ebp
  00001	8b ec		 mov	 ebp, esp

; 1955 : 	if ( CC_FLOOR_RANGE(iChaosCastleIndex) == FALSE )

  00003	8b 45 08	 mov	 eax, DWORD PTR _iChaosCastleIndex$[ebp]
  00006	85 c0		 test	 eax, eax
  00008	78 0c		 js	 SHORT $LN6@GetCurrent
  0000a	33 d2		 xor	 edx, edx
  0000c	83 f8 05	 cmp	 eax, 5
  0000f	0f 9e c2	 setle	 dl
  00012	85 d2		 test	 edx, edx
  00014	75 07		 jne	 SHORT $LN1@GetCurrent
$LN6@GetCurrent:

; 1956 : 	{
; 1957 : 		return -1;

  00016	83 c8 ff	 or	 eax, -1

; 1961 : }

  00019	5d		 pop	 ebp
  0001a	c2 04 00	 ret	 4
$LN1@GetCurrent:

; 1958 : 	}
; 1959 : 
; 1960 : 	return this->m_stChaosCastleData[iChaosCastleIndex].m_iCC_STATE;

  0001d	69 c0 6c 08 00
	00		 imul	 eax, 2156		; 0000086cH
  00023	8b 44 08 30	 mov	 eax, DWORD PTR [eax+ecx+48]

; 1961 : }

  00027	5d		 pop	 ebp
  00028	c2 04 00	 ret	 4
?GetCurrentState@CChaosCastle@@QAEHH@Z ENDP		; CChaosCastle::GetCurrentState
_TEXT	ENDS
PUBLIC	?GetCurEnteredUser@CChaosCastle@@QAEHH@Z	; CChaosCastle::GetCurEnteredUser
; Function compile flags: /Ogtp
;	COMDAT ?GetCurEnteredUser@CChaosCastle@@QAEHH@Z
_TEXT	SEGMENT
_iChaosCastleIndex$ = 8					; size = 4
?GetCurEnteredUser@CChaosCastle@@QAEHH@Z PROC		; CChaosCastle::GetCurEnteredUser, COMDAT
; _this$ = ecx

; 1964 : {

  00000	55		 push	 ebp
  00001	8b ec		 mov	 ebp, esp

; 1965 : 	if ( CC_FLOOR_RANGE(iChaosCastleIndex) == FALSE )

  00003	8b 45 08	 mov	 eax, DWORD PTR _iChaosCastleIndex$[ebp]
  00006	85 c0		 test	 eax, eax
  00008	78 0c		 js	 SHORT $LN6@GetCurEnte
  0000a	33 d2		 xor	 edx, edx
  0000c	83 f8 05	 cmp	 eax, 5
  0000f	0f 9e c2	 setle	 dl
  00012	85 d2		 test	 edx, edx
  00014	75 07		 jne	 SHORT $LN1@GetCurEnte
$LN6@GetCurEnte:

; 1966 : 	{
; 1967 : 		return -1;

  00016	83 c8 ff	 or	 eax, -1

; 1971 : }

  00019	5d		 pop	 ebp
  0001a	c2 04 00	 ret	 4
$LN1@GetCurEnte:

; 1968 : 	}
; 1969 : 
; 1970 : 	return this->m_stChaosCastleData[iChaosCastleIndex].m_iCC_ENTERED_USER;

  0001d	69 c0 6c 08 00
	00		 imul	 eax, 2156		; 0000086cH
  00023	8b 44 08 54	 mov	 eax, DWORD PTR [eax+ecx+84]

; 1971 : }

  00027	5d		 pop	 ebp
  00028	c2 04 00	 ret	 4
?GetCurEnteredUser@CChaosCastle@@QAEHH@Z ENDP		; CChaosCastle::GetCurEnteredUser
_TEXT	ENDS
PUBLIC	?GetCurPlayUser@CChaosCastle@@QAEHH@Z		; CChaosCastle::GetCurPlayUser
; Function compile flags: /Ogtp
;	COMDAT ?GetCurPlayUser@CChaosCastle@@QAEHH@Z
_TEXT	SEGMENT
_iPlayUser$ = 8						; size = 4
_iChaosCastleIndex$ = 8					; size = 4
?GetCurPlayUser@CChaosCastle@@QAEHH@Z PROC		; CChaosCastle::GetCurPlayUser, COMDAT
; _this$ = ecx

; 1974 : {

  00000	55		 push	 ebp
  00001	8b ec		 mov	 ebp, esp
  00003	53		 push	 ebx

; 1975 : 	if ( CC_FLOOR_RANGE(iChaosCastleIndex) == FALSE )

  00004	8b 5d 08	 mov	 ebx, DWORD PTR _iChaosCastleIndex$[ebp]
  00007	85 db		 test	 ebx, ebx
  00009	78 0c		 js	 SHORT $LN13@GetCurPlay
  0000b	33 c0		 xor	 eax, eax
  0000d	83 fb 05	 cmp	 ebx, 5
  00010	0f 9e c0	 setle	 al
  00013	85 c0		 test	 eax, eax
  00015	75 08		 jne	 SHORT $LN6@GetCurPlay
$LN13@GetCurPlay:

; 1976 : 	{
; 1977 : 		return -1;

  00017	83 c8 ff	 or	 eax, -1
  0001a	5b		 pop	 ebx

; 1995 : }

  0001b	5d		 pop	 ebp
  0001c	c2 04 00	 ret	 4
$LN6@GetCurPlay:

; 1978 : 	}
; 1979 : 
; 1980 : 	int iPlayUser = 0;

  0001f	8b c3		 mov	 eax, ebx
  00021	69 c0 6c 08 00
	00		 imul	 eax, 2156		; 0000086cH
  00027	56		 push	 esi
  00028	57		 push	 edi
  00029	c7 45 08 00 00
	00 00		 mov	 DWORD PTR _iPlayUser$[ebp], 0
  00030	8d 74 08 6c	 lea	 esi, DWORD PTR [eax+ecx+108]
  00034	bf 46 00 00 00	 mov	 edi, 70			; 00000046H
  00039	8d a4 24 00 00
	00 00		 npad	 7
$LL5@GetCurPlay:

; 1983 : 	{
; 1984 : 		if ( this->m_stChaosCastleData[iChaosCastleIndex].m_UserData[i].m_iIndex != -1 )

  00040	8b 06		 mov	 eax, DWORD PTR [esi]
  00042	83 f8 ff	 cmp	 eax, -1
  00045	74 27		 je	 SHORT $LN4@GetCurPlay

; 1985 : 		{
; 1986 : 			if ( gObjIsConnected(this->m_stChaosCastleData[iChaosCastleIndex].m_UserData[i].m_iIndex) == TRUE &&
; 1987 : 				 gObj[this->m_stChaosCastleData[iChaosCastleIndex].m_UserData[i].m_iIndex].MapNumber == ( iChaosCastleIndex+18) )

  00047	50		 push	 eax
  00048	e8 00 00 00 00	 call	 ?gObjIsConnected@@YAHH@Z ; gObjIsConnected
  0004d	83 c4 04	 add	 esp, 4
  00050	83 f8 01	 cmp	 eax, 1
  00053	75 19		 jne	 SHORT $LN4@GetCurPlay
  00055	8b 0e		 mov	 ecx, DWORD PTR [esi]
  00057	69 c9 64 15 00
	00		 imul	 ecx, 5476		; 00001564H
  0005d	0f b6 91 09 01
	00 00		 movzx	 edx, BYTE PTR ?gObj@@3PAUOBJECTSTRUCT@@A[ecx+265]
  00064	8d 43 12	 lea	 eax, DWORD PTR [ebx+18]
  00067	3b d0		 cmp	 edx, eax
  00069	75 03		 jne	 SHORT $LN4@GetCurPlay

; 1988 : 			{
; 1989 : 				iPlayUser++;

  0006b	ff 45 08	 inc	 DWORD PTR _iPlayUser$[ebp]
$LN4@GetCurPlay:

; 1981 : 
; 1982 : 	for ( int i=0;i<MAX_CHAOSCASTLE_USER;i++)

  0006e	83 c6 14	 add	 esi, 20			; 00000014H
  00071	4f		 dec	 edi
  00072	75 cc		 jne	 SHORT $LL5@GetCurPlay

; 1990 : 			}
; 1991 : 		}
; 1992 : 	}
; 1993 : 
; 1994 : 	return iPlayUser;

  00074	8b 45 08	 mov	 eax, DWORD PTR _iPlayUser$[ebp]
  00077	5f		 pop	 edi
  00078	5e		 pop	 esi
  00079	5b		 pop	 ebx

; 1995 : }

  0007a	5d		 pop	 ebp
  0007b	c2 04 00	 ret	 4
?GetCurPlayUser@CChaosCastle@@QAEHH@Z ENDP		; CChaosCastle::GetCurPlayUser
_TEXT	ENDS
PUBLIC	?GetCurrentRemainSec@CChaosCastle@@QAEHH@Z	; CChaosCastle::GetCurrentRemainSec
; Function compile flags: /Ogtp
;	COMDAT ?GetCurrentRemainSec@CChaosCastle@@QAEHH@Z
_TEXT	SEGMENT
_iChaosCastleIndex$ = 8					; size = 4
?GetCurrentRemainSec@CChaosCastle@@QAEHH@Z PROC		; CChaosCastle::GetCurrentRemainSec, COMDAT
; _this$ = ecx

; 2086 : {

  00000	55		 push	 ebp
  00001	8b ec		 mov	 ebp, esp

; 2087 : 	return this->m_stChaosCastleData[iChaosCastleIndex].m_iCC_REMAIN_MSEC / 1000;

  00003	8b 45 08	 mov	 eax, DWORD PTR _iChaosCastleIndex$[ebp]
  00006	69 c0 6c 08 00
	00		 imul	 eax, 2156		; 0000086cH
  0000c	8b 4c 08 40	 mov	 ecx, DWORD PTR [eax+ecx+64]
  00010	b8 d3 4d 62 10	 mov	 eax, 274877907		; 10624dd3H
  00015	f7 e9		 imul	 ecx
  00017	c1 fa 06	 sar	 edx, 6
  0001a	8b c2		 mov	 eax, edx
  0001c	c1 e8 1f	 shr	 eax, 31			; 0000001fH
  0001f	03 c2		 add	 eax, edx

; 2088 : }

  00021	5d		 pop	 ebp
  00022	c2 04 00	 ret	 4
?GetCurrentRemainSec@CChaosCastle@@QAEHH@Z ENDP		; CChaosCastle::GetCurrentRemainSec
_TEXT	ENDS
PUBLIC	?ObjSetPosition@CChaosCastle@@QAEHHHH@Z		; CChaosCastle::ObjSetPosition
EXTRN	?MsgSendV2@@YAXPAUOBJECTSTRUCT@@PAEH@Z:PROC	; MsgSendV2
EXTRN	?CreateFrustrum@@YAXHHH@Z:PROC			; CreateFrustrum
EXTRN	?SetStandAttr@MapClass@@QAEXHH@Z:PROC		; MapClass::SetStandAttr
EXTRN	?ClearStandAttr@MapClass@@QAEXHH@Z:PROC		; MapClass::ClearStandAttr
EXTRN	?GetAttr@MapClass@@QAEEHH@Z:PROC		; MapClass::GetAttr
; Function compile flags: /Ogtp
;	COMDAT ?ObjSetPosition@CChaosCastle@@QAEHHHH@Z
_TEXT	SEGMENT
_pMove2$ = -8						; size = 7
_iIndex$ = 8						; size = 4
_iX$ = 12						; size = 4
_iY$ = 16						; size = 4
tv344 = 18						; size = 4
?ObjSetPosition@CChaosCastle@@QAEHHHH@Z PROC		; CChaosCastle::ObjSetPosition, COMDAT
; _this$ = ecx

; 2091 : {

  00000	55		 push	 ebp
  00001	8b ec		 mov	 ebp, esp

; 2092 : 	if ( !OBJMAX_RANGE(iIndex))

  00003	8b 45 08	 mov	 eax, DWORD PTR _iIndex$[ebp]
  00006	83 ec 08	 sub	 esp, 8
  00009	85 c0		 test	 eax, eax
  0000b	78 0e		 js	 SHORT $LN13@ObjSetPosi
  0000d	33 c9		 xor	 ecx, ecx
  0000f	3d e7 1c 00 00	 cmp	 eax, 7399		; 00001ce7H
  00014	0f 9e c1	 setle	 cl
  00017	85 c9		 test	 ecx, ecx
  00019	75 0b		 jne	 SHORT $LN6@ObjSetPosi
$LN13@ObjSetPosi:

; 2093 : 		return TRUE;

  0001b	b8 01 00 00 00	 mov	 eax, 1

; 2153 : }

  00020	8b e5		 mov	 esp, ebp
  00022	5d		 pop	 ebp
  00023	c2 0c 00	 ret	 12			; 0000000cH
$LN6@ObjSetPosi:

; 2094 : 
; 2095 : 	LPOBJ lpObj = &gObj[iIndex];

  00026	69 c0 64 15 00
	00		 imul	 eax, 5476		; 00001564H
  0002c	56		 push	 esi
  0002d	8d b0 00 00 00
	00		 lea	 esi, DWORD PTR ?gObj@@3PAUOBJECTSTRUCT@@A[eax]

; 2096 : 
; 2097 : 	if ( !CC_MAP_RANGE(lpObj->MapNumber))

  00033	8a 86 09 01 00
	00		 mov	 al, BYTE PTR [esi+265]
  00039	3c 12		 cmp	 al, 18			; 00000012H
  0003b	72 0c		 jb	 SHORT $LN14@ObjSetPosi
  0003d	b9 17 00 00 00	 mov	 ecx, 23			; 00000017H
  00042	3a c8		 cmp	 cl, al
  00044	1b c9		 sbb	 ecx, ecx
  00046	41		 inc	 ecx
  00047	75 09		 jne	 SHORT $LN5@ObjSetPosi
$LN14@ObjSetPosi:

; 2098 : 		return FALSE;

  00049	33 c0		 xor	 eax, eax
  0004b	5e		 pop	 esi

; 2153 : }

  0004c	8b e5		 mov	 esp, ebp
  0004e	5d		 pop	 ebp
  0004f	c2 0c 00	 ret	 12			; 0000000cH
$LN5@ObjSetPosi:

; 2099 : 
; 2100 : 	if ( lpObj->Teleport )

  00052	80 be 00 02 00
	00 00		 cmp	 BYTE PTR [esi+512], 0
  00059	74 0c		 je	 SHORT $LN4@ObjSetPosi

; 2101 : 		return TRUE;

  0005b	b8 01 00 00 00	 mov	 eax, 1
  00060	5e		 pop	 esi

; 2153 : }

  00061	8b e5		 mov	 esp, ebp
  00063	5d		 pop	 ebp
  00064	c2 0c 00	 ret	 12			; 0000000cH
$LN4@ObjSetPosi:

; 2102 : 
; 2103 : 	BYTE btMapAttr = MapC[lpObj->MapNumber].GetAttr(iX, iY);

  00067	8b 55 0c	 mov	 edx, DWORD PTR _iX$[ebp]
  0006a	0f b6 c8	 movzx	 ecx, al
  0006d	69 c9 08 07 05
	00		 imul	 ecx, 329480		; 00050708H
  00073	53		 push	 ebx
  00074	8b 5d 10	 mov	 ebx, DWORD PTR _iY$[ebp]
  00077	53		 push	 ebx
  00078	52		 push	 edx
  00079	81 c1 00 00 00
	00		 add	 ecx, OFFSET ?MapC@@3PAVMapClass@@A ; MapC
  0007f	e8 00 00 00 00	 call	 ?GetAttr@MapClass@@QAEEHH@Z ; MapClass::GetAttr

; 2104 : 
; 2105 : 	if ( (btMapAttr&2) == 2 || (btMapAttr&4) == 4 )

  00084	a8 06		 test	 al, 6
  00086	0f 85 70 01 00
	00		 jne	 $LN2@ObjSetPosi

; 2107 : 
; 2108 : 	PMSG_POSISTION_SET pMove;
; 2109 : 
; 2110 : 	pMove.h.c = 0xC1;
; 2111 : 	pMove.h.headcode = PROTOCOL_POSITION;
; 2112 : 	pMove.h.size = sizeof(pMove);
; 2113 : 	pMove.X = iX;
; 2114 : 	pMove.Y = iY;
; 2115 : 
; 2116 : 	lpObj->m_Rest = 0;
; 2117 : 
; 2118 : 	MapC[lpObj->MapNumber].ClearStandAttr(lpObj->m_OldX,lpObj->m_OldY);

  0008c	0f bf 86 1e 01
	00 00		 movsx	 eax, WORD PTR [esi+286]
  00093	0f bf 8e 1c 01
	00 00		 movsx	 ecx, WORD PTR [esi+284]
  0009a	57		 push	 edi
  0009b	50		 push	 eax
  0009c	51		 push	 ecx
  0009d	0f b6 8e 09 01
	00 00		 movzx	 ecx, BYTE PTR [esi+265]
  000a4	69 c9 08 07 05
	00		 imul	 ecx, 329480		; 00050708H
  000aa	81 c1 00 00 00
	00		 add	 ecx, OFFSET ?MapC@@3PAVMapClass@@A ; MapC
  000b0	c6 86 c1 01 00
	00 00		 mov	 BYTE PTR [esi+449], 0
  000b7	e8 00 00 00 00	 call	 ?ClearStandAttr@MapClass@@QAEXHH@Z ; MapClass::ClearStandAttr

; 2119 : 	MapC[lpObj->MapNumber].SetStandAttr(iX,iY);

  000bc	0f b6 8e 09 01
	00 00		 movzx	 ecx, BYTE PTR [esi+265]
  000c3	8b 55 0c	 mov	 edx, DWORD PTR _iX$[ebp]
  000c6	69 c9 08 07 05
	00		 imul	 ecx, 329480		; 00050708H
  000cc	53		 push	 ebx
  000cd	52		 push	 edx
  000ce	81 c1 00 00 00
	00		 add	 ecx, OFFSET ?MapC@@3PAVMapClass@@A ; MapC
  000d4	e8 00 00 00 00	 call	 ?SetStandAttr@MapClass@@QAEXHH@Z ; MapClass::SetStandAttr

; 2120 : 
; 2121 : 	lpObj->m_OldX = iX;

  000d9	8b 45 0c	 mov	 eax, DWORD PTR _iX$[ebp]

; 2122 : 	lpObj->m_OldY = iY;
; 2123 : 
; 2124 : 	lpObj->X = pMove.X;

  000dc	0f b6 f8	 movzx	 edi, al
  000df	66 89 86 1c 01
	00 00		 mov	 WORD PTR [esi+284], ax

; 2125 : 	lpObj->Y = pMove.Y;

  000e6	0f b6 c3	 movzx	 eax, bl

; 2126 : 
; 2127 : 	PMSG_RECV_POSISTION_SET pMove2;
; 2128 : 
; 2129 : 	PHeadSetB((LPBYTE)&pMove2, PROTOCOL_MOVE, sizeof(pMove2));

  000e9	6a 07		 push	 7
  000eb	66 89 45 12	 mov	 WORD PTR tv344[ebp], ax
  000ef	66 89 86 06 01
	00 00		 mov	 WORD PTR [esi+262], ax
  000f6	8d 45 f8	 lea	 eax, DWORD PTR _pMove2$[ebp]
  000f9	68 d3 00 00 00	 push	 211			; 000000d3H
  000fe	50		 push	 eax
  000ff	66 89 9e 1e 01
	00 00		 mov	 WORD PTR [esi+286], bx
  00106	66 89 be 04 01
	00 00		 mov	 WORD PTR [esi+260], di
  0010d	e8 00 00 00 00	 call	 ?PHeadSetB@@YAXPAEEH@Z	; PHeadSetB

; 2130 : 	pMove2.NumberH = SET_NUMBERH(iIndex);

  00112	8b 45 08	 mov	 eax, DWORD PTR _iIndex$[ebp]

; 2131 : 	pMove2.NumberL = SET_NUMBERL(iIndex);
; 2132 : 	pMove2.X = pMove.X;

  00115	8a 55 0c	 mov	 dl, BYTE PTR _iX$[ebp]
  00118	8b c8		 mov	 ecx, eax
  0011a	88 55 fd	 mov	 BYTE PTR _pMove2$[ebp+5], dl

; 2133 : 	pMove2.Y = pMove.Y;
; 2134 : 	lpObj->TX = pMove.X;
; 2135 : 	lpObj->TY = pMove.Y;
; 2136 : 
; 2137 : 	CreateFrustrum(lpObj->X, lpObj->Y, iIndex);

  0011d	0f bf 96 06 01
	00 00		 movsx	 edx, WORD PTR [esi+262]
  00124	50		 push	 eax
  00125	c1 e9 08	 shr	 ecx, 8
  00128	88 45 fc	 mov	 BYTE PTR _pMove2$[ebp+4], al
  0012b	0f bf 86 04 01
	00 00		 movsx	 eax, WORD PTR [esi+260]
  00132	88 4d fb	 mov	 BYTE PTR _pMove2$[ebp+3], cl
  00135	66 8b 4d 12	 mov	 cx, WORD PTR tv344[ebp]
  00139	52		 push	 edx
  0013a	50		 push	 eax
  0013b	88 5d fe	 mov	 BYTE PTR _pMove2$[ebp+6], bl
  0013e	66 89 be 20 01
	00 00		 mov	 WORD PTR [esi+288], di
  00145	66 89 8e 22 01
	00 00		 mov	 WORD PTR [esi+290], cx
  0014c	e8 00 00 00 00	 call	 ?CreateFrustrum@@YAXHHH@Z ; CreateFrustrum
  00151	83 c4 18	 add	 esp, 24			; 00000018H

; 2138 : 
; 2139 : 	if ( lpObj->Type == OBJ_USER )

  00154	66 83 7e 60 01	 cmp	 WORD PTR [esi+96], 1
  00159	5f		 pop	 edi
  0015a	75 15		 jne	 SHORT $LN1@ObjSetPosi

; 2140 : 	{
; 2141 : 		DataSend(iIndex, (UCHAR *)&pMove2, pMove2.h.size);

  0015c	0f b6 4d f9	 movzx	 ecx, BYTE PTR _pMove2$[ebp+1]
  00160	8b 45 08	 mov	 eax, DWORD PTR _iIndex$[ebp]
  00163	51		 push	 ecx
  00164	8d 55 f8	 lea	 edx, DWORD PTR _pMove2$[ebp]
  00167	52		 push	 edx
  00168	50		 push	 eax
  00169	e8 00 00 00 00	 call	 ?DataSend@@YAHHPAEK@Z	; DataSend
  0016e	83 c4 0c	 add	 esp, 12			; 0000000cH
$LN1@ObjSetPosi:

; 2142 : 	}
; 2143 : 
; 2144 : 	MsgSendV2(&gObj[iIndex], (UCHAR *)&pMove2, pMove2.h.size);

  00171	0f b6 4d f9	 movzx	 ecx, BYTE PTR _pMove2$[ebp+1]
  00175	51		 push	 ecx
  00176	8d 55 f8	 lea	 edx, DWORD PTR _pMove2$[ebp]
  00179	52		 push	 edx
  0017a	56		 push	 esi
  0017b	e8 00 00 00 00	 call	 ?MsgSendV2@@YAXPAUOBJECTSTRUCT@@PAEH@Z ; MsgSendV2

; 2145 : 
; 2146 : 	MapC[lpObj->MapNumber].ClearStandAttr(lpObj->m_OldX, lpObj->m_OldY);

  00180	0f bf 86 1e 01
	00 00		 movsx	 eax, WORD PTR [esi+286]
  00187	0f bf 8e 1c 01
	00 00		 movsx	 ecx, WORD PTR [esi+284]
  0018e	83 c4 0c	 add	 esp, 12			; 0000000cH
  00191	50		 push	 eax
  00192	51		 push	 ecx
  00193	0f b6 8e 09 01
	00 00		 movzx	 ecx, BYTE PTR [esi+265]
  0019a	69 c9 08 07 05
	00		 imul	 ecx, 329480		; 00050708H
  001a0	81 c1 00 00 00
	00		 add	 ecx, OFFSET ?MapC@@3PAVMapClass@@A ; MapC
  001a6	e8 00 00 00 00	 call	 ?ClearStandAttr@MapClass@@QAEXHH@Z ; MapClass::ClearStandAttr

; 2147 : 	MapC[lpObj->MapNumber].SetStandAttr(lpObj->TX, lpObj->TY);

  001ab	0f b6 8e 09 01
	00 00		 movzx	 ecx, BYTE PTR [esi+265]
  001b2	0f bf 96 22 01
	00 00		 movsx	 edx, WORD PTR [esi+290]
  001b9	69 c9 08 07 05
	00		 imul	 ecx, 329480		; 00050708H
  001bf	0f bf 86 20 01
	00 00		 movsx	 eax, WORD PTR [esi+288]
  001c6	52		 push	 edx
  001c7	50		 push	 eax
  001c8	81 c1 00 00 00
	00		 add	 ecx, OFFSET ?MapC@@3PAVMapClass@@A ; MapC
  001ce	e8 00 00 00 00	 call	 ?SetStandAttr@MapClass@@QAEXHH@Z ; MapClass::SetStandAttr

; 2148 : 
; 2149 : 	lpObj->m_OldX = lpObj->TX;

  001d3	66 8b 8e 20 01
	00 00		 mov	 cx, WORD PTR [esi+288]

; 2150 : 	lpObj->m_OldY = lpObj->TY;

  001da	66 8b 96 22 01
	00 00		 mov	 dx, WORD PTR [esi+290]
  001e1	5b		 pop	 ebx
  001e2	66 89 8e 1c 01
	00 00		 mov	 WORD PTR [esi+284], cx
  001e9	66 89 96 1e 01
	00 00		 mov	 WORD PTR [esi+286], dx

; 2151 : 
; 2152 : 	return TRUE;

  001f0	b8 01 00 00 00	 mov	 eax, 1
  001f5	5e		 pop	 esi

; 2153 : }

  001f6	8b e5		 mov	 esp, ebp
  001f8	5d		 pop	 ebp
  001f9	c2 0c 00	 ret	 12			; 0000000cH
$LN2@ObjSetPosi:
  001fc	5b		 pop	 ebx

; 2106 : 		return FALSE;

  001fd	33 c0		 xor	 eax, eax
  001ff	5e		 pop	 esi

; 2153 : }

  00200	8b e5		 mov	 esp, ebp
  00202	5d		 pop	 ebp
  00203	c2 0c 00	 ret	 12			; 0000000cH
?ObjSetPosition@CChaosCastle@@QAEHHHH@Z ENDP		; CChaosCastle::ObjSetPosition
_TEXT	ENDS
PUBLIC	?BlowObjsToPoint@CChaosCastle@@QAEHHHHH@Z	; CChaosCastle::BlowObjsToPoint
; Function compile flags: /Ogtp
;	COMDAT ?BlowObjsToPoint@CChaosCastle@@QAEHHHHH@Z
_TEXT	SEGMENT
_iIndex$ = 8						; size = 4
_iMapNumber$ = 12					; size = 4
_iX$ = 16						; size = 4
_iY$ = 20						; size = 4
?BlowObjsToPoint@CChaosCastle@@QAEHHHHH@Z PROC		; CChaosCastle::BlowObjsToPoint, COMDAT
; _this$ = ecx

; 2306 : 	return TRUE;

  00000	b8 01 00 00 00	 mov	 eax, 1

; 2307 : }

  00005	c2 10 00	 ret	 16			; 00000010H
?BlowObjsToPoint@CChaosCastle@@QAEHHHHH@Z ENDP		; CChaosCastle::BlowObjsToPoint
_TEXT	ENDS
PUBLIC	?SafetyCastleZone@CChaosCastle@@QAEXH@Z		; CChaosCastle::SafetyCastleZone
; Function compile flags: /Ogtp
;	COMDAT ?SafetyCastleZone@CChaosCastle@@QAEXH@Z
_TEXT	SEGMENT
tv248 = -4						; size = 4
_iChaosCastleIndex$ = 8					; size = 4
?SafetyCastleZone@CChaosCastle@@QAEXH@Z PROC		; CChaosCastle::SafetyCastleZone, COMDAT
; _this$ = ecx

; 2345 : {

  00000	55		 push	 ebp
  00001	8b ec		 mov	 ebp, esp
  00003	51		 push	 ecx
  00004	53		 push	 ebx

; 2346 : 	if ( CC_FLOOR_RANGE(iChaosCastleIndex) == FALSE )

  00005	8b 5d 08	 mov	 ebx, DWORD PTR _iChaosCastleIndex$[ebp]
  00008	85 db		 test	 ebx, ebx
  0000a	0f 88 dc 00 00
	00		 js	 $LN7@SafetyCast
  00010	33 c0		 xor	 eax, eax
  00012	83 fb 05	 cmp	 ebx, 5
  00015	0f 9e c0	 setle	 al
  00018	85 c0		 test	 eax, eax
  0001a	0f 84 cc 00 00
	00		 je	 $LN7@SafetyCast

; 2347 : 		return ;
; 2348 : 
; 2349 : 	for ( int i=g_btCastleSafetyZoneMapXY[iChaosCastleIndex][0] ; i <= g_btCastleSafetyZoneMapXY[iChaosCastleIndex][2] ; i++ )

  00020	0f b6 04 9d 02
	00 00 00	 movzx	 eax, BYTE PTR _g_btCastleSafetyZoneMapXY[ebx*4+2]
  00028	56		 push	 esi
  00029	0f b6 34 9d 00
	00 00 00	 movzx	 esi, BYTE PTR _g_btCastleSafetyZoneMapXY[ebx*4]
  00031	57		 push	 edi
  00032	3b f0		 cmp	 esi, eax
  00034	7f 52		 jg	 SHORT $LN13@SafetyCast
  00036	0f b6 04 9d 03
	00 00 00	 movzx	 eax, BYTE PTR _g_btCastleSafetyZoneMapXY[ebx*4+3]
  0003e	8b ff		 npad	 2
$LL15@SafetyCast:

; 2350 : 	{
; 2351 : 		for (int j=g_btCastleSafetyZoneMapXY[iChaosCastleIndex][1] ; j <= g_btCastleSafetyZoneMapXY[iChaosCastleIndex][3] ; j++ )

  00040	0f b6 14 9d 01
	00 00 00	 movzx	 edx, BYTE PTR _g_btCastleSafetyZoneMapXY[ebx*4+1]
  00048	3b d0		 cmp	 edx, eax
  0004a	7f 2f		 jg	 SHORT $LN14@SafetyCast
  0004c	8b cb		 mov	 ecx, ebx
  0004e	69 c9 08 07 05
	00		 imul	 ecx, 329480		; 00050708H
  00054	8d b9 a0 7e 5a
	00		 lea	 edi, DWORD PTR ?MapC@@3PAVMapClass@@A[ecx+5930656]
  0005a	8b ca		 mov	 ecx, edx
  0005c	c1 e1 08	 shl	 ecx, 8
  0005f	90		 npad	 1
$LL12@SafetyCast:

; 2352 : 		{
; 2353 : 			MapC[iChaosCastleIndex+18].m_attrbuf[ j * 256 + i] |= 1;

  00060	8b 07		 mov	 eax, DWORD PTR [edi]
  00062	03 c1		 add	 eax, ecx
  00064	80 0c 30 01	 or	 BYTE PTR [eax+esi], 1
  00068	0f b6 04 9d 03
	00 00 00	 movzx	 eax, BYTE PTR _g_btCastleSafetyZoneMapXY[ebx*4+3]
  00070	42		 inc	 edx
  00071	81 c1 00 01 00
	00		 add	 ecx, 256		; 00000100H
  00077	3b d0		 cmp	 edx, eax
  00079	7e e5		 jle	 SHORT $LL12@SafetyCast
$LN14@SafetyCast:

; 2347 : 		return ;
; 2348 : 
; 2349 : 	for ( int i=g_btCastleSafetyZoneMapXY[iChaosCastleIndex][0] ; i <= g_btCastleSafetyZoneMapXY[iChaosCastleIndex][2] ; i++ )

  0007b	0f b6 0c 9d 02
	00 00 00	 movzx	 ecx, BYTE PTR _g_btCastleSafetyZoneMapXY[ebx*4+2]
  00083	46		 inc	 esi
  00084	3b f1		 cmp	 esi, ecx
  00086	7e b8		 jle	 SHORT $LL15@SafetyCast
$LN13@SafetyCast:

; 2354 : 		}
; 2355 : 	}
; 2356 : 
; 2357 : 	for ( int iHOLE_NUM = 0; iHOLE_NUM <2;iHOLE_NUM++)

  00088	8d 34 dd 03 00
	00 00		 lea	 esi, DWORD PTR _g_btCastleCenterHollowZoneMapXY[ebx*8+3]
  0008f	c7 45 fc 02 00
	00 00		 mov	 DWORD PTR tv248[ebp], 2
$LL9@SafetyCast:

; 2358 : 	{
; 2359 : 		for (int i=g_btCastleCenterHollowZoneMapXY[iChaosCastleIndex][iHOLE_NUM][0] ; i<= g_btCastleCenterHollowZoneMapXY[iChaosCastleIndex][iHOLE_NUM][2] ; i++ )

  00096	0f b6 7e fd	 movzx	 edi, BYTE PTR [esi-3]
  0009a	0f b6 56 ff	 movzx	 edx, BYTE PTR [esi-1]
  0009e	3b fa		 cmp	 edi, edx
  000a0	7f 40		 jg	 SHORT $LN8@SafetyCast
  000a2	0f b6 06	 movzx	 eax, BYTE PTR [esi]
$LL6@SafetyCast:

; 2360 : 		{
; 2361 : 			for (int j=g_btCastleCenterHollowZoneMapXY[iChaosCastleIndex][iHOLE_NUM][1] ; j<= g_btCastleCenterHollowZoneMapXY[iChaosCastleIndex][iHOLE_NUM][3] ; j++ )

  000a5	0f b6 56 fe	 movzx	 edx, BYTE PTR [esi-2]
  000a9	3b d0		 cmp	 edx, eax
  000ab	7f 2c		 jg	 SHORT $LN5@SafetyCast
  000ad	69 db 08 07 05
	00		 imul	 ebx, 329480		; 00050708H
  000b3	8b ca		 mov	 ecx, edx
  000b5	8d 9b a0 7e 5a
	00		 lea	 ebx, DWORD PTR ?MapC@@3PAVMapClass@@A[ebx+5930656]
  000bb	c1 e1 08	 shl	 ecx, 8
  000be	8b ff		 npad	 2
$LL3@SafetyCast:

; 2362 : 			{
; 2363 : 				MapC[iChaosCastleIndex+18].m_attrbuf[ j * 256 + i] |= 8;

  000c0	8b 03		 mov	 eax, DWORD PTR [ebx]
  000c2	03 c1		 add	 eax, ecx
  000c4	80 0c 38 08	 or	 BYTE PTR [eax+edi], 8
  000c8	0f b6 06	 movzx	 eax, BYTE PTR [esi]
  000cb	42		 inc	 edx
  000cc	81 c1 00 01 00
	00		 add	 ecx, 256		; 00000100H
  000d2	3b d0		 cmp	 edx, eax
  000d4	7e ea		 jle	 SHORT $LL3@SafetyCast

; 2360 : 		{
; 2361 : 			for (int j=g_btCastleCenterHollowZoneMapXY[iChaosCastleIndex][iHOLE_NUM][1] ; j<= g_btCastleCenterHollowZoneMapXY[iChaosCastleIndex][iHOLE_NUM][3] ; j++ )

  000d6	8b 5d 08	 mov	 ebx, DWORD PTR _iChaosCastleIndex$[ebp]
$LN5@SafetyCast:

; 2358 : 	{
; 2359 : 		for (int i=g_btCastleCenterHollowZoneMapXY[iChaosCastleIndex][iHOLE_NUM][0] ; i<= g_btCastleCenterHollowZoneMapXY[iChaosCastleIndex][iHOLE_NUM][2] ; i++ )

  000d9	0f b6 4e ff	 movzx	 ecx, BYTE PTR [esi-1]
  000dd	47		 inc	 edi
  000de	3b f9		 cmp	 edi, ecx
  000e0	7e c3		 jle	 SHORT $LL6@SafetyCast
$LN8@SafetyCast:

; 2354 : 		}
; 2355 : 	}
; 2356 : 
; 2357 : 	for ( int iHOLE_NUM = 0; iHOLE_NUM <2;iHOLE_NUM++)

  000e2	83 c6 04	 add	 esi, 4
  000e5	ff 4d fc	 dec	 DWORD PTR tv248[ebp]
  000e8	75 ac		 jne	 SHORT $LL9@SafetyCast
  000ea	5f		 pop	 edi
  000eb	5e		 pop	 esi
$LN7@SafetyCast:
  000ec	5b		 pop	 ebx

; 2364 : 			}
; 2365 : 		}
; 2366 : 	}
; 2367 : }

  000ed	8b e5		 mov	 esp, ebp
  000ef	5d		 pop	 ebp
  000f0	c2 04 00	 ret	 4
?SafetyCastleZone@CChaosCastle@@QAEXH@Z ENDP		; CChaosCastle::SafetyCastleZone
_TEXT	ENDS
PUBLIC	?UnSafetyCastleZone@CChaosCastle@@QAEXH@Z	; CChaosCastle::UnSafetyCastleZone
; Function compile flags: /Ogtp
;	COMDAT ?UnSafetyCastleZone@CChaosCastle@@QAEXH@Z
_TEXT	SEGMENT
tv248 = -4						; size = 4
_iChaosCastleIndex$ = 8					; size = 4
?UnSafetyCastleZone@CChaosCastle@@QAEXH@Z PROC		; CChaosCastle::UnSafetyCastleZone, COMDAT
; _this$ = ecx

; 2370 : {

  00000	55		 push	 ebp
  00001	8b ec		 mov	 ebp, esp
  00003	51		 push	 ecx
  00004	53		 push	 ebx

; 2371 : 	if ( CC_FLOOR_RANGE(iChaosCastleIndex) == FALSE )

  00005	8b 5d 08	 mov	 ebx, DWORD PTR _iChaosCastleIndex$[ebp]
  00008	85 db		 test	 ebx, ebx
  0000a	0f 88 dc 00 00
	00		 js	 $LN7@UnSafetyCa
  00010	33 c0		 xor	 eax, eax
  00012	83 fb 05	 cmp	 ebx, 5
  00015	0f 9e c0	 setle	 al
  00018	85 c0		 test	 eax, eax
  0001a	0f 84 cc 00 00
	00		 je	 $LN7@UnSafetyCa

; 2372 : 		return ;
; 2373 : 
; 2374 : 	for ( int i=g_btCastleSafetyZoneMapXY[iChaosCastleIndex][0] ; i <= g_btCastleSafetyZoneMapXY[iChaosCastleIndex][2] ; i++ )

  00020	0f b6 04 9d 02
	00 00 00	 movzx	 eax, BYTE PTR _g_btCastleSafetyZoneMapXY[ebx*4+2]
  00028	56		 push	 esi
  00029	0f b6 34 9d 00
	00 00 00	 movzx	 esi, BYTE PTR _g_btCastleSafetyZoneMapXY[ebx*4]
  00031	57		 push	 edi
  00032	3b f0		 cmp	 esi, eax
  00034	7f 52		 jg	 SHORT $LN13@UnSafetyCa
  00036	0f b6 04 9d 03
	00 00 00	 movzx	 eax, BYTE PTR _g_btCastleSafetyZoneMapXY[ebx*4+3]
  0003e	8b ff		 npad	 2
$LL15@UnSafetyCa:

; 2375 : 	{
; 2376 : 		for (int j=g_btCastleSafetyZoneMapXY[iChaosCastleIndex][1] ; j <= g_btCastleSafetyZoneMapXY[iChaosCastleIndex][3] ; j++ )

  00040	0f b6 14 9d 01
	00 00 00	 movzx	 edx, BYTE PTR _g_btCastleSafetyZoneMapXY[ebx*4+1]
  00048	3b d0		 cmp	 edx, eax
  0004a	7f 2f		 jg	 SHORT $LN14@UnSafetyCa
  0004c	8b cb		 mov	 ecx, ebx
  0004e	69 c9 08 07 05
	00		 imul	 ecx, 329480		; 00050708H
  00054	8d b9 a0 7e 5a
	00		 lea	 edi, DWORD PTR ?MapC@@3PAVMapClass@@A[ecx+5930656]
  0005a	8b ca		 mov	 ecx, edx
  0005c	c1 e1 08	 shl	 ecx, 8
  0005f	90		 npad	 1
$LL12@UnSafetyCa:

; 2377 : 		{
; 2378 : 			MapC[iChaosCastleIndex+18].m_attrbuf[ j * 256 + i] &= ~1;

  00060	8b 07		 mov	 eax, DWORD PTR [edi]
  00062	03 c1		 add	 eax, ecx
  00064	80 24 30 fe	 and	 BYTE PTR [eax+esi], 254	; 000000feH
  00068	0f b6 04 9d 03
	00 00 00	 movzx	 eax, BYTE PTR _g_btCastleSafetyZoneMapXY[ebx*4+3]
  00070	42		 inc	 edx
  00071	81 c1 00 01 00
	00		 add	 ecx, 256		; 00000100H
  00077	3b d0		 cmp	 edx, eax
  00079	7e e5		 jle	 SHORT $LL12@UnSafetyCa
$LN14@UnSafetyCa:

; 2372 : 		return ;
; 2373 : 
; 2374 : 	for ( int i=g_btCastleSafetyZoneMapXY[iChaosCastleIndex][0] ; i <= g_btCastleSafetyZoneMapXY[iChaosCastleIndex][2] ; i++ )

  0007b	0f b6 0c 9d 02
	00 00 00	 movzx	 ecx, BYTE PTR _g_btCastleSafetyZoneMapXY[ebx*4+2]
  00083	46		 inc	 esi
  00084	3b f1		 cmp	 esi, ecx
  00086	7e b8		 jle	 SHORT $LL15@UnSafetyCa
$LN13@UnSafetyCa:

; 2379 : 		}
; 2380 : 	}
; 2381 : 
; 2382 : 	for ( int iHOLE_NUM = 0; iHOLE_NUM <2;iHOLE_NUM++)

  00088	8d 34 dd 03 00
	00 00		 lea	 esi, DWORD PTR _g_btCastleCenterHollowZoneMapXY[ebx*8+3]
  0008f	c7 45 fc 02 00
	00 00		 mov	 DWORD PTR tv248[ebp], 2
$LL9@UnSafetyCa:

; 2383 : 	{
; 2384 : 		for (int i=g_btCastleCenterHollowZoneMapXY[iChaosCastleIndex][iHOLE_NUM][0] ; i<= g_btCastleCenterHollowZoneMapXY[iChaosCastleIndex][iHOLE_NUM][2] ; i++ )

  00096	0f b6 7e fd	 movzx	 edi, BYTE PTR [esi-3]
  0009a	0f b6 56 ff	 movzx	 edx, BYTE PTR [esi-1]
  0009e	3b fa		 cmp	 edi, edx
  000a0	7f 40		 jg	 SHORT $LN8@UnSafetyCa
  000a2	0f b6 06	 movzx	 eax, BYTE PTR [esi]
$LL6@UnSafetyCa:

; 2385 : 		{
; 2386 : 			for (int j=g_btCastleCenterHollowZoneMapXY[iChaosCastleIndex][iHOLE_NUM][1] ; j<= g_btCastleCenterHollowZoneMapXY[iChaosCastleIndex][iHOLE_NUM][3] ; j++ )

  000a5	0f b6 56 fe	 movzx	 edx, BYTE PTR [esi-2]
  000a9	3b d0		 cmp	 edx, eax
  000ab	7f 2c		 jg	 SHORT $LN5@UnSafetyCa
  000ad	69 db 08 07 05
	00		 imul	 ebx, 329480		; 00050708H
  000b3	8b ca		 mov	 ecx, edx
  000b5	8d 9b a0 7e 5a
	00		 lea	 ebx, DWORD PTR ?MapC@@3PAVMapClass@@A[ebx+5930656]
  000bb	c1 e1 08	 shl	 ecx, 8
  000be	8b ff		 npad	 2
$LL3@UnSafetyCa:

; 2387 : 			{
; 2388 : 				MapC[iChaosCastleIndex+18].m_attrbuf[ j * 256 + i] |= 8;

  000c0	8b 03		 mov	 eax, DWORD PTR [ebx]
  000c2	03 c1		 add	 eax, ecx
  000c4	80 0c 38 08	 or	 BYTE PTR [eax+edi], 8
  000c8	0f b6 06	 movzx	 eax, BYTE PTR [esi]
  000cb	42		 inc	 edx
  000cc	81 c1 00 01 00
	00		 add	 ecx, 256		; 00000100H
  000d2	3b d0		 cmp	 edx, eax
  000d4	7e ea		 jle	 SHORT $LL3@UnSafetyCa

; 2385 : 		{
; 2386 : 			for (int j=g_btCastleCenterHollowZoneMapXY[iChaosCastleIndex][iHOLE_NUM][1] ; j<= g_btCastleCenterHollowZoneMapXY[iChaosCastleIndex][iHOLE_NUM][3] ; j++ )

  000d6	8b 5d 08	 mov	 ebx, DWORD PTR _iChaosCastleIndex$[ebp]
$LN5@UnSafetyCa:

; 2383 : 	{
; 2384 : 		for (int i=g_btCastleCenterHollowZoneMapXY[iChaosCastleIndex][iHOLE_NUM][0] ; i<= g_btCastleCenterHollowZoneMapXY[iChaosCastleIndex][iHOLE_NUM][2] ; i++ )

  000d9	0f b6 4e ff	 movzx	 ecx, BYTE PTR [esi-1]
  000dd	47		 inc	 edi
  000de	3b f9		 cmp	 edi, ecx
  000e0	7e c3		 jle	 SHORT $LL6@UnSafetyCa
$LN8@UnSafetyCa:

; 2379 : 		}
; 2380 : 	}
; 2381 : 
; 2382 : 	for ( int iHOLE_NUM = 0; iHOLE_NUM <2;iHOLE_NUM++)

  000e2	83 c6 04	 add	 esi, 4
  000e5	ff 4d fc	 dec	 DWORD PTR tv248[ebp]
  000e8	75 ac		 jne	 SHORT $LL9@UnSafetyCa
  000ea	5f		 pop	 edi
  000eb	5e		 pop	 esi
$LN7@UnSafetyCa:
  000ec	5b		 pop	 ebx

; 2389 : 			}
; 2390 : 		}
; 2391 : 	}
; 2392 : }

  000ed	8b e5		 mov	 esp, ebp
  000ef	5d		 pop	 ebp
  000f0	c2 04 00	 ret	 4
?UnSafetyCastleZone@CChaosCastle@@QAEXH@Z ENDP		; CChaosCastle::UnSafetyCastleZone
_TEXT	ENDS
PUBLIC	__$ArrayPad$
PUBLIC	?SendCastleZoneSafetyInfo@CChaosCastle@@QAEXH_N@Z ; CChaosCastle::SendCastleZoneSafetyInfo
; Function compile flags: /Ogtp
;	COMDAT ?SendCastleZoneSafetyInfo@CChaosCastle@@QAEXH_N@Z
_TEXT	SEGMENT
_cTEMP_BUF$ = -260					; size = 256
__$ArrayPad$ = -4					; size = 4
_iChaosCastleIndex$ = 8					; size = 4
_bDoSet$ = 12						; size = 1
?SendCastleZoneSafetyInfo@CChaosCastle@@QAEXH_N@Z PROC	; CChaosCastle::SendCastleZoneSafetyInfo, COMDAT
; _this$ = ecx

; 2395 : {

  00000	55		 push	 ebp
  00001	8b ec		 mov	 ebp, esp
  00003	81 ec 04 01 00
	00		 sub	 esp, 260		; 00000104H
  00009	a1 00 00 00 00	 mov	 eax, DWORD PTR ___security_cookie
  0000e	33 c5		 xor	 eax, ebp
  00010	89 45 fc	 mov	 DWORD PTR __$ArrayPad$[ebp], eax
  00013	56		 push	 esi

; 2396 : 	if ( CC_FLOOR_RANGE(iChaosCastleIndex) == FALSE )

  00014	8b 75 08	 mov	 esi, DWORD PTR _iChaosCastleIndex$[ebp]
  00017	85 f6		 test	 esi, esi
  00019	0f 88 be 00 00
	00		 js	 $LN3@SendCastle
  0001f	33 c0		 xor	 eax, eax
  00021	83 fe 05	 cmp	 esi, 5
  00024	0f 9e c0	 setle	 al
  00027	85 c0		 test	 eax, eax
  00029	0f 84 ae 00 00
	00		 je	 $LN3@SendCastle

; 2397 : 		return ;
; 2398 : 
; 2399 : 	char cTEMP_BUF[256];
; 2400 : 	PMSG_SETMAPATTR_COUNT * lpMsg = (PMSG_SETMAPATTR_COUNT *)cTEMP_BUF;
; 2401 : 
; 2402 : 	PHeadSetB((LPBYTE)lpMsg, 0x46, sizeof(PMSG_SETMAPATTR_COUNT)+sizeof(PMSG_SETMAPATTR)*6);

  0002f	53		 push	 ebx
  00030	57		 push	 edi
  00031	6a 13		 push	 19			; 00000013H
  00033	8d 85 fc fe ff
	ff		 lea	 eax, DWORD PTR _cTEMP_BUF$[ebp]
  00039	6a 46		 push	 70			; 00000046H
  0003b	50		 push	 eax
  0003c	e8 00 00 00 00	 call	 ?PHeadSetB@@YAXPAEEH@Z	; PHeadSetB

; 2403 : 	PMSG_SETMAPATTR * lpMsgBody = (PMSG_SETMAPATTR *)&cTEMP_BUF[7];
; 2404 : 	lpMsg->btType = 0;
; 2405 : 	lpMsg->btCount = 1;
; 2406 : 	lpMsg->btMapAttr = 1;
; 2407 : 	(bDoSet)?(lpMsg->btMapSetType=0) :( lpMsg->btMapSetType=1);
; 2408 : 
; 2409 : 	lpMsgBody[0].btX = ::g_btCastleSafetyZoneMapXY[iChaosCastleIndex][0];

  00041	0f b6 14 b5 00
	00 00 00	 movzx	 edx, BYTE PTR _g_btCastleSafetyZoneMapXY[esi*4]

; 2410 : 	lpMsgBody[0].btY = ::g_btCastleSafetyZoneMapXY[iChaosCastleIndex][1];

  00049	8a 04 b5 01 00
	00 00		 mov	 al, BYTE PTR _g_btCastleSafetyZoneMapXY[esi*4+1]
  00050	83 c4 0c	 add	 esp, 12			; 0000000cH
  00053	80 7d 0c 00	 cmp	 BYTE PTR _bDoSet$[ebp], 0
  00057	88 95 03 ff ff
	ff		 mov	 BYTE PTR _cTEMP_BUF$[ebp+7], dl

; 2411 : 	lpMsgBody[1].btX   = ::g_btCastleSafetyZoneMapXY[iChaosCastleIndex][2];
; 2412 : 	lpMsgBody[1].btY   = ::g_btCastleSafetyZoneMapXY[iChaosCastleIndex][3];

  0005d	0f b6 14 b5 03
	00 00 00	 movzx	 edx, BYTE PTR _g_btCastleSafetyZoneMapXY[esi*4+3]
  00065	0f 94 c1	 sete	 cl
  00068	88 8d 01 ff ff
	ff		 mov	 BYTE PTR _cTEMP_BUF$[ebp+5], cl
  0006e	8a 0c b5 02 00
	00 00		 mov	 cl, BYTE PTR _g_btCastleSafetyZoneMapXY[esi*4+2]
  00075	8d 5e 12	 lea	 ebx, DWORD PTR [esi+18]
  00078	c6 85 02 ff ff
	ff 01		 mov	 BYTE PTR _cTEMP_BUF$[ebp+6], 1
  0007f	66 c7 85 ff fe
	ff ff 00 01	 mov	 WORD PTR _cTEMP_BUF$[ebp+3], 256 ; 00000100H
  00088	88 85 04 ff ff
	ff		 mov	 BYTE PTR _cTEMP_BUF$[ebp+8], al
  0008e	88 8d 05 ff ff
	ff		 mov	 BYTE PTR _cTEMP_BUF$[ebp+9], cl
  00094	88 95 06 ff ff
	ff		 mov	 BYTE PTR _cTEMP_BUF$[ebp+10], dl

; 2413 : 
; 2414 : 	for (int i=OBJ_STARTUSERINDEX;i<OBJMAX;i++)

  0009a	bf 00 19 00 00	 mov	 edi, 6400		; 00001900H
  0009f	be 04 c4 16 02	 mov	 esi, OFFSET ?gObj@@3PAUOBJECTSTRUCT@@A+35046404
$LL5@SendCastle:

; 2415 : 	{
; 2416 : 		if ( gObj[i].MapNumber == (iChaosCastleIndex + 18) )

  000a4	0f b6 86 05 01
	00 00		 movzx	 eax, BYTE PTR [esi+261]
  000ab	3b c3		 cmp	 eax, ebx
  000ad	75 1d		 jne	 SHORT $LN4@SendCastle

; 2417 : 		{
; 2418 : 			if ( gObj[i].Connected > PLAYER_LOGGED )

  000af	80 3e 02	 cmp	 BYTE PTR [esi], 2
  000b2	76 18		 jbe	 SHORT $LN4@SendCastle

; 2419 : 			{
; 2420 : 				DataSend(i, (unsigned char *)lpMsg, lpMsg->h.size);

  000b4	0f b6 8d fd fe
	ff ff		 movzx	 ecx, BYTE PTR _cTEMP_BUF$[ebp+1]
  000bb	51		 push	 ecx
  000bc	8d 95 fc fe ff
	ff		 lea	 edx, DWORD PTR _cTEMP_BUF$[ebp]
  000c2	52		 push	 edx
  000c3	57		 push	 edi
  000c4	e8 00 00 00 00	 call	 ?DataSend@@YAHHPAEK@Z	; DataSend
  000c9	83 c4 0c	 add	 esp, 12			; 0000000cH
$LN4@SendCastle:

; 2413 : 
; 2414 : 	for (int i=OBJ_STARTUSERINDEX;i<OBJMAX;i++)

  000cc	81 c6 64 15 00
	00		 add	 esi, 5476		; 00001564H
  000d2	47		 inc	 edi
  000d3	81 fe a4 52 6a
	02		 cmp	 esi, OFFSET ?gObj@@3PAUOBJECTSTRUCT@@A+40522404
  000d9	7c c9		 jl	 SHORT $LL5@SendCastle
  000db	5f		 pop	 edi
  000dc	5b		 pop	 ebx
$LN3@SendCastle:

; 2421 : 			}
; 2422 : 		}
; 2423 : 	}
; 2424 : }

  000dd	8b 4d fc	 mov	 ecx, DWORD PTR __$ArrayPad$[ebp]
  000e0	33 cd		 xor	 ecx, ebp
  000e2	5e		 pop	 esi
  000e3	e8 00 00 00 00	 call	 @__security_check_cookie@4
  000e8	8b e5		 mov	 esp, ebp
  000ea	5d		 pop	 ebp
  000eb	c2 08 00	 ret	 8
?SendCastleZoneSafetyInfo@CChaosCastle@@QAEXH_N@Z ENDP	; CChaosCastle::SendCastleZoneSafetyInfo
_TEXT	ENDS
PUBLIC	??_C@_0GA@JMGLBJMH@?$FLChaos?5Castle?$FN?5?$CI?$CFd?$CJ?5?$FL?$CFs?$FN?$FL?$CFs?$FN?5Pay@ ; `string'
PUBLIC	__$ArrayPad$
PUBLIC	?PlayFailedRollBack@CChaosCastle@@QAEXH@Z	; CChaosCastle::PlayFailedRollBack
EXTRN	?gObjMoveGate@@YAHHH@Z:PROC			; gObjMoveGate
;	COMDAT ??_C@_0GA@JMGLBJMH@?$FLChaos?5Castle?$FN?5?$CI?$CFd?$CJ?5?$FL?$CFs?$FN?$FL?$CFs?$FN?5Pay@
CONST	SEGMENT
??_C@_0GA@JMGLBJMH@?$FLChaos?5Castle?$FN?5?$CI?$CFd?$CJ?5?$FL?$CFs?$FN?$FL?$CFs?$FN?5Pay@ DB '['
	DB	'Chaos Castle] (%d) [%s][%s] Payback to User ChaosCastle Money'
	DB	' (FIRST:%d, PAYBACK:%d, FINAL:%d)', 00H	; `string'
; Function compile flags: /Ogtp
CONST	ENDS
;	COMDAT ?PlayFailedRollBack@CChaosCastle@@QAEXH@Z
_TEXT	SEGMENT
_iFIRST_MONEY$159819 = -288				; size = 4
_iPAYBACK_MONEY$159820 = -284				; size = 4
tv186 = -280						; size = 4
_Notice$159822 = -276					; size = 272
__$ArrayPad$ = -4					; size = 4
_iChaosCastleIndex$ = 8					; size = 4
?PlayFailedRollBack@CChaosCastle@@QAEXH@Z PROC		; CChaosCastle::PlayFailedRollBack, COMDAT
; _this$ = ecx

; 2546 : {

  00000	55		 push	 ebp
  00001	8b ec		 mov	 ebp, esp
  00003	81 ec 20 01 00
	00		 sub	 esp, 288		; 00000120H
  00009	a1 00 00 00 00	 mov	 eax, DWORD PTR ___security_cookie
  0000e	33 c5		 xor	 eax, ebp
  00010	89 45 fc	 mov	 DWORD PTR __$ArrayPad$[ebp], eax
  00013	57		 push	 edi
  00014	8b 7d 08	 mov	 edi, DWORD PTR _iChaosCastleIndex$[ebp]

; 2547 : 	if ( CC_FLOOR_RANGE(iChaosCastleIndex) == FALSE )

  00017	85 ff		 test	 edi, edi
  00019	0f 88 45 01 00
	00		 js	 $LN3@PlayFailed
  0001f	33 c0		 xor	 eax, eax
  00021	83 ff 05	 cmp	 edi, 5
  00024	0f 9e c0	 setle	 al
  00027	85 c0		 test	 eax, eax
  00029	0f 84 35 01 00
	00		 je	 $LN3@PlayFailed

; 2548 : 		return;
; 2549 : 
; 2550 : 	for ( int i=0;i<MAX_CHAOSCASTLE_USER;i++)

  0002f	8b c7		 mov	 eax, edi
  00031	69 c0 6c 08 00
	00		 imul	 eax, 2156		; 0000086cH
  00037	53		 push	 ebx
  00038	56		 push	 esi
  00039	8d 74 08 6c	 lea	 esi, DWORD PTR [eax+ecx+108]
  0003d	c7 85 e8 fe ff
	ff 46 00 00 00	 mov	 DWORD PTR tv186[ebp], 70 ; 00000046H
  00047	eb 07 8d a4 24
	00 00 00 00	 npad	 9
$LL5@PlayFailed:

; 2551 : 	{
; 2552 : 		if ( this->m_stChaosCastleData[iChaosCastleIndex].m_UserData[i].m_iIndex != -1 )

  00050	8b 06		 mov	 eax, DWORD PTR [esi]
  00052	83 f8 ff	 cmp	 eax, -1
  00055	0f 84 f8 00 00
	00		 je	 $LN4@PlayFailed

; 2553 : 		{
; 2554 : 			if ( gObjIsConnected(this->m_stChaosCastleData[iChaosCastleIndex].m_UserData[i].m_iIndex) ==TRUE &&
; 2555 : 				 gObj[this->m_stChaosCastleData[iChaosCastleIndex].m_UserData[i].m_iIndex].MapNumber == (iChaosCastleIndex + MAP_INDEX_CHAOSCASTLE1) )

  0005b	50		 push	 eax
  0005c	e8 00 00 00 00	 call	 ?gObjIsConnected@@YAHH@Z ; gObjIsConnected
  00061	83 c4 04	 add	 esp, 4
  00064	83 f8 01	 cmp	 eax, 1
  00067	0f 85 e6 00 00
	00		 jne	 $LN4@PlayFailed
  0006d	8b 0e		 mov	 ecx, DWORD PTR [esi]
  0006f	69 c9 64 15 00
	00		 imul	 ecx, 5476		; 00001564H
  00075	0f b6 91 09 01
	00 00		 movzx	 edx, BYTE PTR ?gObj@@3PAUOBJECTSTRUCT@@A[ecx+265]
  0007c	8d 47 12	 lea	 eax, DWORD PTR [edi+18]
  0007f	3b d0		 cmp	 edx, eax
  00081	0f 85 cc 00 00
	00		 jne	 $LN4@PlayFailed

; 2556 : 			{
; 2557 : 				int iFIRST_MONEY = gObj[this->m_stChaosCastleData[iChaosCastleIndex].m_UserData[i].m_iIndex].Money;

  00087	8b 06		 mov	 eax, DWORD PTR [esi]

; 2558 : 				int iPAYBACK_MONEY = g_iChaosCastle_EnterCost[iChaosCastleIndex] + g_iChaosCastle_GuardSetValue[iChaosCastleIndex];

  00089	8b 14 bd 00 00
	00 00		 mov	 edx, DWORD PTR _g_iChaosCastle_GuardSetValue[edi*4]
  00090	69 c0 64 15 00
	00		 imul	 eax, 5476		; 00001564H
  00096	8b 88 b0 00 00
	00		 mov	 ecx, DWORD PTR ?gObj@@3PAUOBJECTSTRUCT@@A[eax+176]
  0009c	8b 1c bd 00 00
	00 00		 mov	 ebx, DWORD PTR _g_iChaosCastle_EnterCost[edi*4]
  000a3	8d 80 b0 00 00
	00		 lea	 eax, DWORD PTR ?gObj@@3PAUOBJECTSTRUCT@@A[eax+176]
  000a9	89 8d e0 fe ff
	ff		 mov	 DWORD PTR _iFIRST_MONEY$159819[ebp], ecx

; 2559 : 				gObj[this->m_stChaosCastleData[iChaosCastleIndex].m_UserData[i].m_iIndex].Money += g_iChaosCastle_EnterCost[iChaosCastleIndex] + g_iChaosCastle_GuardSetValue[iChaosCastleIndex];

  000af	03 0c bd 00 00
	00 00		 add	 ecx, DWORD PTR _g_iChaosCastle_EnterCost[edi*4]
  000b6	03 da		 add	 ebx, edx
  000b8	03 ca		 add	 ecx, edx
  000ba	89 08		 mov	 DWORD PTR [eax], ecx

; 2560 : 				int iNOW_MONEY = gObj[this->m_stChaosCastleData[iChaosCastleIndex].m_UserData[i].m_iIndex].Money;

  000bc	8b 06		 mov	 eax, DWORD PTR [esi]
  000be	8b c8		 mov	 ecx, eax
  000c0	69 c9 64 15 00
	00		 imul	 ecx, 5476		; 00001564H
  000c6	89 9d e4 fe ff
	ff		 mov	 DWORD PTR _iPAYBACK_MONEY$159820[ebp], ebx
  000cc	8b 99 b0 00 00
	00		 mov	 ebx, DWORD PTR ?gObj@@3PAUOBJECTSTRUCT@@A[ecx+176]

; 2561 : 
; 2562 : 				GCMoneySend(this->m_stChaosCastleData[iChaosCastleIndex].m_UserData[i].m_iIndex, gObj[this->m_stChaosCastleData[iChaosCastleIndex].m_UserData[i].m_iIndex].Money);

  000d2	53		 push	 ebx
  000d3	50		 push	 eax
  000d4	e8 00 00 00 00	 call	 ?GCMoneySend@@YAXHK@Z	; GCMoneySend

; 2563 : 				gObjMoveGate(this->m_stChaosCastleData[iChaosCastleIndex].m_UserData[i].m_iIndex, 22);

  000d9	8b 16		 mov	 edx, DWORD PTR [esi]
  000db	6a 16		 push	 22			; 00000016H
  000dd	52		 push	 edx
  000de	e8 00 00 00 00	 call	 ?gObjMoveGate@@YAHHH@Z	; gObjMoveGate
  000e3	83 c4 10	 add	 esp, 16			; 00000010H

; 2564 : 
; 2565 : 				PMSG_NOTICE Notice;
; 2566 : 
; 2567 : 				TNotice::MakeNoticeMsgEx(&Notice, 1, lMsg.Get(MSGGET(4,212)));

  000e6	68 d4 04 00 00	 push	 1236			; 000004d4H
  000eb	b9 00 00 00 00	 mov	 ecx, OFFSET ?lMsg@@3VCMsg@@A ; lMsg
  000f0	e8 00 00 00 00	 call	 ?Get@CMsg@@QAEPADH@Z	; CMsg::Get
  000f5	50		 push	 eax
  000f6	8d 85 ec fe ff
	ff		 lea	 eax, DWORD PTR _Notice$159822[ebp]
  000fc	6a 01		 push	 1
  000fe	50		 push	 eax
  000ff	e8 00 00 00 00	 call	 ?MakeNoticeMsgEx@TNotice@@SAXPAXEPADZZ ; TNotice::MakeNoticeMsgEx

; 2568 : 
; 2569 : 				DataSend(this->m_stChaosCastleData[iChaosCastleIndex].m_UserData[i].m_iIndex, (LPBYTE)&Notice, Notice.h.size);

  00104	0f b6 8d ed fe
	ff ff		 movzx	 ecx, BYTE PTR _Notice$159822[ebp+1]
  0010b	8b 06		 mov	 eax, DWORD PTR [esi]
  0010d	51		 push	 ecx
  0010e	8d 95 ec fe ff
	ff		 lea	 edx, DWORD PTR _Notice$159822[ebp]
  00114	52		 push	 edx
  00115	50		 push	 eax
  00116	e8 00 00 00 00	 call	 ?DataSend@@YAHHPAEK@Z	; DataSend

; 2570 : 
; 2571 : 				LogAdd(LOG_BLACK, "[Chaos Castle] (%d) [%s][%s] Payback to User ChaosCastle Money (FIRST:%d, PAYBACK:%d, FINAL:%d)",
; 2572 : 					iChaosCastleIndex+1, gObj[this->m_stChaosCastleData[iChaosCastleIndex].m_UserData[i].m_iIndex].AccountID,
; 2573 : 					gObj[this->m_stChaosCastleData[iChaosCastleIndex].m_UserData[i].m_iIndex].Name,
; 2574 : 					iFIRST_MONEY, iPAYBACK_MONEY, iNOW_MONEY);

  0011b	8b 06		 mov	 eax, DWORD PTR [esi]
  0011d	8b 8d e4 fe ff
	ff		 mov	 ecx, DWORD PTR _iPAYBACK_MONEY$159820[ebp]
  00123	69 c0 64 15 00
	00		 imul	 eax, 5476		; 00001564H
  00129	8b 95 e0 fe ff
	ff		 mov	 edx, DWORD PTR _iFIRST_MONEY$159819[ebp]
  0012f	53		 push	 ebx
  00130	51		 push	 ecx
  00131	52		 push	 edx
  00132	8d 88 6f 00 00
	00		 lea	 ecx, DWORD PTR ?gObj@@3PAUOBJECTSTRUCT@@A[eax+111]
  00138	51		 push	 ecx
  00139	8d 90 64 00 00
	00		 lea	 edx, DWORD PTR ?gObj@@3PAUOBJECTSTRUCT@@A[eax+100]
  0013f	52		 push	 edx
  00140	8d 47 01	 lea	 eax, DWORD PTR [edi+1]
  00143	50		 push	 eax
  00144	68 00 00 00 00	 push	 OFFSET ??_C@_0GA@JMGLBJMH@?$FLChaos?5Castle?$FN?5?$CI?$CFd?$CJ?5?$FL?$CFs?$FN?$FL?$CFs?$FN?5Pay@
  00149	6a 00		 push	 0
  0014b	e8 00 00 00 00	 call	 ?LogAdd@@YAXW4eLogColor@@PADZZ ; LogAdd
  00150	83 c4 38	 add	 esp, 56			; 00000038H
$LN4@PlayFailed:

; 2548 : 		return;
; 2549 : 
; 2550 : 	for ( int i=0;i<MAX_CHAOSCASTLE_USER;i++)

  00153	83 c6 14	 add	 esi, 20			; 00000014H
  00156	ff 8d e8 fe ff
	ff		 dec	 DWORD PTR tv186[ebp]
  0015c	0f 85 ee fe ff
	ff		 jne	 $LL5@PlayFailed
  00162	5e		 pop	 esi
  00163	5b		 pop	 ebx
$LN3@PlayFailed:

; 2575 : 
; 2576 : 			}
; 2577 : 		}
; 2578 : 	}
; 2579 : }

  00164	8b 4d fc	 mov	 ecx, DWORD PTR __$ArrayPad$[ebp]
  00167	33 cd		 xor	 ecx, ebp
  00169	5f		 pop	 edi
  0016a	e8 00 00 00 00	 call	 @__security_check_cookie@4
  0016f	8b e5		 mov	 esp, ebp
  00171	5d		 pop	 ebp
  00172	c2 04 00	 ret	 4
?PlayFailedRollBack@CChaosCastle@@QAEXH@Z ENDP		; CChaosCastle::PlayFailedRollBack
_TEXT	ENDS
PUBLIC	?CalUsersInTrap@CChaosCastle@@QAEXH@Z		; CChaosCastle::CalUsersInTrap
EXTRN	?GCStateInfoSend@@YAXPAUOBJECTSTRUCT@@EH@Z:PROC	; GCStateInfoSend
; Function compile flags: /Ogtp
;	COMDAT ?CalUsersInTrap@CChaosCastle@@QAEXH@Z
_TEXT	SEGMENT
_this$ = -12						; size = 4
tv359 = -8						; size = 4
tv241 = -4						; size = 4
_iChaosCastleIndex$ = 8					; size = 4
?CalUsersInTrap@CChaosCastle@@QAEXH@Z PROC		; CChaosCastle::CalUsersInTrap, COMDAT
; _this$ = ecx

; 2666 : {

  00000	55		 push	 ebp
  00001	8b ec		 mov	 ebp, esp
  00003	83 ec 0c	 sub	 esp, 12			; 0000000cH

; 2667 : 	if ( CC_FLOOR_RANGE(iChaosCastleIndex) == FALSE )

  00006	8b 55 08	 mov	 edx, DWORD PTR _iChaosCastleIndex$[ebp]
  00009	89 4d f4	 mov	 DWORD PTR _this$[ebp], ecx
  0000c	85 d2		 test	 edx, edx
  0000e	0f 88 9c 01 00
	00		 js	 $LN6@CalUsersIn
  00014	33 c0		 xor	 eax, eax
  00016	83 fa 05	 cmp	 edx, 5
  00019	0f 9e c0	 setle	 al
  0001c	85 c0		 test	 eax, eax
  0001e	0f 84 8c 01 00
	00		 je	 $LN6@CalUsersIn

; 2668 : 		return;
; 2669 : 
; 2670 : 	if (this->m_stChaosCastleData[iChaosCastleIndex].m_iCC_TRAP_STATUS== 0 )

  00024	69 d2 6c 08 00
	00		 imul	 edx, 2156		; 0000086cH
  0002a	8d 04 0a	 lea	 eax, DWORD PTR [edx+ecx]
  0002d	8b 48 64	 mov	 ecx, DWORD PTR [eax+100]
  00030	89 4d f8	 mov	 DWORD PTR tv359[ebp], ecx
  00033	85 c9		 test	 ecx, ecx
  00035	0f 84 75 01 00
	00		 je	 $LN6@CalUsersIn

; 2671 : 		return;
; 2672 : 
; 2673 : 	if ( !CHECK_LIMIT(this->m_stChaosCastleData[iChaosCastleIndex].m_iCC_TRAP_STATUS, 4))

  0003b	0f 88 6f 01 00
	00		 js	 $LN6@CalUsersIn
  00041	33 d2		 xor	 edx, edx
  00043	83 f9 03	 cmp	 ecx, 3
  00046	0f 9e c2	 setle	 dl
  00049	8b ca		 mov	 ecx, edx
  0004b	85 c9		 test	 ecx, ecx
  0004d	0f 84 5d 01 00
	00		 je	 $LN6@CalUsersIn

; 2674 : 		return;
; 2675 : 
; 2676 : 	int iTRAP_STEP = this->m_stChaosCastleData[iChaosCastleIndex].m_iCC_TRAP_STATUS;

  00053	53		 push	 ebx
  00054	56		 push	 esi
  00055	57		 push	 edi
  00056	8d 70 6c	 lea	 esi, DWORD PTR [eax+108]
  00059	c7 45 fc 46 00
	00 00		 mov	 DWORD PTR tv241[ebp], 70 ; 00000046H
  00060	bb 01 00 00 00	 mov	 ebx, 1
$LL8@CalUsersIn:

; 2679 : 	{
; 2680 : 		if ( this->m_stChaosCastleData[iChaosCastleIndex].m_UserData[i].m_iIndex != -1 )

  00065	8b 06		 mov	 eax, DWORD PTR [esi]
  00067	83 f8 ff	 cmp	 eax, -1
  0006a	0f 84 31 01 00
	00		 je	 $LN7@CalUsersIn

; 2681 : 		{
; 2682 : 			if ( gObjIsConnected(this->m_stChaosCastleData[iChaosCastleIndex].m_UserData[i].m_iIndex) ==TRUE &&
; 2683 : 				 gObj[this->m_stChaosCastleData[iChaosCastleIndex].m_UserData[i].m_iIndex].MapNumber == (iChaosCastleIndex + MAP_INDEX_CHAOSCASTLE1) )

  00070	50		 push	 eax
  00071	e8 00 00 00 00	 call	 ?gObjIsConnected@@YAHH@Z ; gObjIsConnected
  00076	83 c4 04	 add	 esp, 4
  00079	3b c3		 cmp	 eax, ebx
  0007b	0f 85 20 01 00
	00		 jne	 $LN7@CalUsersIn
  00081	8b 3e		 mov	 edi, DWORD PTR [esi]
  00083	8b 55 08	 mov	 edx, DWORD PTR _iChaosCastleIndex$[ebp]
  00086	8b c7		 mov	 eax, edi
  00088	69 c0 64 15 00
	00		 imul	 eax, 5476		; 00001564H
  0008e	0f b6 88 09 01
	00 00		 movzx	 ecx, BYTE PTR ?gObj@@3PAUOBJECTSTRUCT@@A[eax+265]
  00095	83 c2 12	 add	 edx, 18			; 00000012H
  00098	3b ca		 cmp	 ecx, edx
  0009a	0f 85 01 01 00
	00		 jne	 $LN7@CalUsersIn

; 2684 : 			{
; 2685 : 				int iSX = gObj[this->m_stChaosCastleData[iChaosCastleIndex].m_UserData[i].m_iIndex].X;

  000a0	8b c7		 mov	 eax, edi
  000a2	69 c0 64 15 00
	00		 imul	 eax, 5476		; 00001564H
  000a8	0f bf 88 04 01
	00 00		 movsx	 ecx, WORD PTR ?gObj@@3PAUOBJECTSTRUCT@@A[eax+260]

; 2686 : 				int iSY = gObj[this->m_stChaosCastleData[iChaosCastleIndex].m_UserData[i].m_iIndex].Y;

  000af	0f bf 90 06 01
	00 00		 movsx	 edx, WORD PTR ?gObj@@3PAUOBJECTSTRUCT@@A[eax+262]

; 2687 : 				
; 2688 : 				if ( iSX >= g_iChaosCastle_GroundAxis[0] &&
; 2689 : 					 iSX <= g_iChaosCastle_GroundAxis[2] &&
; 2690 : 					 iSY >= g_iChaosCastle_GroundAxis[1] &&
; 2691 : 					 iSY <= g_iChaosCastle_GroundAxis[3] &&
; 2692 : 					 ( iSX < g_iChaosCastle_DamageAxis[iTRAP_STEP][0] ||
; 2693 : 					   iSX > g_iChaosCastle_DamageAxis[iTRAP_STEP][2] ||
; 2694 : 					   iSY < g_iChaosCastle_DamageAxis[iTRAP_STEP][1] ||
; 2695 : 					   iSY > g_iChaosCastle_DamageAxis[iTRAP_STEP][3] ) )

  000b6	3b 0d 00 00 00
	00		 cmp	 ecx, DWORD PTR _g_iChaosCastle_GroundAxis
  000bc	0f 8c df 00 00
	00		 jl	 $LN7@CalUsersIn
  000c2	3b 0d 08 00 00
	00		 cmp	 ecx, DWORD PTR _g_iChaosCastle_GroundAxis+8
  000c8	0f 8f d3 00 00
	00		 jg	 $LN7@CalUsersIn
  000ce	3b 15 04 00 00
	00		 cmp	 edx, DWORD PTR _g_iChaosCastle_GroundAxis+4
  000d4	0f 8c c7 00 00
	00		 jl	 $LN7@CalUsersIn
  000da	3b 15 0c 00 00
	00		 cmp	 edx, DWORD PTR _g_iChaosCastle_GroundAxis+12
  000e0	0f 8f bb 00 00
	00		 jg	 $LN7@CalUsersIn
  000e6	8b 45 f8	 mov	 eax, DWORD PTR tv359[ebp]
  000e9	c1 e0 04	 shl	 eax, 4
  000ec	3b 88 00 00 00
	00		 cmp	 ecx, DWORD PTR _g_iChaosCastle_DamageAxis[eax]
  000f2	7c 1c		 jl	 SHORT $LN2@CalUsersIn
  000f4	3b 88 08 00 00
	00		 cmp	 ecx, DWORD PTR _g_iChaosCastle_DamageAxis[eax+8]
  000fa	7f 14		 jg	 SHORT $LN2@CalUsersIn
  000fc	3b 90 04 00 00
	00		 cmp	 edx, DWORD PTR _g_iChaosCastle_DamageAxis[eax+4]
  00102	7c 0c		 jl	 SHORT $LN2@CalUsersIn
  00104	3b 90 0c 00 00
	00		 cmp	 edx, DWORD PTR _g_iChaosCastle_DamageAxis[eax+12]
  0010a	0f 8e 91 00 00
	00		 jle	 $LN7@CalUsersIn
$LN2@CalUsersIn:

; 2696 : 				{
; 2697 : 					this->GiveUserDamage(this->m_stChaosCastleData[iChaosCastleIndex].m_UserData[i].m_iIndex, 10);

  00110	8b 4d f4	 mov	 ecx, DWORD PTR _this$[ebp]
  00113	6a 0a		 push	 10			; 0000000aH
  00115	57		 push	 edi
  00116	e8 00 00 00 00	 call	 ?GiveUserDamage@CChaosCastle@@QAEXHH@Z ; CChaosCastle::GiveUserDamage

; 2698 : 					
; 2699 : 					if ( gObj[this->m_stChaosCastleData[iChaosCastleIndex].m_UserData[i].m_iIndex].m_ColdBeattackCount <= 0 )

  0011b	8b 06		 mov	 eax, DWORD PTR [esi]
  0011d	69 c0 64 15 00
	00		 imul	 eax, 5476		; 00001564H
  00123	80 b8 28 02 00
	00 00		 cmp	 BYTE PTR ?gObj@@3PAUOBJECTSTRUCT@@A[eax+552], 0
  0012a	7f 75		 jg	 SHORT $LN7@CalUsersIn

; 2700 : 					{
; 2701 : 						gObj[this->m_stChaosCastleData[iChaosCastleIndex].m_UserData[i].m_iIndex].m_ColdBeattackCount = 3;

  0012c	8b 0e		 mov	 ecx, DWORD PTR [esi]
  0012e	69 c9 64 15 00
	00		 imul	 ecx, 5476		; 00001564H
  00134	c6 81 28 02 00
	00 03		 mov	 BYTE PTR ?gObj@@3PAUOBJECTSTRUCT@@A[ecx+552], 3

; 2702 : 						gObj[this->m_stChaosCastleData[iChaosCastleIndex].m_UserData[i].m_iIndex].lpAttackObj = NULL;

  0013b	8b 16		 mov	 edx, DWORD PTR [esi]
  0013d	69 d2 64 15 00
	00		 imul	 edx, 5476		; 00001564H
  00143	c7 82 38 02 00
	00 00 00 00 00	 mov	 DWORD PTR ?gObj@@3PAUOBJECTSTRUCT@@A[edx+568], 0

; 2703 : 						gObj[this->m_stChaosCastleData[iChaosCastleIndex].m_UserData[i].m_iIndex].DelayActionTime = 800;

  0014d	8b 06		 mov	 eax, DWORD PTR [esi]
  0014f	69 c0 64 15 00
	00		 imul	 eax, 5476		; 00001564H
  00155	c7 80 20 02 00
	00 20 03 00 00	 mov	 DWORD PTR ?gObj@@3PAUOBJECTSTRUCT@@A[eax+544], 800 ; 00000320H

; 2704 : 						gObj[this->m_stChaosCastleData[iChaosCastleIndex].m_UserData[i].m_iIndex].DelayLevel = 1;

  0015f	8b 0e		 mov	 ecx, DWORD PTR [esi]
  00161	69 c9 64 15 00
	00		 imul	 ecx, 5476		; 00001564H
  00167	88 99 24 02 00
	00		 mov	 BYTE PTR ?gObj@@3PAUOBJECTSTRUCT@@A[ecx+548], bl

; 2705 : 						gObj[this->m_stChaosCastleData[iChaosCastleIndex].m_UserData[i].m_iIndex].m_ViewSkillState |= 2;

  0016d	8b 06		 mov	 eax, DWORD PTR [esi]
  0016f	69 c0 64 15 00
	00		 imul	 eax, 5476		; 00001564H
  00175	83 88 c4 01 00
	00 02		 or	 DWORD PTR ?gObj@@3PAUOBJECTSTRUCT@@A[eax+452], 2
  0017c	8d 80 c4 01 00
	00		 lea	 eax, DWORD PTR ?gObj@@3PAUOBJECTSTRUCT@@A[eax+452]

; 2706 : 
; 2707 : 						GCStateInfoSend(&gObj[this->m_stChaosCastleData[iChaosCastleIndex].m_UserData[i].m_iIndex], 1,
; 2708 : 							gObj[this->m_stChaosCastleData[iChaosCastleIndex].m_UserData[i].m_iIndex].m_ViewSkillState);

  00182	8b 06		 mov	 eax, DWORD PTR [esi]
  00184	69 c0 64 15 00
	00		 imul	 eax, 5476		; 00001564H
  0018a	8b 90 c4 01 00
	00		 mov	 edx, DWORD PTR ?gObj@@3PAUOBJECTSTRUCT@@A[eax+452]
  00190	52		 push	 edx
  00191	8d 80 00 00 00
	00		 lea	 eax, DWORD PTR ?gObj@@3PAUOBJECTSTRUCT@@A[eax]
  00197	53		 push	 ebx
  00198	50		 push	 eax
  00199	e8 00 00 00 00	 call	 ?GCStateInfoSend@@YAXPAUOBJECTSTRUCT@@EH@Z ; GCStateInfoSend
  0019e	83 c4 0c	 add	 esp, 12			; 0000000cH
$LN7@CalUsersIn:

; 2677 : 
; 2678 : 	for ( int i=0;i<MAX_CHAOSCASTLE_USER;i++)

  001a1	83 c6 14	 add	 esi, 20			; 00000014H
  001a4	29 5d fc	 sub	 DWORD PTR tv241[ebp], ebx
  001a7	0f 85 b8 fe ff
	ff		 jne	 $LL8@CalUsersIn
  001ad	5f		 pop	 edi
  001ae	5e		 pop	 esi
  001af	5b		 pop	 ebx
$LN6@CalUsersIn:

; 2709 : 					}
; 2710 : 				}
; 2711 : 			}
; 2712 : 		}
; 2713 : 	}
; 2714 : }

  001b0	8b e5		 mov	 esp, ebp
  001b2	5d		 pop	 ebp
  001b3	c2 04 00	 ret	 4
?CalUsersInTrap@CChaosCastle@@QAEXH@Z ENDP		; CChaosCastle::CalUsersInTrap
_TEXT	ENDS
PUBLIC	?CheckWearingMOPH@CChaosCastle@@QAEHH@Z		; CChaosCastle::CheckWearingMOPH
; Function compile flags: /Ogtp
;	COMDAT ?CheckWearingMOPH@CChaosCastle@@QAEHH@Z
_TEXT	SEGMENT
_iUserIndex$ = 8					; size = 4
?CheckWearingMOPH@CChaosCastle@@QAEHH@Z PROC		; CChaosCastle::CheckWearingMOPH, COMDAT
; _this$ = ecx

; 2717 : {

  00000	55		 push	 ebp
  00001	8b ec		 mov	 ebp, esp
  00003	56		 push	 esi

; 2718 : 	if (  gObjIsConnected(iUserIndex) == FALSE )

  00004	8b 75 08	 mov	 esi, DWORD PTR _iUserIndex$[ebp]
  00007	56		 push	 esi
  00008	e8 00 00 00 00	 call	 ?gObjIsConnected@@YAHH@Z ; gObjIsConnected
  0000d	83 c4 04	 add	 esp, 4
  00010	85 c0		 test	 eax, eax

; 2719 : 	{
; 2720 : 		return FALSE;

  00012	74 76		 je	 SHORT $LN1@CheckWeari

; 2721 : 	}
; 2722 : 
; 2723 : 	if ( gObj[iUserIndex].pInventory[10].IsItem()  )

  00014	69 f6 64 15 00
	00		 imul	 esi, 5476		; 00001564H
  0001a	8b 8e 8c 0c 00
	00		 mov	 ecx, DWORD PTR ?gObj@@3PAUOBJECTSTRUCT@@A[esi+3212]
  00020	8d b6 8c 0c 00
	00		 lea	 esi, DWORD PTR ?gObj@@3PAUOBJECTSTRUCT@@A[esi+3212]
  00026	81 c1 90 06 00
	00		 add	 ecx, 1680		; 00000690H
  0002c	e8 00 00 00 00	 call	 ?IsItem@CItem@@QAEHXZ	; CItem::IsItem
  00031	85 c0		 test	 eax, eax
  00033	74 27		 je	 SHORT $LN4@CheckWeari

; 2724 : 	{
; 2725 : 		if ( gObj[iUserIndex].pInventory[10].m_Type == ITEMGET(13,10) ) // Tranformation Ring

  00035	8b 06		 mov	 eax, DWORD PTR [esi]
  00037	0f b7 80 96 06
	00 00		 movzx	 eax, WORD PTR [eax+1686]
  0003e	b9 0a 1a 00 00	 mov	 ecx, 6666		; 00001a0aH
  00043	66 3b c1	 cmp	 ax, cx
  00046	75 0a		 jne	 SHORT $LN5@CheckWeari
$LN10@CheckWeari:

; 2726 : 		{
; 2727 : 			return TRUE;

  00048	b8 01 00 00 00	 mov	 eax, 1
  0004d	5e		 pop	 esi

; 2750 : }

  0004e	5d		 pop	 ebp
  0004f	c2 04 00	 ret	 4
$LN5@CheckWeari:

; 2728 : 		}
; 2729 : 
; 2730 : 		if ( gObj[iUserIndex].pInventory[10].m_Type == ITEMGET(13,39) ) 

  00052	ba 27 1a 00 00	 mov	 edx, 6695		; 00001a27H
  00057	66 3b c2	 cmp	 ax, dx

; 2731 : 		{
; 2732 : 			return TRUE;

  0005a	74 ec		 je	 SHORT $LN10@CheckWeari
$LN4@CheckWeari:

; 2733 : 		}
; 2734 : 	}
; 2735 : 
; 2736 : 	if ( gObj[iUserIndex].pInventory[11].IsItem() )

  0005c	8b 0e		 mov	 ecx, DWORD PTR [esi]
  0005e	81 c1 38 07 00
	00		 add	 ecx, 1848		; 00000738H
  00064	e8 00 00 00 00	 call	 ?IsItem@CItem@@QAEHXZ	; CItem::IsItem
  00069	85 c0		 test	 eax, eax
  0006b	74 1d		 je	 SHORT $LN1@CheckWeari

; 2737 : 	{
; 2738 : 		if ( gObj[iUserIndex].pInventory[11].m_Type == ITEMGET(13,10) ) // Tranformation Ring

  0006d	8b 06		 mov	 eax, DWORD PTR [esi]
  0006f	0f b7 80 3e 07
	00 00		 movzx	 eax, WORD PTR [eax+1854]
  00076	b9 0a 1a 00 00	 mov	 ecx, 6666		; 00001a0aH
  0007b	66 3b c1	 cmp	 ax, cx

; 2739 : 		{
; 2740 : 			return TRUE;

  0007e	74 c8		 je	 SHORT $LN10@CheckWeari

; 2741 : 		}
; 2742 : 
; 2743 : 		if ( gObj[iUserIndex].pInventory[11].m_Type == ITEMGET(13,39) ) 

  00080	ba 27 1a 00 00	 mov	 edx, 6695		; 00001a27H
  00085	66 3b c2	 cmp	 ax, dx

; 2744 : 		{
; 2745 : 			return TRUE;

  00088	74 be		 je	 SHORT $LN10@CheckWeari
$LN1@CheckWeari:

; 2746 : 		}
; 2747 : 	}
; 2748 : 
; 2749 : 	return FALSE;

  0008a	33 c0		 xor	 eax, eax
  0008c	5e		 pop	 esi

; 2750 : }

  0008d	5d		 pop	 ebp
  0008e	c2 04 00	 ret	 4
?CheckWearingMOPH@CChaosCastle@@QAEHH@Z ENDP		; CChaosCastle::CheckWearingMOPH
_TEXT	ENDS
PUBLIC	??_C@_0DK@DHDNPFMP@?$FLChaos?5Castle?$FN?5?$CI?$CFd?$CJ?5?$FL?$CFs?$FN?$FL?$CFs?$FN?5Win@ ; `string'
PUBLIC	??_C@_0DE@HBELAIG@?$FLChaos?5Castle?$FN?5?$CI?$CFd?$CJ?5?$FL?$CFs?$FN?$FL?$CFs?$FN?5Win@ ; `string'
PUBLIC	??_C@_0DI@DBIACCAA@?$FLChaos?5Castle?$FN?5?$CI?$CFd?$CJ?5?$FL?$CFs?$FN?$FL?$CFs?$FN?5Win@ ; `string'
PUBLIC	??_C@_0DH@LBJAIKPF@?$FLChaos?5Castle?$FN?5?$CI?$CFd?$CJ?5?$FL?$CFs?$FN?$FL?$CFs?$FN?5Win@ ; `string'
PUBLIC	??_C@_0DH@LJOJHDBK@?$FLChaos?5Castle?$FN?5?$CI?$CFd?$CJ?5?$FL?$CFs?$FN?$FL?$CFs?$FN?5Win@ ; `string'
PUBLIC	??_C@_0DL@MGKGLOGC@?$FLChaos?5Castle?$FN?5?$CI?$CFd?$CJ?5?$FL?$CFs?$FN?$FL?$CFs?$FN?5Win@ ; `string'
PUBLIC	?GiveWinnerItem@CChaosCastle@@QAEXHH@Z		; CChaosCastle::GiveWinnerItem
EXTRN	?RingEventItemBoxOpen@@YAXPAUOBJECTSTRUCT@@@Z:PROC ; RingEventItemBoxOpen
EXTRN	?MakeRandomSetItem@@YAXH@Z:PROC			; MakeRandomSetItem
EXTRN	?ItemSerialCreateSend@@YAXHEEEHEEEEEHEE@Z:PROC	; ItemSerialCreateSend
EXTRN	_rand:PROC
;	COMDAT ??_C@_0DK@DHDNPFMP@?$FLChaos?5Castle?$FN?5?$CI?$CFd?$CJ?5?$FL?$CFs?$FN?$FL?$CFs?$FN?5Win@
CONST	SEGMENT
??_C@_0DK@DHDNPFMP@?$FLChaos?5Castle?$FN?5?$CI?$CFd?$CJ?5?$FL?$CFs?$FN?$FL?$CFs?$FN?5Win@ DB '['
	DB	'Chaos Castle] (%d) [%s][%s] Winner Item - Lucky Box Item', 00H ; `string'
CONST	ENDS
;	COMDAT ??_C@_0DE@HBELAIG@?$FLChaos?5Castle?$FN?5?$CI?$CFd?$CJ?5?$FL?$CFs?$FN?$FL?$CFs?$FN?5Win@
CONST	SEGMENT
??_C@_0DE@HBELAIG@?$FLChaos?5Castle?$FN?5?$CI?$CFd?$CJ?5?$FL?$CFs?$FN?$FL?$CFs?$FN?5Win@ DB '['
	DB	'Chaos Castle] (%d) [%s][%s] Winner Item - Set Item', 00H ; `string'
CONST	ENDS
;	COMDAT ??_C@_0DI@DBIACCAA@?$FLChaos?5Castle?$FN?5?$CI?$CFd?$CJ?5?$FL?$CFs?$FN?$FL?$CFs?$FN?5Win@
CONST	SEGMENT
??_C@_0DI@DBIACCAA@?$FLChaos?5Castle?$FN?5?$CI?$CFd?$CJ?5?$FL?$CFs?$FN?$FL?$CFs?$FN?5Win@ DB '['
	DB	'Chaos Castle] (%d) [%s][%s] Winner Item - Gem of Bless', 00H ; `string'
CONST	ENDS
;	COMDAT ??_C@_0DH@LBJAIKPF@?$FLChaos?5Castle?$FN?5?$CI?$CFd?$CJ?5?$FL?$CFs?$FN?$FL?$CFs?$FN?5Win@
CONST	SEGMENT
??_C@_0DH@LBJAIKPF@?$FLChaos?5Castle?$FN?5?$CI?$CFd?$CJ?5?$FL?$CFs?$FN?$FL?$CFs?$FN?5Win@ DB '['
	DB	'Chaos Castle] (%d) [%s][%s] Winner Item - Gem of Life', 00H ; `string'
CONST	ENDS
;	COMDAT ??_C@_0DH@LJOJHDBK@?$FLChaos?5Castle?$FN?5?$CI?$CFd?$CJ?5?$FL?$CFs?$FN?$FL?$CFs?$FN?5Win@
CONST	SEGMENT
??_C@_0DH@LJOJHDBK@?$FLChaos?5Castle?$FN?5?$CI?$CFd?$CJ?5?$FL?$CFs?$FN?$FL?$CFs?$FN?5Win@ DB '['
	DB	'Chaos Castle] (%d) [%s][%s] Winner Item - Gem of Soul', 00H ; `string'
CONST	ENDS
;	COMDAT ??_C@_0DL@MGKGLOGC@?$FLChaos?5Castle?$FN?5?$CI?$CFd?$CJ?5?$FL?$CFs?$FN?$FL?$CFs?$FN?5Win@
CONST	SEGMENT
??_C@_0DL@MGKGLOGC@?$FLChaos?5Castle?$FN?5?$CI?$CFd?$CJ?5?$FL?$CFs?$FN?$FL?$CFs?$FN?5Win@ DB '['
	DB	'Chaos Castle] (%d) [%s][%s] Winner Item - Gem of Creative', 00H ; `string'
; Function compile flags: /Ogtp
CONST	ENDS
;	COMDAT ?GiveWinnerItem@CChaosCastle@@QAEXHH@Z
_TEXT	SEGMENT
_iChaosCastleIndex$ = 8					; size = 4
_iWinnerIndex$ = 12					; size = 4
?GiveWinnerItem@CChaosCastle@@QAEXHH@Z PROC		; CChaosCastle::GiveWinnerItem, COMDAT
; _this$ = ecx

; 2753 : {

  00000	55		 push	 ebp
  00001	8b ec		 mov	 ebp, esp
  00003	56		 push	 esi

; 2754 : 	if ( CC_FLOOR_RANGE(iChaosCastleIndex) == FALSE )

  00004	8b 75 08	 mov	 esi, DWORD PTR _iChaosCastleIndex$[ebp]
  00007	85 f6		 test	 esi, esi
  00009	0f 88 af 01 00
	00		 js	 $LN3@GiveWinner
  0000f	33 c0		 xor	 eax, eax
  00011	83 fe 05	 cmp	 esi, 5
  00014	0f 9e c0	 setle	 al
  00017	85 c0		 test	 eax, eax
  00019	0f 84 9f 01 00
	00		 je	 $LN3@GiveWinner

; 2755 : 		return;
; 2756 : 
; 2757 : 	if ( !gObjIsConnected(iWinnerIndex))

  0001f	57		 push	 edi
  00020	8b 7d 0c	 mov	 edi, DWORD PTR _iWinnerIndex$[ebp]
  00023	57		 push	 edi
  00024	e8 00 00 00 00	 call	 ?gObjIsConnected@@YAHH@Z ; gObjIsConnected
  00029	83 c4 04	 add	 esp, 4
  0002c	85 c0		 test	 eax, eax
  0002e	0f 84 89 01 00
	00		 je	 $LN24@GiveWinner

; 2758 : 		return;
; 2759 : 
; 2760 : 	int iItemDropRate = rand()%100;

  00034	53		 push	 ebx
  00035	e8 00 00 00 00	 call	 _rand
  0003a	99		 cdq
  0003b	b9 64 00 00 00	 mov	 ecx, 100		; 00000064H
  00040	f7 f9		 idiv	 ecx

; 2761 : 	int iItemType = 0;

  00042	33 db		 xor	 ebx, ebx

; 2762 : 	int iItemLevel = 0;
; 2763 : 	int iItemDur = 0;
; 2764 : 
; 2765 : 	if ( iItemDropRate < 50 )

  00044	83 fa 32	 cmp	 edx, 50			; 00000032H
  00047	7d 5b		 jge	 SHORT $LN16@GiveWinner

; 2766 : 	{
; 2767 : 		switch ( iChaosCastleIndex )

  00049	85 f6		 test	 esi, esi
  0004b	74 33		 je	 SHORT $LN13@GiveWinner
  0004d	0f 8e b5 00 00
	00		 jle	 $LN23@GiveWinner
  00053	83 fe 05	 cmp	 esi, 5
  00056	0f 8f ac 00 00
	00		 jg	 $LN23@GiveWinner

; 2773 : 				break;
; 2774 : 			case 1: case 2: case 3: case 4: case 5:
; 2775 : 				iItemType = ITEMGET(14,22);
; 2776 : 				LogAdd(LOG_BLACK, "[Chaos Castle] (%d) [%s][%s] Winner Item - Gem of Creative", iChaosCastleIndex+1,
; 2777 : 					gObj[iWinnerIndex].AccountID, gObj[iWinnerIndex].Name);

  0005c	8b c7		 mov	 eax, edi
  0005e	69 c0 64 15 00
	00		 imul	 eax, 5476		; 00001564H
  00064	8d 90 6f 00 00
	00		 lea	 edx, DWORD PTR ?gObj@@3PAUOBJECTSTRUCT@@A[eax+111]
  0006a	52		 push	 edx
  0006b	8d 80 64 00 00
	00		 lea	 eax, DWORD PTR ?gObj@@3PAUOBJECTSTRUCT@@A[eax+100]
  00071	50		 push	 eax
  00072	46		 inc	 esi
  00073	56		 push	 esi
  00074	bb 16 1c 00 00	 mov	 ebx, 7190		; 00001c16H
  00079	68 00 00 00 00	 push	 OFFSET ??_C@_0DL@MGKGLOGC@?$FLChaos?5Castle?$FN?5?$CI?$CFd?$CJ?5?$FL?$CFs?$FN?$FL?$CFs?$FN?5Win@

; 2778 : 				break;

  0007e	eb 7e		 jmp	 SHORT $LN26@GiveWinner
$LN13@GiveWinner:

; 2768 : 		{
; 2769 : 			case 0:
; 2770 : 				iItemType = ITEMGET(14,14);
; 2771 : 				LogAdd(LOG_BLACK, "[Chaos Castle] (%d) [%s][%s] Winner Item - Gem of Soul", iChaosCastleIndex+1,
; 2772 : 					gObj[iWinnerIndex].AccountID, gObj[iWinnerIndex].Name);

  00080	8b c7		 mov	 eax, edi
  00082	69 c0 64 15 00
	00		 imul	 eax, 5476		; 00001564H
  00088	8d 88 6f 00 00
	00		 lea	 ecx, DWORD PTR ?gObj@@3PAUOBJECTSTRUCT@@A[eax+111]
  0008e	51		 push	 ecx
  0008f	8d 90 64 00 00
	00		 lea	 edx, DWORD PTR ?gObj@@3PAUOBJECTSTRUCT@@A[eax+100]
  00095	52		 push	 edx
  00096	6a 01		 push	 1
  00098	bb 0e 1c 00 00	 mov	 ebx, 7182		; 00001c0eH
  0009d	68 00 00 00 00	 push	 OFFSET ??_C@_0DH@LJOJHDBK@?$FLChaos?5Castle?$FN?5?$CI?$CFd?$CJ?5?$FL?$CFs?$FN?$FL?$CFs?$FN?5Win@

; 2779 : 		}
; 2780 : 
; 2781 : 		iItemLevel = 0;
; 2782 : 		iItemDur = 0;

  000a2	eb 5a		 jmp	 SHORT $LN26@GiveWinner
$LN16@GiveWinner:

; 2783 : 	}
; 2784 : 	else if ( iItemDropRate <95 )

  000a4	83 fa 5f	 cmp	 edx, 95			; 0000005fH
  000a7	0f 8d a1 00 00
	00		 jge	 $LN10@GiveWinner

; 2785 : 	{
; 2786 : 		switch ( iChaosCastleIndex )

  000ad	85 f6		 test	 esi, esi
  000af	74 2b		 je	 SHORT $LN7@GiveWinner
  000b1	7e 55		 jle	 SHORT $LN23@GiveWinner
  000b3	83 fe 05	 cmp	 esi, 5
  000b6	7f 50		 jg	 SHORT $LN23@GiveWinner

; 2792 : 				break;
; 2793 : 			case 1: case 2: case 3: case 4: case 5:
; 2794 : 				iItemType = ITEMGET(14,16);
; 2795 : 				LogAdd(LOG_BLACK, "[Chaos Castle] (%d) [%s][%s] Winner Item - Gem of Life", iChaosCastleIndex+1,
; 2796 : 					gObj[iWinnerIndex].AccountID, gObj[iWinnerIndex].Name);

  000b8	8b c7		 mov	 eax, edi
  000ba	69 c0 64 15 00
	00		 imul	 eax, 5476		; 00001564H
  000c0	8d 88 6f 00 00
	00		 lea	 ecx, DWORD PTR ?gObj@@3PAUOBJECTSTRUCT@@A[eax+111]
  000c6	51		 push	 ecx
  000c7	8d 90 64 00 00
	00		 lea	 edx, DWORD PTR ?gObj@@3PAUOBJECTSTRUCT@@A[eax+100]
  000cd	52		 push	 edx
  000ce	46		 inc	 esi
  000cf	56		 push	 esi
  000d0	bb 10 1c 00 00	 mov	 ebx, 7184		; 00001c10H
  000d5	68 00 00 00 00	 push	 OFFSET ??_C@_0DH@LBJAIKPF@?$FLChaos?5Castle?$FN?5?$CI?$CFd?$CJ?5?$FL?$CFs?$FN?$FL?$CFs?$FN?5Win@

; 2797 : 				break;

  000da	eb 22		 jmp	 SHORT $LN26@GiveWinner
$LN7@GiveWinner:

; 2787 : 		{
; 2788 : 			case 0:
; 2789 : 				iItemType = ITEMGET(14,13);
; 2790 : 				LogAdd(LOG_BLACK, "[Chaos Castle] (%d) [%s][%s] Winner Item - Gem of Bless", iChaosCastleIndex+1,
; 2791 : 					gObj[iWinnerIndex].AccountID, gObj[iWinnerIndex].Name);

  000dc	8b c7		 mov	 eax, edi
  000de	69 c0 64 15 00
	00		 imul	 eax, 5476		; 00001564H
  000e4	8d 88 6f 00 00
	00		 lea	 ecx, DWORD PTR ?gObj@@3PAUOBJECTSTRUCT@@A[eax+111]
  000ea	51		 push	 ecx
  000eb	8d 90 64 00 00
	00		 lea	 edx, DWORD PTR ?gObj@@3PAUOBJECTSTRUCT@@A[eax+100]
  000f1	52		 push	 edx
  000f2	6a 01		 push	 1
  000f4	bb 0d 1c 00 00	 mov	 ebx, 7181		; 00001c0dH
  000f9	68 00 00 00 00	 push	 OFFSET ??_C@_0DI@DBIACCAA@?$FLChaos?5Castle?$FN?5?$CI?$CFd?$CJ?5?$FL?$CFs?$FN?$FL?$CFs?$FN?5Win@
$LN26@GiveWinner:
  000fe	6a 00		 push	 0
  00100	e8 00 00 00 00	 call	 ?LogAdd@@YAXW4eLogColor@@PADZZ ; LogAdd
  00105	83 c4 14	 add	 esp, 20			; 00000014H
$LN23@GiveWinner:

; 2816 : 				break;
; 2817 : 		}
; 2818 : 
; 2819 : 		return;
; 2820 : 	}
; 2821 : 
; 2822 : 	ItemSerialCreateSend(gObj[iWinnerIndex].m_Index, gObj[iWinnerIndex].MapNumber,
; 2823 : 		gObj[iWinnerIndex].X, gObj[iWinnerIndex].Y, iItemType, iItemLevel, iItemDur, 0, 0, 0, iWinnerIndex, 0, 0);

  00108	6a 00		 push	 0
  0010a	6a 00		 push	 0
  0010c	57		 push	 edi
  0010d	6a 00		 push	 0
  0010f	8b c7		 mov	 eax, edi
  00111	69 c0 64 15 00
	00		 imul	 eax, 5476		; 00001564H
  00117	0f b6 88 06 01
	00 00		 movzx	 ecx, BYTE PTR ?gObj@@3PAUOBJECTSTRUCT@@A[eax+262]
  0011e	0f b6 90 04 01
	00 00		 movzx	 edx, BYTE PTR ?gObj@@3PAUOBJECTSTRUCT@@A[eax+260]
  00125	6a 00		 push	 0
  00127	6a 00		 push	 0
  00129	6a 00		 push	 0
  0012b	6a 00		 push	 0
  0012d	53		 push	 ebx
  0012e	51		 push	 ecx
  0012f	0f b6 88 09 01
	00 00		 movzx	 ecx, BYTE PTR ?gObj@@3PAUOBJECTSTRUCT@@A[eax+265]
  00136	52		 push	 edx
  00137	8b 90 00 00 00
	00		 mov	 edx, DWORD PTR ?gObj@@3PAUOBJECTSTRUCT@@A[eax]
  0013d	51		 push	 ecx
  0013e	52		 push	 edx
  0013f	e8 00 00 00 00	 call	 ?ItemSerialCreateSend@@YAXHEEEHEEEEEHEE@Z ; ItemSerialCreateSend
  00144	83 c4 34	 add	 esp, 52			; 00000034H
  00147	5b		 pop	 ebx
  00148	5f		 pop	 edi
  00149	5e		 pop	 esi

; 2824 : }

  0014a	5d		 pop	 ebp
  0014b	c2 08 00	 ret	 8
$LN10@GiveWinner:

; 2798 : 		}
; 2799 : 
; 2800 : 		iItemLevel = 0;
; 2801 : 		iItemDur = 0;
; 2802 : 	}
; 2803 : 	else
; 2804 : 	{
; 2805 : 		switch ( iChaosCastleIndex )

  0014e	85 f6		 test	 esi, esi
  00150	74 39		 je	 SHORT $LN2@GiveWinner
  00152	7e 68		 jle	 SHORT $LN25@GiveWinner
  00154	83 fe 05	 cmp	 esi, 5
  00157	7f 63		 jg	 SHORT $LN25@GiveWinner

; 2811 : 				break;
; 2812 : 			case 1: case 2: case 3: case 4: case 5:
; 2813 : 				MakeRandomSetItem(iWinnerIndex);

  00159	57		 push	 edi
  0015a	e8 00 00 00 00	 call	 ?MakeRandomSetItem@@YAXH@Z ; MakeRandomSetItem

; 2814 : 				LogAdd(LOG_BLACK, "[Chaos Castle] (%d) [%s][%s] Winner Item - Set Item", iChaosCastleIndex+1,
; 2815 : 					gObj[iWinnerIndex].AccountID, gObj[iWinnerIndex].Name);

  0015f	69 ff 64 15 00
	00		 imul	 edi, 5476		; 00001564H
  00165	8d 87 6f 00 00
	00		 lea	 eax, DWORD PTR ?gObj@@3PAUOBJECTSTRUCT@@A[edi+111]
  0016b	50		 push	 eax
  0016c	8d 8f 64 00 00
	00		 lea	 ecx, DWORD PTR ?gObj@@3PAUOBJECTSTRUCT@@A[edi+100]
  00172	51		 push	 ecx
  00173	46		 inc	 esi
  00174	56		 push	 esi
  00175	68 00 00 00 00	 push	 OFFSET ??_C@_0DE@HBELAIG@?$FLChaos?5Castle?$FN?5?$CI?$CFd?$CJ?5?$FL?$CFs?$FN?$FL?$CFs?$FN?5Win@
  0017a	6a 00		 push	 0
  0017c	e8 00 00 00 00	 call	 ?LogAdd@@YAXW4eLogColor@@PADZZ ; LogAdd
  00181	83 c4 18	 add	 esp, 24			; 00000018H
  00184	5b		 pop	 ebx
  00185	5f		 pop	 edi
  00186	5e		 pop	 esi

; 2824 : }

  00187	5d		 pop	 ebp
  00188	c2 08 00	 ret	 8
$LN2@GiveWinner:

; 2806 : 		{
; 2807 : 			case 0:
; 2808 : 				RingEventItemBoxOpen(&gObj[iWinnerIndex]);

  0018b	69 ff 64 15 00
	00		 imul	 edi, 5476		; 00001564H
  00191	8d 97 00 00 00
	00		 lea	 edx, DWORD PTR ?gObj@@3PAUOBJECTSTRUCT@@A[edi]
  00197	52		 push	 edx
  00198	e8 00 00 00 00	 call	 ?RingEventItemBoxOpen@@YAXPAUOBJECTSTRUCT@@@Z ; RingEventItemBoxOpen

; 2809 : 				LogAdd(LOG_BLACK, "[Chaos Castle] (%d) [%s][%s] Winner Item - Lucky Box Item", iChaosCastleIndex+1,
; 2810 : 					gObj[iWinnerIndex].AccountID, gObj[iWinnerIndex].Name);

  0019d	8d 87 6f 00 00
	00		 lea	 eax, DWORD PTR ?gObj@@3PAUOBJECTSTRUCT@@A[edi+111]
  001a3	50		 push	 eax
  001a4	8d 8f 64 00 00
	00		 lea	 ecx, DWORD PTR ?gObj@@3PAUOBJECTSTRUCT@@A[edi+100]
  001aa	51		 push	 ecx
  001ab	6a 01		 push	 1
  001ad	68 00 00 00 00	 push	 OFFSET ??_C@_0DK@DHDNPFMP@?$FLChaos?5Castle?$FN?5?$CI?$CFd?$CJ?5?$FL?$CFs?$FN?$FL?$CFs?$FN?5Win@
  001b2	6a 00		 push	 0
  001b4	e8 00 00 00 00	 call	 ?LogAdd@@YAXW4eLogColor@@PADZZ ; LogAdd
  001b9	83 c4 18	 add	 esp, 24			; 00000018H
$LN25@GiveWinner:
  001bc	5b		 pop	 ebx
$LN24@GiveWinner:
  001bd	5f		 pop	 edi
$LN3@GiveWinner:
  001be	5e		 pop	 esi

; 2824 : }

  001bf	5d		 pop	 ebp
  001c0	c2 08 00	 ret	 8
?GiveWinnerItem@CChaosCastle@@QAEXHH@Z ENDP		; CChaosCastle::GiveWinnerItem
_TEXT	ENDS
PUBLIC	?ReCalcUserCount@CChaosCastle@@QAEHH@Z		; CChaosCastle::ReCalcUserCount
; Function compile flags: /Ogtp
;	COMDAT ?ReCalcUserCount@CChaosCastle@@QAEHH@Z
_TEXT	SEGMENT
_iChaosCastleIndex$ = 8					; size = 4
?ReCalcUserCount@CChaosCastle@@QAEHH@Z PROC		; CChaosCastle::ReCalcUserCount, COMDAT
; _this$ = ecx

; 2827 : {

  00000	55		 push	 ebp
  00001	8b ec		 mov	 ebp, esp
  00003	56		 push	 esi

; 2828 : 	if ( CC_FLOOR_RANGE(iChaosCastleIndex) == FALSE )

  00004	8b 75 08	 mov	 esi, DWORD PTR _iChaosCastleIndex$[ebp]
  00007	57		 push	 edi
  00008	8b f9		 mov	 edi, ecx
  0000a	85 f6		 test	 esi, esi
  0000c	78 0c		 js	 SHORT $LN8@ReCalcUser
  0000e	33 c0		 xor	 eax, eax
  00010	83 fe 05	 cmp	 esi, 5
  00013	0f 9e c0	 setle	 al
  00016	85 c0		 test	 eax, eax
  00018	75 09		 jne	 SHORT $LN3@ReCalcUser
$LN8@ReCalcUser:
  0001a	5f		 pop	 edi

; 2829 : 		return -1;

  0001b	83 c8 ff	 or	 eax, -1
  0001e	5e		 pop	 esi

; 2843 : 	}
; 2844 : 	return iRET_VAL;
; 2845 : }

  0001f	5d		 pop	 ebp
  00020	c2 04 00	 ret	 4
$LN3@ReCalcUser:

; 2830 : 
; 2831 : 	int iRET_VAL = 0;
; 2832 : 	int iPlayUser = this->GetCurPlayUser(iChaosCastleIndex);

  00023	56		 push	 esi
  00024	e8 00 00 00 00	 call	 ?GetCurPlayUser@CChaosCastle@@QAEHH@Z ; CChaosCastle::GetCurPlayUser

; 2833 : 
; 2834 : 	if ( iPlayUser > 0 )
; 2835 : 	{
; 2836 : 		this->m_stChaosCastleData[iChaosCastleIndex].m_iCC_ENTERED_USER = iPlayUser;

  00029	69 f6 6c 08 00
	00		 imul	 esi, 2156		; 0000086cH
  0002f	85 c0		 test	 eax, eax
  00031	7e 0a		 jle	 SHORT $LN2@ReCalcUser
  00033	89 44 3e 54	 mov	 DWORD PTR [esi+edi+84], eax
  00037	5f		 pop	 edi
  00038	5e		 pop	 esi

; 2843 : 	}
; 2844 : 	return iRET_VAL;
; 2845 : }

  00039	5d		 pop	 ebp
  0003a	c2 04 00	 ret	 4
$LN2@ReCalcUser:

; 2837 : 		iRET_VAL = iPlayUser;
; 2838 : 	}
; 2839 : 	else
; 2840 : 	{
; 2841 : 		this->m_stChaosCastleData[iChaosCastleIndex].m_iCC_ENTERED_USER = 0;

  0003d	c7 44 3e 54 00
	00 00 00	 mov	 DWORD PTR [esi+edi+84], 0
  00045	5f		 pop	 edi

; 2842 : 		iRET_VAL = 0;

  00046	33 c0		 xor	 eax, eax
  00048	5e		 pop	 esi

; 2843 : 	}
; 2844 : 	return iRET_VAL;
; 2845 : }

  00049	5d		 pop	 ebp
  0004a	c2 04 00	 ret	 4
?ReCalcUserCount@CChaosCastle@@QAEHH@Z ENDP		; CChaosCastle::ReCalcUserCount
_TEXT	ENDS
PUBLIC	?CheckRegisterOfflineGift@CChaosCastle@@QAEXH@Z	; CChaosCastle::CheckRegisterOfflineGift
EXTRN	?EGReqRegCCOfflineGift@@YAXH@Z:PROC		; EGReqRegCCOfflineGift
; Function compile flags: /Ogtp
;	COMDAT ?CheckRegisterOfflineGift@CChaosCastle@@QAEXH@Z
_TEXT	SEGMENT
_iUserIndex$ = 8					; size = 4
?CheckRegisterOfflineGift@CChaosCastle@@QAEXH@Z PROC	; CChaosCastle::CheckRegisterOfflineGift, COMDAT
; _this$ = ecx

; 2931 : {

  00000	55		 push	 ebp
  00001	8b ec		 mov	 ebp, esp
  00003	56		 push	 esi

; 2932 : 	if ( gObjIsConnected(iUserIndex) == FALSE )

  00004	8b 75 08	 mov	 esi, DWORD PTR _iUserIndex$[ebp]
  00007	56		 push	 esi
  00008	e8 00 00 00 00	 call	 ?gObjIsConnected@@YAHH@Z ; gObjIsConnected
  0000d	83 c4 04	 add	 esp, 4
  00010	85 c0		 test	 eax, eax
  00012	74 1e		 je	 SHORT $LN1@CheckRegis

; 2933 : 	{
; 2934 : 		return;
; 2935 : 	}
; 2936 : 
; 2937 : 	int iGiftRate = rand() % 10000;

  00014	e8 00 00 00 00	 call	 _rand
  00019	99		 cdq
  0001a	b9 10 27 00 00	 mov	 ecx, 10000		; 00002710H
  0001f	f7 f9		 idiv	 ecx

; 2938 : 
; 2939 : 	if ( iGiftRate < ::g_iChaosCastle_OffLineGiftRate )

  00021	3b 15 00 00 00
	00		 cmp	 edx, DWORD PTR ?g_iChaosCastle_OffLineGiftRate@@3HA ; g_iChaosCastle_OffLineGiftRate
  00027	7d 09		 jge	 SHORT $LN1@CheckRegis

; 2940 : 	{
; 2941 : 		EGReqRegCCOfflineGift(iUserIndex);

  00029	56		 push	 esi
  0002a	e8 00 00 00 00	 call	 ?EGReqRegCCOfflineGift@@YAXH@Z ; EGReqRegCCOfflineGift
  0002f	83 c4 04	 add	 esp, 4
$LN1@CheckRegis:
  00032	5e		 pop	 esi

; 2942 : 	}
; 2943 : }

  00033	5d		 pop	 ebp
  00034	c2 04 00	 ret	 4
?CheckRegisterOfflineGift@CChaosCastle@@QAEXH@Z ENDP	; CChaosCastle::CheckRegisterOfflineGift
_TEXT	ENDS
PUBLIC	?empty@?$vector@UCHAOSCASTLE_START_TIME@@V?$allocator@UCHAOSCASTLE_START_TIME@@@std@@@std@@QBE_NXZ ; std::vector<CHAOSCASTLE_START_TIME,std::allocator<CHAOSCASTLE_START_TIME> >::empty
; Function compile flags: /Ogtp
; File c:\program files (x86)\microsoft visual studio 10.0\vc\include\vector
;	COMDAT ?empty@?$vector@UCHAOSCASTLE_START_TIME@@V?$allocator@UCHAOSCASTLE_START_TIME@@@std@@@std@@QBE_NXZ
_TEXT	SEGMENT
?empty@?$vector@UCHAOSCASTLE_START_TIME@@V?$allocator@UCHAOSCASTLE_START_TIME@@@std@@@std@@QBE_NXZ PROC ; std::vector<CHAOSCASTLE_START_TIME,std::allocator<CHAOSCASTLE_START_TIME> >::empty, COMDAT
; _this$ = ecx

; 889  : 		return (this->_Myfirst == this->_Mylast);

  00000	8b 01		 mov	 eax, DWORD PTR [ecx]
  00002	33 d2		 xor	 edx, edx
  00004	3b 41 04	 cmp	 eax, DWORD PTR [ecx+4]
  00007	0f 94 c0	 sete	 al

; 890  : 		}

  0000a	c3		 ret	 0
?empty@?$vector@UCHAOSCASTLE_START_TIME@@V?$allocator@UCHAOSCASTLE_START_TIME@@@std@@@std@@QBE_NXZ ENDP ; std::vector<CHAOSCASTLE_START_TIME,std::allocator<CHAOSCASTLE_START_TIME> >::empty
_TEXT	ENDS
PUBLIC	?empty@?$vector@UtagPOINT@@V?$allocator@UtagPOINT@@@std@@@std@@QBE_NXZ ; std::vector<tagPOINT,std::allocator<tagPOINT> >::empty
; Function compile flags: /Ogtp
;	COMDAT ?empty@?$vector@UtagPOINT@@V?$allocator@UtagPOINT@@@std@@@std@@QBE_NXZ
_TEXT	SEGMENT
?empty@?$vector@UtagPOINT@@V?$allocator@UtagPOINT@@@std@@@std@@QBE_NXZ PROC ; std::vector<tagPOINT,std::allocator<tagPOINT> >::empty, COMDAT
; _this$ = ecx

; 889  : 		return (this->_Myfirst == this->_Mylast);

  00000	8b 01		 mov	 eax, DWORD PTR [ecx]
  00002	33 d2		 xor	 edx, edx
  00004	3b 41 04	 cmp	 eax, DWORD PTR [ecx+4]
  00007	0f 94 c0	 sete	 al

; 890  : 		}

  0000a	c3		 ret	 0
?empty@?$vector@UtagPOINT@@V?$allocator@UtagPOINT@@@std@@@std@@QBE_NXZ ENDP ; std::vector<tagPOINT,std::allocator<tagPOINT> >::empty
_TEXT	ENDS
PUBLIC	??8?$_Tree_const_iterator@V?$_Tree_val@V?$_Tmap_traits@HU_MONSTER_ITEM_DROP@@U?$less@H@std@@V?$allocator@U?$pair@$$CBHU_MONSTER_ITEM_DROP@@@std@@@3@$0A@@std@@@std@@@std@@QBE_NABV01@@Z ; std::_Tree_const_iterator<std::_Tree_val<std::_Tmap_traits<int,_MONSTER_ITEM_DROP,std::less<int>,std::allocator<std::pair<int const ,_MONSTER_ITEM_DROP> >,0> > >::operator==
; Function compile flags: /Ogtp
; File c:\program files (x86)\microsoft visual studio 10.0\vc\include\xtree
;	COMDAT ??8?$_Tree_const_iterator@V?$_Tree_val@V?$_Tmap_traits@HU_MONSTER_ITEM_DROP@@U?$less@H@std@@V?$allocator@U?$pair@$$CBHU_MONSTER_ITEM_DROP@@@std@@@3@$0A@@std@@@std@@@std@@QBE_NABV01@@Z
_TEXT	SEGMENT
__Right$ = 8						; size = 4
??8?$_Tree_const_iterator@V?$_Tree_val@V?$_Tmap_traits@HU_MONSTER_ITEM_DROP@@U?$less@H@std@@V?$allocator@U?$pair@$$CBHU_MONSTER_ITEM_DROP@@@std@@@3@$0A@@std@@@std@@@std@@QBE_NABV01@@Z PROC ; std::_Tree_const_iterator<std::_Tree_val<std::_Tmap_traits<int,_MONSTER_ITEM_DROP,std::less<int>,std::allocator<std::pair<int const ,_MONSTER_ITEM_DROP> >,0> > >::operator==, COMDAT
; _this$ = ecx

; 316  : 		{	// test for iterator equality

  00000	55		 push	 ebp
  00001	8b ec		 mov	 ebp, esp

; 317  :  #if _ITERATOR_DEBUG_LEVEL == 2
; 318  : 		if (this->_Getcont() == 0
; 319  : 			|| this->_Getcont() != _Right._Getcont())
; 320  : 			{	// report error
; 321  : 			_DEBUG_ERROR("map/set iterators incompatible");
; 322  : 			_SCL_SECURE_INVALID_ARGUMENT;
; 323  : 			}
; 324  : 
; 325  :  #elif _ITERATOR_DEBUG_LEVEL == 1
; 326  : 		_SCL_SECURE_VALIDATE(this->_Getcont() != 0
; 327  : 			&& this->_Getcont() == _Right._Getcont());
; 328  :  #endif /* _ITERATOR_DEBUG_LEVEL */
; 329  : 
; 330  : 		return (this->_Ptr == _Right._Ptr);

  00003	8b 01		 mov	 eax, DWORD PTR [ecx]
  00005	8b 55 08	 mov	 edx, DWORD PTR __Right$[ebp]
  00008	33 c9		 xor	 ecx, ecx
  0000a	3b 02		 cmp	 eax, DWORD PTR [edx]
  0000c	0f 94 c0	 sete	 al

; 331  : 		}

  0000f	5d		 pop	 ebp
  00010	c2 04 00	 ret	 4
??8?$_Tree_const_iterator@V?$_Tree_val@V?$_Tmap_traits@HU_MONSTER_ITEM_DROP@@U?$less@H@std@@V?$allocator@U?$pair@$$CBHU_MONSTER_ITEM_DROP@@@std@@@3@$0A@@std@@@std@@@std@@QBE_NABV01@@Z ENDP ; std::_Tree_const_iterator<std::_Tree_val<std::_Tmap_traits<int,_MONSTER_ITEM_DROP,std::less<int>,std::allocator<std::pair<int const ,_MONSTER_ITEM_DROP> >,0> > >::operator==
_TEXT	ENDS
PUBLIC	?size@?$vector@HV?$allocator@H@std@@@std@@QBEIXZ ; std::vector<int,std::allocator<int> >::size
; Function compile flags: /Ogtp
; File c:\program files (x86)\microsoft visual studio 10.0\vc\include\vector
;	COMDAT ?size@?$vector@HV?$allocator@H@std@@@std@@QBEIXZ
_TEXT	SEGMENT
?size@?$vector@HV?$allocator@H@std@@@std@@QBEIXZ PROC	; std::vector<int,std::allocator<int> >::size, COMDAT
; _this$ = ecx

; 879  : 		return (this->_Mylast - this->_Myfirst);

  00000	8b 41 04	 mov	 eax, DWORD PTR [ecx+4]
  00003	2b 01		 sub	 eax, DWORD PTR [ecx]
  00005	c1 f8 02	 sar	 eax, 2

; 880  : 		}

  00008	c3		 ret	 0
?size@?$vector@HV?$allocator@H@std@@@std@@QBEIXZ ENDP	; std::vector<int,std::allocator<int> >::size
_TEXT	ENDS
PUBLIC	??A?$vector@HV?$allocator@H@std@@@std@@QAEAAHI@Z ; std::vector<int,std::allocator<int> >::operator[]
; Function compile flags: /Ogtp
;	COMDAT ??A?$vector@HV?$allocator@H@std@@@std@@QAEAAHI@Z
_TEXT	SEGMENT
__Pos$ = 8						; size = 4
??A?$vector@HV?$allocator@H@std@@@std@@QAEAAHI@Z PROC	; std::vector<int,std::allocator<int> >::operator[], COMDAT
; _this$ = ecx

; 928  : 		{	// subscript mutable sequence

  00000	55		 push	 ebp
  00001	8b ec		 mov	 ebp, esp

; 929  :  #if _ITERATOR_DEBUG_LEVEL == 2
; 930  : 		if (size() <= _Pos)
; 931  : 			{	// report error
; 932  : 			_DEBUG_ERROR("vector subscript out of range");
; 933  : 			_SCL_SECURE_OUT_OF_RANGE;
; 934  : 			}
; 935  : 
; 936  :  #elif _ITERATOR_DEBUG_LEVEL == 1
; 937  : 		_SCL_SECURE_VALIDATE_RANGE(_Pos < size());
; 938  :  #endif /* _ITERATOR_DEBUG_LEVEL */
; 939  : 
; 940  : 		return (*(this->_Myfirst + _Pos));

  00003	8b 01		 mov	 eax, DWORD PTR [ecx]
  00005	8b 4d 08	 mov	 ecx, DWORD PTR __Pos$[ebp]
  00008	8d 04 88	 lea	 eax, DWORD PTR [eax+ecx*4]

; 941  : 		}

  0000b	5d		 pop	 ebp
  0000c	c2 04 00	 ret	 4
??A?$vector@HV?$allocator@H@std@@@std@@QAEAAHI@Z ENDP	; std::vector<int,std::allocator<int> >::operator[]
_TEXT	ENDS
PUBLIC	??R?$less@H@std@@QBE_NABH0@Z			; std::less<int>::operator()
; Function compile flags: /Ogtp
; File c:\program files (x86)\microsoft visual studio 10.0\vc\include\xfunctional
;	COMDAT ??R?$less@H@std@@QBE_NABH0@Z
_TEXT	SEGMENT
__Left$ = 8						; size = 4
__Right$ = 12						; size = 4
??R?$less@H@std@@QBE_NABH0@Z PROC			; std::less<int>::operator(), COMDAT
; _this$ = ecx

; 124  : 		{	// apply operator< to operands

  00000	55		 push	 ebp
  00001	8b ec		 mov	 ebp, esp

; 125  : 		return (_Left < _Right);

  00003	8b 45 08	 mov	 eax, DWORD PTR __Left$[ebp]
  00006	8b 08		 mov	 ecx, DWORD PTR [eax]
  00008	8b 55 0c	 mov	 edx, DWORD PTR __Right$[ebp]
  0000b	33 c0		 xor	 eax, eax
  0000d	3b 0a		 cmp	 ecx, DWORD PTR [edx]
  0000f	0f 9c c0	 setl	 al

; 126  : 		}

  00012	5d		 pop	 ebp
  00013	c2 08 00	 ret	 8
??R?$less@H@std@@QBE_NABH0@Z ENDP			; std::less<int>::operator()
_TEXT	ENDS
PUBLIC	??0?$allocator@U?$pair@$$CBHU_MONSTER_ITEM_DROP@@@std@@@std@@QAE@XZ ; std::allocator<std::pair<int const ,_MONSTER_ITEM_DROP> >::allocator<std::pair<int const ,_MONSTER_ITEM_DROP> >
; Function compile flags: /Ogtp
; File c:\program files (x86)\microsoft visual studio 10.0\vc\include\xmemory
;	COMDAT ??0?$allocator@U?$pair@$$CBHU_MONSTER_ITEM_DROP@@@std@@@std@@QAE@XZ
_TEXT	SEGMENT
??0?$allocator@U?$pair@$$CBHU_MONSTER_ITEM_DROP@@@std@@@std@@QAE@XZ PROC ; std::allocator<std::pair<int const ,_MONSTER_ITEM_DROP> >::allocator<std::pair<int const ,_MONSTER_ITEM_DROP> >, COMDAT
; _this$ = ecx

; 161  : 	_ALLOCATOR() _THROW0()

  00000	8b c1		 mov	 eax, ecx

; 162  : 		{	// construct default allocator (do nothing)
; 163  : 		}

  00002	c3		 ret	 0
??0?$allocator@U?$pair@$$CBHU_MONSTER_ITEM_DROP@@@std@@@std@@QAE@XZ ENDP ; std::allocator<std::pair<int const ,_MONSTER_ITEM_DROP> >::allocator<std::pair<int const ,_MONSTER_ITEM_DROP> >
_TEXT	ENDS
PUBLIC	?_Inside@?$vector@UCHAOSCASTLE_START_TIME@@V?$allocator@UCHAOSCASTLE_START_TIME@@@std@@@std@@IBE_NPBUCHAOSCASTLE_START_TIME@@@Z ; std::vector<CHAOSCASTLE_START_TIME,std::allocator<CHAOSCASTLE_START_TIME> >::_Inside
; Function compile flags: /Ogtp
; File c:\program files (x86)\microsoft visual studio 10.0\vc\include\vector
;	COMDAT ?_Inside@?$vector@UCHAOSCASTLE_START_TIME@@V?$allocator@UCHAOSCASTLE_START_TIME@@@std@@@std@@IBE_NPBUCHAOSCASTLE_START_TIME@@@Z
_TEXT	SEGMENT
__Ptr$ = 8						; size = 4
?_Inside@?$vector@UCHAOSCASTLE_START_TIME@@V?$allocator@UCHAOSCASTLE_START_TIME@@@std@@@std@@IBE_NPBUCHAOSCASTLE_START_TIME@@@Z PROC ; std::vector<CHAOSCASTLE_START_TIME,std::allocator<CHAOSCASTLE_START_TIME> >::_Inside, COMDAT
; _this$ = ecx

; 1285 : 		{	// test if _Ptr points inside vector

  00000	55		 push	 ebp
  00001	8b ec		 mov	 ebp, esp

; 1286 : 		return (_Ptr < this->_Mylast && this->_Myfirst <= _Ptr);

  00003	8b 45 08	 mov	 eax, DWORD PTR __Ptr$[ebp]
  00006	3b 41 04	 cmp	 eax, DWORD PTR [ecx+4]
  00009	73 0d		 jae	 SHORT $LN3@Inside
  0000b	39 01		 cmp	 DWORD PTR [ecx], eax
  0000d	77 09		 ja	 SHORT $LN3@Inside
  0000f	b8 01 00 00 00	 mov	 eax, 1

; 1287 : 		}

  00014	5d		 pop	 ebp
  00015	c2 04 00	 ret	 4
$LN3@Inside:

; 1286 : 		return (_Ptr < this->_Mylast && this->_Myfirst <= _Ptr);

  00018	33 c0		 xor	 eax, eax

; 1287 : 		}

  0001a	5d		 pop	 ebp
  0001b	c2 04 00	 ret	 4
?_Inside@?$vector@UCHAOSCASTLE_START_TIME@@V?$allocator@UCHAOSCASTLE_START_TIME@@@std@@@std@@IBE_NPBUCHAOSCASTLE_START_TIME@@@Z ENDP ; std::vector<CHAOSCASTLE_START_TIME,std::allocator<CHAOSCASTLE_START_TIME> >::_Inside
_TEXT	ENDS
PUBLIC	?_Orphan_range@?$vector@UCHAOSCASTLE_START_TIME@@V?$allocator@UCHAOSCASTLE_START_TIME@@@std@@@std@@IBEXPAUCHAOSCASTLE_START_TIME@@0@Z ; std::vector<CHAOSCASTLE_START_TIME,std::allocator<CHAOSCASTLE_START_TIME> >::_Orphan_range
; Function compile flags: /Ogtp
;	COMDAT ?_Orphan_range@?$vector@UCHAOSCASTLE_START_TIME@@V?$allocator@UCHAOSCASTLE_START_TIME@@@std@@@std@@IBEXPAUCHAOSCASTLE_START_TIME@@0@Z
_TEXT	SEGMENT
___formal$ = 8						; size = 4
___formal$ = 12						; size = 4
?_Orphan_range@?$vector@UCHAOSCASTLE_START_TIME@@V?$allocator@UCHAOSCASTLE_START_TIME@@@std@@@std@@IBEXPAUCHAOSCASTLE_START_TIME@@0@Z PROC ; std::vector<CHAOSCASTLE_START_TIME,std::allocator<CHAOSCASTLE_START_TIME> >::_Orphan_range, COMDAT
; _this$ = ecx

; 1454 : 		}

  00000	c2 08 00	 ret	 8
?_Orphan_range@?$vector@UCHAOSCASTLE_START_TIME@@V?$allocator@UCHAOSCASTLE_START_TIME@@@std@@@std@@IBEXPAUCHAOSCASTLE_START_TIME@@0@Z ENDP ; std::vector<CHAOSCASTLE_START_TIME,std::allocator<CHAOSCASTLE_START_TIME> >::_Orphan_range
_TEXT	ENDS
PUBLIC	??1?$_Vector_val@UCHAOSCASTLE_START_TIME@@V?$allocator@UCHAOSCASTLE_START_TIME@@@std@@@std@@QAE@XZ ; std::_Vector_val<CHAOSCASTLE_START_TIME,std::allocator<CHAOSCASTLE_START_TIME> >::~_Vector_val<CHAOSCASTLE_START_TIME,std::allocator<CHAOSCASTLE_START_TIME> >
; Function compile flags: /Ogtp
;	COMDAT ??1?$_Vector_val@UCHAOSCASTLE_START_TIME@@V?$allocator@UCHAOSCASTLE_START_TIME@@@std@@@std@@QAE@XZ
_TEXT	SEGMENT
??1?$_Vector_val@UCHAOSCASTLE_START_TIME@@V?$allocator@UCHAOSCASTLE_START_TIME@@@std@@@std@@QAE@XZ PROC ; std::_Vector_val<CHAOSCASTLE_START_TIME,std::allocator<CHAOSCASTLE_START_TIME> >::~_Vector_val<CHAOSCASTLE_START_TIME,std::allocator<CHAOSCASTLE_START_TIME> >, COMDAT
; _this$ = ecx

; 434  : 		}

  00000	c3		 ret	 0
??1?$_Vector_val@UCHAOSCASTLE_START_TIME@@V?$allocator@UCHAOSCASTLE_START_TIME@@@std@@@std@@QAE@XZ ENDP ; std::_Vector_val<CHAOSCASTLE_START_TIME,std::allocator<CHAOSCASTLE_START_TIME> >::~_Vector_val<CHAOSCASTLE_START_TIME,std::allocator<CHAOSCASTLE_START_TIME> >
_TEXT	ENDS
PUBLIC	??0?$allocator@UCHAOSCASTLE_START_TIME@@@std@@QAE@XZ ; std::allocator<CHAOSCASTLE_START_TIME>::allocator<CHAOSCASTLE_START_TIME>
; Function compile flags: /Ogtp
; File c:\program files (x86)\microsoft visual studio 10.0\vc\include\xmemory
;	COMDAT ??0?$allocator@UCHAOSCASTLE_START_TIME@@@std@@QAE@XZ
_TEXT	SEGMENT
??0?$allocator@UCHAOSCASTLE_START_TIME@@@std@@QAE@XZ PROC ; std::allocator<CHAOSCASTLE_START_TIME>::allocator<CHAOSCASTLE_START_TIME>, COMDAT
; _this$ = ecx

; 161  : 	_ALLOCATOR() _THROW0()

  00000	8b c1		 mov	 eax, ecx

; 162  : 		{	// construct default allocator (do nothing)
; 163  : 		}

  00002	c3		 ret	 0
??0?$allocator@UCHAOSCASTLE_START_TIME@@@std@@QAE@XZ ENDP ; std::allocator<CHAOSCASTLE_START_TIME>::allocator<CHAOSCASTLE_START_TIME>
_TEXT	ENDS
PUBLIC	??0?$_Vector_const_iterator@V?$_Vector_val@UCHAOSCASTLE_START_TIME@@V?$allocator@UCHAOSCASTLE_START_TIME@@@std@@@std@@@std@@QAE@XZ ; std::_Vector_const_iterator<std::_Vector_val<CHAOSCASTLE_START_TIME,std::allocator<CHAOSCASTLE_START_TIME> > >::_Vector_const_iterator<std::_Vector_val<CHAOSCASTLE_START_TIME,std::allocator<CHAOSCASTLE_START_TIME> > >
; Function compile flags: /Ogtp
; File c:\program files (x86)\microsoft visual studio 10.0\vc\include\vector
;	COMDAT ??0?$_Vector_const_iterator@V?$_Vector_val@UCHAOSCASTLE_START_TIME@@V?$allocator@UCHAOSCASTLE_START_TIME@@@std@@@std@@@std@@QAE@XZ
_TEXT	SEGMENT
??0?$_Vector_const_iterator@V?$_Vector_val@UCHAOSCASTLE_START_TIME@@V?$allocator@UCHAOSCASTLE_START_TIME@@@std@@@std@@@std@@QAE@XZ PROC ; std::_Vector_const_iterator<std::_Vector_val<CHAOSCASTLE_START_TIME,std::allocator<CHAOSCASTLE_START_TIME> > >::_Vector_const_iterator<std::_Vector_val<CHAOSCASTLE_START_TIME,std::allocator<CHAOSCASTLE_START_TIME> > >, COMDAT
; _this$ = ecx

; 40   : 		{	// construct with null pointer

  00000	8b c1		 mov	 eax, ecx
  00002	c7 00 00 00 00
	00		 mov	 DWORD PTR [eax], 0

; 41   : 		}

  00008	c3		 ret	 0
??0?$_Vector_const_iterator@V?$_Vector_val@UCHAOSCASTLE_START_TIME@@V?$allocator@UCHAOSCASTLE_START_TIME@@@std@@@std@@@std@@QAE@XZ ENDP ; std::_Vector_const_iterator<std::_Vector_val<CHAOSCASTLE_START_TIME,std::allocator<CHAOSCASTLE_START_TIME> > >::_Vector_const_iterator<std::_Vector_val<CHAOSCASTLE_START_TIME,std::allocator<CHAOSCASTLE_START_TIME> > >
_TEXT	ENDS
PUBLIC	??D?$_Vector_const_iterator@V?$_Vector_val@UCHAOSCASTLE_START_TIME@@V?$allocator@UCHAOSCASTLE_START_TIME@@@std@@@std@@@std@@QBEABUCHAOSCASTLE_START_TIME@@XZ ; std::_Vector_const_iterator<std::_Vector_val<CHAOSCASTLE_START_TIME,std::allocator<CHAOSCASTLE_START_TIME> > >::operator*
; Function compile flags: /Ogtp
;	COMDAT ??D?$_Vector_const_iterator@V?$_Vector_val@UCHAOSCASTLE_START_TIME@@V?$allocator@UCHAOSCASTLE_START_TIME@@@std@@@std@@@std@@QBEABUCHAOSCASTLE_START_TIME@@XZ
_TEXT	SEGMENT
??D?$_Vector_const_iterator@V?$_Vector_val@UCHAOSCASTLE_START_TIME@@V?$allocator@UCHAOSCASTLE_START_TIME@@@std@@@std@@@std@@QBEABUCHAOSCASTLE_START_TIME@@XZ PROC ; std::_Vector_const_iterator<std::_Vector_val<CHAOSCASTLE_START_TIME,std::allocator<CHAOSCASTLE_START_TIME> > >::operator*, COMDAT
; _this$ = ecx

; 64   :  #if _ITERATOR_DEBUG_LEVEL == 2
; 65   : 		if (this->_Getcont() == 0
; 66   : 			|| this->_Ptr == 0
; 67   : 			|| this->_Ptr < ((_Myvec *)this->_Getcont())->_Myfirst
; 68   : 			|| ((_Myvec *)this->_Getcont())->_Mylast <= this->_Ptr)
; 69   : 			{	// report error
; 70   : 			_DEBUG_ERROR("vector iterator not dereferencable");
; 71   : 			_SCL_SECURE_OUT_OF_RANGE;
; 72   : 			}
; 73   : 
; 74   :  #elif _ITERATOR_DEBUG_LEVEL == 1
; 75   : 		_SCL_SECURE_VALIDATE(this->_Getcont() != 0);
; 76   : 		_SCL_SECURE_VALIDATE_RANGE(
; 77   : 			this->_Ptr != 0
; 78   : 			&& ((_Myvec *)this->_Getcont())->_Myfirst <= this->_Ptr
; 79   : 			&& this->_Ptr < ((_Myvec *)this->_Getcont())->_Mylast);
; 80   :  #endif /* _ITERATOR_DEBUG_LEVEL */
; 81   : 
; 82   : 		__analysis_assume(this->_Ptr != 0);
; 83   : 
; 84   : 		return (*this->_Ptr);

  00000	8b 01		 mov	 eax, DWORD PTR [ecx]

; 85   : 		}

  00002	c3		 ret	 0
??D?$_Vector_const_iterator@V?$_Vector_val@UCHAOSCASTLE_START_TIME@@V?$allocator@UCHAOSCASTLE_START_TIME@@@std@@@std@@@std@@QBEABUCHAOSCASTLE_START_TIME@@XZ ENDP ; std::_Vector_const_iterator<std::_Vector_val<CHAOSCASTLE_START_TIME,std::allocator<CHAOSCASTLE_START_TIME> > >::operator*
_TEXT	ENDS
PUBLIC	?_Inside@?$vector@UtagPOINT@@V?$allocator@UtagPOINT@@@std@@@std@@IBE_NPBUtagPOINT@@@Z ; std::vector<tagPOINT,std::allocator<tagPOINT> >::_Inside
; Function compile flags: /Ogtp
;	COMDAT ?_Inside@?$vector@UtagPOINT@@V?$allocator@UtagPOINT@@@std@@@std@@IBE_NPBUtagPOINT@@@Z
_TEXT	SEGMENT
__Ptr$ = 8						; size = 4
?_Inside@?$vector@UtagPOINT@@V?$allocator@UtagPOINT@@@std@@@std@@IBE_NPBUtagPOINT@@@Z PROC ; std::vector<tagPOINT,std::allocator<tagPOINT> >::_Inside, COMDAT
; _this$ = ecx

; 1285 : 		{	// test if _Ptr points inside vector

  00000	55		 push	 ebp
  00001	8b ec		 mov	 ebp, esp

; 1286 : 		return (_Ptr < this->_Mylast && this->_Myfirst <= _Ptr);

  00003	8b 45 08	 mov	 eax, DWORD PTR __Ptr$[ebp]
  00006	3b 41 04	 cmp	 eax, DWORD PTR [ecx+4]
  00009	73 0d		 jae	 SHORT $LN3@Inside@2
  0000b	39 01		 cmp	 DWORD PTR [ecx], eax
  0000d	77 09		 ja	 SHORT $LN3@Inside@2
  0000f	b8 01 00 00 00	 mov	 eax, 1

; 1287 : 		}

  00014	5d		 pop	 ebp
  00015	c2 04 00	 ret	 4
$LN3@Inside@2:

; 1286 : 		return (_Ptr < this->_Mylast && this->_Myfirst <= _Ptr);

  00018	33 c0		 xor	 eax, eax

; 1287 : 		}

  0001a	5d		 pop	 ebp
  0001b	c2 04 00	 ret	 4
?_Inside@?$vector@UtagPOINT@@V?$allocator@UtagPOINT@@@std@@@std@@IBE_NPBUtagPOINT@@@Z ENDP ; std::vector<tagPOINT,std::allocator<tagPOINT> >::_Inside
_TEXT	ENDS
PUBLIC	?_Orphan_range@?$vector@UtagPOINT@@V?$allocator@UtagPOINT@@@std@@@std@@IBEXPAUtagPOINT@@0@Z ; std::vector<tagPOINT,std::allocator<tagPOINT> >::_Orphan_range
; Function compile flags: /Ogtp
;	COMDAT ?_Orphan_range@?$vector@UtagPOINT@@V?$allocator@UtagPOINT@@@std@@@std@@IBEXPAUtagPOINT@@0@Z
_TEXT	SEGMENT
___formal$ = 8						; size = 4
___formal$ = 12						; size = 4
?_Orphan_range@?$vector@UtagPOINT@@V?$allocator@UtagPOINT@@@std@@@std@@IBEXPAUtagPOINT@@0@Z PROC ; std::vector<tagPOINT,std::allocator<tagPOINT> >::_Orphan_range, COMDAT
; _this$ = ecx

; 1454 : 		}

  00000	c2 08 00	 ret	 8
?_Orphan_range@?$vector@UtagPOINT@@V?$allocator@UtagPOINT@@@std@@@std@@IBEXPAUtagPOINT@@0@Z ENDP ; std::vector<tagPOINT,std::allocator<tagPOINT> >::_Orphan_range
_TEXT	ENDS
PUBLIC	??1?$_Vector_val@UtagPOINT@@V?$allocator@UtagPOINT@@@std@@@std@@QAE@XZ ; std::_Vector_val<tagPOINT,std::allocator<tagPOINT> >::~_Vector_val<tagPOINT,std::allocator<tagPOINT> >
; Function compile flags: /Ogtp
;	COMDAT ??1?$_Vector_val@UtagPOINT@@V?$allocator@UtagPOINT@@@std@@@std@@QAE@XZ
_TEXT	SEGMENT
??1?$_Vector_val@UtagPOINT@@V?$allocator@UtagPOINT@@@std@@@std@@QAE@XZ PROC ; std::_Vector_val<tagPOINT,std::allocator<tagPOINT> >::~_Vector_val<tagPOINT,std::allocator<tagPOINT> >, COMDAT
; _this$ = ecx

; 434  : 		}

  00000	c3		 ret	 0
??1?$_Vector_val@UtagPOINT@@V?$allocator@UtagPOINT@@@std@@@std@@QAE@XZ ENDP ; std::_Vector_val<tagPOINT,std::allocator<tagPOINT> >::~_Vector_val<tagPOINT,std::allocator<tagPOINT> >
_TEXT	ENDS
PUBLIC	??0?$allocator@UtagPOINT@@@std@@QAE@XZ		; std::allocator<tagPOINT>::allocator<tagPOINT>
; Function compile flags: /Ogtp
; File c:\program files (x86)\microsoft visual studio 10.0\vc\include\xmemory
;	COMDAT ??0?$allocator@UtagPOINT@@@std@@QAE@XZ
_TEXT	SEGMENT
??0?$allocator@UtagPOINT@@@std@@QAE@XZ PROC		; std::allocator<tagPOINT>::allocator<tagPOINT>, COMDAT
; _this$ = ecx

; 161  : 	_ALLOCATOR() _THROW0()

  00000	8b c1		 mov	 eax, ecx

; 162  : 		{	// construct default allocator (do nothing)
; 163  : 		}

  00002	c3		 ret	 0
??0?$allocator@UtagPOINT@@@std@@QAE@XZ ENDP		; std::allocator<tagPOINT>::allocator<tagPOINT>
_TEXT	ENDS
PUBLIC	?_Mynode@?$_Tree_unchecked_const_iterator@V?$_Tree_val@V?$_Tmap_traits@HU_MONSTER_ITEM_DROP@@U?$less@H@std@@V?$allocator@U?$pair@$$CBHU_MONSTER_ITEM_DROP@@@std@@@3@$0A@@std@@@std@@U_Iterator_base0@2@@std@@QBEPAU_Node@?$_Tree_nod@V?$_Tmap_traits@HU_MONSTER_ITEM_DROP@@U?$less@H@std@@V?$allocator@U?$pair@$$CBHU_MONSTER_ITEM_DROP@@@std@@@3@$0A@@std@@@2@XZ ; std::_Tree_unchecked_const_iterator<std::_Tree_val<std::_Tmap_traits<int,_MONSTER_ITEM_DROP,std::less<int>,std::allocator<std::pair<int const ,_MONSTER_ITEM_DROP> >,0> >,std::_Iterator_base0>::_Mynode
; Function compile flags: /Ogtp
; File c:\program files (x86)\microsoft visual studio 10.0\vc\include\xtree
;	COMDAT ?_Mynode@?$_Tree_unchecked_const_iterator@V?$_Tree_val@V?$_Tmap_traits@HU_MONSTER_ITEM_DROP@@U?$less@H@std@@V?$allocator@U?$pair@$$CBHU_MONSTER_ITEM_DROP@@@std@@@3@$0A@@std@@@std@@U_Iterator_base0@2@@std@@QBEPAU_Node@?$_Tree_nod@V?$_Tmap_traits@HU_MONSTER_ITEM_DROP@@U?$less@H@std@@V?$allocator@U?$pair@$$CBHU_MONSTER_ITEM_DROP@@@std@@@3@$0A@@std@@@2@XZ
_TEXT	SEGMENT
?_Mynode@?$_Tree_unchecked_const_iterator@V?$_Tree_val@V?$_Tmap_traits@HU_MONSTER_ITEM_DROP@@U?$less@H@std@@V?$allocator@U?$pair@$$CBHU_MONSTER_ITEM_DROP@@@std@@@3@$0A@@std@@@std@@U_Iterator_base0@2@@std@@QBEPAU_Node@?$_Tree_nod@V?$_Tmap_traits@HU_MONSTER_ITEM_DROP@@U?$less@H@std@@V?$allocator@U?$pair@$$CBHU_MONSTER_ITEM_DROP@@@std@@@3@$0A@@std@@@2@XZ PROC ; std::_Tree_unchecked_const_iterator<std::_Tree_val<std::_Tmap_traits<int,_MONSTER_ITEM_DROP,std::less<int>,std::allocator<std::pair<int const ,_MONSTER_ITEM_DROP> >,0> >,std::_Iterator_base0>::_Mynode, COMDAT
; _this$ = ecx

; 122  : 		return (_Ptr);

  00000	8b 01		 mov	 eax, DWORD PTR [ecx]

; 123  : 		}

  00002	c3		 ret	 0
?_Mynode@?$_Tree_unchecked_const_iterator@V?$_Tree_val@V?$_Tmap_traits@HU_MONSTER_ITEM_DROP@@U?$less@H@std@@V?$allocator@U?$pair@$$CBHU_MONSTER_ITEM_DROP@@@std@@@3@$0A@@std@@@std@@U_Iterator_base0@2@@std@@QBEPAU_Node@?$_Tree_nod@V?$_Tmap_traits@HU_MONSTER_ITEM_DROP@@U?$less@H@std@@V?$allocator@U?$pair@$$CBHU_MONSTER_ITEM_DROP@@@std@@@3@$0A@@std@@@2@XZ ENDP ; std::_Tree_unchecked_const_iterator<std::_Tree_val<std::_Tmap_traits<int,_MONSTER_ITEM_DROP,std::less<int>,std::allocator<std::pair<int const ,_MONSTER_ITEM_DROP> >,0> >,std::_Iterator_base0>::_Mynode
_TEXT	ENDS
PUBLIC	?_Inside@?$vector@HV?$allocator@H@std@@@std@@IBE_NPBH@Z ; std::vector<int,std::allocator<int> >::_Inside
; Function compile flags: /Ogtp
; File c:\program files (x86)\microsoft visual studio 10.0\vc\include\vector
;	COMDAT ?_Inside@?$vector@HV?$allocator@H@std@@@std@@IBE_NPBH@Z
_TEXT	SEGMENT
__Ptr$ = 8						; size = 4
?_Inside@?$vector@HV?$allocator@H@std@@@std@@IBE_NPBH@Z PROC ; std::vector<int,std::allocator<int> >::_Inside, COMDAT
; _this$ = ecx

; 1285 : 		{	// test if _Ptr points inside vector

  00000	55		 push	 ebp
  00001	8b ec		 mov	 ebp, esp

; 1286 : 		return (_Ptr < this->_Mylast && this->_Myfirst <= _Ptr);

  00003	8b 45 08	 mov	 eax, DWORD PTR __Ptr$[ebp]
  00006	3b 41 04	 cmp	 eax, DWORD PTR [ecx+4]
  00009	73 0d		 jae	 SHORT $LN3@Inside@3
  0000b	39 01		 cmp	 DWORD PTR [ecx], eax
  0000d	77 09		 ja	 SHORT $LN3@Inside@3
  0000f	b8 01 00 00 00	 mov	 eax, 1

; 1287 : 		}

  00014	5d		 pop	 ebp
  00015	c2 04 00	 ret	 4
$LN3@Inside@3:

; 1286 : 		return (_Ptr < this->_Mylast && this->_Myfirst <= _Ptr);

  00018	33 c0		 xor	 eax, eax

; 1287 : 		}

  0001a	5d		 pop	 ebp
  0001b	c2 04 00	 ret	 4
?_Inside@?$vector@HV?$allocator@H@std@@@std@@IBE_NPBH@Z ENDP ; std::vector<int,std::allocator<int> >::_Inside
_TEXT	ENDS
PUBLIC	?_Orphan_range@?$vector@HV?$allocator@H@std@@@std@@IBEXPAH0@Z ; std::vector<int,std::allocator<int> >::_Orphan_range
; Function compile flags: /Ogtp
;	COMDAT ?_Orphan_range@?$vector@HV?$allocator@H@std@@@std@@IBEXPAH0@Z
_TEXT	SEGMENT
___formal$ = 8						; size = 4
___formal$ = 12						; size = 4
?_Orphan_range@?$vector@HV?$allocator@H@std@@@std@@IBEXPAH0@Z PROC ; std::vector<int,std::allocator<int> >::_Orphan_range, COMDAT
; _this$ = ecx

; 1454 : 		}

  00000	c2 08 00	 ret	 8
?_Orphan_range@?$vector@HV?$allocator@H@std@@@std@@IBEXPAH0@Z ENDP ; std::vector<int,std::allocator<int> >::_Orphan_range
_TEXT	ENDS
PUBLIC	??1?$_Vector_val@HV?$allocator@H@std@@@std@@QAE@XZ ; std::_Vector_val<int,std::allocator<int> >::~_Vector_val<int,std::allocator<int> >
; Function compile flags: /Ogtp
;	COMDAT ??1?$_Vector_val@HV?$allocator@H@std@@@std@@QAE@XZ
_TEXT	SEGMENT
??1?$_Vector_val@HV?$allocator@H@std@@@std@@QAE@XZ PROC	; std::_Vector_val<int,std::allocator<int> >::~_Vector_val<int,std::allocator<int> >, COMDAT
; _this$ = ecx

; 434  : 		}

  00000	c3		 ret	 0
??1?$_Vector_val@HV?$allocator@H@std@@@std@@QAE@XZ ENDP	; std::_Vector_val<int,std::allocator<int> >::~_Vector_val<int,std::allocator<int> >
_TEXT	ENDS
PUBLIC	??0?$allocator@H@std@@QAE@XZ			; std::allocator<int>::allocator<int>
; Function compile flags: /Ogtp
; File c:\program files (x86)\microsoft visual studio 10.0\vc\include\xmemory
;	COMDAT ??0?$allocator@H@std@@QAE@XZ
_TEXT	SEGMENT
??0?$allocator@H@std@@QAE@XZ PROC			; std::allocator<int>::allocator<int>, COMDAT
; _this$ = ecx

; 161  : 	_ALLOCATOR() _THROW0()

  00000	8b c1		 mov	 eax, ecx

; 162  : 		{	// construct default allocator (do nothing)
; 163  : 		}

  00002	c3		 ret	 0
??0?$allocator@H@std@@QAE@XZ ENDP			; std::allocator<int>::allocator<int>
_TEXT	ENDS
PUBLIC	?_Isnil@?$_Tree_val@V?$_Tmap_traits@HU_MONSTER_ITEM_DROP@@U?$less@H@std@@V?$allocator@U?$pair@$$CBHU_MONSTER_ITEM_DROP@@@std@@@3@$0A@@std@@@std@@SAAADPAU_Node@?$_Tree_nod@V?$_Tmap_traits@HU_MONSTER_ITEM_DROP@@U?$less@H@std@@V?$allocator@U?$pair@$$CBHU_MONSTER_ITEM_DROP@@@std@@@3@$0A@@std@@@2@@Z ; std::_Tree_val<std::_Tmap_traits<int,_MONSTER_ITEM_DROP,std::less<int>,std::allocator<std::pair<int const ,_MONSTER_ITEM_DROP> >,0> >::_Isnil
; Function compile flags: /Ogtp
; File c:\program files (x86)\microsoft visual studio 10.0\vc\include\xtree
;	COMDAT ?_Isnil@?$_Tree_val@V?$_Tmap_traits@HU_MONSTER_ITEM_DROP@@U?$less@H@std@@V?$allocator@U?$pair@$$CBHU_MONSTER_ITEM_DROP@@@std@@@3@$0A@@std@@@std@@SAAADPAU_Node@?$_Tree_nod@V?$_Tmap_traits@HU_MONSTER_ITEM_DROP@@U?$less@H@std@@V?$allocator@U?$pair@$$CBHU_MONSTER_ITEM_DROP@@@std@@@3@$0A@@std@@@2@@Z
_TEXT	SEGMENT
__Pnode$ = 8						; size = 4
?_Isnil@?$_Tree_val@V?$_Tmap_traits@HU_MONSTER_ITEM_DROP@@U?$less@H@std@@V?$allocator@U?$pair@$$CBHU_MONSTER_ITEM_DROP@@@std@@@3@$0A@@std@@@std@@SAAADPAU_Node@?$_Tree_nod@V?$_Tmap_traits@HU_MONSTER_ITEM_DROP@@U?$less@H@std@@V?$allocator@U?$pair@$$CBHU_MONSTER_ITEM_DROP@@@std@@@3@$0A@@std@@@2@@Z PROC ; std::_Tree_val<std::_Tmap_traits<int,_MONSTER_ITEM_DROP,std::less<int>,std::allocator<std::pair<int const ,_MONSTER_ITEM_DROP> >,0> >::_Isnil, COMDAT

; 611  : 		{	// return reference to nil flag in node

  00000	55		 push	 ebp
  00001	8b ec		 mov	 ebp, esp

; 612  : 		return ((char&)(*_Pnode)._Isnil);

  00003	8b 45 08	 mov	 eax, DWORD PTR __Pnode$[ebp]
  00006	83 c0 19	 add	 eax, 25			; 00000019H

; 613  : 		}

  00009	5d		 pop	 ebp
  0000a	c3		 ret	 0
?_Isnil@?$_Tree_val@V?$_Tmap_traits@HU_MONSTER_ITEM_DROP@@U?$less@H@std@@V?$allocator@U?$pair@$$CBHU_MONSTER_ITEM_DROP@@@std@@@3@$0A@@std@@@std@@SAAADPAU_Node@?$_Tree_nod@V?$_Tmap_traits@HU_MONSTER_ITEM_DROP@@U?$less@H@std@@V?$allocator@U?$pair@$$CBHU_MONSTER_ITEM_DROP@@@std@@@3@$0A@@std@@@2@@Z ENDP ; std::_Tree_val<std::_Tmap_traits<int,_MONSTER_ITEM_DROP,std::less<int>,std::allocator<std::pair<int const ,_MONSTER_ITEM_DROP> >,0> >::_Isnil
_TEXT	ENDS
PUBLIC	?_Left@?$_Tree_val@V?$_Tmap_traits@HU_MONSTER_ITEM_DROP@@U?$less@H@std@@V?$allocator@U?$pair@$$CBHU_MONSTER_ITEM_DROP@@@std@@@3@$0A@@std@@@std@@SAAAPAU_Node@?$_Tree_nod@V?$_Tmap_traits@HU_MONSTER_ITEM_DROP@@U?$less@H@std@@V?$allocator@U?$pair@$$CBHU_MONSTER_ITEM_DROP@@@std@@@3@$0A@@std@@@2@PAU342@@Z ; std::_Tree_val<std::_Tmap_traits<int,_MONSTER_ITEM_DROP,std::less<int>,std::allocator<std::pair<int const ,_MONSTER_ITEM_DROP> >,0> >::_Left
; Function compile flags: /Ogtp
;	COMDAT ?_Left@?$_Tree_val@V?$_Tmap_traits@HU_MONSTER_ITEM_DROP@@U?$less@H@std@@V?$allocator@U?$pair@$$CBHU_MONSTER_ITEM_DROP@@@std@@@3@$0A@@std@@@std@@SAAAPAU_Node@?$_Tree_nod@V?$_Tmap_traits@HU_MONSTER_ITEM_DROP@@U?$less@H@std@@V?$allocator@U?$pair@$$CBHU_MONSTER_ITEM_DROP@@@std@@@3@$0A@@std@@@2@PAU342@@Z
_TEXT	SEGMENT
__Pnode$ = 8						; size = 4
?_Left@?$_Tree_val@V?$_Tmap_traits@HU_MONSTER_ITEM_DROP@@U?$less@H@std@@V?$allocator@U?$pair@$$CBHU_MONSTER_ITEM_DROP@@@std@@@3@$0A@@std@@@std@@SAAAPAU_Node@?$_Tree_nod@V?$_Tmap_traits@HU_MONSTER_ITEM_DROP@@U?$less@H@std@@V?$allocator@U?$pair@$$CBHU_MONSTER_ITEM_DROP@@@std@@@3@$0A@@std@@@2@PAU342@@Z PROC ; std::_Tree_val<std::_Tmap_traits<int,_MONSTER_ITEM_DROP,std::less<int>,std::allocator<std::pair<int const ,_MONSTER_ITEM_DROP> >,0> >::_Left, COMDAT

; 621  : 		{	// return reference to left pointer in node

  00000	55		 push	 ebp
  00001	8b ec		 mov	 ebp, esp

; 622  : 		return ((_Nodepref)(*_Pnode)._Left);

  00003	8b 45 08	 mov	 eax, DWORD PTR __Pnode$[ebp]

; 623  : 		}

  00006	5d		 pop	 ebp
  00007	c3		 ret	 0
?_Left@?$_Tree_val@V?$_Tmap_traits@HU_MONSTER_ITEM_DROP@@U?$less@H@std@@V?$allocator@U?$pair@$$CBHU_MONSTER_ITEM_DROP@@@std@@@3@$0A@@std@@@std@@SAAAPAU_Node@?$_Tree_nod@V?$_Tmap_traits@HU_MONSTER_ITEM_DROP@@U?$less@H@std@@V?$allocator@U?$pair@$$CBHU_MONSTER_ITEM_DROP@@@std@@@3@$0A@@std@@@2@PAU342@@Z ENDP ; std::_Tree_val<std::_Tmap_traits<int,_MONSTER_ITEM_DROP,std::less<int>,std::allocator<std::pair<int const ,_MONSTER_ITEM_DROP> >,0> >::_Left
_TEXT	ENDS
PUBLIC	?_Parent@?$_Tree_val@V?$_Tmap_traits@HU_MONSTER_ITEM_DROP@@U?$less@H@std@@V?$allocator@U?$pair@$$CBHU_MONSTER_ITEM_DROP@@@std@@@3@$0A@@std@@@std@@SAAAPAU_Node@?$_Tree_nod@V?$_Tmap_traits@HU_MONSTER_ITEM_DROP@@U?$less@H@std@@V?$allocator@U?$pair@$$CBHU_MONSTER_ITEM_DROP@@@std@@@3@$0A@@std@@@2@PAU342@@Z ; std::_Tree_val<std::_Tmap_traits<int,_MONSTER_ITEM_DROP,std::less<int>,std::allocator<std::pair<int const ,_MONSTER_ITEM_DROP> >,0> >::_Parent
; Function compile flags: /Ogtp
;	COMDAT ?_Parent@?$_Tree_val@V?$_Tmap_traits@HU_MONSTER_ITEM_DROP@@U?$less@H@std@@V?$allocator@U?$pair@$$CBHU_MONSTER_ITEM_DROP@@@std@@@3@$0A@@std@@@std@@SAAAPAU_Node@?$_Tree_nod@V?$_Tmap_traits@HU_MONSTER_ITEM_DROP@@U?$less@H@std@@V?$allocator@U?$pair@$$CBHU_MONSTER_ITEM_DROP@@@std@@@3@$0A@@std@@@2@PAU342@@Z
_TEXT	SEGMENT
__Pnode$ = 8						; size = 4
?_Parent@?$_Tree_val@V?$_Tmap_traits@HU_MONSTER_ITEM_DROP@@U?$less@H@std@@V?$allocator@U?$pair@$$CBHU_MONSTER_ITEM_DROP@@@std@@@3@$0A@@std@@@std@@SAAAPAU_Node@?$_Tree_nod@V?$_Tmap_traits@HU_MONSTER_ITEM_DROP@@U?$less@H@std@@V?$allocator@U?$pair@$$CBHU_MONSTER_ITEM_DROP@@@std@@@3@$0A@@std@@@2@PAU342@@Z PROC ; std::_Tree_val<std::_Tmap_traits<int,_MONSTER_ITEM_DROP,std::less<int>,std::allocator<std::pair<int const ,_MONSTER_ITEM_DROP> >,0> >::_Parent, COMDAT

; 626  : 		{	// return reference to parent pointer in node

  00000	55		 push	 ebp
  00001	8b ec		 mov	 ebp, esp

; 627  : 		return ((_Nodepref)(*_Pnode)._Parent);

  00003	8b 45 08	 mov	 eax, DWORD PTR __Pnode$[ebp]
  00006	83 c0 04	 add	 eax, 4

; 628  : 		}

  00009	5d		 pop	 ebp
  0000a	c3		 ret	 0
?_Parent@?$_Tree_val@V?$_Tmap_traits@HU_MONSTER_ITEM_DROP@@U?$less@H@std@@V?$allocator@U?$pair@$$CBHU_MONSTER_ITEM_DROP@@@std@@@3@$0A@@std@@@std@@SAAAPAU_Node@?$_Tree_nod@V?$_Tmap_traits@HU_MONSTER_ITEM_DROP@@U?$less@H@std@@V?$allocator@U?$pair@$$CBHU_MONSTER_ITEM_DROP@@@std@@@3@$0A@@std@@@2@PAU342@@Z ENDP ; std::_Tree_val<std::_Tmap_traits<int,_MONSTER_ITEM_DROP,std::less<int>,std::allocator<std::pair<int const ,_MONSTER_ITEM_DROP> >,0> >::_Parent
_TEXT	ENDS
PUBLIC	?_Right@?$_Tree_val@V?$_Tmap_traits@HU_MONSTER_ITEM_DROP@@U?$less@H@std@@V?$allocator@U?$pair@$$CBHU_MONSTER_ITEM_DROP@@@std@@@3@$0A@@std@@@std@@SAAAPAU_Node@?$_Tree_nod@V?$_Tmap_traits@HU_MONSTER_ITEM_DROP@@U?$less@H@std@@V?$allocator@U?$pair@$$CBHU_MONSTER_ITEM_DROP@@@std@@@3@$0A@@std@@@2@PAU342@@Z ; std::_Tree_val<std::_Tmap_traits<int,_MONSTER_ITEM_DROP,std::less<int>,std::allocator<std::pair<int const ,_MONSTER_ITEM_DROP> >,0> >::_Right
; Function compile flags: /Ogtp
;	COMDAT ?_Right@?$_Tree_val@V?$_Tmap_traits@HU_MONSTER_ITEM_DROP@@U?$less@H@std@@V?$allocator@U?$pair@$$CBHU_MONSTER_ITEM_DROP@@@std@@@3@$0A@@std@@@std@@SAAAPAU_Node@?$_Tree_nod@V?$_Tmap_traits@HU_MONSTER_ITEM_DROP@@U?$less@H@std@@V?$allocator@U?$pair@$$CBHU_MONSTER_ITEM_DROP@@@std@@@3@$0A@@std@@@2@PAU342@@Z
_TEXT	SEGMENT
__Pnode$ = 8						; size = 4
?_Right@?$_Tree_val@V?$_Tmap_traits@HU_MONSTER_ITEM_DROP@@U?$less@H@std@@V?$allocator@U?$pair@$$CBHU_MONSTER_ITEM_DROP@@@std@@@3@$0A@@std@@@std@@SAAAPAU_Node@?$_Tree_nod@V?$_Tmap_traits@HU_MONSTER_ITEM_DROP@@U?$less@H@std@@V?$allocator@U?$pair@$$CBHU_MONSTER_ITEM_DROP@@@std@@@3@$0A@@std@@@2@PAU342@@Z PROC ; std::_Tree_val<std::_Tmap_traits<int,_MONSTER_ITEM_DROP,std::less<int>,std::allocator<std::pair<int const ,_MONSTER_ITEM_DROP> >,0> >::_Right, COMDAT

; 631  : 		{	// return reference to right pointer in node

  00000	55		 push	 ebp
  00001	8b ec		 mov	 ebp, esp

; 632  : 		return ((_Nodepref)(*_Pnode)._Right);

  00003	8b 45 08	 mov	 eax, DWORD PTR __Pnode$[ebp]
  00006	83 c0 08	 add	 eax, 8

; 633  : 		}

  00009	5d		 pop	 ebp
  0000a	c3		 ret	 0
?_Right@?$_Tree_val@V?$_Tmap_traits@HU_MONSTER_ITEM_DROP@@U?$less@H@std@@V?$allocator@U?$pair@$$CBHU_MONSTER_ITEM_DROP@@@std@@@3@$0A@@std@@@std@@SAAAPAU_Node@?$_Tree_nod@V?$_Tmap_traits@HU_MONSTER_ITEM_DROP@@U?$less@H@std@@V?$allocator@U?$pair@$$CBHU_MONSTER_ITEM_DROP@@@std@@@3@$0A@@std@@@2@PAU342@@Z ENDP ; std::_Tree_val<std::_Tmap_traits<int,_MONSTER_ITEM_DROP,std::less<int>,std::allocator<std::pair<int const ,_MONSTER_ITEM_DROP> >,0> >::_Right
_TEXT	ENDS
PUBLIC	?_Myval@?$_Tree_val@V?$_Tmap_traits@HU_MONSTER_ITEM_DROP@@U?$less@H@std@@V?$allocator@U?$pair@$$CBHU_MONSTER_ITEM_DROP@@@std@@@3@$0A@@std@@@std@@SAAAU?$pair@$$CBHU_MONSTER_ITEM_DROP@@@2@PAU_Node@?$_Tree_nod@V?$_Tmap_traits@HU_MONSTER_ITEM_DROP@@U?$less@H@std@@V?$allocator@U?$pair@$$CBHU_MONSTER_ITEM_DROP@@@std@@@3@$0A@@std@@@2@@Z ; std::_Tree_val<std::_Tmap_traits<int,_MONSTER_ITEM_DROP,std::less<int>,std::allocator<std::pair<int const ,_MONSTER_ITEM_DROP> >,0> >::_Myval
; Function compile flags: /Ogtp
;	COMDAT ?_Myval@?$_Tree_val@V?$_Tmap_traits@HU_MONSTER_ITEM_DROP@@U?$less@H@std@@V?$allocator@U?$pair@$$CBHU_MONSTER_ITEM_DROP@@@std@@@3@$0A@@std@@@std@@SAAAU?$pair@$$CBHU_MONSTER_ITEM_DROP@@@2@PAU_Node@?$_Tree_nod@V?$_Tmap_traits@HU_MONSTER_ITEM_DROP@@U?$less@H@std@@V?$allocator@U?$pair@$$CBHU_MONSTER_ITEM_DROP@@@std@@@3@$0A@@std@@@2@@Z
_TEXT	SEGMENT
__Pnode$ = 8						; size = 4
?_Myval@?$_Tree_val@V?$_Tmap_traits@HU_MONSTER_ITEM_DROP@@U?$less@H@std@@V?$allocator@U?$pair@$$CBHU_MONSTER_ITEM_DROP@@@std@@@3@$0A@@std@@@std@@SAAAU?$pair@$$CBHU_MONSTER_ITEM_DROP@@@2@PAU_Node@?$_Tree_nod@V?$_Tmap_traits@HU_MONSTER_ITEM_DROP@@U?$less@H@std@@V?$allocator@U?$pair@$$CBHU_MONSTER_ITEM_DROP@@@std@@@3@$0A@@std@@@2@@Z PROC ; std::_Tree_val<std::_Tmap_traits<int,_MONSTER_ITEM_DROP,std::less<int>,std::allocator<std::pair<int const ,_MONSTER_ITEM_DROP> >,0> >::_Myval, COMDAT

; 636  : 		{	// return reference to value in node

  00000	55		 push	 ebp
  00001	8b ec		 mov	 ebp, esp

; 637  : 		return ((reference)(*_Pnode)._Myval);

  00003	8b 45 08	 mov	 eax, DWORD PTR __Pnode$[ebp]
  00006	83 c0 0c	 add	 eax, 12			; 0000000cH

; 638  : 		}

  00009	5d		 pop	 ebp
  0000a	c3		 ret	 0
?_Myval@?$_Tree_val@V?$_Tmap_traits@HU_MONSTER_ITEM_DROP@@U?$less@H@std@@V?$allocator@U?$pair@$$CBHU_MONSTER_ITEM_DROP@@@std@@@3@$0A@@std@@@std@@SAAAU?$pair@$$CBHU_MONSTER_ITEM_DROP@@@2@PAU_Node@?$_Tree_nod@V?$_Tmap_traits@HU_MONSTER_ITEM_DROP@@U?$less@H@std@@V?$allocator@U?$pair@$$CBHU_MONSTER_ITEM_DROP@@@std@@@3@$0A@@std@@@2@@Z ENDP ; std::_Tree_val<std::_Tmap_traits<int,_MONSTER_ITEM_DROP,std::less<int>,std::allocator<std::pair<int const ,_MONSTER_ITEM_DROP> >,0> >::_Myval
_TEXT	ENDS
PUBLIC	??0?$allocator@U?$pair@$$CBHU_MONSTER_ITEM_DROP@@@std@@@std@@QAE@ABV01@@Z ; std::allocator<std::pair<int const ,_MONSTER_ITEM_DROP> >::allocator<std::pair<int const ,_MONSTER_ITEM_DROP> >
; Function compile flags: /Ogtp
; File c:\program files (x86)\microsoft visual studio 10.0\vc\include\xmemory
;	COMDAT ??0?$allocator@U?$pair@$$CBHU_MONSTER_ITEM_DROP@@@std@@@std@@QAE@ABV01@@Z
_TEXT	SEGMENT
___formal$ = 8						; size = 4
??0?$allocator@U?$pair@$$CBHU_MONSTER_ITEM_DROP@@@std@@@std@@QAE@ABV01@@Z PROC ; std::allocator<std::pair<int const ,_MONSTER_ITEM_DROP> >::allocator<std::pair<int const ,_MONSTER_ITEM_DROP> >, COMDAT
; _this$ = ecx

; 165  : 	_ALLOCATOR(const _ALLOCATOR<_Ty>&) _THROW0()

  00000	8b c1		 mov	 eax, ecx

; 166  : 		{	// construct by copying (do nothing)
; 167  : 		}

  00002	c2 04 00	 ret	 4
??0?$allocator@U?$pair@$$CBHU_MONSTER_ITEM_DROP@@@std@@@std@@QAE@ABV01@@Z ENDP ; std::allocator<std::pair<int const ,_MONSTER_ITEM_DROP> >::allocator<std::pair<int const ,_MONSTER_ITEM_DROP> >
_TEXT	ENDS
PUBLIC	?deallocate@?$allocator@U_Node@?$_Tree_nod@V?$_Tmap_traits@HU_MONSTER_ITEM_DROP@@U?$less@H@std@@V?$allocator@U?$pair@$$CBHU_MONSTER_ITEM_DROP@@@std@@@3@$0A@@std@@@std@@@std@@QAEXPAU_Node@?$_Tree_nod@V?$_Tmap_traits@HU_MONSTER_ITEM_DROP@@U?$less@H@std@@V?$allocator@U?$pair@$$CBHU_MONSTER_ITEM_DROP@@@std@@@3@$0A@@std@@@2@I@Z ; std::allocator<std::_Tree_nod<std::_Tmap_traits<int,_MONSTER_ITEM_DROP,std::less<int>,std::allocator<std::pair<int const ,_MONSTER_ITEM_DROP> >,0> >::_Node>::deallocate
EXTRN	??3@YAXPAX@Z:PROC				; operator delete
; Function compile flags: /Ogtp
;	COMDAT ?deallocate@?$allocator@U_Node@?$_Tree_nod@V?$_Tmap_traits@HU_MONSTER_ITEM_DROP@@U?$less@H@std@@V?$allocator@U?$pair@$$CBHU_MONSTER_ITEM_DROP@@@std@@@3@$0A@@std@@@std@@@std@@QAEXPAU_Node@?$_Tree_nod@V?$_Tmap_traits@HU_MONSTER_ITEM_DROP@@U?$less@H@std@@V?$allocator@U?$pair@$$CBHU_MONSTER_ITEM_DROP@@@std@@@3@$0A@@std@@@2@I@Z
_TEXT	SEGMENT
__Ptr$ = 8						; size = 4
___formal$ = 12						; size = 4
?deallocate@?$allocator@U_Node@?$_Tree_nod@V?$_Tmap_traits@HU_MONSTER_ITEM_DROP@@U?$less@H@std@@V?$allocator@U?$pair@$$CBHU_MONSTER_ITEM_DROP@@@std@@@3@$0A@@std@@@std@@@std@@QAEXPAU_Node@?$_Tree_nod@V?$_Tmap_traits@HU_MONSTER_ITEM_DROP@@U?$less@H@std@@V?$allocator@U?$pair@$$CBHU_MONSTER_ITEM_DROP@@@std@@@3@$0A@@std@@@2@I@Z PROC ; std::allocator<std::_Tree_nod<std::_Tmap_traits<int,_MONSTER_ITEM_DROP,std::less<int>,std::allocator<std::pair<int const ,_MONSTER_ITEM_DROP> >,0> >::_Node>::deallocate, COMDAT
; _this$ = ecx

; 181  : 		{	// deallocate object at _Ptr, ignore size

  00000	55		 push	 ebp
  00001	8b ec		 mov	 ebp, esp

; 182  : 		::operator delete(_Ptr);

  00003	8b 45 08	 mov	 eax, DWORD PTR __Ptr$[ebp]
  00006	50		 push	 eax
  00007	e8 00 00 00 00	 call	 ??3@YAXPAX@Z		; operator delete
  0000c	83 c4 04	 add	 esp, 4

; 183  : 		}

  0000f	5d		 pop	 ebp
  00010	c2 08 00	 ret	 8
?deallocate@?$allocator@U_Node@?$_Tree_nod@V?$_Tmap_traits@HU_MONSTER_ITEM_DROP@@U?$less@H@std@@V?$allocator@U?$pair@$$CBHU_MONSTER_ITEM_DROP@@@std@@@3@$0A@@std@@@std@@@std@@QAEXPAU_Node@?$_Tree_nod@V?$_Tmap_traits@HU_MONSTER_ITEM_DROP@@U?$less@H@std@@V?$allocator@U?$pair@$$CBHU_MONSTER_ITEM_DROP@@@std@@@3@$0A@@std@@@2@I@Z ENDP ; std::allocator<std::_Tree_nod<std::_Tmap_traits<int,_MONSTER_ITEM_DROP,std::less<int>,std::allocator<std::pair<int const ,_MONSTER_ITEM_DROP> >,0> >::_Node>::deallocate
_TEXT	ENDS
PUBLIC	?capacity@?$vector@UCHAOSCASTLE_START_TIME@@V?$allocator@UCHAOSCASTLE_START_TIME@@@std@@@std@@QBEIXZ ; std::vector<CHAOSCASTLE_START_TIME,std::allocator<CHAOSCASTLE_START_TIME> >::capacity
; Function compile flags: /Ogtp
; File c:\program files (x86)\microsoft visual studio 10.0\vc\include\vector
;	COMDAT ?capacity@?$vector@UCHAOSCASTLE_START_TIME@@V?$allocator@UCHAOSCASTLE_START_TIME@@@std@@@std@@QBEIXZ
_TEXT	SEGMENT
?capacity@?$vector@UCHAOSCASTLE_START_TIME@@V?$allocator@UCHAOSCASTLE_START_TIME@@@std@@@std@@QBEIXZ PROC ; std::vector<CHAOSCASTLE_START_TIME,std::allocator<CHAOSCASTLE_START_TIME> >::capacity, COMDAT
; _this$ = ecx

; 777  : 		return (this->_Myend - this->_Myfirst);

  00000	8b 41 08	 mov	 eax, DWORD PTR [ecx+8]
  00003	2b 01		 sub	 eax, DWORD PTR [ecx]
  00005	c1 f8 03	 sar	 eax, 3

; 778  : 		}

  00008	c3		 ret	 0
?capacity@?$vector@UCHAOSCASTLE_START_TIME@@V?$allocator@UCHAOSCASTLE_START_TIME@@@std@@@std@@QBEIXZ ENDP ; std::vector<CHAOSCASTLE_START_TIME,std::allocator<CHAOSCASTLE_START_TIME> >::capacity
_TEXT	ENDS
PUBLIC	?size@?$vector@UCHAOSCASTLE_START_TIME@@V?$allocator@UCHAOSCASTLE_START_TIME@@@std@@@std@@QBEIXZ ; std::vector<CHAOSCASTLE_START_TIME,std::allocator<CHAOSCASTLE_START_TIME> >::size
; Function compile flags: /Ogtp
;	COMDAT ?size@?$vector@UCHAOSCASTLE_START_TIME@@V?$allocator@UCHAOSCASTLE_START_TIME@@@std@@@std@@QBEIXZ
_TEXT	SEGMENT
?size@?$vector@UCHAOSCASTLE_START_TIME@@V?$allocator@UCHAOSCASTLE_START_TIME@@@std@@@std@@QBEIXZ PROC ; std::vector<CHAOSCASTLE_START_TIME,std::allocator<CHAOSCASTLE_START_TIME> >::size, COMDAT
; _this$ = ecx

; 879  : 		return (this->_Mylast - this->_Myfirst);

  00000	8b 41 04	 mov	 eax, DWORD PTR [ecx+4]
  00003	2b 01		 sub	 eax, DWORD PTR [ecx]
  00005	c1 f8 03	 sar	 eax, 3

; 880  : 		}

  00008	c3		 ret	 0
?size@?$vector@UCHAOSCASTLE_START_TIME@@V?$allocator@UCHAOSCASTLE_START_TIME@@@std@@@std@@QBEIXZ ENDP ; std::vector<CHAOSCASTLE_START_TIME,std::allocator<CHAOSCASTLE_START_TIME> >::size
_TEXT	ENDS
PUBLIC	??_C@_0BD@OLBABOEK@vector?$DMT?$DO?5too?5long?$AA@ ; `string'
PUBLIC	?_Xlen@?$vector@UCHAOSCASTLE_START_TIME@@V?$allocator@UCHAOSCASTLE_START_TIME@@@std@@@std@@IBEXXZ ; std::vector<CHAOSCASTLE_START_TIME,std::allocator<CHAOSCASTLE_START_TIME> >::_Xlen
EXTRN	?_Xlength_error@std@@YAXPBD@Z:PROC		; std::_Xlength_error
;	COMDAT ??_C@_0BD@OLBABOEK@vector?$DMT?$DO?5too?5long?$AA@
CONST	SEGMENT
??_C@_0BD@OLBABOEK@vector?$DMT?$DO?5too?5long?$AA@ DB 'vector<T> too long'
	DB	00H						; `string'
; Function compile flags: /Ogtp
CONST	ENDS
;	COMDAT ?_Xlen@?$vector@UCHAOSCASTLE_START_TIME@@V?$allocator@UCHAOSCASTLE_START_TIME@@@std@@@std@@IBEXXZ
_TEXT	SEGMENT
?_Xlen@?$vector@UCHAOSCASTLE_START_TIME@@V?$allocator@UCHAOSCASTLE_START_TIME@@@std@@@std@@IBEXXZ PROC ; std::vector<CHAOSCASTLE_START_TIME,std::allocator<CHAOSCASTLE_START_TIME> >::_Xlen, COMDAT
; _this$ = ecx

; 1427 : 		_Xlength_error("vector<T> too long");

  00000	68 00 00 00 00	 push	 OFFSET ??_C@_0BD@OLBABOEK@vector?$DMT?$DO?5too?5long?$AA@
  00005	e8 00 00 00 00	 call	 ?_Xlength_error@std@@YAXPBD@Z ; std::_Xlength_error
$LN4@Xlen:
$LN3@Xlen:
  0000a	cc		 int	 3
?_Xlen@?$vector@UCHAOSCASTLE_START_TIME@@V?$allocator@UCHAOSCASTLE_START_TIME@@@std@@@std@@IBEXXZ ENDP ; std::vector<CHAOSCASTLE_START_TIME,std::allocator<CHAOSCASTLE_START_TIME> >::_Xlen
_TEXT	ENDS
PUBLIC	??0?$allocator@UCHAOSCASTLE_START_TIME@@@std@@QAE@ABV01@@Z ; std::allocator<CHAOSCASTLE_START_TIME>::allocator<CHAOSCASTLE_START_TIME>
; Function compile flags: /Ogtp
; File c:\program files (x86)\microsoft visual studio 10.0\vc\include\xmemory
;	COMDAT ??0?$allocator@UCHAOSCASTLE_START_TIME@@@std@@QAE@ABV01@@Z
_TEXT	SEGMENT
___formal$ = 8						; size = 4
??0?$allocator@UCHAOSCASTLE_START_TIME@@@std@@QAE@ABV01@@Z PROC ; std::allocator<CHAOSCASTLE_START_TIME>::allocator<CHAOSCASTLE_START_TIME>, COMDAT
; _this$ = ecx

; 165  : 	_ALLOCATOR(const _ALLOCATOR<_Ty>&) _THROW0()

  00000	8b c1		 mov	 eax, ecx

; 166  : 		{	// construct by copying (do nothing)
; 167  : 		}

  00002	c2 04 00	 ret	 4
??0?$allocator@UCHAOSCASTLE_START_TIME@@@std@@QAE@ABV01@@Z ENDP ; std::allocator<CHAOSCASTLE_START_TIME>::allocator<CHAOSCASTLE_START_TIME>
_TEXT	ENDS
PUBLIC	?deallocate@?$allocator@UCHAOSCASTLE_START_TIME@@@std@@QAEXPAUCHAOSCASTLE_START_TIME@@I@Z ; std::allocator<CHAOSCASTLE_START_TIME>::deallocate
; Function compile flags: /Ogtp
;	COMDAT ?deallocate@?$allocator@UCHAOSCASTLE_START_TIME@@@std@@QAEXPAUCHAOSCASTLE_START_TIME@@I@Z
_TEXT	SEGMENT
__Ptr$ = 8						; size = 4
___formal$ = 12						; size = 4
?deallocate@?$allocator@UCHAOSCASTLE_START_TIME@@@std@@QAEXPAUCHAOSCASTLE_START_TIME@@I@Z PROC ; std::allocator<CHAOSCASTLE_START_TIME>::deallocate, COMDAT
; _this$ = ecx

; 181  : 		{	// deallocate object at _Ptr, ignore size

  00000	55		 push	 ebp
  00001	8b ec		 mov	 ebp, esp

; 182  : 		::operator delete(_Ptr);

  00003	8b 45 08	 mov	 eax, DWORD PTR __Ptr$[ebp]
  00006	50		 push	 eax
  00007	e8 00 00 00 00	 call	 ??3@YAXPAX@Z		; operator delete
  0000c	83 c4 04	 add	 esp, 4

; 183  : 		}

  0000f	5d		 pop	 ebp
  00010	c2 08 00	 ret	 8
?deallocate@?$allocator@UCHAOSCASTLE_START_TIME@@@std@@QAEXPAUCHAOSCASTLE_START_TIME@@I@Z ENDP ; std::allocator<CHAOSCASTLE_START_TIME>::deallocate
_TEXT	ENDS
PUBLIC	??E?$_Vector_const_iterator@V?$_Vector_val@UCHAOSCASTLE_START_TIME@@V?$allocator@UCHAOSCASTLE_START_TIME@@@std@@@std@@@std@@QAEAAV01@XZ ; std::_Vector_const_iterator<std::_Vector_val<CHAOSCASTLE_START_TIME,std::allocator<CHAOSCASTLE_START_TIME> > >::operator++
; Function compile flags: /Ogtp
; File c:\program files (x86)\microsoft visual studio 10.0\vc\include\vector
;	COMDAT ??E?$_Vector_const_iterator@V?$_Vector_val@UCHAOSCASTLE_START_TIME@@V?$allocator@UCHAOSCASTLE_START_TIME@@@std@@@std@@@std@@QAEAAV01@XZ
_TEXT	SEGMENT
??E?$_Vector_const_iterator@V?$_Vector_val@UCHAOSCASTLE_START_TIME@@V?$allocator@UCHAOSCASTLE_START_TIME@@@std@@@std@@@std@@QAEAAV01@XZ PROC ; std::_Vector_const_iterator<std::_Vector_val<CHAOSCASTLE_START_TIME,std::allocator<CHAOSCASTLE_START_TIME> > >::operator++, COMDAT
; _this$ = ecx

; 93   : 		{	// preincrement

  00000	8b c1		 mov	 eax, ecx

; 94   :  #if _ITERATOR_DEBUG_LEVEL == 2
; 95   : 		if (this->_Getcont() == 0
; 96   : 			|| this->_Ptr == 0
; 97   : 			|| ((_Myvec *)this->_Getcont())->_Mylast <= this->_Ptr)
; 98   : 			{	// report error
; 99   : 			_DEBUG_ERROR("vector iterator not incrementable");
; 100  : 			_SCL_SECURE_OUT_OF_RANGE;
; 101  : 			}
; 102  : 
; 103  :  #elif _ITERATOR_DEBUG_LEVEL == 1
; 104  : 		_SCL_SECURE_VALIDATE(this->_Getcont() != 0);
; 105  : 		_SCL_SECURE_VALIDATE_RANGE(
; 106  : 			this->_Ptr != 0
; 107  : 			&& this->_Ptr < ((_Myvec *)this->_Getcont())->_Mylast);
; 108  :  #endif /* _ITERATOR_DEBUG_LEVEL */
; 109  : 
; 110  : 		++this->_Ptr;

  00002	83 00 08	 add	 DWORD PTR [eax], 8

; 111  : 		return (*this);
; 112  : 		}

  00005	c3		 ret	 0
??E?$_Vector_const_iterator@V?$_Vector_val@UCHAOSCASTLE_START_TIME@@V?$allocator@UCHAOSCASTLE_START_TIME@@@std@@@std@@@std@@QAEAAV01@XZ ENDP ; std::_Vector_const_iterator<std::_Vector_val<CHAOSCASTLE_START_TIME,std::allocator<CHAOSCASTLE_START_TIME> > >::operator++
_TEXT	ENDS
PUBLIC	?_Compat@?$_Vector_const_iterator@V?$_Vector_val@UCHAOSCASTLE_START_TIME@@V?$allocator@UCHAOSCASTLE_START_TIME@@@std@@@std@@@std@@QBEXABV12@@Z ; std::_Vector_const_iterator<std::_Vector_val<CHAOSCASTLE_START_TIME,std::allocator<CHAOSCASTLE_START_TIME> > >::_Compat
; Function compile flags: /Ogtp
;	COMDAT ?_Compat@?$_Vector_const_iterator@V?$_Vector_val@UCHAOSCASTLE_START_TIME@@V?$allocator@UCHAOSCASTLE_START_TIME@@@std@@@std@@@std@@QBEXABV12@@Z
_TEXT	SEGMENT
___formal$ = 8						; size = 4
?_Compat@?$_Vector_const_iterator@V?$_Vector_val@UCHAOSCASTLE_START_TIME@@V?$allocator@UCHAOSCASTLE_START_TIME@@@std@@@std@@@std@@QBEXABV12@@Z PROC ; std::_Vector_const_iterator<std::_Vector_val<CHAOSCASTLE_START_TIME,std::allocator<CHAOSCASTLE_START_TIME> > >::_Compat, COMDAT
; _this$ = ecx

; 253  : 		}

  00000	c2 04 00	 ret	 4
?_Compat@?$_Vector_const_iterator@V?$_Vector_val@UCHAOSCASTLE_START_TIME@@V?$allocator@UCHAOSCASTLE_START_TIME@@@std@@@std@@@std@@QBEXABV12@@Z ENDP ; std::_Vector_const_iterator<std::_Vector_val<CHAOSCASTLE_START_TIME,std::allocator<CHAOSCASTLE_START_TIME> > >::_Compat
_TEXT	ENDS
PUBLIC	?capacity@?$vector@UtagPOINT@@V?$allocator@UtagPOINT@@@std@@@std@@QBEIXZ ; std::vector<tagPOINT,std::allocator<tagPOINT> >::capacity
; Function compile flags: /Ogtp
;	COMDAT ?capacity@?$vector@UtagPOINT@@V?$allocator@UtagPOINT@@@std@@@std@@QBEIXZ
_TEXT	SEGMENT
?capacity@?$vector@UtagPOINT@@V?$allocator@UtagPOINT@@@std@@@std@@QBEIXZ PROC ; std::vector<tagPOINT,std::allocator<tagPOINT> >::capacity, COMDAT
; _this$ = ecx

; 777  : 		return (this->_Myend - this->_Myfirst);

  00000	8b 41 08	 mov	 eax, DWORD PTR [ecx+8]
  00003	2b 01		 sub	 eax, DWORD PTR [ecx]
  00005	c1 f8 03	 sar	 eax, 3

; 778  : 		}

  00008	c3		 ret	 0
?capacity@?$vector@UtagPOINT@@V?$allocator@UtagPOINT@@@std@@@std@@QBEIXZ ENDP ; std::vector<tagPOINT,std::allocator<tagPOINT> >::capacity
_TEXT	ENDS
PUBLIC	?size@?$vector@UtagPOINT@@V?$allocator@UtagPOINT@@@std@@@std@@QBEIXZ ; std::vector<tagPOINT,std::allocator<tagPOINT> >::size
; Function compile flags: /Ogtp
;	COMDAT ?size@?$vector@UtagPOINT@@V?$allocator@UtagPOINT@@@std@@@std@@QBEIXZ
_TEXT	SEGMENT
?size@?$vector@UtagPOINT@@V?$allocator@UtagPOINT@@@std@@@std@@QBEIXZ PROC ; std::vector<tagPOINT,std::allocator<tagPOINT> >::size, COMDAT
; _this$ = ecx

; 879  : 		return (this->_Mylast - this->_Myfirst);

  00000	8b 41 04	 mov	 eax, DWORD PTR [ecx+4]
  00003	2b 01		 sub	 eax, DWORD PTR [ecx]
  00005	c1 f8 03	 sar	 eax, 3

; 880  : 		}

  00008	c3		 ret	 0
?size@?$vector@UtagPOINT@@V?$allocator@UtagPOINT@@@std@@@std@@QBEIXZ ENDP ; std::vector<tagPOINT,std::allocator<tagPOINT> >::size
_TEXT	ENDS
PUBLIC	?_Xlen@?$vector@UtagPOINT@@V?$allocator@UtagPOINT@@@std@@@std@@IBEXXZ ; std::vector<tagPOINT,std::allocator<tagPOINT> >::_Xlen
; Function compile flags: /Ogtp
;	COMDAT ?_Xlen@?$vector@UtagPOINT@@V?$allocator@UtagPOINT@@@std@@@std@@IBEXXZ
_TEXT	SEGMENT
?_Xlen@?$vector@UtagPOINT@@V?$allocator@UtagPOINT@@@std@@@std@@IBEXXZ PROC ; std::vector<tagPOINT,std::allocator<tagPOINT> >::_Xlen, COMDAT
; _this$ = ecx

; 1427 : 		_Xlength_error("vector<T> too long");

  00000	68 00 00 00 00	 push	 OFFSET ??_C@_0BD@OLBABOEK@vector?$DMT?$DO?5too?5long?$AA@
  00005	e8 00 00 00 00	 call	 ?_Xlength_error@std@@YAXPBD@Z ; std::_Xlength_error
$LN4@Xlen@2:
$LN3@Xlen@2:
  0000a	cc		 int	 3
?_Xlen@?$vector@UtagPOINT@@V?$allocator@UtagPOINT@@@std@@@std@@IBEXXZ ENDP ; std::vector<tagPOINT,std::allocator<tagPOINT> >::_Xlen
_TEXT	ENDS
PUBLIC	??0?$allocator@UtagPOINT@@@std@@QAE@ABV01@@Z	; std::allocator<tagPOINT>::allocator<tagPOINT>
; Function compile flags: /Ogtp
; File c:\program files (x86)\microsoft visual studio 10.0\vc\include\xmemory
;	COMDAT ??0?$allocator@UtagPOINT@@@std@@QAE@ABV01@@Z
_TEXT	SEGMENT
___formal$ = 8						; size = 4
??0?$allocator@UtagPOINT@@@std@@QAE@ABV01@@Z PROC	; std::allocator<tagPOINT>::allocator<tagPOINT>, COMDAT
; _this$ = ecx

; 165  : 	_ALLOCATOR(const _ALLOCATOR<_Ty>&) _THROW0()

  00000	8b c1		 mov	 eax, ecx

; 166  : 		{	// construct by copying (do nothing)
; 167  : 		}

  00002	c2 04 00	 ret	 4
??0?$allocator@UtagPOINT@@@std@@QAE@ABV01@@Z ENDP	; std::allocator<tagPOINT>::allocator<tagPOINT>
_TEXT	ENDS
PUBLIC	?deallocate@?$allocator@UtagPOINT@@@std@@QAEXPAUtagPOINT@@I@Z ; std::allocator<tagPOINT>::deallocate
; Function compile flags: /Ogtp
;	COMDAT ?deallocate@?$allocator@UtagPOINT@@@std@@QAEXPAUtagPOINT@@I@Z
_TEXT	SEGMENT
__Ptr$ = 8						; size = 4
___formal$ = 12						; size = 4
?deallocate@?$allocator@UtagPOINT@@@std@@QAEXPAUtagPOINT@@I@Z PROC ; std::allocator<tagPOINT>::deallocate, COMDAT
; _this$ = ecx

; 181  : 		{	// deallocate object at _Ptr, ignore size

  00000	55		 push	 ebp
  00001	8b ec		 mov	 ebp, esp

; 182  : 		::operator delete(_Ptr);

  00003	8b 45 08	 mov	 eax, DWORD PTR __Ptr$[ebp]
  00006	50		 push	 eax
  00007	e8 00 00 00 00	 call	 ??3@YAXPAX@Z		; operator delete
  0000c	83 c4 04	 add	 esp, 4

; 183  : 		}

  0000f	5d		 pop	 ebp
  00010	c2 08 00	 ret	 8
?deallocate@?$allocator@UtagPOINT@@@std@@QAEXPAUtagPOINT@@I@Z ENDP ; std::allocator<tagPOINT>::deallocate
_TEXT	ENDS
PUBLIC	??D?$_Tree_const_iterator@V?$_Tree_val@V?$_Tmap_traits@HU_MONSTER_ITEM_DROP@@U?$less@H@std@@V?$allocator@U?$pair@$$CBHU_MONSTER_ITEM_DROP@@@std@@@3@$0A@@std@@@std@@@std@@QBEABU?$pair@$$CBHU_MONSTER_ITEM_DROP@@@1@XZ ; std::_Tree_const_iterator<std::_Tree_val<std::_Tmap_traits<int,_MONSTER_ITEM_DROP,std::less<int>,std::allocator<std::pair<int const ,_MONSTER_ITEM_DROP> >,0> > >::operator*
; Function compile flags: /Ogtp
; File c:\program files (x86)\microsoft visual studio 10.0\vc\include\xtree
;	COMDAT ??D?$_Tree_const_iterator@V?$_Tree_val@V?$_Tmap_traits@HU_MONSTER_ITEM_DROP@@U?$less@H@std@@V?$allocator@U?$pair@$$CBHU_MONSTER_ITEM_DROP@@@std@@@3@$0A@@std@@@std@@@std@@QBEABU?$pair@$$CBHU_MONSTER_ITEM_DROP@@@1@XZ
_TEXT	SEGMENT
??D?$_Tree_const_iterator@V?$_Tree_val@V?$_Tmap_traits@HU_MONSTER_ITEM_DROP@@U?$less@H@std@@V?$allocator@U?$pair@$$CBHU_MONSTER_ITEM_DROP@@@std@@@3@$0A@@std@@@std@@@std@@QBEABU?$pair@$$CBHU_MONSTER_ITEM_DROP@@@1@XZ PROC ; std::_Tree_const_iterator<std::_Tree_val<std::_Tmap_traits<int,_MONSTER_ITEM_DROP,std::less<int>,std::allocator<std::pair<int const ,_MONSTER_ITEM_DROP> >,0> > >::operator*, COMDAT
; _this$ = ecx

; 231  :  #if _ITERATOR_DEBUG_LEVEL == 2
; 232  : 		if (this->_Getcont() == 0
; 233  : 			|| this->_Ptr == 0
; 234  : 			|| this->_Ptr == ((_Mytree *)this->_Getcont())->_Myhead)
; 235  : 			{	// report error
; 236  : 			_DEBUG_ERROR("map/set iterator not dereferencable");
; 237  : 			_SCL_SECURE_OUT_OF_RANGE;
; 238  : 			}
; 239  : 
; 240  :  #elif _ITERATOR_DEBUG_LEVEL == 1
; 241  : 		_SCL_SECURE_VALIDATE(this->_Getcont() != 0 && this->_Ptr != 0);
; 242  : 		_SCL_SECURE_VALIDATE_RANGE(this->_Ptr !=
; 243  : 			((_Mytree *)this->_Getcont())->_Myhead);
; 244  :  #endif /* _ITERATOR_DEBUG_LEVEL */
; 245  : 
; 246  : 		return (_Mytree::_Myval(this->_Ptr));

  00000	8b 01		 mov	 eax, DWORD PTR [ecx]
  00002	83 c0 0c	 add	 eax, 12			; 0000000cH

; 247  : 		}

  00005	c3		 ret	 0
??D?$_Tree_const_iterator@V?$_Tree_val@V?$_Tmap_traits@HU_MONSTER_ITEM_DROP@@U?$less@H@std@@V?$allocator@U?$pair@$$CBHU_MONSTER_ITEM_DROP@@@std@@@3@$0A@@std@@@std@@@std@@QBEABU?$pair@$$CBHU_MONSTER_ITEM_DROP@@@1@XZ ENDP ; std::_Tree_const_iterator<std::_Tree_val<std::_Tmap_traits<int,_MONSTER_ITEM_DROP,std::less<int>,std::allocator<std::pair<int const ,_MONSTER_ITEM_DROP> >,0> > >::operator*
_TEXT	ENDS
PUBLIC	??0?$_Tree_unchecked_const_iterator@V?$_Tree_val@V?$_Tmap_traits@HU_MONSTER_ITEM_DROP@@U?$less@H@std@@V?$allocator@U?$pair@$$CBHU_MONSTER_ITEM_DROP@@@std@@@3@$0A@@std@@@std@@U_Iterator_base0@2@@std@@QAE@XZ ; std::_Tree_unchecked_const_iterator<std::_Tree_val<std::_Tmap_traits<int,_MONSTER_ITEM_DROP,std::less<int>,std::allocator<std::pair<int const ,_MONSTER_ITEM_DROP> >,0> >,std::_Iterator_base0>::_Tree_unchecked_const_iterator<std::_Tree_val<std::_Tmap_traits<int,_MONSTER_ITEM_DROP,std::less<int>,std::allocator<std::pair<int const ,_MONSTER_ITEM_DROP> >,0> >,std::_Iterator_base0>
; Function compile flags: /Ogtp
;	COMDAT ??0?$_Tree_unchecked_const_iterator@V?$_Tree_val@V?$_Tmap_traits@HU_MONSTER_ITEM_DROP@@U?$less@H@std@@V?$allocator@U?$pair@$$CBHU_MONSTER_ITEM_DROP@@@std@@@3@$0A@@std@@@std@@U_Iterator_base0@2@@std@@QAE@XZ
_TEXT	SEGMENT
??0?$_Tree_unchecked_const_iterator@V?$_Tree_val@V?$_Tmap_traits@HU_MONSTER_ITEM_DROP@@U?$less@H@std@@V?$allocator@U?$pair@$$CBHU_MONSTER_ITEM_DROP@@@std@@@3@$0A@@std@@@std@@U_Iterator_base0@2@@std@@QAE@XZ PROC ; std::_Tree_unchecked_const_iterator<std::_Tree_val<std::_Tmap_traits<int,_MONSTER_ITEM_DROP,std::less<int>,std::allocator<std::pair<int const ,_MONSTER_ITEM_DROP> >,0> >,std::_Iterator_base0>::_Tree_unchecked_const_iterator<std::_Tree_val<std::_Tmap_traits<int,_MONSTER_ITEM_DROP,std::less<int>,std::allocator<std::pair<int const ,_MONSTER_ITEM_DROP> >,0> >,std::_Iterator_base0>, COMDAT
; _this$ = ecx

; 38   : 		{	// construct with null node pointer

  00000	8b c1		 mov	 eax, ecx
  00002	c7 00 00 00 00
	00		 mov	 DWORD PTR [eax], 0

; 39   : 		}

  00008	c3		 ret	 0
??0?$_Tree_unchecked_const_iterator@V?$_Tree_val@V?$_Tmap_traits@HU_MONSTER_ITEM_DROP@@U?$less@H@std@@V?$allocator@U?$pair@$$CBHU_MONSTER_ITEM_DROP@@@std@@@3@$0A@@std@@@std@@U_Iterator_base0@2@@std@@QAE@XZ ENDP ; std::_Tree_unchecked_const_iterator<std::_Tree_val<std::_Tmap_traits<int,_MONSTER_ITEM_DROP,std::less<int>,std::allocator<std::pair<int const ,_MONSTER_ITEM_DROP> >,0> >,std::_Iterator_base0>::_Tree_unchecked_const_iterator<std::_Tree_val<std::_Tmap_traits<int,_MONSTER_ITEM_DROP,std::less<int>,std::allocator<std::pair<int const ,_MONSTER_ITEM_DROP> >,0> >,std::_Iterator_base0>
_TEXT	ENDS
PUBLIC	?capacity@?$vector@HV?$allocator@H@std@@@std@@QBEIXZ ; std::vector<int,std::allocator<int> >::capacity
; Function compile flags: /Ogtp
; File c:\program files (x86)\microsoft visual studio 10.0\vc\include\vector
;	COMDAT ?capacity@?$vector@HV?$allocator@H@std@@@std@@QBEIXZ
_TEXT	SEGMENT
?capacity@?$vector@HV?$allocator@H@std@@@std@@QBEIXZ PROC ; std::vector<int,std::allocator<int> >::capacity, COMDAT
; _this$ = ecx

; 777  : 		return (this->_Myend - this->_Myfirst);

  00000	8b 41 08	 mov	 eax, DWORD PTR [ecx+8]
  00003	2b 01		 sub	 eax, DWORD PTR [ecx]
  00005	c1 f8 02	 sar	 eax, 2

; 778  : 		}

  00008	c3		 ret	 0
?capacity@?$vector@HV?$allocator@H@std@@@std@@QBEIXZ ENDP ; std::vector<int,std::allocator<int> >::capacity
_TEXT	ENDS
PUBLIC	?_Xlen@?$vector@HV?$allocator@H@std@@@std@@IBEXXZ ; std::vector<int,std::allocator<int> >::_Xlen
; Function compile flags: /Ogtp
;	COMDAT ?_Xlen@?$vector@HV?$allocator@H@std@@@std@@IBEXXZ
_TEXT	SEGMENT
?_Xlen@?$vector@HV?$allocator@H@std@@@std@@IBEXXZ PROC	; std::vector<int,std::allocator<int> >::_Xlen, COMDAT
; _this$ = ecx

; 1427 : 		_Xlength_error("vector<T> too long");

  00000	68 00 00 00 00	 push	 OFFSET ??_C@_0BD@OLBABOEK@vector?$DMT?$DO?5too?5long?$AA@
  00005	e8 00 00 00 00	 call	 ?_Xlength_error@std@@YAXPBD@Z ; std::_Xlength_error
$LN4@Xlen@3:
$LN3@Xlen@3:
  0000a	cc		 int	 3
?_Xlen@?$vector@HV?$allocator@H@std@@@std@@IBEXXZ ENDP	; std::vector<int,std::allocator<int> >::_Xlen
_TEXT	ENDS
PUBLIC	??0?$allocator@H@std@@QAE@ABV01@@Z		; std::allocator<int>::allocator<int>
; Function compile flags: /Ogtp
; File c:\program files (x86)\microsoft visual studio 10.0\vc\include\xmemory
;	COMDAT ??0?$allocator@H@std@@QAE@ABV01@@Z
_TEXT	SEGMENT
___formal$ = 8						; size = 4
??0?$allocator@H@std@@QAE@ABV01@@Z PROC			; std::allocator<int>::allocator<int>, COMDAT
; _this$ = ecx

; 165  : 	_ALLOCATOR(const _ALLOCATOR<_Ty>&) _THROW0()

  00000	8b c1		 mov	 eax, ecx

; 166  : 		{	// construct by copying (do nothing)
; 167  : 		}

  00002	c2 04 00	 ret	 4
??0?$allocator@H@std@@QAE@ABV01@@Z ENDP			; std::allocator<int>::allocator<int>
_TEXT	ENDS
PUBLIC	?deallocate@?$allocator@H@std@@QAEXPAHI@Z	; std::allocator<int>::deallocate
; Function compile flags: /Ogtp
;	COMDAT ?deallocate@?$allocator@H@std@@QAEXPAHI@Z
_TEXT	SEGMENT
__Ptr$ = 8						; size = 4
___formal$ = 12						; size = 4
?deallocate@?$allocator@H@std@@QAEXPAHI@Z PROC		; std::allocator<int>::deallocate, COMDAT
; _this$ = ecx

; 181  : 		{	// deallocate object at _Ptr, ignore size

  00000	55		 push	 ebp
  00001	8b ec		 mov	 ebp, esp

; 182  : 		::operator delete(_Ptr);

  00003	8b 45 08	 mov	 eax, DWORD PTR __Ptr$[ebp]
  00006	50		 push	 eax
  00007	e8 00 00 00 00	 call	 ??3@YAXPAX@Z		; operator delete
  0000c	83 c4 04	 add	 esp, 4

; 183  : 		}

  0000f	5d		 pop	 ebp
  00010	c2 08 00	 ret	 8
?deallocate@?$allocator@H@std@@QAEXPAHI@Z ENDP		; std::allocator<int>::deallocate
_TEXT	ENDS
PUBLIC	??D?$_Vector_const_iterator@V?$_Vector_val@UtagPOINT@@V?$allocator@UtagPOINT@@@std@@@std@@@std@@QBEABUtagPOINT@@XZ ; std::_Vector_const_iterator<std::_Vector_val<tagPOINT,std::allocator<tagPOINT> > >::operator*
; Function compile flags: /Ogtp
; File c:\program files (x86)\microsoft visual studio 10.0\vc\include\vector
;	COMDAT ??D?$_Vector_const_iterator@V?$_Vector_val@UtagPOINT@@V?$allocator@UtagPOINT@@@std@@@std@@@std@@QBEABUtagPOINT@@XZ
_TEXT	SEGMENT
??D?$_Vector_const_iterator@V?$_Vector_val@UtagPOINT@@V?$allocator@UtagPOINT@@@std@@@std@@@std@@QBEABUtagPOINT@@XZ PROC ; std::_Vector_const_iterator<std::_Vector_val<tagPOINT,std::allocator<tagPOINT> > >::operator*, COMDAT
; _this$ = ecx

; 64   :  #if _ITERATOR_DEBUG_LEVEL == 2
; 65   : 		if (this->_Getcont() == 0
; 66   : 			|| this->_Ptr == 0
; 67   : 			|| this->_Ptr < ((_Myvec *)this->_Getcont())->_Myfirst
; 68   : 			|| ((_Myvec *)this->_Getcont())->_Mylast <= this->_Ptr)
; 69   : 			{	// report error
; 70   : 			_DEBUG_ERROR("vector iterator not dereferencable");
; 71   : 			_SCL_SECURE_OUT_OF_RANGE;
; 72   : 			}
; 73   : 
; 74   :  #elif _ITERATOR_DEBUG_LEVEL == 1
; 75   : 		_SCL_SECURE_VALIDATE(this->_Getcont() != 0);
; 76   : 		_SCL_SECURE_VALIDATE_RANGE(
; 77   : 			this->_Ptr != 0
; 78   : 			&& ((_Myvec *)this->_Getcont())->_Myfirst <= this->_Ptr
; 79   : 			&& this->_Ptr < ((_Myvec *)this->_Getcont())->_Mylast);
; 80   :  #endif /* _ITERATOR_DEBUG_LEVEL */
; 81   : 
; 82   : 		__analysis_assume(this->_Ptr != 0);
; 83   : 
; 84   : 		return (*this->_Ptr);

  00000	8b 01		 mov	 eax, DWORD PTR [ecx]

; 85   : 		}

  00002	c3		 ret	 0
??D?$_Vector_const_iterator@V?$_Vector_val@UtagPOINT@@V?$allocator@UtagPOINT@@@std@@@std@@@std@@QBEABUtagPOINT@@XZ ENDP ; std::_Vector_const_iterator<std::_Vector_val<tagPOINT,std::allocator<tagPOINT> > >::operator*
_TEXT	ENDS
PUBLIC	?_Color@?$_Tree_val@V?$_Tmap_traits@HU_MONSTER_ITEM_DROP@@U?$less@H@std@@V?$allocator@U?$pair@$$CBHU_MONSTER_ITEM_DROP@@@std@@@3@$0A@@std@@@std@@SAAADPAU_Node@?$_Tree_nod@V?$_Tmap_traits@HU_MONSTER_ITEM_DROP@@U?$less@H@std@@V?$allocator@U?$pair@$$CBHU_MONSTER_ITEM_DROP@@@std@@@3@$0A@@std@@@2@@Z ; std::_Tree_val<std::_Tmap_traits<int,_MONSTER_ITEM_DROP,std::less<int>,std::allocator<std::pair<int const ,_MONSTER_ITEM_DROP> >,0> >::_Color
; Function compile flags: /Ogtp
; File c:\program files (x86)\microsoft visual studio 10.0\vc\include\xtree
;	COMDAT ?_Color@?$_Tree_val@V?$_Tmap_traits@HU_MONSTER_ITEM_DROP@@U?$less@H@std@@V?$allocator@U?$pair@$$CBHU_MONSTER_ITEM_DROP@@@std@@@3@$0A@@std@@@std@@SAAADPAU_Node@?$_Tree_nod@V?$_Tmap_traits@HU_MONSTER_ITEM_DROP@@U?$less@H@std@@V?$allocator@U?$pair@$$CBHU_MONSTER_ITEM_DROP@@@std@@@3@$0A@@std@@@2@@Z
_TEXT	SEGMENT
__Pnode$ = 8						; size = 4
?_Color@?$_Tree_val@V?$_Tmap_traits@HU_MONSTER_ITEM_DROP@@U?$less@H@std@@V?$allocator@U?$pair@$$CBHU_MONSTER_ITEM_DROP@@@std@@@3@$0A@@std@@@std@@SAAADPAU_Node@?$_Tree_nod@V?$_Tmap_traits@HU_MONSTER_ITEM_DROP@@U?$less@H@std@@V?$allocator@U?$pair@$$CBHU_MONSTER_ITEM_DROP@@@std@@@3@$0A@@std@@@2@@Z PROC ; std::_Tree_val<std::_Tmap_traits<int,_MONSTER_ITEM_DROP,std::less<int>,std::allocator<std::pair<int const ,_MONSTER_ITEM_DROP> >,0> >::_Color, COMDAT

; 606  : 		{	// return reference to color in node

  00000	55		 push	 ebp
  00001	8b ec		 mov	 ebp, esp

; 607  : 		return ((char&)(*_Pnode)._Color);

  00003	8b 45 08	 mov	 eax, DWORD PTR __Pnode$[ebp]
  00006	83 c0 18	 add	 eax, 24			; 00000018H

; 608  : 		}

  00009	5d		 pop	 ebp
  0000a	c3		 ret	 0
?_Color@?$_Tree_val@V?$_Tmap_traits@HU_MONSTER_ITEM_DROP@@U?$less@H@std@@V?$allocator@U?$pair@$$CBHU_MONSTER_ITEM_DROP@@@std@@@3@$0A@@std@@@std@@SAAADPAU_Node@?$_Tree_nod@V?$_Tmap_traits@HU_MONSTER_ITEM_DROP@@U?$less@H@std@@V?$allocator@U?$pair@$$CBHU_MONSTER_ITEM_DROP@@@std@@@3@$0A@@std@@@2@@Z ENDP ; std::_Tree_val<std::_Tmap_traits<int,_MONSTER_ITEM_DROP,std::less<int>,std::allocator<std::pair<int const ,_MONSTER_ITEM_DROP> >,0> >::_Color
_TEXT	ENDS
PUBLIC	?max_size@?$allocator@UCHAOSCASTLE_START_TIME@@@std@@QBEIXZ ; std::allocator<CHAOSCASTLE_START_TIME>::max_size
; Function compile flags: /Ogtp
; File c:\program files (x86)\microsoft visual studio 10.0\vc\include\xmemory
;	COMDAT ?max_size@?$allocator@UCHAOSCASTLE_START_TIME@@@std@@QBEIXZ
_TEXT	SEGMENT
?max_size@?$allocator@UCHAOSCASTLE_START_TIME@@@std@@QBEIXZ PROC ; std::allocator<CHAOSCASTLE_START_TIME>::max_size, COMDAT
; _this$ = ecx

; 218  : 		_SIZT _Count = (_SIZT)(-1) / sizeof (_Ty);
; 219  : 		return (0 < _Count ? _Count : 1);

  00000	b8 ff ff ff 1f	 mov	 eax, 536870911		; 1fffffffH

; 220  : 		}

  00005	c3		 ret	 0
?max_size@?$allocator@UCHAOSCASTLE_START_TIME@@@std@@QBEIXZ ENDP ; std::allocator<CHAOSCASTLE_START_TIME>::max_size
_TEXT	ENDS
PUBLIC	?max_size@?$allocator@UtagPOINT@@@std@@QBEIXZ	; std::allocator<tagPOINT>::max_size
; Function compile flags: /Ogtp
;	COMDAT ?max_size@?$allocator@UtagPOINT@@@std@@QBEIXZ
_TEXT	SEGMENT
?max_size@?$allocator@UtagPOINT@@@std@@QBEIXZ PROC	; std::allocator<tagPOINT>::max_size, COMDAT
; _this$ = ecx

; 218  : 		_SIZT _Count = (_SIZT)(-1) / sizeof (_Ty);
; 219  : 		return (0 < _Count ? _Count : 1);

  00000	b8 ff ff ff 1f	 mov	 eax, 536870911		; 1fffffffH

; 220  : 		}

  00005	c3		 ret	 0
?max_size@?$allocator@UtagPOINT@@@std@@QBEIXZ ENDP	; std::allocator<tagPOINT>::max_size
_TEXT	ENDS
PUBLIC	??9?$_Tree_const_iterator@V?$_Tree_val@V?$_Tmap_traits@HU_MONSTER_ITEM_DROP@@U?$less@H@std@@V?$allocator@U?$pair@$$CBHU_MONSTER_ITEM_DROP@@@std@@@3@$0A@@std@@@std@@@std@@QBE_NABV01@@Z ; std::_Tree_const_iterator<std::_Tree_val<std::_Tmap_traits<int,_MONSTER_ITEM_DROP,std::less<int>,std::allocator<std::pair<int const ,_MONSTER_ITEM_DROP> >,0> > >::operator!=
; Function compile flags: /Ogtp
; File c:\program files (x86)\microsoft visual studio 10.0\vc\include\xtree
;	COMDAT ??9?$_Tree_const_iterator@V?$_Tree_val@V?$_Tmap_traits@HU_MONSTER_ITEM_DROP@@U?$less@H@std@@V?$allocator@U?$pair@$$CBHU_MONSTER_ITEM_DROP@@@std@@@3@$0A@@std@@@std@@@std@@QBE_NABV01@@Z
_TEXT	SEGMENT
__Right$ = 8						; size = 4
??9?$_Tree_const_iterator@V?$_Tree_val@V?$_Tmap_traits@HU_MONSTER_ITEM_DROP@@U?$less@H@std@@V?$allocator@U?$pair@$$CBHU_MONSTER_ITEM_DROP@@@std@@@3@$0A@@std@@@std@@@std@@QBE_NABV01@@Z PROC ; std::_Tree_const_iterator<std::_Tree_val<std::_Tmap_traits<int,_MONSTER_ITEM_DROP,std::less<int>,std::allocator<std::pair<int const ,_MONSTER_ITEM_DROP> >,0> > >::operator!=, COMDAT
; _this$ = ecx

; 334  : 		{	// test for iterator inequality

  00000	55		 push	 ebp
  00001	8b ec		 mov	 ebp, esp

; 335  : 		return (!(*this == _Right));

  00003	8b 01		 mov	 eax, DWORD PTR [ecx]
  00005	8b 55 08	 mov	 edx, DWORD PTR __Right$[ebp]
  00008	33 c9		 xor	 ecx, ecx
  0000a	3b 02		 cmp	 eax, DWORD PTR [edx]
  0000c	0f 95 c0	 setne	 al

; 336  : 		}

  0000f	5d		 pop	 ebp
  00010	c2 04 00	 ret	 4
??9?$_Tree_const_iterator@V?$_Tree_val@V?$_Tmap_traits@HU_MONSTER_ITEM_DROP@@U?$less@H@std@@V?$allocator@U?$pair@$$CBHU_MONSTER_ITEM_DROP@@@std@@@3@$0A@@std@@@std@@@std@@QBE_NABV01@@Z ENDP ; std::_Tree_const_iterator<std::_Tree_val<std::_Tmap_traits<int,_MONSTER_ITEM_DROP,std::less<int>,std::allocator<std::pair<int const ,_MONSTER_ITEM_DROP> >,0> > >::operator!=
_TEXT	ENDS
PUBLIC	?max_size@?$allocator@H@std@@QBEIXZ		; std::allocator<int>::max_size
; Function compile flags: /Ogtp
; File c:\program files (x86)\microsoft visual studio 10.0\vc\include\xmemory
;	COMDAT ?max_size@?$allocator@H@std@@QBEIXZ
_TEXT	SEGMENT
?max_size@?$allocator@H@std@@QBEIXZ PROC		; std::allocator<int>::max_size, COMDAT
; _this$ = ecx

; 218  : 		_SIZT _Count = (_SIZT)(-1) / sizeof (_Ty);
; 219  : 		return (0 < _Count ? _Count : 1);

  00000	b8 ff ff ff 3f	 mov	 eax, 1073741823		; 3fffffffH

; 220  : 		}

  00005	c3		 ret	 0
?max_size@?$allocator@H@std@@QBEIXZ ENDP		; std::allocator<int>::max_size
_TEXT	ENDS
PUBLIC	?_Max@?$_Tree_val@V?$_Tmap_traits@HU_MONSTER_ITEM_DROP@@U?$less@H@std@@V?$allocator@U?$pair@$$CBHU_MONSTER_ITEM_DROP@@@std@@@3@$0A@@std@@@std@@SAPAU_Node@?$_Tree_nod@V?$_Tmap_traits@HU_MONSTER_ITEM_DROP@@U?$less@H@std@@V?$allocator@U?$pair@$$CBHU_MONSTER_ITEM_DROP@@@std@@@3@$0A@@std@@@2@PAU342@@Z ; std::_Tree_val<std::_Tmap_traits<int,_MONSTER_ITEM_DROP,std::less<int>,std::allocator<std::pair<int const ,_MONSTER_ITEM_DROP> >,0> >::_Max
; Function compile flags: /Ogtp
; File c:\program files (x86)\microsoft visual studio 10.0\vc\include\xtree
;	COMDAT ?_Max@?$_Tree_val@V?$_Tmap_traits@HU_MONSTER_ITEM_DROP@@U?$less@H@std@@V?$allocator@U?$pair@$$CBHU_MONSTER_ITEM_DROP@@@std@@@3@$0A@@std@@@std@@SAPAU_Node@?$_Tree_nod@V?$_Tmap_traits@HU_MONSTER_ITEM_DROP@@U?$less@H@std@@V?$allocator@U?$pair@$$CBHU_MONSTER_ITEM_DROP@@@std@@@3@$0A@@std@@@2@PAU342@@Z
_TEXT	SEGMENT
__Pnode$ = 8						; size = 4
