; Listing generated by Microsoft (R) Optimizing Compiler Version 16.00.30319.01 

	TITLE	C:\Users\faelhs\mu-1.1\eMu - GameServer Sapphire S0\GameServer\Commands.cpp
	.686P
	.XMM
	include listing.inc
	.model	flat

INCLUDELIB LIBCMT
INCLUDELIB OLDNAMES

PUBLIC	?gCommands@@3VCCommands@@A			; gCommands
_BSS	SEGMENT
?gCommands@@3VCCommands@@A DB 0bd10H DUP (?)		; gCommands
_BSS	ENDS
PUBLIC	??_C@_0BM@CBACLGEP@?$FLCOMMANDS?5FILE?$FN?5Carregado?5?$CB?$AA@ ; `string'
PUBLIC	??_C@_0CG@DKJIOGK@Command_CharInfo_NeedMasterReset@ ; `string'
PUBLIC	??_C@_0CG@BKLCLPCL@Command_CharInfo_NeedMasterReset@ ; `string'
PUBLIC	??_C@_0CG@DBJPOMOI@Command_CharInfo_NeedMasterReset@ ; `string'
PUBLIC	??_C@_0CG@BCFNFCDP@Command_CharInfo_NeedMasterReset@ ; `string'
PUBLIC	??_C@_0CA@DMKGCIPL@Command_CharInfo_NeedResetsVip3?$AA@ ; `string'
PUBLIC	??_C@_0CA@CFLNBJLK@Command_CharInfo_NeedResetsVip2?$AA@ ; `string'
PUBLIC	??_C@_0CA@OJAEKHJ@Command_CharInfo_NeedResetsVip1?$AA@ ; `string'
PUBLIC	??_C@_0CA@CNFCPEKO@Command_CharInfo_NeedResetsFree?$AA@ ; `string'
PUBLIC	??_C@_0BP@GLHNOAFH@Command_CharInfo_NeedMoneyVip3?$AA@ ; `string'
PUBLIC	??_C@_0BP@HCGGNBBG@Command_CharInfo_NeedMoneyVip2?$AA@ ; `string'
PUBLIC	??_C@_0BP@FJELICNF@Command_CharInfo_NeedMoneyVip1?$AA@ ; `string'
PUBLIC	??_C@_0BP@HKIJDMAC@Command_CharInfo_NeedMoneyFree?$AA@ ; `string'
PUBLIC	??_C@_0BP@ONNELIEB@Command_CharInfo_NeedLevelVip3?$AA@ ; `string'
PUBLIC	??_C@_0BP@PEMPIJAA@Command_CharInfo_NeedLevelVip2?$AA@ ; `string'
PUBLIC	??_C@_0BP@NPOCNKMD@Command_CharInfo_NeedLevelVip1?$AA@ ; `string'
PUBLIC	??_C@_0BP@PMCAGEBE@Command_CharInfo_NeedLevelFree?$AA@ ; `string'
PUBLIC	??_C@_0BM@MHOKHMCO@Command_CharInfo_SwitchVip3?$AA@ ; `string'
PUBLIC	??_C@_0BM@NOPBENGP@Command_CharInfo_SwitchVip2?$AA@ ; `string'
PUBLIC	??_C@_0BM@PFNMBOKM@Command_CharInfo_SwitchVip1?$AA@ ; `string'
PUBLIC	??_C@_0BM@NGBOKAHL@Command_CharInfo_SwitchFree?$AA@ ; `string'
PUBLIC	??_C@_0BJ@HLHDGBMN@Command_CharInfo_Enabled?$AA@ ; `string'
PUBLIC	??_C@_0BI@JBAIDPBK@Command_CharInfo_Sintax?$AA@	; `string'
PUBLIC	??_C@_0CG@IKPCBLPH@Command_AltClass_NeedMasterReset@ ; `string'
PUBLIC	??_C@_0CG@JDOJCKLG@Command_AltClass_NeedMasterReset@ ; `string'
PUBLIC	??_C@_0CG@LIMEHJHF@Command_AltClass_NeedMasterReset@ ; `string'
PUBLIC	??_C@_0CG@JLAGMHKC@Command_AltClass_NeedMasterReset@ ; `string'
PUBLIC	??_C@_0CA@HOLAJGEF@Command_AltClass_NeedResetsVip3?$AA@ ; `string'
PUBLIC	??_C@_0CA@GHKLKHAE@Command_AltClass_NeedResetsVip2?$AA@ ; `string'
PUBLIC	??_C@_0CA@EMIGPEMH@Command_AltClass_NeedResetsVip1?$AA@ ; `string'
PUBLIC	??_C@_0CA@GPEEEKBA@Command_AltClass_NeedResetsFree?$AA@ ; `string'
PUBLIC	??_C@_0BP@MPFLDCHO@Command_AltClass_NeedMoneyVip3?$AA@ ; `string'
PUBLIC	??_C@_0BP@NGEAADDP@Command_AltClass_NeedMoneyVip2?$AA@ ; `string'
PUBLIC	??_C@_0BP@PNGNFAPM@Command_AltClass_NeedMoneyVip1?$AA@ ; `string'
PUBLIC	??_C@_0BP@NOKPOOCL@Command_AltClass_NeedMoneyFree?$AA@ ; `string'
PUBLIC	??_C@_0BP@EJPCGKGI@Command_AltClass_NeedLevelVip3?$AA@ ; `string'
PUBLIC	??_C@_0BP@FAOJFLCJ@Command_AltClass_NeedLevelVip2?$AA@ ; `string'
PUBLIC	??_C@_0BP@HLMEAIOK@Command_AltClass_NeedLevelVip1?$AA@ ; `string'
PUBLIC	??_C@_0BP@FIAGLGDN@Command_AltClass_NeedLevelFree?$AA@ ; `string'
PUBLIC	??_C@_0BM@GFADHCKN@Command_AltClass_SwitchVip3?$AA@ ; `string'
PUBLIC	??_C@_0BM@HMBIEDOM@Command_AltClass_SwitchVip2?$AA@ ; `string'
PUBLIC	??_C@_0BM@FHDFBACP@Command_AltClass_SwitchVip1?$AA@ ; `string'
PUBLIC	??_C@_0BM@HEPHKOPI@Command_AltClass_SwitchFree?$AA@ ; `string'
PUBLIC	??_C@_0BJ@ELEFHPD@Command_AltClass_Enabled?$AA@	; `string'
PUBLIC	??_C@_0BL@HBPKEPPL@Command_AltClass_Sintax_DL?$AA@ ; `string'
PUBLIC	??_C@_0BL@JNNPKNLP@Command_AltClass_Sintax_MG?$AA@ ; `string'
PUBLIC	??_C@_0BL@KPOJMPDN@Command_AltClass_Sintax_ME?$AA@ ; `string'
PUBLIC	??_C@_0BL@KDLMCANM@Command_AltClass_Sintax_FE?$AA@ ; `string'
PUBLIC	??_C@_0BL@DKDGKFIO@Command_AltClass_Sintax_BK?$AA@ ; `string'
PUBLIC	??_C@_0BL@DOLLNJDM@Command_AltClass_Sintax_DK?$AA@ ; `string'
PUBLIC	??_C@_0BL@HBIIMLEP@Command_AltClass_Sintax_SM?$AA@ ; `string'
PUBLIC	??_C@_0BL@NIMMIEGB@Command_AltClass_Sintax_DW?$AA@ ; `string'
PUBLIC	??_C@_0CK@MKPNMCKB@Command_EventManager_NeedMasterR@ ; `string'
PUBLIC	??_C@_0CK@NDOGPDOA@Command_EventManager_NeedMasterR@ ; `string'
PUBLIC	??_C@_0CK@PIMLKACD@Command_EventManager_NeedMasterR@ ; `string'
PUBLIC	??_C@_0CK@NLAJBOPE@Command_EventManager_NeedMasterR@ ; `string'
PUBLIC	??_C@_0CE@HNMIHNAI@Command_EventManager_NeedResetsV@ ; `string'
PUBLIC	??_C@_0CE@GENDEMEJ@Command_EventManager_NeedResetsV@ ; `string'
PUBLIC	??_C@_0CE@EPPOBPIK@Command_EventManager_NeedResetsV@ ; `string'
PUBLIC	??_C@_0CE@GMDMKBFN@Command_EventManager_NeedResetsF@ ; `string'
PUBLIC	??_C@_0CD@BFCHDPM@Command_EventManager_NeedMoneyVi@ ; `string'
PUBLIC	??_C@_0CD@BIEJECLN@Command_EventManager_NeedMoneyVi@ ; `string'
PUBLIC	??_C@_0CD@DDGEBBHO@Command_EventManager_NeedMoneyVi@ ; `string'
PUBLIC	??_C@_0CD@BAKGKPKJ@Command_EventManager_NeedMoneyFr@ ; `string'
PUBLIC	??_C@_0CD@IHPLCLOK@Command_EventManager_NeedLevelVi@ ; `string'
PUBLIC	??_C@_0CD@JOOABKKL@Command_EventManager_NeedLevelVi@ ; `string'
PUBLIC	??_C@_0CD@LFMNEJGI@Command_EventManager_NeedLevelVi@ ; `string'
PUBLIC	??_C@_0CD@JGAPPHLP@Command_EventManager_NeedLevelFr@ ; `string'
PUBLIC	??_C@_0CA@MMEFACOF@Command_EventManager_SwitchVip3?$AA@ ; `string'
PUBLIC	??_C@_0CA@NFFODDKE@Command_EventManager_SwitchVip2?$AA@ ; `string'
PUBLIC	??_C@_0CA@POHDGAGH@Command_EventManager_SwitchVip1?$AA@ ; `string'
PUBLIC	??_C@_0CA@NNLBNOLA@Command_EventManager_SwitchFree?$AA@ ; `string'
PUBLIC	??_C@_0BN@JJFMLIFH@Command_EventManager_Enabled?$AA@ ; `string'
PUBLIC	??_C@_0CC@DMKIEDEK@Command_EventManager_Sintax_Ente@ ; `string'
PUBLIC	??_C@_0CB@BBMKKDLF@Command_EventManager_Sintax_Open@ ; `string'
PUBLIC	??_C@_0CL@EAKGCKJK@Command_WarehouseInfo_NeedMaster@ ; `string'
PUBLIC	??_C@_0CL@FJLNBLNL@Command_WarehouseInfo_NeedMaster@ ; `string'
PUBLIC	??_C@_0CL@HCJAEIBI@Command_WarehouseInfo_NeedMaster@ ; `string'
PUBLIC	??_C@_0CL@FBFCPGMP@Command_WarehouseInfo_NeedMaster@ ; `string'
PUBLIC	??_C@_0CF@EJIDLHON@Command_WarehouseInfo_NeedResets@ ; `string'
PUBLIC	??_C@_0CF@FAJIIGKM@Command_WarehouseInfo_NeedResets@ ; `string'
PUBLIC	??_C@_0CF@HLLFNFGP@Command_WarehouseInfo_NeedResets@ ; `string'
PUBLIC	??_C@_0CF@FIHHGLLI@Command_WarehouseInfo_NeedResets@ ; `string'
PUBLIC	??_C@_0CE@CEEBGKJF@Command_WarehouseInfo_NeedMoneyV@ ; `string'
PUBLIC	??_C@_0CE@DNFKFLNE@Command_WarehouseInfo_NeedMoneyV@ ; `string'
PUBLIC	??_C@_0CE@BGHHAIBH@Command_WarehouseInfo_NeedMoneyV@ ; `string'
PUBLIC	??_C@_0CE@DFLFLGMA@Command_WarehouseInfo_NeedMoneyF@ ; `string'
PUBLIC	??_C@_0CE@KCOIDCID@Command_WarehouseInfo_NeedLevelV@ ; `string'
PUBLIC	??_C@_0CE@LLPDADMC@Command_WarehouseInfo_NeedLevelV@ ; `string'
PUBLIC	??_C@_0CE@JANOFAAB@Command_WarehouseInfo_NeedLevelV@ ; `string'
PUBLIC	??_C@_0CE@LDBMOONG@Command_WarehouseInfo_NeedLevelF@ ; `string'
PUBLIC	??_C@_0CB@FNPOIPHL@Command_WarehouseInfo_SwitchVip3@ ; `string'
PUBLIC	??_C@_0CB@EEOFLODK@Command_WarehouseInfo_SwitchVip2@ ; `string'
PUBLIC	??_C@_0CB@GPMIONPJ@Command_WarehouseInfo_SwitchVip1@ ; `string'
PUBLIC	??_C@_0CB@EMAKFDCO@Command_WarehouseInfo_SwitchFree@ ; `string'
PUBLIC	??_C@_0BO@MBMHNJID@Command_WarehouseInfo_Enabled?$AA@ ; `string'
PUBLIC	??_C@_0BN@PFIGHEOO@Command_WarehouseInfo_Sintax?$AA@ ; `string'
PUBLIC	??_C@_0BM@EGPJOGGJ@Command_OpenWarehouse_Delay?$AA@ ; `string'
PUBLIC	??_C@_0CL@BKCJFIJD@Command_OpenWarehouse_NeedMaster@ ; `string'
PUBLIC	??_C@_0CL@DDCGJNC@Command_OpenWarehouse_NeedMaster@ ; `string'
PUBLIC	??_C@_0CL@CIBPDKBB@Command_OpenWarehouse_NeedMaster@ ; `string'
PUBLIC	??_C@_0CL@LNNIEMG@Command_OpenWarehouse_NeedMaster@ ; `string'
PUBLIC	??_C@_0CF@OCIBBPDB@Command_OpenWarehouse_NeedResets@ ; `string'
PUBLIC	??_C@_0CF@PLJKCOHA@Command_OpenWarehouse_NeedResets@ ; `string'
PUBLIC	??_C@_0CF@NALHHNLD@Command_OpenWarehouse_NeedResets@ ; `string'
PUBLIC	??_C@_0CF@PDHFMDGE@Command_OpenWarehouse_NeedResets@ ; `string'
PUBLIC	??_C@_0CE@PHNEOPLK@Command_OpenWarehouse_NeedMoneyV@ ; `string'
PUBLIC	??_C@_0CE@OOMPNOPL@Command_OpenWarehouse_NeedMoneyV@ ; `string'
PUBLIC	??_C@_0CE@MFOCINDI@Command_OpenWarehouse_NeedMoneyV@ ; `string'
PUBLIC	??_C@_0CE@OGCADDOP@Command_OpenWarehouse_NeedMoneyF@ ; `string'
PUBLIC	??_C@_0CE@HBHNLHKM@Command_OpenWarehouse_NeedLevelV@ ; `string'
PUBLIC	??_C@_0CE@GIGGIGON@Command_OpenWarehouse_NeedLevelV@ ; `string'
PUBLIC	??_C@_0CE@EDELNFCO@Command_OpenWarehouse_NeedLevelV@ ; `string'
PUBLIC	??_C@_0CE@GAIJGLPJ@Command_OpenWarehouse_NeedLevelF@ ; `string'
PUBLIC	??_C@_0CB@NHLEJAKM@Command_OpenWarehouse_SwitchVip3@ ; `string'
PUBLIC	??_C@_0CB@MOKPKBON@Command_OpenWarehouse_SwitchVip2@ ; `string'
PUBLIC	??_C@_0CB@OFICPCCO@Command_OpenWarehouse_SwitchVip1@ ; `string'
PUBLIC	??_C@_0CB@MGEAEMPJ@Command_OpenWarehouse_SwitchFree@ ; `string'
PUBLIC	??_C@_0BO@OAIPOMPF@Command_OpenWarehouse_Enabled?$AA@ ; `string'
PUBLIC	??_C@_0BN@JEHLHNK@Command_OpenWarehouse_Sintax?$AA@ ; `string'
PUBLIC	??_C@_0BI@FBEFGMIJ@Command_Warehouse_Delay?$AA@	; `string'
PUBLIC	??_C@_0CB@HNFHPICI@Command_Warehouse_WareNumberVip3@ ; `string'
PUBLIC	??_C@_0CB@GEEMMJGJ@Command_Warehouse_WareNumberVip2@ ; `string'
PUBLIC	??_C@_0CB@EPGBJKKK@Command_Warehouse_WareNumberVip1@ ; `string'
PUBLIC	??_C@_0CB@GMKDCEHN@Command_Warehouse_WareNumberFree@ ; `string'
PUBLIC	??_C@_0BL@PPHAJHDA@Command_Warehouse_WareType?$AA@ ; `string'
PUBLIC	??_C@_0CH@CPNKNAC@Command_Warehouse_NeedMasterRese@ ; `string'
PUBLIC	??_C@_0CH@BLOGJMED@Command_Warehouse_NeedMasterRese@ ; `string'
PUBLIC	??_C@_0CH@DAMLMPIA@Command_Warehouse_NeedMasterRese@ ; `string'
PUBLIC	??_C@_0CH@BDAJHBFH@Command_Warehouse_NeedMasterRese@ ; `string'
PUBLIC	??_C@_0CB@ODEKBADP@Command_Warehouse_NeedResetsVip3@ ; `string'
PUBLIC	??_C@_0CB@PKFBCBHO@Command_Warehouse_NeedResetsVip2@ ; `string'
PUBLIC	??_C@_0CB@NBHMHCLN@Command_Warehouse_NeedResetsVip1@ ; `string'
PUBLIC	??_C@_0CB@PCLOMMGK@Command_Warehouse_NeedResetsFree@ ; `string'
PUBLIC	??_C@_0CA@OHKKOHPL@Command_Warehouse_NeedMoneyVip3?$AA@ ; `string'
PUBLIC	??_C@_0CA@POLBNGLK@Command_Warehouse_NeedMoneyVip2?$AA@ ; `string'
PUBLIC	??_C@_0CA@NFJMIFHJ@Command_Warehouse_NeedMoneyVip1?$AA@ ; `string'
PUBLIC	??_C@_0CA@PGFODLKO@Command_Warehouse_NeedMoneyFree?$AA@ ; `string'
PUBLIC	??_C@_0CA@GBADLPON@Command_Warehouse_NeedLevelVip3?$AA@ ; `string'
PUBLIC	??_C@_0CA@HIBIIOKM@Command_Warehouse_NeedLevelVip2?$AA@ ; `string'
PUBLIC	??_C@_0CA@FDDFNNGP@Command_Warehouse_NeedLevelVip1?$AA@ ; `string'
PUBLIC	??_C@_0CA@HAPHGDLI@Command_Warehouse_NeedLevelFree?$AA@ ; `string'
PUBLIC	??_C@_0BN@LEEDICMO@Command_Warehouse_SwitchVip3?$AA@ ; `string'
PUBLIC	??_C@_0BN@KNFILDIP@Command_Warehouse_SwitchVip2?$AA@ ; `string'
PUBLIC	??_C@_0BN@IGHFOAEM@Command_Warehouse_SwitchVip1?$AA@ ; `string'
PUBLIC	??_C@_0BN@KFLHFOJL@Command_Warehouse_SwitchFree?$AA@ ; `string'
PUBLIC	??_C@_0BK@LDJMGCJL@Command_Warehouse_Enabled?$AA@ ; `string'
PUBLIC	??_C@_0BJ@KJFKOJCI@Command_Warehouse_Sintax?$AA@ ; `string'
PUBLIC	??_C@_0CJ@MDKMIKBH@Command_ReAddPoints_NeedMasterRe@ ; `string'
PUBLIC	??_C@_0CJ@NKLHLLFG@Command_ReAddPoints_NeedMasterRe@ ; `string'
PUBLIC	??_C@_0CJ@PBJKOIJF@Command_ReAddPoints_NeedMasterRe@ ; `string'
PUBLIC	??_C@_0CJ@NCFIFGEC@Command_ReAddPoints_NeedMasterRe@ ; `string'
PUBLIC	??_C@_0CD@NLKEPLJL@Command_ReAddPoints_NeedResetsVi@ ; `string'
PUBLIC	??_C@_0CD@MCLPMKNK@Command_ReAddPoints_NeedResetsVi@ ; `string'
PUBLIC	??_C@_0CD@OJJCJJBJ@Command_ReAddPoints_NeedResetsVi@ ; `string'
PUBLIC	??_C@_0CD@MKFACHMO@Command_ReAddPoints_NeedResetsFr@ ; `string'
PUBLIC	??_C@_0CC@NBIDIHFJ@Command_ReAddPoints_NeedMoneyVip@ ; `string'
PUBLIC	??_C@_0CC@MIJILGBI@Command_ReAddPoints_NeedMoneyVip@ ; `string'
PUBLIC	??_C@_0CC@ODLFOFNL@Command_ReAddPoints_NeedMoneyVip@ ; `string'
PUBLIC	??_C@_0CC@MAHHFLAM@Command_ReAddPoints_NeedMoneyFre@ ; `string'
PUBLIC	??_C@_0CC@FHCKNPEP@Command_ReAddPoints_NeedLevelVip@ ; `string'
PUBLIC	??_C@_0CC@EODBOOAO@Command_ReAddPoints_NeedLevelVip@ ; `string'
PUBLIC	??_C@_0CC@GFBMLNMN@Command_ReAddPoints_NeedLevelVip@ ; `string'
PUBLIC	??_C@_0CC@EGNOADBK@Command_ReAddPoints_NeedLevelFre@ ; `string'
PUBLIC	??_C@_0BP@BECBAMOD@Command_ReAddPoints_SwitchVip3?$AA@ ; `string'
PUBLIC	??_C@_0BP@NDKDNKC@Command_ReAddPoints_SwitchVip2?$AA@ ; `string'
PUBLIC	??_C@_0BP@CGBHGOGB@Command_ReAddPoints_SwitchVip1?$AA@ ; `string'
PUBLIC	??_C@_0BP@FNFNALG@Command_ReAddPoints_SwitchFree?$AA@ ; `string'
PUBLIC	??_C@_0BM@FOGNJEKA@Command_ReAddPoints_Enabled?$AA@ ; `string'
PUBLIC	??_C@_0BL@OACPPCKI@Command_ReAddPoints_Sintax?$AA@ ; `string'
PUBLIC	??_C@_0CH@ELEBEBKF@Command_AddPoints_NeedMasterRese@ ; `string'
PUBLIC	??_C@_0CH@FCFKHAOE@Command_AddPoints_NeedMasterRese@ ; `string'
PUBLIC	??_C@_0CH@HJHHCDCH@Command_AddPoints_NeedMasterRese@ ; `string'
PUBLIC	??_C@_0CH@FKLFJNPA@Command_AddPoints_NeedMasterRese@ ; `string'
PUBLIC	??_C@_0CB@LLMGOEEB@Command_AddPoints_NeedResetsVip3@ ; `string'
PUBLIC	??_C@_0CB@KCNNNFAA@Command_AddPoints_NeedResetsVip2@ ; `string'
PUBLIC	??_C@_0CB@IJPAIGMD@Command_AddPoints_NeedResetsVip1@ ; `string'
PUBLIC	??_C@_0CB@KKDCDIBE@Command_AddPoints_NeedResetsFree@ ; `string'
PUBLIC	??_C@_0CA@DBCIIMG@Command_AddPoints_NeedMoneyVip3?$AA@ ; `string'
PUBLIC	??_C@_0CA@BKAJLJIH@Command_AddPoints_NeedMoneyVip2?$AA@ ; `string'
PUBLIC	??_C@_0CA@DBCEOKEE@Command_AddPoints_NeedMoneyVip1?$AA@ ; `string'
PUBLIC	??_C@_0CA@BCOGFEJD@Command_AddPoints_NeedMoneyFree?$AA@ ; `string'
PUBLIC	??_C@_0CA@IFLLNANA@Command_AddPoints_NeedLevelVip3?$AA@ ; `string'
PUBLIC	??_C@_0CA@JMKAOBJB@Command_AddPoints_NeedLevelVip2?$AA@ ; `string'
PUBLIC	??_C@_0CA@LHINLCFC@Command_AddPoints_NeedLevelVip1?$AA@ ; `string'
PUBLIC	??_C@_0CA@JEEPAMIF@Command_AddPoints_NeedLevelFree?$AA@ ; `string'
PUBLIC	??_C@_0BN@KDCLAPPE@Command_AddPoints_SwitchVip3?$AA@ ; `string'
PUBLIC	??_C@_0BN@LKDADOLF@Command_AddPoints_SwitchVip2?$AA@ ; `string'
PUBLIC	??_C@_0BN@JBBNGNHG@Command_AddPoints_SwitchVip1?$AA@ ; `string'
PUBLIC	??_C@_0BN@LCNPNDKB@Command_AddPoints_SwitchFree?$AA@ ; `string'
PUBLIC	??_C@_0BK@JGFCPOGJ@Command_AddPoints_Enabled?$AA@ ; `string'
PUBLIC	??_C@_0BM@CFFAJPCD@Command_AddPoints_SintaxCmd?$AA@ ; `string'
PUBLIC	??_C@_0BM@BLGGEPOH@Command_AddPoints_SintaxEne?$AA@ ; `string'
PUBLIC	??_C@_0BN@CEPHBKBK@Command_AddPoints_SiyntaxVit?$AA@ ; `string'
PUBLIC	??_C@_0BM@DHGAKMDD@Command_AddPoints_SintaxAgi?$AA@ ; `string'
PUBLIC	??_C@_0BM@HKCGOFJE@Command_AddPoints_SintaxStr?$AA@ ; `string'
PUBLIC	??_C@_0CD@JOMHIOID@Command_Money_NeedMasterResetsVi@ ; `string'
PUBLIC	??_C@_0CD@IHNMLPMC@Command_Money_NeedMasterResetsVi@ ; `string'
PUBLIC	??_C@_0CD@KMPBOMAB@Command_Money_NeedMasterResetsVi@ ; `string'
PUBLIC	??_C@_0CD@IPDDFCNG@Command_Money_NeedMasterResetsFr@ ; `string'
PUBLIC	??_C@_0BN@PMNHCKFG@Command_Money_NeedResetsVip3?$AA@ ; `string'
PUBLIC	??_C@_0BN@OFMMBLBH@Command_Money_NeedResetsVip2?$AA@ ; `string'
PUBLIC	??_C@_0BN@MOOBEINE@Command_Money_NeedResetsVip1?$AA@ ; `string'
PUBLIC	??_C@_0BN@ONCDPGAD@Command_Money_NeedResetsFree?$AA@ ; `string'
PUBLIC	??_C@_0BM@KABDOACI@Command_Money_NeedMoneyVip3?$AA@ ; `string'
PUBLIC	??_C@_0BM@LJAINBGJ@Command_Money_NeedMoneyVip2?$AA@ ; `string'
PUBLIC	??_C@_0BM@JCCFICKK@Command_Money_NeedMoneyVip1?$AA@ ; `string'
PUBLIC	??_C@_0BM@LBOHDMHN@Command_Money_NeedMoneyFree?$AA@ ; `string'
PUBLIC	??_C@_0BM@CGLKLIDO@Command_Money_NeedLevelVip3?$AA@ ; `string'
PUBLIC	??_C@_0BM@DPKBIJHP@Command_Money_NeedLevelVip2?$AA@ ; `string'
PUBLIC	??_C@_0BM@BEIMNKLM@Command_Money_NeedLevelVip1?$AA@ ; `string'
PUBLIC	??_C@_0BM@DHEOGEGL@Command_Money_NeedLevelFree?$AA@ ; `string'
PUBLIC	??_C@_0BJ@KLBEBLNG@Command_Money_SwitchVip3?$AA@ ; `string'
PUBLIC	??_C@_0BJ@LCAPCKJH@Command_Money_SwitchVip2?$AA@ ; `string'
PUBLIC	??_C@_0BJ@JJCCHJFE@Command_Money_SwitchVip1?$AA@ ; `string'
PUBLIC	??_C@_0BJ@LKOAMHID@Command_Money_SwitchFree?$AA@ ; `string'
PUBLIC	??_C@_0BG@HPFDCNMC@Command_Money_Enabled?$AA@	; `string'
PUBLIC	??_C@_0BF@GKGCCFJM@Command_Money_Sintax?$AA@	; `string'
PUBLIC	??_C@_0CB@JCOAIFMI@Command_Evo_NeedMasterResetsVip3@ ; `string'
PUBLIC	??_C@_0CB@ILPLLEIJ@Command_Evo_NeedMasterResetsVip2@ ; `string'
PUBLIC	??_C@_0CB@KANGOHEK@Command_Evo_NeedMasterResetsVip1@ ; `string'
PUBLIC	??_C@_0CB@IDBEFJJN@Command_Evo_NeedMasterResetsFree@ ; `string'
PUBLIC	??_C@_0BL@LGHABAOD@Command_Evo_NeedResetsVip3?$AA@ ; `string'
PUBLIC	??_C@_0BL@KPGLCBKC@Command_Evo_NeedResetsVip2?$AA@ ; `string'
PUBLIC	??_C@_0BL@IEEGHCGB@Command_Evo_NeedResetsVip1?$AA@ ; `string'
PUBLIC	??_C@_0BL@KHIEMMLG@Command_Evo_NeedResetsFree?$AA@ ; `string'
PUBLIC	??_C@_0BK@NIIMBEEM@Command_Evo_NeedMoneyVip3?$AA@ ; `string'
PUBLIC	??_C@_0BK@MBJHCFAN@Command_Evo_NeedMoneyVip2?$AA@ ; `string'
PUBLIC	??_C@_0BK@OKLKHGMO@Command_Evo_NeedMoneyVip1?$AA@ ; `string'
PUBLIC	??_C@_0BK@MJHIMIBJ@Command_Evo_NeedMoneyFree?$AA@ ; `string'
PUBLIC	??_C@_0BK@FOCFEMFK@Command_Evo_NeedLevelVip3?$AA@ ; `string'
PUBLIC	??_C@_0BK@EHDOHNBL@Command_Evo_NeedLevelVip2?$AA@ ; `string'
PUBLIC	??_C@_0BK@GMBDCONI@Command_Evo_NeedLevelVip1?$AA@ ; `string'
PUBLIC	??_C@_0BK@EPNBJAAP@Command_Evo_NeedLevelFree?$AA@ ; `string'
PUBLIC	??_C@_0BH@JIPAHDJF@Command_Evo_SwitchVip3?$AA@	; `string'
PUBLIC	??_C@_0BH@IBOLECNE@Command_Evo_SwitchVip2?$AA@	; `string'
PUBLIC	??_C@_0BH@KKMGBBBH@Command_Evo_SwitchVip1?$AA@	; `string'
PUBLIC	??_C@_0BH@IJAEKPMA@Command_Evo_SwitchFree?$AA@	; `string'
PUBLIC	??_C@_0BE@CDDPLADH@Command_Evo_Enabled?$AA@	; `string'
PUBLIC	??_C@_0BD@LFJFNECH@Command_Evo_Sintax?$AA@	; `string'
PUBLIC	??_C@_0CH@PKGIKIPK@Command_HeroClear_NeedMasterRese@ ; `string'
PUBLIC	??_C@_0CH@ODHDJJLL@Command_HeroClear_NeedMasterRese@ ; `string'
PUBLIC	??_C@_0CH@MIFOMKHI@Command_HeroClear_NeedMasterRese@ ; `string'
PUBLIC	??_C@_0CH@OLJMHEKP@Command_HeroClear_NeedMasterRese@ ; `string'
PUBLIC	??_C@_0CB@MOGICDLB@Command_HeroClear_NeedResetsVip3@ ; `string'
PUBLIC	??_C@_0CB@NHHDBCPA@Command_HeroClear_NeedResetsVip2@ ; `string'
PUBLIC	??_C@_0CB@PMFOEBDD@Command_HeroClear_NeedResetsVip1@ ; `string'
PUBLIC	??_C@_0CB@NPJMPPOE@Command_HeroClear_NeedResetsFree@ ; `string'
PUBLIC	??_C@_0CA@MHHGOEAE@Command_HeroClear_NeedMoneyVip3?$AA@ ; `string'
PUBLIC	??_C@_0CA@NOGNNFEF@Command_HeroClear_NeedMoneyVip2?$AA@ ; `string'
PUBLIC	??_C@_0CA@PFEAIGIG@Command_HeroClear_NeedMoneyVip1?$AA@ ; `string'
PUBLIC	??_C@_0CA@NGICDIFB@Command_HeroClear_NeedMoneyFree?$AA@ ; `string'
PUBLIC	??_C@_0CA@EBNPLMBC@Command_HeroClear_NeedLevelVip3?$AA@ ; `string'
PUBLIC	??_C@_0CA@FIMEINFD@Command_HeroClear_NeedLevelVip2?$AA@ ; `string'
PUBLIC	??_C@_0CA@HDOJNOJA@Command_HeroClear_NeedLevelVip1?$AA@ ; `string'
PUBLIC	??_C@_0CA@FACLGAEH@Command_HeroClear_NeedLevelFree?$AA@ ; `string'
PUBLIC	??_C@_0BN@FHPBGEME@Command_HeroClear_SwitchVip3?$AA@ ; `string'
PUBLIC	??_C@_0BN@EOOKFFIF@Command_HeroClear_SwitchVip2?$AA@ ; `string'
PUBLIC	??_C@_0BN@GFMHAGEG@Command_HeroClear_SwitchVip1?$AA@ ; `string'
PUBLIC	??_C@_0BN@EGAFLIJB@Command_HeroClear_SwitchFree?$AA@ ; `string'
PUBLIC	??_C@_0BK@HPCBOFKO@Command_HeroClear_Enabled?$AA@ ; `string'
PUBLIC	??_C@_0BJ@BIKKEJJM@Command_HeroClear_Sintax?$AA@ ; `string'
PUBLIC	??_C@_0CF@BKILJONK@Command_PKClear_NeedMasterResets@ ; `string'
PUBLIC	??_C@_0CF@DJAKPJL@Command_PKClear_NeedMasterResets@ ; `string'
PUBLIC	??_C@_0CF@CILNPMFI@Command_PKClear_NeedMasterResets@ ; `string'
PUBLIC	??_C@_0CF@LHPECIP@Command_PKClear_NeedMasterResets@ ; `string'
PUBLIC	??_C@_0BP@INNFANKB@Command_PKClear_NeedResetsVip3?$AA@ ; `string'
PUBLIC	??_C@_0BP@JEMODMOA@Command_PKClear_NeedResetsVip2?$AA@ ; `string'
PUBLIC	??_C@_0BP@LPODGPCD@Command_PKClear_NeedResetsVip1?$AA@ ; `string'
PUBLIC	??_C@_0BP@JMCBNBPE@Command_PKClear_NeedResetsFree?$AA@ ; `string'
PUBLIC	??_C@_0BO@BDLBJOGM@Command_PKClear_NeedMoneyVip3?$AA@ ; `string'
PUBLIC	??_C@_0BO@KKKKPCN@Command_PKClear_NeedMoneyVip2?$AA@ ; `string'
PUBLIC	??_C@_0BO@CBIHPMOO@Command_PKClear_NeedMoneyVip1?$AA@ ; `string'
PUBLIC	??_C@_0BO@CEFECDJ@Command_PKClear_NeedMoneyFree?$AA@ ; `string'
PUBLIC	??_C@_0BO@JFBIMGHK@Command_PKClear_NeedLevelVip3?$AA@ ; `string'
PUBLIC	??_C@_0BO@IMADPHDL@Command_PKClear_NeedLevelVip2?$AA@ ; `string'
PUBLIC	??_C@_0BO@KHCOKEPI@Command_PKClear_NeedLevelVip1?$AA@ ; `string'
PUBLIC	??_C@_0BO@IEOMBKCP@Command_PKClear_NeedLevelFree?$AA@ ; `string'
PUBLIC	??_C@_0BL@DLINCEIO@Command_PKClear_SwitchVip3?$AA@ ; `string'
PUBLIC	??_C@_0BL@CCJGBFMP@Command_PKClear_SwitchVip2?$AA@ ; `string'
PUBLIC	??_C@_0BL@JLLEGAM@Command_PKClear_SwitchVip1?$AA@ ; `string'
PUBLIC	??_C@_0BL@CKHJPINL@Command_PKClear_SwitchFree?$AA@ ; `string'
PUBLIC	??_C@_0BI@FCLMHIJN@Command_PKClear_Enabled?$AA@	; `string'
PUBLIC	??_C@_0BH@IHNIPHGD@Command_PKClear_Sintax?$AA@	; `string'
PUBLIC	??_C@_0BD@NIJDNKFF@Command_Post_Delay?$AA@	; `string'
PUBLIC	??_C@_0BL@NAHKPHFK@Command_Post_TypeColorVip3?$AA@ ; `string'
PUBLIC	??_C@_0BL@MJGBMGBL@Command_Post_TypeColorVip2?$AA@ ; `string'
PUBLIC	??_C@_0BL@OCEMJFNI@Command_Post_TypeColorVip1?$AA@ ; `string'
PUBLIC	??_C@_0BL@MBIOCLAP@Command_Post_TypeColorFree?$AA@ ; `string'
PUBLIC	??_C@_0CC@KDBKGIEF@Command_Post_NeedMasterResetsVip@ ; `string'
PUBLIC	??_C@_0CC@LKABFJAE@Command_Post_NeedMasterResetsVip@ ; `string'
PUBLIC	??_C@_0CC@JBCMAKMH@Command_Post_NeedMasterResetsVip@ ; `string'
PUBLIC	??_C@_0CC@LCOOLEBA@Command_Post_NeedMasterResetsFre@ ; `string'
PUBLIC	??_C@_0BM@PAEMAOFN@Command_Post_NeedResetsVip3?$AA@ ; `string'
PUBLIC	??_C@_0BM@OJFHDPBM@Command_Post_NeedResetsVip2?$AA@ ; `string'
PUBLIC	??_C@_0BM@MCHKGMNP@Command_Post_NeedResetsVip1?$AA@ ; `string'
PUBLIC	??_C@_0BM@OBLINCAI@Command_Post_NeedResetsFree?$AA@ ; `string'
PUBLIC	??_C@_0BL@INCMNDOD@Command_Post_NeedMoneyVip3?$AA@ ; `string'
PUBLIC	??_C@_0BL@JEDHOCKC@Command_Post_NeedMoneyVip2?$AA@ ; `string'
PUBLIC	??_C@_0BL@LPBKLBGB@Command_Post_NeedMoneyVip1?$AA@ ; `string'
PUBLIC	??_C@_0BL@JMNIAPLG@Command_Post_NeedMoneyFree?$AA@ ; `string'
PUBLIC	??_C@_0BL@LIFILPF@Command_Post_NeedLevelVip3?$AA@ ; `string'
PUBLIC	??_C@_0BL@BCJOLKLE@Command_Post_NeedLevelVip2?$AA@ ; `string'
PUBLIC	??_C@_0BL@DJLDOJHH@Command_Post_NeedLevelVip1?$AA@ ; `string'
PUBLIC	??_C@_0BL@BKHBFHKA@Command_Post_NeedLevelFree?$AA@ ; `string'
PUBLIC	??_C@_0BI@KDBKGLFA@Command_Post_SwitchVip3?$AA@	; `string'
PUBLIC	??_C@_0BI@LKABFKBB@Command_Post_SwitchVip2?$AA@	; `string'
PUBLIC	??_C@_0BI@JBCMAJNC@Command_Post_SwitchVip1?$AA@	; `string'
PUBLIC	??_C@_0BI@LCOOLHAF@Command_Post_SwitchFree?$AA@	; `string'
PUBLIC	??_C@_0BF@LMBDHHOH@Command_Post_Enabled?$AA@	; `string'
PUBLIC	??_C@_08JNEOMACB@Commands?$AA@			; `string'
PUBLIC	??_C@_0BE@CGLGKBGB@Command_Post_Sintax?$AA@	; `string'
PUBLIC	??_C@_0CE@BMBMBCJB@?4?2Customs?2Commands?2Hgt_Commands?4@ ; `string'
PUBLIC	?Load@CCommands@@QAEXXZ				; CCommands::Load
EXTRN	?LogAdd@@YAXW4eLogColor@@PADZZ:PROC		; LogAdd
EXTRN	?gEventManager@@3VCEventManager@@A:BYTE		; gEventManager
EXTRN	__imp__GetPrivateProfileIntA@16:PROC
EXTRN	__imp__GetPrivateProfileStringA@24:PROC
;	COMDAT ??_C@_0BM@CBACLGEP@?$FLCOMMANDS?5FILE?$FN?5Carregado?5?$CB?$AA@
; File c:\users\faelhs\mu-1.1\emu - gameserver sapphire s0\gameserver\commands.cpp
CONST	SEGMENT
??_C@_0BM@CBACLGEP@?$FLCOMMANDS?5FILE?$FN?5Carregado?5?$CB?$AA@ DB '[COMM'
	DB	'ANDS FILE] Carregado !', 00H		; `string'
CONST	ENDS
;	COMDAT ??_C@_0CG@DKJIOGK@Command_CharInfo_NeedMasterReset@
CONST	SEGMENT
??_C@_0CG@DKJIOGK@Command_CharInfo_NeedMasterReset@ DB 'Command_CharInfo_'
	DB	'NeedMasterResetsVip3', 00H			; `string'
CONST	ENDS
;	COMDAT ??_C@_0CG@BKLCLPCL@Command_CharInfo_NeedMasterReset@
CONST	SEGMENT
??_C@_0CG@BKLCLPCL@Command_CharInfo_NeedMasterReset@ DB 'Command_CharInfo'
	DB	'_NeedMasterResetsVip2', 00H			; `string'
CONST	ENDS
;	COMDAT ??_C@_0CG@DBJPOMOI@Command_CharInfo_NeedMasterReset@
CONST	SEGMENT
??_C@_0CG@DBJPOMOI@Command_CharInfo_NeedMasterReset@ DB 'Command_CharInfo'
	DB	'_NeedMasterResetsVip1', 00H			; `string'
CONST	ENDS
;	COMDAT ??_C@_0CG@BCFNFCDP@Command_CharInfo_NeedMasterReset@
CONST	SEGMENT
??_C@_0CG@BCFNFCDP@Command_CharInfo_NeedMasterReset@ DB 'Command_CharInfo'
	DB	'_NeedMasterResetsFree', 00H			; `string'
CONST	ENDS
;	COMDAT ??_C@_0CA@DMKGCIPL@Command_CharInfo_NeedResetsVip3?$AA@
CONST	SEGMENT
??_C@_0CA@DMKGCIPL@Command_CharInfo_NeedResetsVip3?$AA@ DB 'Command_CharI'
	DB	'nfo_NeedResetsVip3', 00H			; `string'
CONST	ENDS
;	COMDAT ??_C@_0CA@CFLNBJLK@Command_CharInfo_NeedResetsVip2?$AA@
CONST	SEGMENT
??_C@_0CA@CFLNBJLK@Command_CharInfo_NeedResetsVip2?$AA@ DB 'Command_CharI'
	DB	'nfo_NeedResetsVip2', 00H			; `string'
CONST	ENDS
;	COMDAT ??_C@_0CA@OJAEKHJ@Command_CharInfo_NeedResetsVip1?$AA@
CONST	SEGMENT
??_C@_0CA@OJAEKHJ@Command_CharInfo_NeedResetsVip1?$AA@ DB 'Command_CharIn'
	DB	'fo_NeedResetsVip1', 00H			; `string'
CONST	ENDS
;	COMDAT ??_C@_0CA@CNFCPEKO@Command_CharInfo_NeedResetsFree?$AA@
CONST	SEGMENT
??_C@_0CA@CNFCPEKO@Command_CharInfo_NeedResetsFree?$AA@ DB 'Command_CharI'
	DB	'nfo_NeedResetsFree', 00H			; `string'
CONST	ENDS
;	COMDAT ??_C@_0BP@GLHNOAFH@Command_CharInfo_NeedMoneyVip3?$AA@
CONST	SEGMENT
??_C@_0BP@GLHNOAFH@Command_CharInfo_NeedMoneyVip3?$AA@ DB 'Command_CharIn'
	DB	'fo_NeedMoneyVip3', 00H			; `string'
CONST	ENDS
;	COMDAT ??_C@_0BP@HCGGNBBG@Command_CharInfo_NeedMoneyVip2?$AA@
CONST	SEGMENT
??_C@_0BP@HCGGNBBG@Command_CharInfo_NeedMoneyVip2?$AA@ DB 'Command_CharIn'
	DB	'fo_NeedMoneyVip2', 00H			; `string'
CONST	ENDS
;	COMDAT ??_C@_0BP@FJELICNF@Command_CharInfo_NeedMoneyVip1?$AA@
CONST	SEGMENT
??_C@_0BP@FJELICNF@Command_CharInfo_NeedMoneyVip1?$AA@ DB 'Command_CharIn'
	DB	'fo_NeedMoneyVip1', 00H			; `string'
CONST	ENDS
;	COMDAT ??_C@_0BP@HKIJDMAC@Command_CharInfo_NeedMoneyFree?$AA@
CONST	SEGMENT
??_C@_0BP@HKIJDMAC@Command_CharInfo_NeedMoneyFree?$AA@ DB 'Command_CharIn'
	DB	'fo_NeedMoneyFree', 00H			; `string'
CONST	ENDS
;	COMDAT ??_C@_0BP@ONNELIEB@Command_CharInfo_NeedLevelVip3?$AA@
CONST	SEGMENT
??_C@_0BP@ONNELIEB@Command_CharInfo_NeedLevelVip3?$AA@ DB 'Command_CharIn'
	DB	'fo_NeedLevelVip3', 00H			; `string'
CONST	ENDS
;	COMDAT ??_C@_0BP@PEMPIJAA@Command_CharInfo_NeedLevelVip2?$AA@
CONST	SEGMENT
??_C@_0BP@PEMPIJAA@Command_CharInfo_NeedLevelVip2?$AA@ DB 'Command_CharIn'
	DB	'fo_NeedLevelVip2', 00H			; `string'
CONST	ENDS
;	COMDAT ??_C@_0BP@NPOCNKMD@Command_CharInfo_NeedLevelVip1?$AA@
CONST	SEGMENT
??_C@_0BP@NPOCNKMD@Command_CharInfo_NeedLevelVip1?$AA@ DB 'Command_CharIn'
	DB	'fo_NeedLevelVip1', 00H			; `string'
CONST	ENDS
;	COMDAT ??_C@_0BP@PMCAGEBE@Command_CharInfo_NeedLevelFree?$AA@
CONST	SEGMENT
??_C@_0BP@PMCAGEBE@Command_CharInfo_NeedLevelFree?$AA@ DB 'Command_CharIn'
	DB	'fo_NeedLevelFree', 00H			; `string'
CONST	ENDS
;	COMDAT ??_C@_0BM@MHOKHMCO@Command_CharInfo_SwitchVip3?$AA@
CONST	SEGMENT
??_C@_0BM@MHOKHMCO@Command_CharInfo_SwitchVip3?$AA@ DB 'Command_CharInfo_'
	DB	'SwitchVip3', 00H				; `string'
CONST	ENDS
;	COMDAT ??_C@_0BM@NOPBENGP@Command_CharInfo_SwitchVip2?$AA@
CONST	SEGMENT
??_C@_0BM@NOPBENGP@Command_CharInfo_SwitchVip2?$AA@ DB 'Command_CharInfo_'
	DB	'SwitchVip2', 00H				; `string'
CONST	ENDS
;	COMDAT ??_C@_0BM@PFNMBOKM@Command_CharInfo_SwitchVip1?$AA@
CONST	SEGMENT
??_C@_0BM@PFNMBOKM@Command_CharInfo_SwitchVip1?$AA@ DB 'Command_CharInfo_'
	DB	'SwitchVip1', 00H				; `string'
CONST	ENDS
;	COMDAT ??_C@_0BM@NGBOKAHL@Command_CharInfo_SwitchFree?$AA@
CONST	SEGMENT
??_C@_0BM@NGBOKAHL@Command_CharInfo_SwitchFree?$AA@ DB 'Command_CharInfo_'
	DB	'SwitchFree', 00H				; `string'
CONST	ENDS
;	COMDAT ??_C@_0BJ@HLHDGBMN@Command_CharInfo_Enabled?$AA@
CONST	SEGMENT
??_C@_0BJ@HLHDGBMN@Command_CharInfo_Enabled?$AA@ DB 'Command_CharInfo_Ena'
	DB	'bled', 00H					; `string'
CONST	ENDS
;	COMDAT ??_C@_0BI@JBAIDPBK@Command_CharInfo_Sintax?$AA@
CONST	SEGMENT
??_C@_0BI@JBAIDPBK@Command_CharInfo_Sintax?$AA@ DB 'Command_CharInfo_Sint'
	DB	'ax', 00H					; `string'
CONST	ENDS
;	COMDAT ??_C@_0CG@IKPCBLPH@Command_AltClass_NeedMasterReset@
CONST	SEGMENT
??_C@_0CG@IKPCBLPH@Command_AltClass_NeedMasterReset@ DB 'Command_AltClass'
	DB	'_NeedMasterResetsVip3', 00H			; `string'
CONST	ENDS
;	COMDAT ??_C@_0CG@JDOJCKLG@Command_AltClass_NeedMasterReset@
CONST	SEGMENT
??_C@_0CG@JDOJCKLG@Command_AltClass_NeedMasterReset@ DB 'Command_AltClass'
	DB	'_NeedMasterResetsVip2', 00H			; `string'
CONST	ENDS
;	COMDAT ??_C@_0CG@LIMEHJHF@Command_AltClass_NeedMasterReset@
CONST	SEGMENT
??_C@_0CG@LIMEHJHF@Command_AltClass_NeedMasterReset@ DB 'Command_AltClass'
	DB	'_NeedMasterResetsVip1', 00H			; `string'
CONST	ENDS
;	COMDAT ??_C@_0CG@JLAGMHKC@Command_AltClass_NeedMasterReset@
CONST	SEGMENT
??_C@_0CG@JLAGMHKC@Command_AltClass_NeedMasterReset@ DB 'Command_AltClass'
	DB	'_NeedMasterResetsFree', 00H			; `string'
CONST	ENDS
;	COMDAT ??_C@_0CA@HOLAJGEF@Command_AltClass_NeedResetsVip3?$AA@
CONST	SEGMENT
??_C@_0CA@HOLAJGEF@Command_AltClass_NeedResetsVip3?$AA@ DB 'Command_AltCl'
	DB	'ass_NeedResetsVip3', 00H			; `string'
CONST	ENDS
;	COMDAT ??_C@_0CA@GHKLKHAE@Command_AltClass_NeedResetsVip2?$AA@
CONST	SEGMENT
??_C@_0CA@GHKLKHAE@Command_AltClass_NeedResetsVip2?$AA@ DB 'Command_AltCl'
	DB	'ass_NeedResetsVip2', 00H			; `string'
CONST	ENDS
;	COMDAT ??_C@_0CA@EMIGPEMH@Command_AltClass_NeedResetsVip1?$AA@
CONST	SEGMENT
??_C@_0CA@EMIGPEMH@Command_AltClass_NeedResetsVip1?$AA@ DB 'Command_AltCl'
	DB	'ass_NeedResetsVip1', 00H			; `string'
CONST	ENDS
;	COMDAT ??_C@_0CA@GPEEEKBA@Command_AltClass_NeedResetsFree?$AA@
CONST	SEGMENT
??_C@_0CA@GPEEEKBA@Command_AltClass_NeedResetsFree?$AA@ DB 'Command_AltCl'
	DB	'ass_NeedResetsFree', 00H			; `string'
CONST	ENDS
;	COMDAT ??_C@_0BP@MPFLDCHO@Command_AltClass_NeedMoneyVip3?$AA@
CONST	SEGMENT
??_C@_0BP@MPFLDCHO@Command_AltClass_NeedMoneyVip3?$AA@ DB 'Command_AltCla'
	DB	'ss_NeedMoneyVip3', 00H			; `string'
CONST	ENDS
;	COMDAT ??_C@_0BP@NGEAADDP@Command_AltClass_NeedMoneyVip2?$AA@
CONST	SEGMENT
??_C@_0BP@NGEAADDP@Command_AltClass_NeedMoneyVip2?$AA@ DB 'Command_AltCla'
	DB	'ss_NeedMoneyVip2', 00H			; `string'
CONST	ENDS
;	COMDAT ??_C@_0BP@PNGNFAPM@Command_AltClass_NeedMoneyVip1?$AA@
CONST	SEGMENT
??_C@_0BP@PNGNFAPM@Command_AltClass_NeedMoneyVip1?$AA@ DB 'Command_AltCla'
	DB	'ss_NeedMoneyVip1', 00H			; `string'
CONST	ENDS
;	COMDAT ??_C@_0BP@NOKPOOCL@Command_AltClass_NeedMoneyFree?$AA@
CONST	SEGMENT
??_C@_0BP@NOKPOOCL@Command_AltClass_NeedMoneyFree?$AA@ DB 'Command_AltCla'
	DB	'ss_NeedMoneyFree', 00H			; `string'
CONST	ENDS
;	COMDAT ??_C@_0BP@EJPCGKGI@Command_AltClass_NeedLevelVip3?$AA@
CONST	SEGMENT
??_C@_0BP@EJPCGKGI@Command_AltClass_NeedLevelVip3?$AA@ DB 'Command_AltCla'
	DB	'ss_NeedLevelVip3', 00H			; `string'
CONST	ENDS
;	COMDAT ??_C@_0BP@FAOJFLCJ@Command_AltClass_NeedLevelVip2?$AA@
CONST	SEGMENT
??_C@_0BP@FAOJFLCJ@Command_AltClass_NeedLevelVip2?$AA@ DB 'Command_AltCla'
	DB	'ss_NeedLevelVip2', 00H			; `string'
CONST	ENDS
;	COMDAT ??_C@_0BP@HLMEAIOK@Command_AltClass_NeedLevelVip1?$AA@
CONST	SEGMENT
??_C@_0BP@HLMEAIOK@Command_AltClass_NeedLevelVip1?$AA@ DB 'Command_AltCla'
	DB	'ss_NeedLevelVip1', 00H			; `string'
CONST	ENDS
;	COMDAT ??_C@_0BP@FIAGLGDN@Command_AltClass_NeedLevelFree?$AA@
CONST	SEGMENT
??_C@_0BP@FIAGLGDN@Command_AltClass_NeedLevelFree?$AA@ DB 'Command_AltCla'
	DB	'ss_NeedLevelFree', 00H			; `string'
CONST	ENDS
;	COMDAT ??_C@_0BM@GFADHCKN@Command_AltClass_SwitchVip3?$AA@
CONST	SEGMENT
??_C@_0BM@GFADHCKN@Command_AltClass_SwitchVip3?$AA@ DB 'Command_AltClass_'
	DB	'SwitchVip3', 00H				; `string'
CONST	ENDS
;	COMDAT ??_C@_0BM@HMBIEDOM@Command_AltClass_SwitchVip2?$AA@
CONST	SEGMENT
??_C@_0BM@HMBIEDOM@Command_AltClass_SwitchVip2?$AA@ DB 'Command_AltClass_'
	DB	'SwitchVip2', 00H				; `string'
CONST	ENDS
;	COMDAT ??_C@_0BM@FHDFBACP@Command_AltClass_SwitchVip1?$AA@
CONST	SEGMENT
??_C@_0BM@FHDFBACP@Command_AltClass_SwitchVip1?$AA@ DB 'Command_AltClass_'
	DB	'SwitchVip1', 00H				; `string'
CONST	ENDS
;	COMDAT ??_C@_0BM@HEPHKOPI@Command_AltClass_SwitchFree?$AA@
CONST	SEGMENT
??_C@_0BM@HEPHKOPI@Command_AltClass_SwitchFree?$AA@ DB 'Command_AltClass_'
	DB	'SwitchFree', 00H				; `string'
CONST	ENDS
;	COMDAT ??_C@_0BJ@ELEFHPD@Command_AltClass_Enabled?$AA@
CONST	SEGMENT
??_C@_0BJ@ELEFHPD@Command_AltClass_Enabled?$AA@ DB 'Command_AltClass_Enab'
	DB	'led', 00H					; `string'
CONST	ENDS
;	COMDAT ??_C@_0BL@HBPKEPPL@Command_AltClass_Sintax_DL?$AA@
CONST	SEGMENT
??_C@_0BL@HBPKEPPL@Command_AltClass_Sintax_DL?$AA@ DB 'Command_AltClass_S'
	DB	'intax_DL', 00H				; `string'
CONST	ENDS
;	COMDAT ??_C@_0BL@JNNPKNLP@Command_AltClass_Sintax_MG?$AA@
CONST	SEGMENT
??_C@_0BL@JNNPKNLP@Command_AltClass_Sintax_MG?$AA@ DB 'Command_AltClass_S'
	DB	'intax_MG', 00H				; `string'
CONST	ENDS
;	COMDAT ??_C@_0BL@KPOJMPDN@Command_AltClass_Sintax_ME?$AA@
CONST	SEGMENT
??_C@_0BL@KPOJMPDN@Command_AltClass_Sintax_ME?$AA@ DB 'Command_AltClass_S'
	DB	'intax_ME', 00H				; `string'
CONST	ENDS
;	COMDAT ??_C@_0BL@KDLMCANM@Command_AltClass_Sintax_FE?$AA@
CONST	SEGMENT
??_C@_0BL@KDLMCANM@Command_AltClass_Sintax_FE?$AA@ DB 'Command_AltClass_S'
	DB	'intax_FE', 00H				; `string'
CONST	ENDS
;	COMDAT ??_C@_0BL@DKDGKFIO@Command_AltClass_Sintax_BK?$AA@
CONST	SEGMENT
??_C@_0BL@DKDGKFIO@Command_AltClass_Sintax_BK?$AA@ DB 'Command_AltClass_S'
	DB	'intax_BK', 00H				; `string'
CONST	ENDS
;	COMDAT ??_C@_0BL@DOLLNJDM@Command_AltClass_Sintax_DK?$AA@
CONST	SEGMENT
??_C@_0BL@DOLLNJDM@Command_AltClass_Sintax_DK?$AA@ DB 'Command_AltClass_S'
	DB	'intax_DK', 00H				; `string'
CONST	ENDS
;	COMDAT ??_C@_0BL@HBIIMLEP@Command_AltClass_Sintax_SM?$AA@
CONST	SEGMENT
??_C@_0BL@HBIIMLEP@Command_AltClass_Sintax_SM?$AA@ DB 'Command_AltClass_S'
	DB	'intax_SM', 00H				; `string'
CONST	ENDS
;	COMDAT ??_C@_0BL@NIMMIEGB@Command_AltClass_Sintax_DW?$AA@
CONST	SEGMENT
??_C@_0BL@NIMMIEGB@Command_AltClass_Sintax_DW?$AA@ DB 'Command_AltClass_S'
	DB	'intax_DW', 00H				; `string'
CONST	ENDS
;	COMDAT ??_C@_0CK@MKPNMCKB@Command_EventManager_NeedMasterR@
CONST	SEGMENT
??_C@_0CK@MKPNMCKB@Command_EventManager_NeedMasterR@ DB 'Command_EventMan'
	DB	'ager_NeedMasterResetsVip3', 00H		; `string'
CONST	ENDS
;	COMDAT ??_C@_0CK@NDOGPDOA@Command_EventManager_NeedMasterR@
CONST	SEGMENT
??_C@_0CK@NDOGPDOA@Command_EventManager_NeedMasterR@ DB 'Command_EventMan'
	DB	'ager_NeedMasterResetsVip2', 00H		; `string'
CONST	ENDS
;	COMDAT ??_C@_0CK@PIMLKACD@Command_EventManager_NeedMasterR@
CONST	SEGMENT
??_C@_0CK@PIMLKACD@Command_EventManager_NeedMasterR@ DB 'Command_EventMan'
	DB	'ager_NeedMasterResetsVip1', 00H		; `string'
CONST	ENDS
;	COMDAT ??_C@_0CK@NLAJBOPE@Command_EventManager_NeedMasterR@
CONST	SEGMENT
??_C@_0CK@NLAJBOPE@Command_EventManager_NeedMasterR@ DB 'Command_EventMan'
	DB	'ager_NeedMasterResetsFree', 00H		; `string'
CONST	ENDS
;	COMDAT ??_C@_0CE@HNMIHNAI@Command_EventManager_NeedResetsV@
CONST	SEGMENT
??_C@_0CE@HNMIHNAI@Command_EventManager_NeedResetsV@ DB 'Command_EventMan'
	DB	'ager_NeedResetsVip3', 00H			; `string'
CONST	ENDS
;	COMDAT ??_C@_0CE@GENDEMEJ@Command_EventManager_NeedResetsV@
CONST	SEGMENT
??_C@_0CE@GENDEMEJ@Command_EventManager_NeedResetsV@ DB 'Command_EventMan'
	DB	'ager_NeedResetsVip2', 00H			; `string'
CONST	ENDS
;	COMDAT ??_C@_0CE@EPPOBPIK@Command_EventManager_NeedResetsV@
CONST	SEGMENT
??_C@_0CE@EPPOBPIK@Command_EventManager_NeedResetsV@ DB 'Command_EventMan'
	DB	'ager_NeedResetsVip1', 00H			; `string'
CONST	ENDS
;	COMDAT ??_C@_0CE@GMDMKBFN@Command_EventManager_NeedResetsF@
CONST	SEGMENT
??_C@_0CE@GMDMKBFN@Command_EventManager_NeedResetsF@ DB 'Command_EventMan'
	DB	'ager_NeedResetsFree', 00H			; `string'
CONST	ENDS
;	COMDAT ??_C@_0CD@BFCHDPM@Command_EventManager_NeedMoneyVi@
CONST	SEGMENT
??_C@_0CD@BFCHDPM@Command_EventManager_NeedMoneyVi@ DB 'Command_EventMana'
	DB	'ger_NeedMoneyVip3', 00H			; `string'
CONST	ENDS
;	COMDAT ??_C@_0CD@BIEJECLN@Command_EventManager_NeedMoneyVi@
CONST	SEGMENT
??_C@_0CD@BIEJECLN@Command_EventManager_NeedMoneyVi@ DB 'Command_EventMan'
	DB	'ager_NeedMoneyVip2', 00H			; `string'
CONST	ENDS
;	COMDAT ??_C@_0CD@DDGEBBHO@Command_EventManager_NeedMoneyVi@
CONST	SEGMENT
??_C@_0CD@DDGEBBHO@Command_EventManager_NeedMoneyVi@ DB 'Command_EventMan'
	DB	'ager_NeedMoneyVip1', 00H			; `string'
CONST	ENDS
;	COMDAT ??_C@_0CD@BAKGKPKJ@Command_EventManager_NeedMoneyFr@
CONST	SEGMENT
??_C@_0CD@BAKGKPKJ@Command_EventManager_NeedMoneyFr@ DB 'Command_EventMan'
	DB	'ager_NeedMoneyFree', 00H			; `string'
CONST	ENDS
;	COMDAT ??_C@_0CD@IHPLCLOK@Command_EventManager_NeedLevelVi@
CONST	SEGMENT
??_C@_0CD@IHPLCLOK@Command_EventManager_NeedLevelVi@ DB 'Command_EventMan'
	DB	'ager_NeedLevelVip3', 00H			; `string'
CONST	ENDS
;	COMDAT ??_C@_0CD@JOOABKKL@Command_EventManager_NeedLevelVi@
CONST	SEGMENT
??_C@_0CD@JOOABKKL@Command_EventManager_NeedLevelVi@ DB 'Command_EventMan'
	DB	'ager_NeedLevelVip2', 00H			; `string'
CONST	ENDS
;	COMDAT ??_C@_0CD@LFMNEJGI@Command_EventManager_NeedLevelVi@
CONST	SEGMENT
??_C@_0CD@LFMNEJGI@Command_EventManager_NeedLevelVi@ DB 'Command_EventMan'
	DB	'ager_NeedLevelVip1', 00H			; `string'
CONST	ENDS
;	COMDAT ??_C@_0CD@JGAPPHLP@Command_EventManager_NeedLevelFr@
CONST	SEGMENT
??_C@_0CD@JGAPPHLP@Command_EventManager_NeedLevelFr@ DB 'Command_EventMan'
	DB	'ager_NeedLevelFree', 00H			; `string'
CONST	ENDS
;	COMDAT ??_C@_0CA@MMEFACOF@Command_EventManager_SwitchVip3?$AA@
CONST	SEGMENT
??_C@_0CA@MMEFACOF@Command_EventManager_SwitchVip3?$AA@ DB 'Command_Event'
	DB	'Manager_SwitchVip3', 00H			; `string'
CONST	ENDS
;	COMDAT ??_C@_0CA@NFFODDKE@Command_EventManager_SwitchVip2?$AA@
CONST	SEGMENT
??_C@_0CA@NFFODDKE@Command_EventManager_SwitchVip2?$AA@ DB 'Command_Event'
	DB	'Manager_SwitchVip2', 00H			; `string'
CONST	ENDS
;	COMDAT ??_C@_0CA@POHDGAGH@Command_EventManager_SwitchVip1?$AA@
CONST	SEGMENT
??_C@_0CA@POHDGAGH@Command_EventManager_SwitchVip1?$AA@ DB 'Command_Event'
	DB	'Manager_SwitchVip1', 00H			; `string'
CONST	ENDS
;	COMDAT ??_C@_0CA@NNLBNOLA@Command_EventManager_SwitchFree?$AA@
CONST	SEGMENT
??_C@_0CA@NNLBNOLA@Command_EventManager_SwitchFree?$AA@ DB 'Command_Event'
	DB	'Manager_SwitchFree', 00H			; `string'
CONST	ENDS
;	COMDAT ??_C@_0BN@JJFMLIFH@Command_EventManager_Enabled?$AA@
CONST	SEGMENT
??_C@_0BN@JJFMLIFH@Command_EventManager_Enabled?$AA@ DB 'Command_EventMan'
	DB	'ager_Enabled', 00H				; `string'
CONST	ENDS
;	COMDAT ??_C@_0CC@DMKIEDEK@Command_EventManager_Sintax_Ente@
CONST	SEGMENT
??_C@_0CC@DMKIEDEK@Command_EventManager_Sintax_Ente@ DB 'Command_EventMan'
	DB	'ager_Sintax_Enter', 00H			; `string'
CONST	ENDS
;	COMDAT ??_C@_0CB@BBMKKDLF@Command_EventManager_Sintax_Open@
CONST	SEGMENT
??_C@_0CB@BBMKKDLF@Command_EventManager_Sintax_Open@ DB 'Command_EventMan'
	DB	'ager_Sintax_Open', 00H			; `string'
CONST	ENDS
;	COMDAT ??_C@_0CL@EAKGCKJK@Command_WarehouseInfo_NeedMaster@
CONST	SEGMENT
??_C@_0CL@EAKGCKJK@Command_WarehouseInfo_NeedMaster@ DB 'Command_Warehous'
	DB	'eInfo_NeedMasterResetsVip3', 00H		; `string'
CONST	ENDS
;	COMDAT ??_C@_0CL@FJLNBLNL@Command_WarehouseInfo_NeedMaster@
CONST	SEGMENT
??_C@_0CL@FJLNBLNL@Command_WarehouseInfo_NeedMaster@ DB 'Command_Warehous'
	DB	'eInfo_NeedMasterResetsVip2', 00H		; `string'
CONST	ENDS
;	COMDAT ??_C@_0CL@HCJAEIBI@Command_WarehouseInfo_NeedMaster@
CONST	SEGMENT
??_C@_0CL@HCJAEIBI@Command_WarehouseInfo_NeedMaster@ DB 'Command_Warehous'
	DB	'eInfo_NeedMasterResetsVip1', 00H		; `string'
CONST	ENDS
;	COMDAT ??_C@_0CL@FBFCPGMP@Command_WarehouseInfo_NeedMaster@
CONST	SEGMENT
??_C@_0CL@FBFCPGMP@Command_WarehouseInfo_NeedMaster@ DB 'Command_Warehous'
	DB	'eInfo_NeedMasterResetsFree', 00H		; `string'
CONST	ENDS
;	COMDAT ??_C@_0CF@EJIDLHON@Command_WarehouseInfo_NeedResets@
CONST	SEGMENT
??_C@_0CF@EJIDLHON@Command_WarehouseInfo_NeedResets@ DB 'Command_Warehous'
	DB	'eInfo_NeedResetsVip3', 00H			; `string'
CONST	ENDS
;	COMDAT ??_C@_0CF@FAJIIGKM@Command_WarehouseInfo_NeedResets@
CONST	SEGMENT
??_C@_0CF@FAJIIGKM@Command_WarehouseInfo_NeedResets@ DB 'Command_Warehous'
	DB	'eInfo_NeedResetsVip2', 00H			; `string'
CONST	ENDS
;	COMDAT ??_C@_0CF@HLLFNFGP@Command_WarehouseInfo_NeedResets@
CONST	SEGMENT
??_C@_0CF@HLLFNFGP@Command_WarehouseInfo_NeedResets@ DB 'Command_Warehous'
	DB	'eInfo_NeedResetsVip1', 00H			; `string'
CONST	ENDS
;	COMDAT ??_C@_0CF@FIHHGLLI@Command_WarehouseInfo_NeedResets@
CONST	SEGMENT
??_C@_0CF@FIHHGLLI@Command_WarehouseInfo_NeedResets@ DB 'Command_Warehous'
	DB	'eInfo_NeedResetsFree', 00H			; `string'
CONST	ENDS
;	COMDAT ??_C@_0CE@CEEBGKJF@Command_WarehouseInfo_NeedMoneyV@
CONST	SEGMENT
??_C@_0CE@CEEBGKJF@Command_WarehouseInfo_NeedMoneyV@ DB 'Command_Warehous'
	DB	'eInfo_NeedMoneyVip3', 00H			; `string'
CONST	ENDS
;	COMDAT ??_C@_0CE@DNFKFLNE@Command_WarehouseInfo_NeedMoneyV@
CONST	SEGMENT
??_C@_0CE@DNFKFLNE@Command_WarehouseInfo_NeedMoneyV@ DB 'Command_Warehous'
	DB	'eInfo_NeedMoneyVip2', 00H			; `string'
CONST	ENDS
;	COMDAT ??_C@_0CE@BGHHAIBH@Command_WarehouseInfo_NeedMoneyV@
CONST	SEGMENT
??_C@_0CE@BGHHAIBH@Command_WarehouseInfo_NeedMoneyV@ DB 'Command_Warehous'
	DB	'eInfo_NeedMoneyVip1', 00H			; `string'
CONST	ENDS
;	COMDAT ??_C@_0CE@DFLFLGMA@Command_WarehouseInfo_NeedMoneyF@
CONST	SEGMENT
??_C@_0CE@DFLFLGMA@Command_WarehouseInfo_NeedMoneyF@ DB 'Command_Warehous'
	DB	'eInfo_NeedMoneyFree', 00H			; `string'
CONST	ENDS
;	COMDAT ??_C@_0CE@KCOIDCID@Command_WarehouseInfo_NeedLevelV@
CONST	SEGMENT
??_C@_0CE@KCOIDCID@Command_WarehouseInfo_NeedLevelV@ DB 'Command_Warehous'
	DB	'eInfo_NeedLevelVip3', 00H			; `string'
CONST	ENDS
;	COMDAT ??_C@_0CE@LLPDADMC@Command_WarehouseInfo_NeedLevelV@
CONST	SEGMENT
??_C@_0CE@LLPDADMC@Command_WarehouseInfo_NeedLevelV@ DB 'Command_Warehous'
	DB	'eInfo_NeedLevelVip2', 00H			; `string'
CONST	ENDS
;	COMDAT ??_C@_0CE@JANOFAAB@Command_WarehouseInfo_NeedLevelV@
CONST	SEGMENT
??_C@_0CE@JANOFAAB@Command_WarehouseInfo_NeedLevelV@ DB 'Command_Warehous'
	DB	'eInfo_NeedLevelVip1', 00H			; `string'
CONST	ENDS
;	COMDAT ??_C@_0CE@LDBMOONG@Command_WarehouseInfo_NeedLevelF@
CONST	SEGMENT
??_C@_0CE@LDBMOONG@Command_WarehouseInfo_NeedLevelF@ DB 'Command_Warehous'
	DB	'eInfo_NeedLevelFree', 00H			; `string'
CONST	ENDS
;	COMDAT ??_C@_0CB@FNPOIPHL@Command_WarehouseInfo_SwitchVip3@
CONST	SEGMENT
??_C@_0CB@FNPOIPHL@Command_WarehouseInfo_SwitchVip3@ DB 'Command_Warehous'
	DB	'eInfo_SwitchVip3', 00H			; `string'
CONST	ENDS
;	COMDAT ??_C@_0CB@EEOFLODK@Command_WarehouseInfo_SwitchVip2@
CONST	SEGMENT
??_C@_0CB@EEOFLODK@Command_WarehouseInfo_SwitchVip2@ DB 'Command_Warehous'
	DB	'eInfo_SwitchVip2', 00H			; `string'
CONST	ENDS
;	COMDAT ??_C@_0CB@GPMIONPJ@Command_WarehouseInfo_SwitchVip1@
CONST	SEGMENT
??_C@_0CB@GPMIONPJ@Command_WarehouseInfo_SwitchVip1@ DB 'Command_Warehous'
	DB	'eInfo_SwitchVip1', 00H			; `string'
CONST	ENDS
;	COMDAT ??_C@_0CB@EMAKFDCO@Command_WarehouseInfo_SwitchFree@
CONST	SEGMENT
??_C@_0CB@EMAKFDCO@Command_WarehouseInfo_SwitchFree@ DB 'Command_Warehous'
	DB	'eInfo_SwitchFree', 00H			; `string'
CONST	ENDS
;	COMDAT ??_C@_0BO@MBMHNJID@Command_WarehouseInfo_Enabled?$AA@
CONST	SEGMENT
??_C@_0BO@MBMHNJID@Command_WarehouseInfo_Enabled?$AA@ DB 'Command_Warehou'
	DB	'seInfo_Enabled', 00H			; `string'
CONST	ENDS
;	COMDAT ??_C@_0BN@PFIGHEOO@Command_WarehouseInfo_Sintax?$AA@
CONST	SEGMENT
??_C@_0BN@PFIGHEOO@Command_WarehouseInfo_Sintax?$AA@ DB 'Command_Warehous'
	DB	'eInfo_Sintax', 00H				; `string'
CONST	ENDS
;	COMDAT ??_C@_0BM@EGPJOGGJ@Command_OpenWarehouse_Delay?$AA@
CONST	SEGMENT
??_C@_0BM@EGPJOGGJ@Command_OpenWarehouse_Delay?$AA@ DB 'Command_OpenWareh'
	DB	'ouse_Delay', 00H				; `string'
CONST	ENDS
;	COMDAT ??_C@_0CL@BKCJFIJD@Command_OpenWarehouse_NeedMaster@
CONST	SEGMENT
??_C@_0CL@BKCJFIJD@Command_OpenWarehouse_NeedMaster@ DB 'Command_OpenWare'
	DB	'house_NeedMasterResetsVip3', 00H		; `string'
CONST	ENDS
;	COMDAT ??_C@_0CL@DDCGJNC@Command_OpenWarehouse_NeedMaster@
CONST	SEGMENT
??_C@_0CL@DDCGJNC@Command_OpenWarehouse_NeedMaster@ DB 'Command_OpenWareh'
	DB	'ouse_NeedMasterResetsVip2', 00H		; `string'
CONST	ENDS
;	COMDAT ??_C@_0CL@CIBPDKBB@Command_OpenWarehouse_NeedMaster@
CONST	SEGMENT
??_C@_0CL@CIBPDKBB@Command_OpenWarehouse_NeedMaster@ DB 'Command_OpenWare'
	DB	'house_NeedMasterResetsVip1', 00H		; `string'
CONST	ENDS
;	COMDAT ??_C@_0CL@LNNIEMG@Command_OpenWarehouse_NeedMaster@
CONST	SEGMENT
??_C@_0CL@LNNIEMG@Command_OpenWarehouse_NeedMaster@ DB 'Command_OpenWareh'
	DB	'ouse_NeedMasterResetsFree', 00H		; `string'
CONST	ENDS
;	COMDAT ??_C@_0CF@OCIBBPDB@Command_OpenWarehouse_NeedResets@
CONST	SEGMENT
??_C@_0CF@OCIBBPDB@Command_OpenWarehouse_NeedResets@ DB 'Command_OpenWare'
	DB	'house_NeedResetsVip3', 00H			; `string'
CONST	ENDS
;	COMDAT ??_C@_0CF@PLJKCOHA@Command_OpenWarehouse_NeedResets@
CONST	SEGMENT
??_C@_0CF@PLJKCOHA@Command_OpenWarehouse_NeedResets@ DB 'Command_OpenWare'
	DB	'house_NeedResetsVip2', 00H			; `string'
CONST	ENDS
;	COMDAT ??_C@_0CF@NALHHNLD@Command_OpenWarehouse_NeedResets@
CONST	SEGMENT
??_C@_0CF@NALHHNLD@Command_OpenWarehouse_NeedResets@ DB 'Command_OpenWare'
	DB	'house_NeedResetsVip1', 00H			; `string'
CONST	ENDS
;	COMDAT ??_C@_0CF@PDHFMDGE@Command_OpenWarehouse_NeedResets@
CONST	SEGMENT
??_C@_0CF@PDHFMDGE@Command_OpenWarehouse_NeedResets@ DB 'Command_OpenWare'
	DB	'house_NeedResetsFree', 00H			; `string'
CONST	ENDS
;	COMDAT ??_C@_0CE@PHNEOPLK@Command_OpenWarehouse_NeedMoneyV@
CONST	SEGMENT
??_C@_0CE@PHNEOPLK@Command_OpenWarehouse_NeedMoneyV@ DB 'Command_OpenWare'
	DB	'house_NeedMoneyVip3', 00H			; `string'
CONST	ENDS
;	COMDAT ??_C@_0CE@OOMPNOPL@Command_OpenWarehouse_NeedMoneyV@
CONST	SEGMENT
??_C@_0CE@OOMPNOPL@Command_OpenWarehouse_NeedMoneyV@ DB 'Command_OpenWare'
	DB	'house_NeedMoneyVip2', 00H			; `string'
CONST	ENDS
;	COMDAT ??_C@_0CE@MFOCINDI@Command_OpenWarehouse_NeedMoneyV@
CONST	SEGMENT
??_C@_0CE@MFOCINDI@Command_OpenWarehouse_NeedMoneyV@ DB 'Command_OpenWare'
	DB	'house_NeedMoneyVip1', 00H			; `string'
CONST	ENDS
;	COMDAT ??_C@_0CE@OGCADDOP@Command_OpenWarehouse_NeedMoneyF@
CONST	SEGMENT
??_C@_0CE@OGCADDOP@Command_OpenWarehouse_NeedMoneyF@ DB 'Command_OpenWare'
	DB	'house_NeedMoneyFree', 00H			; `string'
CONST	ENDS
;	COMDAT ??_C@_0CE@HBHNLHKM@Command_OpenWarehouse_NeedLevelV@
CONST	SEGMENT
??_C@_0CE@HBHNLHKM@Command_OpenWarehouse_NeedLevelV@ DB 'Command_OpenWare'
	DB	'house_NeedLevelVip3', 00H			; `string'
CONST	ENDS
;	COMDAT ??_C@_0CE@GIGGIGON@Command_OpenWarehouse_NeedLevelV@
CONST	SEGMENT
??_C@_0CE@GIGGIGON@Command_OpenWarehouse_NeedLevelV@ DB 'Command_OpenWare'
	DB	'house_NeedLevelVip2', 00H			; `string'
CONST	ENDS
;	COMDAT ??_C@_0CE@EDELNFCO@Command_OpenWarehouse_NeedLevelV@
CONST	SEGMENT
??_C@_0CE@EDELNFCO@Command_OpenWarehouse_NeedLevelV@ DB 'Command_OpenWare'
	DB	'house_NeedLevelVip1', 00H			; `string'
CONST	ENDS
;	COMDAT ??_C@_0CE@GAIJGLPJ@Command_OpenWarehouse_NeedLevelF@
CONST	SEGMENT
??_C@_0CE@GAIJGLPJ@Command_OpenWarehouse_NeedLevelF@ DB 'Command_OpenWare'
	DB	'house_NeedLevelFree', 00H			; `string'
CONST	ENDS
;	COMDAT ??_C@_0CB@NHLEJAKM@Command_OpenWarehouse_SwitchVip3@
CONST	SEGMENT
??_C@_0CB@NHLEJAKM@Command_OpenWarehouse_SwitchVip3@ DB 'Command_OpenWare'
	DB	'house_SwitchVip3', 00H			; `string'
CONST	ENDS
;	COMDAT ??_C@_0CB@MOKPKBON@Command_OpenWarehouse_SwitchVip2@
CONST	SEGMENT
??_C@_0CB@MOKPKBON@Command_OpenWarehouse_SwitchVip2@ DB 'Command_OpenWare'
	DB	'house_SwitchVip2', 00H			; `string'
CONST	ENDS
;	COMDAT ??_C@_0CB@OFICPCCO@Command_OpenWarehouse_SwitchVip1@
CONST	SEGMENT
??_C@_0CB@OFICPCCO@Command_OpenWarehouse_SwitchVip1@ DB 'Command_OpenWare'
	DB	'house_SwitchVip1', 00H			; `string'
CONST	ENDS
;	COMDAT ??_C@_0CB@MGEAEMPJ@Command_OpenWarehouse_SwitchFree@
CONST	SEGMENT
??_C@_0CB@MGEAEMPJ@Command_OpenWarehouse_SwitchFree@ DB 'Command_OpenWare'
	DB	'house_SwitchFree', 00H			; `string'
CONST	ENDS
;	COMDAT ??_C@_0BO@OAIPOMPF@Command_OpenWarehouse_Enabled?$AA@
CONST	SEGMENT
??_C@_0BO@OAIPOMPF@Command_OpenWarehouse_Enabled?$AA@ DB 'Command_OpenWar'
	DB	'ehouse_Enabled', 00H			; `string'
CONST	ENDS
;	COMDAT ??_C@_0BN@JEHLHNK@Command_OpenWarehouse_Sintax?$AA@
CONST	SEGMENT
??_C@_0BN@JEHLHNK@Command_OpenWarehouse_Sintax?$AA@ DB 'Command_OpenWareh'
	DB	'ouse_Sintax', 00H				; `string'
CONST	ENDS
;	COMDAT ??_C@_0BI@FBEFGMIJ@Command_Warehouse_Delay?$AA@
CONST	SEGMENT
??_C@_0BI@FBEFGMIJ@Command_Warehouse_Delay?$AA@ DB 'Command_Warehouse_Del'
	DB	'ay', 00H					; `string'
CONST	ENDS
;	COMDAT ??_C@_0CB@HNFHPICI@Command_Warehouse_WareNumberVip3@
CONST	SEGMENT
??_C@_0CB@HNFHPICI@Command_Warehouse_WareNumberVip3@ DB 'Command_Warehous'
	DB	'e_WareNumberVip3', 00H			; `string'
CONST	ENDS
;	COMDAT ??_C@_0CB@GEEMMJGJ@Command_Warehouse_WareNumberVip2@
CONST	SEGMENT
??_C@_0CB@GEEMMJGJ@Command_Warehouse_WareNumberVip2@ DB 'Command_Warehous'
	DB	'e_WareNumberVip2', 00H			; `string'
CONST	ENDS
;	COMDAT ??_C@_0CB@EPGBJKKK@Command_Warehouse_WareNumberVip1@
CONST	SEGMENT
??_C@_0CB@EPGBJKKK@Command_Warehouse_WareNumberVip1@ DB 'Command_Warehous'
	DB	'e_WareNumberVip1', 00H			; `string'
CONST	ENDS
;	COMDAT ??_C@_0CB@GMKDCEHN@Command_Warehouse_WareNumberFree@
CONST	SEGMENT
??_C@_0CB@GMKDCEHN@Command_Warehouse_WareNumberFree@ DB 'Command_Warehous'
	DB	'e_WareNumberFree', 00H			; `string'
CONST	ENDS
;	COMDAT ??_C@_0BL@PPHAJHDA@Command_Warehouse_WareType?$AA@
CONST	SEGMENT
??_C@_0BL@PPHAJHDA@Command_Warehouse_WareType?$AA@ DB 'Command_Warehouse_'
	DB	'WareType', 00H				; `string'
CONST	ENDS
;	COMDAT ??_C@_0CH@CPNKNAC@Command_Warehouse_NeedMasterRese@
CONST	SEGMENT
??_C@_0CH@CPNKNAC@Command_Warehouse_NeedMasterRese@ DB 'Command_Warehouse'
	DB	'_NeedMasterResetsVip3', 00H			; `string'
CONST	ENDS
;	COMDAT ??_C@_0CH@BLOGJMED@Command_Warehouse_NeedMasterRese@
CONST	SEGMENT
??_C@_0CH@BLOGJMED@Command_Warehouse_NeedMasterRese@ DB 'Command_Warehous'
	DB	'e_NeedMasterResetsVip2', 00H		; `string'
CONST	ENDS
;	COMDAT ??_C@_0CH@DAMLMPIA@Command_Warehouse_NeedMasterRese@
CONST	SEGMENT
??_C@_0CH@DAMLMPIA@Command_Warehouse_NeedMasterRese@ DB 'Command_Warehous'
	DB	'e_NeedMasterResetsVip1', 00H		; `string'
CONST	ENDS
;	COMDAT ??_C@_0CH@BDAJHBFH@Command_Warehouse_NeedMasterRese@
CONST	SEGMENT
??_C@_0CH@BDAJHBFH@Command_Warehouse_NeedMasterRese@ DB 'Command_Warehous'
	DB	'e_NeedMasterResetsFree', 00H		; `string'
CONST	ENDS
;	COMDAT ??_C@_0CB@ODEKBADP@Command_Warehouse_NeedResetsVip3@
CONST	SEGMENT
??_C@_0CB@ODEKBADP@Command_Warehouse_NeedResetsVip3@ DB 'Command_Warehous'
	DB	'e_NeedResetsVip3', 00H			; `string'
CONST	ENDS
;	COMDAT ??_C@_0CB@PKFBCBHO@Command_Warehouse_NeedResetsVip2@
CONST	SEGMENT
??_C@_0CB@PKFBCBHO@Command_Warehouse_NeedResetsVip2@ DB 'Command_Warehous'
	DB	'e_NeedResetsVip2', 00H			; `string'
CONST	ENDS
;	COMDAT ??_C@_0CB@NBHMHCLN@Command_Warehouse_NeedResetsVip1@
CONST	SEGMENT
??_C@_0CB@NBHMHCLN@Command_Warehouse_NeedResetsVip1@ DB 'Command_Warehous'
	DB	'e_NeedResetsVip1', 00H			; `string'
CONST	ENDS
;	COMDAT ??_C@_0CB@PCLOMMGK@Command_Warehouse_NeedResetsFree@
CONST	SEGMENT
??_C@_0CB@PCLOMMGK@Command_Warehouse_NeedResetsFree@ DB 'Command_Warehous'
	DB	'e_NeedResetsFree', 00H			; `string'
CONST	ENDS
;	COMDAT ??_C@_0CA@OHKKOHPL@Command_Warehouse_NeedMoneyVip3?$AA@
CONST	SEGMENT
??_C@_0CA@OHKKOHPL@Command_Warehouse_NeedMoneyVip3?$AA@ DB 'Command_Wareh'
	DB	'ouse_NeedMoneyVip3', 00H			; `string'
CONST	ENDS
;	COMDAT ??_C@_0CA@POLBNGLK@Command_Warehouse_NeedMoneyVip2?$AA@
CONST	SEGMENT
??_C@_0CA@POLBNGLK@Command_Warehouse_NeedMoneyVip2?$AA@ DB 'Command_Wareh'
	DB	'ouse_NeedMoneyVip2', 00H			; `string'
CONST	ENDS
;	COMDAT ??_C@_0CA@NFJMIFHJ@Command_Warehouse_NeedMoneyVip1?$AA@
CONST	SEGMENT
??_C@_0CA@NFJMIFHJ@Command_Warehouse_NeedMoneyVip1?$AA@ DB 'Command_Wareh'
	DB	'ouse_NeedMoneyVip1', 00H			; `string'
CONST	ENDS
;	COMDAT ??_C@_0CA@PGFODLKO@Command_Warehouse_NeedMoneyFree?$AA@
CONST	SEGMENT
??_C@_0CA@PGFODLKO@Command_Warehouse_NeedMoneyFree?$AA@ DB 'Command_Wareh'
	DB	'ouse_NeedMoneyFree', 00H			; `string'
CONST	ENDS
;	COMDAT ??_C@_0CA@GBADLPON@Command_Warehouse_NeedLevelVip3?$AA@
CONST	SEGMENT
??_C@_0CA@GBADLPON@Command_Warehouse_NeedLevelVip3?$AA@ DB 'Command_Wareh'
	DB	'ouse_NeedLevelVip3', 00H			; `string'
CONST	ENDS
;	COMDAT ??_C@_0CA@HIBIIOKM@Command_Warehouse_NeedLevelVip2?$AA@
CONST	SEGMENT
??_C@_0CA@HIBIIOKM@Command_Warehouse_NeedLevelVip2?$AA@ DB 'Command_Wareh'
	DB	'ouse_NeedLevelVip2', 00H			; `string'
CONST	ENDS
;	COMDAT ??_C@_0CA@FDDFNNGP@Command_Warehouse_NeedLevelVip1?$AA@
CONST	SEGMENT
??_C@_0CA@FDDFNNGP@Command_Warehouse_NeedLevelVip1?$AA@ DB 'Command_Wareh'
	DB	'ouse_NeedLevelVip1', 00H			; `string'
CONST	ENDS
;	COMDAT ??_C@_0CA@HAPHGDLI@Command_Warehouse_NeedLevelFree?$AA@
CONST	SEGMENT
??_C@_0CA@HAPHGDLI@Command_Warehouse_NeedLevelFree?$AA@ DB 'Command_Wareh'
	DB	'ouse_NeedLevelFree', 00H			; `string'
CONST	ENDS
;	COMDAT ??_C@_0BN@LEEDICMO@Command_Warehouse_SwitchVip3?$AA@
CONST	SEGMENT
??_C@_0BN@LEEDICMO@Command_Warehouse_SwitchVip3?$AA@ DB 'Command_Warehous'
	DB	'e_SwitchVip3', 00H				; `string'
CONST	ENDS
;	COMDAT ??_C@_0BN@KNFILDIP@Command_Warehouse_SwitchVip2?$AA@
CONST	SEGMENT
??_C@_0BN@KNFILDIP@Command_Warehouse_SwitchVip2?$AA@ DB 'Command_Warehous'
	DB	'e_SwitchVip2', 00H				; `string'
CONST	ENDS
;	COMDAT ??_C@_0BN@IGHFOAEM@Command_Warehouse_SwitchVip1?$AA@
CONST	SEGMENT
??_C@_0BN@IGHFOAEM@Command_Warehouse_SwitchVip1?$AA@ DB 'Command_Warehous'
	DB	'e_SwitchVip1', 00H				; `string'
CONST	ENDS
;	COMDAT ??_C@_0BN@KFLHFOJL@Command_Warehouse_SwitchFree?$AA@
CONST	SEGMENT
??_C@_0BN@KFLHFOJL@Command_Warehouse_SwitchFree?$AA@ DB 'Command_Warehous'
	DB	'e_SwitchFree', 00H				; `string'
CONST	ENDS
;	COMDAT ??_C@_0BK@LDJMGCJL@Command_Warehouse_Enabled?$AA@
CONST	SEGMENT
??_C@_0BK@LDJMGCJL@Command_Warehouse_Enabled?$AA@ DB 'Command_Warehouse_E'
	DB	'nabled', 00H				; `string'
CONST	ENDS
;	COMDAT ??_C@_0BJ@KJFKOJCI@Command_Warehouse_Sintax?$AA@
CONST	SEGMENT
??_C@_0BJ@KJFKOJCI@Command_Warehouse_Sintax?$AA@ DB 'Command_Warehouse_Si'
	DB	'ntax', 00H					; `string'
CONST	ENDS
;	COMDAT ??_C@_0CJ@MDKMIKBH@Command_ReAddPoints_NeedMasterRe@
CONST	SEGMENT
??_C@_0CJ@MDKMIKBH@Command_ReAddPoints_NeedMasterRe@ DB 'Command_ReAddPoi'
	DB	'nts_NeedMasterResetsVip3', 00H		; `string'
CONST	ENDS
;	COMDAT ??_C@_0CJ@NKLHLLFG@Command_ReAddPoints_NeedMasterRe@
CONST	SEGMENT
??_C@_0CJ@NKLHLLFG@Command_ReAddPoints_NeedMasterRe@ DB 'Command_ReAddPoi'
	DB	'nts_NeedMasterResetsVip2', 00H		; `string'
CONST	ENDS
;	COMDAT ??_C@_0CJ@PBJKOIJF@Command_ReAddPoints_NeedMasterRe@
CONST	SEGMENT
??_C@_0CJ@PBJKOIJF@Command_ReAddPoints_NeedMasterRe@ DB 'Command_ReAddPoi'
	DB	'nts_NeedMasterResetsVip1', 00H		; `string'
CONST	ENDS
;	COMDAT ??_C@_0CJ@NCFIFGEC@Command_ReAddPoints_NeedMasterRe@
CONST	SEGMENT
??_C@_0CJ@NCFIFGEC@Command_ReAddPoints_NeedMasterRe@ DB 'Command_ReAddPoi'
	DB	'nts_NeedMasterResetsFree', 00H		; `string'
CONST	ENDS
;	COMDAT ??_C@_0CD@NLKEPLJL@Command_ReAddPoints_NeedResetsVi@
CONST	SEGMENT
??_C@_0CD@NLKEPLJL@Command_ReAddPoints_NeedResetsVi@ DB 'Command_ReAddPoi'
	DB	'nts_NeedResetsVip3', 00H			; `string'
CONST	ENDS
;	COMDAT ??_C@_0CD@MCLPMKNK@Command_ReAddPoints_NeedResetsVi@
CONST	SEGMENT
??_C@_0CD@MCLPMKNK@Command_ReAddPoints_NeedResetsVi@ DB 'Command_ReAddPoi'
	DB	'nts_NeedResetsVip2', 00H			; `string'
CONST	ENDS
;	COMDAT ??_C@_0CD@OJJCJJBJ@Command_ReAddPoints_NeedResetsVi@
CONST	SEGMENT
??_C@_0CD@OJJCJJBJ@Command_ReAddPoints_NeedResetsVi@ DB 'Command_ReAddPoi'
	DB	'nts_NeedResetsVip1', 00H			; `string'
CONST	ENDS
;	COMDAT ??_C@_0CD@MKFACHMO@Command_ReAddPoints_NeedResetsFr@
CONST	SEGMENT
??_C@_0CD@MKFACHMO@Command_ReAddPoints_NeedResetsFr@ DB 'Command_ReAddPoi'
	DB	'nts_NeedResetsFree', 00H			; `string'
CONST	ENDS
;	COMDAT ??_C@_0CC@NBIDIHFJ@Command_ReAddPoints_NeedMoneyVip@
CONST	SEGMENT
??_C@_0CC@NBIDIHFJ@Command_ReAddPoints_NeedMoneyVip@ DB 'Command_ReAddPoi'
	DB	'nts_NeedMoneyVip3', 00H			; `string'
CONST	ENDS
;	COMDAT ??_C@_0CC@MIJILGBI@Command_ReAddPoints_NeedMoneyVip@
CONST	SEGMENT
??_C@_0CC@MIJILGBI@Command_ReAddPoints_NeedMoneyVip@ DB 'Command_ReAddPoi'
	DB	'nts_NeedMoneyVip2', 00H			; `string'
CONST	ENDS
;	COMDAT ??_C@_0CC@ODLFOFNL@Command_ReAddPoints_NeedMoneyVip@
CONST	SEGMENT
??_C@_0CC@ODLFOFNL@Command_ReAddPoints_NeedMoneyVip@ DB 'Command_ReAddPoi'
	DB	'nts_NeedMoneyVip1', 00H			; `string'
CONST	ENDS
;	COMDAT ??_C@_0CC@MAHHFLAM@Command_ReAddPoints_NeedMoneyFre@
CONST	SEGMENT
??_C@_0CC@MAHHFLAM@Command_ReAddPoints_NeedMoneyFre@ DB 'Command_ReAddPoi'
	DB	'nts_NeedMoneyFree', 00H			; `string'
CONST	ENDS
;	COMDAT ??_C@_0CC@FHCKNPEP@Command_ReAddPoints_NeedLevelVip@
CONST	SEGMENT
??_C@_0CC@FHCKNPEP@Command_ReAddPoints_NeedLevelVip@ DB 'Command_ReAddPoi'
	DB	'nts_NeedLevelVip3', 00H			; `string'
CONST	ENDS
;	COMDAT ??_C@_0CC@EODBOOAO@Command_ReAddPoints_NeedLevelVip@
CONST	SEGMENT
??_C@_0CC@EODBOOAO@Command_ReAddPoints_NeedLevelVip@ DB 'Command_ReAddPoi'
	DB	'nts_NeedLevelVip2', 00H			; `string'
CONST	ENDS
;	COMDAT ??_C@_0CC@GFBMLNMN@Command_ReAddPoints_NeedLevelVip@
CONST	SEGMENT
??_C@_0CC@GFBMLNMN@Command_ReAddPoints_NeedLevelVip@ DB 'Command_ReAddPoi'
	DB	'nts_NeedLevelVip1', 00H			; `string'
CONST	ENDS
;	COMDAT ??_C@_0CC@EGNOADBK@Command_ReAddPoints_NeedLevelFre@
CONST	SEGMENT
??_C@_0CC@EGNOADBK@Command_ReAddPoints_NeedLevelFre@ DB 'Command_ReAddPoi'
	DB	'nts_NeedLevelFree', 00H			; `string'
CONST	ENDS
;	COMDAT ??_C@_0BP@BECBAMOD@Command_ReAddPoints_SwitchVip3?$AA@
CONST	SEGMENT
??_C@_0BP@BECBAMOD@Command_ReAddPoints_SwitchVip3?$AA@ DB 'Command_ReAddP'
	DB	'oints_SwitchVip3', 00H			; `string'
CONST	ENDS
;	COMDAT ??_C@_0BP@NDKDNKC@Command_ReAddPoints_SwitchVip2?$AA@
CONST	SEGMENT
??_C@_0BP@NDKDNKC@Command_ReAddPoints_SwitchVip2?$AA@ DB 'Command_ReAddPo'
	DB	'ints_SwitchVip2', 00H			; `string'
CONST	ENDS
;	COMDAT ??_C@_0BP@CGBHGOGB@Command_ReAddPoints_SwitchVip1?$AA@
CONST	SEGMENT
??_C@_0BP@CGBHGOGB@Command_ReAddPoints_SwitchVip1?$AA@ DB 'Command_ReAddP'
	DB	'oints_SwitchVip1', 00H			; `string'
CONST	ENDS
;	COMDAT ??_C@_0BP@FNFNALG@Command_ReAddPoints_SwitchFree?$AA@
CONST	SEGMENT
??_C@_0BP@FNFNALG@Command_ReAddPoints_SwitchFree?$AA@ DB 'Command_ReAddPo'
	DB	'ints_SwitchFree', 00H			; `string'
CONST	ENDS
;	COMDAT ??_C@_0BM@FOGNJEKA@Command_ReAddPoints_Enabled?$AA@
CONST	SEGMENT
??_C@_0BM@FOGNJEKA@Command_ReAddPoints_Enabled?$AA@ DB 'Command_ReAddPoin'
	DB	'ts_Enabled', 00H				; `string'
CONST	ENDS
;	COMDAT ??_C@_0BL@OACPPCKI@Command_ReAddPoints_Sintax?$AA@
CONST	SEGMENT
??_C@_0BL@OACPPCKI@Command_ReAddPoints_Sintax?$AA@ DB 'Command_ReAddPoint'
	DB	's_Sintax', 00H				; `string'
CONST	ENDS
;	COMDAT ??_C@_0CH@ELEBEBKF@Command_AddPoints_NeedMasterRese@
CONST	SEGMENT
??_C@_0CH@ELEBEBKF@Command_AddPoints_NeedMasterRese@ DB 'Command_AddPoint'
	DB	's_NeedMasterResetsVip3', 00H		; `string'
CONST	ENDS
;	COMDAT ??_C@_0CH@FCFKHAOE@Command_AddPoints_NeedMasterRese@
CONST	SEGMENT
??_C@_0CH@FCFKHAOE@Command_AddPoints_NeedMasterRese@ DB 'Command_AddPoint'
	DB	's_NeedMasterResetsVip2', 00H		; `string'
CONST	ENDS
;	COMDAT ??_C@_0CH@HJHHCDCH@Command_AddPoints_NeedMasterRese@
CONST	SEGMENT
??_C@_0CH@HJHHCDCH@Command_AddPoints_NeedMasterRese@ DB 'Command_AddPoint'
	DB	's_NeedMasterResetsVip1', 00H		; `string'
CONST	ENDS
;	COMDAT ??_C@_0CH@FKLFJNPA@Command_AddPoints_NeedMasterRese@
CONST	SEGMENT
??_C@_0CH@FKLFJNPA@Command_AddPoints_NeedMasterRese@ DB 'Command_AddPoint'
	DB	's_NeedMasterResetsFree', 00H		; `string'
CONST	ENDS
;	COMDAT ??_C@_0CB@LLMGOEEB@Command_AddPoints_NeedResetsVip3@
CONST	SEGMENT
??_C@_0CB@LLMGOEEB@Command_AddPoints_NeedResetsVip3@ DB 'Command_AddPoint'
	DB	's_NeedResetsVip3', 00H			; `string'
CONST	ENDS
;	COMDAT ??_C@_0CB@KCNNNFAA@Command_AddPoints_NeedResetsVip2@
CONST	SEGMENT
??_C@_0CB@KCNNNFAA@Command_AddPoints_NeedResetsVip2@ DB 'Command_AddPoint'
	DB	's_NeedResetsVip2', 00H			; `string'
CONST	ENDS
;	COMDAT ??_C@_0CB@IJPAIGMD@Command_AddPoints_NeedResetsVip1@
CONST	SEGMENT
??_C@_0CB@IJPAIGMD@Command_AddPoints_NeedResetsVip1@ DB 'Command_AddPoint'
	DB	's_NeedResetsVip1', 00H			; `string'
CONST	ENDS
;	COMDAT ??_C@_0CB@KKDCDIBE@Command_AddPoints_NeedResetsFree@
CONST	SEGMENT
??_C@_0CB@KKDCDIBE@Command_AddPoints_NeedResetsFree@ DB 'Command_AddPoint'
	DB	's_NeedResetsFree', 00H			; `string'
CONST	ENDS
;	COMDAT ??_C@_0CA@DBCIIMG@Command_AddPoints_NeedMoneyVip3?$AA@
CONST	SEGMENT
??_C@_0CA@DBCIIMG@Command_AddPoints_NeedMoneyVip3?$AA@ DB 'Command_AddPoi'
	DB	'nts_NeedMoneyVip3', 00H			; `string'
CONST	ENDS
;	COMDAT ??_C@_0CA@BKAJLJIH@Command_AddPoints_NeedMoneyVip2?$AA@
CONST	SEGMENT
??_C@_0CA@BKAJLJIH@Command_AddPoints_NeedMoneyVip2?$AA@ DB 'Command_AddPo'
	DB	'ints_NeedMoneyVip2', 00H			; `string'
CONST	ENDS
;	COMDAT ??_C@_0CA@DBCEOKEE@Command_AddPoints_NeedMoneyVip1?$AA@
CONST	SEGMENT
??_C@_0CA@DBCEOKEE@Command_AddPoints_NeedMoneyVip1?$AA@ DB 'Command_AddPo'
	DB	'ints_NeedMoneyVip1', 00H			; `string'
CONST	ENDS
;	COMDAT ??_C@_0CA@BCOGFEJD@Command_AddPoints_NeedMoneyFree?$AA@
CONST	SEGMENT
??_C@_0CA@BCOGFEJD@Command_AddPoints_NeedMoneyFree?$AA@ DB 'Command_AddPo'
	DB	'ints_NeedMoneyFree', 00H			; `string'
CONST	ENDS
;	COMDAT ??_C@_0CA@IFLLNANA@Command_AddPoints_NeedLevelVip3?$AA@
CONST	SEGMENT
??_C@_0CA@IFLLNANA@Command_AddPoints_NeedLevelVip3?$AA@ DB 'Command_AddPo'
	DB	'ints_NeedLevelVip3', 00H			; `string'
CONST	ENDS
;	COMDAT ??_C@_0CA@JMKAOBJB@Command_AddPoints_NeedLevelVip2?$AA@
CONST	SEGMENT
??_C@_0CA@JMKAOBJB@Command_AddPoints_NeedLevelVip2?$AA@ DB 'Command_AddPo'
	DB	'ints_NeedLevelVip2', 00H			; `string'
CONST	ENDS
;	COMDAT ??_C@_0CA@LHINLCFC@Command_AddPoints_NeedLevelVip1?$AA@
CONST	SEGMENT
??_C@_0CA@LHINLCFC@Command_AddPoints_NeedLevelVip1?$AA@ DB 'Command_AddPo'
	DB	'ints_NeedLevelVip1', 00H			; `string'
CONST	ENDS
;	COMDAT ??_C@_0CA@JEEPAMIF@Command_AddPoints_NeedLevelFree?$AA@
CONST	SEGMENT
??_C@_0CA@JEEPAMIF@Command_AddPoints_NeedLevelFree?$AA@ DB 'Command_AddPo'
	DB	'ints_NeedLevelFree', 00H			; `string'
CONST	ENDS
;	COMDAT ??_C@_0BN@KDCLAPPE@Command_AddPoints_SwitchVip3?$AA@
CONST	SEGMENT
??_C@_0BN@KDCLAPPE@Command_AddPoints_SwitchVip3?$AA@ DB 'Command_AddPoint'
	DB	's_SwitchVip3', 00H				; `string'
CONST	ENDS
;	COMDAT ??_C@_0BN@LKDADOLF@Command_AddPoints_SwitchVip2?$AA@
CONST	SEGMENT
??_C@_0BN@LKDADOLF@Command_AddPoints_SwitchVip2?$AA@ DB 'Command_AddPoint'
	DB	's_SwitchVip2', 00H				; `string'
CONST	ENDS
;	COMDAT ??_C@_0BN@JBBNGNHG@Command_AddPoints_SwitchVip1?$AA@
CONST	SEGMENT
??_C@_0BN@JBBNGNHG@Command_AddPoints_SwitchVip1?$AA@ DB 'Command_AddPoint'
	DB	's_SwitchVip1', 00H				; `string'
CONST	ENDS
;	COMDAT ??_C@_0BN@LCNPNDKB@Command_AddPoints_SwitchFree?$AA@
CONST	SEGMENT
??_C@_0BN@LCNPNDKB@Command_AddPoints_SwitchFree?$AA@ DB 'Command_AddPoint'
	DB	's_SwitchFree', 00H				; `string'
CONST	ENDS
;	COMDAT ??_C@_0BK@JGFCPOGJ@Command_AddPoints_Enabled?$AA@
CONST	SEGMENT
??_C@_0BK@JGFCPOGJ@Command_AddPoints_Enabled?$AA@ DB 'Command_AddPoints_E'
	DB	'nabled', 00H				; `string'
CONST	ENDS
;	COMDAT ??_C@_0BM@CFFAJPCD@Command_AddPoints_SintaxCmd?$AA@
CONST	SEGMENT
??_C@_0BM@CFFAJPCD@Command_AddPoints_SintaxCmd?$AA@ DB 'Command_AddPoints'
	DB	'_SintaxCmd', 00H				; `string'
CONST	ENDS
;	COMDAT ??_C@_0BM@BLGGEPOH@Command_AddPoints_SintaxEne?$AA@
CONST	SEGMENT
??_C@_0BM@BLGGEPOH@Command_AddPoints_SintaxEne?$AA@ DB 'Command_AddPoints'
	DB	'_SintaxEne', 00H				; `string'
CONST	ENDS
;	COMDAT ??_C@_0BN@CEPHBKBK@Command_AddPoints_SiyntaxVit?$AA@
CONST	SEGMENT
??_C@_0BN@CEPHBKBK@Command_AddPoints_SiyntaxVit?$AA@ DB 'Command_AddPoint'
	DB	's_SiyntaxVit', 00H				; `string'
CONST	ENDS
;	COMDAT ??_C@_0BM@DHGAKMDD@Command_AddPoints_SintaxAgi?$AA@
CONST	SEGMENT
??_C@_0BM@DHGAKMDD@Command_AddPoints_SintaxAgi?$AA@ DB 'Command_AddPoints'
	DB	'_SintaxAgi', 00H				; `string'
CONST	ENDS
;	COMDAT ??_C@_0BM@HKCGOFJE@Command_AddPoints_SintaxStr?$AA@
CONST	SEGMENT
??_C@_0BM@HKCGOFJE@Command_AddPoints_SintaxStr?$AA@ DB 'Command_AddPoints'
	DB	'_SintaxStr', 00H				; `string'
CONST	ENDS
;	COMDAT ??_C@_0CD@JOMHIOID@Command_Money_NeedMasterResetsVi@
CONST	SEGMENT
??_C@_0CD@JOMHIOID@Command_Money_NeedMasterResetsVi@ DB 'Command_Money_Ne'
	DB	'edMasterResetsVip3', 00H			; `string'
CONST	ENDS
;	COMDAT ??_C@_0CD@IHNMLPMC@Command_Money_NeedMasterResetsVi@
CONST	SEGMENT
??_C@_0CD@IHNMLPMC@Command_Money_NeedMasterResetsVi@ DB 'Command_Money_Ne'
	DB	'edMasterResetsVip2', 00H			; `string'
CONST	ENDS
;	COMDAT ??_C@_0CD@KMPBOMAB@Command_Money_NeedMasterResetsVi@
CONST	SEGMENT
??_C@_0CD@KMPBOMAB@Command_Money_NeedMasterResetsVi@ DB 'Command_Money_Ne'
	DB	'edMasterResetsVip1', 00H			; `string'
CONST	ENDS
;	COMDAT ??_C@_0CD@IPDDFCNG@Command_Money_NeedMasterResetsFr@
CONST	SEGMENT
??_C@_0CD@IPDDFCNG@Command_Money_NeedMasterResetsFr@ DB 'Command_Money_Ne'
	DB	'edMasterResetsFree', 00H			; `string'
CONST	ENDS
;	COMDAT ??_C@_0BN@PMNHCKFG@Command_Money_NeedResetsVip3?$AA@
CONST	SEGMENT
??_C@_0BN@PMNHCKFG@Command_Money_NeedResetsVip3?$AA@ DB 'Command_Money_Ne'
	DB	'edResetsVip3', 00H				; `string'
CONST	ENDS
;	COMDAT ??_C@_0BN@OFMMBLBH@Command_Money_NeedResetsVip2?$AA@
CONST	SEGMENT
??_C@_0BN@OFMMBLBH@Command_Money_NeedResetsVip2?$AA@ DB 'Command_Money_Ne'
	DB	'edResetsVip2', 00H				; `string'
CONST	ENDS
;	COMDAT ??_C@_0BN@MOOBEINE@Command_Money_NeedResetsVip1?$AA@
CONST	SEGMENT
??_C@_0BN@MOOBEINE@Command_Money_NeedResetsVip1?$AA@ DB 'Command_Money_Ne'
	DB	'edResetsVip1', 00H				; `string'
CONST	ENDS
;	COMDAT ??_C@_0BN@ONCDPGAD@Command_Money_NeedResetsFree?$AA@
CONST	SEGMENT
??_C@_0BN@ONCDPGAD@Command_Money_NeedResetsFree?$AA@ DB 'Command_Money_Ne'
	DB	'edResetsFree', 00H				; `string'
CONST	ENDS
;	COMDAT ??_C@_0BM@KABDOACI@Command_Money_NeedMoneyVip3?$AA@
CONST	SEGMENT
??_C@_0BM@KABDOACI@Command_Money_NeedMoneyVip3?$AA@ DB 'Command_Money_Nee'
	DB	'dMoneyVip3', 00H				; `string'
CONST	ENDS
;	COMDAT ??_C@_0BM@LJAINBGJ@Command_Money_NeedMoneyVip2?$AA@
CONST	SEGMENT
??_C@_0BM@LJAINBGJ@Command_Money_NeedMoneyVip2?$AA@ DB 'Command_Money_Nee'
	DB	'dMoneyVip2', 00H				; `string'
CONST	ENDS
;	COMDAT ??_C@_0BM@JCCFICKK@Command_Money_NeedMoneyVip1?$AA@
CONST	SEGMENT
??_C@_0BM@JCCFICKK@Command_Money_NeedMoneyVip1?$AA@ DB 'Command_Money_Nee'
	DB	'dMoneyVip1', 00H				; `string'
CONST	ENDS
;	COMDAT ??_C@_0BM@LBOHDMHN@Command_Money_NeedMoneyFree?$AA@
CONST	SEGMENT
??_C@_0BM@LBOHDMHN@Command_Money_NeedMoneyFree?$AA@ DB 'Command_Money_Nee'
	DB	'dMoneyFree', 00H				; `string'
CONST	ENDS
;	COMDAT ??_C@_0BM@CGLKLIDO@Command_Money_NeedLevelVip3?$AA@
CONST	SEGMENT
??_C@_0BM@CGLKLIDO@Command_Money_NeedLevelVip3?$AA@ DB 'Command_Money_Nee'
	DB	'dLevelVip3', 00H				; `string'
CONST	ENDS
;	COMDAT ??_C@_0BM@DPKBIJHP@Command_Money_NeedLevelVip2?$AA@
CONST	SEGMENT
??_C@_0BM@DPKBIJHP@Command_Money_NeedLevelVip2?$AA@ DB 'Command_Money_Nee'
	DB	'dLevelVip2', 00H				; `string'
CONST	ENDS
;	COMDAT ??_C@_0BM@BEIMNKLM@Command_Money_NeedLevelVip1?$AA@
CONST	SEGMENT
??_C@_0BM@BEIMNKLM@Command_Money_NeedLevelVip1?$AA@ DB 'Command_Money_Nee'
	DB	'dLevelVip1', 00H				; `string'
CONST	ENDS
;	COMDAT ??_C@_0BM@DHEOGEGL@Command_Money_NeedLevelFree?$AA@
CONST	SEGMENT
??_C@_0BM@DHEOGEGL@Command_Money_NeedLevelFree?$AA@ DB 'Command_Money_Nee'
	DB	'dLevelFree', 00H				; `string'
CONST	ENDS
;	COMDAT ??_C@_0BJ@KLBEBLNG@Command_Money_SwitchVip3?$AA@
CONST	SEGMENT
??_C@_0BJ@KLBEBLNG@Command_Money_SwitchVip3?$AA@ DB 'Command_Money_Switch'
	DB	'Vip3', 00H					; `string'
CONST	ENDS
;	COMDAT ??_C@_0BJ@LCAPCKJH@Command_Money_SwitchVip2?$AA@
CONST	SEGMENT
??_C@_0BJ@LCAPCKJH@Command_Money_SwitchVip2?$AA@ DB 'Command_Money_Switch'
	DB	'Vip2', 00H					; `string'
CONST	ENDS
;	COMDAT ??_C@_0BJ@JJCCHJFE@Command_Money_SwitchVip1?$AA@
CONST	SEGMENT
??_C@_0BJ@JJCCHJFE@Command_Money_SwitchVip1?$AA@ DB 'Command_Money_Switch'
	DB	'Vip1', 00H					; `string'
CONST	ENDS
;	COMDAT ??_C@_0BJ@LKOAMHID@Command_Money_SwitchFree?$AA@
CONST	SEGMENT
??_C@_0BJ@LKOAMHID@Command_Money_SwitchFree?$AA@ DB 'Command_Money_Switch'
	DB	'Free', 00H					; `string'
CONST	ENDS
;	COMDAT ??_C@_0BG@HPFDCNMC@Command_Money_Enabled?$AA@
CONST	SEGMENT
??_C@_0BG@HPFDCNMC@Command_Money_Enabled?$AA@ DB 'Command_Money_Enabled', 00H ; `string'
CONST	ENDS
;	COMDAT ??_C@_0BF@GKGCCFJM@Command_Money_Sintax?$AA@
CONST	SEGMENT
??_C@_0BF@GKGCCFJM@Command_Money_Sintax?$AA@ DB 'Command_Money_Sintax', 00H ; `string'
CONST	ENDS
;	COMDAT ??_C@_0CB@JCOAIFMI@Command_Evo_NeedMasterResetsVip3@
CONST	SEGMENT
??_C@_0CB@JCOAIFMI@Command_Evo_NeedMasterResetsVip3@ DB 'Command_Evo_Need'
	DB	'MasterResetsVip3', 00H			; `string'
CONST	ENDS
;	COMDAT ??_C@_0CB@ILPLLEIJ@Command_Evo_NeedMasterResetsVip2@
CONST	SEGMENT
??_C@_0CB@ILPLLEIJ@Command_Evo_NeedMasterResetsVip2@ DB 'Command_Evo_Need'
	DB	'MasterResetsVip2', 00H			; `string'
CONST	ENDS
;	COMDAT ??_C@_0CB@KANGOHEK@Command_Evo_NeedMasterResetsVip1@
CONST	SEGMENT
??_C@_0CB@KANGOHEK@Command_Evo_NeedMasterResetsVip1@ DB 'Command_Evo_Need'
	DB	'MasterResetsVip1', 00H			; `string'
CONST	ENDS
;	COMDAT ??_C@_0CB@IDBEFJJN@Command_Evo_NeedMasterResetsFree@
CONST	SEGMENT
??_C@_0CB@IDBEFJJN@Command_Evo_NeedMasterResetsFree@ DB 'Command_Evo_Need'
	DB	'MasterResetsFree', 00H			; `string'
CONST	ENDS
;	COMDAT ??_C@_0BL@LGHABAOD@Command_Evo_NeedResetsVip3?$AA@
CONST	SEGMENT
??_C@_0BL@LGHABAOD@Command_Evo_NeedResetsVip3?$AA@ DB 'Command_Evo_NeedRe'
	DB	'setsVip3', 00H				; `string'
CONST	ENDS
;	COMDAT ??_C@_0BL@KPGLCBKC@Command_Evo_NeedResetsVip2?$AA@
CONST	SEGMENT
??_C@_0BL@KPGLCBKC@Command_Evo_NeedResetsVip2?$AA@ DB 'Command_Evo_NeedRe'
	DB	'setsVip2', 00H				; `string'
CONST	ENDS
;	COMDAT ??_C@_0BL@IEEGHCGB@Command_Evo_NeedResetsVip1?$AA@
CONST	SEGMENT
??_C@_0BL@IEEGHCGB@Command_Evo_NeedResetsVip1?$AA@ DB 'Command_Evo_NeedRe'
	DB	'setsVip1', 00H				; `string'
CONST	ENDS
;	COMDAT ??_C@_0BL@KHIEMMLG@Command_Evo_NeedResetsFree?$AA@
CONST	SEGMENT
??_C@_0BL@KHIEMMLG@Command_Evo_NeedResetsFree?$AA@ DB 'Command_Evo_NeedRe'
	DB	'setsFree', 00H				; `string'
CONST	ENDS
;	COMDAT ??_C@_0BK@NIIMBEEM@Command_Evo_NeedMoneyVip3?$AA@
CONST	SEGMENT
??_C@_0BK@NIIMBEEM@Command_Evo_NeedMoneyVip3?$AA@ DB 'Command_Evo_NeedMon'
	DB	'eyVip3', 00H				; `string'
CONST	ENDS
;	COMDAT ??_C@_0BK@MBJHCFAN@Command_Evo_NeedMoneyVip2?$AA@
CONST	SEGMENT
??_C@_0BK@MBJHCFAN@Command_Evo_NeedMoneyVip2?$AA@ DB 'Command_Evo_NeedMon'
	DB	'eyVip2', 00H				; `string'
CONST	ENDS
;	COMDAT ??_C@_0BK@OKLKHGMO@Command_Evo_NeedMoneyVip1?$AA@
CONST	SEGMENT
??_C@_0BK@OKLKHGMO@Command_Evo_NeedMoneyVip1?$AA@ DB 'Command_Evo_NeedMon'
	DB	'eyVip1', 00H				; `string'
CONST	ENDS
;	COMDAT ??_C@_0BK@MJHIMIBJ@Command_Evo_NeedMoneyFree?$AA@
CONST	SEGMENT
??_C@_0BK@MJHIMIBJ@Command_Evo_NeedMoneyFree?$AA@ DB 'Command_Evo_NeedMon'
	DB	'eyFree', 00H				; `string'
CONST	ENDS
;	COMDAT ??_C@_0BK@FOCFEMFK@Command_Evo_NeedLevelVip3?$AA@
CONST	SEGMENT
??_C@_0BK@FOCFEMFK@Command_Evo_NeedLevelVip3?$AA@ DB 'Command_Evo_NeedLev'
	DB	'elVip3', 00H				; `string'
CONST	ENDS
;	COMDAT ??_C@_0BK@EHDOHNBL@Command_Evo_NeedLevelVip2?$AA@
CONST	SEGMENT
??_C@_0BK@EHDOHNBL@Command_Evo_NeedLevelVip2?$AA@ DB 'Command_Evo_NeedLev'
	DB	'elVip2', 00H				; `string'
CONST	ENDS
;	COMDAT ??_C@_0BK@GMBDCONI@Command_Evo_NeedLevelVip1?$AA@
CONST	SEGMENT
??_C@_0BK@GMBDCONI@Command_Evo_NeedLevelVip1?$AA@ DB 'Command_Evo_NeedLev'
	DB	'elVip1', 00H				; `string'
CONST	ENDS
;	COMDAT ??_C@_0BK@EPNBJAAP@Command_Evo_NeedLevelFree?$AA@
CONST	SEGMENT
??_C@_0BK@EPNBJAAP@Command_Evo_NeedLevelFree?$AA@ DB 'Command_Evo_NeedLev'
	DB	'elFree', 00H				; `string'
CONST	ENDS
;	COMDAT ??_C@_0BH@JIPAHDJF@Command_Evo_SwitchVip3?$AA@
CONST	SEGMENT
??_C@_0BH@JIPAHDJF@Command_Evo_SwitchVip3?$AA@ DB 'Command_Evo_SwitchVip3'
	DB	00H						; `string'
CONST	ENDS
;	COMDAT ??_C@_0BH@IBOLECNE@Command_Evo_SwitchVip2?$AA@
CONST	SEGMENT
??_C@_0BH@IBOLECNE@Command_Evo_SwitchVip2?$AA@ DB 'Command_Evo_SwitchVip2'
	DB	00H						; `string'
CONST	ENDS
;	COMDAT ??_C@_0BH@KKMGBBBH@Command_Evo_SwitchVip1?$AA@
CONST	SEGMENT
??_C@_0BH@KKMGBBBH@Command_Evo_SwitchVip1?$AA@ DB 'Command_Evo_SwitchVip1'
	DB	00H						; `string'
CONST	ENDS
;	COMDAT ??_C@_0BH@IJAEKPMA@Command_Evo_SwitchFree?$AA@
CONST	SEGMENT
??_C@_0BH@IJAEKPMA@Command_Evo_SwitchFree?$AA@ DB 'Command_Evo_SwitchFree'
	DB	00H						; `string'
CONST	ENDS
;	COMDAT ??_C@_0BE@CDDPLADH@Command_Evo_Enabled?$AA@
CONST	SEGMENT
??_C@_0BE@CDDPLADH@Command_Evo_Enabled?$AA@ DB 'Command_Evo_Enabled', 00H ; `string'
CONST	ENDS
;	COMDAT ??_C@_0BD@LFJFNECH@Command_Evo_Sintax?$AA@
CONST	SEGMENT
??_C@_0BD@LFJFNECH@Command_Evo_Sintax?$AA@ DB 'Command_Evo_Sintax', 00H ; `string'
CONST	ENDS
;	COMDAT ??_C@_0CH@PKGIKIPK@Command_HeroClear_NeedMasterRese@
CONST	SEGMENT
??_C@_0CH@PKGIKIPK@Command_HeroClear_NeedMasterRese@ DB 'Command_HeroClea'
	DB	'r_NeedMasterResetsVip3', 00H		; `string'
CONST	ENDS
;	COMDAT ??_C@_0CH@ODHDJJLL@Command_HeroClear_NeedMasterRese@
CONST	SEGMENT
??_C@_0CH@ODHDJJLL@Command_HeroClear_NeedMasterRese@ DB 'Command_HeroClea'
	DB	'r_NeedMasterResetsVip2', 00H		; `string'
CONST	ENDS
;	COMDAT ??_C@_0CH@MIFOMKHI@Command_HeroClear_NeedMasterRese@
CONST	SEGMENT
??_C@_0CH@MIFOMKHI@Command_HeroClear_NeedMasterRese@ DB 'Command_HeroClea'
	DB	'r_NeedMasterResetsVip1', 00H		; `string'
CONST	ENDS
;	COMDAT ??_C@_0CH@OLJMHEKP@Command_HeroClear_NeedMasterRese@
CONST	SEGMENT
??_C@_0CH@OLJMHEKP@Command_HeroClear_NeedMasterRese@ DB 'Command_HeroClea'
	DB	'r_NeedMasterResetsFree', 00H		; `string'
CONST	ENDS
;	COMDAT ??_C@_0CB@MOGICDLB@Command_HeroClear_NeedResetsVip3@
CONST	SEGMENT
??_C@_0CB@MOGICDLB@Command_HeroClear_NeedResetsVip3@ DB 'Command_HeroClea'
	DB	'r_NeedResetsVip3', 00H			; `string'
CONST	ENDS
;	COMDAT ??_C@_0CB@NHHDBCPA@Command_HeroClear_NeedResetsVip2@
CONST	SEGMENT
??_C@_0CB@NHHDBCPA@Command_HeroClear_NeedResetsVip2@ DB 'Command_HeroClea'
	DB	'r_NeedResetsVip2', 00H			; `string'
CONST	ENDS
;	COMDAT ??_C@_0CB@PMFOEBDD@Command_HeroClear_NeedResetsVip1@
CONST	SEGMENT
??_C@_0CB@PMFOEBDD@Command_HeroClear_NeedResetsVip1@ DB 'Command_HeroClea'
	DB	'r_NeedResetsVip1', 00H			; `string'
CONST	ENDS
;	COMDAT ??_C@_0CB@NPJMPPOE@Command_HeroClear_NeedResetsFree@
CONST	SEGMENT
??_C@_0CB@NPJMPPOE@Command_HeroClear_NeedResetsFree@ DB 'Command_HeroClea'
	DB	'r_NeedResetsFree', 00H			; `string'
CONST	ENDS
;	COMDAT ??_C@_0CA@MHHGOEAE@Command_HeroClear_NeedMoneyVip3?$AA@
CONST	SEGMENT
??_C@_0CA@MHHGOEAE@Command_HeroClear_NeedMoneyVip3?$AA@ DB 'Command_HeroC'
	DB	'lear_NeedMoneyVip3', 00H			; `string'
CONST	ENDS
;	COMDAT ??_C@_0CA@NOGNNFEF@Command_HeroClear_NeedMoneyVip2?$AA@
CONST	SEGMENT
??_C@_0CA@NOGNNFEF@Command_HeroClear_NeedMoneyVip2?$AA@ DB 'Command_HeroC'
	DB	'lear_NeedMoneyVip2', 00H			; `string'
CONST	ENDS
;	COMDAT ??_C@_0CA@PFEAIGIG@Command_HeroClear_NeedMoneyVip1?$AA@
CONST	SEGMENT
??_C@_0CA@PFEAIGIG@Command_HeroClear_NeedMoneyVip1?$AA@ DB 'Command_HeroC'
	DB	'lear_NeedMoneyVip1', 00H			; `string'
CONST	ENDS
;	COMDAT ??_C@_0CA@NGICDIFB@Command_HeroClear_NeedMoneyFree?$AA@
CONST	SEGMENT
??_C@_0CA@NGICDIFB@Command_HeroClear_NeedMoneyFree?$AA@ DB 'Command_HeroC'
	DB	'lear_NeedMoneyFree', 00H			; `string'
CONST	ENDS
;	COMDAT ??_C@_0CA@EBNPLMBC@Command_HeroClear_NeedLevelVip3?$AA@
CONST	SEGMENT
??_C@_0CA@EBNPLMBC@Command_HeroClear_NeedLevelVip3?$AA@ DB 'Command_HeroC'
	DB	'lear_NeedLevelVip3', 00H			; `string'
CONST	ENDS
;	COMDAT ??_C@_0CA@FIMEINFD@Command_HeroClear_NeedLevelVip2?$AA@
CONST	SEGMENT
??_C@_0CA@FIMEINFD@Command_HeroClear_NeedLevelVip2?$AA@ DB 'Command_HeroC'
	DB	'lear_NeedLevelVip2', 00H			; `string'
CONST	ENDS
;	COMDAT ??_C@_0CA@HDOJNOJA@Command_HeroClear_NeedLevelVip1?$AA@
CONST	SEGMENT
??_C@_0CA@HDOJNOJA@Command_HeroClear_NeedLevelVip1?$AA@ DB 'Command_HeroC'
	DB	'lear_NeedLevelVip1', 00H			; `string'
CONST	ENDS
;	COMDAT ??_C@_0CA@FACLGAEH@Command_HeroClear_NeedLevelFree?$AA@
CONST	SEGMENT
??_C@_0CA@FACLGAEH@Command_HeroClear_NeedLevelFree?$AA@ DB 'Command_HeroC'
	DB	'lear_NeedLevelFree', 00H			; `string'
CONST	ENDS
;	COMDAT ??_C@_0BN@FHPBGEME@Command_HeroClear_SwitchVip3?$AA@
CONST	SEGMENT
??_C@_0BN@FHPBGEME@Command_HeroClear_SwitchVip3?$AA@ DB 'Command_HeroClea'
	DB	'r_SwitchVip3', 00H				; `string'
CONST	ENDS
;	COMDAT ??_C@_0BN@EOOKFFIF@Command_HeroClear_SwitchVip2?$AA@
CONST	SEGMENT
??_C@_0BN@EOOKFFIF@Command_HeroClear_SwitchVip2?$AA@ DB 'Command_HeroClea'
	DB	'r_SwitchVip2', 00H				; `string'
CONST	ENDS
;	COMDAT ??_C@_0BN@GFMHAGEG@Command_HeroClear_SwitchVip1?$AA@
CONST	SEGMENT
??_C@_0BN@GFMHAGEG@Command_HeroClear_SwitchVip1?$AA@ DB 'Command_HeroClea'
	DB	'r_SwitchVip1', 00H				; `string'
CONST	ENDS
;	COMDAT ??_C@_0BN@EGAFLIJB@Command_HeroClear_SwitchFree?$AA@
CONST	SEGMENT
??_C@_0BN@EGAFLIJB@Command_HeroClear_SwitchFree?$AA@ DB 'Command_HeroClea'
	DB	'r_SwitchFree', 00H				; `string'
CONST	ENDS
;	COMDAT ??_C@_0BK@HPCBOFKO@Command_HeroClear_Enabled?$AA@
CONST	SEGMENT
??_C@_0BK@HPCBOFKO@Command_HeroClear_Enabled?$AA@ DB 'Command_HeroClear_E'
	DB	'nabled', 00H				; `string'
CONST	ENDS
;	COMDAT ??_C@_0BJ@BIKKEJJM@Command_HeroClear_Sintax?$AA@
CONST	SEGMENT
??_C@_0BJ@BIKKEJJM@Command_HeroClear_Sintax?$AA@ DB 'Command_HeroClear_Si'
	DB	'ntax', 00H					; `string'
CONST	ENDS
;	COMDAT ??_C@_0CF@BKILJONK@Command_PKClear_NeedMasterResets@
CONST	SEGMENT
??_C@_0CF@BKILJONK@Command_PKClear_NeedMasterResets@ DB 'Command_PKClear_'
	DB	'NeedMasterResetsVip3', 00H			; `string'
CONST	ENDS
;	COMDAT ??_C@_0CF@DJAKPJL@Command_PKClear_NeedMasterResets@
CONST	SEGMENT
??_C@_0CF@DJAKPJL@Command_PKClear_NeedMasterResets@ DB 'Command_PKClear_N'
	DB	'eedMasterResetsVip2', 00H			; `string'
CONST	ENDS
;	COMDAT ??_C@_0CF@CILNPMFI@Command_PKClear_NeedMasterResets@
CONST	SEGMENT
??_C@_0CF@CILNPMFI@Command_PKClear_NeedMasterResets@ DB 'Command_PKClear_'
	DB	'NeedMasterResetsVip1', 00H			; `string'
CONST	ENDS
;	COMDAT ??_C@_0CF@LHPECIP@Command_PKClear_NeedMasterResets@
CONST	SEGMENT
??_C@_0CF@LHPECIP@Command_PKClear_NeedMasterResets@ DB 'Command_PKClear_N'
	DB	'eedMasterResetsFree', 00H			; `string'
CONST	ENDS
;	COMDAT ??_C@_0BP@INNFANKB@Command_PKClear_NeedResetsVip3?$AA@
CONST	SEGMENT
??_C@_0BP@INNFANKB@Command_PKClear_NeedResetsVip3?$AA@ DB 'Command_PKClea'
	DB	'r_NeedResetsVip3', 00H			; `string'
CONST	ENDS
;	COMDAT ??_C@_0BP@JEMODMOA@Command_PKClear_NeedResetsVip2?$AA@
CONST	SEGMENT
??_C@_0BP@JEMODMOA@Command_PKClear_NeedResetsVip2?$AA@ DB 'Command_PKClea'
	DB	'r_NeedResetsVip2', 00H			; `string'
CONST	ENDS
;	COMDAT ??_C@_0BP@LPODGPCD@Command_PKClear_NeedResetsVip1?$AA@
CONST	SEGMENT
??_C@_0BP@LPODGPCD@Command_PKClear_NeedResetsVip1?$AA@ DB 'Command_PKClea'
	DB	'r_NeedResetsVip1', 00H			; `string'
CONST	ENDS
;	COMDAT ??_C@_0BP@JMCBNBPE@Command_PKClear_NeedResetsFree?$AA@
CONST	SEGMENT
??_C@_0BP@JMCBNBPE@Command_PKClear_NeedResetsFree?$AA@ DB 'Command_PKClea'
	DB	'r_NeedResetsFree', 00H			; `string'
CONST	ENDS
;	COMDAT ??_C@_0BO@BDLBJOGM@Command_PKClear_NeedMoneyVip3?$AA@
CONST	SEGMENT
??_C@_0BO@BDLBJOGM@Command_PKClear_NeedMoneyVip3?$AA@ DB 'Command_PKClear'
	DB	'_NeedMoneyVip3', 00H			; `string'
CONST	ENDS
;	COMDAT ??_C@_0BO@KKKKPCN@Command_PKClear_NeedMoneyVip2?$AA@
CONST	SEGMENT
??_C@_0BO@KKKKPCN@Command_PKClear_NeedMoneyVip2?$AA@ DB 'Command_PKClear_'
	DB	'NeedMoneyVip2', 00H				; `string'
CONST	ENDS
;	COMDAT ??_C@_0BO@CBIHPMOO@Command_PKClear_NeedMoneyVip1?$AA@
CONST	SEGMENT
??_C@_0BO@CBIHPMOO@Command_PKClear_NeedMoneyVip1?$AA@ DB 'Command_PKClear'
	DB	'_NeedMoneyVip1', 00H			; `string'
CONST	ENDS
;	COMDAT ??_C@_0BO@CEFECDJ@Command_PKClear_NeedMoneyFree?$AA@
CONST	SEGMENT
??_C@_0BO@CEFECDJ@Command_PKClear_NeedMoneyFree?$AA@ DB 'Command_PKClear_'
	DB	'NeedMoneyFree', 00H				; `string'
CONST	ENDS
;	COMDAT ??_C@_0BO@JFBIMGHK@Command_PKClear_NeedLevelVip3?$AA@
CONST	SEGMENT
??_C@_0BO@JFBIMGHK@Command_PKClear_NeedLevelVip3?$AA@ DB 'Command_PKClear'
	DB	'_NeedLevelVip3', 00H			; `string'
CONST	ENDS
;	COMDAT ??_C@_0BO@IMADPHDL@Command_PKClear_NeedLevelVip2?$AA@
CONST	SEGMENT
??_C@_0BO@IMADPHDL@Command_PKClear_NeedLevelVip2?$AA@ DB 'Command_PKClear'
	DB	'_NeedLevelVip2', 00H			; `string'
CONST	ENDS
;	COMDAT ??_C@_0BO@KHCOKEPI@Command_PKClear_NeedLevelVip1?$AA@
CONST	SEGMENT
??_C@_0BO@KHCOKEPI@Command_PKClear_NeedLevelVip1?$AA@ DB 'Command_PKClear'
	DB	'_NeedLevelVip1', 00H			; `string'
CONST	ENDS
;	COMDAT ??_C@_0BO@IEOMBKCP@Command_PKClear_NeedLevelFree?$AA@
CONST	SEGMENT
??_C@_0BO@IEOMBKCP@Command_PKClear_NeedLevelFree?$AA@ DB 'Command_PKClear'
	DB	'_NeedLevelFree', 00H			; `string'
CONST	ENDS
;	COMDAT ??_C@_0BL@DLINCEIO@Command_PKClear_SwitchVip3?$AA@
CONST	SEGMENT
??_C@_0BL@DLINCEIO@Command_PKClear_SwitchVip3?$AA@ DB 'Command_PKClear_Sw'
	DB	'itchVip3', 00H				; `string'
CONST	ENDS
;	COMDAT ??_C@_0BL@CCJGBFMP@Command_PKClear_SwitchVip2?$AA@
CONST	SEGMENT
??_C@_0BL@CCJGBFMP@Command_PKClear_SwitchVip2?$AA@ DB 'Command_PKClear_Sw'
	DB	'itchVip2', 00H				; `string'
CONST	ENDS
;	COMDAT ??_C@_0BL@JLLEGAM@Command_PKClear_SwitchVip1?$AA@
CONST	SEGMENT
??_C@_0BL@JLLEGAM@Command_PKClear_SwitchVip1?$AA@ DB 'Command_PKClear_Swi'
	DB	'tchVip1', 00H				; `string'
CONST	ENDS
;	COMDAT ??_C@_0BL@CKHJPINL@Command_PKClear_SwitchFree?$AA@
CONST	SEGMENT
??_C@_0BL@CKHJPINL@Command_PKClear_SwitchFree?$AA@ DB 'Command_PKClear_Sw'
	DB	'itchFree', 00H				; `string'
CONST	ENDS
;	COMDAT ??_C@_0BI@FCLMHIJN@Command_PKClear_Enabled?$AA@
CONST	SEGMENT
??_C@_0BI@FCLMHIJN@Command_PKClear_Enabled?$AA@ DB 'Command_PKClear_Enabl'
	DB	'ed', 00H					; `string'
CONST	ENDS
;	COMDAT ??_C@_0BH@IHNIPHGD@Command_PKClear_Sintax?$AA@
CONST	SEGMENT
??_C@_0BH@IHNIPHGD@Command_PKClear_Sintax?$AA@ DB 'Command_PKClear_Sintax'
	DB	00H						; `string'
CONST	ENDS
;	COMDAT ??_C@_0BD@NIJDNKFF@Command_Post_Delay?$AA@
CONST	SEGMENT
??_C@_0BD@NIJDNKFF@Command_Post_Delay?$AA@ DB 'Command_Post_Delay', 00H ; `string'
CONST	ENDS
;	COMDAT ??_C@_0BL@NAHKPHFK@Command_Post_TypeColorVip3?$AA@
CONST	SEGMENT
??_C@_0BL@NAHKPHFK@Command_Post_TypeColorVip3?$AA@ DB 'Command_Post_TypeC'
	DB	'olorVip3', 00H				; `string'
CONST	ENDS
;	COMDAT ??_C@_0BL@MJGBMGBL@Command_Post_TypeColorVip2?$AA@
CONST	SEGMENT
??_C@_0BL@MJGBMGBL@Command_Post_TypeColorVip2?$AA@ DB 'Command_Post_TypeC'
	DB	'olorVip2', 00H				; `string'
CONST	ENDS
;	COMDAT ??_C@_0BL@OCEMJFNI@Command_Post_TypeColorVip1?$AA@
CONST	SEGMENT
??_C@_0BL@OCEMJFNI@Command_Post_TypeColorVip1?$AA@ DB 'Command_Post_TypeC'
	DB	'olorVip1', 00H				; `string'
CONST	ENDS
;	COMDAT ??_C@_0BL@MBIOCLAP@Command_Post_TypeColorFree?$AA@
CONST	SEGMENT
??_C@_0BL@MBIOCLAP@Command_Post_TypeColorFree?$AA@ DB 'Command_Post_TypeC'
	DB	'olorFree', 00H				; `string'
CONST	ENDS
;	COMDAT ??_C@_0CC@KDBKGIEF@Command_Post_NeedMasterResetsVip@
CONST	SEGMENT
??_C@_0CC@KDBKGIEF@Command_Post_NeedMasterResetsVip@ DB 'Command_Post_Nee'
	DB	'dMasterResetsVip3', 00H			; `string'
CONST	ENDS
;	COMDAT ??_C@_0CC@LKABFJAE@Command_Post_NeedMasterResetsVip@
CONST	SEGMENT
??_C@_0CC@LKABFJAE@Command_Post_NeedMasterResetsVip@ DB 'Command_Post_Nee'
	DB	'dMasterResetsVip2', 00H			; `string'
CONST	ENDS
;	COMDAT ??_C@_0CC@JBCMAKMH@Command_Post_NeedMasterResetsVip@
CONST	SEGMENT
??_C@_0CC@JBCMAKMH@Command_Post_NeedMasterResetsVip@ DB 'Command_Post_Nee'
	DB	'dMasterResetsVip1', 00H			; `string'
CONST	ENDS
;	COMDAT ??_C@_0CC@LCOOLEBA@Command_Post_NeedMasterResetsFre@
CONST	SEGMENT
??_C@_0CC@LCOOLEBA@Command_Post_NeedMasterResetsFre@ DB 'Command_Post_Nee'
	DB	'dMasterResetsFree', 00H			; `string'
CONST	ENDS
;	COMDAT ??_C@_0BM@PAEMAOFN@Command_Post_NeedResetsVip3?$AA@
CONST	SEGMENT
??_C@_0BM@PAEMAOFN@Command_Post_NeedResetsVip3?$AA@ DB 'Command_Post_Need'
	DB	'ResetsVip3', 00H				; `string'
CONST	ENDS
;	COMDAT ??_C@_0BM@OJFHDPBM@Command_Post_NeedResetsVip2?$AA@
CONST	SEGMENT
??_C@_0BM@OJFHDPBM@Command_Post_NeedResetsVip2?$AA@ DB 'Command_Post_Need'
	DB	'ResetsVip2', 00H				; `string'
CONST	ENDS
;	COMDAT ??_C@_0BM@MCHKGMNP@Command_Post_NeedResetsVip1?$AA@
CONST	SEGMENT
??_C@_0BM@MCHKGMNP@Command_Post_NeedResetsVip1?$AA@ DB 'Command_Post_Need'
	DB	'ResetsVip1', 00H				; `string'
CONST	ENDS
;	COMDAT ??_C@_0BM@OBLINCAI@Command_Post_NeedResetsFree?$AA@
CONST	SEGMENT
??_C@_0BM@OBLINCAI@Command_Post_NeedResetsFree?$AA@ DB 'Command_Post_Need'
	DB	'ResetsFree', 00H				; `string'
CONST	ENDS
;	COMDAT ??_C@_0BL@INCMNDOD@Command_Post_NeedMoneyVip3?$AA@
CONST	SEGMENT
??_C@_0BL@INCMNDOD@Command_Post_NeedMoneyVip3?$AA@ DB 'Command_Post_NeedM'
	DB	'oneyVip3', 00H				; `string'
CONST	ENDS
;	COMDAT ??_C@_0BL@JEDHOCKC@Command_Post_NeedMoneyVip2?$AA@
CONST	SEGMENT
??_C@_0BL@JEDHOCKC@Command_Post_NeedMoneyVip2?$AA@ DB 'Command_Post_NeedM'
	DB	'oneyVip2', 00H				; `string'
CONST	ENDS
;	COMDAT ??_C@_0BL@LPBKLBGB@Command_Post_NeedMoneyVip1?$AA@
CONST	SEGMENT
??_C@_0BL@LPBKLBGB@Command_Post_NeedMoneyVip1?$AA@ DB 'Command_Post_NeedM'
	DB	'oneyVip1', 00H				; `string'
CONST	ENDS
;	COMDAT ??_C@_0BL@JMNIAPLG@Command_Post_NeedMoneyFree?$AA@
CONST	SEGMENT
??_C@_0BL@JMNIAPLG@Command_Post_NeedMoneyFree?$AA@ DB 'Command_Post_NeedM'
	DB	'oneyFree', 00H				; `string'
CONST	ENDS
;	COMDAT ??_C@_0BL@LIFILPF@Command_Post_NeedLevelVip3?$AA@
CONST	SEGMENT
??_C@_0BL@LIFILPF@Command_Post_NeedLevelVip3?$AA@ DB 'Command_Post_NeedLe'
	DB	'velVip3', 00H				; `string'
CONST	ENDS
;	COMDAT ??_C@_0BL@BCJOLKLE@Command_Post_NeedLevelVip2?$AA@
CONST	SEGMENT
??_C@_0BL@BCJOLKLE@Command_Post_NeedLevelVip2?$AA@ DB 'Command_Post_NeedL'
	DB	'evelVip2', 00H				; `string'
CONST	ENDS
;	COMDAT ??_C@_0BL@DJLDOJHH@Command_Post_NeedLevelVip1?$AA@
CONST	SEGMENT
??_C@_0BL@DJLDOJHH@Command_Post_NeedLevelVip1?$AA@ DB 'Command_Post_NeedL'
	DB	'evelVip1', 00H				; `string'
CONST	ENDS
;	COMDAT ??_C@_0BL@BKHBFHKA@Command_Post_NeedLevelFree?$AA@
CONST	SEGMENT
??_C@_0BL@BKHBFHKA@Command_Post_NeedLevelFree?$AA@ DB 'Command_Post_NeedL'
	DB	'evelFree', 00H				; `string'
CONST	ENDS
;	COMDAT ??_C@_0BI@KDBKGLFA@Command_Post_SwitchVip3?$AA@
CONST	SEGMENT
??_C@_0BI@KDBKGLFA@Command_Post_SwitchVip3?$AA@ DB 'Command_Post_SwitchVi'
	DB	'p3', 00H					; `string'
CONST	ENDS
;	COMDAT ??_C@_0BI@LKABFKBB@Command_Post_SwitchVip2?$AA@
CONST	SEGMENT
??_C@_0BI@LKABFKBB@Command_Post_SwitchVip2?$AA@ DB 'Command_Post_SwitchVi'
	DB	'p2', 00H					; `string'
CONST	ENDS
;	COMDAT ??_C@_0BI@JBCMAJNC@Command_Post_SwitchVip1?$AA@
CONST	SEGMENT
??_C@_0BI@JBCMAJNC@Command_Post_SwitchVip1?$AA@ DB 'Command_Post_SwitchVi'
	DB	'p1', 00H					; `string'
CONST	ENDS
;	COMDAT ??_C@_0BI@LCOOLHAF@Command_Post_SwitchFree?$AA@
CONST	SEGMENT
??_C@_0BI@LCOOLHAF@Command_Post_SwitchFree?$AA@ DB 'Command_Post_SwitchFr'
	DB	'ee', 00H					; `string'
CONST	ENDS
;	COMDAT ??_C@_0BF@LMBDHHOH@Command_Post_Enabled?$AA@
CONST	SEGMENT
??_C@_0BF@LMBDHHOH@Command_Post_Enabled?$AA@ DB 'Command_Post_Enabled', 00H ; `string'
CONST	ENDS
;	COMDAT ??_C@_08JNEOMACB@Commands?$AA@
CONST	SEGMENT
??_C@_08JNEOMACB@Commands?$AA@ DB 'Commands', 00H	; `string'
CONST	ENDS
;	COMDAT ??_C@_0BE@CGLGKBGB@Command_Post_Sintax?$AA@
CONST	SEGMENT
??_C@_0BE@CGLGKBGB@Command_Post_Sintax?$AA@ DB 'Command_Post_Sintax', 00H ; `string'
CONST	ENDS
;	COMDAT ??_C@_0CE@BMBMBCJB@?4?2Customs?2Commands?2Hgt_Commands?4@
CONST	SEGMENT
??_C@_0CE@BMBMBCJB@?4?2Customs?2Commands?2Hgt_Commands?4@ DB '.\Customs\C'
	DB	'ommands\Hgt_Commands.ini', 00H		; `string'
; Function compile flags: /Ogtp
CONST	ENDS
;	COMDAT ?Load@CCommands@@QAEXXZ
_TEXT	SEGMENT
?Load@CCommands@@QAEXXZ PROC				; CCommands::Load, COMDAT
; _this$ = ecx

; 14   : {

  00000	53		 push	 ebx

; 15   : 	GetPrivateProfileString("Commands", "Command_Post_Sintax", NULL, this->m_Data[COMMAND_POST].szSintax, sizeof(this->m_Data[COMMAND_POST].szSintax), COMMANDS_FILE);

  00001	8b 1d 00 00 00
	00		 mov	 ebx, DWORD PTR __imp__GetPrivateProfileStringA@24
  00007	56		 push	 esi
  00008	57		 push	 edi
  00009	68 00 00 00 00	 push	 OFFSET ??_C@_0CE@BMBMBCJB@?4?2Customs?2Commands?2Hgt_Commands?4@
  0000e	6a 14		 push	 20			; 00000014H
  00010	8b f1		 mov	 esi, ecx
  00012	8d 46 58	 lea	 eax, DWORD PTR [esi+88]
  00015	50		 push	 eax
  00016	6a 00		 push	 0
  00018	68 00 00 00 00	 push	 OFFSET ??_C@_0BE@CGLGKBGB@Command_Post_Sintax?$AA@
  0001d	68 00 00 00 00	 push	 OFFSET ??_C@_08JNEOMACB@Commands?$AA@
  00022	ff d3		 call	 ebx

; 16   : 	// ---
; 17   : 	this->m_Data[COMMAND_POST].iEnabled				= GetPrivateProfileInt("Commands", "Command_Post_Enabled", NULL, COMMANDS_FILE);

  00024	8b 3d 00 00 00
	00		 mov	 edi, DWORD PTR __imp__GetPrivateProfileIntA@16
  0002a	68 00 00 00 00	 push	 OFFSET ??_C@_0CE@BMBMBCJB@?4?2Customs?2Commands?2Hgt_Commands?4@
  0002f	6a 00		 push	 0
  00031	68 00 00 00 00	 push	 OFFSET ??_C@_0BF@LMBDHHOH@Command_Post_Enabled?$AA@
  00036	68 00 00 00 00	 push	 OFFSET ??_C@_08JNEOMACB@Commands?$AA@
  0003b	ff d7		 call	 edi

; 18   : 	this->m_Data[COMMAND_POST].iVipOnly[0]			= GetPrivateProfileInt("Commands", "Command_Post_SwitchFree", NULL, COMMANDS_FILE);

  0003d	68 00 00 00 00	 push	 OFFSET ??_C@_0CE@BMBMBCJB@?4?2Customs?2Commands?2Hgt_Commands?4@
  00042	6a 00		 push	 0
  00044	85 c0		 test	 eax, eax
  00046	68 00 00 00 00	 push	 OFFSET ??_C@_0BI@LCOOLHAF@Command_Post_SwitchFree?$AA@
  0004b	0f 95 c1	 setne	 cl
  0004e	68 00 00 00 00	 push	 OFFSET ??_C@_08JNEOMACB@Commands?$AA@
  00053	88 0e		 mov	 BYTE PTR [esi], cl
  00055	ff d7		 call	 edi

; 19   : 	this->m_Data[COMMAND_POST].iVipOnly[1]			= GetPrivateProfileInt("Commands", "Command_Post_SwitchVip1", NULL, COMMANDS_FILE);

  00057	68 00 00 00 00	 push	 OFFSET ??_C@_0CE@BMBMBCJB@?4?2Customs?2Commands?2Hgt_Commands?4@
  0005c	6a 00		 push	 0
  0005e	68 00 00 00 00	 push	 OFFSET ??_C@_0BI@JBCMAJNC@Command_Post_SwitchVip1?$AA@
  00063	68 00 00 00 00	 push	 OFFSET ??_C@_08JNEOMACB@Commands?$AA@
  00068	89 46 04	 mov	 DWORD PTR [esi+4], eax
  0006b	ff d7		 call	 edi

; 20   : 	this->m_Data[COMMAND_POST].iVipOnly[2]			= GetPrivateProfileInt("Commands", "Command_Post_SwitchVip2", NULL, COMMANDS_FILE);

  0006d	68 00 00 00 00	 push	 OFFSET ??_C@_0CE@BMBMBCJB@?4?2Customs?2Commands?2Hgt_Commands?4@
  00072	6a 00		 push	 0
  00074	68 00 00 00 00	 push	 OFFSET ??_C@_0BI@LKABFKBB@Command_Post_SwitchVip2?$AA@
  00079	68 00 00 00 00	 push	 OFFSET ??_C@_08JNEOMACB@Commands?$AA@
  0007e	89 46 08	 mov	 DWORD PTR [esi+8], eax
  00081	ff d7		 call	 edi

; 21   : 	this->m_Data[COMMAND_POST].iVipOnly[3]			= GetPrivateProfileInt("Commands", "Command_Post_SwitchVip3", NULL, COMMANDS_FILE);

  00083	68 00 00 00 00	 push	 OFFSET ??_C@_0CE@BMBMBCJB@?4?2Customs?2Commands?2Hgt_Commands?4@
  00088	6a 00		 push	 0
  0008a	68 00 00 00 00	 push	 OFFSET ??_C@_0BI@KDBKGLFA@Command_Post_SwitchVip3?$AA@
  0008f	68 00 00 00 00	 push	 OFFSET ??_C@_08JNEOMACB@Commands?$AA@
  00094	89 46 0c	 mov	 DWORD PTR [esi+12], eax
  00097	ff d7		 call	 edi

; 22   : 	this->m_Data[COMMAND_POST].iLevel[0]			= GetPrivateProfileInt("Commands", "Command_Post_NeedLevelFree", NULL, COMMANDS_FILE);

  00099	68 00 00 00 00	 push	 OFFSET ??_C@_0CE@BMBMBCJB@?4?2Customs?2Commands?2Hgt_Commands?4@
  0009e	6a 00		 push	 0
  000a0	68 00 00 00 00	 push	 OFFSET ??_C@_0BL@BKHBFHKA@Command_Post_NeedLevelFree?$AA@
  000a5	68 00 00 00 00	 push	 OFFSET ??_C@_08JNEOMACB@Commands?$AA@
  000aa	89 46 10	 mov	 DWORD PTR [esi+16], eax
  000ad	ff d7		 call	 edi

; 23   : 	this->m_Data[COMMAND_POST].iLevel[1]			= GetPrivateProfileInt("Commands", "Command_Post_NeedLevelVip1", NULL, COMMANDS_FILE);

  000af	68 00 00 00 00	 push	 OFFSET ??_C@_0CE@BMBMBCJB@?4?2Customs?2Commands?2Hgt_Commands?4@
  000b4	6a 00		 push	 0
  000b6	68 00 00 00 00	 push	 OFFSET ??_C@_0BL@DJLDOJHH@Command_Post_NeedLevelVip1?$AA@
  000bb	68 00 00 00 00	 push	 OFFSET ??_C@_08JNEOMACB@Commands?$AA@
  000c0	89 46 14	 mov	 DWORD PTR [esi+20], eax
  000c3	ff d7		 call	 edi

; 24   : 	this->m_Data[COMMAND_POST].iLevel[2]			= GetPrivateProfileInt("Commands", "Command_Post_NeedLevelVip2", NULL, COMMANDS_FILE);

  000c5	68 00 00 00 00	 push	 OFFSET ??_C@_0CE@BMBMBCJB@?4?2Customs?2Commands?2Hgt_Commands?4@
  000ca	6a 00		 push	 0
  000cc	68 00 00 00 00	 push	 OFFSET ??_C@_0BL@BCJOLKLE@Command_Post_NeedLevelVip2?$AA@
  000d1	68 00 00 00 00	 push	 OFFSET ??_C@_08JNEOMACB@Commands?$AA@
  000d6	89 46 18	 mov	 DWORD PTR [esi+24], eax
  000d9	ff d7		 call	 edi

; 25   : 	this->m_Data[COMMAND_POST].iLevel[3]			= GetPrivateProfileInt("Commands", "Command_Post_NeedLevelVip3", NULL, COMMANDS_FILE);

  000db	68 00 00 00 00	 push	 OFFSET ??_C@_0CE@BMBMBCJB@?4?2Customs?2Commands?2Hgt_Commands?4@
  000e0	6a 00		 push	 0
  000e2	68 00 00 00 00	 push	 OFFSET ??_C@_0BL@LIFILPF@Command_Post_NeedLevelVip3?$AA@
  000e7	68 00 00 00 00	 push	 OFFSET ??_C@_08JNEOMACB@Commands?$AA@
  000ec	89 46 1c	 mov	 DWORD PTR [esi+28], eax
  000ef	ff d7		 call	 edi

; 26   : 	this->m_Data[COMMAND_POST].iMoney[0]			= GetPrivateProfileInt("Commands", "Command_Post_NeedMoneyFree", NULL, COMMANDS_FILE);

  000f1	68 00 00 00 00	 push	 OFFSET ??_C@_0CE@BMBMBCJB@?4?2Customs?2Commands?2Hgt_Commands?4@
  000f6	6a 00		 push	 0
  000f8	68 00 00 00 00	 push	 OFFSET ??_C@_0BL@JMNIAPLG@Command_Post_NeedMoneyFree?$AA@
  000fd	68 00 00 00 00	 push	 OFFSET ??_C@_08JNEOMACB@Commands?$AA@
  00102	89 46 20	 mov	 DWORD PTR [esi+32], eax
  00105	ff d7		 call	 edi

; 27   : 	this->m_Data[COMMAND_POST].iMoney[1]			= GetPrivateProfileInt("Commands", "Command_Post_NeedMoneyVip1", NULL, COMMANDS_FILE);

  00107	68 00 00 00 00	 push	 OFFSET ??_C@_0CE@BMBMBCJB@?4?2Customs?2Commands?2Hgt_Commands?4@
  0010c	6a 00		 push	 0
  0010e	68 00 00 00 00	 push	 OFFSET ??_C@_0BL@LPBKLBGB@Command_Post_NeedMoneyVip1?$AA@
  00113	68 00 00 00 00	 push	 OFFSET ??_C@_08JNEOMACB@Commands?$AA@
  00118	89 46 24	 mov	 DWORD PTR [esi+36], eax
  0011b	ff d7		 call	 edi

; 28   : 	this->m_Data[COMMAND_POST].iMoney[2]			= GetPrivateProfileInt("Commands", "Command_Post_NeedMoneyVip2", NULL, COMMANDS_FILE);

  0011d	68 00 00 00 00	 push	 OFFSET ??_C@_0CE@BMBMBCJB@?4?2Customs?2Commands?2Hgt_Commands?4@
  00122	6a 00		 push	 0
  00124	68 00 00 00 00	 push	 OFFSET ??_C@_0BL@JEDHOCKC@Command_Post_NeedMoneyVip2?$AA@
  00129	68 00 00 00 00	 push	 OFFSET ??_C@_08JNEOMACB@Commands?$AA@
  0012e	89 46 28	 mov	 DWORD PTR [esi+40], eax
  00131	ff d7		 call	 edi

; 29   : 	this->m_Data[COMMAND_POST].iMoney[3]			= GetPrivateProfileInt("Commands", "Command_Post_NeedMoneyVip3", NULL, COMMANDS_FILE);

  00133	68 00 00 00 00	 push	 OFFSET ??_C@_0CE@BMBMBCJB@?4?2Customs?2Commands?2Hgt_Commands?4@
  00138	6a 00		 push	 0
  0013a	68 00 00 00 00	 push	 OFFSET ??_C@_0BL@INCMNDOD@Command_Post_NeedMoneyVip3?$AA@
  0013f	68 00 00 00 00	 push	 OFFSET ??_C@_08JNEOMACB@Commands?$AA@
  00144	89 46 2c	 mov	 DWORD PTR [esi+44], eax
  00147	ff d7		 call	 edi

; 30   : 	this->m_Data[COMMAND_POST].iResets[0]           = GetPrivateProfileInt("Commands", "Command_Post_NeedResetsFree", NULL, COMMANDS_FILE);

  00149	68 00 00 00 00	 push	 OFFSET ??_C@_0CE@BMBMBCJB@?4?2Customs?2Commands?2Hgt_Commands?4@
  0014e	6a 00		 push	 0
  00150	68 00 00 00 00	 push	 OFFSET ??_C@_0BM@OBLINCAI@Command_Post_NeedResetsFree?$AA@
  00155	68 00 00 00 00	 push	 OFFSET ??_C@_08JNEOMACB@Commands?$AA@
  0015a	89 46 30	 mov	 DWORD PTR [esi+48], eax
  0015d	ff d7		 call	 edi

; 31   : 	this->m_Data[COMMAND_POST].iResets[1]           = GetPrivateProfileInt("Commands", "Command_Post_NeedResetsVip1", NULL, COMMANDS_FILE);

  0015f	68 00 00 00 00	 push	 OFFSET ??_C@_0CE@BMBMBCJB@?4?2Customs?2Commands?2Hgt_Commands?4@
  00164	6a 00		 push	 0
  00166	68 00 00 00 00	 push	 OFFSET ??_C@_0BM@MCHKGMNP@Command_Post_NeedResetsVip1?$AA@
  0016b	68 00 00 00 00	 push	 OFFSET ??_C@_08JNEOMACB@Commands?$AA@
  00170	89 46 34	 mov	 DWORD PTR [esi+52], eax
  00173	ff d7		 call	 edi

; 32   : 	this->m_Data[COMMAND_POST].iResets[2]           = GetPrivateProfileInt("Commands", "Command_Post_NeedResetsVip2", NULL, COMMANDS_FILE);

  00175	68 00 00 00 00	 push	 OFFSET ??_C@_0CE@BMBMBCJB@?4?2Customs?2Commands?2Hgt_Commands?4@
  0017a	6a 00		 push	 0
  0017c	68 00 00 00 00	 push	 OFFSET ??_C@_0BM@OJFHDPBM@Command_Post_NeedResetsVip2?$AA@
  00181	68 00 00 00 00	 push	 OFFSET ??_C@_08JNEOMACB@Commands?$AA@
  00186	89 46 38	 mov	 DWORD PTR [esi+56], eax
  00189	ff d7		 call	 edi

; 33   : 	this->m_Data[COMMAND_POST].iResets[3]           = GetPrivateProfileInt("Commands", "Command_Post_NeedResetsVip3", NULL, COMMANDS_FILE);

  0018b	68 00 00 00 00	 push	 OFFSET ??_C@_0CE@BMBMBCJB@?4?2Customs?2Commands?2Hgt_Commands?4@
  00190	6a 00		 push	 0
  00192	68 00 00 00 00	 push	 OFFSET ??_C@_0BM@PAEMAOFN@Command_Post_NeedResetsVip3?$AA@
  00197	68 00 00 00 00	 push	 OFFSET ??_C@_08JNEOMACB@Commands?$AA@
  0019c	89 46 3c	 mov	 DWORD PTR [esi+60], eax
  0019f	ff d7		 call	 edi

; 34   : 	this->m_Data[COMMAND_POST].iMResets[0]          = GetPrivateProfileInt("Commands", "Command_Post_NeedMasterResetsFree", NULL, COMMANDS_FILE);

  001a1	68 00 00 00 00	 push	 OFFSET ??_C@_0CE@BMBMBCJB@?4?2Customs?2Commands?2Hgt_Commands?4@
  001a6	6a 00		 push	 0
  001a8	68 00 00 00 00	 push	 OFFSET ??_C@_0CC@LCOOLEBA@Command_Post_NeedMasterResetsFre@
  001ad	68 00 00 00 00	 push	 OFFSET ??_C@_08JNEOMACB@Commands?$AA@
  001b2	89 46 40	 mov	 DWORD PTR [esi+64], eax
  001b5	ff d7		 call	 edi

; 35   : 	this->m_Data[COMMAND_POST].iMResets[1]          = GetPrivateProfileInt("Commands", "Command_Post_NeedMasterResetsVip1", NULL, COMMANDS_FILE);

  001b7	68 00 00 00 00	 push	 OFFSET ??_C@_0CE@BMBMBCJB@?4?2Customs?2Commands?2Hgt_Commands?4@
  001bc	6a 00		 push	 0
  001be	68 00 00 00 00	 push	 OFFSET ??_C@_0CC@JBCMAKMH@Command_Post_NeedMasterResetsVip@
  001c3	68 00 00 00 00	 push	 OFFSET ??_C@_08JNEOMACB@Commands?$AA@
  001c8	89 46 44	 mov	 DWORD PTR [esi+68], eax
  001cb	ff d7		 call	 edi

; 36   : 	this->m_Data[COMMAND_POST].iMResets[2]          = GetPrivateProfileInt("Commands", "Command_Post_NeedMasterResetsVip2", NULL, COMMANDS_FILE);

  001cd	68 00 00 00 00	 push	 OFFSET ??_C@_0CE@BMBMBCJB@?4?2Customs?2Commands?2Hgt_Commands?4@
  001d2	6a 00		 push	 0
  001d4	68 00 00 00 00	 push	 OFFSET ??_C@_0CC@LKABFJAE@Command_Post_NeedMasterResetsVip@
  001d9	68 00 00 00 00	 push	 OFFSET ??_C@_08JNEOMACB@Commands?$AA@
  001de	89 46 48	 mov	 DWORD PTR [esi+72], eax
  001e1	ff d7		 call	 edi

; 37   : 	this->m_Data[COMMAND_POST].iMResets[3]          = GetPrivateProfileInt("Commands", "Command_Post_NeedMasterResetsVip3", NULL, COMMANDS_FILE);

  001e3	68 00 00 00 00	 push	 OFFSET ??_C@_0CE@BMBMBCJB@?4?2Customs?2Commands?2Hgt_Commands?4@
  001e8	6a 00		 push	 0
  001ea	68 00 00 00 00	 push	 OFFSET ??_C@_0CC@KDBKGIEF@Command_Post_NeedMasterResetsVip@
  001ef	68 00 00 00 00	 push	 OFFSET ??_C@_08JNEOMACB@Commands?$AA@
  001f4	89 46 4c	 mov	 DWORD PTR [esi+76], eax
  001f7	ff d7		 call	 edi

; 38   : 	this->m_Data[COMMAND_POST].iPostColor[0]		= GetPrivateProfileInt("Commands", "Command_Post_TypeColorFree", NULL, COMMANDS_FILE);

  001f9	68 00 00 00 00	 push	 OFFSET ??_C@_0CE@BMBMBCJB@?4?2Customs?2Commands?2Hgt_Commands?4@
  001fe	6a 00		 push	 0
  00200	68 00 00 00 00	 push	 OFFSET ??_C@_0BL@MBIOCLAP@Command_Post_TypeColorFree?$AA@
  00205	68 00 00 00 00	 push	 OFFSET ??_C@_08JNEOMACB@Commands?$AA@
  0020a	89 46 50	 mov	 DWORD PTR [esi+80], eax
  0020d	ff d7		 call	 edi

; 39   : 	this->m_Data[COMMAND_POST].iPostColor[1]		= GetPrivateProfileInt("Commands", "Command_Post_TypeColorVip1", NULL, COMMANDS_FILE);

  0020f	68 00 00 00 00	 push	 OFFSET ??_C@_0CE@BMBMBCJB@?4?2Customs?2Commands?2Hgt_Commands?4@
  00214	6a 00		 push	 0
  00216	68 00 00 00 00	 push	 OFFSET ??_C@_0BL@OCEMJFNI@Command_Post_TypeColorVip1?$AA@
  0021b	68 00 00 00 00	 push	 OFFSET ??_C@_08JNEOMACB@Commands?$AA@
  00220	89 86 80 00 00
	00		 mov	 DWORD PTR [esi+128], eax
  00226	ff d7		 call	 edi

; 40   : 	this->m_Data[COMMAND_POST].iPostColor[2]		= GetPrivateProfileInt("Commands", "Command_Post_TypeColorVip2", NULL, COMMANDS_FILE);

  00228	68 00 00 00 00	 push	 OFFSET ??_C@_0CE@BMBMBCJB@?4?2Customs?2Commands?2Hgt_Commands?4@
  0022d	6a 00		 push	 0
  0022f	68 00 00 00 00	 push	 OFFSET ??_C@_0BL@MJGBMGBL@Command_Post_TypeColorVip2?$AA@
  00234	68 00 00 00 00	 push	 OFFSET ??_C@_08JNEOMACB@Commands?$AA@
  00239	89 86 84 00 00
	00		 mov	 DWORD PTR [esi+132], eax
  0023f	ff d7		 call	 edi

; 41   : 	this->m_Data[COMMAND_POST].iPostColor[3]		= GetPrivateProfileInt("Commands", "Command_Post_TypeColorVip3", NULL, COMMANDS_FILE);

  00241	68 00 00 00 00	 push	 OFFSET ??_C@_0CE@BMBMBCJB@?4?2Customs?2Commands?2Hgt_Commands?4@
  00246	89 86 88 00 00
	00		 mov	 DWORD PTR [esi+136], eax
  0024c	6a 00		 push	 0
  0024e	68 00 00 00 00	 push	 OFFSET ??_C@_0BL@NAHKPHFK@Command_Post_TypeColorVip3?$AA@
  00253	68 00 00 00 00	 push	 OFFSET ??_C@_08JNEOMACB@Commands?$AA@
  00258	ff d7		 call	 edi

; 42   : 	this->m_Data[COMMAND_POST].iDelay				= GetPrivateProfileInt("Commands", "Command_Post_Delay", NULL, COMMANDS_FILE);

  0025a	68 00 00 00 00	 push	 OFFSET ??_C@_0CE@BMBMBCJB@?4?2Customs?2Commands?2Hgt_Commands?4@
  0025f	6a 00		 push	 0
  00261	68 00 00 00 00	 push	 OFFSET ??_C@_0BD@NIJDNKFF@Command_Post_Delay?$AA@
  00266	68 00 00 00 00	 push	 OFFSET ??_C@_08JNEOMACB@Commands?$AA@
  0026b	89 86 8c 00 00
	00		 mov	 DWORD PTR [esi+140], eax
  00271	ff d7		 call	 edi

; 43   : 	// ---
; 44   : 	GetPrivateProfileString("Commands", "Command_PKClear_Sintax", NULL, this->m_Data[COMMAND_PKCLEAR].szSintax, sizeof(this->m_Data[COMMAND_PKCLEAR].szSintax), COMMANDS_FILE);

  00273	68 00 00 00 00	 push	 OFFSET ??_C@_0CE@BMBMBCJB@?4?2Customs?2Commands?2Hgt_Commands?4@
  00278	6a 14		 push	 20			; 00000014H
  0027a	8d 96 3c 02 00
	00		 lea	 edx, DWORD PTR [esi+572]
  00280	52		 push	 edx
  00281	6a 00		 push	 0
  00283	68 00 00 00 00	 push	 OFFSET ??_C@_0BH@IHNIPHGD@Command_PKClear_Sintax?$AA@
  00288	68 00 00 00 00	 push	 OFFSET ??_C@_08JNEOMACB@Commands?$AA@
  0028d	89 46 54	 mov	 DWORD PTR [esi+84], eax
  00290	ff d3		 call	 ebx

; 45   : 	// ---
; 46   : 	this->m_Data[COMMAND_PKCLEAR].iEnabled			= GetPrivateProfileInt("Commands", "Command_PKClear_Enabled", NULL, COMMANDS_FILE);

  00292	68 00 00 00 00	 push	 OFFSET ??_C@_0CE@BMBMBCJB@?4?2Customs?2Commands?2Hgt_Commands?4@
  00297	6a 00		 push	 0
  00299	68 00 00 00 00	 push	 OFFSET ??_C@_0BI@FCLMHIJN@Command_PKClear_Enabled?$AA@
  0029e	68 00 00 00 00	 push	 OFFSET ??_C@_08JNEOMACB@Commands?$AA@
  002a3	ff d7		 call	 edi

; 47   : 	this->m_Data[COMMAND_PKCLEAR].iVipOnly[0]		= GetPrivateProfileInt("Commands", "Command_PKClear_SwitchFree", NULL, COMMANDS_FILE);

  002a5	68 00 00 00 00	 push	 OFFSET ??_C@_0CE@BMBMBCJB@?4?2Customs?2Commands?2Hgt_Commands?4@
  002aa	6a 00		 push	 0
  002ac	85 c0		 test	 eax, eax
  002ae	68 00 00 00 00	 push	 OFFSET ??_C@_0BL@CKHJPINL@Command_PKClear_SwitchFree?$AA@
  002b3	0f 95 c0	 setne	 al
  002b6	68 00 00 00 00	 push	 OFFSET ??_C@_08JNEOMACB@Commands?$AA@
  002bb	88 86 e4 01 00
	00		 mov	 BYTE PTR [esi+484], al
  002c1	ff d7		 call	 edi

; 48   : 	this->m_Data[COMMAND_PKCLEAR].iVipOnly[1]		= GetPrivateProfileInt("Commands", "Command_PKClear_SwitchVip1", NULL, COMMANDS_FILE);

  002c3	68 00 00 00 00	 push	 OFFSET ??_C@_0CE@BMBMBCJB@?4?2Customs?2Commands?2Hgt_Commands?4@
  002c8	6a 00		 push	 0
  002ca	68 00 00 00 00	 push	 OFFSET ??_C@_0BL@JLLEGAM@Command_PKClear_SwitchVip1?$AA@
  002cf	68 00 00 00 00	 push	 OFFSET ??_C@_08JNEOMACB@Commands?$AA@
  002d4	89 86 e8 01 00
	00		 mov	 DWORD PTR [esi+488], eax
  002da	ff d7		 call	 edi

; 49   : 	this->m_Data[COMMAND_PKCLEAR].iVipOnly[2]		= GetPrivateProfileInt("Commands", "Command_PKClear_SwitchVip2", NULL, COMMANDS_FILE);

  002dc	68 00 00 00 00	 push	 OFFSET ??_C@_0CE@BMBMBCJB@?4?2Customs?2Commands?2Hgt_Commands?4@
  002e1	6a 00		 push	 0
  002e3	68 00 00 00 00	 push	 OFFSET ??_C@_0BL@CCJGBFMP@Command_PKClear_SwitchVip2?$AA@
  002e8	68 00 00 00 00	 push	 OFFSET ??_C@_08JNEOMACB@Commands?$AA@
  002ed	89 86 ec 01 00
	00		 mov	 DWORD PTR [esi+492], eax
  002f3	ff d7		 call	 edi

; 50   : 	this->m_Data[COMMAND_PKCLEAR].iVipOnly[3]		= GetPrivateProfileInt("Commands", "Command_PKClear_SwitchVip3", NULL, COMMANDS_FILE);

  002f5	68 00 00 00 00	 push	 OFFSET ??_C@_0CE@BMBMBCJB@?4?2Customs?2Commands?2Hgt_Commands?4@
  002fa	6a 00		 push	 0
  002fc	68 00 00 00 00	 push	 OFFSET ??_C@_0BL@DLINCEIO@Command_PKClear_SwitchVip3?$AA@
  00301	68 00 00 00 00	 push	 OFFSET ??_C@_08JNEOMACB@Commands?$AA@
  00306	89 86 f0 01 00
	00		 mov	 DWORD PTR [esi+496], eax
  0030c	ff d7		 call	 edi

; 51   : 	this->m_Data[COMMAND_PKCLEAR].iLevel[0]			= GetPrivateProfileInt("Commands", "Command_PKClear_NeedLevelFree", NULL, COMMANDS_FILE);

  0030e	68 00 00 00 00	 push	 OFFSET ??_C@_0CE@BMBMBCJB@?4?2Customs?2Commands?2Hgt_Commands?4@
  00313	6a 00		 push	 0
  00315	68 00 00 00 00	 push	 OFFSET ??_C@_0BO@IEOMBKCP@Command_PKClear_NeedLevelFree?$AA@
  0031a	68 00 00 00 00	 push	 OFFSET ??_C@_08JNEOMACB@Commands?$AA@
  0031f	89 86 f4 01 00
	00		 mov	 DWORD PTR [esi+500], eax
  00325	ff d7		 call	 edi

; 52   : 	this->m_Data[COMMAND_PKCLEAR].iLevel[1]			= GetPrivateProfileInt("Commands", "Command_PKClear_NeedLevelVip1", NULL, COMMANDS_FILE);

  00327	68 00 00 00 00	 push	 OFFSET ??_C@_0CE@BMBMBCJB@?4?2Customs?2Commands?2Hgt_Commands?4@
  0032c	6a 00		 push	 0
  0032e	68 00 00 00 00	 push	 OFFSET ??_C@_0BO@KHCOKEPI@Command_PKClear_NeedLevelVip1?$AA@
  00333	68 00 00 00 00	 push	 OFFSET ??_C@_08JNEOMACB@Commands?$AA@
  00338	89 86 f8 01 00
	00		 mov	 DWORD PTR [esi+504], eax
  0033e	ff d7		 call	 edi

; 53   : 	this->m_Data[COMMAND_PKCLEAR].iLevel[2]			= GetPrivateProfileInt("Commands", "Command_PKClear_NeedLevelVip2", NULL, COMMANDS_FILE);

  00340	68 00 00 00 00	 push	 OFFSET ??_C@_0CE@BMBMBCJB@?4?2Customs?2Commands?2Hgt_Commands?4@
  00345	6a 00		 push	 0
  00347	68 00 00 00 00	 push	 OFFSET ??_C@_0BO@IMADPHDL@Command_PKClear_NeedLevelVip2?$AA@
  0034c	68 00 00 00 00	 push	 OFFSET ??_C@_08JNEOMACB@Commands?$AA@
  00351	89 86 fc 01 00
	00		 mov	 DWORD PTR [esi+508], eax
  00357	ff d7		 call	 edi

; 54   : 	this->m_Data[COMMAND_PKCLEAR].iLevel[3]			= GetPrivateProfileInt("Commands", "Command_PKClear_NeedLevelVip3", NULL, COMMANDS_FILE);

  00359	68 00 00 00 00	 push	 OFFSET ??_C@_0CE@BMBMBCJB@?4?2Customs?2Commands?2Hgt_Commands?4@
  0035e	6a 00		 push	 0
  00360	68 00 00 00 00	 push	 OFFSET ??_C@_0BO@JFBIMGHK@Command_PKClear_NeedLevelVip3?$AA@
  00365	68 00 00 00 00	 push	 OFFSET ??_C@_08JNEOMACB@Commands?$AA@
  0036a	89 86 00 02 00
	00		 mov	 DWORD PTR [esi+512], eax
  00370	ff d7		 call	 edi

; 55   : 	this->m_Data[COMMAND_PKCLEAR].iMoney[0]			= GetPrivateProfileInt("Commands", "Command_PKClear_NeedMoneyFree", NULL, COMMANDS_FILE);

  00372	68 00 00 00 00	 push	 OFFSET ??_C@_0CE@BMBMBCJB@?4?2Customs?2Commands?2Hgt_Commands?4@
  00377	6a 00		 push	 0
  00379	68 00 00 00 00	 push	 OFFSET ??_C@_0BO@CEFECDJ@Command_PKClear_NeedMoneyFree?$AA@
  0037e	68 00 00 00 00	 push	 OFFSET ??_C@_08JNEOMACB@Commands?$AA@
  00383	89 86 04 02 00
	00		 mov	 DWORD PTR [esi+516], eax
  00389	ff d7		 call	 edi
  0038b	89 86 08 02 00
	00		 mov	 DWORD PTR [esi+520], eax

; 56   : 	this->m_Data[COMMAND_PKCLEAR].iMoney[1]			= GetPrivateProfileInt("Commands", "Command_PKClear_NeedMoneyVip1", NULL, COMMANDS_FILE);

  00391	68 00 00 00 00	 push	 OFFSET ??_C@_0CE@BMBMBCJB@?4?2Customs?2Commands?2Hgt_Commands?4@
  00396	6a 00		 push	 0
  00398	68 00 00 00 00	 push	 OFFSET ??_C@_0BO@CBIHPMOO@Command_PKClear_NeedMoneyVip1?$AA@
  0039d	68 00 00 00 00	 push	 OFFSET ??_C@_08JNEOMACB@Commands?$AA@
  003a2	ff d7		 call	 edi

; 57   : 	this->m_Data[COMMAND_PKCLEAR].iMoney[2]			= GetPrivateProfileInt("Commands", "Command_PKClear_NeedMoneyVip2", NULL, COMMANDS_FILE);

  003a4	68 00 00 00 00	 push	 OFFSET ??_C@_0CE@BMBMBCJB@?4?2Customs?2Commands?2Hgt_Commands?4@
  003a9	6a 00		 push	 0
  003ab	68 00 00 00 00	 push	 OFFSET ??_C@_0BO@KKKKPCN@Command_PKClear_NeedMoneyVip2?$AA@
  003b0	68 00 00 00 00	 push	 OFFSET ??_C@_08JNEOMACB@Commands?$AA@
  003b5	89 86 0c 02 00
	00		 mov	 DWORD PTR [esi+524], eax
  003bb	ff d7		 call	 edi

; 58   : 	this->m_Data[COMMAND_PKCLEAR].iMoney[3]			= GetPrivateProfileInt("Commands", "Command_PKClear_NeedMoneyVip3", NULL, COMMANDS_FILE);

  003bd	68 00 00 00 00	 push	 OFFSET ??_C@_0CE@BMBMBCJB@?4?2Customs?2Commands?2Hgt_Commands?4@
  003c2	6a 00		 push	 0
  003c4	68 00 00 00 00	 push	 OFFSET ??_C@_0BO@BDLBJOGM@Command_PKClear_NeedMoneyVip3?$AA@
  003c9	68 00 00 00 00	 push	 OFFSET ??_C@_08JNEOMACB@Commands?$AA@
  003ce	89 86 10 02 00
	00		 mov	 DWORD PTR [esi+528], eax
  003d4	ff d7		 call	 edi

; 59   : 	this->m_Data[COMMAND_PKCLEAR].iResets[0]        = GetPrivateProfileInt("Commands", "Command_PKClear_NeedResetsFree", NULL, COMMANDS_FILE);

  003d6	68 00 00 00 00	 push	 OFFSET ??_C@_0CE@BMBMBCJB@?4?2Customs?2Commands?2Hgt_Commands?4@
  003db	6a 00		 push	 0
  003dd	68 00 00 00 00	 push	 OFFSET ??_C@_0BP@JMCBNBPE@Command_PKClear_NeedResetsFree?$AA@
  003e2	68 00 00 00 00	 push	 OFFSET ??_C@_08JNEOMACB@Commands?$AA@
  003e7	89 86 14 02 00
	00		 mov	 DWORD PTR [esi+532], eax
  003ed	ff d7		 call	 edi

; 60   : 	this->m_Data[COMMAND_PKCLEAR].iResets[1]        = GetPrivateProfileInt("Commands", "Command_PKClear_NeedResetsVip1", NULL, COMMANDS_FILE);

  003ef	68 00 00 00 00	 push	 OFFSET ??_C@_0CE@BMBMBCJB@?4?2Customs?2Commands?2Hgt_Commands?4@
  003f4	6a 00		 push	 0
  003f6	68 00 00 00 00	 push	 OFFSET ??_C@_0BP@LPODGPCD@Command_PKClear_NeedResetsVip1?$AA@
  003fb	68 00 00 00 00	 push	 OFFSET ??_C@_08JNEOMACB@Commands?$AA@
  00400	89 86 18 02 00
	00		 mov	 DWORD PTR [esi+536], eax
  00406	ff d7		 call	 edi

; 61   : 	this->m_Data[COMMAND_PKCLEAR].iResets[2]        = GetPrivateProfileInt("Commands", "Command_PKClear_NeedResetsVip2", NULL, COMMANDS_FILE);

  00408	68 00 00 00 00	 push	 OFFSET ??_C@_0CE@BMBMBCJB@?4?2Customs?2Commands?2Hgt_Commands?4@
  0040d	6a 00		 push	 0
  0040f	68 00 00 00 00	 push	 OFFSET ??_C@_0BP@JEMODMOA@Command_PKClear_NeedResetsVip2?$AA@
  00414	68 00 00 00 00	 push	 OFFSET ??_C@_08JNEOMACB@Commands?$AA@
  00419	89 86 1c 02 00
	00		 mov	 DWORD PTR [esi+540], eax
  0041f	ff d7		 call	 edi

; 62   : 	this->m_Data[COMMAND_PKCLEAR].iResets[3]        = GetPrivateProfileInt("Commands", "Command_PKClear_NeedResetsVip3", NULL, COMMANDS_FILE);

  00421	68 00 00 00 00	 push	 OFFSET ??_C@_0CE@BMBMBCJB@?4?2Customs?2Commands?2Hgt_Commands?4@
  00426	6a 00		 push	 0
  00428	68 00 00 00 00	 push	 OFFSET ??_C@_0BP@INNFANKB@Command_PKClear_NeedResetsVip3?$AA@
  0042d	68 00 00 00 00	 push	 OFFSET ??_C@_08JNEOMACB@Commands?$AA@
  00432	89 86 20 02 00
	00		 mov	 DWORD PTR [esi+544], eax
  00438	ff d7		 call	 edi

; 63   : 	this->m_Data[COMMAND_PKCLEAR].iMResets[0]       = GetPrivateProfileInt("Commands", "Command_PKClear_NeedMasterResetsFree", NULL, COMMANDS_FILE);

  0043a	68 00 00 00 00	 push	 OFFSET ??_C@_0CE@BMBMBCJB@?4?2Customs?2Commands?2Hgt_Commands?4@
  0043f	6a 00		 push	 0
  00441	68 00 00 00 00	 push	 OFFSET ??_C@_0CF@LHPECIP@Command_PKClear_NeedMasterResets@
  00446	68 00 00 00 00	 push	 OFFSET ??_C@_08JNEOMACB@Commands?$AA@
  0044b	89 86 24 02 00
	00		 mov	 DWORD PTR [esi+548], eax
  00451	ff d7		 call	 edi

; 64   : 	this->m_Data[COMMAND_PKCLEAR].iMResets[1]       = GetPrivateProfileInt("Commands", "Command_PKClear_NeedMasterResetsVip1", NULL, COMMANDS_FILE);

  00453	68 00 00 00 00	 push	 OFFSET ??_C@_0CE@BMBMBCJB@?4?2Customs?2Commands?2Hgt_Commands?4@
  00458	6a 00		 push	 0
  0045a	68 00 00 00 00	 push	 OFFSET ??_C@_0CF@CILNPMFI@Command_PKClear_NeedMasterResets@
  0045f	68 00 00 00 00	 push	 OFFSET ??_C@_08JNEOMACB@Commands?$AA@
  00464	89 86 28 02 00
	00		 mov	 DWORD PTR [esi+552], eax
  0046a	ff d7		 call	 edi

; 65   : 	this->m_Data[COMMAND_PKCLEAR].iMResets[2]       = GetPrivateProfileInt("Commands", "Command_PKClear_NeedMasterResetsVip2", NULL, COMMANDS_FILE);

  0046c	68 00 00 00 00	 push	 OFFSET ??_C@_0CE@BMBMBCJB@?4?2Customs?2Commands?2Hgt_Commands?4@
  00471	6a 00		 push	 0
  00473	68 00 00 00 00	 push	 OFFSET ??_C@_0CF@DJAKPJL@Command_PKClear_NeedMasterResets@
  00478	68 00 00 00 00	 push	 OFFSET ??_C@_08JNEOMACB@Commands?$AA@
  0047d	89 86 2c 02 00
	00		 mov	 DWORD PTR [esi+556], eax
  00483	ff d7		 call	 edi

; 66   : 	this->m_Data[COMMAND_PKCLEAR].iMResets[3]       = GetPrivateProfileInt("Commands", "Command_PKClear_NeedMasterResetsVip3", NULL, COMMANDS_FILE);

  00485	68 00 00 00 00	 push	 OFFSET ??_C@_0CE@BMBMBCJB@?4?2Customs?2Commands?2Hgt_Commands?4@
  0048a	6a 00		 push	 0
  0048c	68 00 00 00 00	 push	 OFFSET ??_C@_0CF@BKILJONK@Command_PKClear_NeedMasterResets@
  00491	68 00 00 00 00	 push	 OFFSET ??_C@_08JNEOMACB@Commands?$AA@
  00496	89 86 30 02 00
	00		 mov	 DWORD PTR [esi+560], eax
  0049c	ff d7		 call	 edi

; 67   : 	// ---
; 68   : 	GetPrivateProfileString("Commands", "Command_HeroClear_Sintax", NULL, this->m_Data[COMMAND_HEROCLEAR].szSintax, sizeof(this->m_Data[COMMAND_HEROCLEAR].szSintax), COMMANDS_FILE);

  0049e	68 00 00 00 00	 push	 OFFSET ??_C@_0CE@BMBMBCJB@?4?2Customs?2Commands?2Hgt_Commands?4@
  004a3	6a 14		 push	 20			; 00000014H
  004a5	8d 8e 20 04 00
	00		 lea	 ecx, DWORD PTR [esi+1056]
  004ab	51		 push	 ecx
  004ac	6a 00		 push	 0
  004ae	68 00 00 00 00	 push	 OFFSET ??_C@_0BJ@BIKKEJJM@Command_HeroClear_Sintax?$AA@
  004b3	68 00 00 00 00	 push	 OFFSET ??_C@_08JNEOMACB@Commands?$AA@
  004b8	89 86 34 02 00
	00		 mov	 DWORD PTR [esi+564], eax
  004be	ff d3		 call	 ebx

; 69   : 	// ---
; 70   : 	this->m_Data[COMMAND_HEROCLEAR].iEnabled		= GetPrivateProfileInt("Commands", "Command_HeroClear_Enabled", NULL, COMMANDS_FILE);

  004c0	68 00 00 00 00	 push	 OFFSET ??_C@_0CE@BMBMBCJB@?4?2Customs?2Commands?2Hgt_Commands?4@
  004c5	6a 00		 push	 0
  004c7	68 00 00 00 00	 push	 OFFSET ??_C@_0BK@HPCBOFKO@Command_HeroClear_Enabled?$AA@
  004cc	68 00 00 00 00	 push	 OFFSET ??_C@_08JNEOMACB@Commands?$AA@
  004d1	ff d7		 call	 edi
  004d3	85 c0		 test	 eax, eax
  004d5	0f 95 c2	 setne	 dl
  004d8	88 96 c8 03 00
	00		 mov	 BYTE PTR [esi+968], dl

; 71   : 	this->m_Data[COMMAND_HEROCLEAR].iVipOnly[0]		= GetPrivateProfileInt("Commands", "Command_HeroClear_SwitchFree", NULL, COMMANDS_FILE);

  004de	68 00 00 00 00	 push	 OFFSET ??_C@_0CE@BMBMBCJB@?4?2Customs?2Commands?2Hgt_Commands?4@
  004e3	6a 00		 push	 0
  004e5	68 00 00 00 00	 push	 OFFSET ??_C@_0BN@EGAFLIJB@Command_HeroClear_SwitchFree?$AA@
  004ea	68 00 00 00 00	 push	 OFFSET ??_C@_08JNEOMACB@Commands?$AA@
  004ef	ff d7		 call	 edi

; 72   : 	this->m_Data[COMMAND_HEROCLEAR].iVipOnly[1]		= GetPrivateProfileInt("Commands", "Command_HeroClear_SwitchVip1", NULL, COMMANDS_FILE);

  004f1	68 00 00 00 00	 push	 OFFSET ??_C@_0CE@BMBMBCJB@?4?2Customs?2Commands?2Hgt_Commands?4@
  004f6	6a 00		 push	 0
  004f8	68 00 00 00 00	 push	 OFFSET ??_C@_0BN@GFMHAGEG@Command_HeroClear_SwitchVip1?$AA@
  004fd	68 00 00 00 00	 push	 OFFSET ??_C@_08JNEOMACB@Commands?$AA@
  00502	89 86 cc 03 00
	00		 mov	 DWORD PTR [esi+972], eax
  00508	ff d7		 call	 edi

; 73   : 	this->m_Data[COMMAND_HEROCLEAR].iVipOnly[2]		= GetPrivateProfileInt("Commands", "Command_HeroClear_SwitchVip2", NULL, COMMANDS_FILE);

  0050a	68 00 00 00 00	 push	 OFFSET ??_C@_0CE@BMBMBCJB@?4?2Customs?2Commands?2Hgt_Commands?4@
  0050f	6a 00		 push	 0
  00511	68 00 00 00 00	 push	 OFFSET ??_C@_0BN@EOOKFFIF@Command_HeroClear_SwitchVip2?$AA@
  00516	68 00 00 00 00	 push	 OFFSET ??_C@_08JNEOMACB@Commands?$AA@
  0051b	89 86 d0 03 00
	00		 mov	 DWORD PTR [esi+976], eax
  00521	ff d7		 call	 edi

; 74   : 	this->m_Data[COMMAND_HEROCLEAR].iVipOnly[3]		= GetPrivateProfileInt("Commands", "Command_HeroClear_SwitchVip3", NULL, COMMANDS_FILE);

  00523	68 00 00 00 00	 push	 OFFSET ??_C@_0CE@BMBMBCJB@?4?2Customs?2Commands?2Hgt_Commands?4@
  00528	6a 00		 push	 0
  0052a	68 00 00 00 00	 push	 OFFSET ??_C@_0BN@FHPBGEME@Command_HeroClear_SwitchVip3?$AA@
  0052f	68 00 00 00 00	 push	 OFFSET ??_C@_08JNEOMACB@Commands?$AA@
  00534	89 86 d4 03 00
	00		 mov	 DWORD PTR [esi+980], eax
  0053a	ff d7		 call	 edi

; 75   : 	this->m_Data[COMMAND_HEROCLEAR].iLevel[0]		= GetPrivateProfileInt("Commands", "Command_HeroClear_NeedLevelFree", NULL, COMMANDS_FILE);

  0053c	68 00 00 00 00	 push	 OFFSET ??_C@_0CE@BMBMBCJB@?4?2Customs?2Commands?2Hgt_Commands?4@
  00541	6a 00		 push	 0
  00543	68 00 00 00 00	 push	 OFFSET ??_C@_0CA@FACLGAEH@Command_HeroClear_NeedLevelFree?$AA@
  00548	68 00 00 00 00	 push	 OFFSET ??_C@_08JNEOMACB@Commands?$AA@
  0054d	89 86 d8 03 00
	00		 mov	 DWORD PTR [esi+984], eax
  00553	ff d7		 call	 edi

; 76   : 	this->m_Data[COMMAND_HEROCLEAR].iLevel[1]		= GetPrivateProfileInt("Commands", "Command_HeroClear_NeedLevelVip1", NULL, COMMANDS_FILE);

  00555	68 00 00 00 00	 push	 OFFSET ??_C@_0CE@BMBMBCJB@?4?2Customs?2Commands?2Hgt_Commands?4@
  0055a	6a 00		 push	 0
  0055c	68 00 00 00 00	 push	 OFFSET ??_C@_0CA@HDOJNOJA@Command_HeroClear_NeedLevelVip1?$AA@
  00561	68 00 00 00 00	 push	 OFFSET ??_C@_08JNEOMACB@Commands?$AA@
  00566	89 86 dc 03 00
	00		 mov	 DWORD PTR [esi+988], eax
  0056c	ff d7		 call	 edi

; 77   : 	this->m_Data[COMMAND_HEROCLEAR].iLevel[2]		= GetPrivateProfileInt("Commands", "Command_HeroClear_NeedLevelVip2", NULL, COMMANDS_FILE);

  0056e	68 00 00 00 00	 push	 OFFSET ??_C@_0CE@BMBMBCJB@?4?2Customs?2Commands?2Hgt_Commands?4@
  00573	6a 00		 push	 0
  00575	68 00 00 00 00	 push	 OFFSET ??_C@_0CA@FIMEINFD@Command_HeroClear_NeedLevelVip2?$AA@
  0057a	68 00 00 00 00	 push	 OFFSET ??_C@_08JNEOMACB@Commands?$AA@
  0057f	89 86 e0 03 00
	00		 mov	 DWORD PTR [esi+992], eax
  00585	ff d7		 call	 edi

; 78   : 	this->m_Data[COMMAND_HEROCLEAR].iLevel[3]		= GetPrivateProfileInt("Commands", "Command_HeroClear_NeedLevelVip3", NULL, COMMANDS_FILE);

  00587	68 00 00 00 00	 push	 OFFSET ??_C@_0CE@BMBMBCJB@?4?2Customs?2Commands?2Hgt_Commands?4@
  0058c	6a 00		 push	 0
  0058e	68 00 00 00 00	 push	 OFFSET ??_C@_0CA@EBNPLMBC@Command_HeroClear_NeedLevelVip3?$AA@
  00593	68 00 00 00 00	 push	 OFFSET ??_C@_08JNEOMACB@Commands?$AA@
  00598	89 86 e4 03 00
	00		 mov	 DWORD PTR [esi+996], eax
  0059e	ff d7		 call	 edi

; 79   : 	this->m_Data[COMMAND_HEROCLEAR].iMoney[0]		= GetPrivateProfileInt("Commands", "Command_HeroClear_NeedMoneyFree", NULL, COMMANDS_FILE);

  005a0	68 00 00 00 00	 push	 OFFSET ??_C@_0CE@BMBMBCJB@?4?2Customs?2Commands?2Hgt_Commands?4@
  005a5	6a 00		 push	 0
  005a7	68 00 00 00 00	 push	 OFFSET ??_C@_0CA@NGICDIFB@Command_HeroClear_NeedMoneyFree?$AA@
  005ac	68 00 00 00 00	 push	 OFFSET ??_C@_08JNEOMACB@Commands?$AA@
  005b1	89 86 e8 03 00
	00		 mov	 DWORD PTR [esi+1000], eax
  005b7	ff d7		 call	 edi

; 80   : 	this->m_Data[COMMAND_HEROCLEAR].iMoney[1]		= GetPrivateProfileInt("Commands", "Command_HeroClear_NeedMoneyVip1", NULL, COMMANDS_FILE);

  005b9	68 00 00 00 00	 push	 OFFSET ??_C@_0CE@BMBMBCJB@?4?2Customs?2Commands?2Hgt_Commands?4@
  005be	6a 00		 push	 0
  005c0	68 00 00 00 00	 push	 OFFSET ??_C@_0CA@PFEAIGIG@Command_HeroClear_NeedMoneyVip1?$AA@
  005c5	68 00 00 00 00	 push	 OFFSET ??_C@_08JNEOMACB@Commands?$AA@
  005ca	89 86 ec 03 00
	00		 mov	 DWORD PTR [esi+1004], eax
  005d0	ff d7		 call	 edi

; 81   : 	this->m_Data[COMMAND_HEROCLEAR].iMoney[2]		= GetPrivateProfileInt("Commands", "Command_HeroClear_NeedMoneyVip2", NULL, COMMANDS_FILE);

  005d2	68 00 00 00 00	 push	 OFFSET ??_C@_0CE@BMBMBCJB@?4?2Customs?2Commands?2Hgt_Commands?4@
  005d7	6a 00		 push	 0
  005d9	68 00 00 00 00	 push	 OFFSET ??_C@_0CA@NOGNNFEF@Command_HeroClear_NeedMoneyVip2?$AA@
  005de	68 00 00 00 00	 push	 OFFSET ??_C@_08JNEOMACB@Commands?$AA@
  005e3	89 86 f0 03 00
	00		 mov	 DWORD PTR [esi+1008], eax
  005e9	ff d7		 call	 edi

; 82   : 	this->m_Data[COMMAND_HEROCLEAR].iMoney[3]		= GetPrivateProfileInt("Commands", "Command_HeroClear_NeedMoneyVip3", NULL, COMMANDS_FILE);

  005eb	68 00 00 00 00	 push	 OFFSET ??_C@_0CE@BMBMBCJB@?4?2Customs?2Commands?2Hgt_Commands?4@
  005f0	6a 00		 push	 0
  005f2	68 00 00 00 00	 push	 OFFSET ??_C@_0CA@MHHGOEAE@Command_HeroClear_NeedMoneyVip3?$AA@
  005f7	68 00 00 00 00	 push	 OFFSET ??_C@_08JNEOMACB@Commands?$AA@
  005fc	89 86 f4 03 00
	00		 mov	 DWORD PTR [esi+1012], eax
  00602	ff d7		 call	 edi

; 83   : 	this->m_Data[COMMAND_HEROCLEAR].iResets[0]      = GetPrivateProfileInt("Commands", "Command_HeroClear_NeedResetsFree", NULL, COMMANDS_FILE);

  00604	68 00 00 00 00	 push	 OFFSET ??_C@_0CE@BMBMBCJB@?4?2Customs?2Commands?2Hgt_Commands?4@
  00609	6a 00		 push	 0
  0060b	68 00 00 00 00	 push	 OFFSET ??_C@_0CB@NPJMPPOE@Command_HeroClear_NeedResetsFree@
  00610	68 00 00 00 00	 push	 OFFSET ??_C@_08JNEOMACB@Commands?$AA@
  00615	89 86 f8 03 00
	00		 mov	 DWORD PTR [esi+1016], eax
  0061b	ff d7		 call	 edi

; 84   : 	this->m_Data[COMMAND_HEROCLEAR].iResets[1]      = GetPrivateProfileInt("Commands", "Command_HeroClear_NeedResetsVip1", NULL, COMMANDS_FILE);

  0061d	68 00 00 00 00	 push	 OFFSET ??_C@_0CE@BMBMBCJB@?4?2Customs?2Commands?2Hgt_Commands?4@
  00622	6a 00		 push	 0
  00624	89 86 fc 03 00
	00		 mov	 DWORD PTR [esi+1020], eax
  0062a	68 00 00 00 00	 push	 OFFSET ??_C@_0CB@PMFOEBDD@Command_HeroClear_NeedResetsVip1@
  0062f	68 00 00 00 00	 push	 OFFSET ??_C@_08JNEOMACB@Commands?$AA@
  00634	ff d7		 call	 edi

; 85   : 	this->m_Data[COMMAND_HEROCLEAR].iResets[2]      = GetPrivateProfileInt("Commands", "Command_HeroClear_NeedResetsVip2", NULL, COMMANDS_FILE);

  00636	68 00 00 00 00	 push	 OFFSET ??_C@_0CE@BMBMBCJB@?4?2Customs?2Commands?2Hgt_Commands?4@
  0063b	6a 00		 push	 0
  0063d	68 00 00 00 00	 push	 OFFSET ??_C@_0CB@NHHDBCPA@Command_HeroClear_NeedResetsVip2@
  00642	68 00 00 00 00	 push	 OFFSET ??_C@_08JNEOMACB@Commands?$AA@
  00647	89 86 00 04 00
	00		 mov	 DWORD PTR [esi+1024], eax
  0064d	ff d7		 call	 edi

; 86   : 	this->m_Data[COMMAND_HEROCLEAR].iResets[3]      = GetPrivateProfileInt("Commands", "Command_HeroClear_NeedResetsVip3", NULL, COMMANDS_FILE);

  0064f	68 00 00 00 00	 push	 OFFSET ??_C@_0CE@BMBMBCJB@?4?2Customs?2Commands?2Hgt_Commands?4@
  00654	6a 00		 push	 0
  00656	68 00 00 00 00	 push	 OFFSET ??_C@_0CB@MOGICDLB@Command_HeroClear_NeedResetsVip3@
  0065b	68 00 00 00 00	 push	 OFFSET ??_C@_08JNEOMACB@Commands?$AA@
  00660	89 86 04 04 00
	00		 mov	 DWORD PTR [esi+1028], eax
  00666	ff d7		 call	 edi

; 87   : 	this->m_Data[COMMAND_HEROCLEAR].iMResets[0]     = GetPrivateProfileInt("Commands", "Command_HeroClear_NeedMasterResetsFree", NULL, COMMANDS_FILE);

  00668	68 00 00 00 00	 push	 OFFSET ??_C@_0CE@BMBMBCJB@?4?2Customs?2Commands?2Hgt_Commands?4@
  0066d	6a 00		 push	 0
  0066f	68 00 00 00 00	 push	 OFFSET ??_C@_0CH@OLJMHEKP@Command_HeroClear_NeedMasterRese@
  00674	68 00 00 00 00	 push	 OFFSET ??_C@_08JNEOMACB@Commands?$AA@
  00679	89 86 08 04 00
	00		 mov	 DWORD PTR [esi+1032], eax
  0067f	ff d7		 call	 edi

; 88   : 	this->m_Data[COMMAND_HEROCLEAR].iMResets[1]     = GetPrivateProfileInt("Commands", "Command_HeroClear_NeedMasterResetsVip1", NULL, COMMANDS_FILE);

  00681	68 00 00 00 00	 push	 OFFSET ??_C@_0CE@BMBMBCJB@?4?2Customs?2Commands?2Hgt_Commands?4@
  00686	6a 00		 push	 0
  00688	68 00 00 00 00	 push	 OFFSET ??_C@_0CH@MIFOMKHI@Command_HeroClear_NeedMasterRese@
  0068d	68 00 00 00 00	 push	 OFFSET ??_C@_08JNEOMACB@Commands?$AA@
  00692	89 86 0c 04 00
	00		 mov	 DWORD PTR [esi+1036], eax
  00698	ff d7		 call	 edi

; 89   : 	this->m_Data[COMMAND_HEROCLEAR].iMResets[2]		= GetPrivateProfileInt("Commands", "Command_HeroClear_NeedMasterResetsVip2", NULL, COMMANDS_FILE);

  0069a	68 00 00 00 00	 push	 OFFSET ??_C@_0CE@BMBMBCJB@?4?2Customs?2Commands?2Hgt_Commands?4@
  0069f	6a 00		 push	 0
  006a1	68 00 00 00 00	 push	 OFFSET ??_C@_0CH@ODHDJJLL@Command_HeroClear_NeedMasterRese@
  006a6	68 00 00 00 00	 push	 OFFSET ??_C@_08JNEOMACB@Commands?$AA@
  006ab	89 86 10 04 00
	00		 mov	 DWORD PTR [esi+1040], eax
  006b1	ff d7		 call	 edi

; 90   : 	this->m_Data[COMMAND_HEROCLEAR].iMResets[3]     = GetPrivateProfileInt("Commands", "Command_HeroClear_NeedMasterResetsVip3", NULL, COMMANDS_FILE);

  006b3	68 00 00 00 00	 push	 OFFSET ??_C@_0CE@BMBMBCJB@?4?2Customs?2Commands?2Hgt_Commands?4@
  006b8	6a 00		 push	 0
  006ba	68 00 00 00 00	 push	 OFFSET ??_C@_0CH@PKGIKIPK@Command_HeroClear_NeedMasterRese@
  006bf	68 00 00 00 00	 push	 OFFSET ??_C@_08JNEOMACB@Commands?$AA@
  006c4	89 86 14 04 00
	00		 mov	 DWORD PTR [esi+1044], eax
  006ca	ff d7		 call	 edi

; 91   : 	// ---
; 92   : 	GetPrivateProfileString("Commands", "Command_Evo_Sintax", NULL, this->m_Data[COMMAND_EVO].szSintax, sizeof(this->m_Data[COMMAND_EVO].szSintax), COMMANDS_FILE);

  006cc	68 00 00 00 00	 push	 OFFSET ??_C@_0CE@BMBMBCJB@?4?2Customs?2Commands?2Hgt_Commands?4@
  006d1	6a 14		 push	 20			; 00000014H
  006d3	89 86 18 04 00
	00		 mov	 DWORD PTR [esi+1048], eax
  006d9	8d 86 04 06 00
	00		 lea	 eax, DWORD PTR [esi+1540]
  006df	50		 push	 eax
  006e0	6a 00		 push	 0
  006e2	68 00 00 00 00	 push	 OFFSET ??_C@_0BD@LFJFNECH@Command_Evo_Sintax?$AA@
  006e7	68 00 00 00 00	 push	 OFFSET ??_C@_08JNEOMACB@Commands?$AA@
  006ec	ff d3		 call	 ebx

; 93   : 	// ---
; 94   : 	this->m_Data[COMMAND_EVO].iEnabled				= GetPrivateProfileInt("Commands", "Command_Evo_Enabled", NULL, COMMANDS_FILE);

  006ee	68 00 00 00 00	 push	 OFFSET ??_C@_0CE@BMBMBCJB@?4?2Customs?2Commands?2Hgt_Commands?4@
  006f3	6a 00		 push	 0
  006f5	68 00 00 00 00	 push	 OFFSET ??_C@_0BE@CDDPLADH@Command_Evo_Enabled?$AA@
  006fa	68 00 00 00 00	 push	 OFFSET ??_C@_08JNEOMACB@Commands?$AA@
  006ff	ff d7		 call	 edi

; 95   : 	this->m_Data[COMMAND_EVO].iVipOnly[0]			= GetPrivateProfileInt("Commands", "Command_Evo_SwitchFree", NULL, COMMANDS_FILE);

  00701	68 00 00 00 00	 push	 OFFSET ??_C@_0CE@BMBMBCJB@?4?2Customs?2Commands?2Hgt_Commands?4@
  00706	6a 00		 push	 0
  00708	85 c0		 test	 eax, eax
  0070a	68 00 00 00 00	 push	 OFFSET ??_C@_0BH@IJAEKPMA@Command_Evo_SwitchFree?$AA@
  0070f	0f 95 c1	 setne	 cl
  00712	68 00 00 00 00	 push	 OFFSET ??_C@_08JNEOMACB@Commands?$AA@
  00717	88 8e ac 05 00
	00		 mov	 BYTE PTR [esi+1452], cl
  0071d	ff d7		 call	 edi

; 96   : 	this->m_Data[COMMAND_EVO].iVipOnly[1]			= GetPrivateProfileInt("Commands", "Command_Evo_SwitchVip1", NULL, COMMANDS_FILE);

  0071f	68 00 00 00 00	 push	 OFFSET ??_C@_0CE@BMBMBCJB@?4?2Customs?2Commands?2Hgt_Commands?4@
  00724	6a 00		 push	 0
  00726	68 00 00 00 00	 push	 OFFSET ??_C@_0BH@KKMGBBBH@Command_Evo_SwitchVip1?$AA@
  0072b	68 00 00 00 00	 push	 OFFSET ??_C@_08JNEOMACB@Commands?$AA@
  00730	89 86 b0 05 00
	00		 mov	 DWORD PTR [esi+1456], eax
  00736	ff d7		 call	 edi

; 97   : 	this->m_Data[COMMAND_EVO].iVipOnly[2]			= GetPrivateProfileInt("Commands", "Command_Evo_SwitchVip2", NULL, COMMANDS_FILE);

  00738	68 00 00 00 00	 push	 OFFSET ??_C@_0CE@BMBMBCJB@?4?2Customs?2Commands?2Hgt_Commands?4@
  0073d	6a 00		 push	 0
  0073f	68 00 00 00 00	 push	 OFFSET ??_C@_0BH@IBOLECNE@Command_Evo_SwitchVip2?$AA@
  00744	68 00 00 00 00	 push	 OFFSET ??_C@_08JNEOMACB@Commands?$AA@
  00749	89 86 b4 05 00
	00		 mov	 DWORD PTR [esi+1460], eax
  0074f	ff d7		 call	 edi

; 98   : 	this->m_Data[COMMAND_EVO].iVipOnly[3]			= GetPrivateProfileInt("Commands", "Command_Evo_SwitchVip3", NULL, COMMANDS_FILE);

  00751	68 00 00 00 00	 push	 OFFSET ??_C@_0CE@BMBMBCJB@?4?2Customs?2Commands?2Hgt_Commands?4@
  00756	6a 00		 push	 0
  00758	68 00 00 00 00	 push	 OFFSET ??_C@_0BH@JIPAHDJF@Command_Evo_SwitchVip3?$AA@
  0075d	68 00 00 00 00	 push	 OFFSET ??_C@_08JNEOMACB@Commands?$AA@
  00762	89 86 b8 05 00
	00		 mov	 DWORD PTR [esi+1464], eax
  00768	ff d7		 call	 edi

; 99   : 	this->m_Data[COMMAND_EVO].iLevel[0]				= GetPrivateProfileInt("Commands", "Command_Evo_NeedLevelFree", NULL, COMMANDS_FILE);

  0076a	68 00 00 00 00	 push	 OFFSET ??_C@_0CE@BMBMBCJB@?4?2Customs?2Commands?2Hgt_Commands?4@
  0076f	89 86 bc 05 00
	00		 mov	 DWORD PTR [esi+1468], eax
  00775	6a 00		 push	 0
  00777	68 00 00 00 00	 push	 OFFSET ??_C@_0BK@EPNBJAAP@Command_Evo_NeedLevelFree?$AA@
  0077c	68 00 00 00 00	 push	 OFFSET ??_C@_08JNEOMACB@Commands?$AA@
  00781	ff d7		 call	 edi

; 100  : 	this->m_Data[COMMAND_EVO].iLevel[1]				= GetPrivateProfileInt("Commands", "Command_Evo_NeedLevelVip1", NULL, COMMANDS_FILE);

  00783	68 00 00 00 00	 push	 OFFSET ??_C@_0CE@BMBMBCJB@?4?2Customs?2Commands?2Hgt_Commands?4@
  00788	6a 00		 push	 0
  0078a	68 00 00 00 00	 push	 OFFSET ??_C@_0BK@GMBDCONI@Command_Evo_NeedLevelVip1?$AA@
  0078f	68 00 00 00 00	 push	 OFFSET ??_C@_08JNEOMACB@Commands?$AA@
  00794	89 86 c0 05 00
	00		 mov	 DWORD PTR [esi+1472], eax
  0079a	ff d7		 call	 edi

; 101  : 	this->m_Data[COMMAND_EVO].iLevel[2]				= GetPrivateProfileInt("Commands", "Command_Evo_NeedLevelVip2", NULL, COMMANDS_FILE);

  0079c	68 00 00 00 00	 push	 OFFSET ??_C@_0CE@BMBMBCJB@?4?2Customs?2Commands?2Hgt_Commands?4@
  007a1	6a 00		 push	 0
  007a3	68 00 00 00 00	 push	 OFFSET ??_C@_0BK@EHDOHNBL@Command_Evo_NeedLevelVip2?$AA@
  007a8	68 00 00 00 00	 push	 OFFSET ??_C@_08JNEOMACB@Commands?$AA@
  007ad	89 86 c4 05 00
	00		 mov	 DWORD PTR [esi+1476], eax
  007b3	ff d7		 call	 edi

; 102  : 	this->m_Data[COMMAND_EVO].iLevel[3]				= GetPrivateProfileInt("Commands", "Command_Evo_NeedLevelVip3", NULL, COMMANDS_FILE);

  007b5	68 00 00 00 00	 push	 OFFSET ??_C@_0CE@BMBMBCJB@?4?2Customs?2Commands?2Hgt_Commands?4@
  007ba	6a 00		 push	 0
  007bc	68 00 00 00 00	 push	 OFFSET ??_C@_0BK@FOCFEMFK@Command_Evo_NeedLevelVip3?$AA@
  007c1	68 00 00 00 00	 push	 OFFSET ??_C@_08JNEOMACB@Commands?$AA@
  007c6	89 86 c8 05 00
	00		 mov	 DWORD PTR [esi+1480], eax
  007cc	ff d7		 call	 edi

; 103  : 	this->m_Data[COMMAND_EVO].iMoney[0]				= GetPrivateProfileInt("Commands", "Command_Evo_NeedMoneyFree", NULL, COMMANDS_FILE);

  007ce	68 00 00 00 00	 push	 OFFSET ??_C@_0CE@BMBMBCJB@?4?2Customs?2Commands?2Hgt_Commands?4@
  007d3	6a 00		 push	 0
  007d5	68 00 00 00 00	 push	 OFFSET ??_C@_0BK@MJHIMIBJ@Command_Evo_NeedMoneyFree?$AA@
  007da	68 00 00 00 00	 push	 OFFSET ??_C@_08JNEOMACB@Commands?$AA@
  007df	89 86 cc 05 00
	00		 mov	 DWORD PTR [esi+1484], eax
  007e5	ff d7		 call	 edi

; 104  : 	this->m_Data[COMMAND_EVO].iMoney[1]				= GetPrivateProfileInt("Commands", "Command_Evo_NeedMoneyVip1", NULL, COMMANDS_FILE);

  007e7	68 00 00 00 00	 push	 OFFSET ??_C@_0CE@BMBMBCJB@?4?2Customs?2Commands?2Hgt_Commands?4@
  007ec	6a 00		 push	 0
  007ee	68 00 00 00 00	 push	 OFFSET ??_C@_0BK@OKLKHGMO@Command_Evo_NeedMoneyVip1?$AA@
  007f3	68 00 00 00 00	 push	 OFFSET ??_C@_08JNEOMACB@Commands?$AA@
  007f8	89 86 d0 05 00
	00		 mov	 DWORD PTR [esi+1488], eax
  007fe	ff d7		 call	 edi

; 105  : 	this->m_Data[COMMAND_EVO].iMoney[2]				= GetPrivateProfileInt("Commands", "Command_Evo_NeedMoneyVip2", NULL, COMMANDS_FILE);

  00800	68 00 00 00 00	 push	 OFFSET ??_C@_0CE@BMBMBCJB@?4?2Customs?2Commands?2Hgt_Commands?4@
  00805	6a 00		 push	 0
  00807	68 00 00 00 00	 push	 OFFSET ??_C@_0BK@MBJHCFAN@Command_Evo_NeedMoneyVip2?$AA@
  0080c	68 00 00 00 00	 push	 OFFSET ??_C@_08JNEOMACB@Commands?$AA@
  00811	89 86 d4 05 00
	00		 mov	 DWORD PTR [esi+1492], eax
  00817	ff d7		 call	 edi

; 106  : 	this->m_Data[COMMAND_EVO].iMoney[3]				= GetPrivateProfileInt("Commands", "Command_Evo_NeedMoneyVip3", NULL, COMMANDS_FILE);

  00819	68 00 00 00 00	 push	 OFFSET ??_C@_0CE@BMBMBCJB@?4?2Customs?2Commands?2Hgt_Commands?4@
  0081e	6a 00		 push	 0
  00820	68 00 00 00 00	 push	 OFFSET ??_C@_0BK@NIIMBEEM@Command_Evo_NeedMoneyVip3?$AA@
  00825	68 00 00 00 00	 push	 OFFSET ??_C@_08JNEOMACB@Commands?$AA@
  0082a	89 86 d8 05 00
	00		 mov	 DWORD PTR [esi+1496], eax
  00830	ff d7		 call	 edi

; 107  : 	this->m_Data[COMMAND_EVO].iResets[0]			= GetPrivateProfileInt("Commands", "Command_Evo_NeedResetsFree", NULL, COMMANDS_FILE);

  00832	68 00 00 00 00	 push	 OFFSET ??_C@_0CE@BMBMBCJB@?4?2Customs?2Commands?2Hgt_Commands?4@
  00837	6a 00		 push	 0
  00839	68 00 00 00 00	 push	 OFFSET ??_C@_0BL@KHIEMMLG@Command_Evo_NeedResetsFree?$AA@
  0083e	68 00 00 00 00	 push	 OFFSET ??_C@_08JNEOMACB@Commands?$AA@
  00843	89 86 dc 05 00
	00		 mov	 DWORD PTR [esi+1500], eax
  00849	ff d7		 call	 edi

; 108  : 	this->m_Data[COMMAND_EVO].iResets[1]			= GetPrivateProfileInt("Commands", "Command_Evo_NeedResetsVip1", NULL, COMMANDS_FILE);

  0084b	68 00 00 00 00	 push	 OFFSET ??_C@_0CE@BMBMBCJB@?4?2Customs?2Commands?2Hgt_Commands?4@
  00850	6a 00		 push	 0
  00852	68 00 00 00 00	 push	 OFFSET ??_C@_0BL@IEEGHCGB@Command_Evo_NeedResetsVip1?$AA@
  00857	68 00 00 00 00	 push	 OFFSET ??_C@_08JNEOMACB@Commands?$AA@
  0085c	89 86 e0 05 00
	00		 mov	 DWORD PTR [esi+1504], eax
  00862	ff d7		 call	 edi

; 109  : 	this->m_Data[COMMAND_EVO].iResets[2]			= GetPrivateProfileInt("Commands", "Command_Evo_NeedResetsVip2", NULL, COMMANDS_FILE);

  00864	68 00 00 00 00	 push	 OFFSET ??_C@_0CE@BMBMBCJB@?4?2Customs?2Commands?2Hgt_Commands?4@
  00869	6a 00		 push	 0
  0086b	68 00 00 00 00	 push	 OFFSET ??_C@_0BL@KPGLCBKC@Command_Evo_NeedResetsVip2?$AA@
  00870	68 00 00 00 00	 push	 OFFSET ??_C@_08JNEOMACB@Commands?$AA@
  00875	89 86 e4 05 00
	00		 mov	 DWORD PTR [esi+1508], eax
  0087b	ff d7		 call	 edi

; 110  : 	this->m_Data[COMMAND_EVO].iResets[3]			= GetPrivateProfileInt("Commands", "Command_Evo_NeedResetsVip3", NULL, COMMANDS_FILE);

  0087d	68 00 00 00 00	 push	 OFFSET ??_C@_0CE@BMBMBCJB@?4?2Customs?2Commands?2Hgt_Commands?4@
  00882	6a 00		 push	 0
  00884	68 00 00 00 00	 push	 OFFSET ??_C@_0BL@LGHABAOD@Command_Evo_NeedResetsVip3?$AA@
  00889	68 00 00 00 00	 push	 OFFSET ??_C@_08JNEOMACB@Commands?$AA@
  0088e	89 86 e8 05 00
	00		 mov	 DWORD PTR [esi+1512], eax
  00894	ff d7		 call	 edi

; 111  : 	this->m_Data[COMMAND_EVO].iMResets[0]			= GetPrivateProfileInt("Commands", "Command_Evo_NeedMasterResetsFree", NULL, COMMANDS_FILE);

  00896	68 00 00 00 00	 push	 OFFSET ??_C@_0CE@BMBMBCJB@?4?2Customs?2Commands?2Hgt_Commands?4@
  0089b	6a 00		 push	 0
  0089d	68 00 00 00 00	 push	 OFFSET ??_C@_0CB@IDBEFJJN@Command_Evo_NeedMasterResetsFree@
  008a2	68 00 00 00 00	 push	 OFFSET ??_C@_08JNEOMACB@Commands?$AA@
  008a7	89 86 ec 05 00
	00		 mov	 DWORD PTR [esi+1516], eax
  008ad	ff d7		 call	 edi

; 112  : 	this->m_Data[COMMAND_EVO].iMResets[1]			= GetPrivateProfileInt("Commands", "Command_Evo_NeedMasterResetsVip1", NULL, COMMANDS_FILE);

  008af	68 00 00 00 00	 push	 OFFSET ??_C@_0CE@BMBMBCJB@?4?2Customs?2Commands?2Hgt_Commands?4@
  008b4	6a 00		 push	 0
  008b6	68 00 00 00 00	 push	 OFFSET ??_C@_0CB@KANGOHEK@Command_Evo_NeedMasterResetsVip1@
  008bb	68 00 00 00 00	 push	 OFFSET ??_C@_08JNEOMACB@Commands?$AA@
  008c0	89 86 f0 05 00
	00		 mov	 DWORD PTR [esi+1520], eax
  008c6	ff d7		 call	 edi

; 113  : 	this->m_Data[COMMAND_EVO].iMResets[2]			= GetPrivateProfileInt("Commands", "Command_Evo_NeedMasterResetsVip2", NULL, COMMANDS_FILE);

  008c8	68 00 00 00 00	 push	 OFFSET ??_C@_0CE@BMBMBCJB@?4?2Customs?2Commands?2Hgt_Commands?4@
  008cd	6a 00		 push	 0
  008cf	68 00 00 00 00	 push	 OFFSET ??_C@_0CB@ILPLLEIJ@Command_Evo_NeedMasterResetsVip2@
  008d4	68 00 00 00 00	 push	 OFFSET ??_C@_08JNEOMACB@Commands?$AA@
  008d9	89 86 f4 05 00
	00		 mov	 DWORD PTR [esi+1524], eax
  008df	ff d7		 call	 edi

; 114  : 	this->m_Data[COMMAND_EVO].iMResets[3]			= GetPrivateProfileInt("Commands", "Command_Evo_NeedMasterResetsVip3", NULL, COMMANDS_FILE);

  008e1	68 00 00 00 00	 push	 OFFSET ??_C@_0CE@BMBMBCJB@?4?2Customs?2Commands?2Hgt_Commands?4@
  008e6	6a 00		 push	 0
  008e8	68 00 00 00 00	 push	 OFFSET ??_C@_0CB@JCOAIFMI@Command_Evo_NeedMasterResetsVip3@
  008ed	68 00 00 00 00	 push	 OFFSET ??_C@_08JNEOMACB@Commands?$AA@
  008f2	89 86 f8 05 00
	00		 mov	 DWORD PTR [esi+1528], eax
  008f8	ff d7		 call	 edi

; 115  : 	// ---
; 116  : 	GetPrivateProfileString("Commands", "Command_Money_Sintax", NULL, this->m_Data[COMMAND_ZEN].szSintax, sizeof(this->m_Data[COMMAND_ZEN].szSintax), COMMANDS_FILE);

  008fa	68 00 00 00 00	 push	 OFFSET ??_C@_0CE@BMBMBCJB@?4?2Customs?2Commands?2Hgt_Commands?4@
  008ff	6a 14		 push	 20			; 00000014H
  00901	8d 96 e8 07 00
	00		 lea	 edx, DWORD PTR [esi+2024]
  00907	52		 push	 edx
  00908	6a 00		 push	 0
  0090a	68 00 00 00 00	 push	 OFFSET ??_C@_0BF@GKGCCFJM@Command_Money_Sintax?$AA@
  0090f	68 00 00 00 00	 push	 OFFSET ??_C@_08JNEOMACB@Commands?$AA@
  00914	89 86 fc 05 00
	00		 mov	 DWORD PTR [esi+1532], eax
  0091a	ff d3		 call	 ebx

; 117  : 	// ---
; 118  : 	this->m_Data[COMMAND_ZEN].iEnabled				= GetPrivateProfileInt("Commands", "Command_Money_Enabled", NULL, COMMANDS_FILE);

  0091c	68 00 00 00 00	 push	 OFFSET ??_C@_0CE@BMBMBCJB@?4?2Customs?2Commands?2Hgt_Commands?4@
  00921	6a 00		 push	 0
  00923	68 00 00 00 00	 push	 OFFSET ??_C@_0BG@HPFDCNMC@Command_Money_Enabled?$AA@
  00928	68 00 00 00 00	 push	 OFFSET ??_C@_08JNEOMACB@Commands?$AA@
  0092d	ff d7		 call	 edi

; 119  : 	this->m_Data[COMMAND_ZEN].iVipOnly[0]			= GetPrivateProfileInt("Commands", "Command_Money_SwitchFree", NULL, COMMANDS_FILE);

  0092f	68 00 00 00 00	 push	 OFFSET ??_C@_0CE@BMBMBCJB@?4?2Customs?2Commands?2Hgt_Commands?4@
  00934	6a 00		 push	 0
  00936	85 c0		 test	 eax, eax
  00938	68 00 00 00 00	 push	 OFFSET ??_C@_0BJ@LKOAMHID@Command_Money_SwitchFree?$AA@
  0093d	0f 95 c0	 setne	 al
  00940	68 00 00 00 00	 push	 OFFSET ??_C@_08JNEOMACB@Commands?$AA@
  00945	88 86 90 07 00
	00		 mov	 BYTE PTR [esi+1936], al
  0094b	ff d7		 call	 edi

; 120  : 	this->m_Data[COMMAND_ZEN].iVipOnly[1]			= GetPrivateProfileInt("Commands", "Command_Money_SwitchVip1", NULL, COMMANDS_FILE);

  0094d	68 00 00 00 00	 push	 OFFSET ??_C@_0CE@BMBMBCJB@?4?2Customs?2Commands?2Hgt_Commands?4@
  00952	6a 00		 push	 0
  00954	68 00 00 00 00	 push	 OFFSET ??_C@_0BJ@JJCCHJFE@Command_Money_SwitchVip1?$AA@
  00959	68 00 00 00 00	 push	 OFFSET ??_C@_08JNEOMACB@Commands?$AA@
  0095e	89 86 94 07 00
	00		 mov	 DWORD PTR [esi+1940], eax
  00964	ff d7		 call	 edi

; 121  : 	this->m_Data[COMMAND_ZEN].iVipOnly[2]			= GetPrivateProfileInt("Commands", "Command_Money_SwitchVip2", NULL, COMMANDS_FILE);

  00966	68 00 00 00 00	 push	 OFFSET ??_C@_0CE@BMBMBCJB@?4?2Customs?2Commands?2Hgt_Commands?4@
  0096b	6a 00		 push	 0
  0096d	68 00 00 00 00	 push	 OFFSET ??_C@_0BJ@LCAPCKJH@Command_Money_SwitchVip2?$AA@
  00972	68 00 00 00 00	 push	 OFFSET ??_C@_08JNEOMACB@Commands?$AA@
  00977	89 86 98 07 00
	00		 mov	 DWORD PTR [esi+1944], eax
  0097d	ff d7		 call	 edi

; 122  : 	this->m_Data[COMMAND_ZEN].iVipOnly[3]			= GetPrivateProfileInt("Commands", "Command_Money_SwitchVip3", NULL, COMMANDS_FILE);

  0097f	68 00 00 00 00	 push	 OFFSET ??_C@_0CE@BMBMBCJB@?4?2Customs?2Commands?2Hgt_Commands?4@
  00984	6a 00		 push	 0
  00986	68 00 00 00 00	 push	 OFFSET ??_C@_0BJ@KLBEBLNG@Command_Money_SwitchVip3?$AA@
  0098b	68 00 00 00 00	 push	 OFFSET ??_C@_08JNEOMACB@Commands?$AA@
  00990	89 86 9c 07 00
	00		 mov	 DWORD PTR [esi+1948], eax
  00996	ff d7		 call	 edi

; 123  : 	this->m_Data[COMMAND_ZEN].iLevel[0]				= GetPrivateProfileInt("Commands", "Command_Money_NeedLevelFree", NULL, COMMANDS_FILE);

  00998	68 00 00 00 00	 push	 OFFSET ??_C@_0CE@BMBMBCJB@?4?2Customs?2Commands?2Hgt_Commands?4@
  0099d	6a 00		 push	 0
  0099f	68 00 00 00 00	 push	 OFFSET ??_C@_0BM@DHEOGEGL@Command_Money_NeedLevelFree?$AA@
  009a4	68 00 00 00 00	 push	 OFFSET ??_C@_08JNEOMACB@Commands?$AA@
  009a9	89 86 a0 07 00
	00		 mov	 DWORD PTR [esi+1952], eax
  009af	ff d7		 call	 edi

; 124  : 	this->m_Data[COMMAND_ZEN].iLevel[1]				= GetPrivateProfileInt("Commands", "Command_Money_NeedLevelVip1", NULL, COMMANDS_FILE);

  009b1	68 00 00 00 00	 push	 OFFSET ??_C@_0CE@BMBMBCJB@?4?2Customs?2Commands?2Hgt_Commands?4@
  009b6	6a 00		 push	 0
  009b8	68 00 00 00 00	 push	 OFFSET ??_C@_0BM@BEIMNKLM@Command_Money_NeedLevelVip1?$AA@
  009bd	68 00 00 00 00	 push	 OFFSET ??_C@_08JNEOMACB@Commands?$AA@
  009c2	89 86 a4 07 00
	00		 mov	 DWORD PTR [esi+1956], eax
  009c8	ff d7		 call	 edi

; 125  : 	this->m_Data[COMMAND_ZEN].iLevel[2]				= GetPrivateProfileInt("Commands", "Command_Money_NeedLevelVip2", NULL, COMMANDS_FILE);

  009ca	68 00 00 00 00	 push	 OFFSET ??_C@_0CE@BMBMBCJB@?4?2Customs?2Commands?2Hgt_Commands?4@
  009cf	6a 00		 push	 0
  009d1	68 00 00 00 00	 push	 OFFSET ??_C@_0BM@DPKBIJHP@Command_Money_NeedLevelVip2?$AA@
  009d6	68 00 00 00 00	 push	 OFFSET ??_C@_08JNEOMACB@Commands?$AA@
  009db	89 86 a8 07 00
	00		 mov	 DWORD PTR [esi+1960], eax
  009e1	ff d7		 call	 edi

; 126  : 	this->m_Data[COMMAND_ZEN].iLevel[3]				= GetPrivateProfileInt("Commands", "Command_Money_NeedLevelVip3", NULL, COMMANDS_FILE);

  009e3	68 00 00 00 00	 push	 OFFSET ??_C@_0CE@BMBMBCJB@?4?2Customs?2Commands?2Hgt_Commands?4@
  009e8	6a 00		 push	 0
  009ea	68 00 00 00 00	 push	 OFFSET ??_C@_0BM@CGLKLIDO@Command_Money_NeedLevelVip3?$AA@
  009ef	68 00 00 00 00	 push	 OFFSET ??_C@_08JNEOMACB@Commands?$AA@
  009f4	89 86 ac 07 00
	00		 mov	 DWORD PTR [esi+1964], eax
  009fa	ff d7		 call	 edi

; 127  : 	this->m_Data[COMMAND_ZEN].iMoney[0]				= GetPrivateProfileInt("Commands", "Command_Money_NeedMoneyFree", NULL, COMMANDS_FILE);

  009fc	68 00 00 00 00	 push	 OFFSET ??_C@_0CE@BMBMBCJB@?4?2Customs?2Commands?2Hgt_Commands?4@
  00a01	6a 00		 push	 0
  00a03	68 00 00 00 00	 push	 OFFSET ??_C@_0BM@LBOHDMHN@Command_Money_NeedMoneyFree?$AA@
  00a08	89 86 b0 07 00
	00		 mov	 DWORD PTR [esi+1968], eax
  00a0e	68 00 00 00 00	 push	 OFFSET ??_C@_08JNEOMACB@Commands?$AA@
  00a13	ff d7		 call	 edi

; 128  : 	this->m_Data[COMMAND_ZEN].iMoney[1]				= GetPrivateProfileInt("Commands", "Command_Money_NeedMoneyVip1", NULL, COMMANDS_FILE);

  00a15	68 00 00 00 00	 push	 OFFSET ??_C@_0CE@BMBMBCJB@?4?2Customs?2Commands?2Hgt_Commands?4@
  00a1a	6a 00		 push	 0
  00a1c	68 00 00 00 00	 push	 OFFSET ??_C@_0BM@JCCFICKK@Command_Money_NeedMoneyVip1?$AA@
  00a21	68 00 00 00 00	 push	 OFFSET ??_C@_08JNEOMACB@Commands?$AA@
  00a26	89 86 b4 07 00
	00		 mov	 DWORD PTR [esi+1972], eax
  00a2c	ff d7		 call	 edi

; 129  : 	this->m_Data[COMMAND_ZEN].iMoney[2]				= GetPrivateProfileInt("Commands", "Command_Money_NeedMoneyVip2", NULL, COMMANDS_FILE);

  00a2e	68 00 00 00 00	 push	 OFFSET ??_C@_0CE@BMBMBCJB@?4?2Customs?2Commands?2Hgt_Commands?4@
  00a33	6a 00		 push	 0
  00a35	68 00 00 00 00	 push	 OFFSET ??_C@_0BM@LJAINBGJ@Command_Money_NeedMoneyVip2?$AA@
  00a3a	68 00 00 00 00	 push	 OFFSET ??_C@_08JNEOMACB@Commands?$AA@
  00a3f	89 86 b8 07 00
	00		 mov	 DWORD PTR [esi+1976], eax
  00a45	ff d7		 call	 edi

; 130  : 	this->m_Data[COMMAND_ZEN].iMoney[3]				= GetPrivateProfileInt("Commands", "Command_Money_NeedMoneyVip3", NULL, COMMANDS_FILE);

  00a47	68 00 00 00 00	 push	 OFFSET ??_C@_0CE@BMBMBCJB@?4?2Customs?2Commands?2Hgt_Commands?4@
  00a4c	6a 00		 push	 0
  00a4e	68 00 00 00 00	 push	 OFFSET ??_C@_0BM@KABDOACI@Command_Money_NeedMoneyVip3?$AA@
  00a53	68 00 00 00 00	 push	 OFFSET ??_C@_08JNEOMACB@Commands?$AA@
  00a58	89 86 bc 07 00
	00		 mov	 DWORD PTR [esi+1980], eax
  00a5e	ff d7		 call	 edi

; 131  : 	this->m_Data[COMMAND_ZEN].iResets[0]			= GetPrivateProfileInt("Commands", "Command_Money_NeedResetsFree", NULL, COMMANDS_FILE);

  00a60	68 00 00 00 00	 push	 OFFSET ??_C@_0CE@BMBMBCJB@?4?2Customs?2Commands?2Hgt_Commands?4@
  00a65	6a 00		 push	 0
  00a67	68 00 00 00 00	 push	 OFFSET ??_C@_0BN@ONCDPGAD@Command_Money_NeedResetsFree?$AA@
  00a6c	68 00 00 00 00	 push	 OFFSET ??_C@_08JNEOMACB@Commands?$AA@
  00a71	89 86 c0 07 00
	00		 mov	 DWORD PTR [esi+1984], eax
  00a77	ff d7		 call	 edi

; 132  : 	this->m_Data[COMMAND_ZEN].iResets[1]			= GetPrivateProfileInt("Commands", "Command_Money_NeedResetsVip1", NULL, COMMANDS_FILE);

  00a79	68 00 00 00 00	 push	 OFFSET ??_C@_0CE@BMBMBCJB@?4?2Customs?2Commands?2Hgt_Commands?4@
  00a7e	6a 00		 push	 0
  00a80	68 00 00 00 00	 push	 OFFSET ??_C@_0BN@MOOBEINE@Command_Money_NeedResetsVip1?$AA@
  00a85	68 00 00 00 00	 push	 OFFSET ??_C@_08JNEOMACB@Commands?$AA@
  00a8a	89 86 c4 07 00
	00		 mov	 DWORD PTR [esi+1988], eax
  00a90	ff d7		 call	 edi

; 133  : 	this->m_Data[COMMAND_ZEN].iResets[2]			= GetPrivateProfileInt("Commands", "Command_Money_NeedResetsVip2", NULL, COMMANDS_FILE);

  00a92	68 00 00 00 00	 push	 OFFSET ??_C@_0CE@BMBMBCJB@?4?2Customs?2Commands?2Hgt_Commands?4@
  00a97	6a 00		 push	 0
  00a99	68 00 00 00 00	 push	 OFFSET ??_C@_0BN@OFMMBLBH@Command_Money_NeedResetsVip2?$AA@
  00a9e	68 00 00 00 00	 push	 OFFSET ??_C@_08JNEOMACB@Commands?$AA@
  00aa3	89 86 c8 07 00
	00		 mov	 DWORD PTR [esi+1992], eax
  00aa9	ff d7		 call	 edi

; 134  : 	this->m_Data[COMMAND_ZEN].iResets[3]			= GetPrivateProfileInt("Commands", "Command_Money_NeedResetsVip3", NULL, COMMANDS_FILE);

  00aab	68 00 00 00 00	 push	 OFFSET ??_C@_0CE@BMBMBCJB@?4?2Customs?2Commands?2Hgt_Commands?4@
  00ab0	6a 00		 push	 0
  00ab2	68 00 00 00 00	 push	 OFFSET ??_C@_0BN@PMNHCKFG@Command_Money_NeedResetsVip3?$AA@
  00ab7	68 00 00 00 00	 push	 OFFSET ??_C@_08JNEOMACB@Commands?$AA@
  00abc	89 86 cc 07 00
	00		 mov	 DWORD PTR [esi+1996], eax
  00ac2	ff d7		 call	 edi

; 135  : 	this->m_Data[COMMAND_ZEN].iMResets[0]			= GetPrivateProfileInt("Commands", "Command_Money_NeedMasterResetsFree", NULL, COMMANDS_FILE);

  00ac4	68 00 00 00 00	 push	 OFFSET ??_C@_0CE@BMBMBCJB@?4?2Customs?2Commands?2Hgt_Commands?4@
  00ac9	6a 00		 push	 0
  00acb	68 00 00 00 00	 push	 OFFSET ??_C@_0CD@IPDDFCNG@Command_Money_NeedMasterResetsFr@
  00ad0	68 00 00 00 00	 push	 OFFSET ??_C@_08JNEOMACB@Commands?$AA@
  00ad5	89 86 d0 07 00
	00		 mov	 DWORD PTR [esi+2000], eax
  00adb	ff d7		 call	 edi

; 136  : 	this->m_Data[COMMAND_ZEN].iMResets[1]			= GetPrivateProfileInt("Commands", "Command_Money_NeedMasterResetsVip1", NULL, COMMANDS_FILE);

  00add	68 00 00 00 00	 push	 OFFSET ??_C@_0CE@BMBMBCJB@?4?2Customs?2Commands?2Hgt_Commands?4@
  00ae2	6a 00		 push	 0
  00ae4	68 00 00 00 00	 push	 OFFSET ??_C@_0CD@KMPBOMAB@Command_Money_NeedMasterResetsVi@
  00ae9	68 00 00 00 00	 push	 OFFSET ??_C@_08JNEOMACB@Commands?$AA@
  00aee	89 86 d4 07 00
	00		 mov	 DWORD PTR [esi+2004], eax
  00af4	ff d7		 call	 edi

; 137  : 	this->m_Data[COMMAND_ZEN].iMResets[2]			= GetPrivateProfileInt("Commands", "Command_Money_NeedMasterResetsVip2", NULL, COMMANDS_FILE);

  00af6	68 00 00 00 00	 push	 OFFSET ??_C@_0CE@BMBMBCJB@?4?2Customs?2Commands?2Hgt_Commands?4@
  00afb	6a 00		 push	 0
  00afd	68 00 00 00 00	 push	 OFFSET ??_C@_0CD@IHNMLPMC@Command_Money_NeedMasterResetsVi@
  00b02	68 00 00 00 00	 push	 OFFSET ??_C@_08JNEOMACB@Commands?$AA@
  00b07	89 86 d8 07 00
	00		 mov	 DWORD PTR [esi+2008], eax
  00b0d	ff d7		 call	 edi

; 138  : 	this->m_Data[COMMAND_ZEN].iMResets[3]			= GetPrivateProfileInt("Commands", "Command_Money_NeedMasterResetsVip3", NULL, COMMANDS_FILE);

  00b0f	68 00 00 00 00	 push	 OFFSET ??_C@_0CE@BMBMBCJB@?4?2Customs?2Commands?2Hgt_Commands?4@
  00b14	6a 00		 push	 0
  00b16	68 00 00 00 00	 push	 OFFSET ??_C@_0CD@JOMHIOID@Command_Money_NeedMasterResetsVi@
  00b1b	68 00 00 00 00	 push	 OFFSET ??_C@_08JNEOMACB@Commands?$AA@
  00b20	89 86 dc 07 00
	00		 mov	 DWORD PTR [esi+2012], eax
  00b26	ff d7		 call	 edi

; 139  : 	// ---
; 140  : 	GetPrivateProfileString("Commands", "Command_AddPoints_SintaxStr", NULL, this->m_Data[COMMAND_ADD].szSintaxAdd[0], sizeof(this->m_Data[COMMAND_ADD].szSintaxAdd[0]), COMMANDS_FILE);

  00b28	68 00 00 00 00	 push	 OFFSET ??_C@_0CE@BMBMBCJB@?4?2Customs?2Commands?2Hgt_Commands?4@
  00b2d	6a 14		 push	 20			; 00000014H
  00b2f	8d 8e 04 0a 00
	00		 lea	 ecx, DWORD PTR [esi+2564]
  00b35	51		 push	 ecx
  00b36	6a 00		 push	 0
  00b38	68 00 00 00 00	 push	 OFFSET ??_C@_0BM@HKCGOFJE@Command_AddPoints_SintaxStr?$AA@
  00b3d	68 00 00 00 00	 push	 OFFSET ??_C@_08JNEOMACB@Commands?$AA@
  00b42	89 86 e0 07 00
	00		 mov	 DWORD PTR [esi+2016], eax
  00b48	ff d3		 call	 ebx

; 141  : 	GetPrivateProfileString("Commands", "Command_AddPoints_SintaxAgi", NULL, this->m_Data[COMMAND_ADD].szSintaxAdd[1], sizeof(this->m_Data[COMMAND_ADD].szSintaxAdd[1]), COMMANDS_FILE);

  00b4a	68 00 00 00 00	 push	 OFFSET ??_C@_0CE@BMBMBCJB@?4?2Customs?2Commands?2Hgt_Commands?4@
  00b4f	6a 14		 push	 20			; 00000014H
  00b51	8d 96 18 0a 00
	00		 lea	 edx, DWORD PTR [esi+2584]
  00b57	52		 push	 edx
  00b58	6a 00		 push	 0
  00b5a	68 00 00 00 00	 push	 OFFSET ??_C@_0BM@DHGAKMDD@Command_AddPoints_SintaxAgi?$AA@
  00b5f	68 00 00 00 00	 push	 OFFSET ??_C@_08JNEOMACB@Commands?$AA@
  00b64	ff d3		 call	 ebx

; 142  : 	GetPrivateProfileString("Commands", "Command_AddPoints_SiyntaxVit", NULL, this->m_Data[COMMAND_ADD].szSintaxAdd[2], sizeof(this->m_Data[COMMAND_ADD].szSintaxAdd[2]), COMMANDS_FILE);

  00b66	68 00 00 00 00	 push	 OFFSET ??_C@_0CE@BMBMBCJB@?4?2Customs?2Commands?2Hgt_Commands?4@
  00b6b	6a 14		 push	 20			; 00000014H
  00b6d	8d 86 2c 0a 00
	00		 lea	 eax, DWORD PTR [esi+2604]
  00b73	50		 push	 eax
  00b74	6a 00		 push	 0
  00b76	68 00 00 00 00	 push	 OFFSET ??_C@_0BN@CEPHBKBK@Command_AddPoints_SiyntaxVit?$AA@
  00b7b	68 00 00 00 00	 push	 OFFSET ??_C@_08JNEOMACB@Commands?$AA@
  00b80	ff d3		 call	 ebx

; 143  : 	GetPrivateProfileString("Commands", "Command_AddPoints_SintaxEne", NULL, this->m_Data[COMMAND_ADD].szSintaxAdd[3], sizeof(this->m_Data[COMMAND_ADD].szSintaxAdd[3]), COMMANDS_FILE);

  00b82	68 00 00 00 00	 push	 OFFSET ??_C@_0CE@BMBMBCJB@?4?2Customs?2Commands?2Hgt_Commands?4@
  00b87	6a 14		 push	 20			; 00000014H
  00b89	8d 8e 40 0a 00
	00		 lea	 ecx, DWORD PTR [esi+2624]
  00b8f	51		 push	 ecx
  00b90	6a 00		 push	 0
  00b92	68 00 00 00 00	 push	 OFFSET ??_C@_0BM@BLGGEPOH@Command_AddPoints_SintaxEne?$AA@
  00b97	68 00 00 00 00	 push	 OFFSET ??_C@_08JNEOMACB@Commands?$AA@
  00b9c	ff d3		 call	 ebx

; 144  : 	GetPrivateProfileString("Commands", "Command_AddPoints_SintaxCmd", NULL, this->m_Data[COMMAND_ADD].szSintaxAdd[4], sizeof(this->m_Data[COMMAND_ADD].szSintaxAdd[4]), COMMANDS_FILE);

  00b9e	68 00 00 00 00	 push	 OFFSET ??_C@_0CE@BMBMBCJB@?4?2Customs?2Commands?2Hgt_Commands?4@
  00ba3	6a 14		 push	 20			; 00000014H
  00ba5	8d 96 54 0a 00
	00		 lea	 edx, DWORD PTR [esi+2644]
  00bab	52		 push	 edx
  00bac	6a 00		 push	 0
  00bae	68 00 00 00 00	 push	 OFFSET ??_C@_0BM@CFFAJPCD@Command_AddPoints_SintaxCmd?$AA@
  00bb3	68 00 00 00 00	 push	 OFFSET ??_C@_08JNEOMACB@Commands?$AA@
  00bb8	ff d3		 call	 ebx

; 145  : 	// ---
; 146  : 	this->m_Data[COMMAND_ADD].iEnabled          = GetPrivateProfileInt("Commands", "Command_AddPoints_Enabled", NULL, COMMANDS_FILE);

  00bba	68 00 00 00 00	 push	 OFFSET ??_C@_0CE@BMBMBCJB@?4?2Customs?2Commands?2Hgt_Commands?4@
  00bbf	6a 00		 push	 0
  00bc1	68 00 00 00 00	 push	 OFFSET ??_C@_0BK@JGFCPOGJ@Command_AddPoints_Enabled?$AA@
  00bc6	68 00 00 00 00	 push	 OFFSET ??_C@_08JNEOMACB@Commands?$AA@
  00bcb	ff d7		 call	 edi

; 147  : 	this->m_Data[COMMAND_ADD].iVipOnly[0]       = GetPrivateProfileInt("Commands", "Command_AddPoints_SwitchFree", NULL, COMMANDS_FILE);

  00bcd	68 00 00 00 00	 push	 OFFSET ??_C@_0CE@BMBMBCJB@?4?2Customs?2Commands?2Hgt_Commands?4@
  00bd2	6a 00		 push	 0
  00bd4	85 c0		 test	 eax, eax
  00bd6	68 00 00 00 00	 push	 OFFSET ??_C@_0BN@LCNPNDKB@Command_AddPoints_SwitchFree?$AA@
  00bdb	0f 95 c0	 setne	 al
  00bde	68 00 00 00 00	 push	 OFFSET ??_C@_08JNEOMACB@Commands?$AA@
  00be3	88 86 74 09 00
	00		 mov	 BYTE PTR [esi+2420], al
  00be9	ff d7		 call	 edi

; 148  : 	this->m_Data[COMMAND_ADD].iVipOnly[1]       = GetPrivateProfileInt("Commands", "Command_AddPoints_SwitchVip1", NULL, COMMANDS_FILE);

  00beb	68 00 00 00 00	 push	 OFFSET ??_C@_0CE@BMBMBCJB@?4?2Customs?2Commands?2Hgt_Commands?4@
  00bf0	6a 00		 push	 0
  00bf2	68 00 00 00 00	 push	 OFFSET ??_C@_0BN@JBBNGNHG@Command_AddPoints_SwitchVip1?$AA@
  00bf7	68 00 00 00 00	 push	 OFFSET ??_C@_08JNEOMACB@Commands?$AA@
  00bfc	89 86 78 09 00
	00		 mov	 DWORD PTR [esi+2424], eax
  00c02	ff d7		 call	 edi

; 149  : 	this->m_Data[COMMAND_ADD].iVipOnly[2]       = GetPrivateProfileInt("Commands", "Command_AddPoints_SwitchVip2", NULL, COMMANDS_FILE);

  00c04	68 00 00 00 00	 push	 OFFSET ??_C@_0CE@BMBMBCJB@?4?2Customs?2Commands?2Hgt_Commands?4@
  00c09	6a 00		 push	 0
  00c0b	68 00 00 00 00	 push	 OFFSET ??_C@_0BN@LKDADOLF@Command_AddPoints_SwitchVip2?$AA@
  00c10	68 00 00 00 00	 push	 OFFSET ??_C@_08JNEOMACB@Commands?$AA@
  00c15	89 86 7c 09 00
	00		 mov	 DWORD PTR [esi+2428], eax
  00c1b	ff d7		 call	 edi

; 150  : 	this->m_Data[COMMAND_ADD].iVipOnly[3]       = GetPrivateProfileInt("Commands", "Command_AddPoints_SwitchVip3", NULL, COMMANDS_FILE);

  00c1d	68 00 00 00 00	 push	 OFFSET ??_C@_0CE@BMBMBCJB@?4?2Customs?2Commands?2Hgt_Commands?4@
  00c22	6a 00		 push	 0
  00c24	68 00 00 00 00	 push	 OFFSET ??_C@_0BN@KDCLAPPE@Command_AddPoints_SwitchVip3?$AA@
  00c29	68 00 00 00 00	 push	 OFFSET ??_C@_08JNEOMACB@Commands?$AA@
  00c2e	89 86 80 09 00
	00		 mov	 DWORD PTR [esi+2432], eax
  00c34	ff d7		 call	 edi

; 151  : 	this->m_Data[COMMAND_ADD].iLevel[0]         = GetPrivateProfileInt("Commands", "Command_AddPoints_NeedLevelFree", NULL, COMMANDS_FILE);

  00c36	68 00 00 00 00	 push	 OFFSET ??_C@_0CE@BMBMBCJB@?4?2Customs?2Commands?2Hgt_Commands?4@
  00c3b	6a 00		 push	 0
  00c3d	68 00 00 00 00	 push	 OFFSET ??_C@_0CA@JEEPAMIF@Command_AddPoints_NeedLevelFree?$AA@
  00c42	68 00 00 00 00	 push	 OFFSET ??_C@_08JNEOMACB@Commands?$AA@
  00c47	89 86 84 09 00
	00		 mov	 DWORD PTR [esi+2436], eax
  00c4d	ff d7		 call	 edi

; 152  : 	this->m_Data[COMMAND_ADD].iLevel[1]         = GetPrivateProfileInt("Commands", "Command_AddPoints_NeedLevelVip1", NULL, COMMANDS_FILE);

  00c4f	68 00 00 00 00	 push	 OFFSET ??_C@_0CE@BMBMBCJB@?4?2Customs?2Commands?2Hgt_Commands?4@
  00c54	6a 00		 push	 0
  00c56	68 00 00 00 00	 push	 OFFSET ??_C@_0CA@LHINLCFC@Command_AddPoints_NeedLevelVip1?$AA@
  00c5b	68 00 00 00 00	 push	 OFFSET ??_C@_08JNEOMACB@Commands?$AA@
  00c60	89 86 88 09 00
	00		 mov	 DWORD PTR [esi+2440], eax
  00c66	ff d7		 call	 edi

; 153  : 	this->m_Data[COMMAND_ADD].iLevel[2]         = GetPrivateProfileInt("Commands", "Command_AddPoints_NeedLevelVip2", NULL, COMMANDS_FILE);

  00c68	68 00 00 00 00	 push	 OFFSET ??_C@_0CE@BMBMBCJB@?4?2Customs?2Commands?2Hgt_Commands?4@
  00c6d	6a 00		 push	 0
  00c6f	68 00 00 00 00	 push	 OFFSET ??_C@_0CA@JMKAOBJB@Command_AddPoints_NeedLevelVip2?$AA@
  00c74	68 00 00 00 00	 push	 OFFSET ??_C@_08JNEOMACB@Commands?$AA@
  00c79	89 86 8c 09 00
	00		 mov	 DWORD PTR [esi+2444], eax
  00c7f	ff d7		 call	 edi

; 154  : 	this->m_Data[COMMAND_ADD].iLevel[3]         = GetPrivateProfileInt("Commands", "Command_AddPoints_NeedLevelVip3", NULL, COMMANDS_FILE);

  00c81	68 00 00 00 00	 push	 OFFSET ??_C@_0CE@BMBMBCJB@?4?2Customs?2Commands?2Hgt_Commands?4@
  00c86	6a 00		 push	 0
  00c88	68 00 00 00 00	 push	 OFFSET ??_C@_0CA@IFLLNANA@Command_AddPoints_NeedLevelVip3?$AA@
  00c8d	89 86 90 09 00
	00		 mov	 DWORD PTR [esi+2448], eax
  00c93	68 00 00 00 00	 push	 OFFSET ??_C@_08JNEOMACB@Commands?$AA@
  00c98	ff d7		 call	 edi

; 155  : 	this->m_Data[COMMAND_ADD].iMoney[0]         = GetPrivateProfileInt("Commands", "Command_AddPoints_NeedMoneyFree", NULL, COMMANDS_FILE);

  00c9a	68 00 00 00 00	 push	 OFFSET ??_C@_0CE@BMBMBCJB@?4?2Customs?2Commands?2Hgt_Commands?4@
  00c9f	6a 00		 push	 0
  00ca1	68 00 00 00 00	 push	 OFFSET ??_C@_0CA@BCOGFEJD@Command_AddPoints_NeedMoneyFree?$AA@
  00ca6	68 00 00 00 00	 push	 OFFSET ??_C@_08JNEOMACB@Commands?$AA@
  00cab	89 86 94 09 00
	00		 mov	 DWORD PTR [esi+2452], eax
  00cb1	ff d7		 call	 edi

; 156  : 	this->m_Data[COMMAND_ADD].iMoney[1]         = GetPrivateProfileInt("Commands", "Command_AddPoints_NeedMoneyVip1", NULL, COMMANDS_FILE);

  00cb3	68 00 00 00 00	 push	 OFFSET ??_C@_0CE@BMBMBCJB@?4?2Customs?2Commands?2Hgt_Commands?4@
  00cb8	6a 00		 push	 0
  00cba	68 00 00 00 00	 push	 OFFSET ??_C@_0CA@DBCEOKEE@Command_AddPoints_NeedMoneyVip1?$AA@
  00cbf	68 00 00 00 00	 push	 OFFSET ??_C@_08JNEOMACB@Commands?$AA@
  00cc4	89 86 98 09 00
	00		 mov	 DWORD PTR [esi+2456], eax
  00cca	ff d7		 call	 edi

; 157  : 	this->m_Data[COMMAND_ADD].iMoney[2]         = GetPrivateProfileInt("Commands", "Command_AddPoints_NeedMoneyVip2", NULL, COMMANDS_FILE);

  00ccc	68 00 00 00 00	 push	 OFFSET ??_C@_0CE@BMBMBCJB@?4?2Customs?2Commands?2Hgt_Commands?4@
  00cd1	6a 00		 push	 0
  00cd3	68 00 00 00 00	 push	 OFFSET ??_C@_0CA@BKAJLJIH@Command_AddPoints_NeedMoneyVip2?$AA@
  00cd8	68 00 00 00 00	 push	 OFFSET ??_C@_08JNEOMACB@Commands?$AA@
  00cdd	89 86 9c 09 00
	00		 mov	 DWORD PTR [esi+2460], eax
  00ce3	ff d7		 call	 edi

; 158  : 	this->m_Data[COMMAND_ADD].iMoney[3]         = GetPrivateProfileInt("Commands", "Command_AddPoints_NeedMoneyVip3", NULL, COMMANDS_FILE);

  00ce5	68 00 00 00 00	 push	 OFFSET ??_C@_0CE@BMBMBCJB@?4?2Customs?2Commands?2Hgt_Commands?4@
  00cea	6a 00		 push	 0
  00cec	68 00 00 00 00	 push	 OFFSET ??_C@_0CA@DBCIIMG@Command_AddPoints_NeedMoneyVip3?$AA@
  00cf1	68 00 00 00 00	 push	 OFFSET ??_C@_08JNEOMACB@Commands?$AA@
  00cf6	89 86 a0 09 00
	00		 mov	 DWORD PTR [esi+2464], eax
  00cfc	ff d7		 call	 edi

; 159  : 	this->m_Data[COMMAND_ADD].iResets[0]		= GetPrivateProfileInt("Commands", "Command_AddPoints_NeedResetsFree", NULL, COMMANDS_FILE);

  00cfe	68 00 00 00 00	 push	 OFFSET ??_C@_0CE@BMBMBCJB@?4?2Customs?2Commands?2Hgt_Commands?4@
  00d03	6a 00		 push	 0
  00d05	68 00 00 00 00	 push	 OFFSET ??_C@_0CB@KKDCDIBE@Command_AddPoints_NeedResetsFree@
  00d0a	68 00 00 00 00	 push	 OFFSET ??_C@_08JNEOMACB@Commands?$AA@
  00d0f	89 86 a4 09 00
	00		 mov	 DWORD PTR [esi+2468], eax
  00d15	ff d7		 call	 edi

; 160  : 	this->m_Data[COMMAND_ADD].iResets[1]		= GetPrivateProfileInt("Commands", "Command_AddPoints_NeedResetsVip1", NULL, COMMANDS_FILE);

  00d17	68 00 00 00 00	 push	 OFFSET ??_C@_0CE@BMBMBCJB@?4?2Customs?2Commands?2Hgt_Commands?4@
  00d1c	6a 00		 push	 0
  00d1e	68 00 00 00 00	 push	 OFFSET ??_C@_0CB@IJPAIGMD@Command_AddPoints_NeedResetsVip1@
  00d23	68 00 00 00 00	 push	 OFFSET ??_C@_08JNEOMACB@Commands?$AA@
  00d28	89 86 a8 09 00
	00		 mov	 DWORD PTR [esi+2472], eax
  00d2e	ff d7		 call	 edi

; 161  : 	this->m_Data[COMMAND_ADD].iResets[2]		= GetPrivateProfileInt("Commands", "Command_AddPoints_NeedResetsVip2", NULL, COMMANDS_FILE);

  00d30	68 00 00 00 00	 push	 OFFSET ??_C@_0CE@BMBMBCJB@?4?2Customs?2Commands?2Hgt_Commands?4@
  00d35	6a 00		 push	 0
  00d37	68 00 00 00 00	 push	 OFFSET ??_C@_0CB@KCNNNFAA@Command_AddPoints_NeedResetsVip2@
  00d3c	68 00 00 00 00	 push	 OFFSET ??_C@_08JNEOMACB@Commands?$AA@
  00d41	89 86 ac 09 00
	00		 mov	 DWORD PTR [esi+2476], eax
  00d47	ff d7		 call	 edi

; 162  : 	this->m_Data[COMMAND_ADD].iResets[3]		= GetPrivateProfileInt("Commands", "Command_AddPoints_NeedResetsVip3", NULL, COMMANDS_FILE);

  00d49	68 00 00 00 00	 push	 OFFSET ??_C@_0CE@BMBMBCJB@?4?2Customs?2Commands?2Hgt_Commands?4@
  00d4e	6a 00		 push	 0
  00d50	68 00 00 00 00	 push	 OFFSET ??_C@_0CB@LLMGOEEB@Command_AddPoints_NeedResetsVip3@
  00d55	68 00 00 00 00	 push	 OFFSET ??_C@_08JNEOMACB@Commands?$AA@
  00d5a	89 86 b0 09 00
	00		 mov	 DWORD PTR [esi+2480], eax
  00d60	ff d7		 call	 edi

; 163  : 	this->m_Data[COMMAND_ADD].iMResets[0]		= GetPrivateProfileInt("Commands", "Command_AddPoints_NeedMasterResetsFree", NULL, COMMANDS_FILE);

  00d62	68 00 00 00 00	 push	 OFFSET ??_C@_0CE@BMBMBCJB@?4?2Customs?2Commands?2Hgt_Commands?4@
  00d67	6a 00		 push	 0
  00d69	68 00 00 00 00	 push	 OFFSET ??_C@_0CH@FKLFJNPA@Command_AddPoints_NeedMasterRese@
  00d6e	68 00 00 00 00	 push	 OFFSET ??_C@_08JNEOMACB@Commands?$AA@
  00d73	89 86 b4 09 00
	00		 mov	 DWORD PTR [esi+2484], eax
  00d79	ff d7		 call	 edi

; 164  : 	this->m_Data[COMMAND_ADD].iMResets[1]		= GetPrivateProfileInt("Commands", "Command_AddPoints_NeedMasterResetsVip1", NULL, COMMANDS_FILE);

  00d7b	68 00 00 00 00	 push	 OFFSET ??_C@_0CE@BMBMBCJB@?4?2Customs?2Commands?2Hgt_Commands?4@
  00d80	6a 00		 push	 0
  00d82	68 00 00 00 00	 push	 OFFSET ??_C@_0CH@HJHHCDCH@Command_AddPoints_NeedMasterRese@
  00d87	68 00 00 00 00	 push	 OFFSET ??_C@_08JNEOMACB@Commands?$AA@
  00d8c	89 86 b8 09 00
	00		 mov	 DWORD PTR [esi+2488], eax
  00d92	ff d7		 call	 edi

; 165  : 	this->m_Data[COMMAND_ADD].iMResets[2]		= GetPrivateProfileInt("Commands", "Command_AddPoints_NeedMasterResetsVip2", NULL, COMMANDS_FILE);

  00d94	68 00 00 00 00	 push	 OFFSET ??_C@_0CE@BMBMBCJB@?4?2Customs?2Commands?2Hgt_Commands?4@
  00d99	6a 00		 push	 0
  00d9b	68 00 00 00 00	 push	 OFFSET ??_C@_0CH@FCFKHAOE@Command_AddPoints_NeedMasterRese@
  00da0	68 00 00 00 00	 push	 OFFSET ??_C@_08JNEOMACB@Commands?$AA@
  00da5	89 86 bc 09 00
	00		 mov	 DWORD PTR [esi+2492], eax
  00dab	ff d7		 call	 edi

; 166  : 	this->m_Data[COMMAND_ADD].iMResets[3]		= GetPrivateProfileInt("Commands", "Command_AddPoints_NeedMasterResetsVip3", NULL, COMMANDS_FILE);

  00dad	68 00 00 00 00	 push	 OFFSET ??_C@_0CE@BMBMBCJB@?4?2Customs?2Commands?2Hgt_Commands?4@
  00db2	6a 00		 push	 0
  00db4	68 00 00 00 00	 push	 OFFSET ??_C@_0CH@ELEBEBKF@Command_AddPoints_NeedMasterRese@
  00db9	68 00 00 00 00	 push	 OFFSET ??_C@_08JNEOMACB@Commands?$AA@
  00dbe	89 86 c0 09 00
	00		 mov	 DWORD PTR [esi+2496], eax
  00dc4	ff d7		 call	 edi

; 167  : 	// ---
; 168  : 	GetPrivateProfileString("Commands", "Command_ReAddPoints_Sintax", NULL, this->m_Data[COMMAND_READD].szSintax, sizeof(this->m_Data[COMMAND_READD].szSintax), COMMANDS_FILE);

  00dc6	68 00 00 00 00	 push	 OFFSET ??_C@_0CE@BMBMBCJB@?4?2Customs?2Commands?2Hgt_Commands?4@
  00dcb	6a 14		 push	 20			; 00000014H
  00dcd	8d 8e b0 0b 00
	00		 lea	 ecx, DWORD PTR [esi+2992]
  00dd3	51		 push	 ecx
  00dd4	6a 00		 push	 0
  00dd6	68 00 00 00 00	 push	 OFFSET ??_C@_0BL@OACPPCKI@Command_ReAddPoints_Sintax?$AA@
  00ddb	89 86 c4 09 00
	00		 mov	 DWORD PTR [esi+2500], eax
  00de1	68 00 00 00 00	 push	 OFFSET ??_C@_08JNEOMACB@Commands?$AA@
  00de6	ff d3		 call	 ebx

; 169  : 	// ---
; 170  : 	this->m_Data[COMMAND_READD].iEnabled        = GetPrivateProfileInt("Commands", "Command_ReAddPoints_Enabled", NULL, COMMANDS_FILE);

  00de8	68 00 00 00 00	 push	 OFFSET ??_C@_0CE@BMBMBCJB@?4?2Customs?2Commands?2Hgt_Commands?4@
  00ded	6a 00		 push	 0
  00def	68 00 00 00 00	 push	 OFFSET ??_C@_0BM@FOGNJEKA@Command_ReAddPoints_Enabled?$AA@
  00df4	68 00 00 00 00	 push	 OFFSET ??_C@_08JNEOMACB@Commands?$AA@
  00df9	ff d7		 call	 edi

; 171  : 	this->m_Data[COMMAND_READD].iVipOnly[0]     = GetPrivateProfileInt("Commands", "Command_ReAddPoints_SwitchFree", NULL, COMMANDS_FILE);

  00dfb	68 00 00 00 00	 push	 OFFSET ??_C@_0CE@BMBMBCJB@?4?2Customs?2Commands?2Hgt_Commands?4@
  00e00	6a 00		 push	 0
  00e02	85 c0		 test	 eax, eax
  00e04	68 00 00 00 00	 push	 OFFSET ??_C@_0BP@FNFNALG@Command_ReAddPoints_SwitchFree?$AA@
  00e09	0f 95 c2	 setne	 dl
  00e0c	68 00 00 00 00	 push	 OFFSET ??_C@_08JNEOMACB@Commands?$AA@
  00e11	88 96 58 0b 00
	00		 mov	 BYTE PTR [esi+2904], dl
  00e17	ff d7		 call	 edi

; 172  : 	this->m_Data[COMMAND_READD].iVipOnly[1]     = GetPrivateProfileInt("Commands", "Command_ReAddPoints_SwitchVip1", NULL, COMMANDS_FILE);

  00e19	68 00 00 00 00	 push	 OFFSET ??_C@_0CE@BMBMBCJB@?4?2Customs?2Commands?2Hgt_Commands?4@
  00e1e	6a 00		 push	 0
  00e20	68 00 00 00 00	 push	 OFFSET ??_C@_0BP@CGBHGOGB@Command_ReAddPoints_SwitchVip1?$AA@
  00e25	68 00 00 00 00	 push	 OFFSET ??_C@_08JNEOMACB@Commands?$AA@
  00e2a	89 86 5c 0b 00
	00		 mov	 DWORD PTR [esi+2908], eax
  00e30	ff d7		 call	 edi

; 173  : 	this->m_Data[COMMAND_READD].iVipOnly[2]     = GetPrivateProfileInt("Commands", "Command_ReAddPoints_SwitchVip2", NULL, COMMANDS_FILE);

  00e32	68 00 00 00 00	 push	 OFFSET ??_C@_0CE@BMBMBCJB@?4?2Customs?2Commands?2Hgt_Commands?4@
  00e37	6a 00		 push	 0
  00e39	68 00 00 00 00	 push	 OFFSET ??_C@_0BP@NDKDNKC@Command_ReAddPoints_SwitchVip2?$AA@
  00e3e	68 00 00 00 00	 push	 OFFSET ??_C@_08JNEOMACB@Commands?$AA@
  00e43	89 86 60 0b 00
	00		 mov	 DWORD PTR [esi+2912], eax
  00e49	ff d7		 call	 edi

; 174  : 	this->m_Data[COMMAND_READD].iVipOnly[3]     = GetPrivateProfileInt("Commands", "Command_ReAddPoints_SwitchVip3", NULL, COMMANDS_FILE);

  00e4b	68 00 00 00 00	 push	 OFFSET ??_C@_0CE@BMBMBCJB@?4?2Customs?2Commands?2Hgt_Commands?4@
  00e50	6a 00		 push	 0
  00e52	68 00 00 00 00	 push	 OFFSET ??_C@_0BP@BECBAMOD@Command_ReAddPoints_SwitchVip3?$AA@
  00e57	68 00 00 00 00	 push	 OFFSET ??_C@_08JNEOMACB@Commands?$AA@
  00e5c	89 86 64 0b 00
	00		 mov	 DWORD PTR [esi+2916], eax
  00e62	ff d7		 call	 edi

; 175  : 	this->m_Data[COMMAND_READD].iLevel[0]       = GetPrivateProfileInt("Commands", "Command_ReAddPoints_NeedLevelFree", NULL, COMMANDS_FILE);

  00e64	68 00 00 00 00	 push	 OFFSET ??_C@_0CE@BMBMBCJB@?4?2Customs?2Commands?2Hgt_Commands?4@
  00e69	6a 00		 push	 0
  00e6b	68 00 00 00 00	 push	 OFFSET ??_C@_0CC@EGNOADBK@Command_ReAddPoints_NeedLevelFre@
  00e70	68 00 00 00 00	 push	 OFFSET ??_C@_08JNEOMACB@Commands?$AA@
  00e75	89 86 68 0b 00
	00		 mov	 DWORD PTR [esi+2920], eax
  00e7b	ff d7		 call	 edi

; 176  : 	this->m_Data[COMMAND_READD].iLevel[1]       = GetPrivateProfileInt("Commands", "Command_ReAddPoints_NeedLevelVip1", NULL, COMMANDS_FILE);

  00e7d	68 00 00 00 00	 push	 OFFSET ??_C@_0CE@BMBMBCJB@?4?2Customs?2Commands?2Hgt_Commands?4@
  00e82	6a 00		 push	 0
  00e84	68 00 00 00 00	 push	 OFFSET ??_C@_0CC@GFBMLNMN@Command_ReAddPoints_NeedLevelVip@
  00e89	68 00 00 00 00	 push	 OFFSET ??_C@_08JNEOMACB@Commands?$AA@
  00e8e	89 86 6c 0b 00
	00		 mov	 DWORD PTR [esi+2924], eax
  00e94	ff d7		 call	 edi

; 177  : 	this->m_Data[COMMAND_READD].iLevel[2]       = GetPrivateProfileInt("Commands", "Command_ReAddPoints_NeedLevelVip2", NULL, COMMANDS_FILE);

  00e96	68 00 00 00 00	 push	 OFFSET ??_C@_0CE@BMBMBCJB@?4?2Customs?2Commands?2Hgt_Commands?4@
  00e9b	6a 00		 push	 0
  00e9d	68 00 00 00 00	 push	 OFFSET ??_C@_0CC@EODBOOAO@Command_ReAddPoints_NeedLevelVip@
  00ea2	68 00 00 00 00	 push	 OFFSET ??_C@_08JNEOMACB@Commands?$AA@
  00ea7	89 86 70 0b 00
	00		 mov	 DWORD PTR [esi+2928], eax
  00ead	ff d7		 call	 edi

; 178  : 	this->m_Data[COMMAND_READD].iLevel[3]       = GetPrivateProfileInt("Commands", "Command_ReAddPoints_NeedLevelVip3", NULL, COMMANDS_FILE);

  00eaf	68 00 00 00 00	 push	 OFFSET ??_C@_0CE@BMBMBCJB@?4?2Customs?2Commands?2Hgt_Commands?4@
  00eb4	6a 00		 push	 0
  00eb6	68 00 00 00 00	 push	 OFFSET ??_C@_0CC@FHCKNPEP@Command_ReAddPoints_NeedLevelVip@
  00ebb	68 00 00 00 00	 push	 OFFSET ??_C@_08JNEOMACB@Commands?$AA@
  00ec0	89 86 74 0b 00
	00		 mov	 DWORD PTR [esi+2932], eax
  00ec6	ff d7		 call	 edi

; 179  : 	this->m_Data[COMMAND_READD].iMoney[0]       = GetPrivateProfileInt("Commands", "Command_ReAddPoints_NeedMoneyFree", NULL, COMMANDS_FILE);

  00ec8	68 00 00 00 00	 push	 OFFSET ??_C@_0CE@BMBMBCJB@?4?2Customs?2Commands?2Hgt_Commands?4@
  00ecd	6a 00		 push	 0
  00ecf	68 00 00 00 00	 push	 OFFSET ??_C@_0CC@MAHHFLAM@Command_ReAddPoints_NeedMoneyFre@
  00ed4	68 00 00 00 00	 push	 OFFSET ??_C@_08JNEOMACB@Commands?$AA@
  00ed9	89 86 78 0b 00
	00		 mov	 DWORD PTR [esi+2936], eax
  00edf	ff d7		 call	 edi

; 180  : 	this->m_Data[COMMAND_READD].iMoney[1]       = GetPrivateProfileInt("Commands", "Command_ReAddPoints_NeedMoneyVip1", NULL, COMMANDS_FILE);

  00ee1	68 00 00 00 00	 push	 OFFSET ??_C@_0CE@BMBMBCJB@?4?2Customs?2Commands?2Hgt_Commands?4@
  00ee6	6a 00		 push	 0
  00ee8	68 00 00 00 00	 push	 OFFSET ??_C@_0CC@ODLFOFNL@Command_ReAddPoints_NeedMoneyVip@
  00eed	68 00 00 00 00	 push	 OFFSET ??_C@_08JNEOMACB@Commands?$AA@
  00ef2	89 86 7c 0b 00
	00		 mov	 DWORD PTR [esi+2940], eax
  00ef8	ff d7		 call	 edi

; 181  : 	this->m_Data[COMMAND_READD].iMoney[2]       = GetPrivateProfileInt("Commands", "Command_ReAddPoints_NeedMoneyVip2", NULL, COMMANDS_FILE);

  00efa	68 00 00 00 00	 push	 OFFSET ??_C@_0CE@BMBMBCJB@?4?2Customs?2Commands?2Hgt_Commands?4@
  00eff	6a 00		 push	 0
  00f01	68 00 00 00 00	 push	 OFFSET ??_C@_0CC@MIJILGBI@Command_ReAddPoints_NeedMoneyVip@
  00f06	68 00 00 00 00	 push	 OFFSET ??_C@_08JNEOMACB@Commands?$AA@
  00f0b	89 86 80 0b 00
	00		 mov	 DWORD PTR [esi+2944], eax
  00f11	ff d7		 call	 edi

; 182  : 	this->m_Data[COMMAND_READD].iMoney[3]       = GetPrivateProfileInt("Commands", "Command_ReAddPoints_NeedMoneyVip3", NULL, COMMANDS_FILE);

  00f13	68 00 00 00 00	 push	 OFFSET ??_C@_0CE@BMBMBCJB@?4?2Customs?2Commands?2Hgt_Commands?4@
  00f18	6a 00		 push	 0
  00f1a	68 00 00 00 00	 push	 OFFSET ??_C@_0CC@NBIDIHFJ@Command_ReAddPoints_NeedMoneyVip@
  00f1f	68 00 00 00 00	 push	 OFFSET ??_C@_08JNEOMACB@Commands?$AA@
  00f24	89 86 84 0b 00
	00		 mov	 DWORD PTR [esi+2948], eax
  00f2a	ff d7		 call	 edi
  00f2c	89 86 88 0b 00
	00		 mov	 DWORD PTR [esi+2952], eax

; 183  : 	this->m_Data[COMMAND_READD].iResets[0]		= GetPrivateProfileInt("Commands", "Command_ReAddPoints_NeedResetsFree", NULL, COMMANDS_FILE);

  00f32	68 00 00 00 00	 push	 OFFSET ??_C@_0CE@BMBMBCJB@?4?2Customs?2Commands?2Hgt_Commands?4@
  00f37	6a 00		 push	 0
  00f39	68 00 00 00 00	 push	 OFFSET ??_C@_0CD@MKFACHMO@Command_ReAddPoints_NeedResetsFr@
  00f3e	68 00 00 00 00	 push	 OFFSET ??_C@_08JNEOMACB@Commands?$AA@
  00f43	ff d7		 call	 edi

; 184  : 	this->m_Data[COMMAND_READD].iResets[1]		= GetPrivateProfileInt("Commands", "Command_ReAddPoints_NeedResetsVip1", NULL, COMMANDS_FILE);

  00f45	68 00 00 00 00	 push	 OFFSET ??_C@_0CE@BMBMBCJB@?4?2Customs?2Commands?2Hgt_Commands?4@
  00f4a	6a 00		 push	 0
  00f4c	68 00 00 00 00	 push	 OFFSET ??_C@_0CD@OJJCJJBJ@Command_ReAddPoints_NeedResetsVi@
  00f51	68 00 00 00 00	 push	 OFFSET ??_C@_08JNEOMACB@Commands?$AA@
  00f56	89 86 8c 0b 00
	00		 mov	 DWORD PTR [esi+2956], eax
  00f5c	ff d7		 call	 edi

; 185  : 	this->m_Data[COMMAND_READD].iResets[2]		= GetPrivateProfileInt("Commands", "Command_ReAddPoints_NeedResetsVip2", NULL, COMMANDS_FILE);

  00f5e	68 00 00 00 00	 push	 OFFSET ??_C@_0CE@BMBMBCJB@?4?2Customs?2Commands?2Hgt_Commands?4@
  00f63	6a 00		 push	 0
  00f65	68 00 00 00 00	 push	 OFFSET ??_C@_0CD@MCLPMKNK@Command_ReAddPoints_NeedResetsVi@
  00f6a	68 00 00 00 00	 push	 OFFSET ??_C@_08JNEOMACB@Commands?$AA@
  00f6f	89 86 90 0b 00
	00		 mov	 DWORD PTR [esi+2960], eax
  00f75	ff d7		 call	 edi

; 186  : 	this->m_Data[COMMAND_READD].iResets[3]		= GetPrivateProfileInt("Commands", "Command_ReAddPoints_NeedResetsVip3", NULL, COMMANDS_FILE);

  00f77	68 00 00 00 00	 push	 OFFSET ??_C@_0CE@BMBMBCJB@?4?2Customs?2Commands?2Hgt_Commands?4@
  00f7c	6a 00		 push	 0
  00f7e	68 00 00 00 00	 push	 OFFSET ??_C@_0CD@NLKEPLJL@Command_ReAddPoints_NeedResetsVi@
  00f83	68 00 00 00 00	 push	 OFFSET ??_C@_08JNEOMACB@Commands?$AA@
  00f88	89 86 94 0b 00
	00		 mov	 DWORD PTR [esi+2964], eax
  00f8e	ff d7		 call	 edi

; 187  : 	this->m_Data[COMMAND_READD].iMResets[0]		= GetPrivateProfileInt("Commands", "Command_ReAddPoints_NeedMasterResetsFree", NULL, COMMANDS_FILE);

  00f90	68 00 00 00 00	 push	 OFFSET ??_C@_0CE@BMBMBCJB@?4?2Customs?2Commands?2Hgt_Commands?4@
  00f95	6a 00		 push	 0
  00f97	68 00 00 00 00	 push	 OFFSET ??_C@_0CJ@NCFIFGEC@Command_ReAddPoints_NeedMasterRe@
  00f9c	68 00 00 00 00	 push	 OFFSET ??_C@_08JNEOMACB@Commands?$AA@
  00fa1	89 86 98 0b 00
	00		 mov	 DWORD PTR [esi+2968], eax
  00fa7	ff d7		 call	 edi

; 188  : 	this->m_Data[COMMAND_READD].iMResets[1]		= GetPrivateProfileInt("Commands", "Command_ReAddPoints_NeedMasterResetsVip1", NULL, COMMANDS_FILE);

  00fa9	68 00 00 00 00	 push	 OFFSET ??_C@_0CE@BMBMBCJB@?4?2Customs?2Commands?2Hgt_Commands?4@
  00fae	6a 00		 push	 0
  00fb0	68 00 00 00 00	 push	 OFFSET ??_C@_0CJ@PBJKOIJF@Command_ReAddPoints_NeedMasterRe@
  00fb5	68 00 00 00 00	 push	 OFFSET ??_C@_08JNEOMACB@Commands?$AA@
  00fba	89 86 9c 0b 00
	00		 mov	 DWORD PTR [esi+2972], eax
  00fc0	ff d7		 call	 edi

; 189  : 	this->m_Data[COMMAND_READD].iMResets[2]		= GetPrivateProfileInt("Commands", "Command_ReAddPoints_NeedMasterResetsVip2", NULL, COMMANDS_FILE);

  00fc2	68 00 00 00 00	 push	 OFFSET ??_C@_0CE@BMBMBCJB@?4?2Customs?2Commands?2Hgt_Commands?4@
  00fc7	6a 00		 push	 0
  00fc9	68 00 00 00 00	 push	 OFFSET ??_C@_0CJ@NKLHLLFG@Command_ReAddPoints_NeedMasterRe@
  00fce	68 00 00 00 00	 push	 OFFSET ??_C@_08JNEOMACB@Commands?$AA@
  00fd3	89 86 a0 0b 00
	00		 mov	 DWORD PTR [esi+2976], eax
  00fd9	ff d7		 call	 edi

; 190  : 	this->m_Data[COMMAND_READD].iMResets[3]		= GetPrivateProfileInt("Commands", "Command_ReAddPoints_NeedMasterResetsVip3", NULL, COMMANDS_FILE);

  00fdb	68 00 00 00 00	 push	 OFFSET ??_C@_0CE@BMBMBCJB@?4?2Customs?2Commands?2Hgt_Commands?4@
  00fe0	6a 00		 push	 0
  00fe2	68 00 00 00 00	 push	 OFFSET ??_C@_0CJ@MDKMIKBH@Command_ReAddPoints_NeedMasterRe@
  00fe7	68 00 00 00 00	 push	 OFFSET ??_C@_08JNEOMACB@Commands?$AA@
  00fec	89 86 a4 0b 00
	00		 mov	 DWORD PTR [esi+2980], eax
  00ff2	ff d7		 call	 edi

; 191  : 	// ---
; 192  : 	GetPrivateProfileString("Commands", "Command_Warehouse_Sintax", NULL, this->m_Data[COMMAND_WARE].szSintax, sizeof(this->m_Data[COMMAND_WARE].szSintax), COMMANDS_FILE);

  00ff4	68 00 00 00 00	 push	 OFFSET ??_C@_0CE@BMBMBCJB@?4?2Customs?2Commands?2Hgt_Commands?4@
  00ff9	6a 14		 push	 20			; 00000014H
  00ffb	89 86 a8 0b 00
	00		 mov	 DWORD PTR [esi+2984], eax
  01001	8d 86 94 0d 00
	00		 lea	 eax, DWORD PTR [esi+3476]
  01007	50		 push	 eax
  01008	6a 00		 push	 0
  0100a	68 00 00 00 00	 push	 OFFSET ??_C@_0BJ@KJFKOJCI@Command_Warehouse_Sintax?$AA@
  0100f	68 00 00 00 00	 push	 OFFSET ??_C@_08JNEOMACB@Commands?$AA@
  01014	ff d3		 call	 ebx

; 193  : 	// ---
; 194  : 	this->m_Data[COMMAND_WARE].iEnabled				= GetPrivateProfileInt("Commands", "Command_Warehouse_Enabled", NULL, COMMANDS_FILE);

  01016	68 00 00 00 00	 push	 OFFSET ??_C@_0CE@BMBMBCJB@?4?2Customs?2Commands?2Hgt_Commands?4@
  0101b	6a 00		 push	 0
  0101d	68 00 00 00 00	 push	 OFFSET ??_C@_0BK@LDJMGCJL@Command_Warehouse_Enabled?$AA@
  01022	68 00 00 00 00	 push	 OFFSET ??_C@_08JNEOMACB@Commands?$AA@
  01027	ff d7		 call	 edi

; 195  : 	this->m_Data[COMMAND_WARE].iVipOnly[0]			= GetPrivateProfileInt("Commands", "Command_Warehouse_SwitchFree", NULL, COMMANDS_FILE);

  01029	68 00 00 00 00	 push	 OFFSET ??_C@_0CE@BMBMBCJB@?4?2Customs?2Commands?2Hgt_Commands?4@
  0102e	6a 00		 push	 0
  01030	85 c0		 test	 eax, eax
  01032	68 00 00 00 00	 push	 OFFSET ??_C@_0BN@KFLHFOJL@Command_Warehouse_SwitchFree?$AA@
  01037	0f 95 c1	 setne	 cl
  0103a	68 00 00 00 00	 push	 OFFSET ??_C@_08JNEOMACB@Commands?$AA@
  0103f	88 8e 3c 0d 00
	00		 mov	 BYTE PTR [esi+3388], cl
  01045	ff d7		 call	 edi

; 196  : 	this->m_Data[COMMAND_WARE].iVipOnly[1]			= GetPrivateProfileInt("Commands", "Command_Warehouse_SwitchVip1", NULL, COMMANDS_FILE);

  01047	68 00 00 00 00	 push	 OFFSET ??_C@_0CE@BMBMBCJB@?4?2Customs?2Commands?2Hgt_Commands?4@
  0104c	6a 00		 push	 0
  0104e	68 00 00 00 00	 push	 OFFSET ??_C@_0BN@IGHFOAEM@Command_Warehouse_SwitchVip1?$AA@
  01053	68 00 00 00 00	 push	 OFFSET ??_C@_08JNEOMACB@Commands?$AA@
  01058	89 86 40 0d 00
	00		 mov	 DWORD PTR [esi+3392], eax
  0105e	ff d7		 call	 edi

; 197  : 	this->m_Data[COMMAND_WARE].iVipOnly[2]			= GetPrivateProfileInt("Commands", "Command_Warehouse_SwitchVip2", NULL, COMMANDS_FILE);

  01060	68 00 00 00 00	 push	 OFFSET ??_C@_0CE@BMBMBCJB@?4?2Customs?2Commands?2Hgt_Commands?4@
  01065	6a 00		 push	 0
  01067	68 00 00 00 00	 push	 OFFSET ??_C@_0BN@KNFILDIP@Command_Warehouse_SwitchVip2?$AA@
  0106c	68 00 00 00 00	 push	 OFFSET ??_C@_08JNEOMACB@Commands?$AA@
  01071	89 86 44 0d 00
	00		 mov	 DWORD PTR [esi+3396], eax
  01077	ff d7		 call	 edi

; 198  : 	this->m_Data[COMMAND_WARE].iVipOnly[3]			= GetPrivateProfileInt("Commands", "Command_Warehouse_SwitchVip3", NULL, COMMANDS_FILE);

  01079	68 00 00 00 00	 push	 OFFSET ??_C@_0CE@BMBMBCJB@?4?2Customs?2Commands?2Hgt_Commands?4@
  0107e	6a 00		 push	 0
  01080	68 00 00 00 00	 push	 OFFSET ??_C@_0BN@LEEDICMO@Command_Warehouse_SwitchVip3?$AA@
  01085	68 00 00 00 00	 push	 OFFSET ??_C@_08JNEOMACB@Commands?$AA@
  0108a	89 86 48 0d 00
	00		 mov	 DWORD PTR [esi+3400], eax
  01090	ff d7		 call	 edi

; 199  : 	this->m_Data[COMMAND_WARE].iLevel[0]			= GetPrivateProfileInt("Commands", "Command_Warehouse_NeedLevelFree", NULL, COMMANDS_FILE);

  01092	68 00 00 00 00	 push	 OFFSET ??_C@_0CE@BMBMBCJB@?4?2Customs?2Commands?2Hgt_Commands?4@
  01097	6a 00		 push	 0
  01099	68 00 00 00 00	 push	 OFFSET ??_C@_0CA@HAPHGDLI@Command_Warehouse_NeedLevelFree?$AA@
  0109e	68 00 00 00 00	 push	 OFFSET ??_C@_08JNEOMACB@Commands?$AA@
  010a3	89 86 4c 0d 00
	00		 mov	 DWORD PTR [esi+3404], eax
  010a9	ff d7		 call	 edi

; 200  : 	this->m_Data[COMMAND_WARE].iLevel[1]			= GetPrivateProfileInt("Commands", "Command_Warehouse_NeedLevelVip1", NULL, COMMANDS_FILE);

  010ab	68 00 00 00 00	 push	 OFFSET ??_C@_0CE@BMBMBCJB@?4?2Customs?2Commands?2Hgt_Commands?4@
  010b0	6a 00		 push	 0
  010b2	68 00 00 00 00	 push	 OFFSET ??_C@_0CA@FDDFNNGP@Command_Warehouse_NeedLevelVip1?$AA@
  010b7	68 00 00 00 00	 push	 OFFSET ??_C@_08JNEOMACB@Commands?$AA@
  010bc	89 86 50 0d 00
	00		 mov	 DWORD PTR [esi+3408], eax
  010c2	ff d7		 call	 edi

; 201  : 	this->m_Data[COMMAND_WARE].iLevel[2]			= GetPrivateProfileInt("Commands", "Command_Warehouse_NeedLevelVip2", NULL, COMMANDS_FILE);

  010c4	68 00 00 00 00	 push	 OFFSET ??_C@_0CE@BMBMBCJB@?4?2Customs?2Commands?2Hgt_Commands?4@
  010c9	6a 00		 push	 0
  010cb	68 00 00 00 00	 push	 OFFSET ??_C@_0CA@HIBIIOKM@Command_Warehouse_NeedLevelVip2?$AA@
  010d0	68 00 00 00 00	 push	 OFFSET ??_C@_08JNEOMACB@Commands?$AA@
  010d5	89 86 54 0d 00
	00		 mov	 DWORD PTR [esi+3412], eax
  010db	ff d7		 call	 edi

; 202  : 	this->m_Data[COMMAND_WARE].iLevel[3]			= GetPrivateProfileInt("Commands", "Command_Warehouse_NeedLevelVip3", NULL, COMMANDS_FILE);

  010dd	68 00 00 00 00	 push	 OFFSET ??_C@_0CE@BMBMBCJB@?4?2Customs?2Commands?2Hgt_Commands?4@
  010e2	6a 00		 push	 0
  010e4	68 00 00 00 00	 push	 OFFSET ??_C@_0CA@GBADLPON@Command_Warehouse_NeedLevelVip3?$AA@
  010e9	68 00 00 00 00	 push	 OFFSET ??_C@_08JNEOMACB@Commands?$AA@
  010ee	89 86 58 0d 00
	00		 mov	 DWORD PTR [esi+3416], eax
  010f4	ff d7		 call	 edi

; 203  : 	this->m_Data[COMMAND_WARE].iMoney[0]			= GetPrivateProfileInt("Commands", "Command_Warehouse_NeedMoneyFree", NULL, COMMANDS_FILE);

  010f6	68 00 00 00 00	 push	 OFFSET ??_C@_0CE@BMBMBCJB@?4?2Customs?2Commands?2Hgt_Commands?4@
  010fb	6a 00		 push	 0
  010fd	68 00 00 00 00	 push	 OFFSET ??_C@_0CA@PGFODLKO@Command_Warehouse_NeedMoneyFree?$AA@
  01102	68 00 00 00 00	 push	 OFFSET ??_C@_08JNEOMACB@Commands?$AA@
  01107	89 86 5c 0d 00
	00		 mov	 DWORD PTR [esi+3420], eax
  0110d	ff d7		 call	 edi

; 204  : 	this->m_Data[COMMAND_WARE].iMoney[1]			= GetPrivateProfileInt("Commands", "Command_Warehouse_NeedMoneyVip1", NULL, COMMANDS_FILE);

  0110f	68 00 00 00 00	 push	 OFFSET ??_C@_0CE@BMBMBCJB@?4?2Customs?2Commands?2Hgt_Commands?4@
  01114	6a 00		 push	 0
  01116	68 00 00 00 00	 push	 OFFSET ??_C@_0CA@NFJMIFHJ@Command_Warehouse_NeedMoneyVip1?$AA@
  0111b	68 00 00 00 00	 push	 OFFSET ??_C@_08JNEOMACB@Commands?$AA@
  01120	89 86 60 0d 00
	00		 mov	 DWORD PTR [esi+3424], eax
  01126	ff d7		 call	 edi

; 205  : 	this->m_Data[COMMAND_WARE].iMoney[2]			= GetPrivateProfileInt("Commands", "Command_Warehouse_NeedMoneyVip2", NULL, COMMANDS_FILE);

  01128	68 00 00 00 00	 push	 OFFSET ??_C@_0CE@BMBMBCJB@?4?2Customs?2Commands?2Hgt_Commands?4@
  0112d	6a 00		 push	 0
  0112f	68 00 00 00 00	 push	 OFFSET ??_C@_0CA@POLBNGLK@Command_Warehouse_NeedMoneyVip2?$AA@
  01134	68 00 00 00 00	 push	 OFFSET ??_C@_08JNEOMACB@Commands?$AA@
  01139	89 86 64 0d 00
	00		 mov	 DWORD PTR [esi+3428], eax
  0113f	ff d7		 call	 edi

; 206  : 	this->m_Data[COMMAND_WARE].iMoney[3]			= GetPrivateProfileInt("Commands", "Command_Warehouse_NeedMoneyVip3", NULL, COMMANDS_FILE);

  01141	68 00 00 00 00	 push	 OFFSET ??_C@_0CE@BMBMBCJB@?4?2Customs?2Commands?2Hgt_Commands?4@
  01146	6a 00		 push	 0
  01148	68 00 00 00 00	 push	 OFFSET ??_C@_0CA@OHKKOHPL@Command_Warehouse_NeedMoneyVip3?$AA@
  0114d	68 00 00 00 00	 push	 OFFSET ??_C@_08JNEOMACB@Commands?$AA@
  01152	89 86 68 0d 00
	00		 mov	 DWORD PTR [esi+3432], eax
  01158	ff d7		 call	 edi

; 207  : 	this->m_Data[COMMAND_WARE].iResets[0]			= GetPrivateProfileInt("Commands", "Command_Warehouse_NeedResetsFree", NULL, COMMANDS_FILE);

  0115a	68 00 00 00 00	 push	 OFFSET ??_C@_0CE@BMBMBCJB@?4?2Customs?2Commands?2Hgt_Commands?4@
  0115f	6a 00		 push	 0
  01161	68 00 00 00 00	 push	 OFFSET ??_C@_0CB@PCLOMMGK@Command_Warehouse_NeedResetsFree@
  01166	68 00 00 00 00	 push	 OFFSET ??_C@_08JNEOMACB@Commands?$AA@
  0116b	89 86 6c 0d 00
	00		 mov	 DWORD PTR [esi+3436], eax
  01171	ff d7		 call	 edi

; 208  : 	this->m_Data[COMMAND_WARE].iResets[1]			= GetPrivateProfileInt("Commands", "Command_Warehouse_NeedResetsVip1", NULL, COMMANDS_FILE);

  01173	68 00 00 00 00	 push	 OFFSET ??_C@_0CE@BMBMBCJB@?4?2Customs?2Commands?2Hgt_Commands?4@
  01178	6a 00		 push	 0
  0117a	68 00 00 00 00	 push	 OFFSET ??_C@_0CB@NBHMHCLN@Command_Warehouse_NeedResetsVip1@
  0117f	68 00 00 00 00	 push	 OFFSET ??_C@_08JNEOMACB@Commands?$AA@
  01184	89 86 70 0d 00
	00		 mov	 DWORD PTR [esi+3440], eax
  0118a	ff d7		 call	 edi

; 209  : 	this->m_Data[COMMAND_WARE].iResets[2]			= GetPrivateProfileInt("Commands", "Command_Warehouse_NeedResetsVip2", NULL, COMMANDS_FILE);

  0118c	68 00 00 00 00	 push	 OFFSET ??_C@_0CE@BMBMBCJB@?4?2Customs?2Commands?2Hgt_Commands?4@
  01191	6a 00		 push	 0
  01193	68 00 00 00 00	 push	 OFFSET ??_C@_0CB@PKFBCBHO@Command_Warehouse_NeedResetsVip2@
  01198	68 00 00 00 00	 push	 OFFSET ??_C@_08JNEOMACB@Commands?$AA@
  0119d	89 86 74 0d 00
	00		 mov	 DWORD PTR [esi+3444], eax
  011a3	ff d7		 call	 edi

; 210  : 	this->m_Data[COMMAND_WARE].iResets[3]			= GetPrivateProfileInt("Commands", "Command_Warehouse_NeedResetsVip3", NULL, COMMANDS_FILE);

  011a5	68 00 00 00 00	 push	 OFFSET ??_C@_0CE@BMBMBCJB@?4?2Customs?2Commands?2Hgt_Commands?4@
  011aa	6a 00		 push	 0
  011ac	68 00 00 00 00	 push	 OFFSET ??_C@_0CB@ODEKBADP@Command_Warehouse_NeedResetsVip3@
  011b1	68 00 00 00 00	 push	 OFFSET ??_C@_08JNEOMACB@Commands?$AA@
  011b6	89 86 78 0d 00
	00		 mov	 DWORD PTR [esi+3448], eax
  011bc	ff d7		 call	 edi

; 211  : 	this->m_Data[COMMAND_WARE].iMResets[0]			= GetPrivateProfileInt("Commands", "Command_Warehouse_NeedMasterResetsFree", NULL, COMMANDS_FILE);

  011be	68 00 00 00 00	 push	 OFFSET ??_C@_0CE@BMBMBCJB@?4?2Customs?2Commands?2Hgt_Commands?4@
  011c3	89 86 7c 0d 00
	00		 mov	 DWORD PTR [esi+3452], eax
  011c9	6a 00		 push	 0
  011cb	68 00 00 00 00	 push	 OFFSET ??_C@_0CH@BDAJHBFH@Command_Warehouse_NeedMasterRese@
  011d0	68 00 00 00 00	 push	 OFFSET ??_C@_08JNEOMACB@Commands?$AA@
  011d5	ff d7		 call	 edi

; 212  : 	this->m_Data[COMMAND_WARE].iMResets[1]			= GetPrivateProfileInt("Commands", "Command_Warehouse_NeedMasterResetsVip1", NULL, COMMANDS_FILE);

  011d7	68 00 00 00 00	 push	 OFFSET ??_C@_0CE@BMBMBCJB@?4?2Customs?2Commands?2Hgt_Commands?4@
  011dc	6a 00		 push	 0
  011de	68 00 00 00 00	 push	 OFFSET ??_C@_0CH@DAMLMPIA@Command_Warehouse_NeedMasterRese@
  011e3	68 00 00 00 00	 push	 OFFSET ??_C@_08JNEOMACB@Commands?$AA@
  011e8	89 86 80 0d 00
	00		 mov	 DWORD PTR [esi+3456], eax
  011ee	ff d7		 call	 edi

; 213  : 	this->m_Data[COMMAND_WARE].iMResets[2]			= GetPrivateProfileInt("Commands", "Command_Warehouse_NeedMasterResetsVip2", NULL, COMMANDS_FILE);

  011f0	68 00 00 00 00	 push	 OFFSET ??_C@_0CE@BMBMBCJB@?4?2Customs?2Commands?2Hgt_Commands?4@
  011f5	6a 00		 push	 0
  011f7	68 00 00 00 00	 push	 OFFSET ??_C@_0CH@BLOGJMED@Command_Warehouse_NeedMasterRese@
  011fc	68 00 00 00 00	 push	 OFFSET ??_C@_08JNEOMACB@Commands?$AA@
  01201	89 86 84 0d 00
	00		 mov	 DWORD PTR [esi+3460], eax
  01207	ff d7		 call	 edi

; 214  : 	this->m_Data[COMMAND_WARE].iMResets[3]			= GetPrivateProfileInt("Commands", "Command_Warehouse_NeedMasterResetsVip3", NULL, COMMANDS_FILE);

  01209	68 00 00 00 00	 push	 OFFSET ??_C@_0CE@BMBMBCJB@?4?2Customs?2Commands?2Hgt_Commands?4@
  0120e	6a 00		 push	 0
  01210	68 00 00 00 00	 push	 OFFSET ??_C@_0CH@CPNKNAC@Command_Warehouse_NeedMasterRese@
  01215	68 00 00 00 00	 push	 OFFSET ??_C@_08JNEOMACB@Commands?$AA@
  0121a	89 86 88 0d 00
	00		 mov	 DWORD PTR [esi+3464], eax
  01220	ff d7		 call	 edi

; 215  : 	this->m_Data[COMMAND_WARE].iWareType			= GetPrivateProfileInt("Commands", "Command_Warehouse_WareType", NULL, COMMANDS_FILE);

  01222	68 00 00 00 00	 push	 OFFSET ??_C@_0CE@BMBMBCJB@?4?2Customs?2Commands?2Hgt_Commands?4@
  01227	6a 00		 push	 0
  01229	68 00 00 00 00	 push	 OFFSET ??_C@_0BL@PPHAJHDA@Command_Warehouse_WareType?$AA@
  0122e	68 00 00 00 00	 push	 OFFSET ??_C@_08JNEOMACB@Commands?$AA@
  01233	89 86 8c 0d 00
	00		 mov	 DWORD PTR [esi+3468], eax
  01239	ff d7		 call	 edi

; 216  : 	this->m_Data[COMMAND_WARE].iWareNumber[0]		= GetPrivateProfileInt("Commands", "Command_Warehouse_WareNumberFree", NULL, COMMANDS_FILE);

  0123b	68 00 00 00 00	 push	 OFFSET ??_C@_0CE@BMBMBCJB@?4?2Customs?2Commands?2Hgt_Commands?4@
  01240	6a 00		 push	 0
  01242	68 00 00 00 00	 push	 OFFSET ??_C@_0CB@GMKDCEHN@Command_Warehouse_WareNumberFree@
  01247	68 00 00 00 00	 push	 OFFSET ??_C@_08JNEOMACB@Commands?$AA@
  0124c	89 86 a8 0d 00
	00		 mov	 DWORD PTR [esi+3496], eax
  01252	ff d7		 call	 edi

; 217  : 	this->m_Data[COMMAND_WARE].iWareNumber[1]		= GetPrivateProfileInt("Commands", "Command_Warehouse_WareNumberVip1", NULL, COMMANDS_FILE);

  01254	68 00 00 00 00	 push	 OFFSET ??_C@_0CE@BMBMBCJB@?4?2Customs?2Commands?2Hgt_Commands?4@
  01259	6a 00		 push	 0
  0125b	68 00 00 00 00	 push	 OFFSET ??_C@_0CB@EPGBJKKK@Command_Warehouse_WareNumberVip1@
  01260	68 00 00 00 00	 push	 OFFSET ??_C@_08JNEOMACB@Commands?$AA@
  01265	89 86 ac 0d 00
	00		 mov	 DWORD PTR [esi+3500], eax
  0126b	ff d7		 call	 edi

; 218  : 	this->m_Data[COMMAND_WARE].iWareNumber[2]		= GetPrivateProfileInt("Commands", "Command_Warehouse_WareNumberVip2", NULL, COMMANDS_FILE);

  0126d	68 00 00 00 00	 push	 OFFSET ??_C@_0CE@BMBMBCJB@?4?2Customs?2Commands?2Hgt_Commands?4@
  01272	6a 00		 push	 0
  01274	68 00 00 00 00	 push	 OFFSET ??_C@_0CB@GEEMMJGJ@Command_Warehouse_WareNumberVip2@
  01279	68 00 00 00 00	 push	 OFFSET ??_C@_08JNEOMACB@Commands?$AA@
  0127e	89 86 b0 0d 00
	00		 mov	 DWORD PTR [esi+3504], eax
  01284	ff d7		 call	 edi

; 219  : 	this->m_Data[COMMAND_WARE].iWareNumber[3]		= GetPrivateProfileInt("Commands", "Command_Warehouse_WareNumberVip3", NULL, COMMANDS_FILE);

  01286	68 00 00 00 00	 push	 OFFSET ??_C@_0CE@BMBMBCJB@?4?2Customs?2Commands?2Hgt_Commands?4@
  0128b	6a 00		 push	 0
  0128d	68 00 00 00 00	 push	 OFFSET ??_C@_0CB@HNFHPICI@Command_Warehouse_WareNumberVip3@
  01292	68 00 00 00 00	 push	 OFFSET ??_C@_08JNEOMACB@Commands?$AA@
  01297	89 86 b4 0d 00
	00		 mov	 DWORD PTR [esi+3508], eax
  0129d	ff d7		 call	 edi

; 220  : 	this->m_Data[COMMAND_WARE].iDelay				= GetPrivateProfileInt("Commands", "Command_Warehouse_Delay", NULL, COMMANDS_FILE);

  0129f	68 00 00 00 00	 push	 OFFSET ??_C@_0CE@BMBMBCJB@?4?2Customs?2Commands?2Hgt_Commands?4@
  012a4	6a 00		 push	 0
  012a6	68 00 00 00 00	 push	 OFFSET ??_C@_0BI@FBEFGMIJ@Command_Warehouse_Delay?$AA@
  012ab	68 00 00 00 00	 push	 OFFSET ??_C@_08JNEOMACB@Commands?$AA@
  012b0	89 86 b8 0d 00
	00		 mov	 DWORD PTR [esi+3512], eax
  012b6	ff d7		 call	 edi

; 221  : 	// ---
; 222  : 	GetPrivateProfileString("Commands", "Command_OpenWarehouse_Sintax", NULL, this->m_Data[COMMAND_OPENWARE].szSintax, sizeof(this->m_Data[COMMAND_OPENWARE].szSintax), COMMANDS_FILE);

  012b8	68 00 00 00 00	 push	 OFFSET ??_C@_0CE@BMBMBCJB@?4?2Customs?2Commands?2Hgt_Commands?4@
  012bd	6a 14		 push	 20			; 00000014H
  012bf	8d 96 78 0f 00
	00		 lea	 edx, DWORD PTR [esi+3960]
  012c5	52		 push	 edx
  012c6	6a 00		 push	 0
  012c8	68 00 00 00 00	 push	 OFFSET ??_C@_0BN@JEHLHNK@Command_OpenWarehouse_Sintax?$AA@
  012cd	68 00 00 00 00	 push	 OFFSET ??_C@_08JNEOMACB@Commands?$AA@
  012d2	89 86 90 0d 00
	00		 mov	 DWORD PTR [esi+3472], eax
  012d8	ff d3		 call	 ebx

; 223  : 	// ---
; 224  : 	this->m_Data[COMMAND_OPENWARE].iEnabled        = GetPrivateProfileInt("Commands", "Command_OpenWarehouse_Enabled", NULL, COMMANDS_FILE);

  012da	68 00 00 00 00	 push	 OFFSET ??_C@_0CE@BMBMBCJB@?4?2Customs?2Commands?2Hgt_Commands?4@
  012df	6a 00		 push	 0
  012e1	68 00 00 00 00	 push	 OFFSET ??_C@_0BO@OAIPOMPF@Command_OpenWarehouse_Enabled?$AA@
  012e6	68 00 00 00 00	 push	 OFFSET ??_C@_08JNEOMACB@Commands?$AA@
  012eb	ff d7		 call	 edi

; 225  : 	this->m_Data[COMMAND_OPENWARE].iVipOnly[0]     = GetPrivateProfileInt("Commands", "Command_OpenWarehouse_SwitchFree", NULL, COMMANDS_FILE);

  012ed	68 00 00 00 00	 push	 OFFSET ??_C@_0CE@BMBMBCJB@?4?2Customs?2Commands?2Hgt_Commands?4@
  012f2	6a 00		 push	 0
  012f4	85 c0		 test	 eax, eax
  012f6	68 00 00 00 00	 push	 OFFSET ??_C@_0CB@MGEAEMPJ@Command_OpenWarehouse_SwitchFree@
  012fb	0f 95 c0	 setne	 al
  012fe	68 00 00 00 00	 push	 OFFSET ??_C@_08JNEOMACB@Commands?$AA@
  01303	88 86 20 0f 00
	00		 mov	 BYTE PTR [esi+3872], al
  01309	ff d7		 call	 edi
  0130b	89 86 24 0f 00
	00		 mov	 DWORD PTR [esi+3876], eax

; 226  : 	this->m_Data[COMMAND_OPENWARE].iVipOnly[1]     = GetPrivateProfileInt("Commands", "Command_OpenWarehouse_SwitchVip1", NULL, COMMANDS_FILE);

  01311	68 00 00 00 00	 push	 OFFSET ??_C@_0CE@BMBMBCJB@?4?2Customs?2Commands?2Hgt_Commands?4@
  01316	6a 00		 push	 0
  01318	68 00 00 00 00	 push	 OFFSET ??_C@_0CB@OFICPCCO@Command_OpenWarehouse_SwitchVip1@
  0131d	68 00 00 00 00	 push	 OFFSET ??_C@_08JNEOMACB@Commands?$AA@
  01322	ff d7		 call	 edi

; 227  : 	this->m_Data[COMMAND_OPENWARE].iVipOnly[2]     = GetPrivateProfileInt("Commands", "Command_OpenWarehouse_SwitchVip2", NULL, COMMANDS_FILE);

  01324	68 00 00 00 00	 push	 OFFSET ??_C@_0CE@BMBMBCJB@?4?2Customs?2Commands?2Hgt_Commands?4@
  01329	6a 00		 push	 0
  0132b	68 00 00 00 00	 push	 OFFSET ??_C@_0CB@MOKPKBON@Command_OpenWarehouse_SwitchVip2@
  01330	68 00 00 00 00	 push	 OFFSET ??_C@_08JNEOMACB@Commands?$AA@
  01335	89 86 28 0f 00
	00		 mov	 DWORD PTR [esi+3880], eax
  0133b	ff d7		 call	 edi

; 228  : 	this->m_Data[COMMAND_OPENWARE].iVipOnly[3]     = GetPrivateProfileInt("Commands", "Command_OpenWarehouse_SwitchVip3", NULL, COMMANDS_FILE);

  0133d	68 00 00 00 00	 push	 OFFSET ??_C@_0CE@BMBMBCJB@?4?2Customs?2Commands?2Hgt_Commands?4@
  01342	6a 00		 push	 0
  01344	68 00 00 00 00	 push	 OFFSET ??_C@_0CB@NHLEJAKM@Command_OpenWarehouse_SwitchVip3@
  01349	68 00 00 00 00	 push	 OFFSET ??_C@_08JNEOMACB@Commands?$AA@
  0134e	89 86 2c 0f 00
	00		 mov	 DWORD PTR [esi+3884], eax
  01354	ff d7		 call	 edi

; 229  : 	this->m_Data[COMMAND_OPENWARE].iLevel[0]       = GetPrivateProfileInt("Commands", "Command_OpenWarehouse_NeedLevelFree", NULL, COMMANDS_FILE);

  01356	68 00 00 00 00	 push	 OFFSET ??_C@_0CE@BMBMBCJB@?4?2Customs?2Commands?2Hgt_Commands?4@
  0135b	6a 00		 push	 0
  0135d	68 00 00 00 00	 push	 OFFSET ??_C@_0CE@GAIJGLPJ@Command_OpenWarehouse_NeedLevelF@
  01362	68 00 00 00 00	 push	 OFFSET ??_C@_08JNEOMACB@Commands?$AA@
  01367	89 86 30 0f 00
	00		 mov	 DWORD PTR [esi+3888], eax
  0136d	ff d7		 call	 edi

; 230  : 	this->m_Data[COMMAND_OPENWARE].iLevel[1]       = GetPrivateProfileInt("Commands", "Command_OpenWarehouse_NeedLevelVip1", NULL, COMMANDS_FILE);

  0136f	68 00 00 00 00	 push	 OFFSET ??_C@_0CE@BMBMBCJB@?4?2Customs?2Commands?2Hgt_Commands?4@
  01374	6a 00		 push	 0
  01376	68 00 00 00 00	 push	 OFFSET ??_C@_0CE@EDELNFCO@Command_OpenWarehouse_NeedLevelV@
  0137b	68 00 00 00 00	 push	 OFFSET ??_C@_08JNEOMACB@Commands?$AA@
  01380	89 86 34 0f 00
	00		 mov	 DWORD PTR [esi+3892], eax
  01386	ff d7		 call	 edi

; 231  : 	this->m_Data[COMMAND_OPENWARE].iLevel[2]       = GetPrivateProfileInt("Commands", "Command_OpenWarehouse_NeedLevelVip2", NULL, COMMANDS_FILE);

  01388	68 00 00 00 00	 push	 OFFSET ??_C@_0CE@BMBMBCJB@?4?2Customs?2Commands?2Hgt_Commands?4@
  0138d	6a 00		 push	 0
  0138f	68 00 00 00 00	 push	 OFFSET ??_C@_0CE@GIGGIGON@Command_OpenWarehouse_NeedLevelV@
  01394	68 00 00 00 00	 push	 OFFSET ??_C@_08JNEOMACB@Commands?$AA@
  01399	89 86 38 0f 00
	00		 mov	 DWORD PTR [esi+3896], eax
  0139f	ff d7		 call	 edi

; 232  : 	this->m_Data[COMMAND_OPENWARE].iLevel[3]       = GetPrivateProfileInt("Commands", "Command_OpenWarehouse_NeedLevelVip3", NULL, COMMANDS_FILE);

  013a1	68 00 00 00 00	 push	 OFFSET ??_C@_0CE@BMBMBCJB@?4?2Customs?2Commands?2Hgt_Commands?4@
  013a6	6a 00		 push	 0
  013a8	68 00 00 00 00	 push	 OFFSET ??_C@_0CE@HBHNLHKM@Command_OpenWarehouse_NeedLevelV@
  013ad	68 00 00 00 00	 push	 OFFSET ??_C@_08JNEOMACB@Commands?$AA@
  013b2	89 86 3c 0f 00
	00		 mov	 DWORD PTR [esi+3900], eax
  013b8	ff d7		 call	 edi

; 233  : 	this->m_Data[COMMAND_OPENWARE].iMoney[0]       = GetPrivateProfileInt("Commands", "Command_OpenWarehouse_NeedMoneyFree", NULL, COMMANDS_FILE);

  013ba	68 00 00 00 00	 push	 OFFSET ??_C@_0CE@BMBMBCJB@?4?2Customs?2Commands?2Hgt_Commands?4@
  013bf	6a 00		 push	 0
  013c1	68 00 00 00 00	 push	 OFFSET ??_C@_0CE@OGCADDOP@Command_OpenWarehouse_NeedMoneyF@
  013c6	68 00 00 00 00	 push	 OFFSET ??_C@_08JNEOMACB@Commands?$AA@
  013cb	89 86 40 0f 00
	00		 mov	 DWORD PTR [esi+3904], eax
  013d1	ff d7		 call	 edi

; 234  : 	this->m_Data[COMMAND_OPENWARE].iMoney[1]       = GetPrivateProfileInt("Commands", "Command_OpenWarehouse_NeedMoneyVip1", NULL, COMMANDS_FILE);

  013d3	68 00 00 00 00	 push	 OFFSET ??_C@_0CE@BMBMBCJB@?4?2Customs?2Commands?2Hgt_Commands?4@
  013d8	6a 00		 push	 0
  013da	68 00 00 00 00	 push	 OFFSET ??_C@_0CE@MFOCINDI@Command_OpenWarehouse_NeedMoneyV@
  013df	68 00 00 00 00	 push	 OFFSET ??_C@_08JNEOMACB@Commands?$AA@
  013e4	89 86 44 0f 00
	00		 mov	 DWORD PTR [esi+3908], eax
  013ea	ff d7		 call	 edi

; 235  : 	this->m_Data[COMMAND_OPENWARE].iMoney[2]       = GetPrivateProfileInt("Commands", "Command_OpenWarehouse_NeedMoneyVip2", NULL, COMMANDS_FILE);

  013ec	68 00 00 00 00	 push	 OFFSET ??_C@_0CE@BMBMBCJB@?4?2Customs?2Commands?2Hgt_Commands?4@
  013f1	6a 00		 push	 0
  013f3	68 00 00 00 00	 push	 OFFSET ??_C@_0CE@OOMPNOPL@Command_OpenWarehouse_NeedMoneyV@
  013f8	68 00 00 00 00	 push	 OFFSET ??_C@_08JNEOMACB@Commands?$AA@
  013fd	89 86 48 0f 00
	00		 mov	 DWORD PTR [esi+3912], eax
  01403	ff d7		 call	 edi

; 236  : 	this->m_Data[COMMAND_OPENWARE].iMoney[3]       = GetPrivateProfileInt("Commands", "Command_OpenWarehouse_NeedMoneyVip3", NULL, COMMANDS_FILE);

  01405	68 00 00 00 00	 push	 OFFSET ??_C@_0CE@BMBMBCJB@?4?2Customs?2Commands?2Hgt_Commands?4@
  0140a	6a 00		 push	 0
  0140c	68 00 00 00 00	 push	 OFFSET ??_C@_0CE@PHNEOPLK@Command_OpenWarehouse_NeedMoneyV@
  01411	68 00 00 00 00	 push	 OFFSET ??_C@_08JNEOMACB@Commands?$AA@
  01416	89 86 4c 0f 00
	00		 mov	 DWORD PTR [esi+3916], eax
  0141c	ff d7		 call	 edi

; 237  : 	this->m_Data[COMMAND_OPENWARE].iResets[0]		= GetPrivateProfileInt("Commands", "Command_OpenWarehouse_NeedResetsFree", NULL, COMMANDS_FILE);

  0141e	68 00 00 00 00	 push	 OFFSET ??_C@_0CE@BMBMBCJB@?4?2Customs?2Commands?2Hgt_Commands?4@
  01423	6a 00		 push	 0
  01425	68 00 00 00 00	 push	 OFFSET ??_C@_0CF@PDHFMDGE@Command_OpenWarehouse_NeedResets@
  0142a	68 00 00 00 00	 push	 OFFSET ??_C@_08JNEOMACB@Commands?$AA@
  0142f	89 86 50 0f 00
	00		 mov	 DWORD PTR [esi+3920], eax
  01435	ff d7		 call	 edi

; 238  : 	this->m_Data[COMMAND_OPENWARE].iResets[1]		= GetPrivateProfileInt("Commands", "Command_OpenWarehouse_NeedResetsVip1", NULL, COMMANDS_FILE);

  01437	68 00 00 00 00	 push	 OFFSET ??_C@_0CE@BMBMBCJB@?4?2Customs?2Commands?2Hgt_Commands?4@
  0143c	6a 00		 push	 0
  0143e	68 00 00 00 00	 push	 OFFSET ??_C@_0CF@NALHHNLD@Command_OpenWarehouse_NeedResets@
  01443	68 00 00 00 00	 push	 OFFSET ??_C@_08JNEOMACB@Commands?$AA@
  01448	89 86 54 0f 00
	00		 mov	 DWORD PTR [esi+3924], eax
  0144e	ff d7		 call	 edi

; 239  : 	this->m_Data[COMMAND_OPENWARE].iResets[2]		= GetPrivateProfileInt("Commands", "Command_OpenWarehouse_NeedResetsVip2", NULL, COMMANDS_FILE);

  01450	68 00 00 00 00	 push	 OFFSET ??_C@_0CE@BMBMBCJB@?4?2Customs?2Commands?2Hgt_Commands?4@
  01455	6a 00		 push	 0
  01457	68 00 00 00 00	 push	 OFFSET ??_C@_0CF@PLJKCOHA@Command_OpenWarehouse_NeedResets@
  0145c	89 86 58 0f 00
	00		 mov	 DWORD PTR [esi+3928], eax
  01462	68 00 00 00 00	 push	 OFFSET ??_C@_08JNEOMACB@Commands?$AA@
  01467	ff d7		 call	 edi

; 240  : 	this->m_Data[COMMAND_OPENWARE].iResets[3]		= GetPrivateProfileInt("Commands", "Command_OpenWarehouse_NeedResetsVip3", NULL, COMMANDS_FILE);

  01469	68 00 00 00 00	 push	 OFFSET ??_C@_0CE@BMBMBCJB@?4?2Customs?2Commands?2Hgt_Commands?4@
  0146e	6a 00		 push	 0
  01470	68 00 00 00 00	 push	 OFFSET ??_C@_0CF@OCIBBPDB@Command_OpenWarehouse_NeedResets@
  01475	68 00 00 00 00	 push	 OFFSET ??_C@_08JNEOMACB@Commands?$AA@
  0147a	89 86 5c 0f 00
	00		 mov	 DWORD PTR [esi+3932], eax
  01480	ff d7		 call	 edi

; 241  : 	this->m_Data[COMMAND_OPENWARE].iMResets[0]		= GetPrivateProfileInt("Commands", "Command_OpenWarehouse_NeedMasterResetsFree", NULL, COMMANDS_FILE);

  01482	68 00 00 00 00	 push	 OFFSET ??_C@_0CE@BMBMBCJB@?4?2Customs?2Commands?2Hgt_Commands?4@
  01487	6a 00		 push	 0
  01489	68 00 00 00 00	 push	 OFFSET ??_C@_0CL@LNNIEMG@Command_OpenWarehouse_NeedMaster@
  0148e	68 00 00 00 00	 push	 OFFSET ??_C@_08JNEOMACB@Commands?$AA@
  01493	89 86 60 0f 00
	00		 mov	 DWORD PTR [esi+3936], eax
  01499	ff d7		 call	 edi

; 242  : 	this->m_Data[COMMAND_OPENWARE].iMResets[1]		= GetPrivateProfileInt("Commands", "Command_OpenWarehouse_NeedMasterResetsVip1", NULL, COMMANDS_FILE);

  0149b	68 00 00 00 00	 push	 OFFSET ??_C@_0CE@BMBMBCJB@?4?2Customs?2Commands?2Hgt_Commands?4@
  014a0	6a 00		 push	 0
  014a2	68 00 00 00 00	 push	 OFFSET ??_C@_0CL@CIBPDKBB@Command_OpenWarehouse_NeedMaster@
  014a7	68 00 00 00 00	 push	 OFFSET ??_C@_08JNEOMACB@Commands?$AA@
  014ac	89 86 64 0f 00
	00		 mov	 DWORD PTR [esi+3940], eax
  014b2	ff d7		 call	 edi

; 243  : 	this->m_Data[COMMAND_OPENWARE].iMResets[2]		= GetPrivateProfileInt("Commands", "Command_OpenWarehouse_NeedMasterResetsVip2", NULL, COMMANDS_FILE);

  014b4	68 00 00 00 00	 push	 OFFSET ??_C@_0CE@BMBMBCJB@?4?2Customs?2Commands?2Hgt_Commands?4@
  014b9	6a 00		 push	 0
  014bb	68 00 00 00 00	 push	 OFFSET ??_C@_0CL@DDCGJNC@Command_OpenWarehouse_NeedMaster@
  014c0	68 00 00 00 00	 push	 OFFSET ??_C@_08JNEOMACB@Commands?$AA@
  014c5	89 86 68 0f 00
	00		 mov	 DWORD PTR [esi+3944], eax
  014cb	ff d7		 call	 edi

; 244  : 	this->m_Data[COMMAND_OPENWARE].iMResets[3]		= GetPrivateProfileInt("Commands", "Command_OpenWarehouse_NeedMasterResetsVip3", NULL, COMMANDS_FILE);

  014cd	68 00 00 00 00	 push	 OFFSET ??_C@_0CE@BMBMBCJB@?4?2Customs?2Commands?2Hgt_Commands?4@
  014d2	6a 00		 push	 0
  014d4	68 00 00 00 00	 push	 OFFSET ??_C@_0CL@BKCJFIJD@Command_OpenWarehouse_NeedMaster@
  014d9	68 00 00 00 00	 push	 OFFSET ??_C@_08JNEOMACB@Commands?$AA@
  014de	89 86 6c 0f 00
	00		 mov	 DWORD PTR [esi+3948], eax
  014e4	ff d7		 call	 edi

; 245  : 	this->m_Data[COMMAND_OPENWARE].iDelay			= GetPrivateProfileInt("Commands", "Command_OpenWarehouse_Delay", NULL, COMMANDS_FILE);

  014e6	68 00 00 00 00	 push	 OFFSET ??_C@_0CE@BMBMBCJB@?4?2Customs?2Commands?2Hgt_Commands?4@
  014eb	6a 00		 push	 0
  014ed	68 00 00 00 00	 push	 OFFSET ??_C@_0BM@EGPJOGGJ@Command_OpenWarehouse_Delay?$AA@
  014f2	68 00 00 00 00	 push	 OFFSET ??_C@_08JNEOMACB@Commands?$AA@
  014f7	89 86 70 0f 00
	00		 mov	 DWORD PTR [esi+3952], eax
  014fd	ff d7		 call	 edi

; 246  : 	// ---
; 247  : 	GetPrivateProfileString("Commands", "Command_WarehouseInfo_Sintax", NULL, this->m_Data[COMMAND_WAREINFO].szSintax, sizeof(this->m_Data[COMMAND_WAREINFO].szSintax), COMMANDS_FILE);

  014ff	68 00 00 00 00	 push	 OFFSET ??_C@_0CE@BMBMBCJB@?4?2Customs?2Commands?2Hgt_Commands?4@
  01504	6a 14		 push	 20			; 00000014H
  01506	8d 8e 5c 11 00
	00		 lea	 ecx, DWORD PTR [esi+4444]
  0150c	51		 push	 ecx
  0150d	6a 00		 push	 0
  0150f	68 00 00 00 00	 push	 OFFSET ??_C@_0BN@PFIGHEOO@Command_WarehouseInfo_Sintax?$AA@
  01514	68 00 00 00 00	 push	 OFFSET ??_C@_08JNEOMACB@Commands?$AA@
  01519	89 86 74 0f 00
	00		 mov	 DWORD PTR [esi+3956], eax
  0151f	ff d3		 call	 ebx

; 248  : 	// ---
; 249  : 	this->m_Data[COMMAND_WAREINFO].iEnabled        = GetPrivateProfileInt("Commands", "Command_WarehouseInfo_Enabled", NULL, COMMANDS_FILE);

  01521	68 00 00 00 00	 push	 OFFSET ??_C@_0CE@BMBMBCJB@?4?2Customs?2Commands?2Hgt_Commands?4@
  01526	6a 00		 push	 0
  01528	68 00 00 00 00	 push	 OFFSET ??_C@_0BO@MBMHNJID@Command_WarehouseInfo_Enabled?$AA@
  0152d	68 00 00 00 00	 push	 OFFSET ??_C@_08JNEOMACB@Commands?$AA@
  01532	ff d7		 call	 edi

; 250  : 	this->m_Data[COMMAND_WAREINFO].iVipOnly[0]     = GetPrivateProfileInt("Commands", "Command_WarehouseInfo_SwitchFree", NULL, COMMANDS_FILE);

  01534	68 00 00 00 00	 push	 OFFSET ??_C@_0CE@BMBMBCJB@?4?2Customs?2Commands?2Hgt_Commands?4@
  01539	6a 00		 push	 0
  0153b	85 c0		 test	 eax, eax
  0153d	68 00 00 00 00	 push	 OFFSET ??_C@_0CB@EMAKFDCO@Command_WarehouseInfo_SwitchFree@
  01542	0f 95 c2	 setne	 dl
  01545	68 00 00 00 00	 push	 OFFSET ??_C@_08JNEOMACB@Commands?$AA@
  0154a	88 96 04 11 00
	00		 mov	 BYTE PTR [esi+4356], dl
  01550	ff d7		 call	 edi

; 251  : 	this->m_Data[COMMAND_WAREINFO].iVipOnly[1]     = GetPrivateProfileInt("Commands", "Command_WarehouseInfo_SwitchVip1", NULL, COMMANDS_FILE);

  01552	68 00 00 00 00	 push	 OFFSET ??_C@_0CE@BMBMBCJB@?4?2Customs?2Commands?2Hgt_Commands?4@
  01557	6a 00		 push	 0
  01559	68 00 00 00 00	 push	 OFFSET ??_C@_0CB@GPMIONPJ@Command_WarehouseInfo_SwitchVip1@
  0155e	68 00 00 00 00	 push	 OFFSET ??_C@_08JNEOMACB@Commands?$AA@
  01563	89 86 08 11 00
	00		 mov	 DWORD PTR [esi+4360], eax
  01569	ff d7		 call	 edi

; 252  : 	this->m_Data[COMMAND_WAREINFO].iVipOnly[2]     = GetPrivateProfileInt("Commands", "Command_WarehouseInfo_SwitchVip2", NULL, COMMANDS_FILE);

  0156b	68 00 00 00 00	 push	 OFFSET ??_C@_0CE@BMBMBCJB@?4?2Customs?2Commands?2Hgt_Commands?4@
  01570	6a 00		 push	 0
  01572	68 00 00 00 00	 push	 OFFSET ??_C@_0CB@EEOFLODK@Command_WarehouseInfo_SwitchVip2@
  01577	68 00 00 00 00	 push	 OFFSET ??_C@_08JNEOMACB@Commands?$AA@
  0157c	89 86 0c 11 00
	00		 mov	 DWORD PTR [esi+4364], eax
  01582	ff d7		 call	 edi

; 253  : 	this->m_Data[COMMAND_WAREINFO].iVipOnly[3]     = GetPrivateProfileInt("Commands", "Command_WarehouseInfo_SwitchVip3", NULL, COMMANDS_FILE);

  01584	68 00 00 00 00	 push	 OFFSET ??_C@_0CE@BMBMBCJB@?4?2Customs?2Commands?2Hgt_Commands?4@
  01589	6a 00		 push	 0
  0158b	68 00 00 00 00	 push	 OFFSET ??_C@_0CB@FNPOIPHL@Command_WarehouseInfo_SwitchVip3@
  01590	68 00 00 00 00	 push	 OFFSET ??_C@_08JNEOMACB@Commands?$AA@
  01595	89 86 10 11 00
	00		 mov	 DWORD PTR [esi+4368], eax
  0159b	ff d7		 call	 edi

; 254  : 	this->m_Data[COMMAND_WAREINFO].iLevel[0]       = GetPrivateProfileInt("Commands", "Command_WarehouseInfo_NeedLevelFree", NULL, COMMANDS_FILE);

  0159d	68 00 00 00 00	 push	 OFFSET ??_C@_0CE@BMBMBCJB@?4?2Customs?2Commands?2Hgt_Commands?4@
  015a2	6a 00		 push	 0
  015a4	89 86 14 11 00
	00		 mov	 DWORD PTR [esi+4372], eax
  015aa	68 00 00 00 00	 push	 OFFSET ??_C@_0CE@LDBMOONG@Command_WarehouseInfo_NeedLevelF@
  015af	68 00 00 00 00	 push	 OFFSET ??_C@_08JNEOMACB@Commands?$AA@
  015b4	ff d7		 call	 edi

; 255  : 	this->m_Data[COMMAND_WAREINFO].iLevel[1]       = GetPrivateProfileInt("Commands", "Command_WarehouseInfo_NeedLevelVip1", NULL, COMMANDS_FILE);

  015b6	68 00 00 00 00	 push	 OFFSET ??_C@_0CE@BMBMBCJB@?4?2Customs?2Commands?2Hgt_Commands?4@
  015bb	6a 00		 push	 0
  015bd	68 00 00 00 00	 push	 OFFSET ??_C@_0CE@JANOFAAB@Command_WarehouseInfo_NeedLevelV@
  015c2	68 00 00 00 00	 push	 OFFSET ??_C@_08JNEOMACB@Commands?$AA@
  015c7	89 86 18 11 00
	00		 mov	 DWORD PTR [esi+4376], eax
  015cd	ff d7		 call	 edi

; 256  : 	this->m_Data[COMMAND_WAREINFO].iLevel[2]       = GetPrivateProfileInt("Commands", "Command_WarehouseInfo_NeedLevelVip2", NULL, COMMANDS_FILE);

  015cf	68 00 00 00 00	 push	 OFFSET ??_C@_0CE@BMBMBCJB@?4?2Customs?2Commands?2Hgt_Commands?4@
  015d4	6a 00		 push	 0
  015d6	68 00 00 00 00	 push	 OFFSET ??_C@_0CE@LLPDADMC@Command_WarehouseInfo_NeedLevelV@
  015db	68 00 00 00 00	 push	 OFFSET ??_C@_08JNEOMACB@Commands?$AA@
  015e0	89 86 1c 11 00
	00		 mov	 DWORD PTR [esi+4380], eax
  015e6	ff d7		 call	 edi

; 257  : 	this->m_Data[COMMAND_WAREINFO].iLevel[3]       = GetPrivateProfileInt("Commands", "Command_WarehouseInfo_NeedLevelVip3", NULL, COMMANDS_FILE);

  015e8	68 00 00 00 00	 push	 OFFSET ??_C@_0CE@BMBMBCJB@?4?2Customs?2Commands?2Hgt_Commands?4@
  015ed	6a 00		 push	 0
  015ef	68 00 00 00 00	 push	 OFFSET ??_C@_0CE@KCOIDCID@Command_WarehouseInfo_NeedLevelV@
  015f4	68 00 00 00 00	 push	 OFFSET ??_C@_08JNEOMACB@Commands?$AA@
  015f9	89 86 20 11 00
	00		 mov	 DWORD PTR [esi+4384], eax
  015ff	ff d7		 call	 edi

; 258  : 	this->m_Data[COMMAND_WAREINFO].iMoney[0]       = GetPrivateProfileInt("Commands", "Command_WarehouseInfo_NeedMoneyFree", NULL, COMMANDS_FILE);

  01601	68 00 00 00 00	 push	 OFFSET ??_C@_0CE@BMBMBCJB@?4?2Customs?2Commands?2Hgt_Commands?4@
  01606	6a 00		 push	 0
  01608	68 00 00 00 00	 push	 OFFSET ??_C@_0CE@DFLFLGMA@Command_WarehouseInfo_NeedMoneyF@
  0160d	68 00 00 00 00	 push	 OFFSET ??_C@_08JNEOMACB@Commands?$AA@
  01612	89 86 24 11 00
	00		 mov	 DWORD PTR [esi+4388], eax
  01618	ff d7		 call	 edi

; 259  : 	this->m_Data[COMMAND_WAREINFO].iMoney[1]       = GetPrivateProfileInt("Commands", "Command_WarehouseInfo_NeedMoneyVip1", NULL, COMMANDS_FILE);

  0161a	68 00 00 00 00	 push	 OFFSET ??_C@_0CE@BMBMBCJB@?4?2Customs?2Commands?2Hgt_Commands?4@
  0161f	6a 00		 push	 0
  01621	68 00 00 00 00	 push	 OFFSET ??_C@_0CE@BGHHAIBH@Command_WarehouseInfo_NeedMoneyV@
  01626	68 00 00 00 00	 push	 OFFSET ??_C@_08JNEOMACB@Commands?$AA@
  0162b	89 86 28 11 00
	00		 mov	 DWORD PTR [esi+4392], eax
  01631	ff d7		 call	 edi

; 260  : 	this->m_Data[COMMAND_WAREINFO].iMoney[2]       = GetPrivateProfileInt("Commands", "Command_WarehouseInfo_NeedMoneyVip2", NULL, COMMANDS_FILE);

  01633	68 00 00 00 00	 push	 OFFSET ??_C@_0CE@BMBMBCJB@?4?2Customs?2Commands?2Hgt_Commands?4@
  01638	6a 00		 push	 0
  0163a	68 00 00 00 00	 push	 OFFSET ??_C@_0CE@DNFKFLNE@Command_WarehouseInfo_NeedMoneyV@
  0163f	68 00 00 00 00	 push	 OFFSET ??_C@_08JNEOMACB@Commands?$AA@
  01644	89 86 2c 11 00
	00		 mov	 DWORD PTR [esi+4396], eax
  0164a	ff d7		 call	 edi

; 261  : 	this->m_Data[COMMAND_WAREINFO].iMoney[3]       = GetPrivateProfileInt("Commands", "Command_WarehouseInfo_NeedMoneyVip3", NULL, COMMANDS_FILE);

  0164c	68 00 00 00 00	 push	 OFFSET ??_C@_0CE@BMBMBCJB@?4?2Customs?2Commands?2Hgt_Commands?4@
  01651	6a 00		 push	 0
  01653	68 00 00 00 00	 push	 OFFSET ??_C@_0CE@CEEBGKJF@Command_WarehouseInfo_NeedMoneyV@
  01658	68 00 00 00 00	 push	 OFFSET ??_C@_08JNEOMACB@Commands?$AA@
  0165d	89 86 30 11 00
	00		 mov	 DWORD PTR [esi+4400], eax
  01663	ff d7		 call	 edi

; 262  : 	this->m_Data[COMMAND_WAREINFO].iResets[0]		= GetPrivateProfileInt("Commands", "Command_WarehouseInfo_NeedResetsFree", NULL, COMMANDS_FILE);

  01665	68 00 00 00 00	 push	 OFFSET ??_C@_0CE@BMBMBCJB@?4?2Customs?2Commands?2Hgt_Commands?4@
  0166a	6a 00		 push	 0
  0166c	68 00 00 00 00	 push	 OFFSET ??_C@_0CF@FIHHGLLI@Command_WarehouseInfo_NeedResets@
  01671	68 00 00 00 00	 push	 OFFSET ??_C@_08JNEOMACB@Commands?$AA@
  01676	89 86 34 11 00
	00		 mov	 DWORD PTR [esi+4404], eax
  0167c	ff d7		 call	 edi

; 263  : 	this->m_Data[COMMAND_WAREINFO].iResets[1]		= GetPrivateProfileInt("Commands", "Command_WarehouseInfo_NeedResetsVip1", NULL, COMMANDS_FILE);

  0167e	68 00 00 00 00	 push	 OFFSET ??_C@_0CE@BMBMBCJB@?4?2Customs?2Commands?2Hgt_Commands?4@
  01683	6a 00		 push	 0
  01685	68 00 00 00 00	 push	 OFFSET ??_C@_0CF@HLLFNFGP@Command_WarehouseInfo_NeedResets@
  0168a	68 00 00 00 00	 push	 OFFSET ??_C@_08JNEOMACB@Commands?$AA@
  0168f	89 86 38 11 00
	00		 mov	 DWORD PTR [esi+4408], eax
  01695	ff d7		 call	 edi

; 264  : 	this->m_Data[COMMAND_WAREINFO].iResets[2]		= GetPrivateProfileInt("Commands", "Command_WarehouseInfo_NeedResetsVip2", NULL, COMMANDS_FILE);

  01697	68 00 00 00 00	 push	 OFFSET ??_C@_0CE@BMBMBCJB@?4?2Customs?2Commands?2Hgt_Commands?4@
  0169c	6a 00		 push	 0
  0169e	68 00 00 00 00	 push	 OFFSET ??_C@_0CF@FAJIIGKM@Command_WarehouseInfo_NeedResets@
  016a3	68 00 00 00 00	 push	 OFFSET ??_C@_08JNEOMACB@Commands?$AA@
  016a8	89 86 3c 11 00
	00		 mov	 DWORD PTR [esi+4412], eax
  016ae	ff d7		 call	 edi

; 265  : 	this->m_Data[COMMAND_WAREINFO].iResets[3]		= GetPrivateProfileInt("Commands", "Command_WarehouseInfo_NeedResetsVip3", NULL, COMMANDS_FILE);

  016b0	68 00 00 00 00	 push	 OFFSET ??_C@_0CE@BMBMBCJB@?4?2Customs?2Commands?2Hgt_Commands?4@
  016b5	6a 00		 push	 0
  016b7	68 00 00 00 00	 push	 OFFSET ??_C@_0CF@EJIDLHON@Command_WarehouseInfo_NeedResets@
  016bc	68 00 00 00 00	 push	 OFFSET ??_C@_08JNEOMACB@Commands?$AA@
  016c1	89 86 40 11 00
	00		 mov	 DWORD PTR [esi+4416], eax
  016c7	ff d7		 call	 edi

; 266  : 	this->m_Data[COMMAND_WAREINFO].iMResets[0]		= GetPrivateProfileInt("Commands", "Command_WarehouseInfo_NeedMasterResetsFree", NULL, COMMANDS_FILE);

  016c9	68 00 00 00 00	 push	 OFFSET ??_C@_0CE@BMBMBCJB@?4?2Customs?2Commands?2Hgt_Commands?4@
  016ce	6a 00		 push	 0
  016d0	68 00 00 00 00	 push	 OFFSET ??_C@_0CL@FBFCPGMP@Command_WarehouseInfo_NeedMaster@
  016d5	68 00 00 00 00	 push	 OFFSET ??_C@_08JNEOMACB@Commands?$AA@
  016da	89 86 44 11 00
	00		 mov	 DWORD PTR [esi+4420], eax
  016e0	ff d7		 call	 edi

; 267  : 	this->m_Data[COMMAND_WAREINFO].iMResets[1]		= GetPrivateProfileInt("Commands", "Command_WarehouseInfo_NeedMasterResetsVip1", NULL, COMMANDS_FILE);

  016e2	68 00 00 00 00	 push	 OFFSET ??_C@_0CE@BMBMBCJB@?4?2Customs?2Commands?2Hgt_Commands?4@
  016e7	6a 00		 push	 0
  016e9	68 00 00 00 00	 push	 OFFSET ??_C@_0CL@HCJAEIBI@Command_WarehouseInfo_NeedMaster@
  016ee	68 00 00 00 00	 push	 OFFSET ??_C@_08JNEOMACB@Commands?$AA@
  016f3	89 86 48 11 00
	00		 mov	 DWORD PTR [esi+4424], eax
  016f9	ff d7		 call	 edi
  016fb	89 86 4c 11 00
	00		 mov	 DWORD PTR [esi+4428], eax

; 268  : 	this->m_Data[COMMAND_WAREINFO].iMResets[2]		= GetPrivateProfileInt("Commands", "Command_WarehouseInfo_NeedMasterResetsVip2", NULL, COMMANDS_FILE);

  01701	68 00 00 00 00	 push	 OFFSET ??_C@_0CE@BMBMBCJB@?4?2Customs?2Commands?2Hgt_Commands?4@
  01706	6a 00		 push	 0
  01708	68 00 00 00 00	 push	 OFFSET ??_C@_0CL@FJLNBLNL@Command_WarehouseInfo_NeedMaster@
  0170d	68 00 00 00 00	 push	 OFFSET ??_C@_08JNEOMACB@Commands?$AA@
  01712	ff d7		 call	 edi

; 269  : 	this->m_Data[COMMAND_WAREINFO].iMResets[3]		= GetPrivateProfileInt("Commands", "Command_WarehouseInfo_NeedMasterResetsVip3", NULL, COMMANDS_FILE);

  01714	68 00 00 00 00	 push	 OFFSET ??_C@_0CE@BMBMBCJB@?4?2Customs?2Commands?2Hgt_Commands?4@
  01719	6a 00		 push	 0
  0171b	68 00 00 00 00	 push	 OFFSET ??_C@_0CL@EAKGCKJK@Command_WarehouseInfo_NeedMaster@
  01720	68 00 00 00 00	 push	 OFFSET ??_C@_08JNEOMACB@Commands?$AA@
  01725	89 86 50 11 00
	00		 mov	 DWORD PTR [esi+4432], eax
  0172b	ff d7		 call	 edi

; 270  : 	// ---
; 271  : 	GetPrivateProfileString("Commands", "Command_EventManager_Sintax_Open", NULL, gEventManager.m_Data.szSintax, sizeof(gEventManager.m_Data.szSintax), COMMANDS_FILE);

  0172d	68 00 00 00 00	 push	 OFFSET ??_C@_0CE@BMBMBCJB@?4?2Customs?2Commands?2Hgt_Commands?4@
  01732	6a 32		 push	 50			; 00000032H
  01734	68 00 00 00 00	 push	 OFFSET ?gEventManager@@3VCEventManager@@A ; gEventManager
  01739	6a 00		 push	 0
  0173b	68 00 00 00 00	 push	 OFFSET ??_C@_0CB@BBMKKDLF@Command_EventManager_Sintax_Open@
  01740	68 00 00 00 00	 push	 OFFSET ??_C@_08JNEOMACB@Commands?$AA@
  01745	89 86 54 11 00
	00		 mov	 DWORD PTR [esi+4436], eax
  0174b	ff d3		 call	 ebx

; 272  : 	GetPrivateProfileString("Commands", "Command_EventManager_Sintax_Enter", NULL, gEventManager.m_Data.szEnter, sizeof(gEventManager.m_Data.szEnter), COMMANDS_FILE);

  0174d	68 00 00 00 00	 push	 OFFSET ??_C@_0CE@BMBMBCJB@?4?2Customs?2Commands?2Hgt_Commands?4@
  01752	6a 32		 push	 50			; 00000032H
  01754	68 32 00 00 00	 push	 OFFSET ?gEventManager@@3VCEventManager@@A+50
  01759	6a 00		 push	 0
  0175b	68 00 00 00 00	 push	 OFFSET ??_C@_0CC@DMKIEDEK@Command_EventManager_Sintax_Ente@
  01760	68 00 00 00 00	 push	 OFFSET ??_C@_08JNEOMACB@Commands?$AA@
  01765	ff d3		 call	 ebx

; 273  : 	// ---
; 274  : 	this->m_Data[COMMAND_EVENT].iEnabled        = GetPrivateProfileInt("Commands", "Command_EventManager_Enabled", NULL, COMMANDS_FILE);

  01767	68 00 00 00 00	 push	 OFFSET ??_C@_0CE@BMBMBCJB@?4?2Customs?2Commands?2Hgt_Commands?4@
  0176c	6a 00		 push	 0
  0176e	68 00 00 00 00	 push	 OFFSET ??_C@_0BN@JJFMLIFH@Command_EventManager_Enabled?$AA@
  01773	68 00 00 00 00	 push	 OFFSET ??_C@_08JNEOMACB@Commands?$AA@
  01778	ff d7		 call	 edi

; 275  : 	this->m_Data[COMMAND_EVENT].iVipOnly[0]     = GetPrivateProfileInt("Commands", "Command_EventManager_SwitchFree", NULL, COMMANDS_FILE);

  0177a	68 00 00 00 00	 push	 OFFSET ??_C@_0CE@BMBMBCJB@?4?2Customs?2Commands?2Hgt_Commands?4@
  0177f	6a 00		 push	 0
  01781	85 c0		 test	 eax, eax
  01783	68 00 00 00 00	 push	 OFFSET ??_C@_0CA@NNLBNOLA@Command_EventManager_SwitchFree?$AA@
  01788	0f 95 c0	 setne	 al
  0178b	68 00 00 00 00	 push	 OFFSET ??_C@_08JNEOMACB@Commands?$AA@
  01790	88 86 b0 16 00
	00		 mov	 BYTE PTR [esi+5808], al
  01796	ff d7		 call	 edi

; 276  : 	this->m_Data[COMMAND_EVENT].iVipOnly[1]     = GetPrivateProfileInt("Commands", "Command_EventManager_SwitchVip1", NULL, COMMANDS_FILE);

  01798	68 00 00 00 00	 push	 OFFSET ??_C@_0CE@BMBMBCJB@?4?2Customs?2Commands?2Hgt_Commands?4@
  0179d	6a 00		 push	 0
  0179f	68 00 00 00 00	 push	 OFFSET ??_C@_0CA@POHDGAGH@Command_EventManager_SwitchVip1?$AA@
  017a4	68 00 00 00 00	 push	 OFFSET ??_C@_08JNEOMACB@Commands?$AA@
  017a9	89 86 b4 16 00
	00		 mov	 DWORD PTR [esi+5812], eax
  017af	ff d7		 call	 edi

; 277  : 	this->m_Data[COMMAND_EVENT].iVipOnly[2]     = GetPrivateProfileInt("Commands", "Command_EventManager_SwitchVip2", NULL, COMMANDS_FILE);

  017b1	68 00 00 00 00	 push	 OFFSET ??_C@_0CE@BMBMBCJB@?4?2Customs?2Commands?2Hgt_Commands?4@
  017b6	6a 00		 push	 0
  017b8	68 00 00 00 00	 push	 OFFSET ??_C@_0CA@NFFODDKE@Command_EventManager_SwitchVip2?$AA@
  017bd	68 00 00 00 00	 push	 OFFSET ??_C@_08JNEOMACB@Commands?$AA@
  017c2	89 86 b8 16 00
	00		 mov	 DWORD PTR [esi+5816], eax
  017c8	ff d7		 call	 edi

; 278  : 	this->m_Data[COMMAND_EVENT].iVipOnly[3]     = GetPrivateProfileInt("Commands", "Command_EventManager_SwitchVip3", NULL, COMMANDS_FILE);

  017ca	68 00 00 00 00	 push	 OFFSET ??_C@_0CE@BMBMBCJB@?4?2Customs?2Commands?2Hgt_Commands?4@
  017cf	6a 00		 push	 0
  017d1	68 00 00 00 00	 push	 OFFSET ??_C@_0CA@MMEFACOF@Command_EventManager_SwitchVip3?$AA@
  017d6	68 00 00 00 00	 push	 OFFSET ??_C@_08JNEOMACB@Commands?$AA@
  017db	89 86 bc 16 00
	00		 mov	 DWORD PTR [esi+5820], eax
  017e1	ff d7		 call	 edi

; 279  : 	this->m_Data[COMMAND_EVENT].iLevel[0]       = GetPrivateProfileInt("Commands", "Command_EventManager_NeedLevelFree", NULL, COMMANDS_FILE);

  017e3	68 00 00 00 00	 push	 OFFSET ??_C@_0CE@BMBMBCJB@?4?2Customs?2Commands?2Hgt_Commands?4@
  017e8	6a 00		 push	 0
  017ea	68 00 00 00 00	 push	 OFFSET ??_C@_0CD@JGAPPHLP@Command_EventManager_NeedLevelFr@
  017ef	68 00 00 00 00	 push	 OFFSET ??_C@_08JNEOMACB@Commands?$AA@
  017f4	89 86 c0 16 00
	00		 mov	 DWORD PTR [esi+5824], eax
  017fa	ff d7		 call	 edi

; 280  : 	this->m_Data[COMMAND_EVENT].iLevel[1]       = GetPrivateProfileInt("Commands", "Command_EventManager_NeedLevelVip1", NULL, COMMANDS_FILE);

  017fc	68 00 00 00 00	 push	 OFFSET ??_C@_0CE@BMBMBCJB@?4?2Customs?2Commands?2Hgt_Commands?4@
  01801	6a 00		 push	 0
  01803	68 00 00 00 00	 push	 OFFSET ??_C@_0CD@LFMNEJGI@Command_EventManager_NeedLevelVi@
  01808	68 00 00 00 00	 push	 OFFSET ??_C@_08JNEOMACB@Commands?$AA@
  0180d	89 86 c4 16 00
	00		 mov	 DWORD PTR [esi+5828], eax
  01813	ff d7		 call	 edi

; 281  : 	this->m_Data[COMMAND_EVENT].iLevel[2]       = GetPrivateProfileInt("Commands", "Command_EventManager_NeedLevelVip2", NULL, COMMANDS_FILE);

  01815	68 00 00 00 00	 push	 OFFSET ??_C@_0CE@BMBMBCJB@?4?2Customs?2Commands?2Hgt_Commands?4@
  0181a	6a 00		 push	 0
  0181c	68 00 00 00 00	 push	 OFFSET ??_C@_0CD@JOOABKKL@Command_EventManager_NeedLevelVi@
  01821	68 00 00 00 00	 push	 OFFSET ??_C@_08JNEOMACB@Commands?$AA@
  01826	89 86 c8 16 00
	00		 mov	 DWORD PTR [esi+5832], eax
  0182c	ff d7		 call	 edi

; 282  : 	this->m_Data[COMMAND_EVENT].iLevel[3]       = GetPrivateProfileInt("Commands", "Command_EventManager_NeedLevelVip3", NULL, COMMANDS_FILE);

  0182e	68 00 00 00 00	 push	 OFFSET ??_C@_0CE@BMBMBCJB@?4?2Customs?2Commands?2Hgt_Commands?4@
  01833	6a 00		 push	 0
  01835	68 00 00 00 00	 push	 OFFSET ??_C@_0CD@IHPLCLOK@Command_EventManager_NeedLevelVi@
  0183a	68 00 00 00 00	 push	 OFFSET ??_C@_08JNEOMACB@Commands?$AA@
  0183f	89 86 cc 16 00
	00		 mov	 DWORD PTR [esi+5836], eax
  01845	ff d7		 call	 edi

; 283  : 	this->m_Data[COMMAND_EVENT].iMoney[0]       = GetPrivateProfileInt("Commands", "Command_EventManager_NeedMoneyFree", NULL, COMMANDS_FILE);

  01847	68 00 00 00 00	 push	 OFFSET ??_C@_0CE@BMBMBCJB@?4?2Customs?2Commands?2Hgt_Commands?4@
  0184c	6a 00		 push	 0
  0184e	68 00 00 00 00	 push	 OFFSET ??_C@_0CD@BAKGKPKJ@Command_EventManager_NeedMoneyFr@
  01853	68 00 00 00 00	 push	 OFFSET ??_C@_08JNEOMACB@Commands?$AA@
  01858	89 86 d0 16 00
	00		 mov	 DWORD PTR [esi+5840], eax
  0185e	ff d7		 call	 edi

; 284  : 	this->m_Data[COMMAND_EVENT].iMoney[1]       = GetPrivateProfileInt("Commands", "Command_EventManager_NeedMoneyVip1", NULL, COMMANDS_FILE);

  01860	68 00 00 00 00	 push	 OFFSET ??_C@_0CE@BMBMBCJB@?4?2Customs?2Commands?2Hgt_Commands?4@
  01865	6a 00		 push	 0
  01867	68 00 00 00 00	 push	 OFFSET ??_C@_0CD@DDGEBBHO@Command_EventManager_NeedMoneyVi@
  0186c	68 00 00 00 00	 push	 OFFSET ??_C@_08JNEOMACB@Commands?$AA@
  01871	89 86 d4 16 00
	00		 mov	 DWORD PTR [esi+5844], eax
  01877	ff d7		 call	 edi

; 285  : 	this->m_Data[COMMAND_EVENT].iMoney[2]       = GetPrivateProfileInt("Commands", "Command_EventManager_NeedMoneyVip2", NULL, COMMANDS_FILE);

  01879	68 00 00 00 00	 push	 OFFSET ??_C@_0CE@BMBMBCJB@?4?2Customs?2Commands?2Hgt_Commands?4@
  0187e	6a 00		 push	 0
  01880	68 00 00 00 00	 push	 OFFSET ??_C@_0CD@BIEJECLN@Command_EventManager_NeedMoneyVi@
  01885	68 00 00 00 00	 push	 OFFSET ??_C@_08JNEOMACB@Commands?$AA@
  0188a	89 86 d8 16 00
	00		 mov	 DWORD PTR [esi+5848], eax
  01890	ff d7		 call	 edi

; 286  : 	this->m_Data[COMMAND_EVENT].iMoney[3]       = GetPrivateProfileInt("Commands", "Command_EventManager_NeedMoneyVip3", NULL, COMMANDS_FILE);

  01892	68 00 00 00 00	 push	 OFFSET ??_C@_0CE@BMBMBCJB@?4?2Customs?2Commands?2Hgt_Commands?4@
  01897	6a 00		 push	 0
  01899	68 00 00 00 00	 push	 OFFSET ??_C@_0CD@BFCHDPM@Command_EventManager_NeedMoneyVi@
  0189e	68 00 00 00 00	 push	 OFFSET ??_C@_08JNEOMACB@Commands?$AA@
  018a3	89 86 dc 16 00
	00		 mov	 DWORD PTR [esi+5852], eax
  018a9	ff d7		 call	 edi

; 287  : 	this->m_Data[COMMAND_EVENT].iResets[0]		= GetPrivateProfileInt("Commands", "Command_EventManager_NeedResetsFree", NULL, COMMANDS_FILE);

  018ab	68 00 00 00 00	 push	 OFFSET ??_C@_0CE@BMBMBCJB@?4?2Customs?2Commands?2Hgt_Commands?4@
  018b0	6a 00		 push	 0
  018b2	68 00 00 00 00	 push	 OFFSET ??_C@_0CE@GMDMKBFN@Command_EventManager_NeedResetsF@
  018b7	68 00 00 00 00	 push	 OFFSET ??_C@_08JNEOMACB@Commands?$AA@
  018bc	89 86 e0 16 00
	00		 mov	 DWORD PTR [esi+5856], eax
  018c2	ff d7		 call	 edi

; 288  : 	this->m_Data[COMMAND_EVENT].iResets[1]		= GetPrivateProfileInt("Commands", "Command_EventManager_NeedResetsVip1", NULL, COMMANDS_FILE);

  018c4	68 00 00 00 00	 push	 OFFSET ??_C@_0CE@BMBMBCJB@?4?2Customs?2Commands?2Hgt_Commands?4@
  018c9	6a 00		 push	 0
  018cb	68 00 00 00 00	 push	 OFFSET ??_C@_0CE@EPPOBPIK@Command_EventManager_NeedResetsV@
  018d0	68 00 00 00 00	 push	 OFFSET ??_C@_08JNEOMACB@Commands?$AA@
  018d5	89 86 e4 16 00
	00		 mov	 DWORD PTR [esi+5860], eax
  018db	ff d7		 call	 edi

; 289  : 	this->m_Data[COMMAND_EVENT].iResets[2]		= GetPrivateProfileInt("Commands", "Command_EventManager_NeedResetsVip2", NULL, COMMANDS_FILE);

  018dd	68 00 00 00 00	 push	 OFFSET ??_C@_0CE@BMBMBCJB@?4?2Customs?2Commands?2Hgt_Commands?4@
  018e2	6a 00		 push	 0
  018e4	68 00 00 00 00	 push	 OFFSET ??_C@_0CE@GENDEMEJ@Command_EventManager_NeedResetsV@
  018e9	68 00 00 00 00	 push	 OFFSET ??_C@_08JNEOMACB@Commands?$AA@
  018ee	89 86 e8 16 00
	00		 mov	 DWORD PTR [esi+5864], eax
  018f4	ff d7		 call	 edi

; 290  : 	this->m_Data[COMMAND_EVENT].iResets[3]		= GetPrivateProfileInt("Commands", "Command_EventManager_NeedResetsVip3", NULL, COMMANDS_FILE);

  018f6	68 00 00 00 00	 push	 OFFSET ??_C@_0CE@BMBMBCJB@?4?2Customs?2Commands?2Hgt_Commands?4@
  018fb	6a 00		 push	 0
  018fd	68 00 00 00 00	 push	 OFFSET ??_C@_0CE@HNMIHNAI@Command_EventManager_NeedResetsV@
  01902	68 00 00 00 00	 push	 OFFSET ??_C@_08JNEOMACB@Commands?$AA@
  01907	89 86 ec 16 00
	00		 mov	 DWORD PTR [esi+5868], eax
  0190d	ff d7		 call	 edi

; 291  : 	this->m_Data[COMMAND_EVENT].iMResets[0]		= GetPrivateProfileInt("Commands", "Command_EventManager_NeedMasterResetsFree", NULL, COMMANDS_FILE);

  0190f	68 00 00 00 00	 push	 OFFSET ??_C@_0CE@BMBMBCJB@?4?2Customs?2Commands?2Hgt_Commands?4@
  01914	6a 00		 push	 0
  01916	68 00 00 00 00	 push	 OFFSET ??_C@_0CK@NLAJBOPE@Command_EventManager_NeedMasterR@
  0191b	68 00 00 00 00	 push	 OFFSET ??_C@_08JNEOMACB@Commands?$AA@
  01920	89 86 f0 16 00
	00		 mov	 DWORD PTR [esi+5872], eax
  01926	ff d7		 call	 edi

; 292  : 	this->m_Data[COMMAND_EVENT].iMResets[1]		= GetPrivateProfileInt("Commands", "Command_EventManager_NeedMasterResetsVip1", NULL, COMMANDS_FILE);

  01928	68 00 00 00 00	 push	 OFFSET ??_C@_0CE@BMBMBCJB@?4?2Customs?2Commands?2Hgt_Commands?4@
  0192d	6a 00		 push	 0
  0192f	68 00 00 00 00	 push	 OFFSET ??_C@_0CK@PIMLKACD@Command_EventManager_NeedMasterR@
  01934	68 00 00 00 00	 push	 OFFSET ??_C@_08JNEOMACB@Commands?$AA@
  01939	89 86 f4 16 00
	00		 mov	 DWORD PTR [esi+5876], eax
  0193f	ff d7		 call	 edi

; 293  : 	this->m_Data[COMMAND_EVENT].iMResets[2]		= GetPrivateProfileInt("Commands", "Command_EventManager_NeedMasterResetsVip2", NULL, COMMANDS_FILE);

  01941	68 00 00 00 00	 push	 OFFSET ??_C@_0CE@BMBMBCJB@?4?2Customs?2Commands?2Hgt_Commands?4@
  01946	6a 00		 push	 0
  01948	68 00 00 00 00	 push	 OFFSET ??_C@_0CK@NDOGPDOA@Command_EventManager_NeedMasterR@
  0194d	68 00 00 00 00	 push	 OFFSET ??_C@_08JNEOMACB@Commands?$AA@
  01952	89 86 f8 16 00
	00		 mov	 DWORD PTR [esi+5880], eax
  01958	ff d7		 call	 edi

; 294  : 	this->m_Data[COMMAND_EVENT].iMResets[3]		= GetPrivateProfileInt("Commands", "Command_EventManager_NeedMasterResetsVip3", NULL, COMMANDS_FILE);

  0195a	68 00 00 00 00	 push	 OFFSET ??_C@_0CE@BMBMBCJB@?4?2Customs?2Commands?2Hgt_Commands?4@
  0195f	6a 00		 push	 0
  01961	68 00 00 00 00	 push	 OFFSET ??_C@_0CK@MKPNMCKB@Command_EventManager_NeedMasterR@
  01966	68 00 00 00 00	 push	 OFFSET ??_C@_08JNEOMACB@Commands?$AA@
  0196b	89 86 fc 16 00
	00		 mov	 DWORD PTR [esi+5884], eax
  01971	ff d7		 call	 edi

; 295  : 	// ---
; 296  : 	GetPrivateProfileString("Commands", "Command_AltClass_Sintax_DW", NULL, this->m_Data[COMMAND_ALTCLASS].szSintaxAlt[0], sizeof(this->m_Data[COMMAND_ALTCLASS].szSintaxAlt[0]), COMMANDS_FILE);

  01973	68 00 00 00 00	 push	 OFFSET ??_C@_0CE@BMBMBCJB@?4?2Customs?2Commands?2Hgt_Commands?4@
  01978	6a 14		 push	 20			; 00000014H
  0197a	8d 8e c8 13 00
	00		 lea	 ecx, DWORD PTR [esi+5064]
  01980	51		 push	 ecx
  01981	6a 00		 push	 0
  01983	68 00 00 00 00	 push	 OFFSET ??_C@_0BL@NIMMIEGB@Command_AltClass_Sintax_DW?$AA@
  01988	68 00 00 00 00	 push	 OFFSET ??_C@_08JNEOMACB@Commands?$AA@
  0198d	89 86 00 17 00
	00		 mov	 DWORD PTR [esi+5888], eax
  01993	ff d3		 call	 ebx

; 297  : 	GetPrivateProfileString("Commands", "Command_AltClass_Sintax_SM", NULL, this->m_Data[COMMAND_ALTCLASS].szSintaxAlt[1], sizeof(this->m_Data[COMMAND_ALTCLASS].szSintaxAlt[1]), COMMANDS_FILE);

  01995	68 00 00 00 00	 push	 OFFSET ??_C@_0CE@BMBMBCJB@?4?2Customs?2Commands?2Hgt_Commands?4@
  0199a	6a 14		 push	 20			; 00000014H
  0199c	8d 96 dc 13 00
	00		 lea	 edx, DWORD PTR [esi+5084]
  019a2	52		 push	 edx
  019a3	6a 00		 push	 0
  019a5	68 00 00 00 00	 push	 OFFSET ??_C@_0BL@HBIIMLEP@Command_AltClass_Sintax_SM?$AA@
  019aa	68 00 00 00 00	 push	 OFFSET ??_C@_08JNEOMACB@Commands?$AA@
  019af	ff d3		 call	 ebx

; 298  : 	GetPrivateProfileString("Commands", "Command_AltClass_Sintax_DK", NULL, this->m_Data[COMMAND_ALTCLASS].szSintaxAlt[2], sizeof(this->m_Data[COMMAND_ALTCLASS].szSintaxAlt[2]), COMMANDS_FILE);

  019b1	68 00 00 00 00	 push	 OFFSET ??_C@_0CE@BMBMBCJB@?4?2Customs?2Commands?2Hgt_Commands?4@
  019b6	6a 14		 push	 20			; 00000014H
  019b8	8d 86 f0 13 00
	00		 lea	 eax, DWORD PTR [esi+5104]
  019be	50		 push	 eax
  019bf	6a 00		 push	 0
  019c1	68 00 00 00 00	 push	 OFFSET ??_C@_0BL@DOLLNJDM@Command_AltClass_Sintax_DK?$AA@
  019c6	68 00 00 00 00	 push	 OFFSET ??_C@_08JNEOMACB@Commands?$AA@
  019cb	ff d3		 call	 ebx

; 299  : 	GetPrivateProfileString("Commands", "Command_AltClass_Sintax_BK", NULL, this->m_Data[COMMAND_ALTCLASS].szSintaxAlt[3], sizeof(this->m_Data[COMMAND_ALTCLASS].szSintaxAlt[3]), COMMANDS_FILE);

  019cd	68 00 00 00 00	 push	 OFFSET ??_C@_0CE@BMBMBCJB@?4?2Customs?2Commands?2Hgt_Commands?4@
  019d2	6a 14		 push	 20			; 00000014H
  019d4	8d 8e 04 14 00
	00		 lea	 ecx, DWORD PTR [esi+5124]
  019da	51		 push	 ecx
  019db	6a 00		 push	 0
  019dd	68 00 00 00 00	 push	 OFFSET ??_C@_0BL@DKDGKFIO@Command_AltClass_Sintax_BK?$AA@
  019e2	68 00 00 00 00	 push	 OFFSET ??_C@_08JNEOMACB@Commands?$AA@
  019e7	ff d3		 call	 ebx

; 300  : 	GetPrivateProfileString("Commands", "Command_AltClass_Sintax_FE", NULL, this->m_Data[COMMAND_ALTCLASS].szSintaxAlt[4], sizeof(this->m_Data[COMMAND_ALTCLASS].szSintaxAlt[4]), COMMANDS_FILE);

  019e9	68 00 00 00 00	 push	 OFFSET ??_C@_0CE@BMBMBCJB@?4?2Customs?2Commands?2Hgt_Commands?4@
  019ee	6a 14		 push	 20			; 00000014H
  019f0	8d 96 18 14 00
	00		 lea	 edx, DWORD PTR [esi+5144]
  019f6	52		 push	 edx
  019f7	6a 00		 push	 0
  019f9	68 00 00 00 00	 push	 OFFSET ??_C@_0BL@KDLMCANM@Command_AltClass_Sintax_FE?$AA@
  019fe	68 00 00 00 00	 push	 OFFSET ??_C@_08JNEOMACB@Commands?$AA@
  01a03	ff d3		 call	 ebx

; 301  : 	GetPrivateProfileString("Commands", "Command_AltClass_Sintax_ME", NULL, this->m_Data[COMMAND_ALTCLASS].szSintaxAlt[5], sizeof(this->m_Data[COMMAND_ALTCLASS].szSintaxAlt[5]), COMMANDS_FILE);

  01a05	68 00 00 00 00	 push	 OFFSET ??_C@_0CE@BMBMBCJB@?4?2Customs?2Commands?2Hgt_Commands?4@
  01a0a	6a 14		 push	 20			; 00000014H
  01a0c	8d 86 2c 14 00
	00		 lea	 eax, DWORD PTR [esi+5164]
  01a12	50		 push	 eax
  01a13	6a 00		 push	 0
  01a15	68 00 00 00 00	 push	 OFFSET ??_C@_0BL@KPOJMPDN@Command_AltClass_Sintax_ME?$AA@
  01a1a	68 00 00 00 00	 push	 OFFSET ??_C@_08JNEOMACB@Commands?$AA@
  01a1f	ff d3		 call	 ebx

; 302  : 	GetPrivateProfileString("Commands", "Command_AltClass_Sintax_MG", NULL, this->m_Data[COMMAND_ALTCLASS].szSintaxAlt[6], sizeof(this->m_Data[COMMAND_ALTCLASS].szSintaxAlt[6]), COMMANDS_FILE);

  01a21	68 00 00 00 00	 push	 OFFSET ??_C@_0CE@BMBMBCJB@?4?2Customs?2Commands?2Hgt_Commands?4@
  01a26	6a 14		 push	 20			; 00000014H
  01a28	8d 8e 40 14 00
	00		 lea	 ecx, DWORD PTR [esi+5184]
  01a2e	51		 push	 ecx
  01a2f	6a 00		 push	 0
  01a31	68 00 00 00 00	 push	 OFFSET ??_C@_0BL@JNNPKNLP@Command_AltClass_Sintax_MG?$AA@
  01a36	68 00 00 00 00	 push	 OFFSET ??_C@_08JNEOMACB@Commands?$AA@
  01a3b	ff d3		 call	 ebx

; 303  : 	GetPrivateProfileString("Commands", "Command_AltClass_Sintax_DL", NULL, this->m_Data[COMMAND_ALTCLASS].szSintaxAlt[7], sizeof(this->m_Data[COMMAND_ALTCLASS].szSintaxAlt[7]), COMMANDS_FILE);

  01a3d	68 00 00 00 00	 push	 OFFSET ??_C@_0CE@BMBMBCJB@?4?2Customs?2Commands?2Hgt_Commands?4@
  01a42	6a 14		 push	 20			; 00000014H
  01a44	8d 96 54 14 00
	00		 lea	 edx, DWORD PTR [esi+5204]
  01a4a	52		 push	 edx
  01a4b	6a 00		 push	 0
  01a4d	68 00 00 00 00	 push	 OFFSET ??_C@_0BL@HBPKEPPL@Command_AltClass_Sintax_DL?$AA@
  01a52	68 00 00 00 00	 push	 OFFSET ??_C@_08JNEOMACB@Commands?$AA@
  01a57	ff d3		 call	 ebx

; 304  : 	// ---
; 305  : 	this->m_Data[COMMAND_ALTCLASS].iEnabled        = GetPrivateProfileInt("Commands", "Command_AltClass_Enabled", NULL, COMMANDS_FILE);

  01a59	68 00 00 00 00	 push	 OFFSET ??_C@_0CE@BMBMBCJB@?4?2Customs?2Commands?2Hgt_Commands?4@
  01a5e	6a 00		 push	 0
  01a60	68 00 00 00 00	 push	 OFFSET ??_C@_0BJ@ELEFHPD@Command_AltClass_Enabled?$AA@
  01a65	68 00 00 00 00	 push	 OFFSET ??_C@_08JNEOMACB@Commands?$AA@
  01a6a	ff d7		 call	 edi

; 306  : 	this->m_Data[COMMAND_ALTCLASS].iVipOnly[0]     = GetPrivateProfileInt("Commands", "Command_AltClass_SwitchFree", NULL, COMMANDS_FILE);

  01a6c	68 00 00 00 00	 push	 OFFSET ??_C@_0CE@BMBMBCJB@?4?2Customs?2Commands?2Hgt_Commands?4@
  01a71	6a 00		 push	 0
  01a73	85 c0		 test	 eax, eax
  01a75	68 00 00 00 00	 push	 OFFSET ??_C@_0BM@HEPHKOPI@Command_AltClass_SwitchFree?$AA@
  01a7a	0f 95 c0	 setne	 al
  01a7d	68 00 00 00 00	 push	 OFFSET ??_C@_08JNEOMACB@Commands?$AA@
  01a82	88 86 e8 12 00
	00		 mov	 BYTE PTR [esi+4840], al
  01a88	ff d7		 call	 edi

; 307  : 	this->m_Data[COMMAND_ALTCLASS].iVipOnly[1]     = GetPrivateProfileInt("Commands", "Command_AltClass_SwitchVip1", NULL, COMMANDS_FILE);

  01a8a	68 00 00 00 00	 push	 OFFSET ??_C@_0CE@BMBMBCJB@?4?2Customs?2Commands?2Hgt_Commands?4@
  01a8f	6a 00		 push	 0
  01a91	68 00 00 00 00	 push	 OFFSET ??_C@_0BM@FHDFBACP@Command_AltClass_SwitchVip1?$AA@
  01a96	68 00 00 00 00	 push	 OFFSET ??_C@_08JNEOMACB@Commands?$AA@
  01a9b	89 86 ec 12 00
	00		 mov	 DWORD PTR [esi+4844], eax
  01aa1	ff d7		 call	 edi

; 308  : 	this->m_Data[COMMAND_ALTCLASS].iVipOnly[2]     = GetPrivateProfileInt("Commands", "Command_AltClass_SwitchVip2", NULL, COMMANDS_FILE);

  01aa3	68 00 00 00 00	 push	 OFFSET ??_C@_0CE@BMBMBCJB@?4?2Customs?2Commands?2Hgt_Commands?4@
  01aa8	6a 00		 push	 0
  01aaa	68 00 00 00 00	 push	 OFFSET ??_C@_0BM@HMBIEDOM@Command_AltClass_SwitchVip2?$AA@
  01aaf	68 00 00 00 00	 push	 OFFSET ??_C@_08JNEOMACB@Commands?$AA@
  01ab4	89 86 f0 12 00
	00		 mov	 DWORD PTR [esi+4848], eax
  01aba	ff d7		 call	 edi

; 309  : 	this->m_Data[COMMAND_ALTCLASS].iVipOnly[3]     = GetPrivateProfileInt("Commands", "Command_AltClass_SwitchVip3", NULL, COMMANDS_FILE);

  01abc	68 00 00 00 00	 push	 OFFSET ??_C@_0CE@BMBMBCJB@?4?2Customs?2Commands?2Hgt_Commands?4@
  01ac1	6a 00		 push	 0
  01ac3	68 00 00 00 00	 push	 OFFSET ??_C@_0BM@GFADHCKN@Command_AltClass_SwitchVip3?$AA@
  01ac8	68 00 00 00 00	 push	 OFFSET ??_C@_08JNEOMACB@Commands?$AA@
  01acd	89 86 f4 12 00
	00		 mov	 DWORD PTR [esi+4852], eax
  01ad3	ff d7		 call	 edi

; 310  : 	this->m_Data[COMMAND_ALTCLASS].iLevel[0]       = GetPrivateProfileInt("Commands", "Command_AltClass_NeedLevelFree", NULL, COMMANDS_FILE);

  01ad5	68 00 00 00 00	 push	 OFFSET ??_C@_0CE@BMBMBCJB@?4?2Customs?2Commands?2Hgt_Commands?4@
  01ada	6a 00		 push	 0
  01adc	68 00 00 00 00	 push	 OFFSET ??_C@_0BP@FIAGLGDN@Command_AltClass_NeedLevelFree?$AA@
  01ae1	68 00 00 00 00	 push	 OFFSET ??_C@_08JNEOMACB@Commands?$AA@
  01ae6	89 86 f8 12 00
	00		 mov	 DWORD PTR [esi+4856], eax
  01aec	ff d7		 call	 edi

; 311  : 	this->m_Data[COMMAND_ALTCLASS].iLevel[1]       = GetPrivateProfileInt("Commands", "Command_AltClass_NeedLevelVip1", NULL, COMMANDS_FILE);

  01aee	68 00 00 00 00	 push	 OFFSET ??_C@_0CE@BMBMBCJB@?4?2Customs?2Commands?2Hgt_Commands?4@
  01af3	6a 00		 push	 0
  01af5	68 00 00 00 00	 push	 OFFSET ??_C@_0BP@HLMEAIOK@Command_AltClass_NeedLevelVip1?$AA@
  01afa	68 00 00 00 00	 push	 OFFSET ??_C@_08JNEOMACB@Commands?$AA@
  01aff	89 86 fc 12 00
	00		 mov	 DWORD PTR [esi+4860], eax
  01b05	ff d7		 call	 edi

; 312  : 	this->m_Data[COMMAND_ALTCLASS].iLevel[2]       = GetPrivateProfileInt("Commands", "Command_AltClass_NeedLevelVip2", NULL, COMMANDS_FILE);

  01b07	68 00 00 00 00	 push	 OFFSET ??_C@_0CE@BMBMBCJB@?4?2Customs?2Commands?2Hgt_Commands?4@
  01b0c	6a 00		 push	 0
  01b0e	68 00 00 00 00	 push	 OFFSET ??_C@_0BP@FAOJFLCJ@Command_AltClass_NeedLevelVip2?$AA@
  01b13	68 00 00 00 00	 push	 OFFSET ??_C@_08JNEOMACB@Commands?$AA@
  01b18	89 86 00 13 00
	00		 mov	 DWORD PTR [esi+4864], eax
  01b1e	ff d7		 call	 edi

; 313  : 	this->m_Data[COMMAND_ALTCLASS].iLevel[3]       = GetPrivateProfileInt("Commands", "Command_AltClass_NeedLevelVip3", NULL, COMMANDS_FILE);

  01b20	68 00 00 00 00	 push	 OFFSET ??_C@_0CE@BMBMBCJB@?4?2Customs?2Commands?2Hgt_Commands?4@
  01b25	6a 00		 push	 0
  01b27	68 00 00 00 00	 push	 OFFSET ??_C@_0BP@EJPCGKGI@Command_AltClass_NeedLevelVip3?$AA@
  01b2c	68 00 00 00 00	 push	 OFFSET ??_C@_08JNEOMACB@Commands?$AA@
  01b31	89 86 04 13 00
	00		 mov	 DWORD PTR [esi+4868], eax
  01b37	ff d7		 call	 edi

; 314  : 	this->m_Data[COMMAND_ALTCLASS].iMoney[0]       = GetPrivateProfileInt("Commands", "Command_AltClass_NeedMoneyFree", NULL, COMMANDS_FILE);

  01b39	68 00 00 00 00	 push	 OFFSET ??_C@_0CE@BMBMBCJB@?4?2Customs?2Commands?2Hgt_Commands?4@
  01b3e	6a 00		 push	 0
  01b40	68 00 00 00 00	 push	 OFFSET ??_C@_0BP@NOKPOOCL@Command_AltClass_NeedMoneyFree?$AA@
  01b45	68 00 00 00 00	 push	 OFFSET ??_C@_08JNEOMACB@Commands?$AA@
  01b4a	89 86 08 13 00
	00		 mov	 DWORD PTR [esi+4872], eax
  01b50	ff d7		 call	 edi

; 315  : 	this->m_Data[COMMAND_ALTCLASS].iMoney[1]       = GetPrivateProfileInt("Commands", "Command_AltClass_NeedMoneyVip1", NULL, COMMANDS_FILE);

  01b52	68 00 00 00 00	 push	 OFFSET ??_C@_0CE@BMBMBCJB@?4?2Customs?2Commands?2Hgt_Commands?4@
  01b57	6a 00		 push	 0
  01b59	68 00 00 00 00	 push	 OFFSET ??_C@_0BP@PNGNFAPM@Command_AltClass_NeedMoneyVip1?$AA@
  01b5e	68 00 00 00 00	 push	 OFFSET ??_C@_08JNEOMACB@Commands?$AA@
  01b63	89 86 0c 13 00
	00		 mov	 DWORD PTR [esi+4876], eax
  01b69	ff d7		 call	 edi

; 316  : 	this->m_Data[COMMAND_ALTCLASS].iMoney[2]       = GetPrivateProfileInt("Commands", "Command_AltClass_NeedMoneyVip2", NULL, COMMANDS_FILE);

  01b6b	68 00 00 00 00	 push	 OFFSET ??_C@_0CE@BMBMBCJB@?4?2Customs?2Commands?2Hgt_Commands?4@
  01b70	6a 00		 push	 0
  01b72	68 00 00 00 00	 push	 OFFSET ??_C@_0BP@NGEAADDP@Command_AltClass_NeedMoneyVip2?$AA@
  01b77	68 00 00 00 00	 push	 OFFSET ??_C@_08JNEOMACB@Commands?$AA@
  01b7c	89 86 10 13 00
	00		 mov	 DWORD PTR [esi+4880], eax
  01b82	ff d7		 call	 edi

; 317  : 	this->m_Data[COMMAND_ALTCLASS].iMoney[3]       = GetPrivateProfileInt("Commands", "Command_AltClass_NeedMoneyVip3", NULL, COMMANDS_FILE);

  01b84	68 00 00 00 00	 push	 OFFSET ??_C@_0CE@BMBMBCJB@?4?2Customs?2Commands?2Hgt_Commands?4@
  01b89	6a 00		 push	 0
  01b8b	68 00 00 00 00	 push	 OFFSET ??_C@_0BP@MPFLDCHO@Command_AltClass_NeedMoneyVip3?$AA@
  01b90	68 00 00 00 00	 push	 OFFSET ??_C@_08JNEOMACB@Commands?$AA@
  01b95	89 86 14 13 00
	00		 mov	 DWORD PTR [esi+4884], eax
  01b9b	ff d7		 call	 edi

; 318  : 	this->m_Data[COMMAND_ALTCLASS].iResets[0]		= GetPrivateProfileInt("Commands", "Command_AltClass_NeedResetsFree", NULL, COMMANDS_FILE);

  01b9d	68 00 00 00 00	 push	 OFFSET ??_C@_0CE@BMBMBCJB@?4?2Customs?2Commands?2Hgt_Commands?4@
  01ba2	6a 00		 push	 0
  01ba4	68 00 00 00 00	 push	 OFFSET ??_C@_0CA@GPEEEKBA@Command_AltClass_NeedResetsFree?$AA@
  01ba9	68 00 00 00 00	 push	 OFFSET ??_C@_08JNEOMACB@Commands?$AA@
  01bae	89 86 18 13 00
	00		 mov	 DWORD PTR [esi+4888], eax
  01bb4	ff d7		 call	 edi

; 319  : 	this->m_Data[COMMAND_ALTCLASS].iResets[1]		= GetPrivateProfileInt("Commands", "Command_AltClass_NeedResetsVip1", NULL, COMMANDS_FILE);

  01bb6	68 00 00 00 00	 push	 OFFSET ??_C@_0CE@BMBMBCJB@?4?2Customs?2Commands?2Hgt_Commands?4@
  01bbb	6a 00		 push	 0
  01bbd	68 00 00 00 00	 push	 OFFSET ??_C@_0CA@EMIGPEMH@Command_AltClass_NeedResetsVip1?$AA@
  01bc2	68 00 00 00 00	 push	 OFFSET ??_C@_08JNEOMACB@Commands?$AA@
  01bc7	89 86 1c 13 00
	00		 mov	 DWORD PTR [esi+4892], eax
  01bcd	ff d7		 call	 edi

; 320  : 	this->m_Data[COMMAND_ALTCLASS].iResets[2]		= GetPrivateProfileInt("Commands", "Command_AltClass_NeedResetsVip2", NULL, COMMANDS_FILE);

  01bcf	68 00 00 00 00	 push	 OFFSET ??_C@_0CE@BMBMBCJB@?4?2Customs?2Commands?2Hgt_Commands?4@
  01bd4	6a 00		 push	 0
  01bd6	68 00 00 00 00	 push	 OFFSET ??_C@_0CA@GHKLKHAE@Command_AltClass_NeedResetsVip2?$AA@
  01bdb	68 00 00 00 00	 push	 OFFSET ??_C@_08JNEOMACB@Commands?$AA@
  01be0	89 86 20 13 00
	00		 mov	 DWORD PTR [esi+4896], eax
  01be6	ff d7		 call	 edi

; 321  : 	this->m_Data[COMMAND_ALTCLASS].iResets[3]		= GetPrivateProfileInt("Commands", "Command_AltClass_NeedResetsVip3", NULL, COMMANDS_FILE);

  01be8	68 00 00 00 00	 push	 OFFSET ??_C@_0CE@BMBMBCJB@?4?2Customs?2Commands?2Hgt_Commands?4@
  01bed	6a 00		 push	 0
  01bef	68 00 00 00 00	 push	 OFFSET ??_C@_0CA@HOLAJGEF@Command_AltClass_NeedResetsVip3?$AA@
  01bf4	68 00 00 00 00	 push	 OFFSET ??_C@_08JNEOMACB@Commands?$AA@
  01bf9	89 86 24 13 00
	00		 mov	 DWORD PTR [esi+4900], eax
  01bff	ff d7		 call	 edi

; 322  : 	this->m_Data[COMMAND_ALTCLASS].iMResets[0]		= GetPrivateProfileInt("Commands", "Command_AltClass_NeedMasterResetsFree", NULL, COMMANDS_FILE);

  01c01	68 00 00 00 00	 push	 OFFSET ??_C@_0CE@BMBMBCJB@?4?2Customs?2Commands?2Hgt_Commands?4@
  01c06	89 86 28 13 00
	00		 mov	 DWORD PTR [esi+4904], eax
  01c0c	6a 00		 push	 0
  01c0e	68 00 00 00 00	 push	 OFFSET ??_C@_0CG@JLAGMHKC@Command_AltClass_NeedMasterReset@
  01c13	68 00 00 00 00	 push	 OFFSET ??_C@_08JNEOMACB@Commands?$AA@
  01c18	ff d7		 call	 edi

; 323  : 	this->m_Data[COMMAND_ALTCLASS].iMResets[1]		= GetPrivateProfileInt("Commands", "Command_AltClass_NeedMasterResetsVip1", NULL, COMMANDS_FILE);

  01c1a	68 00 00 00 00	 push	 OFFSET ??_C@_0CE@BMBMBCJB@?4?2Customs?2Commands?2Hgt_Commands?4@
  01c1f	6a 00		 push	 0
  01c21	68 00 00 00 00	 push	 OFFSET ??_C@_0CG@LIMEHJHF@Command_AltClass_NeedMasterReset@
  01c26	68 00 00 00 00	 push	 OFFSET ??_C@_08JNEOMACB@Commands?$AA@
  01c2b	89 86 2c 13 00
	00		 mov	 DWORD PTR [esi+4908], eax
  01c31	ff d7		 call	 edi

; 324  : 	this->m_Data[COMMAND_ALTCLASS].iMResets[2]		= GetPrivateProfileInt("Commands", "Command_AltClass_NeedMasterResetsVip2", NULL, COMMANDS_FILE);

  01c33	68 00 00 00 00	 push	 OFFSET ??_C@_0CE@BMBMBCJB@?4?2Customs?2Commands?2Hgt_Commands?4@
  01c38	6a 00		 push	 0
  01c3a	68 00 00 00 00	 push	 OFFSET ??_C@_0CG@JDOJCKLG@Command_AltClass_NeedMasterReset@
  01c3f	68 00 00 00 00	 push	 OFFSET ??_C@_08JNEOMACB@Commands?$AA@
  01c44	89 86 30 13 00
	00		 mov	 DWORD PTR [esi+4912], eax
  01c4a	ff d7		 call	 edi

; 325  : 	this->m_Data[COMMAND_ALTCLASS].iMResets[3]		= GetPrivateProfileInt("Commands", "Command_AltClass_NeedMasterResetsVip3", NULL, COMMANDS_FILE);

  01c4c	68 00 00 00 00	 push	 OFFSET ??_C@_0CE@BMBMBCJB@?4?2Customs?2Commands?2Hgt_Commands?4@
  01c51	6a 00		 push	 0
  01c53	68 00 00 00 00	 push	 OFFSET ??_C@_0CG@IKPCBLPH@Command_AltClass_NeedMasterReset@
  01c58	68 00 00 00 00	 push	 OFFSET ??_C@_08JNEOMACB@Commands?$AA@
  01c5d	89 86 34 13 00
	00		 mov	 DWORD PTR [esi+4916], eax
  01c63	ff d7		 call	 edi

; 326  : 	// ---
; 327  : 	GetPrivateProfileString("Commands", "Command_CharInfo_Sintax", NULL, this->m_Data[COMMAND_CHARINFO].szSintax, sizeof(this->m_Data[COMMAND_CHARINFO].szSintax), COMMANDS_FILE);

  01c65	68 00 00 00 00	 push	 OFFSET ??_C@_0CE@BMBMBCJB@?4?2Customs?2Commands?2Hgt_Commands?4@
  01c6a	6a 14		 push	 20			; 00000014H
  01c6c	8d 8e 24 15 00
	00		 lea	 ecx, DWORD PTR [esi+5412]
  01c72	51		 push	 ecx
  01c73	6a 00		 push	 0
  01c75	68 00 00 00 00	 push	 OFFSET ??_C@_0BI@JBAIDPBK@Command_CharInfo_Sintax?$AA@
  01c7a	68 00 00 00 00	 push	 OFFSET ??_C@_08JNEOMACB@Commands?$AA@
  01c7f	89 86 38 13 00
	00		 mov	 DWORD PTR [esi+4920], eax
  01c85	ff d3		 call	 ebx

; 328  : 	// ---
; 329  : 	this->m_Data[COMMAND_CHARINFO].iEnabled        = GetPrivateProfileInt("Commands", "Command_CharInfo_Enabled", NULL, COMMANDS_FILE);

  01c87	68 00 00 00 00	 push	 OFFSET ??_C@_0CE@BMBMBCJB@?4?2Customs?2Commands?2Hgt_Commands?4@
  01c8c	6a 00		 push	 0
  01c8e	68 00 00 00 00	 push	 OFFSET ??_C@_0BJ@HLHDGBMN@Command_CharInfo_Enabled?$AA@
  01c93	68 00 00 00 00	 push	 OFFSET ??_C@_08JNEOMACB@Commands?$AA@
  01c98	ff d7		 call	 edi

; 330  : 	this->m_Data[COMMAND_CHARINFO].iVipOnly[0]     = GetPrivateProfileInt("Commands", "Command_CharInfo_SwitchFree", NULL, COMMANDS_FILE);

  01c9a	68 00 00 00 00	 push	 OFFSET ??_C@_0CE@BMBMBCJB@?4?2Customs?2Commands?2Hgt_Commands?4@
  01c9f	6a 00		 push	 0
  01ca1	85 c0		 test	 eax, eax
  01ca3	68 00 00 00 00	 push	 OFFSET ??_C@_0BM@NGBOKAHL@Command_CharInfo_SwitchFree?$AA@
  01ca8	0f 95 c2	 setne	 dl
  01cab	68 00 00 00 00	 push	 OFFSET ??_C@_08JNEOMACB@Commands?$AA@
  01cb0	88 96 cc 14 00
	00		 mov	 BYTE PTR [esi+5324], dl
  01cb6	ff d7		 call	 edi

; 331  : 	this->m_Data[COMMAND_CHARINFO].iVipOnly[1]     = GetPrivateProfileInt("Commands", "Command_CharInfo_SwitchVip1", NULL, COMMANDS_FILE);

  01cb8	68 00 00 00 00	 push	 OFFSET ??_C@_0CE@BMBMBCJB@?4?2Customs?2Commands?2Hgt_Commands?4@
  01cbd	6a 00		 push	 0
  01cbf	68 00 00 00 00	 push	 OFFSET ??_C@_0BM@PFNMBOKM@Command_CharInfo_SwitchVip1?$AA@
  01cc4	68 00 00 00 00	 push	 OFFSET ??_C@_08JNEOMACB@Commands?$AA@
  01cc9	89 86 d0 14 00
	00		 mov	 DWORD PTR [esi+5328], eax
  01ccf	ff d7		 call	 edi

; 332  : 	this->m_Data[COMMAND_CHARINFO].iVipOnly[2]     = GetPrivateProfileInt("Commands", "Command_CharInfo_SwitchVip2", NULL, COMMANDS_FILE);

  01cd1	68 00 00 00 00	 push	 OFFSET ??_C@_0CE@BMBMBCJB@?4?2Customs?2Commands?2Hgt_Commands?4@
  01cd6	6a 00		 push	 0
  01cd8	68 00 00 00 00	 push	 OFFSET ??_C@_0BM@NOPBENGP@Command_CharInfo_SwitchVip2?$AA@
  01cdd	68 00 00 00 00	 push	 OFFSET ??_C@_08JNEOMACB@Commands?$AA@
  01ce2	89 86 d4 14 00
	00		 mov	 DWORD PTR [esi+5332], eax
  01ce8	ff d7		 call	 edi

; 333  : 	this->m_Data[COMMAND_CHARINFO].iVipOnly[3]     = GetPrivateProfileInt("Commands", "Command_CharInfo_SwitchVip3", NULL, COMMANDS_FILE);

  01cea	68 00 00 00 00	 push	 OFFSET ??_C@_0CE@BMBMBCJB@?4?2Customs?2Commands?2Hgt_Commands?4@
  01cef	6a 00		 push	 0
  01cf1	68 00 00 00 00	 push	 OFFSET ??_C@_0BM@MHOKHMCO@Command_CharInfo_SwitchVip3?$AA@
  01cf6	68 00 00 00 00	 push	 OFFSET ??_C@_08JNEOMACB@Commands?$AA@
  01cfb	89 86 d8 14 00
	00		 mov	 DWORD PTR [esi+5336], eax
  01d01	ff d7		 call	 edi

; 334  : 	this->m_Data[COMMAND_CHARINFO].iLevel[0]       = GetPrivateProfileInt("Commands", "Command_CharInfo_NeedLevelFree", NULL, COMMANDS_FILE);

  01d03	68 00 00 00 00	 push	 OFFSET ??_C@_0CE@BMBMBCJB@?4?2Customs?2Commands?2Hgt_Commands?4@
  01d08	6a 00		 push	 0
  01d0a	68 00 00 00 00	 push	 OFFSET ??_C@_0BP@PMCAGEBE@Command_CharInfo_NeedLevelFree?$AA@
  01d0f	68 00 00 00 00	 push	 OFFSET ??_C@_08JNEOMACB@Commands?$AA@
  01d14	89 86 dc 14 00
	00		 mov	 DWORD PTR [esi+5340], eax
  01d1a	ff d7		 call	 edi

; 335  : 	this->m_Data[COMMAND_CHARINFO].iLevel[1]       = GetPrivateProfileInt("Commands", "Command_CharInfo_NeedLevelVip1", NULL, COMMANDS_FILE);

  01d1c	68 00 00 00 00	 push	 OFFSET ??_C@_0CE@BMBMBCJB@?4?2Customs?2Commands?2Hgt_Commands?4@
  01d21	6a 00		 push	 0
  01d23	68 00 00 00 00	 push	 OFFSET ??_C@_0BP@NPOCNKMD@Command_CharInfo_NeedLevelVip1?$AA@
  01d28	68 00 00 00 00	 push	 OFFSET ??_C@_08JNEOMACB@Commands?$AA@
  01d2d	89 86 e0 14 00
	00		 mov	 DWORD PTR [esi+5344], eax
  01d33	ff d7		 call	 edi

; 336  : 	this->m_Data[COMMAND_CHARINFO].iLevel[2]       = GetPrivateProfileInt("Commands", "Command_CharInfo_NeedLevelVip2", NULL, COMMANDS_FILE);

  01d35	68 00 00 00 00	 push	 OFFSET ??_C@_0CE@BMBMBCJB@?4?2Customs?2Commands?2Hgt_Commands?4@
  01d3a	6a 00		 push	 0
  01d3c	68 00 00 00 00	 push	 OFFSET ??_C@_0BP@PEMPIJAA@Command_CharInfo_NeedLevelVip2?$AA@
  01d41	68 00 00 00 00	 push	 OFFSET ??_C@_08JNEOMACB@Commands?$AA@
  01d46	89 86 e4 14 00
	00		 mov	 DWORD PTR [esi+5348], eax
  01d4c	ff d7		 call	 edi
  01d4e	89 86 e8 14 00
	00		 mov	 DWORD PTR [esi+5352], eax

; 337  : 	this->m_Data[COMMAND_CHARINFO].iLevel[3]       = GetPrivateProfileInt("Commands", "Command_CharInfo_NeedLevelVip3", NULL, COMMANDS_FILE);

  01d54	68 00 00 00 00	 push	 OFFSET ??_C@_0CE@BMBMBCJB@?4?2Customs?2Commands?2Hgt_Commands?4@
  01d59	6a 00		 push	 0
  01d5b	68 00 00 00 00	 push	 OFFSET ??_C@_0BP@ONNELIEB@Command_CharInfo_NeedLevelVip3?$AA@
  01d60	68 00 00 00 00	 push	 OFFSET ??_C@_08JNEOMACB@Commands?$AA@
  01d65	ff d7		 call	 edi

; 338  : 	this->m_Data[COMMAND_CHARINFO].iMoney[0]       = GetPrivateProfileInt("Commands", "Command_CharInfo_NeedMoneyFree", NULL, COMMANDS_FILE);

  01d67	68 00 00 00 00	 push	 OFFSET ??_C@_0CE@BMBMBCJB@?4?2Customs?2Commands?2Hgt_Commands?4@
  01d6c	6a 00		 push	 0
  01d6e	68 00 00 00 00	 push	 OFFSET ??_C@_0BP@HKIJDMAC@Command_CharInfo_NeedMoneyFree?$AA@
  01d73	68 00 00 00 00	 push	 OFFSET ??_C@_08JNEOMACB@Commands?$AA@
  01d78	89 86 ec 14 00
	00		 mov	 DWORD PTR [esi+5356], eax
  01d7e	ff d7		 call	 edi

; 339  : 	this->m_Data[COMMAND_CHARINFO].iMoney[1]       = GetPrivateProfileInt("Commands", "Command_CharInfo_NeedMoneyVip1", NULL, COMMANDS_FILE);

  01d80	68 00 00 00 00	 push	 OFFSET ??_C@_0CE@BMBMBCJB@?4?2Customs?2Commands?2Hgt_Commands?4@
  01d85	6a 00		 push	 0
  01d87	68 00 00 00 00	 push	 OFFSET ??_C@_0BP@FJELICNF@Command_CharInfo_NeedMoneyVip1?$AA@
  01d8c	68 00 00 00 00	 push	 OFFSET ??_C@_08JNEOMACB@Commands?$AA@
  01d91	89 86 f0 14 00
	00		 mov	 DWORD PTR [esi+5360], eax
  01d97	ff d7		 call	 edi

; 340  : 	this->m_Data[COMMAND_CHARINFO].iMoney[2]       = GetPrivateProfileInt("Commands", "Command_CharInfo_NeedMoneyVip2", NULL, COMMANDS_FILE);

  01d99	68 00 00 00 00	 push	 OFFSET ??_C@_0CE@BMBMBCJB@?4?2Customs?2Commands?2Hgt_Commands?4@
  01d9e	6a 00		 push	 0
  01da0	68 00 00 00 00	 push	 OFFSET ??_C@_0BP@HCGGNBBG@Command_CharInfo_NeedMoneyVip2?$AA@
  01da5	68 00 00 00 00	 push	 OFFSET ??_C@_08JNEOMACB@Commands?$AA@
  01daa	89 86 f4 14 00
	00		 mov	 DWORD PTR [esi+5364], eax
  01db0	ff d7		 call	 edi

; 341  : 	this->m_Data[COMMAND_CHARINFO].iMoney[3]       = GetPrivateProfileInt("Commands", "Command_CharInfo_NeedMoneyVip3", NULL, COMMANDS_FILE);

  01db2	68 00 00 00 00	 push	 OFFSET ??_C@_0CE@BMBMBCJB@?4?2Customs?2Commands?2Hgt_Commands?4@
  01db7	6a 00		 push	 0
  01db9	68 00 00 00 00	 push	 OFFSET ??_C@_0BP@GLHNOAFH@Command_CharInfo_NeedMoneyVip3?$AA@
  01dbe	68 00 00 00 00	 push	 OFFSET ??_C@_08JNEOMACB@Commands?$AA@
  01dc3	89 86 f8 14 00
	00		 mov	 DWORD PTR [esi+5368], eax
  01dc9	ff d7		 call	 edi

; 342  : 	this->m_Data[COMMAND_CHARINFO].iResets[0]		= GetPrivateProfileInt("Commands", "Command_CharInfo_NeedResetsFree", NULL, COMMANDS_FILE);

  01dcb	68 00 00 00 00	 push	 OFFSET ??_C@_0CE@BMBMBCJB@?4?2Customs?2Commands?2Hgt_Commands?4@
  01dd0	6a 00		 push	 0
  01dd2	68 00 00 00 00	 push	 OFFSET ??_C@_0CA@CNFCPEKO@Command_CharInfo_NeedResetsFree?$AA@
  01dd7	68 00 00 00 00	 push	 OFFSET ??_C@_08JNEOMACB@Commands?$AA@
  01ddc	89 86 fc 14 00
	00		 mov	 DWORD PTR [esi+5372], eax
  01de2	ff d7		 call	 edi

; 343  : 	this->m_Data[COMMAND_CHARINFO].iResets[1]		= GetPrivateProfileInt("Commands", "Command_CharInfo_NeedResetsVip1", NULL, COMMANDS_FILE);

  01de4	68 00 00 00 00	 push	 OFFSET ??_C@_0CE@BMBMBCJB@?4?2Customs?2Commands?2Hgt_Commands?4@
  01de9	6a 00		 push	 0
  01deb	68 00 00 00 00	 push	 OFFSET ??_C@_0CA@OJAEKHJ@Command_CharInfo_NeedResetsVip1?$AA@
  01df0	68 00 00 00 00	 push	 OFFSET ??_C@_08JNEOMACB@Commands?$AA@
  01df5	89 86 00 15 00
	00		 mov	 DWORD PTR [esi+5376], eax
  01dfb	ff d7		 call	 edi

; 344  : 	this->m_Data[COMMAND_CHARINFO].iResets[2]		= GetPrivateProfileInt("Commands", "Command_CharInfo_NeedResetsVip2", NULL, COMMANDS_FILE);

  01dfd	68 00 00 00 00	 push	 OFFSET ??_C@_0CE@BMBMBCJB@?4?2Customs?2Commands?2Hgt_Commands?4@
  01e02	6a 00		 push	 0
  01e04	68 00 00 00 00	 push	 OFFSET ??_C@_0CA@CFLNBJLK@Command_CharInfo_NeedResetsVip2?$AA@
  01e09	68 00 00 00 00	 push	 OFFSET ??_C@_08JNEOMACB@Commands?$AA@
  01e0e	89 86 04 15 00
	00		 mov	 DWORD PTR [esi+5380], eax
  01e14	ff d7		 call	 edi

; 345  : 	this->m_Data[COMMAND_CHARINFO].iResets[3]		= GetPrivateProfileInt("Commands", "Command_CharInfo_NeedResetsVip3", NULL, COMMANDS_FILE);

  01e16	68 00 00 00 00	 push	 OFFSET ??_C@_0CE@BMBMBCJB@?4?2Customs?2Commands?2Hgt_Commands?4@
  01e1b	6a 00		 push	 0
  01e1d	68 00 00 00 00	 push	 OFFSET ??_C@_0CA@DMKGCIPL@Command_CharInfo_NeedResetsVip3?$AA@
  01e22	68 00 00 00 00	 push	 OFFSET ??_C@_08JNEOMACB@Commands?$AA@
  01e27	89 86 08 15 00
	00		 mov	 DWORD PTR [esi+5384], eax
  01e2d	ff d7		 call	 edi

; 346  : 	this->m_Data[COMMAND_CHARINFO].iMResets[0]		= GetPrivateProfileInt("Commands", "Command_CharInfo_NeedMasterResetsFree", NULL, COMMANDS_FILE);

  01e2f	68 00 00 00 00	 push	 OFFSET ??_C@_0CE@BMBMBCJB@?4?2Customs?2Commands?2Hgt_Commands?4@
  01e34	6a 00		 push	 0
  01e36	68 00 00 00 00	 push	 OFFSET ??_C@_0CG@BCFNFCDP@Command_CharInfo_NeedMasterReset@
  01e3b	68 00 00 00 00	 push	 OFFSET ??_C@_08JNEOMACB@Commands?$AA@
  01e40	89 86 0c 15 00
	00		 mov	 DWORD PTR [esi+5388], eax
  01e46	ff d7		 call	 edi

; 347  : 	this->m_Data[COMMAND_CHARINFO].iMResets[1]		= GetPrivateProfileInt("Commands", "Command_CharInfo_NeedMasterResetsVip1", NULL, COMMANDS_FILE);

  01e48	68 00 00 00 00	 push	 OFFSET ??_C@_0CE@BMBMBCJB@?4?2Customs?2Commands?2Hgt_Commands?4@
  01e4d	6a 00		 push	 0
  01e4f	68 00 00 00 00	 push	 OFFSET ??_C@_0CG@DBJPOMOI@Command_CharInfo_NeedMasterReset@
  01e54	68 00 00 00 00	 push	 OFFSET ??_C@_08JNEOMACB@Commands?$AA@
  01e59	89 86 10 15 00
	00		 mov	 DWORD PTR [esi+5392], eax
  01e5f	ff d7		 call	 edi

; 348  : 	this->m_Data[COMMAND_CHARINFO].iMResets[2]		= GetPrivateProfileInt("Commands", "Command_CharInfo_NeedMasterResetsVip2", NULL, COMMANDS_FILE);

  01e61	68 00 00 00 00	 push	 OFFSET ??_C@_0CE@BMBMBCJB@?4?2Customs?2Commands?2Hgt_Commands?4@
  01e66	6a 00		 push	 0
  01e68	68 00 00 00 00	 push	 OFFSET ??_C@_0CG@BKLCLPCL@Command_CharInfo_NeedMasterReset@
  01e6d	68 00 00 00 00	 push	 OFFSET ??_C@_08JNEOMACB@Commands?$AA@
  01e72	89 86 14 15 00
	00		 mov	 DWORD PTR [esi+5396], eax
  01e78	ff d7		 call	 edi

; 349  : 	this->m_Data[COMMAND_CHARINFO].iMResets[3]		= GetPrivateProfileInt("Commands", "Command_CharInfo_NeedMasterResetsVip3", NULL, COMMANDS_FILE);

  01e7a	68 00 00 00 00	 push	 OFFSET ??_C@_0CE@BMBMBCJB@?4?2Customs?2Commands?2Hgt_Commands?4@
  01e7f	6a 00		 push	 0
  01e81	68 00 00 00 00	 push	 OFFSET ??_C@_0CG@DKJIOGK@Command_CharInfo_NeedMasterReset@
  01e86	68 00 00 00 00	 push	 OFFSET ??_C@_08JNEOMACB@Commands?$AA@
  01e8b	89 86 18 15 00
	00		 mov	 DWORD PTR [esi+5400], eax
  01e91	ff d7		 call	 edi

; 350  : 	// ---
; 351  : 	LogAdd(LOG_GOLD, "[COMMANDS FILE] Carregado !");

  01e93	68 00 00 00 00	 push	 OFFSET ??_C@_0BM@CBACLGEP@?$FLCOMMANDS?5FILE?$FN?5Carregado?5?$CB?$AA@
  01e98	6a 05		 push	 5
  01e9a	89 86 1c 15 00
	00		 mov	 DWORD PTR [esi+5404], eax
  01ea0	e8 00 00 00 00	 call	 ?LogAdd@@YAXW4eLogColor@@PADZZ ; LogAdd
  01ea5	83 c4 08	 add	 esp, 8

; 352  : }

  01ea8	5f		 pop	 edi
  01ea9	5e		 pop	 esi
  01eaa	5b		 pop	 ebx
  01eab	c3		 ret	 0
?Load@CCommands@@QAEXXZ ENDP				; CCommands::Load
_TEXT	ENDS
PUBLIC	??_C@_0CB@MAFGFPFE@?$FL?$CFs?$FN?5Master?5Reset?5Necessario?5?$CFd?4@ ; `string'
PUBLIC	??_C@_0BK@BOMDBELC@?$FL?$CFs?$FN?5Reset?5Necessario?5?$CFd?4?$AA@ ; `string'
PUBLIC	??_C@_0BI@MKCDIMJM@?$FL?$CFs?$FN?5Zen?5Necessario?5?$CFd?4?$AA@ ; `string'
PUBLIC	??_C@_0BK@EJCDFBLH@?$FL?$CFs?$FN?5Level?5Necessario?5?$CFd?4?$AA@ ; `string'
PUBLIC	??_C@_0BH@IBGCOIHP@?$FL?$CFs?$FN?5Vip?5Insuficiente?4?$AA@ ; `string'
PUBLIC	??_C@_0BJ@JBJINFIJ@?$FL?$CFs?$FN?5Comando?5Desativado?4?$AA@ ; `string'
PUBLIC	?IsCheck@CCommands@@QAE_NPAUOBJECTSTRUCT@@H@Z	; CCommands::IsCheck
EXTRN	?GCMoneySend@@YAXHK@Z:PROC			; GCMoneySend
EXTRN	?MsgUser@@YAXHHPADZZ:PROC			; MsgUser
;	COMDAT ??_C@_0CB@MAFGFPFE@?$FL?$CFs?$FN?5Master?5Reset?5Necessario?5?$CFd?4@
CONST	SEGMENT
??_C@_0CB@MAFGFPFE@?$FL?$CFs?$FN?5Master?5Reset?5Necessario?5?$CFd?4@ DB '['
	DB	'%s] Master Reset Necessario %d.', 00H	; `string'
CONST	ENDS
;	COMDAT ??_C@_0BK@BOMDBELC@?$FL?$CFs?$FN?5Reset?5Necessario?5?$CFd?4?$AA@
CONST	SEGMENT
??_C@_0BK@BOMDBELC@?$FL?$CFs?$FN?5Reset?5Necessario?5?$CFd?4?$AA@ DB '[%s'
	DB	'] Reset Necessario %d.', 00H		; `string'
CONST	ENDS
;	COMDAT ??_C@_0BI@MKCDIMJM@?$FL?$CFs?$FN?5Zen?5Necessario?5?$CFd?4?$AA@
CONST	SEGMENT
??_C@_0BI@MKCDIMJM@?$FL?$CFs?$FN?5Zen?5Necessario?5?$CFd?4?$AA@ DB '[%s] '
	DB	'Zen Necessario %d.', 00H			; `string'
CONST	ENDS
;	COMDAT ??_C@_0BK@EJCDFBLH@?$FL?$CFs?$FN?5Level?5Necessario?5?$CFd?4?$AA@
CONST	SEGMENT
??_C@_0BK@EJCDFBLH@?$FL?$CFs?$FN?5Level?5Necessario?5?$CFd?4?$AA@ DB '[%s'
	DB	'] Level Necessario %d.', 00H		; `string'
CONST	ENDS
;	COMDAT ??_C@_0BH@IBGCOIHP@?$FL?$CFs?$FN?5Vip?5Insuficiente?4?$AA@
CONST	SEGMENT
??_C@_0BH@IBGCOIHP@?$FL?$CFs?$FN?5Vip?5Insuficiente?4?$AA@ DB '[%s] Vip I'
	DB	'nsuficiente.', 00H				; `string'
CONST	ENDS
;	COMDAT ??_C@_0BJ@JBJINFIJ@?$FL?$CFs?$FN?5Comando?5Desativado?4?$AA@
CONST	SEGMENT
??_C@_0BJ@JBJINFIJ@?$FL?$CFs?$FN?5Comando?5Desativado?4?$AA@ DB '[%s] Com'
	DB	'ando Desativado.', 00H			; `string'
; Function compile flags: /Ogtp
CONST	ENDS
