; Listing generated by Microsoft (R) Optimizing Compiler Version 16.00.30319.01 

	TITLE	C:\Users\faelhs\mu-1.1\eMu - GameServer Sapphire S0\GameServer\Commands.cpp
	.686P
	.XMM
	include listing.inc
	.model	flat

INCLUDELIB LIBCMT
INCLUDELIB OLDNAMES

PUBLIC	?gCommands@@3VCCommands@@A			; gCommands
_BSS	SEGMENT
?gCommands@@3VCCommands@@A DB 0bd10H DUP (?)		; gCommands
_BSS	ENDS
PUBLIC	??_C@_0BM@CBACLGEP@?$FLCOMMANDS?5FILE?$FN?5Carregado?5?$CB?$AA@ ; `string'
PUBLIC	??_C@_0CG@DKJIOGK@Command_CharInfo_NeedMasterReset@ ; `string'
PUBLIC	??_C@_0CG@BKLCLPCL@Command_CharInfo_NeedMasterReset@ ; `string'
PUBLIC	??_C@_0CG@DBJPOMOI@Command_CharInfo_NeedMasterReset@ ; `string'
PUBLIC	??_C@_0CG@BCFNFCDP@Command_CharInfo_NeedMasterReset@ ; `string'
PUBLIC	??_C@_0CA@DMKGCIPL@Command_CharInfo_NeedResetsVip3?$AA@ ; `string'
PUBLIC	??_C@_0CA@CFLNBJLK@Command_CharInfo_NeedResetsVip2?$AA@ ; `string'
PUBLIC	??_C@_0CA@OJAEKHJ@Command_CharInfo_NeedResetsVip1?$AA@ ; `string'
PUBLIC	??_C@_0CA@CNFCPEKO@Command_CharInfo_NeedResetsFree?$AA@ ; `string'
PUBLIC	??_C@_0BP@GLHNOAFH@Command_CharInfo_NeedMoneyVip3?$AA@ ; `string'
PUBLIC	??_C@_0BP@HCGGNBBG@Command_CharInfo_NeedMoneyVip2?$AA@ ; `string'
PUBLIC	??_C@_0BP@FJELICNF@Command_CharInfo_NeedMoneyVip1?$AA@ ; `string'
PUBLIC	??_C@_0BP@HKIJDMAC@Command_CharInfo_NeedMoneyFree?$AA@ ; `string'
PUBLIC	??_C@_0BP@ONNELIEB@Command_CharInfo_NeedLevelVip3?$AA@ ; `string'
PUBLIC	??_C@_0BP@PEMPIJAA@Command_CharInfo_NeedLevelVip2?$AA@ ; `string'
PUBLIC	??_C@_0BP@NPOCNKMD@Command_CharInfo_NeedLevelVip1?$AA@ ; `string'
PUBLIC	??_C@_0BP@PMCAGEBE@Command_CharInfo_NeedLevelFree?$AA@ ; `string'
PUBLIC	??_C@_0BM@MHOKHMCO@Command_CharInfo_SwitchVip3?$AA@ ; `string'
PUBLIC	??_C@_0BM@NOPBENGP@Command_CharInfo_SwitchVip2?$AA@ ; `string'
PUBLIC	??_C@_0BM@PFNMBOKM@Command_CharInfo_SwitchVip1?$AA@ ; `string'
PUBLIC	??_C@_0BM@NGBOKAHL@Command_CharInfo_SwitchFree?$AA@ ; `string'
PUBLIC	??_C@_0BJ@HLHDGBMN@Command_CharInfo_Enabled?$AA@ ; `string'
PUBLIC	??_C@_0BI@JBAIDPBK@Command_CharInfo_Sintax?$AA@	; `string'
PUBLIC	??_C@_0CG@IKPCBLPH@Command_AltClass_NeedMasterReset@ ; `string'
PUBLIC	??_C@_0CG@JDOJCKLG@Command_AltClass_NeedMasterReset@ ; `string'
PUBLIC	??_C@_0CG@LIMEHJHF@Command_AltClass_NeedMasterReset@ ; `string'
PUBLIC	??_C@_0CG@JLAGMHKC@Command_AltClass_NeedMasterReset@ ; `string'
PUBLIC	??_C@_0CA@HOLAJGEF@Command_AltClass_NeedResetsVip3?$AA@ ; `string'
PUBLIC	??_C@_0CA@GHKLKHAE@Command_AltClass_NeedResetsVip2?$AA@ ; `string'
PUBLIC	??_C@_0CA@EMIGPEMH@Command_AltClass_NeedResetsVip1?$AA@ ; `string'
PUBLIC	??_C@_0CA@GPEEEKBA@Command_AltClass_NeedResetsFree?$AA@ ; `string'
PUBLIC	??_C@_0BP@MPFLDCHO@Command_AltClass_NeedMoneyVip3?$AA@ ; `string'
PUBLIC	??_C@_0BP@NGEAADDP@Command_AltClass_NeedMoneyVip2?$AA@ ; `string'
PUBLIC	??_C@_0BP@PNGNFAPM@Command_AltClass_NeedMoneyVip1?$AA@ ; `string'
PUBLIC	??_C@_0BP@NOKPOOCL@Command_AltClass_NeedMoneyFree?$AA@ ; `string'
PUBLIC	??_C@_0BP@EJPCGKGI@Command_AltClass_NeedLevelVip3?$AA@ ; `string'
PUBLIC	??_C@_0BP@FAOJFLCJ@Command_AltClass_NeedLevelVip2?$AA@ ; `string'
PUBLIC	??_C@_0BP@HLMEAIOK@Command_AltClass_NeedLevelVip1?$AA@ ; `string'
PUBLIC	??_C@_0BP@FIAGLGDN@Command_AltClass_NeedLevelFree?$AA@ ; `string'
PUBLIC	??_C@_0BM@GFADHCKN@Command_AltClass_SwitchVip3?$AA@ ; `string'
PUBLIC	??_C@_0BM@HMBIEDOM@Command_AltClass_SwitchVip2?$AA@ ; `string'
PUBLIC	??_C@_0BM@FHDFBACP@Command_AltClass_SwitchVip1?$AA@ ; `string'
PUBLIC	??_C@_0BM@HEPHKOPI@Command_AltClass_SwitchFree?$AA@ ; `string'
PUBLIC	??_C@_0BJ@ELEFHPD@Command_AltClass_Enabled?$AA@	; `string'
PUBLIC	??_C@_0BL@HBPKEPPL@Command_AltClass_Sintax_DL?$AA@ ; `string'
PUBLIC	??_C@_0BL@JNNPKNLP@Command_AltClass_Sintax_MG?$AA@ ; `string'
PUBLIC	??_C@_0BL@KPOJMPDN@Command_AltClass_Sintax_ME?$AA@ ; `string'
PUBLIC	??_C@_0BL@KDLMCANM@Command_AltClass_Sintax_FE?$AA@ ; `string'
PUBLIC	??_C@_0BL@DKDGKFIO@Command_AltClass_Sintax_BK?$AA@ ; `string'
PUBLIC	??_C@_0BL@DOLLNJDM@Command_AltClass_Sintax_DK?$AA@ ; `string'
PUBLIC	??_C@_0BL@HBIIMLEP@Command_AltClass_Sintax_SM?$AA@ ; `string'
PUBLIC	??_C@_0BL@NIMMIEGB@Command_AltClass_Sintax_DW?$AA@ ; `string'
PUBLIC	??_C@_0CK@MKPNMCKB@Command_EventManager_NeedMasterR@ ; `string'
PUBLIC	??_C@_0CK@NDOGPDOA@Command_EventManager_NeedMasterR@ ; `string'
PUBLIC	??_C@_0CK@PIMLKACD@Command_EventManager_NeedMasterR@ ; `string'
PUBLIC	??_C@_0CK@NLAJBOPE@Command_EventManager_NeedMasterR@ ; `string'
PUBLIC	??_C@_0CE@HNMIHNAI@Command_EventManager_NeedResetsV@ ; `string'
PUBLIC	??_C@_0CE@GENDEMEJ@Command_EventManager_NeedResetsV@ ; `string'
PUBLIC	??_C@_0CE@EPPOBPIK@Command_EventManager_NeedResetsV@ ; `string'
PUBLIC	??_C@_0CE@GMDMKBFN@Command_EventManager_NeedResetsF@ ; `string'
PUBLIC	??_C@_0CD@BFCHDPM@Command_EventManager_NeedMoneyVi@ ; `string'
PUBLIC	??_C@_0CD@BIEJECLN@Command_EventManager_NeedMoneyVi@ ; `string'
PUBLIC	??_C@_0CD@DDGEBBHO@Command_EventManager_NeedMoneyVi@ ; `string'
PUBLIC	??_C@_0CD@BAKGKPKJ@Command_EventManager_NeedMoneyFr@ ; `string'
PUBLIC	??_C@_0CD@IHPLCLOK@Command_EventManager_NeedLevelVi@ ; `string'
PUBLIC	??_C@_0CD@JOOABKKL@Command_EventManager_NeedLevelVi@ ; `string'
PUBLIC	??_C@_0CD@LFMNEJGI@Command_EventManager_NeedLevelVi@ ; `string'
PUBLIC	??_C@_0CD@JGAPPHLP@Command_EventManager_NeedLevelFr@ ; `string'
PUBLIC	??_C@_0CA@MMEFACOF@Command_EventManager_SwitchVip3?$AA@ ; `string'
PUBLIC	??_C@_0CA@NFFODDKE@Command_EventManager_SwitchVip2?$AA@ ; `string'
PUBLIC	??_C@_0CA@POHDGAGH@Command_EventManager_SwitchVip1?$AA@ ; `string'
PUBLIC	??_C@_0CA@NNLBNOLA@Command_EventManager_SwitchFree?$AA@ ; `string'
PUBLIC	??_C@_0BN@JJFMLIFH@Command_EventManager_Enabled?$AA@ ; `string'
PUBLIC	??_C@_0CC@DMKIEDEK@Command_EventManager_Sintax_Ente@ ; `string'
PUBLIC	??_C@_0CB@BBMKKDLF@Command_EventManager_Sintax_Open@ ; `string'
PUBLIC	??_C@_0CL@EAKGCKJK@Command_WarehouseInfo_NeedMaster@ ; `string'
PUBLIC	??_C@_0CL@FJLNBLNL@Command_WarehouseInfo_NeedMaster@ ; `string'
PUBLIC	??_C@_0CL@HCJAEIBI@Command_WarehouseInfo_NeedMaster@ ; `string'
PUBLIC	??_C@_0CL@FBFCPGMP@Command_WarehouseInfo_NeedMaster@ ; `string'
PUBLIC	??_C@_0CF@EJIDLHON@Command_WarehouseInfo_NeedResets@ ; `string'
PUBLIC	??_C@_0CF@FAJIIGKM@Command_WarehouseInfo_NeedResets@ ; `string'
PUBLIC	??_C@_0CF@HLLFNFGP@Command_WarehouseInfo_NeedResets@ ; `string'
PUBLIC	??_C@_0CF@FIHHGLLI@Command_WarehouseInfo_NeedResets@ ; `string'
PUBLIC	??_C@_0CE@CEEBGKJF@Command_WarehouseInfo_NeedMoneyV@ ; `string'
PUBLIC	??_C@_0CE@DNFKFLNE@Command_WarehouseInfo_NeedMoneyV@ ; `string'
PUBLIC	??_C@_0CE@BGHHAIBH@Command_WarehouseInfo_NeedMoneyV@ ; `string'
PUBLIC	??_C@_0CE@DFLFLGMA@Command_WarehouseInfo_NeedMoneyF@ ; `string'
PUBLIC	??_C@_0CE@KCOIDCID@Command_WarehouseInfo_NeedLevelV@ ; `string'
PUBLIC	??_C@_0CE@LLPDADMC@Command_WarehouseInfo_NeedLevelV@ ; `string'
PUBLIC	??_C@_0CE@JANOFAAB@Command_WarehouseInfo_NeedLevelV@ ; `string'
PUBLIC	??_C@_0CE@LDBMOONG@Command_WarehouseInfo_NeedLevelF@ ; `string'
PUBLIC	??_C@_0CB@FNPOIPHL@Command_WarehouseInfo_SwitchVip3@ ; `string'
PUBLIC	??_C@_0CB@EEOFLODK@Command_WarehouseInfo_SwitchVip2@ ; `string'
PUBLIC	??_C@_0CB@GPMIONPJ@Command_WarehouseInfo_SwitchVip1@ ; `string'
PUBLIC	??_C@_0CB@EMAKFDCO@Command_WarehouseInfo_SwitchFree@ ; `string'
PUBLIC	??_C@_0BO@MBMHNJID@Command_WarehouseInfo_Enabled?$AA@ ; `string'
PUBLIC	??_C@_0BN@PFIGHEOO@Command_WarehouseInfo_Sintax?$AA@ ; `string'
PUBLIC	??_C@_0BM@EGPJOGGJ@Command_OpenWarehouse_Delay?$AA@ ; `string'
PUBLIC	??_C@_0CL@BKCJFIJD@Command_OpenWarehouse_NeedMaster@ ; `string'
PUBLIC	??_C@_0CL@DDCGJNC@Command_OpenWarehouse_NeedMaster@ ; `string'
PUBLIC	??_C@_0CL@CIBPDKBB@Command_OpenWarehouse_NeedMaster@ ; `string'
PUBLIC	??_C@_0CL@LNNIEMG@Command_OpenWarehouse_NeedMaster@ ; `string'
PUBLIC	??_C@_0CF@OCIBBPDB@Command_OpenWarehouse_NeedResets@ ; `string'
PUBLIC	??_C@_0CF@PLJKCOHA@Command_OpenWarehouse_NeedResets@ ; `string'
PUBLIC	??_C@_0CF@NALHHNLD@Command_OpenWarehouse_NeedResets@ ; `string'
PUBLIC	??_C@_0CF@PDHFMDGE@Command_OpenWarehouse_NeedResets@ ; `string'
PUBLIC	??_C@_0CE@PHNEOPLK@Command_OpenWarehouse_NeedMoneyV@ ; `string'
PUBLIC	??_C@_0CE@OOMPNOPL@Command_OpenWarehouse_NeedMoneyV@ ; `string'
PUBLIC	??_C@_0CE@MFOCINDI@Command_OpenWarehouse_NeedMoneyV@ ; `string'
PUBLIC	??_C@_0CE@OGCADDOP@Command_OpenWarehouse_NeedMoneyF@ ; `string'
PUBLIC	??_C@_0CE@HBHNLHKM@Command_OpenWarehouse_NeedLevelV@ ; `string'
PUBLIC	??_C@_0CE@GIGGIGON@Command_OpenWarehouse_NeedLevelV@ ; `string'
PUBLIC	??_C@_0CE@EDELNFCO@Command_OpenWarehouse_NeedLevelV@ ; `string'
PUBLIC	??_C@_0CE@GAIJGLPJ@Command_OpenWarehouse_NeedLevelF@ ; `string'
PUBLIC	??_C@_0CB@NHLEJAKM@Command_OpenWarehouse_SwitchVip3@ ; `string'
PUBLIC	??_C@_0CB@MOKPKBON@Command_OpenWarehouse_SwitchVip2@ ; `string'
PUBLIC	??_C@_0CB@OFICPCCO@Command_OpenWarehouse_SwitchVip1@ ; `string'
PUBLIC	??_C@_0CB@MGEAEMPJ@Command_OpenWarehouse_SwitchFree@ ; `string'
PUBLIC	??_C@_0BO@OAIPOMPF@Command_OpenWarehouse_Enabled?$AA@ ; `string'
PUBLIC	??_C@_0BN@JEHLHNK@Command_OpenWarehouse_Sintax?$AA@ ; `string'
PUBLIC	??_C@_0BI@FBEFGMIJ@Command_Warehouse_Delay?$AA@	; `string'
PUBLIC	??_C@_0CB@HNFHPICI@Command_Warehouse_WareNumberVip3@ ; `string'
PUBLIC	??_C@_0CB@GEEMMJGJ@Command_Warehouse_WareNumberVip2@ ; `string'
PUBLIC	??_C@_0CB@EPGBJKKK@Command_Warehouse_WareNumberVip1@ ; `string'
PUBLIC	??_C@_0CB@GMKDCEHN@Command_Warehouse_WareNumberFree@ ; `string'
PUBLIC	??_C@_0BL@PPHAJHDA@Command_Warehouse_WareType?$AA@ ; `string'
PUBLIC	??_C@_0CH@CPNKNAC@Command_Warehouse_NeedMasterRese@ ; `string'
PUBLIC	??_C@_0CH@BLOGJMED@Command_Warehouse_NeedMasterRese@ ; `string'
PUBLIC	??_C@_0CH@DAMLMPIA@Command_Warehouse_NeedMasterRese@ ; `string'
PUBLIC	??_C@_0CH@BDAJHBFH@Command_Warehouse_NeedMasterRese@ ; `string'
PUBLIC	??_C@_0CB@ODEKBADP@Command_Warehouse_NeedResetsVip3@ ; `string'
PUBLIC	??_C@_0CB@PKFBCBHO@Command_Warehouse_NeedResetsVip2@ ; `string'
PUBLIC	??_C@_0CB@NBHMHCLN@Command_Warehouse_NeedResetsVip1@ ; `string'
PUBLIC	??_C@_0CB@PCLOMMGK@Command_Warehouse_NeedResetsFree@ ; `string'
PUBLIC	??_C@_0CA@OHKKOHPL@Command_Warehouse_NeedMoneyVip3?$AA@ ; `string'
PUBLIC	??_C@_0CA@POLBNGLK@Command_Warehouse_NeedMoneyVip2?$AA@ ; `string'
PUBLIC	??_C@_0CA@NFJMIFHJ@Command_Warehouse_NeedMoneyVip1?$AA@ ; `string'
PUBLIC	??_C@_0CA@PGFODLKO@Command_Warehouse_NeedMoneyFree?$AA@ ; `string'
PUBLIC	??_C@_0CA@GBADLPON@Command_Warehouse_NeedLevelVip3?$AA@ ; `string'
PUBLIC	??_C@_0CA@HIBIIOKM@Command_Warehouse_NeedLevelVip2?$AA@ ; `string'
PUBLIC	??_C@_0CA@FDDFNNGP@Command_Warehouse_NeedLevelVip1?$AA@ ; `string'
PUBLIC	??_C@_0CA@HAPHGDLI@Command_Warehouse_NeedLevelFree?$AA@ ; `string'
PUBLIC	??_C@_0BN@LEEDICMO@Command_Warehouse_SwitchVip3?$AA@ ; `string'
PUBLIC	??_C@_0BN@KNFILDIP@Command_Warehouse_SwitchVip2?$AA@ ; `string'
PUBLIC	??_C@_0BN@IGHFOAEM@Command_Warehouse_SwitchVip1?$AA@ ; `string'
PUBLIC	??_C@_0BN@KFLHFOJL@Command_Warehouse_SwitchFree?$AA@ ; `string'
PUBLIC	??_C@_0BK@LDJMGCJL@Command_Warehouse_Enabled?$AA@ ; `string'
PUBLIC	??_C@_0BJ@KJFKOJCI@Command_Warehouse_Sintax?$AA@ ; `string'
PUBLIC	??_C@_0CJ@MDKMIKBH@Command_ReAddPoints_NeedMasterRe@ ; `string'
PUBLIC	??_C@_0CJ@NKLHLLFG@Command_ReAddPoints_NeedMasterRe@ ; `string'
PUBLIC	??_C@_0CJ@PBJKOIJF@Command_ReAddPoints_NeedMasterRe@ ; `string'
PUBLIC	??_C@_0CJ@NCFIFGEC@Command_ReAddPoints_NeedMasterRe@ ; `string'
PUBLIC	??_C@_0CD@NLKEPLJL@Command_ReAddPoints_NeedResetsVi@ ; `string'
PUBLIC	??_C@_0CD@MCLPMKNK@Command_ReAddPoints_NeedResetsVi@ ; `string'
PUBLIC	??_C@_0CD@OJJCJJBJ@Command_ReAddPoints_NeedResetsVi@ ; `string'
PUBLIC	??_C@_0CD@MKFACHMO@Command_ReAddPoints_NeedResetsFr@ ; `string'
PUBLIC	??_C@_0CC@NBIDIHFJ@Command_ReAddPoints_NeedMoneyVip@ ; `string'
PUBLIC	??_C@_0CC@MIJILGBI@Command_ReAddPoints_NeedMoneyVip@ ; `string'
PUBLIC	??_C@_0CC@ODLFOFNL@Command_ReAddPoints_NeedMoneyVip@ ; `string'
PUBLIC	??_C@_0CC@MAHHFLAM@Command_ReAddPoints_NeedMoneyFre@ ; `string'
PUBLIC	??_C@_0CC@FHCKNPEP@Command_ReAddPoints_NeedLevelVip@ ; `string'
PUBLIC	??_C@_0CC@EODBOOAO@Command_ReAddPoints_NeedLevelVip@ ; `string'
PUBLIC	??_C@_0CC@GFBMLNMN@Command_ReAddPoints_NeedLevelVip@ ; `string'
PUBLIC	??_C@_0CC@EGNOADBK@Command_ReAddPoints_NeedLevelFre@ ; `string'
PUBLIC	??_C@_0BP@BECBAMOD@Command_ReAddPoints_SwitchVip3?$AA@ ; `string'
PUBLIC	??_C@_0BP@NDKDNKC@Command_ReAddPoints_SwitchVip2?$AA@ ; `string'
PUBLIC	??_C@_0BP@CGBHGOGB@Command_ReAddPoints_SwitchVip1?$AA@ ; `string'
PUBLIC	??_C@_0BP@FNFNALG@Command_ReAddPoints_SwitchFree?$AA@ ; `string'
PUBLIC	??_C@_0BM@FOGNJEKA@Command_ReAddPoints_Enabled?$AA@ ; `string'
PUBLIC	??_C@_0BL@OACPPCKI@Command_ReAddPoints_Sintax?$AA@ ; `string'
PUBLIC	??_C@_0CH@ELEBEBKF@Command_AddPoints_NeedMasterRese@ ; `string'
PUBLIC	??_C@_0CH@FCFKHAOE@Command_AddPoints_NeedMasterRese@ ; `string'
PUBLIC	??_C@_0CH@HJHHCDCH@Command_AddPoints_NeedMasterRese@ ; `string'
PUBLIC	??_C@_0CH@FKLFJNPA@Command_AddPoints_NeedMasterRese@ ; `string'
PUBLIC	??_C@_0CB@LLMGOEEB@Command_AddPoints_NeedResetsVip3@ ; `string'
PUBLIC	??_C@_0CB@KCNNNFAA@Command_AddPoints_NeedResetsVip2@ ; `string'
PUBLIC	??_C@_0CB@IJPAIGMD@Command_AddPoints_NeedResetsVip1@ ; `string'
PUBLIC	??_C@_0CB@KKDCDIBE@Command_AddPoints_NeedResetsFree@ ; `string'
PUBLIC	??_C@_0CA@DBCIIMG@Command_AddPoints_NeedMoneyVip3?$AA@ ; `string'
PUBLIC	??_C@_0CA@BKAJLJIH@Command_AddPoints_NeedMoneyVip2?$AA@ ; `string'
PUBLIC	??_C@_0CA@DBCEOKEE@Command_AddPoints_NeedMoneyVip1?$AA@ ; `string'
PUBLIC	??_C@_0CA@BCOGFEJD@Command_AddPoints_NeedMoneyFree?$AA@ ; `string'
PUBLIC	??_C@_0CA@IFLLNANA@Command_AddPoints_NeedLevelVip3?$AA@ ; `string'
PUBLIC	??_C@_0CA@JMKAOBJB@Command_AddPoints_NeedLevelVip2?$AA@ ; `string'
PUBLIC	??_C@_0CA@LHINLCFC@Command_AddPoints_NeedLevelVip1?$AA@ ; `string'
PUBLIC	??_C@_0CA@JEEPAMIF@Command_AddPoints_NeedLevelFree?$AA@ ; `string'
PUBLIC	??_C@_0BN@KDCLAPPE@Command_AddPoints_SwitchVip3?$AA@ ; `string'
PUBLIC	??_C@_0BN@LKDADOLF@Command_AddPoints_SwitchVip2?$AA@ ; `string'
PUBLIC	??_C@_0BN@JBBNGNHG@Command_AddPoints_SwitchVip1?$AA@ ; `string'
PUBLIC	??_C@_0BN@LCNPNDKB@Command_AddPoints_SwitchFree?$AA@ ; `string'
PUBLIC	??_C@_0BK@JGFCPOGJ@Command_AddPoints_Enabled?$AA@ ; `string'
PUBLIC	??_C@_0BM@CFFAJPCD@Command_AddPoints_SintaxCmd?$AA@ ; `string'
PUBLIC	??_C@_0BM@BLGGEPOH@Command_AddPoints_SintaxEne?$AA@ ; `string'
PUBLIC	??_C@_0BN@CEPHBKBK@Command_AddPoints_SiyntaxVit?$AA@ ; `string'
PUBLIC	??_C@_0BM@DHGAKMDD@Command_AddPoints_SintaxAgi?$AA@ ; `string'
PUBLIC	??_C@_0BM@HKCGOFJE@Command_AddPoints_SintaxStr?$AA@ ; `string'
PUBLIC	??_C@_0CD@JOMHIOID@Command_Money_NeedMasterResetsVi@ ; `string'
PUBLIC	??_C@_0CD@IHNMLPMC@Command_Money_NeedMasterResetsVi@ ; `string'
PUBLIC	??_C@_0CD@KMPBOMAB@Command_Money_NeedMasterResetsVi@ ; `string'
PUBLIC	??_C@_0CD@IPDDFCNG@Command_Money_NeedMasterResetsFr@ ; `string'
PUBLIC	??_C@_0BN@PMNHCKFG@Command_Money_NeedResetsVip3?$AA@ ; `string'
PUBLIC	??_C@_0BN@OFMMBLBH@Command_Money_NeedResetsVip2?$AA@ ; `string'
PUBLIC	??_C@_0BN@MOOBEINE@Command_Money_NeedResetsVip1?$AA@ ; `string'
PUBLIC	??_C@_0BN@ONCDPGAD@Command_Money_NeedResetsFree?$AA@ ; `string'
PUBLIC	??_C@_0BM@KABDOACI@Command_Money_NeedMoneyVip3?$AA@ ; `string'
PUBLIC	??_C@_0BM@LJAINBGJ@Command_Money_NeedMoneyVip2?$AA@ ; `string'
PUBLIC	??_C@_0BM@JCCFICKK@Command_Money_NeedMoneyVip1?$AA@ ; `string'
PUBLIC	??_C@_0BM@LBOHDMHN@Command_Money_NeedMoneyFree?$AA@ ; `string'
PUBLIC	??_C@_0BM@CGLKLIDO@Command_Money_NeedLevelVip3?$AA@ ; `string'
PUBLIC	??_C@_0BM@DPKBIJHP@Command_Money_NeedLevelVip2?$AA@ ; `string'
PUBLIC	??_C@_0BM@BEIMNKLM@Command_Money_NeedLevelVip1?$AA@ ; `string'
PUBLIC	??_C@_0BM@DHEOGEGL@Command_Money_NeedLevelFree?$AA@ ; `string'
PUBLIC	??_C@_0BJ@KLBEBLNG@Command_Money_SwitchVip3?$AA@ ; `string'
PUBLIC	??_C@_0BJ@LCAPCKJH@Command_Money_SwitchVip2?$AA@ ; `string'
PUBLIC	??_C@_0BJ@JJCCHJFE@Command_Money_SwitchVip1?$AA@ ; `string'
PUBLIC	??_C@_0BJ@LKOAMHID@Command_Money_SwitchFree?$AA@ ; `string'
PUBLIC	??_C@_0BG@HPFDCNMC@Command_Money_Enabled?$AA@	; `string'
PUBLIC	??_C@_0BF@GKGCCFJM@Command_Money_Sintax?$AA@	; `string'
PUBLIC	??_C@_0CB@JCOAIFMI@Command_Evo_NeedMasterResetsVip3@ ; `string'
PUBLIC	??_C@_0CB@ILPLLEIJ@Command_Evo_NeedMasterResetsVip2@ ; `string'
PUBLIC	??_C@_0CB@KANGOHEK@Command_Evo_NeedMasterResetsVip1@ ; `string'
PUBLIC	??_C@_0CB@IDBEFJJN@Command_Evo_NeedMasterResetsFree@ ; `string'
PUBLIC	??_C@_0BL@LGHABAOD@Command_Evo_NeedResetsVip3?$AA@ ; `string'
PUBLIC	??_C@_0BL@KPGLCBKC@Command_Evo_NeedResetsVip2?$AA@ ; `string'
PUBLIC	??_C@_0BL@IEEGHCGB@Command_Evo_NeedResetsVip1?$AA@ ; `string'
PUBLIC	??_C@_0BL@KHIEMMLG@Command_Evo_NeedResetsFree?$AA@ ; `string'
PUBLIC	??_C@_0BK@NIIMBEEM@Command_Evo_NeedMoneyVip3?$AA@ ; `string'
PUBLIC	??_C@_0BK@MBJHCFAN@Command_Evo_NeedMoneyVip2?$AA@ ; `string'
PUBLIC	??_C@_0BK@OKLKHGMO@Command_Evo_NeedMoneyVip1?$AA@ ; `string'
PUBLIC	??_C@_0BK@MJHIMIBJ@Command_Evo_NeedMoneyFree?$AA@ ; `string'
PUBLIC	??_C@_0BK@FOCFEMFK@Command_Evo_NeedLevelVip3?$AA@ ; `string'
PUBLIC	??_C@_0BK@EHDOHNBL@Command_Evo_NeedLevelVip2?$AA@ ; `string'
PUBLIC	??_C@_0BK@GMBDCONI@Command_Evo_NeedLevelVip1?$AA@ ; `string'
PUBLIC	??_C@_0BK@EPNBJAAP@Command_Evo_NeedLevelFree?$AA@ ; `string'
PUBLIC	??_C@_0BH@JIPAHDJF@Command_Evo_SwitchVip3?$AA@	; `string'
PUBLIC	??_C@_0BH@IBOLECNE@Command_Evo_SwitchVip2?$AA@	; `string'
PUBLIC	??_C@_0BH@KKMGBBBH@Command_Evo_SwitchVip1?$AA@	; `string'
PUBLIC	??_C@_0BH@IJAEKPMA@Command_Evo_SwitchFree?$AA@	; `string'
PUBLIC	??_C@_0BE@CDDPLADH@Command_Evo_Enabled?$AA@	; `string'
PUBLIC	??_C@_0BD@LFJFNECH@Command_Evo_Sintax?$AA@	; `string'
PUBLIC	??_C@_0CH@PKGIKIPK@Command_HeroClear_NeedMasterRese@ ; `string'
PUBLIC	??_C@_0CH@ODHDJJLL@Command_HeroClear_NeedMasterRese@ ; `string'
PUBLIC	??_C@_0CH@MIFOMKHI@Command_HeroClear_NeedMasterRese@ ; `string'
PUBLIC	??_C@_0CH@OLJMHEKP@Command_HeroClear_NeedMasterRese@ ; `string'
PUBLIC	??_C@_0CB@MOGICDLB@Command_HeroClear_NeedResetsVip3@ ; `string'
PUBLIC	??_C@_0CB@NHHDBCPA@Command_HeroClear_NeedResetsVip2@ ; `string'
PUBLIC	??_C@_0CB@PMFOEBDD@Command_HeroClear_NeedResetsVip1@ ; `string'
PUBLIC	??_C@_0CB@NPJMPPOE@Command_HeroClear_NeedResetsFree@ ; `string'
PUBLIC	??_C@_0CA@MHHGOEAE@Command_HeroClear_NeedMoneyVip3?$AA@ ; `string'
PUBLIC	??_C@_0CA@NOGNNFEF@Command_HeroClear_NeedMoneyVip2?$AA@ ; `string'
PUBLIC	??_C@_0CA@PFEAIGIG@Command_HeroClear_NeedMoneyVip1?$AA@ ; `string'
PUBLIC	??_C@_0CA@NGICDIFB@Command_HeroClear_NeedMoneyFree?$AA@ ; `string'
PUBLIC	??_C@_0CA@EBNPLMBC@Command_HeroClear_NeedLevelVip3?$AA@ ; `string'
PUBLIC	??_C@_0CA@FIMEINFD@Command_HeroClear_NeedLevelVip2?$AA@ ; `string'
PUBLIC	??_C@_0CA@HDOJNOJA@Command_HeroClear_NeedLevelVip1?$AA@ ; `string'
PUBLIC	??_C@_0CA@FACLGAEH@Command_HeroClear_NeedLevelFree?$AA@ ; `string'
PUBLIC	??_C@_0BN@FHPBGEME@Command_HeroClear_SwitchVip3?$AA@ ; `string'
PUBLIC	??_C@_0BN@EOOKFFIF@Command_HeroClear_SwitchVip2?$AA@ ; `string'
PUBLIC	??_C@_0BN@GFMHAGEG@Command_HeroClear_SwitchVip1?$AA@ ; `string'
PUBLIC	??_C@_0BN@EGAFLIJB@Command_HeroClear_SwitchFree?$AA@ ; `string'
PUBLIC	??_C@_0BK@HPCBOFKO@Command_HeroClear_Enabled?$AA@ ; `string'
PUBLIC	??_C@_0BJ@BIKKEJJM@Command_HeroClear_Sintax?$AA@ ; `string'
PUBLIC	??_C@_0CF@BKILJONK@Command_PKClear_NeedMasterResets@ ; `string'
PUBLIC	??_C@_0CF@DJAKPJL@Command_PKClear_NeedMasterResets@ ; `string'
PUBLIC	??_C@_0CF@CILNPMFI@Command_PKClear_NeedMasterResets@ ; `string'
PUBLIC	??_C@_0CF@LHPECIP@Command_PKClear_NeedMasterResets@ ; `string'
PUBLIC	??_C@_0BP@INNFANKB@Command_PKClear_NeedResetsVip3?$AA@ ; `string'
PUBLIC	??_C@_0BP@JEMODMOA@Command_PKClear_NeedResetsVip2?$AA@ ; `string'
PUBLIC	??_C@_0BP@LPODGPCD@Command_PKClear_NeedResetsVip1?$AA@ ; `string'
PUBLIC	??_C@_0BP@JMCBNBPE@Command_PKClear_NeedResetsFree?$AA@ ; `string'
PUBLIC	??_C@_0BO@BDLBJOGM@Command_PKClear_NeedMoneyVip3?$AA@ ; `string'
PUBLIC	??_C@_0BO@KKKKPCN@Command_PKClear_NeedMoneyVip2?$AA@ ; `string'
PUBLIC	??_C@_0BO@CBIHPMOO@Command_PKClear_NeedMoneyVip1?$AA@ ; `string'
PUBLIC	??_C@_0BO@CEFECDJ@Command_PKClear_NeedMoneyFree?$AA@ ; `string'
PUBLIC	??_C@_0BO@JFBIMGHK@Command_PKClear_NeedLevelVip3?$AA@ ; `string'
PUBLIC	??_C@_0BO@IMADPHDL@Command_PKClear_NeedLevelVip2?$AA@ ; `string'
PUBLIC	??_C@_0BO@KHCOKEPI@Command_PKClear_NeedLevelVip1?$AA@ ; `string'
PUBLIC	??_C@_0BO@IEOMBKCP@Command_PKClear_NeedLevelFree?$AA@ ; `string'
PUBLIC	??_C@_0BL@DLINCEIO@Command_PKClear_SwitchVip3?$AA@ ; `string'
PUBLIC	??_C@_0BL@CCJGBFMP@Command_PKClear_SwitchVip2?$AA@ ; `string'
PUBLIC	??_C@_0BL@JLLEGAM@Command_PKClear_SwitchVip1?$AA@ ; `string'
PUBLIC	??_C@_0BL@CKHJPINL@Command_PKClear_SwitchFree?$AA@ ; `string'
PUBLIC	??_C@_0BI@FCLMHIJN@Command_PKClear_Enabled?$AA@	; `string'
PUBLIC	??_C@_0BH@IHNIPHGD@Command_PKClear_Sintax?$AA@	; `string'
PUBLIC	??_C@_0BD@NIJDNKFF@Command_Post_Delay?$AA@	; `string'
PUBLIC	??_C@_0BL@NAHKPHFK@Command_Post_TypeColorVip3?$AA@ ; `string'
PUBLIC	??_C@_0BL@MJGBMGBL@Command_Post_TypeColorVip2?$AA@ ; `string'
PUBLIC	??_C@_0BL@OCEMJFNI@Command_Post_TypeColorVip1?$AA@ ; `string'
PUBLIC	??_C@_0BL@MBIOCLAP@Command_Post_TypeColorFree?$AA@ ; `string'
PUBLIC	??_C@_0CC@KDBKGIEF@Command_Post_NeedMasterResetsVip@ ; `string'
PUBLIC	??_C@_0CC@LKABFJAE@Command_Post_NeedMasterResetsVip@ ; `string'
PUBLIC	??_C@_0CC@JBCMAKMH@Command_Post_NeedMasterResetsVip@ ; `string'
PUBLIC	??_C@_0CC@LCOOLEBA@Command_Post_NeedMasterResetsFre@ ; `string'
PUBLIC	??_C@_0BM@PAEMAOFN@Command_Post_NeedResetsVip3?$AA@ ; `string'
PUBLIC	??_C@_0BM@OJFHDPBM@Command_Post_NeedResetsVip2?$AA@ ; `string'
PUBLIC	??_C@_0BM@MCHKGMNP@Command_Post_NeedResetsVip1?$AA@ ; `string'
PUBLIC	??_C@_0BM@OBLINCAI@Command_Post_NeedResetsFree?$AA@ ; `string'
PUBLIC	??_C@_0BL@INCMNDOD@Command_Post_NeedMoneyVip3?$AA@ ; `string'
PUBLIC	??_C@_0BL@JEDHOCKC@Command_Post_NeedMoneyVip2?$AA@ ; `string'
PUBLIC	??_C@_0BL@LPBKLBGB@Command_Post_NeedMoneyVip1?$AA@ ; `string'
PUBLIC	??_C@_0BL@JMNIAPLG@Command_Post_NeedMoneyFree?$AA@ ; `string'
PUBLIC	??_C@_0BL@LIFILPF@Command_Post_NeedLevelVip3?$AA@ ; `string'
PUBLIC	??_C@_0BL@BCJOLKLE@Command_Post_NeedLevelVip2?$AA@ ; `string'
PUBLIC	??_C@_0BL@DJLDOJHH@Command_Post_NeedLevelVip1?$AA@ ; `string'
PUBLIC	??_C@_0BL@BKHBFHKA@Command_Post_NeedLevelFree?$AA@ ; `string'
PUBLIC	??_C@_0BI@KDBKGLFA@Command_Post_SwitchVip3?$AA@	; `string'
PUBLIC	??_C@_0BI@LKABFKBB@Command_Post_SwitchVip2?$AA@	; `string'
PUBLIC	??_C@_0BI@JBCMAJNC@Command_Post_SwitchVip1?$AA@	; `string'
PUBLIC	??_C@_0BI@LCOOLHAF@Command_Post_SwitchFree?$AA@	; `string'
PUBLIC	??_C@_0BF@LMBDHHOH@Command_Post_Enabled?$AA@	; `string'
PUBLIC	??_C@_08JNEOMACB@Commands?$AA@			; `string'
PUBLIC	??_C@_0BE@CGLGKBGB@Command_Post_Sintax?$AA@	; `string'
PUBLIC	??_C@_0CE@BMBMBCJB@?4?2Customs?2Commands?2Hgt_Commands?4@ ; `string'
PUBLIC	?Load@CCommands@@QAEXXZ				; CCommands::Load
EXTRN	?LogAdd@@YAXW4eLogColor@@PADZZ:PROC		; LogAdd
EXTRN	?gEventManager@@3VCEventManager@@A:BYTE		; gEventManager
EXTRN	__imp__GetPrivateProfileIntA@16:PROC
EXTRN	__imp__GetPrivateProfileStringA@24:PROC
;	COMDAT ??_C@_0BM@CBACLGEP@?$FLCOMMANDS?5FILE?$FN?5Carregado?5?$CB?$AA@
; File c:\users\faelhs\mu-1.1\emu - gameserver sapphire s0\gameserver\commands.cpp
CONST	SEGMENT
??_C@_0BM@CBACLGEP@?$FLCOMMANDS?5FILE?$FN?5Carregado?5?$CB?$AA@ DB '[COMM'
	DB	'ANDS FILE] Carregado !', 00H		; `string'
CONST	ENDS
;	COMDAT ??_C@_0CG@DKJIOGK@Command_CharInfo_NeedMasterReset@
CONST	SEGMENT
??_C@_0CG@DKJIOGK@Command_CharInfo_NeedMasterReset@ DB 'Command_CharInfo_'
	DB	'NeedMasterResetsVip3', 00H			; `string'
CONST	ENDS
;	COMDAT ??_C@_0CG@BKLCLPCL@Command_CharInfo_NeedMasterReset@
CONST	SEGMENT
??_C@_0CG@BKLCLPCL@Command_CharInfo_NeedMasterReset@ DB 'Command_CharInfo'
	DB	'_NeedMasterResetsVip2', 00H			; `string'
CONST	ENDS
;	COMDAT ??_C@_0CG@DBJPOMOI@Command_CharInfo_NeedMasterReset@
CONST	SEGMENT
??_C@_0CG@DBJPOMOI@Command_CharInfo_NeedMasterReset@ DB 'Command_CharInfo'
	DB	'_NeedMasterResetsVip1', 00H			; `string'
CONST	ENDS
;	COMDAT ??_C@_0CG@BCFNFCDP@Command_CharInfo_NeedMasterReset@
CONST	SEGMENT
??_C@_0CG@BCFNFCDP@Command_CharInfo_NeedMasterReset@ DB 'Command_CharInfo'
	DB	'_NeedMasterResetsFree', 00H			; `string'
CONST	ENDS
;	COMDAT ??_C@_0CA@DMKGCIPL@Command_CharInfo_NeedResetsVip3?$AA@
CONST	SEGMENT
??_C@_0CA@DMKGCIPL@Command_CharInfo_NeedResetsVip3?$AA@ DB 'Command_CharI'
	DB	'nfo_NeedResetsVip3', 00H			; `string'
CONST	ENDS
;	COMDAT ??_C@_0CA@CFLNBJLK@Command_CharInfo_NeedResetsVip2?$AA@
CONST	SEGMENT
??_C@_0CA@CFLNBJLK@Command_CharInfo_NeedResetsVip2?$AA@ DB 'Command_CharI'
	DB	'nfo_NeedResetsVip2', 00H			; `string'
CONST	ENDS
;	COMDAT ??_C@_0CA@OJAEKHJ@Command_CharInfo_NeedResetsVip1?$AA@
CONST	SEGMENT
??_C@_0CA@OJAEKHJ@Command_CharInfo_NeedResetsVip1?$AA@ DB 'Command_CharIn'
	DB	'fo_NeedResetsVip1', 00H			; `string'
CONST	ENDS
;	COMDAT ??_C@_0CA@CNFCPEKO@Command_CharInfo_NeedResetsFree?$AA@
CONST	SEGMENT
??_C@_0CA@CNFCPEKO@Command_CharInfo_NeedResetsFree?$AA@ DB 'Command_CharI'
	DB	'nfo_NeedResetsFree', 00H			; `string'
CONST	ENDS
;	COMDAT ??_C@_0BP@GLHNOAFH@Command_CharInfo_NeedMoneyVip3?$AA@
CONST	SEGMENT
??_C@_0BP@GLHNOAFH@Command_CharInfo_NeedMoneyVip3?$AA@ DB 'Command_CharIn'
	DB	'fo_NeedMoneyVip3', 00H			; `string'
CONST	ENDS
;	COMDAT ??_C@_0BP@HCGGNBBG@Command_CharInfo_NeedMoneyVip2?$AA@
CONST	SEGMENT
??_C@_0BP@HCGGNBBG@Command_CharInfo_NeedMoneyVip2?$AA@ DB 'Command_CharIn'
	DB	'fo_NeedMoneyVip2', 00H			; `string'
CONST	ENDS
;	COMDAT ??_C@_0BP@FJELICNF@Command_CharInfo_NeedMoneyVip1?$AA@
CONST	SEGMENT
??_C@_0BP@FJELICNF@Command_CharInfo_NeedMoneyVip1?$AA@ DB 'Command_CharIn'
	DB	'fo_NeedMoneyVip1', 00H			; `string'
CONST	ENDS
;	COMDAT ??_C@_0BP@HKIJDMAC@Command_CharInfo_NeedMoneyFree?$AA@
CONST	SEGMENT
??_C@_0BP@HKIJDMAC@Command_CharInfo_NeedMoneyFree?$AA@ DB 'Command_CharIn'
	DB	'fo_NeedMoneyFree', 00H			; `string'
CONST	ENDS
;	COMDAT ??_C@_0BP@ONNELIEB@Command_CharInfo_NeedLevelVip3?$AA@
CONST	SEGMENT
??_C@_0BP@ONNELIEB@Command_CharInfo_NeedLevelVip3?$AA@ DB 'Command_CharIn'
	DB	'fo_NeedLevelVip3', 00H			; `string'
CONST	ENDS
;	COMDAT ??_C@_0BP@PEMPIJAA@Command_CharInfo_NeedLevelVip2?$AA@
CONST	SEGMENT
??_C@_0BP@PEMPIJAA@Command_CharInfo_NeedLevelVip2?$AA@ DB 'Command_CharIn'
	DB	'fo_NeedLevelVip2', 00H			; `string'
CONST	ENDS
;	COMDAT ??_C@_0BP@NPOCNKMD@Command_CharInfo_NeedLevelVip1?$AA@
CONST	SEGMENT
??_C@_0BP@NPOCNKMD@Command_CharInfo_NeedLevelVip1?$AA@ DB 'Command_CharIn'
	DB	'fo_NeedLevelVip1', 00H			; `string'
CONST	ENDS
;	COMDAT ??_C@_0BP@PMCAGEBE@Command_CharInfo_NeedLevelFree?$AA@
CONST	SEGMENT
??_C@_0BP@PMCAGEBE@Command_CharInfo_NeedLevelFree?$AA@ DB 'Command_CharIn'
	DB	'fo_NeedLevelFree', 00H			; `string'
CONST	ENDS
;	COMDAT ??_C@_0BM@MHOKHMCO@Command_CharInfo_SwitchVip3?$AA@
CONST	SEGMENT
??_C@_0BM@MHOKHMCO@Command_CharInfo_SwitchVip3?$AA@ DB 'Command_CharInfo_'
	DB	'SwitchVip3', 00H				; `string'
CONST	ENDS
;	COMDAT ??_C@_0BM@NOPBENGP@Command_CharInfo_SwitchVip2?$AA@
CONST	SEGMENT
??_C@_0BM@NOPBENGP@Command_CharInfo_SwitchVip2?$AA@ DB 'Command_CharInfo_'
	DB	'SwitchVip2', 00H				; `string'
CONST	ENDS
;	COMDAT ??_C@_0BM@PFNMBOKM@Command_CharInfo_SwitchVip1?$AA@
CONST	SEGMENT
??_C@_0BM@PFNMBOKM@Command_CharInfo_SwitchVip1?$AA@ DB 'Command_CharInfo_'
	DB	'SwitchVip1', 00H				; `string'
CONST	ENDS
;	COMDAT ??_C@_0BM@NGBOKAHL@Command_CharInfo_SwitchFree?$AA@
CONST	SEGMENT
??_C@_0BM@NGBOKAHL@Command_CharInfo_SwitchFree?$AA@ DB 'Command_CharInfo_'
	DB	'SwitchFree', 00H				; `string'
CONST	ENDS
;	COMDAT ??_C@_0BJ@HLHDGBMN@Command_CharInfo_Enabled?$AA@
CONST	SEGMENT
??_C@_0BJ@HLHDGBMN@Command_CharInfo_Enabled?$AA@ DB 'Command_CharInfo_Ena'
	DB	'bled', 00H					; `string'
CONST	ENDS
;	COMDAT ??_C@_0BI@JBAIDPBK@Command_CharInfo_Sintax?$AA@
CONST	SEGMENT
??_C@_0BI@JBAIDPBK@Command_CharInfo_Sintax?$AA@ DB 'Command_CharInfo_Sint'
	DB	'ax', 00H					; `string'
CONST	ENDS
;	COMDAT ??_C@_0CG@IKPCBLPH@Command_AltClass_NeedMasterReset@
CONST	SEGMENT
??_C@_0CG@IKPCBLPH@Command_AltClass_NeedMasterReset@ DB 'Command_AltClass'
	DB	'_NeedMasterResetsVip3', 00H			; `string'
CONST	ENDS
;	COMDAT ??_C@_0CG@JDOJCKLG@Command_AltClass_NeedMasterReset@
CONST	SEGMENT
??_C@_0CG@JDOJCKLG@Command_AltClass_NeedMasterReset@ DB 'Command_AltClass'
	DB	'_NeedMasterResetsVip2', 00H			; `string'
CONST	ENDS
;	COMDAT ??_C@_0CG@LIMEHJHF@Command_AltClass_NeedMasterReset@
CONST	SEGMENT
??_C@_0CG@LIMEHJHF@Command_AltClass_NeedMasterReset@ DB 'Command_AltClass'
	DB	'_NeedMasterResetsVip1', 00H			; `string'
CONST	ENDS
;	COMDAT ??_C@_0CG@JLAGMHKC@Command_AltClass_NeedMasterReset@
CONST	SEGMENT
??_C@_0CG@JLAGMHKC@Command_AltClass_NeedMasterReset@ DB 'Command_AltClass'
	DB	'_NeedMasterResetsFree', 00H			; `string'
CONST	ENDS
;	COMDAT ??_C@_0CA@HOLAJGEF@Command_AltClass_NeedResetsVip3?$AA@
CONST	SEGMENT
??_C@_0CA@HOLAJGEF@Command_AltClass_NeedResetsVip3?$AA@ DB 'Command_AltCl'
	DB	'ass_NeedResetsVip3', 00H			; `string'
CONST	ENDS
;	COMDAT ??_C@_0CA@GHKLKHAE@Command_AltClass_NeedResetsVip2?$AA@
CONST	SEGMENT
??_C@_0CA@GHKLKHAE@Command_AltClass_NeedResetsVip2?$AA@ DB 'Command_AltCl'
	DB	'ass_NeedResetsVip2', 00H			; `string'
CONST	ENDS
;	COMDAT ??_C@_0CA@EMIGPEMH@Command_AltClass_NeedResetsVip1?$AA@
CONST	SEGMENT
??_C@_0CA@EMIGPEMH@Command_AltClass_NeedResetsVip1?$AA@ DB 'Command_AltCl'
	DB	'ass_NeedResetsVip1', 00H			; `string'
CONST	ENDS
;	COMDAT ??_C@_0CA@GPEEEKBA@Command_AltClass_NeedResetsFree?$AA@
CONST	SEGMENT
??_C@_0CA@GPEEEKBA@Command_AltClass_NeedResetsFree?$AA@ DB 'Command_AltCl'
	DB	'ass_NeedResetsFree', 00H			; `string'
CONST	ENDS
;	COMDAT ??_C@_0BP@MPFLDCHO@Command_AltClass_NeedMoneyVip3?$AA@
CONST	SEGMENT
??_C@_0BP@MPFLDCHO@Command_AltClass_NeedMoneyVip3?$AA@ DB 'Command_AltCla'
	DB	'ss_NeedMoneyVip3', 00H			; `string'
CONST	ENDS
;	COMDAT ??_C@_0BP@NGEAADDP@Command_AltClass_NeedMoneyVip2?$AA@
CONST	SEGMENT
??_C@_0BP@NGEAADDP@Command_AltClass_NeedMoneyVip2?$AA@ DB 'Command_AltCla'
	DB	'ss_NeedMoneyVip2', 00H			; `string'
CONST	ENDS
;	COMDAT ??_C@_0BP@PNGNFAPM@Command_AltClass_NeedMoneyVip1?$AA@
CONST	SEGMENT
??_C@_0BP@PNGNFAPM@Command_AltClass_NeedMoneyVip1?$AA@ DB 'Command_AltCla'
	DB	'ss_NeedMoneyVip1', 00H			; `string'
CONST	ENDS
;	COMDAT ??_C@_0BP@NOKPOOCL@Command_AltClass_NeedMoneyFree?$AA@
CONST	SEGMENT
??_C@_0BP@NOKPOOCL@Command_AltClass_NeedMoneyFree?$AA@ DB 'Command_AltCla'
	DB	'ss_NeedMoneyFree', 00H			; `string'
CONST	ENDS
;	COMDAT ??_C@_0BP@EJPCGKGI@Command_AltClass_NeedLevelVip3?$AA@
CONST	SEGMENT
??_C@_0BP@EJPCGKGI@Command_AltClass_NeedLevelVip3?$AA@ DB 'Command_AltCla'
	DB	'ss_NeedLevelVip3', 00H			; `string'
CONST	ENDS
;	COMDAT ??_C@_0BP@FAOJFLCJ@Command_AltClass_NeedLevelVip2?$AA@
CONST	SEGMENT
??_C@_0BP@FAOJFLCJ@Command_AltClass_NeedLevelVip2?$AA@ DB 'Command_AltCla'
	DB	'ss_NeedLevelVip2', 00H			; `string'
CONST	ENDS
;	COMDAT ??_C@_0BP@HLMEAIOK@Command_AltClass_NeedLevelVip1?$AA@
CONST	SEGMENT
??_C@_0BP@HLMEAIOK@Command_AltClass_NeedLevelVip1?$AA@ DB 'Command_AltCla'
	DB	'ss_NeedLevelVip1', 00H			; `string'
CONST	ENDS
;	COMDAT ??_C@_0BP@FIAGLGDN@Command_AltClass_NeedLevelFree?$AA@
CONST	SEGMENT
??_C@_0BP@FIAGLGDN@Command_AltClass_NeedLevelFree?$AA@ DB 'Command_AltCla'
	DB	'ss_NeedLevelFree', 00H			; `string'
CONST	ENDS
;	COMDAT ??_C@_0BM@GFADHCKN@Command_AltClass_SwitchVip3?$AA@
CONST	SEGMENT
??_C@_0BM@GFADHCKN@Command_AltClass_SwitchVip3?$AA@ DB 'Command_AltClass_'
	DB	'SwitchVip3', 00H				; `string'
CONST	ENDS
;	COMDAT ??_C@_0BM@HMBIEDOM@Command_AltClass_SwitchVip2?$AA@
CONST	SEGMENT
??_C@_0BM@HMBIEDOM@Command_AltClass_SwitchVip2?$AA@ DB 'Command_AltClass_'
	DB	'SwitchVip2', 00H				; `string'
CONST	ENDS
;	COMDAT ??_C@_0BM@FHDFBACP@Command_AltClass_SwitchVip1?$AA@
CONST	SEGMENT
??_C@_0BM@FHDFBACP@Command_AltClass_SwitchVip1?$AA@ DB 'Command_AltClass_'
	DB	'SwitchVip1', 00H				; `string'
CONST	ENDS
;	COMDAT ??_C@_0BM@HEPHKOPI@Command_AltClass_SwitchFree?$AA@
CONST	SEGMENT
??_C@_0BM@HEPHKOPI@Command_AltClass_SwitchFree?$AA@ DB 'Command_AltClass_'
	DB	'SwitchFree', 00H				; `string'
CONST	ENDS
;	COMDAT ??_C@_0BJ@ELEFHPD@Command_AltClass_Enabled?$AA@
CONST	SEGMENT
??_C@_0BJ@ELEFHPD@Command_AltClass_Enabled?$AA@ DB 'Command_AltClass_Enab'
	DB	'led', 00H					; `string'
CONST	ENDS
;	COMDAT ??_C@_0BL@HBPKEPPL@Command_AltClass_Sintax_DL?$AA@
CONST	SEGMENT
??_C@_0BL@HBPKEPPL@Command_AltClass_Sintax_DL?$AA@ DB 'Command_AltClass_S'
	DB	'intax_DL', 00H				; `string'
CONST	ENDS
;	COMDAT ??_C@_0BL@JNNPKNLP@Command_AltClass_Sintax_MG?$AA@
CONST	SEGMENT
??_C@_0BL@JNNPKNLP@Command_AltClass_Sintax_MG?$AA@ DB 'Command_AltClass_S'
	DB	'intax_MG', 00H				; `string'
CONST	ENDS
;	COMDAT ??_C@_0BL@KPOJMPDN@Command_AltClass_Sintax_ME?$AA@
CONST	SEGMENT
??_C@_0BL@KPOJMPDN@Command_AltClass_Sintax_ME?$AA@ DB 'Command_AltClass_S'
	DB	'intax_ME', 00H				; `string'
CONST	ENDS
;	COMDAT ??_C@_0BL@KDLMCANM@Command_AltClass_Sintax_FE?$AA@
CONST	SEGMENT
??_C@_0BL@KDLMCANM@Command_AltClass_Sintax_FE?$AA@ DB 'Command_AltClass_S'
	DB	'intax_FE', 00H				; `string'
CONST	ENDS
;	COMDAT ??_C@_0BL@DKDGKFIO@Command_AltClass_Sintax_BK?$AA@
CONST	SEGMENT
??_C@_0BL@DKDGKFIO@Command_AltClass_Sintax_BK?$AA@ DB 'Command_AltClass_S'
	DB	'intax_BK', 00H				; `string'
CONST	ENDS
;	COMDAT ??_C@_0BL@DOLLNJDM@Command_AltClass_Sintax_DK?$AA@
CONST	SEGMENT
??_C@_0BL@DOLLNJDM@Command_AltClass_Sintax_DK?$AA@ DB 'Command_AltClass_S'
	DB	'intax_DK', 00H				; `string'
CONST	ENDS
;	COMDAT ??_C@_0BL@HBIIMLEP@Command_AltClass_Sintax_SM?$AA@
CONST	SEGMENT
??_C@_0BL@HBIIMLEP@Command_AltClass_Sintax_SM?$AA@ DB 'Command_AltClass_S'
	DB	'intax_SM', 00H				; `string'
CONST	ENDS
;	COMDAT ??_C@_0BL@NIMMIEGB@Command_AltClass_Sintax_DW?$AA@
CONST	SEGMENT
??_C@_0BL@NIMMIEGB@Command_AltClass_Sintax_DW?$AA@ DB 'Command_AltClass_S'
	DB	'intax_DW', 00H				; `string'
CONST	ENDS
;	COMDAT ??_C@_0CK@MKPNMCKB@Command_EventManager_NeedMasterR@
CONST	SEGMENT
??_C@_0CK@MKPNMCKB@Command_EventManager_NeedMasterR@ DB 'Command_EventMan'
	DB	'ager_NeedMasterResetsVip3', 00H		; `string'
CONST	ENDS
;	COMDAT ??_C@_0CK@NDOGPDOA@Command_EventManager_NeedMasterR@
CONST	SEGMENT
??_C@_0CK@NDOGPDOA@Command_EventManager_NeedMasterR@ DB 'Command_EventMan'
	DB	'ager_NeedMasterResetsVip2', 00H		; `string'
CONST	ENDS
;	COMDAT ??_C@_0CK@PIMLKACD@Command_EventManager_NeedMasterR@
CONST	SEGMENT
??_C@_0CK@PIMLKACD@Command_EventManager_NeedMasterR@ DB 'Command_EventMan'
	DB	'ager_NeedMasterResetsVip1', 00H		; `string'
CONST	ENDS
;	COMDAT ??_C@_0CK@NLAJBOPE@Command_EventManager_NeedMasterR@
CONST	SEGMENT
??_C@_0CK@NLAJBOPE@Command_EventManager_NeedMasterR@ DB 'Command_EventMan'
	DB	'ager_NeedMasterResetsFree', 00H		; `string'
CONST	ENDS
;	COMDAT ??_C@_0CE@HNMIHNAI@Command_EventManager_NeedResetsV@
CONST	SEGMENT
??_C@_0CE@HNMIHNAI@Command_EventManager_NeedResetsV@ DB 'Command_EventMan'
	DB	'ager_NeedResetsVip3', 00H			; `string'
CONST	ENDS
;	COMDAT ??_C@_0CE@GENDEMEJ@Command_EventManager_NeedResetsV@
CONST	SEGMENT
??_C@_0CE@GENDEMEJ@Command_EventManager_NeedResetsV@ DB 'Command_EventMan'
	DB	'ager_NeedResetsVip2', 00H			; `string'
CONST	ENDS
;	COMDAT ??_C@_0CE@EPPOBPIK@Command_EventManager_NeedResetsV@
CONST	SEGMENT
??_C@_0CE@EPPOBPIK@Command_EventManager_NeedResetsV@ DB 'Command_EventMan'
	DB	'ager_NeedResetsVip1', 00H			; `string'
CONST	ENDS
;	COMDAT ??_C@_0CE@GMDMKBFN@Command_EventManager_NeedResetsF@
CONST	SEGMENT
??_C@_0CE@GMDMKBFN@Command_EventManager_NeedResetsF@ DB 'Command_EventMan'
	DB	'ager_NeedResetsFree', 00H			; `string'
CONST	ENDS
;	COMDAT ??_C@_0CD@BFCHDPM@Command_EventManager_NeedMoneyVi@
CONST	SEGMENT
??_C@_0CD@BFCHDPM@Command_EventManager_NeedMoneyVi@ DB 'Command_EventMana'
	DB	'ger_NeedMoneyVip3', 00H			; `string'
CONST	ENDS
;	COMDAT ??_C@_0CD@BIEJECLN@Command_EventManager_NeedMoneyVi@
CONST	SEGMENT
??_C@_0CD@BIEJECLN@Command_EventManager_NeedMoneyVi@ DB 'Command_EventMan'
	DB	'ager_NeedMoneyVip2', 00H			; `string'
CONST	ENDS
;	COMDAT ??_C@_0CD@DDGEBBHO@Command_EventManager_NeedMoneyVi@
CONST	SEGMENT
??_C@_0CD@DDGEBBHO@Command_EventManager_NeedMoneyVi@ DB 'Command_EventMan'
	DB	'ager_NeedMoneyVip1', 00H			; `string'
CONST	ENDS
;	COMDAT ??_C@_0CD@BAKGKPKJ@Command_EventManager_NeedMoneyFr@
CONST	SEGMENT
??_C@_0CD@BAKGKPKJ@Command_EventManager_NeedMoneyFr@ DB 'Command_EventMan'
	DB	'ager_NeedMoneyFree', 00H			; `string'
CONST	ENDS
;	COMDAT ??_C@_0CD@IHPLCLOK@Command_EventManager_NeedLevelVi@
CONST	SEGMENT
??_C@_0CD@IHPLCLOK@Command_EventManager_NeedLevelVi@ DB 'Command_EventMan'
	DB	'ager_NeedLevelVip3', 00H			; `string'
CONST	ENDS
;	COMDAT ??_C@_0CD@JOOABKKL@Command_EventManager_NeedLevelVi@
CONST	SEGMENT
??_C@_0CD@JOOABKKL@Command_EventManager_NeedLevelVi@ DB 'Command_EventMan'
	DB	'ager_NeedLevelVip2', 00H			; `string'
CONST	ENDS
;	COMDAT ??_C@_0CD@LFMNEJGI@Command_EventManager_NeedLevelVi@
CONST	SEGMENT
??_C@_0CD@LFMNEJGI@Command_EventManager_NeedLevelVi@ DB 'Command_EventMan'
	DB	'ager_NeedLevelVip1', 00H			; `string'
CONST	ENDS
;	COMDAT ??_C@_0CD@JGAPPHLP@Command_EventManager_NeedLevelFr@
CONST	SEGMENT
??_C@_0CD@JGAPPHLP@Command_EventManager_NeedLevelFr@ DB 'Command_EventMan'
	DB	'ager_NeedLevelFree', 00H			; `string'
CONST	ENDS
;	COMDAT ??_C@_0CA@MMEFACOF@Command_EventManager_SwitchVip3?$AA@
CONST	SEGMENT
??_C@_0CA@MMEFACOF@Command_EventManager_SwitchVip3?$AA@ DB 'Command_Event'
	DB	'Manager_SwitchVip3', 00H			; `string'
CONST	ENDS
;	COMDAT ??_C@_0CA@NFFODDKE@Command_EventManager_SwitchVip2?$AA@
CONST	SEGMENT
??_C@_0CA@NFFODDKE@Command_EventManager_SwitchVip2?$AA@ DB 'Command_Event'
	DB	'Manager_SwitchVip2', 00H			; `string'
CONST	ENDS
;	COMDAT ??_C@_0CA@POHDGAGH@Command_EventManager_SwitchVip1?$AA@
CONST	SEGMENT
??_C@_0CA@POHDGAGH@Command_EventManager_SwitchVip1?$AA@ DB 'Command_Event'
	DB	'Manager_SwitchVip1', 00H			; `string'
CONST	ENDS
;	COMDAT ??_C@_0CA@NNLBNOLA@Command_EventManager_SwitchFree?$AA@
CONST	SEGMENT
??_C@_0CA@NNLBNOLA@Command_EventManager_SwitchFree?$AA@ DB 'Command_Event'
	DB	'Manager_SwitchFree', 00H			; `string'
CONST	ENDS
;	COMDAT ??_C@_0BN@JJFMLIFH@Command_EventManager_Enabled?$AA@
CONST	SEGMENT
??_C@_0BN@JJFMLIFH@Command_EventManager_Enabled?$AA@ DB 'Command_EventMan'
	DB	'ager_Enabled', 00H				; `string'
CONST	ENDS
;	COMDAT ??_C@_0CC@DMKIEDEK@Command_EventManager_Sintax_Ente@
CONST	SEGMENT
??_C@_0CC@DMKIEDEK@Command_EventManager_Sintax_Ente@ DB 'Command_EventMan'
	DB	'ager_Sintax_Enter', 00H			; `string'
CONST	ENDS
;	COMDAT ??_C@_0CB@BBMKKDLF@Command_EventManager_Sintax_Open@
CONST	SEGMENT
??_C@_0CB@BBMKKDLF@Command_EventManager_Sintax_Open@ DB 'Command_EventMan'
	DB	'ager_Sintax_Open', 00H			; `string'
CONST	ENDS
;	COMDAT ??_C@_0CL@EAKGCKJK@Command_WarehouseInfo_NeedMaster@
CONST	SEGMENT
??_C@_0CL@EAKGCKJK@Command_WarehouseInfo_NeedMaster@ DB 'Command_Warehous'
	DB	'eInfo_NeedMasterResetsVip3', 00H		; `string'
CONST	ENDS
;	COMDAT ??_C@_0CL@FJLNBLNL@Command_WarehouseInfo_NeedMaster@
CONST	SEGMENT
??_C@_0CL@FJLNBLNL@Command_WarehouseInfo_NeedMaster@ DB 'Command_Warehous'
	DB	'eInfo_NeedMasterResetsVip2', 00H		; `string'
CONST	ENDS
;	COMDAT ??_C@_0CL@HCJAEIBI@Command_WarehouseInfo_NeedMaster@
CONST	SEGMENT
??_C@_0CL@HCJAEIBI@Command_WarehouseInfo_NeedMaster@ DB 'Command_Warehous'
	DB	'eInfo_NeedMasterResetsVip1', 00H		; `string'
CONST	ENDS
;	COMDAT ??_C@_0CL@FBFCPGMP@Command_WarehouseInfo_NeedMaster@
CONST	SEGMENT
??_C@_0CL@FBFCPGMP@Command_WarehouseInfo_NeedMaster@ DB 'Command_Warehous'
	DB	'eInfo_NeedMasterResetsFree', 00H		; `string'
CONST	ENDS
;	COMDAT ??_C@_0CF@EJIDLHON@Command_WarehouseInfo_NeedResets@
CONST	SEGMENT
??_C@_0CF@EJIDLHON@Command_WarehouseInfo_NeedResets@ DB 'Command_Warehous'
	DB	'eInfo_NeedResetsVip3', 00H			; `string'
CONST	ENDS
;	COMDAT ??_C@_0CF@FAJIIGKM@Command_WarehouseInfo_NeedResets@
CONST	SEGMENT
??_C@_0CF@FAJIIGKM@Command_WarehouseInfo_NeedResets@ DB 'Command_Warehous'
	DB	'eInfo_NeedResetsVip2', 00H			; `string'
CONST	ENDS
;	COMDAT ??_C@_0CF@HLLFNFGP@Command_WarehouseInfo_NeedResets@
CONST	SEGMENT
??_C@_0CF@HLLFNFGP@Command_WarehouseInfo_NeedResets@ DB 'Command_Warehous'
	DB	'eInfo_NeedResetsVip1', 00H			; `string'
CONST	ENDS
;	COMDAT ??_C@_0CF@FIHHGLLI@Command_WarehouseInfo_NeedResets@
CONST	SEGMENT
??_C@_0CF@FIHHGLLI@Command_WarehouseInfo_NeedResets@ DB 'Command_Warehous'
	DB	'eInfo_NeedResetsFree', 00H			; `string'
CONST	ENDS
;	COMDAT ??_C@_0CE@CEEBGKJF@Command_WarehouseInfo_NeedMoneyV@
CONST	SEGMENT
??_C@_0CE@CEEBGKJF@Command_WarehouseInfo_NeedMoneyV@ DB 'Command_Warehous'
	DB	'eInfo_NeedMoneyVip3', 00H			; `string'
CONST	ENDS
;	COMDAT ??_C@_0CE@DNFKFLNE@Command_WarehouseInfo_NeedMoneyV@
CONST	SEGMENT
??_C@_0CE@DNFKFLNE@Command_WarehouseInfo_NeedMoneyV@ DB 'Command_Warehous'
	DB	'eInfo_NeedMoneyVip2', 00H			; `string'
CONST	ENDS
;	COMDAT ??_C@_0CE@BGHHAIBH@Command_WarehouseInfo_NeedMoneyV@
CONST	SEGMENT
??_C@_0CE@BGHHAIBH@Command_WarehouseInfo_NeedMoneyV@ DB 'Command_Warehous'
	DB	'eInfo_NeedMoneyVip1', 00H			; `string'
CONST	ENDS
;	COMDAT ??_C@_0CE@DFLFLGMA@Command_WarehouseInfo_NeedMoneyF@
CONST	SEGMENT
??_C@_0CE@DFLFLGMA@Command_WarehouseInfo_NeedMoneyF@ DB 'Command_Warehous'
	DB	'eInfo_NeedMoneyFree', 00H			; `string'
CONST	ENDS
;	COMDAT ??_C@_0CE@KCOIDCID@Command_WarehouseInfo_NeedLevelV@
CONST	SEGMENT
??_C@_0CE@KCOIDCID@Command_WarehouseInfo_NeedLevelV@ DB 'Command_Warehous'
	DB	'eInfo_NeedLevelVip3', 00H			; `string'
CONST	ENDS
;	COMDAT ??_C@_0CE@LLPDADMC@Command_WarehouseInfo_NeedLevelV@
CONST	SEGMENT
??_C@_0CE@LLPDADMC@Command_WarehouseInfo_NeedLevelV@ DB 'Command_Warehous'
	DB	'eInfo_NeedLevelVip2', 00H			; `string'
CONST	ENDS
;	COMDAT ??_C@_0CE@JANOFAAB@Command_WarehouseInfo_NeedLevelV@
CONST	SEGMENT
??_C@_0CE@JANOFAAB@Command_WarehouseInfo_NeedLevelV@ DB 'Command_Warehous'
	DB	'eInfo_NeedLevelVip1', 00H			; `string'
CONST	ENDS
;	COMDAT ??_C@_0CE@LDBMOONG@Command_WarehouseInfo_NeedLevelF@
CONST	SEGMENT
??_C@_0CE@LDBMOONG@Command_WarehouseInfo_NeedLevelF@ DB 'Command_Warehous'
	DB	'eInfo_NeedLevelFree', 00H			; `string'
CONST	ENDS
;	COMDAT ??_C@_0CB@FNPOIPHL@Command_WarehouseInfo_SwitchVip3@
CONST	SEGMENT
??_C@_0CB@FNPOIPHL@Command_WarehouseInfo_SwitchVip3@ DB 'Command_Warehous'
	DB	'eInfo_SwitchVip3', 00H			; `string'
CONST	ENDS
;	COMDAT ??_C@_0CB@EEOFLODK@Command_WarehouseInfo_SwitchVip2@
CONST	SEGMENT
??_C@_0CB@EEOFLODK@Command_WarehouseInfo_SwitchVip2@ DB 'Command_Warehous'
	DB	'eInfo_SwitchVip2', 00H			; `string'
CONST	ENDS
;	COMDAT ??_C@_0CB@GPMIONPJ@Command_WarehouseInfo_SwitchVip1@
CONST	SEGMENT
??_C@_0CB@GPMIONPJ@Command_WarehouseInfo_SwitchVip1@ DB 'Command_Warehous'
	DB	'eInfo_SwitchVip1', 00H			; `string'
CONST	ENDS
;	COMDAT ??_C@_0CB@EMAKFDCO@Command_WarehouseInfo_SwitchFree@
CONST	SEGMENT
??_C@_0CB@EMAKFDCO@Command_WarehouseInfo_SwitchFree@ DB 'Command_Warehous'
	DB	'eInfo_SwitchFree', 00H			; `string'
CONST	ENDS
;	COMDAT ??_C@_0BO@MBMHNJID@Command_WarehouseInfo_Enabled?$AA@
CONST	SEGMENT
??_C@_0BO@MBMHNJID@Command_WarehouseInfo_Enabled?$AA@ DB 'Command_Warehou'
	DB	'seInfo_Enabled', 00H			; `string'
CONST	ENDS
;	COMDAT ??_C@_0BN@PFIGHEOO@Command_WarehouseInfo_Sintax?$AA@
CONST	SEGMENT
??_C@_0BN@PFIGHEOO@Command_WarehouseInfo_Sintax?$AA@ DB 'Command_Warehous'
	DB	'eInfo_Sintax', 00H				; `string'
CONST	ENDS
;	COMDAT ??_C@_0BM@EGPJOGGJ@Command_OpenWarehouse_Delay?$AA@
CONST	SEGMENT
??_C@_0BM@EGPJOGGJ@Command_OpenWarehouse_Delay?$AA@ DB 'Command_OpenWareh'
	DB	'ouse_Delay', 00H				; `string'
CONST	ENDS
;	COMDAT ??_C@_0CL@BKCJFIJD@Command_OpenWarehouse_NeedMaster@
CONST	SEGMENT
??_C@_0CL@BKCJFIJD@Command_OpenWarehouse_NeedMaster@ DB 'Command_OpenWare'
	DB	'house_NeedMasterResetsVip3', 00H		; `string'
CONST	ENDS
;	COMDAT ??_C@_0CL@DDCGJNC@Command_OpenWarehouse_NeedMaster@
CONST	SEGMENT
??_C@_0CL@DDCGJNC@Command_OpenWarehouse_NeedMaster@ DB 'Command_OpenWareh'
	DB	'ouse_NeedMasterResetsVip2', 00H		; `string'
CONST	ENDS
;	COMDAT ??_C@_0CL@CIBPDKBB@Command_OpenWarehouse_NeedMaster@
CONST	SEGMENT
??_C@_0CL@CIBPDKBB@Command_OpenWarehouse_NeedMaster@ DB 'Command_OpenWare'
	DB	'house_NeedMasterResetsVip1', 00H		; `string'
CONST	ENDS
;	COMDAT ??_C@_0CL@LNNIEMG@Command_OpenWarehouse_NeedMaster@
CONST	SEGMENT
??_C@_0CL@LNNIEMG@Command_OpenWarehouse_NeedMaster@ DB 'Command_OpenWareh'
	DB	'ouse_NeedMasterResetsFree', 00H		; `string'
CONST	ENDS
;	COMDAT ??_C@_0CF@OCIBBPDB@Command_OpenWarehouse_NeedResets@
CONST	SEGMENT
??_C@_0CF@OCIBBPDB@Command_OpenWarehouse_NeedResets@ DB 'Command_OpenWare'
	DB	'house_NeedResetsVip3', 00H			; `string'
CONST	ENDS
;	COMDAT ??_C@_0CF@PLJKCOHA@Command_OpenWarehouse_NeedResets@
CONST	SEGMENT
??_C@_0CF@PLJKCOHA@Command_OpenWarehouse_NeedResets@ DB 'Command_OpenWare'
	DB	'house_NeedResetsVip2', 00H			; `string'
CONST	ENDS
;	COMDAT ??_C@_0CF@NALHHNLD@Command_OpenWarehouse_NeedResets@
CONST	SEGMENT
??_C@_0CF@NALHHNLD@Command_OpenWarehouse_NeedResets@ DB 'Command_OpenWare'
	DB	'house_NeedResetsVip1', 00H			; `string'
CONST	ENDS
;	COMDAT ??_C@_0CF@PDHFMDGE@Command_OpenWarehouse_NeedResets@
CONST	SEGMENT
??_C@_0CF@PDHFMDGE@Command_OpenWarehouse_NeedResets@ DB 'Command_OpenWare'
	DB	'house_NeedResetsFree', 00H			; `string'
CONST	ENDS
;	COMDAT ??_C@_0CE@PHNEOPLK@Command_OpenWarehouse_NeedMoneyV@
CONST	SEGMENT
??_C@_0CE@PHNEOPLK@Command_OpenWarehouse_NeedMoneyV@ DB 'Command_OpenWare'
	DB	'house_NeedMoneyVip3', 00H			; `string'
CONST	ENDS
;	COMDAT ??_C@_0CE@OOMPNOPL@Command_OpenWarehouse_NeedMoneyV@
CONST	SEGMENT
??_C@_0CE@OOMPNOPL@Command_OpenWarehouse_NeedMoneyV@ DB 'Command_OpenWare'
	DB	'house_NeedMoneyVip2', 00H			; `string'
CONST	ENDS
;	COMDAT ??_C@_0CE@MFOCINDI@Command_OpenWarehouse_NeedMoneyV@
CONST	SEGMENT
??_C@_0CE@MFOCINDI@Command_OpenWarehouse_NeedMoneyV@ DB 'Command_OpenWare'
	DB	'house_NeedMoneyVip1', 00H			; `string'
CONST	ENDS
;	COMDAT ??_C@_0CE@OGCADDOP@Command_OpenWarehouse_NeedMoneyF@
CONST	SEGMENT
??_C@_0CE@OGCADDOP@Command_OpenWarehouse_NeedMoneyF@ DB 'Command_OpenWare'
	DB	'house_NeedMoneyFree', 00H			; `string'
CONST	ENDS
;	COMDAT ??_C@_0CE@HBHNLHKM@Command_OpenWarehouse_NeedLevelV@
CONST	SEGMENT
??_C@_0CE@HBHNLHKM@Command_OpenWarehouse_NeedLevelV@ DB 'Command_OpenWare'
	DB	'house_NeedLevelVip3', 00H			; `string'
CONST	ENDS
;	COMDAT ??_C@_0CE@GIGGIGON@Command_OpenWarehouse_NeedLevelV@
CONST	SEGMENT
??_C@_0CE@GIGGIGON@Command_OpenWarehouse_NeedLevelV@ DB 'Command_OpenWare'
	DB	'house_NeedLevelVip2', 00H			; `string'
CONST	ENDS
;	COMDAT ??_C@_0CE@EDELNFCO@Command_OpenWarehouse_NeedLevelV@
CONST	SEGMENT
??_C@_0CE@EDELNFCO@Command_OpenWarehouse_NeedLevelV@ DB 'Command_OpenWare'
	DB	'house_NeedLevelVip1', 00H			; `string'
CONST	ENDS
;	COMDAT ??_C@_0CE@GAIJGLPJ@Command_OpenWarehouse_NeedLevelF@
CONST	SEGMENT
??_C@_0CE@GAIJGLPJ@Command_OpenWarehouse_NeedLevelF@ DB 'Command_OpenWare'
	DB	'house_NeedLevelFree', 00H			; `string'
CONST	ENDS
;	COMDAT ??_C@_0CB@NHLEJAKM@Command_OpenWarehouse_SwitchVip3@
CONST	SEGMENT
??_C@_0CB@NHLEJAKM@Command_OpenWarehouse_SwitchVip3@ DB 'Command_OpenWare'
	DB	'house_SwitchVip3', 00H			; `string'
CONST	ENDS
;	COMDAT ??_C@_0CB@MOKPKBON@Command_OpenWarehouse_SwitchVip2@
CONST	SEGMENT
??_C@_0CB@MOKPKBON@Command_OpenWarehouse_SwitchVip2@ DB 'Command_OpenWare'
	DB	'house_SwitchVip2', 00H			; `string'
CONST	ENDS
;	COMDAT ??_C@_0CB@OFICPCCO@Command_OpenWarehouse_SwitchVip1@
CONST	SEGMENT
??_C@_0CB@OFICPCCO@Command_OpenWarehouse_SwitchVip1@ DB 'Command_OpenWare'
	DB	'house_SwitchVip1', 00H			; `string'
CONST	ENDS
;	COMDAT ??_C@_0CB@MGEAEMPJ@Command_OpenWarehouse_SwitchFree@
CONST	SEGMENT
??_C@_0CB@MGEAEMPJ@Command_OpenWarehouse_SwitchFree@ DB 'Command_OpenWare'
	DB	'house_SwitchFree', 00H			; `string'
CONST	ENDS
;	COMDAT ??_C@_0BO@OAIPOMPF@Command_OpenWarehouse_Enabled?$AA@
CONST	SEGMENT
??_C@_0BO@OAIPOMPF@Command_OpenWarehouse_Enabled?$AA@ DB 'Command_OpenWar'
	DB	'ehouse_Enabled', 00H			; `string'
CONST	ENDS
;	COMDAT ??_C@_0BN@JEHLHNK@Command_OpenWarehouse_Sintax?$AA@
CONST	SEGMENT
??_C@_0BN@JEHLHNK@Command_OpenWarehouse_Sintax?$AA@ DB 'Command_OpenWareh'
	DB	'ouse_Sintax', 00H				; `string'
CONST	ENDS
;	COMDAT ??_C@_0BI@FBEFGMIJ@Command_Warehouse_Delay?$AA@
CONST	SEGMENT
??_C@_0BI@FBEFGMIJ@Command_Warehouse_Delay?$AA@ DB 'Command_Warehouse_Del'
	DB	'ay', 00H					; `string'
CONST	ENDS
;	COMDAT ??_C@_0CB@HNFHPICI@Command_Warehouse_WareNumberVip3@
CONST	SEGMENT
??_C@_0CB@HNFHPICI@Command_Warehouse_WareNumberVip3@ DB 'Command_Warehous'
	DB	'e_WareNumberVip3', 00H			; `string'
CONST	ENDS
;	COMDAT ??_C@_0CB@GEEMMJGJ@Command_Warehouse_WareNumberVip2@
CONST	SEGMENT
??_C@_0CB@GEEMMJGJ@Command_Warehouse_WareNumberVip2@ DB 'Command_Warehous'
	DB	'e_WareNumberVip2', 00H			; `string'
CONST	ENDS
;	COMDAT ??_C@_0CB@EPGBJKKK@Command_Warehouse_WareNumberVip1@
CONST	SEGMENT
??_C@_0CB@EPGBJKKK@Command_Warehouse_WareNumberVip1@ DB 'Command_Warehous'
	DB	'e_WareNumberVip1', 00H			; `string'
CONST	ENDS
;	COMDAT ??_C@_0CB@GMKDCEHN@Command_Warehouse_WareNumberFree@
CONST	SEGMENT
??_C@_0CB@GMKDCEHN@Command_Warehouse_WareNumberFree@ DB 'Command_Warehous'
	DB	'e_WareNumberFree', 00H			; `string'
CONST	ENDS
;	COMDAT ??_C@_0BL@PPHAJHDA@Command_Warehouse_WareType?$AA@
CONST	SEGMENT
??_C@_0BL@PPHAJHDA@Command_Warehouse_WareType?$AA@ DB 'Command_Warehouse_'
	DB	'WareType', 00H				; `string'
CONST	ENDS
;	COMDAT ??_C@_0CH@CPNKNAC@Command_Warehouse_NeedMasterRese@
CONST	SEGMENT
??_C@_0CH@CPNKNAC@Command_Warehouse_NeedMasterRese@ DB 'Command_Warehouse'
	DB	'_NeedMasterResetsVip3', 00H			; `string'
CONST	ENDS
;	COMDAT ??_C@_0CH@BLOGJMED@Command_Warehouse_NeedMasterRese@
CONST	SEGMENT
??_C@_0CH@BLOGJMED@Command_Warehouse_NeedMasterRese@ DB 'Command_Warehous'
	DB	'e_NeedMasterResetsVip2', 00H		; `string'
CONST	ENDS
;	COMDAT ??_C@_0CH@DAMLMPIA@Command_Warehouse_NeedMasterRese@
CONST	SEGMENT
??_C@_0CH@DAMLMPIA@Command_Warehouse_NeedMasterRese@ DB 'Command_Warehous'
	DB	'e_NeedMasterResetsVip1', 00H		; `string'
CONST	ENDS
;	COMDAT ??_C@_0CH@BDAJHBFH@Command_Warehouse_NeedMasterRese@
CONST	SEGMENT
??_C@_0CH@BDAJHBFH@Command_Warehouse_NeedMasterRese@ DB 'Command_Warehous'
	DB	'e_NeedMasterResetsFree', 00H		; `string'
CONST	ENDS
;	COMDAT ??_C@_0CB@ODEKBADP@Command_Warehouse_NeedResetsVip3@
CONST	SEGMENT
??_C@_0CB@ODEKBADP@Command_Warehouse_NeedResetsVip3@ DB 'Command_Warehous'
	DB	'e_NeedResetsVip3', 00H			; `string'
CONST	ENDS
;	COMDAT ??_C@_0CB@PKFBCBHO@Command_Warehouse_NeedResetsVip2@
CONST	SEGMENT
??_C@_0CB@PKFBCBHO@Command_Warehouse_NeedResetsVip2@ DB 'Command_Warehous'
	DB	'e_NeedResetsVip2', 00H			; `string'
CONST	ENDS
;	COMDAT ??_C@_0CB@NBHMHCLN@Command_Warehouse_NeedResetsVip1@
CONST	SEGMENT
??_C@_0CB@NBHMHCLN@Command_Warehouse_NeedResetsVip1@ DB 'Command_Warehous'
	DB	'e_NeedResetsVip1', 00H			; `string'
CONST	ENDS
;	COMDAT ??_C@_0CB@PCLOMMGK@Command_Warehouse_NeedResetsFree@
CONST	SEGMENT
??_C@_0CB@PCLOMMGK@Command_Warehouse_NeedResetsFree@ DB 'Command_Warehous'
	DB	'e_NeedResetsFree', 00H			; `string'
CONST	ENDS
;	COMDAT ??_C@_0CA@OHKKOHPL@Command_Warehouse_NeedMoneyVip3?$AA@
CONST	SEGMENT
??_C@_0CA@OHKKOHPL@Command_Warehouse_NeedMoneyVip3?$AA@ DB 'Command_Wareh'
	DB	'ouse_NeedMoneyVip3', 00H			; `string'
CONST	ENDS
;	COMDAT ??_C@_0CA@POLBNGLK@Command_Warehouse_NeedMoneyVip2?$AA@
CONST	SEGMENT
??_C@_0CA@POLBNGLK@Command_Warehouse_NeedMoneyVip2?$AA@ DB 'Command_Wareh'
	DB	'ouse_NeedMoneyVip2', 00H			; `string'
CONST	ENDS
;	COMDAT ??_C@_0CA@NFJMIFHJ@Command_Warehouse_NeedMoneyVip1?$AA@
CONST	SEGMENT
??_C@_0CA@NFJMIFHJ@Command_Warehouse_NeedMoneyVip1?$AA@ DB 'Command_Wareh'
	DB	'ouse_NeedMoneyVip1', 00H			; `string'
CONST	ENDS
;	COMDAT ??_C@_0CA@PGFODLKO@Command_Warehouse_NeedMoneyFree?$AA@
CONST	SEGMENT
??_C@_0CA@PGFODLKO@Command_Warehouse_NeedMoneyFree?$AA@ DB 'Command_Wareh'
	DB	'ouse_NeedMoneyFree', 00H			; `string'
CONST	ENDS
;	COMDAT ??_C@_0CA@GBADLPON@Command_Warehouse_NeedLevelVip3?$AA@
CONST	SEGMENT
??_C@_0CA@GBADLPON@Command_Warehouse_NeedLevelVip3?$AA@ DB 'Command_Wareh'
	DB	'ouse_NeedLevelVip3', 00H			; `string'
CONST	ENDS
;	COMDAT ??_C@_0CA@HIBIIOKM@Command_Warehouse_NeedLevelVip2?$AA@
CONST	SEGMENT
??_C@_0CA@HIBIIOKM@Command_Warehouse_NeedLevelVip2?$AA@ DB 'Command_Wareh'
	DB	'ouse_NeedLevelVip2', 00H			; `string'
CONST	ENDS
;	COMDAT ??_C@_0CA@FDDFNNGP@Command_Warehouse_NeedLevelVip1?$AA@
CONST	SEGMENT
??_C@_0CA@FDDFNNGP@Command_Warehouse_NeedLevelVip1?$AA@ DB 'Command_Wareh'
	DB	'ouse_NeedLevelVip1', 00H			; `string'
CONST	ENDS
;	COMDAT ??_C@_0CA@HAPHGDLI@Command_Warehouse_NeedLevelFree?$AA@
CONST	SEGMENT
??_C@_0CA@HAPHGDLI@Command_Warehouse_NeedLevelFree?$AA@ DB 'Command_Wareh'
	DB	'ouse_NeedLevelFree', 00H			; `string'
CONST	ENDS
;	COMDAT ??_C@_0BN@LEEDICMO@Command_Warehouse_SwitchVip3?$AA@
CONST	SEGMENT
??_C@_0BN@LEEDICMO@Command_Warehouse_SwitchVip3?$AA@ DB 'Command_Warehous'
	DB	'e_SwitchVip3', 00H				; `string'
CONST	ENDS
;	COMDAT ??_C@_0BN@KNFILDIP@Command_Warehouse_SwitchVip2?$AA@
CONST	SEGMENT
??_C@_0BN@KNFILDIP@Command_Warehouse_SwitchVip2?$AA@ DB 'Command_Warehous'
	DB	'e_SwitchVip2', 00H				; `string'
CONST	ENDS
;	COMDAT ??_C@_0BN@IGHFOAEM@Command_Warehouse_SwitchVip1?$AA@
CONST	SEGMENT
??_C@_0BN@IGHFOAEM@Command_Warehouse_SwitchVip1?$AA@ DB 'Command_Warehous'
	DB	'e_SwitchVip1', 00H				; `string'
CONST	ENDS
;	COMDAT ??_C@_0BN@KFLHFOJL@Command_Warehouse_SwitchFree?$AA@
CONST	SEGMENT
??_C@_0BN@KFLHFOJL@Command_Warehouse_SwitchFree?$AA@ DB 'Command_Warehous'
	DB	'e_SwitchFree', 00H				; `string'
CONST	ENDS
;	COMDAT ??_C@_0BK@LDJMGCJL@Command_Warehouse_Enabled?$AA@
CONST	SEGMENT
??_C@_0BK@LDJMGCJL@Command_Warehouse_Enabled?$AA@ DB 'Command_Warehouse_E'
	DB	'nabled', 00H				; `string'
CONST	ENDS
;	COMDAT ??_C@_0BJ@KJFKOJCI@Command_Warehouse_Sintax?$AA@
CONST	SEGMENT
??_C@_0BJ@KJFKOJCI@Command_Warehouse_Sintax?$AA@ DB 'Command_Warehouse_Si'
	DB	'ntax', 00H					; `string'
CONST	ENDS
;	COMDAT ??_C@_0CJ@MDKMIKBH@Command_ReAddPoints_NeedMasterRe@
CONST	SEGMENT
??_C@_0CJ@MDKMIKBH@Command_ReAddPoints_NeedMasterRe@ DB 'Command_ReAddPoi'
	DB	'nts_NeedMasterResetsVip3', 00H		; `string'
CONST	ENDS
;	COMDAT ??_C@_0CJ@NKLHLLFG@Command_ReAddPoints_NeedMasterRe@
CONST	SEGMENT
??_C@_0CJ@NKLHLLFG@Command_ReAddPoints_NeedMasterRe@ DB 'Command_ReAddPoi'
	DB	'nts_NeedMasterResetsVip2', 00H		; `string'
CONST	ENDS
;	COMDAT ??_C@_0CJ@PBJKOIJF@Command_ReAddPoints_NeedMasterRe@
CONST	SEGMENT
??_C@_0CJ@PBJKOIJF@Command_ReAddPoints_NeedMasterRe@ DB 'Command_ReAddPoi'
	DB	'nts_NeedMasterResetsVip1', 00H		; `string'
CONST	ENDS
;	COMDAT ??_C@_0CJ@NCFIFGEC@Command_ReAddPoints_NeedMasterRe@
CONST	SEGMENT
??_C@_0CJ@NCFIFGEC@Command_ReAddPoints_NeedMasterRe@ DB 'Command_ReAddPoi'
	DB	'nts_NeedMasterResetsFree', 00H		; `string'
CONST	ENDS
;	COMDAT ??_C@_0CD@NLKEPLJL@Command_ReAddPoints_NeedResetsVi@
CONST	SEGMENT
??_C@_0CD@NLKEPLJL@Command_ReAddPoints_NeedResetsVi@ DB 'Command_ReAddPoi'
	DB	'nts_NeedResetsVip3', 00H			; `string'
CONST	ENDS
;	COMDAT ??_C@_0CD@MCLPMKNK@Command_ReAddPoints_NeedResetsVi@
CONST	SEGMENT
??_C@_0CD@MCLPMKNK@Command_ReAddPoints_NeedResetsVi@ DB 'Command_ReAddPoi'
	DB	'nts_NeedResetsVip2', 00H			; `string'
CONST	ENDS
;	COMDAT ??_C@_0CD@OJJCJJBJ@Command_ReAddPoints_NeedResetsVi@
CONST	SEGMENT
??_C@_0CD@OJJCJJBJ@Command_ReAddPoints_NeedResetsVi@ DB 'Command_ReAddPoi'
	DB	'nts_NeedResetsVip1', 00H			; `string'
CONST	ENDS
;	COMDAT ??_C@_0CD@MKFACHMO@Command_ReAddPoints_NeedResetsFr@
CONST	SEGMENT
??_C@_0CD@MKFACHMO@Command_ReAddPoints_NeedResetsFr@ DB 'Command_ReAddPoi'
	DB	'nts_NeedResetsFree', 00H			; `string'
CONST	ENDS
;	COMDAT ??_C@_0CC@NBIDIHFJ@Command_ReAddPoints_NeedMoneyVip@
CONST	SEGMENT
??_C@_0CC@NBIDIHFJ@Command_ReAddPoints_NeedMoneyVip@ DB 'Command_ReAddPoi'
	DB	'nts_NeedMoneyVip3', 00H			; `string'
CONST	ENDS
;	COMDAT ??_C@_0CC@MIJILGBI@Command_ReAddPoints_NeedMoneyVip@
CONST	SEGMENT
??_C@_0CC@MIJILGBI@Command_ReAddPoints_NeedMoneyVip@ DB 'Command_ReAddPoi'
	DB	'nts_NeedMoneyVip2', 00H			; `string'
CONST	ENDS
;	COMDAT ??_C@_0CC@ODLFOFNL@Command_ReAddPoints_NeedMoneyVip@
CONST	SEGMENT
??_C@_0CC@ODLFOFNL@Command_ReAddPoints_NeedMoneyVip@ DB 'Command_ReAddPoi'
	DB	'nts_NeedMoneyVip1', 00H			; `string'
CONST	ENDS
;	COMDAT ??_C@_0CC@MAHHFLAM@Command_ReAddPoints_NeedMoneyFre@
CONST	SEGMENT
??_C@_0CC@MAHHFLAM@Command_ReAddPoints_NeedMoneyFre@ DB 'Command_ReAddPoi'
	DB	'nts_NeedMoneyFree', 00H			; `string'
CONST	ENDS
;	COMDAT ??_C@_0CC@FHCKNPEP@Command_ReAddPoints_NeedLevelVip@
CONST	SEGMENT
??_C@_0CC@FHCKNPEP@Command_ReAddPoints_NeedLevelVip@ DB 'Command_ReAddPoi'
	DB	'nts_NeedLevelVip3', 00H			; `string'
CONST	ENDS
;	COMDAT ??_C@_0CC@EODBOOAO@Command_ReAddPoints_NeedLevelVip@
CONST	SEGMENT
??_C@_0CC@EODBOOAO@Command_ReAddPoints_NeedLevelVip@ DB 'Command_ReAddPoi'
	DB	'nts_NeedLevelVip2', 00H			; `string'
CONST	ENDS
;	COMDAT ??_C@_0CC@GFBMLNMN@Command_ReAddPoints_NeedLevelVip@
CONST	SEGMENT
??_C@_0CC@GFBMLNMN@Command_ReAddPoints_NeedLevelVip@ DB 'Command_ReAddPoi'
	DB	'nts_NeedLevelVip1', 00H			; `string'
CONST	ENDS
;	COMDAT ??_C@_0CC@EGNOADBK@Command_ReAddPoints_NeedLevelFre@
CONST	SEGMENT
??_C@_0CC@EGNOADBK@Command_ReAddPoints_NeedLevelFre@ DB 'Command_ReAddPoi'
	DB	'nts_NeedLevelFree', 00H			; `string'
CONST	ENDS
;	COMDAT ??_C@_0BP@BECBAMOD@Command_ReAddPoints_SwitchVip3?$AA@
CONST	SEGMENT
??_C@_0BP@BECBAMOD@Command_ReAddPoints_SwitchVip3?$AA@ DB 'Command_ReAddP'
	DB	'oints_SwitchVip3', 00H			; `string'
CONST	ENDS
;	COMDAT ??_C@_0BP@NDKDNKC@Command_ReAddPoints_SwitchVip2?$AA@
CONST	SEGMENT
??_C@_0BP@NDKDNKC@Command_ReAddPoints_SwitchVip2?$AA@ DB 'Command_ReAddPo'
	DB	'ints_SwitchVip2', 00H			; `string'
CONST	ENDS
;	COMDAT ??_C@_0BP@CGBHGOGB@Command_ReAddPoints_SwitchVip1?$AA@
CONST	SEGMENT
??_C@_0BP@CGBHGOGB@Command_ReAddPoints_SwitchVip1?$AA@ DB 'Command_ReAddP'
	DB	'oints_SwitchVip1', 00H			; `string'
CONST	ENDS
;	COMDAT ??_C@_0BP@FNFNALG@Command_ReAddPoints_SwitchFree?$AA@
CONST	SEGMENT
??_C@_0BP@FNFNALG@Command_ReAddPoints_SwitchFree?$AA@ DB 'Command_ReAddPo'
	DB	'ints_SwitchFree', 00H			; `string'
CONST	ENDS
;	COMDAT ??_C@_0BM@FOGNJEKA@Command_ReAddPoints_Enabled?$AA@
CONST	SEGMENT
??_C@_0BM@FOGNJEKA@Command_ReAddPoints_Enabled?$AA@ DB 'Command_ReAddPoin'
	DB	'ts_Enabled', 00H				; `string'
CONST	ENDS
;	COMDAT ??_C@_0BL@OACPPCKI@Command_ReAddPoints_Sintax?$AA@
CONST	SEGMENT
??_C@_0BL@OACPPCKI@Command_ReAddPoints_Sintax?$AA@ DB 'Command_ReAddPoint'
	DB	's_Sintax', 00H				; `string'
CONST	ENDS
;	COMDAT ??_C@_0CH@ELEBEBKF@Command_AddPoints_NeedMasterRese@
CONST	SEGMENT
??_C@_0CH@ELEBEBKF@Command_AddPoints_NeedMasterRese@ DB 'Command_AddPoint'
	DB	's_NeedMasterResetsVip3', 00H		; `string'
CONST	ENDS
;	COMDAT ??_C@_0CH@FCFKHAOE@Command_AddPoints_NeedMasterRese@
CONST	SEGMENT
??_C@_0CH@FCFKHAOE@Command_AddPoints_NeedMasterRese@ DB 'Command_AddPoint'
	DB	's_NeedMasterResetsVip2', 00H		; `string'
CONST	ENDS
;	COMDAT ??_C@_0CH@HJHHCDCH@Command_AddPoints_NeedMasterRese@
CONST	SEGMENT
??_C@_0CH@HJHHCDCH@Command_AddPoints_NeedMasterRese@ DB 'Command_AddPoint'
	DB	's_NeedMasterResetsVip1', 00H		; `string'
CONST	ENDS
;	COMDAT ??_C@_0CH@FKLFJNPA@Command_AddPoints_NeedMasterRese@
CONST	SEGMENT
??_C@_0CH@FKLFJNPA@Command_AddPoints_NeedMasterRese@ DB 'Command_AddPoint'
	DB	's_NeedMasterResetsFree', 00H		; `string'
CONST	ENDS
;	COMDAT ??_C@_0CB@LLMGOEEB@Command_AddPoints_NeedResetsVip3@
CONST	SEGMENT
??_C@_0CB@LLMGOEEB@Command_AddPoints_NeedResetsVip3@ DB 'Command_AddPoint'
	DB	's_NeedResetsVip3', 00H			; `string'
CONST	ENDS
;	COMDAT ??_C@_0CB@KCNNNFAA@Command_AddPoints_NeedResetsVip2@
CONST	SEGMENT
??_C@_0CB@KCNNNFAA@Command_AddPoints_NeedResetsVip2@ DB 'Command_AddPoint'
	DB	's_NeedResetsVip2', 00H			; `string'
CONST	ENDS
;	COMDAT ??_C@_0CB@IJPAIGMD@Command_AddPoints_NeedResetsVip1@
CONST	SEGMENT
??_C@_0CB@IJPAIGMD@Command_AddPoints_NeedResetsVip1@ DB 'Command_AddPoint'
	DB	's_NeedResetsVip1', 00H			; `string'
CONST	ENDS
;	COMDAT ??_C@_0CB@KKDCDIBE@Command_AddPoints_NeedResetsFree@
CONST	SEGMENT
??_C@_0CB@KKDCDIBE@Command_AddPoints_NeedResetsFree@ DB 'Command_AddPoint'
	DB	's_NeedResetsFree', 00H			; `string'
CONST	ENDS
;	COMDAT ??_C@_0CA@DBCIIMG@Command_AddPoints_NeedMoneyVip3?$AA@
CONST	SEGMENT
??_C@_0CA@DBCIIMG@Command_AddPoints_NeedMoneyVip3?$AA@ DB 'Command_AddPoi'
	DB	'nts_NeedMoneyVip3', 00H			; `string'
CONST	ENDS
;	COMDAT ??_C@_0CA@BKAJLJIH@Command_AddPoints_NeedMoneyVip2?$AA@
CONST	SEGMENT
??_C@_0CA@BKAJLJIH@Command_AddPoints_NeedMoneyVip2?$AA@ DB 'Command_AddPo'
	DB	'ints_NeedMoneyVip2', 00H			; `string'
CONST	ENDS
;	COMDAT ??_C@_0CA@DBCEOKEE@Command_AddPoints_NeedMoneyVip1?$AA@
CONST	SEGMENT
??_C@_0CA@DBCEOKEE@Command_AddPoints_NeedMoneyVip1?$AA@ DB 'Command_AddPo'
	DB	'ints_NeedMoneyVip1', 00H			; `string'
CONST	ENDS
;	COMDAT ??_C@_0CA@BCOGFEJD@Command_AddPoints_NeedMoneyFree?$AA@
CONST	SEGMENT
??_C@_0CA@BCOGFEJD@Command_AddPoints_NeedMoneyFree?$AA@ DB 'Command_AddPo'
	DB	'ints_NeedMoneyFree', 00H			; `string'
CONST	ENDS
;	COMDAT ??_C@_0CA@IFLLNANA@Command_AddPoints_NeedLevelVip3?$AA@
CONST	SEGMENT
??_C@_0CA@IFLLNANA@Command_AddPoints_NeedLevelVip3?$AA@ DB 'Command_AddPo'
	DB	'ints_NeedLevelVip3', 00H			; `string'
CONST	ENDS
;	COMDAT ??_C@_0CA@JMKAOBJB@Command_AddPoints_NeedLevelVip2?$AA@
CONST	SEGMENT
??_C@_0CA@JMKAOBJB@Command_AddPoints_NeedLevelVip2?$AA@ DB 'Command_AddPo'
	DB	'ints_NeedLevelVip2', 00H			; `string'
CONST	ENDS
;	COMDAT ??_C@_0CA@LHINLCFC@Command_AddPoints_NeedLevelVip1?$AA@
CONST	SEGMENT
??_C@_0CA@LHINLCFC@Command_AddPoints_NeedLevelVip1?$AA@ DB 'Command_AddPo'
	DB	'ints_NeedLevelVip1', 00H			; `string'
CONST	ENDS
;	COMDAT ??_C@_0CA@JEEPAMIF@Command_AddPoints_NeedLevelFree?$AA@
CONST	SEGMENT
??_C@_0CA@JEEPAMIF@Command_AddPoints_NeedLevelFree?$AA@ DB 'Command_AddPo'
	DB	'ints_NeedLevelFree', 00H			; `string'
CONST	ENDS
;	COMDAT ??_C@_0BN@KDCLAPPE@Command_AddPoints_SwitchVip3?$AA@
CONST	SEGMENT
??_C@_0BN@KDCLAPPE@Command_AddPoints_SwitchVip3?$AA@ DB 'Command_AddPoint'
	DB	's_SwitchVip3', 00H				; `string'
CONST	ENDS
;	COMDAT ??_C@_0BN@LKDADOLF@Command_AddPoints_SwitchVip2?$AA@
CONST	SEGMENT
??_C@_0BN@LKDADOLF@Command_AddPoints_SwitchVip2?$AA@ DB 'Command_AddPoint'
	DB	's_SwitchVip2', 00H				; `string'
CONST	ENDS
;	COMDAT ??_C@_0BN@JBBNGNHG@Command_AddPoints_SwitchVip1?$AA@
CONST	SEGMENT
??_C@_0BN@JBBNGNHG@Command_AddPoints_SwitchVip1?$AA@ DB 'Command_AddPoint'
	DB	's_SwitchVip1', 00H				; `string'
CONST	ENDS
;	COMDAT ??_C@_0BN@LCNPNDKB@Command_AddPoints_SwitchFree?$AA@
CONST	SEGMENT
??_C@_0BN@LCNPNDKB@Command_AddPoints_SwitchFree?$AA@ DB 'Command_AddPoint'
	DB	's_SwitchFree', 00H				; `string'
CONST	ENDS
;	COMDAT ??_C@_0BK@JGFCPOGJ@Command_AddPoints_Enabled?$AA@
CONST	SEGMENT
??_C@_0BK@JGFCPOGJ@Command_AddPoints_Enabled?$AA@ DB 'Command_AddPoints_E'
	DB	'nabled', 00H				; `string'
CONST	ENDS
;	COMDAT ??_C@_0BM@CFFAJPCD@Command_AddPoints_SintaxCmd?$AA@
CONST	SEGMENT
??_C@_0BM@CFFAJPCD@Command_AddPoints_SintaxCmd?$AA@ DB 'Command_AddPoints'
	DB	'_SintaxCmd', 00H				; `string'
CONST	ENDS
;	COMDAT ??_C@_0BM@BLGGEPOH@Command_AddPoints_SintaxEne?$AA@
CONST	SEGMENT
??_C@_0BM@BLGGEPOH@Command_AddPoints_SintaxEne?$AA@ DB 'Command_AddPoints'
	DB	'_SintaxEne', 00H				; `string'
CONST	ENDS
;	COMDAT ??_C@_0BN@CEPHBKBK@Command_AddPoints_SiyntaxVit?$AA@
CONST	SEGMENT
??_C@_0BN@CEPHBKBK@Command_AddPoints_SiyntaxVit?$AA@ DB 'Command_AddPoint'
	DB	's_SiyntaxVit', 00H				; `string'
CONST	ENDS
;	COMDAT ??_C@_0BM@DHGAKMDD@Command_AddPoints_SintaxAgi?$AA@
CONST	SEGMENT
??_C@_0BM@DHGAKMDD@Command_AddPoints_SintaxAgi?$AA@ DB 'Command_AddPoints'
	DB	'_SintaxAgi', 00H				; `string'
CONST	ENDS
;	COMDAT ??_C@_0BM@HKCGOFJE@Command_AddPoints_SintaxStr?$AA@
CONST	SEGMENT
??_C@_0BM@HKCGOFJE@Command_AddPoints_SintaxStr?$AA@ DB 'Command_AddPoints'
	DB	'_SintaxStr', 00H				; `string'
CONST	ENDS
;	COMDAT ??_C@_0CD@JOMHIOID@Command_Money_NeedMasterResetsVi@
CONST	SEGMENT
??_C@_0CD@JOMHIOID@Command_Money_NeedMasterResetsVi@ DB 'Command_Money_Ne'
	DB	'edMasterResetsVip3', 00H			; `string'
CONST	ENDS
;	COMDAT ??_C@_0CD@IHNMLPMC@Command_Money_NeedMasterResetsVi@
CONST	SEGMENT
??_C@_0CD@IHNMLPMC@Command_Money_NeedMasterResetsVi@ DB 'Command_Money_Ne'
	DB	'edMasterResetsVip2', 00H			; `string'
CONST	ENDS
;	COMDAT ??_C@_0CD@KMPBOMAB@Command_Money_NeedMasterResetsVi@
CONST	SEGMENT
??_C@_0CD@KMPBOMAB@Command_Money_NeedMasterResetsVi@ DB 'Command_Money_Ne'
	DB	'edMasterResetsVip1', 00H			; `string'
CONST	ENDS
;	COMDAT ??_C@_0CD@IPDDFCNG@Command_Money_NeedMasterResetsFr@
CONST	SEGMENT
??_C@_0CD@IPDDFCNG@Command_Money_NeedMasterResetsFr@ DB 'Command_Money_Ne'
	DB	'edMasterResetsFree', 00H			; `string'
CONST	ENDS
;	COMDAT ??_C@_0BN@PMNHCKFG@Command_Money_NeedResetsVip3?$AA@
CONST	SEGMENT
??_C@_0BN@PMNHCKFG@Command_Money_NeedResetsVip3?$AA@ DB 'Command_Money_Ne'
	DB	'edResetsVip3', 00H				; `string'
CONST	ENDS
;	COMDAT ??_C@_0BN@OFMMBLBH@Command_Money_NeedResetsVip2?$AA@
CONST	SEGMENT
??_C@_0BN@OFMMBLBH@Command_Money_NeedResetsVip2?$AA@ DB 'Command_Money_Ne'
	DB	'edResetsVip2', 00H				; `string'
CONST	ENDS
;	COMDAT ??_C@_0BN@MOOBEINE@Command_Money_NeedResetsVip1?$AA@
CONST	SEGMENT
??_C@_0BN@MOOBEINE@Command_Money_NeedResetsVip1?$AA@ DB 'Command_Money_Ne'
	DB	'edResetsVip1', 00H				; `string'
CONST	ENDS
;	COMDAT ??_C@_0BN@ONCDPGAD@Command_Money_NeedResetsFree?$AA@
CONST	SEGMENT
??_C@_0BN@ONCDPGAD@Command_Money_NeedResetsFree?$AA@ DB 'Command_Money_Ne'
	DB	'edResetsFree', 00H				; `string'
CONST	ENDS
;	COMDAT ??_C@_0BM@KABDOACI@Command_Money_NeedMoneyVip3?$AA@
CONST	SEGMENT
??_C@_0BM@KABDOACI@Command_Money_NeedMoneyVip3?$AA@ DB 'Command_Money_Nee'
	DB	'dMoneyVip3', 00H				; `string'
CONST	ENDS
;	COMDAT ??_C@_0BM@LJAINBGJ@Command_Money_NeedMoneyVip2?$AA@
CONST	SEGMENT
??_C@_0BM@LJAINBGJ@Command_Money_NeedMoneyVip2?$AA@ DB 'Command_Money_Nee'
	DB	'dMoneyVip2', 00H				; `string'
CONST	ENDS
;	COMDAT ??_C@_0BM@JCCFICKK@Command_Money_NeedMoneyVip1?$AA@
CONST	SEGMENT
??_C@_0BM@JCCFICKK@Command_Money_NeedMoneyVip1?$AA@ DB 'Command_Money_Nee'
	DB	'dMoneyVip1', 00H				; `string'
CONST	ENDS
;	COMDAT ??_C@_0BM@LBOHDMHN@Command_Money_NeedMoneyFree?$AA@
CONST	SEGMENT
??_C@_0BM@LBOHDMHN@Command_Money_NeedMoneyFree?$AA@ DB 'Command_Money_Nee'
	DB	'dMoneyFree', 00H				; `string'
CONST	ENDS
;	COMDAT ??_C@_0BM@CGLKLIDO@Command_Money_NeedLevelVip3?$AA@
CONST	SEGMENT
??_C@_0BM@CGLKLIDO@Command_Money_NeedLevelVip3?$AA@ DB 'Command_Money_Nee'
	DB	'dLevelVip3', 00H				; `string'
CONST	ENDS
;	COMDAT ??_C@_0BM@DPKBIJHP@Command_Money_NeedLevelVip2?$AA@
CONST	SEGMENT
??_C@_0BM@DPKBIJHP@Command_Money_NeedLevelVip2?$AA@ DB 'Command_Money_Nee'
	DB	'dLevelVip2', 00H				; `string'
CONST	ENDS
;	COMDAT ??_C@_0BM@BEIMNKLM@Command_Money_NeedLevelVip1?$AA@
CONST	SEGMENT
??_C@_0BM@BEIMNKLM@Command_Money_NeedLevelVip1?$AA@ DB 'Command_Money_Nee'
	DB	'dLevelVip1', 00H				; `string'
CONST	ENDS
;	COMDAT ??_C@_0BM@DHEOGEGL@Command_Money_NeedLevelFree?$AA@
CONST	SEGMENT
??_C@_0BM@DHEOGEGL@Command_Money_NeedLevelFree?$AA@ DB 'Command_Money_Nee'
	DB	'dLevelFree', 00H				; `string'
CONST	ENDS
;	COMDAT ??_C@_0BJ@KLBEBLNG@Command_Money_SwitchVip3?$AA@
CONST	SEGMENT
??_C@_0BJ@KLBEBLNG@Command_Money_SwitchVip3?$AA@ DB 'Command_Money_Switch'
	DB	'Vip3', 00H					; `string'
CONST	ENDS
;	COMDAT ??_C@_0BJ@LCAPCKJH@Command_Money_SwitchVip2?$AA@
CONST	SEGMENT
??_C@_0BJ@LCAPCKJH@Command_Money_SwitchVip2?$AA@ DB 'Command_Money_Switch'
	DB	'Vip2', 00H					; `string'
CONST	ENDS
;	COMDAT ??_C@_0BJ@JJCCHJFE@Command_Money_SwitchVip1?$AA@
CONST	SEGMENT
??_C@_0BJ@JJCCHJFE@Command_Money_SwitchVip1?$AA@ DB 'Command_Money_Switch'
	DB	'Vip1', 00H					; `string'
CONST	ENDS
;	COMDAT ??_C@_0BJ@LKOAMHID@Command_Money_SwitchFree?$AA@
CONST	SEGMENT
??_C@_0BJ@LKOAMHID@Command_Money_SwitchFree?$AA@ DB 'Command_Money_Switch'
	DB	'Free', 00H					; `string'
CONST	ENDS
;	COMDAT ??_C@_0BG@HPFDCNMC@Command_Money_Enabled?$AA@
CONST	SEGMENT
??_C@_0BG@HPFDCNMC@Command_Money_Enabled?$AA@ DB 'Command_Money_Enabled', 00H ; `string'
CONST	ENDS
;	COMDAT ??_C@_0BF@GKGCCFJM@Command_Money_Sintax?$AA@
CONST	SEGMENT
??_C@_0BF@GKGCCFJM@Command_Money_Sintax?$AA@ DB 'Command_Money_Sintax', 00H ; `string'
CONST	ENDS
;	COMDAT ??_C@_0CB@JCOAIFMI@Command_Evo_NeedMasterResetsVip3@
CONST	SEGMENT
??_C@_0CB@JCOAIFMI@Command_Evo_NeedMasterResetsVip3@ DB 'Command_Evo_Need'
	DB	'MasterResetsVip3', 00H			; `string'
CONST	ENDS
;	COMDAT ??_C@_0CB@ILPLLEIJ@Command_Evo_NeedMasterResetsVip2@
CONST	SEGMENT
??_C@_0CB@ILPLLEIJ@Command_Evo_NeedMasterResetsVip2@ DB 'Command_Evo_Need'
	DB	'MasterResetsVip2', 00H			; `string'
CONST	ENDS
;	COMDAT ??_C@_0CB@KANGOHEK@Command_Evo_NeedMasterResetsVip1@
CONST	SEGMENT
??_C@_0CB@KANGOHEK@Command_Evo_NeedMasterResetsVip1@ DB 'Command_Evo_Need'
	DB	'MasterResetsVip1', 00H			; `string'
CONST	ENDS
;	COMDAT ??_C@_0CB@IDBEFJJN@Command_Evo_NeedMasterResetsFree@
CONST	SEGMENT
??_C@_0CB@IDBEFJJN@Command_Evo_NeedMasterResetsFree@ DB 'Command_Evo_Need'
	DB	'MasterResetsFree', 00H			; `string'
CONST	ENDS
;	COMDAT ??_C@_0BL@LGHABAOD@Command_Evo_NeedResetsVip3?$AA@
CONST	SEGMENT
??_C@_0BL@LGHABAOD@Command_Evo_NeedResetsVip3?$AA@ DB 'Command_Evo_NeedRe'
	DB	'setsVip3', 00H				; `string'
CONST	ENDS
;	COMDAT ??_C@_0BL@KPGLCBKC@Command_Evo_NeedResetsVip2?$AA@
CONST	SEGMENT
??_C@_0BL@KPGLCBKC@Command_Evo_NeedResetsVip2?$AA@ DB 'Command_Evo_NeedRe'
	DB	'setsVip2', 00H				; `string'
CONST	ENDS
;	COMDAT ??_C@_0BL@IEEGHCGB@Command_Evo_NeedResetsVip1?$AA@
CONST	SEGMENT
??_C@_0BL@IEEGHCGB@Command_Evo_NeedResetsVip1?$AA@ DB 'Command_Evo_NeedRe'
	DB	'setsVip1', 00H				; `string'
CONST	ENDS
;	COMDAT ??_C@_0BL@KHIEMMLG@Command_Evo_NeedResetsFree?$AA@
CONST	SEGMENT
??_C@_0BL@KHIEMMLG@Command_Evo_NeedResetsFree?$AA@ DB 'Command_Evo_NeedRe'
	DB	'setsFree', 00H				; `string'
CONST	ENDS
;	COMDAT ??_C@_0BK@NIIMBEEM@Command_Evo_NeedMoneyVip3?$AA@
CONST	SEGMENT
??_C@_0BK@NIIMBEEM@Command_Evo_NeedMoneyVip3?$AA@ DB 'Command_Evo_NeedMon'
	DB	'eyVip3', 00H				; `string'
CONST	ENDS
;	COMDAT ??_C@_0BK@MBJHCFAN@Command_Evo_NeedMoneyVip2?$AA@
CONST	SEGMENT
??_C@_0BK@MBJHCFAN@Command_Evo_NeedMoneyVip2?$AA@ DB 'Command_Evo_NeedMon'
	DB	'eyVip2', 00H				; `string'
CONST	ENDS
;	COMDAT ??_C@_0BK@OKLKHGMO@Command_Evo_NeedMoneyVip1?$AA@
CONST	SEGMENT
??_C@_0BK@OKLKHGMO@Command_Evo_NeedMoneyVip1?$AA@ DB 'Command_Evo_NeedMon'
	DB	'eyVip1', 00H				; `string'
CONST	ENDS
;	COMDAT ??_C@_0BK@MJHIMIBJ@Command_Evo_NeedMoneyFree?$AA@
CONST	SEGMENT
??_C@_0BK@MJHIMIBJ@Command_Evo_NeedMoneyFree?$AA@ DB 'Command_Evo_NeedMon'
	DB	'eyFree', 00H				; `string'
CONST	ENDS
;	COMDAT ??_C@_0BK@FOCFEMFK@Command_Evo_NeedLevelVip3?$AA@
CONST	SEGMENT
??_C@_0BK@FOCFEMFK@Command_Evo_NeedLevelVip3?$AA@ DB 'Command_Evo_NeedLev'
	DB	'elVip3', 00H				; `string'
CONST	ENDS
;	COMDAT ??_C@_0BK@EHDOHNBL@Command_Evo_NeedLevelVip2?$AA@
CONST	SEGMENT
??_C@_0BK@EHDOHNBL@Command_Evo_NeedLevelVip2?$AA@ DB 'Command_Evo_NeedLev'
	DB	'elVip2', 00H				; `string'
CONST	ENDS
;	COMDAT ??_C@_0BK@GMBDCONI@Command_Evo_NeedLevelVip1?$AA@
CONST	SEGMENT
??_C@_0BK@GMBDCONI@Command_Evo_NeedLevelVip1?$AA@ DB 'Command_Evo_NeedLev'
	DB	'elVip1', 00H				; `string'
CONST	ENDS
;	COMDAT ??_C@_0BK@EPNBJAAP@Command_Evo_NeedLevelFree?$AA@
CONST	SEGMENT
??_C@_0BK@EPNBJAAP@Command_Evo_NeedLevelFree?$AA@ DB 'Command_Evo_NeedLev'
	DB	'elFree', 00H				; `string'
CONST	ENDS
;	COMDAT ??_C@_0BH@JIPAHDJF@Command_Evo_SwitchVip3?$AA@
CONST	SEGMENT
??_C@_0BH@JIPAHDJF@Command_Evo_SwitchVip3?$AA@ DB 'Command_Evo_SwitchVip3'
	DB	00H						; `string'
CONST	ENDS
;	COMDAT ??_C@_0BH@IBOLECNE@Command_Evo_SwitchVip2?$AA@
CONST	SEGMENT
??_C@_0BH@IBOLECNE@Command_Evo_SwitchVip2?$AA@ DB 'Command_Evo_SwitchVip2'
	DB	00H						; `string'
CONST	ENDS
;	COMDAT ??_C@_0BH@KKMGBBBH@Command_Evo_SwitchVip1?$AA@
CONST	SEGMENT
??_C@_0BH@KKMGBBBH@Command_Evo_SwitchVip1?$AA@ DB 'Command_Evo_SwitchVip1'
	DB	00H						; `string'
CONST	ENDS
;	COMDAT ??_C@_0BH@IJAEKPMA@Command_Evo_SwitchFree?$AA@
CONST	SEGMENT
??_C@_0BH@IJAEKPMA@Command_Evo_SwitchFree?$AA@ DB 'Command_Evo_SwitchFree'
	DB	00H						; `string'
CONST	ENDS
;	COMDAT ??_C@_0BE@CDDPLADH@Command_Evo_Enabled?$AA@
CONST	SEGMENT
??_C@_0BE@CDDPLADH@Command_Evo_Enabled?$AA@ DB 'Command_Evo_Enabled', 00H ; `string'
CONST	ENDS
;	COMDAT ??_C@_0BD@LFJFNECH@Command_Evo_Sintax?$AA@
CONST	SEGMENT
??_C@_0BD@LFJFNECH@Command_Evo_Sintax?$AA@ DB 'Command_Evo_Sintax', 00H ; `string'
CONST	ENDS
;	COMDAT ??_C@_0CH@PKGIKIPK@Command_HeroClear_NeedMasterRese@
CONST	SEGMENT
??_C@_0CH@PKGIKIPK@Command_HeroClear_NeedMasterRese@ DB 'Command_HeroClea'
	DB	'r_NeedMasterResetsVip3', 00H		; `string'
CONST	ENDS
;	COMDAT ??_C@_0CH@ODHDJJLL@Command_HeroClear_NeedMasterRese@
CONST	SEGMENT
??_C@_0CH@ODHDJJLL@Command_HeroClear_NeedMasterRese@ DB 'Command_HeroClea'
	DB	'r_NeedMasterResetsVip2', 00H		; `string'
CONST	ENDS
;	COMDAT ??_C@_0CH@MIFOMKHI@Command_HeroClear_NeedMasterRese@
CONST	SEGMENT
??_C@_0CH@MIFOMKHI@Command_HeroClear_NeedMasterRese@ DB 'Command_HeroClea'
	DB	'r_NeedMasterResetsVip1', 00H		; `string'
CONST	ENDS
;	COMDAT ??_C@_0CH@OLJMHEKP@Command_HeroClear_NeedMasterRese@
CONST	SEGMENT
??_C@_0CH@OLJMHEKP@Command_HeroClear_NeedMasterRese@ DB 'Command_HeroClea'
	DB	'r_NeedMasterResetsFree', 00H		; `string'
CONST	ENDS
;	COMDAT ??_C@_0CB@MOGICDLB@Command_HeroClear_NeedResetsVip3@
CONST	SEGMENT
??_C@_0CB@MOGICDLB@Command_HeroClear_NeedResetsVip3@ DB 'Command_HeroClea'
	DB	'r_NeedResetsVip3', 00H			; `string'
CONST	ENDS
;	COMDAT ??_C@_0CB@NHHDBCPA@Command_HeroClear_NeedResetsVip2@
CONST	SEGMENT
??_C@_0CB@NHHDBCPA@Command_HeroClear_NeedResetsVip2@ DB 'Command_HeroClea'
	DB	'r_NeedResetsVip2', 00H			; `string'
CONST	ENDS
;	COMDAT ??_C@_0CB@PMFOEBDD@Command_HeroClear_NeedResetsVip1@
CONST	SEGMENT
??_C@_0CB@PMFOEBDD@Command_HeroClear_NeedResetsVip1@ DB 'Command_HeroClea'
	DB	'r_NeedResetsVip1', 00H			; `string'
CONST	ENDS
;	COMDAT ??_C@_0CB@NPJMPPOE@Command_HeroClear_NeedResetsFree@
CONST	SEGMENT
??_C@_0CB@NPJMPPOE@Command_HeroClear_NeedResetsFree@ DB 'Command_HeroClea'
	DB	'r_NeedResetsFree', 00H			; `string'
CONST	ENDS
;	COMDAT ??_C@_0CA@MHHGOEAE@Command_HeroClear_NeedMoneyVip3?$AA@
CONST	SEGMENT
??_C@_0CA@MHHGOEAE@Command_HeroClear_NeedMoneyVip3?$AA@ DB 'Command_HeroC'
	DB	'lear_NeedMoneyVip3', 00H			; `string'
CONST	ENDS
;	COMDAT ??_C@_0CA@NOGNNFEF@Command_HeroClear_NeedMoneyVip2?$AA@
CONST	SEGMENT
??_C@_0CA@NOGNNFEF@Command_HeroClear_NeedMoneyVip2?$AA@ DB 'Command_HeroC'
	DB	'lear_NeedMoneyVip2', 00H			; `string'
CONST	ENDS
;	COMDAT ??_C@_0CA@PFEAIGIG@Command_HeroClear_NeedMoneyVip1?$AA@
CONST	SEGMENT
??_C@_0CA@PFEAIGIG@Command_HeroClear_NeedMoneyVip1?$AA@ DB 'Command_HeroC'
	DB	'lear_NeedMoneyVip1', 00H			; `string'
CONST	ENDS
;	COMDAT ??_C@_0CA@NGICDIFB@Command_HeroClear_NeedMoneyFree?$AA@
CONST	SEGMENT
??_C@_0CA@NGICDIFB@Command_HeroClear_NeedMoneyFree?$AA@ DB 'Command_HeroC'
	DB	'lear_NeedMoneyFree', 00H			; `string'
CONST	ENDS
;	COMDAT ??_C@_0CA@EBNPLMBC@Command_HeroClear_NeedLevelVip3?$AA@
CONST	SEGMENT
??_C@_0CA@EBNPLMBC@Command_HeroClear_NeedLevelVip3?$AA@ DB 'Command_HeroC'
	DB	'lear_NeedLevelVip3', 00H			; `string'
CONST	ENDS
;	COMDAT ??_C@_0CA@FIMEINFD@Command_HeroClear_NeedLevelVip2?$AA@
CONST	SEGMENT
??_C@_0CA@FIMEINFD@Command_HeroClear_NeedLevelVip2?$AA@ DB 'Command_HeroC'
	DB	'lear_NeedLevelVip2', 00H			; `string'
CONST	ENDS
;	COMDAT ??_C@_0CA@HDOJNOJA@Command_HeroClear_NeedLevelVip1?$AA@
CONST	SEGMENT
??_C@_0CA@HDOJNOJA@Command_HeroClear_NeedLevelVip1?$AA@ DB 'Command_HeroC'
	DB	'lear_NeedLevelVip1', 00H			; `string'
CONST	ENDS
;	COMDAT ??_C@_0CA@FACLGAEH@Command_HeroClear_NeedLevelFree?$AA@
CONST	SEGMENT
??_C@_0CA@FACLGAEH@Command_HeroClear_NeedLevelFree?$AA@ DB 'Command_HeroC'
	DB	'lear_NeedLevelFree', 00H			; `string'
CONST	ENDS
;	COMDAT ??_C@_0BN@FHPBGEME@Command_HeroClear_SwitchVip3?$AA@
CONST	SEGMENT
??_C@_0BN@FHPBGEME@Command_HeroClear_SwitchVip3?$AA@ DB 'Command_HeroClea'
	DB	'r_SwitchVip3', 00H				; `string'
CONST	ENDS
;	COMDAT ??_C@_0BN@EOOKFFIF@Command_HeroClear_SwitchVip2?$AA@
CONST	SEGMENT
??_C@_0BN@EOOKFFIF@Command_HeroClear_SwitchVip2?$AA@ DB 'Command_HeroClea'
	DB	'r_SwitchVip2', 00H				; `string'
CONST	ENDS
;	COMDAT ??_C@_0BN@GFMHAGEG@Command_HeroClear_SwitchVip1?$AA@
CONST	SEGMENT
??_C@_0BN@GFMHAGEG@Command_HeroClear_SwitchVip1?$AA@ DB 'Command_HeroClea'
	DB	'r_SwitchVip1', 00H				; `string'
CONST	ENDS
;	COMDAT ??_C@_0BN@EGAFLIJB@Command_HeroClear_SwitchFree?$AA@
CONST	SEGMENT
??_C@_0BN@EGAFLIJB@Command_HeroClear_SwitchFree?$AA@ DB 'Command_HeroClea'
	DB	'r_SwitchFree', 00H				; `string'
CONST	ENDS
;	COMDAT ??_C@_0BK@HPCBOFKO@Command_HeroClear_Enabled?$AA@
CONST	SEGMENT
??_C@_0BK@HPCBOFKO@Command_HeroClear_Enabled?$AA@ DB 'Command_HeroClear_E'
	DB	'nabled', 00H				; `string'
CONST	ENDS
;	COMDAT ??_C@_0BJ@BIKKEJJM@Command_HeroClear_Sintax?$AA@
CONST	SEGMENT
??_C@_0BJ@BIKKEJJM@Command_HeroClear_Sintax?$AA@ DB 'Command_HeroClear_Si'
	DB	'ntax', 00H					; `string'
CONST	ENDS
;	COMDAT ??_C@_0CF@BKILJONK@Command_PKClear_NeedMasterResets@
CONST	SEGMENT
??_C@_0CF@BKILJONK@Command_PKClear_NeedMasterResets@ DB 'Command_PKClear_'
	DB	'NeedMasterResetsVip3', 00H			; `string'
CONST	ENDS
;	COMDAT ??_C@_0CF@DJAKPJL@Command_PKClear_NeedMasterResets@
CONST	SEGMENT
??_C@_0CF@DJAKPJL@Command_PKClear_NeedMasterResets@ DB 'Command_PKClear_N'
	DB	'eedMasterResetsVip2', 00H			; `string'
CONST	ENDS
;	COMDAT ??_C@_0CF@CILNPMFI@Command_PKClear_NeedMasterResets@
CONST	SEGMENT
??_C@_0CF@CILNPMFI@Command_PKClear_NeedMasterResets@ DB 'Command_PKClear_'
	DB	'NeedMasterResetsVip1', 00H			; `string'
CONST	ENDS
;	COMDAT ??_C@_0CF@LHPECIP@Command_PKClear_NeedMasterResets@
CONST	SEGMENT
??_C@_0CF@LHPECIP@Command_PKClear_NeedMasterResets@ DB 'Command_PKClear_N'
	DB	'eedMasterResetsFree', 00H			; `string'
CONST	ENDS
;	COMDAT ??_C@_0BP@INNFANKB@Command_PKClear_NeedResetsVip3?$AA@
CONST	SEGMENT
??_C@_0BP@INNFANKB@Command_PKClear_NeedResetsVip3?$AA@ DB 'Command_PKClea'
	DB	'r_NeedResetsVip3', 00H			; `string'
CONST	ENDS
;	COMDAT ??_C@_0BP@JEMODMOA@Command_PKClear_NeedResetsVip2?$AA@
CONST	SEGMENT
??_C@_0BP@JEMODMOA@Command_PKClear_NeedResetsVip2?$AA@ DB 'Command_PKClea'
	DB	'r_NeedResetsVip2', 00H			; `string'
CONST	ENDS
;	COMDAT ??_C@_0BP@LPODGPCD@Command_PKClear_NeedResetsVip1?$AA@
CONST	SEGMENT
??_C@_0BP@LPODGPCD@Command_PKClear_NeedResetsVip1?$AA@ DB 'Command_PKClea'
	DB	'r_NeedResetsVip1', 00H			; `string'
CONST	ENDS
;	COMDAT ??_C@_0BP@JMCBNBPE@Command_PKClear_NeedResetsFree?$AA@
CONST	SEGMENT
??_C@_0BP@JMCBNBPE@Command_PKClear_NeedResetsFree?$AA@ DB 'Command_PKClea'
	DB	'r_NeedResetsFree', 00H			; `string'
CONST	ENDS
;	COMDAT ??_C@_0BO@BDLBJOGM@Command_PKClear_NeedMoneyVip3?$AA@
CONST	SEGMENT
??_C@_0BO@BDLBJOGM@Command_PKClear_NeedMoneyVip3?$AA@ DB 'Command_PKClear'
	DB	'_NeedMoneyVip3', 00H			; `string'
CONST	ENDS
;	COMDAT ??_C@_0BO@KKKKPCN@Command_PKClear_NeedMoneyVip2?$AA@
CONST	SEGMENT
??_C@_0BO@KKKKPCN@Command_PKClear_NeedMoneyVip2?$AA@ DB 'Command_PKClear_'
	DB	'NeedMoneyVip2', 00H				; `string'
CONST	ENDS
;	COMDAT ??_C@_0BO@CBIHPMOO@Command_PKClear_NeedMoneyVip1?$AA@
CONST	SEGMENT
??_C@_0BO@CBIHPMOO@Command_PKClear_NeedMoneyVip1?$AA@ DB 'Command_PKClear'
	DB	'_NeedMoneyVip1', 00H			; `string'
CONST	ENDS
;	COMDAT ??_C@_0BO@CEFECDJ@Command_PKClear_NeedMoneyFree?$AA@
CONST	SEGMENT
??_C@_0BO@CEFECDJ@Command_PKClear_NeedMoneyFree?$AA@ DB 'Command_PKClear_'
	DB	'NeedMoneyFree', 00H				; `string'
CONST	ENDS
;	COMDAT ??_C@_0BO@JFBIMGHK@Command_PKClear_NeedLevelVip3?$AA@
CONST	SEGMENT
??_C@_0BO@JFBIMGHK@Command_PKClear_NeedLevelVip3?$AA@ DB 'Command_PKClear'
	DB	'_NeedLevelVip3', 00H			; `string'
CONST	ENDS
;	COMDAT ??_C@_0BO@IMADPHDL@Command_PKClear_NeedLevelVip2?$AA@
CONST	SEGMENT
??_C@_0BO@IMADPHDL@Command_PKClear_NeedLevelVip2?$AA@ DB 'Command_PKClear'
	DB	'_NeedLevelVip2', 00H			; `string'
CONST	ENDS
;	COMDAT ??_C@_0BO@KHCOKEPI@Command_PKClear_NeedLevelVip1?$AA@
CONST	SEGMENT
??_C@_0BO@KHCOKEPI@Command_PKClear_NeedLevelVip1?$AA@ DB 'Command_PKClear'
	DB	'_NeedLevelVip1', 00H			; `string'
CONST	ENDS
;	COMDAT ??_C@_0BO@IEOMBKCP@Command_PKClear_NeedLevelFree?$AA@
CONST	SEGMENT
??_C@_0BO@IEOMBKCP@Command_PKClear_NeedLevelFree?$AA@ DB 'Command_PKClear'
	DB	'_NeedLevelFree', 00H			; `string'
CONST	ENDS
;	COMDAT ??_C@_0BL@DLINCEIO@Command_PKClear_SwitchVip3?$AA@
CONST	SEGMENT
??_C@_0BL@DLINCEIO@Command_PKClear_SwitchVip3?$AA@ DB 'Command_PKClear_Sw'
	DB	'itchVip3', 00H				; `string'
CONST	ENDS
;	COMDAT ??_C@_0BL@CCJGBFMP@Command_PKClear_SwitchVip2?$AA@
CONST	SEGMENT
??_C@_0BL@CCJGBFMP@Command_PKClear_SwitchVip2?$AA@ DB 'Command_PKClear_Sw'
	DB	'itchVip2', 00H				; `string'
CONST	ENDS
;	COMDAT ??_C@_0BL@JLLEGAM@Command_PKClear_SwitchVip1?$AA@
CONST	SEGMENT
??_C@_0BL@JLLEGAM@Command_PKClear_SwitchVip1?$AA@ DB 'Command_PKClear_Swi'
	DB	'tchVip1', 00H				; `string'
CONST	ENDS
;	COMDAT ??_C@_0BL@CKHJPINL@Command_PKClear_SwitchFree?$AA@
CONST	SEGMENT
??_C@_0BL@CKHJPINL@Command_PKClear_SwitchFree?$AA@ DB 'Command_PKClear_Sw'
	DB	'itchFree', 00H				; `string'
CONST	ENDS
;	COMDAT ??_C@_0BI@FCLMHIJN@Command_PKClear_Enabled?$AA@
CONST	SEGMENT
??_C@_0BI@FCLMHIJN@Command_PKClear_Enabled?$AA@ DB 'Command_PKClear_Enabl'
	DB	'ed', 00H					; `string'
CONST	ENDS
;	COMDAT ??_C@_0BH@IHNIPHGD@Command_PKClear_Sintax?$AA@
CONST	SEGMENT
??_C@_0BH@IHNIPHGD@Command_PKClear_Sintax?$AA@ DB 'Command_PKClear_Sintax'
	DB	00H						; `string'
CONST	ENDS
;	COMDAT ??_C@_0BD@NIJDNKFF@Command_Post_Delay?$AA@
CONST	SEGMENT
??_C@_0BD@NIJDNKFF@Command_Post_Delay?$AA@ DB 'Command_Post_Delay', 00H ; `string'
CONST	ENDS
;	COMDAT ??_C@_0BL@NAHKPHFK@Command_Post_TypeColorVip3?$AA@
CONST	SEGMENT
??_C@_0BL@NAHKPHFK@Command_Post_TypeColorVip3?$AA@ DB 'Command_Post_TypeC'
	DB	'olorVip3', 00H				; `string'
CONST	ENDS
;	COMDAT ??_C@_0BL@MJGBMGBL@Command_Post_TypeColorVip2?$AA@
CONST	SEGMENT
??_C@_0BL@MJGBMGBL@Command_Post_TypeColorVip2?$AA@ DB 'Command_Post_TypeC'
	DB	'olorVip2', 00H				; `string'
CONST	ENDS
;	COMDAT ??_C@_0BL@OCEMJFNI@Command_Post_TypeColorVip1?$AA@
CONST	SEGMENT
??_C@_0BL@OCEMJFNI@Command_Post_TypeColorVip1?$AA@ DB 'Command_Post_TypeC'
	DB	'olorVip1', 00H				; `string'
CONST	ENDS
;	COMDAT ??_C@_0BL@MBIOCLAP@Command_Post_TypeColorFree?$AA@
CONST	SEGMENT
??_C@_0BL@MBIOCLAP@Command_Post_TypeColorFree?$AA@ DB 'Command_Post_TypeC'
	DB	'olorFree', 00H				; `string'
CONST	ENDS
;	COMDAT ??_C@_0CC@KDBKGIEF@Command_Post_NeedMasterResetsVip@
CONST	SEGMENT
??_C@_0CC@KDBKGIEF@Command_Post_NeedMasterResetsVip@ DB 'Command_Post_Nee'
	DB	'dMasterResetsVip3', 00H			; `string'
CONST	ENDS
;	COMDAT ??_C@_0CC@LKABFJAE@Command_Post_NeedMasterResetsVip@
CONST	SEGMENT
??_C@_0CC@LKABFJAE@Command_Post_NeedMasterResetsVip@ DB 'Command_Post_Nee'
	DB	'dMasterResetsVip2', 00H			; `string'
CONST	ENDS
;	COMDAT ??_C@_0CC@JBCMAKMH@Command_Post_NeedMasterResetsVip@
CONST	SEGMENT
??_C@_0CC@JBCMAKMH@Command_Post_NeedMasterResetsVip@ DB 'Command_Post_Nee'
	DB	'dMasterResetsVip1', 00H			; `string'
CONST	ENDS
;	COMDAT ??_C@_0CC@LCOOLEBA@Command_Post_NeedMasterResetsFre@
CONST	SEGMENT
??_C@_0CC@LCOOLEBA@Command_Post_NeedMasterResetsFre@ DB 'Command_Post_Nee'
	DB	'dMasterResetsFree', 00H			; `string'
CONST	ENDS
;	COMDAT ??_C@_0BM@PAEMAOFN@Command_Post_NeedResetsVip3?$AA@
CONST	SEGMENT
??_C@_0BM@PAEMAOFN@Command_Post_NeedResetsVip3?$AA@ DB 'Command_Post_Need'
	DB	'ResetsVip3', 00H				; `string'
CONST	ENDS
;	COMDAT ??_C@_0BM@OJFHDPBM@Command_Post_NeedResetsVip2?$AA@
CONST	SEGMENT
??_C@_0BM@OJFHDPBM@Command_Post_NeedResetsVip2?$AA@ DB 'Command_Post_Need'
	DB	'ResetsVip2', 00H				; `string'
CONST	ENDS
;	COMDAT ??_C@_0BM@MCHKGMNP@Command_Post_NeedResetsVip1?$AA@
CONST	SEGMENT
??_C@_0BM@MCHKGMNP@Command_Post_NeedResetsVip1?$AA@ DB 'Command_Post_Need'
	DB	'ResetsVip1', 00H				; `string'
CONST	ENDS
;	COMDAT ??_C@_0BM@OBLINCAI@Command_Post_NeedResetsFree?$AA@
CONST	SEGMENT
??_C@_0BM@OBLINCAI@Command_Post_NeedResetsFree?$AA@ DB 'Command_Post_Need'
	DB	'ResetsFree', 00H				; `string'
CONST	ENDS
;	COMDAT ??_C@_0BL@INCMNDOD@Command_Post_NeedMoneyVip3?$AA@
CONST	SEGMENT
??_C@_0BL@INCMNDOD@Command_Post_NeedMoneyVip3?$AA@ DB 'Command_Post_NeedM'
	DB	'oneyVip3', 00H				; `string'
CONST	ENDS
;	COMDAT ??_C@_0BL@JEDHOCKC@Command_Post_NeedMoneyVip2?$AA@
CONST	SEGMENT
??_C@_0BL@JEDHOCKC@Command_Post_NeedMoneyVip2?$AA@ DB 'Command_Post_NeedM'
	DB	'oneyVip2', 00H				; `string'
CONST	ENDS
;	COMDAT ??_C@_0BL@LPBKLBGB@Command_Post_NeedMoneyVip1?$AA@
CONST	SEGMENT
??_C@_0BL@LPBKLBGB@Command_Post_NeedMoneyVip1?$AA@ DB 'Command_Post_NeedM'
	DB	'oneyVip1', 00H				; `string'
CONST	ENDS
;	COMDAT ??_C@_0BL@JMNIAPLG@Command_Post_NeedMoneyFree?$AA@
CONST	SEGMENT
??_C@_0BL@JMNIAPLG@Command_Post_NeedMoneyFree?$AA@ DB 'Command_Post_NeedM'
	DB	'oneyFree', 00H				; `string'
CONST	ENDS
;	COMDAT ??_C@_0BL@LIFILPF@Command_Post_NeedLevelVip3?$AA@
CONST	SEGMENT
??_C@_0BL@LIFILPF@Command_Post_NeedLevelVip3?$AA@ DB 'Command_Post_NeedLe'
	DB	'velVip3', 00H				; `string'
CONST	ENDS
;	COMDAT ??_C@_0BL@BCJOLKLE@Command_Post_NeedLevelVip2?$AA@
CONST	SEGMENT
??_C@_0BL@BCJOLKLE@Command_Post_NeedLevelVip2?$AA@ DB 'Command_Post_NeedL'
	DB	'evelVip2', 00H				; `string'
CONST	ENDS
;	COMDAT ??_C@_0BL@DJLDOJHH@Command_Post_NeedLevelVip1?$AA@
CONST	SEGMENT
??_C@_0BL@DJLDOJHH@Command_Post_NeedLevelVip1?$AA@ DB 'Command_Post_NeedL'
	DB	'evelVip1', 00H				; `string'
CONST	ENDS
;	COMDAT ??_C@_0BL@BKHBFHKA@Command_Post_NeedLevelFree?$AA@
CONST	SEGMENT
??_C@_0BL@BKHBFHKA@Command_Post_NeedLevelFree?$AA@ DB 'Command_Post_NeedL'
	DB	'evelFree', 00H				; `string'
CONST	ENDS
;	COMDAT ??_C@_0BI@KDBKGLFA@Command_Post_SwitchVip3?$AA@
CONST	SEGMENT
??_C@_0BI@KDBKGLFA@Command_Post_SwitchVip3?$AA@ DB 'Command_Post_SwitchVi'
	DB	'p3', 00H					; `string'
CONST	ENDS
;	COMDAT ??_C@_0BI@LKABFKBB@Command_Post_SwitchVip2?$AA@
CONST	SEGMENT
??_C@_0BI@LKABFKBB@Command_Post_SwitchVip2?$AA@ DB 'Command_Post_SwitchVi'
	DB	'p2', 00H					; `string'
CONST	ENDS
;	COMDAT ??_C@_0BI@JBCMAJNC@Command_Post_SwitchVip1?$AA@
CONST	SEGMENT
??_C@_0BI@JBCMAJNC@Command_Post_SwitchVip1?$AA@ DB 'Command_Post_SwitchVi'
	DB	'p1', 00H					; `string'
CONST	ENDS
;	COMDAT ??_C@_0BI@LCOOLHAF@Command_Post_SwitchFree?$AA@
CONST	SEGMENT
??_C@_0BI@LCOOLHAF@Command_Post_SwitchFree?$AA@ DB 'Command_Post_SwitchFr'
	DB	'ee', 00H					; `string'
CONST	ENDS
;	COMDAT ??_C@_0BF@LMBDHHOH@Command_Post_Enabled?$AA@
CONST	SEGMENT
??_C@_0BF@LMBDHHOH@Command_Post_Enabled?$AA@ DB 'Command_Post_Enabled', 00H ; `string'
CONST	ENDS
;	COMDAT ??_C@_08JNEOMACB@Commands?$AA@
CONST	SEGMENT
??_C@_08JNEOMACB@Commands?$AA@ DB 'Commands', 00H	; `string'
CONST	ENDS
;	COMDAT ??_C@_0BE@CGLGKBGB@Command_Post_Sintax?$AA@
CONST	SEGMENT
??_C@_0BE@CGLGKBGB@Command_Post_Sintax?$AA@ DB 'Command_Post_Sintax', 00H ; `string'
CONST	ENDS
;	COMDAT ??_C@_0CE@BMBMBCJB@?4?2Customs?2Commands?2Hgt_Commands?4@
CONST	SEGMENT
??_C@_0CE@BMBMBCJB@?4?2Customs?2Commands?2Hgt_Commands?4@ DB '.\Customs\C'
	DB	'ommands\Hgt_Commands.ini', 00H		; `string'
; Function compile flags: /Ogtp
CONST	ENDS
;	COMDAT ?Load@CCommands@@QAEXXZ
_TEXT	SEGMENT
?Load@CCommands@@QAEXXZ PROC				; CCommands::Load, COMDAT
; _this$ = ecx

; 14   : {

  00000	53		 push	 ebx

; 15   : 	GetPrivateProfileString("Commands", "Command_Post_Sintax", NULL, this->m_Data[COMMAND_POST].szSintax, sizeof(this->m_Data[COMMAND_POST].szSintax), COMMANDS_FILE);

  00001	8b 1d 00 00 00
	00		 mov	 ebx, DWORD PTR __imp__GetPrivateProfileStringA@24
  00007	56		 push	 esi
  00008	57		 push	 edi
  00009	68 00 00 00 00	 push	 OFFSET ??_C@_0CE@BMBMBCJB@?4?2Customs?2Commands?2Hgt_Commands?4@
  0000e	6a 14		 push	 20			; 00000014H
  00010	8b f1		 mov	 esi, ecx
  00012	8d 46 58	 lea	 eax, DWORD PTR [esi+88]
  00015	50		 push	 eax
  00016	6a 00		 push	 0
  00018	68 00 00 00 00	 push	 OFFSET ??_C@_0BE@CGLGKBGB@Command_Post_Sintax?$AA@
  0001d	68 00 00 00 00	 push	 OFFSET ??_C@_08JNEOMACB@Commands?$AA@
  00022	ff d3		 call	 ebx

; 16   : 	// ---
; 17   : 	this->m_Data[COMMAND_POST].iEnabled				= GetPrivateProfileInt("Commands", "Command_Post_Enabled", NULL, COMMANDS_FILE);

  00024	8b 3d 00 00 00
	00		 mov	 edi, DWORD PTR __imp__GetPrivateProfileIntA@16
  0002a	68 00 00 00 00	 push	 OFFSET ??_C@_0CE@BMBMBCJB@?4?2Customs?2Commands?2Hgt_Commands?4@
  0002f	6a 00		 push	 0
  00031	68 00 00 00 00	 push	 OFFSET ??_C@_0BF@LMBDHHOH@Command_Post_Enabled?$AA@
  00036	68 00 00 00 00	 push	 OFFSET ??_C@_08JNEOMACB@Commands?$AA@
  0003b	ff d7		 call	 edi

; 18   : 	this->m_Data[COMMAND_POST].iVipOnly[0]			= GetPrivateProfileInt("Commands", "Command_Post_SwitchFree", NULL, COMMANDS_FILE);

  0003d	68 00 00 00 00	 push	 OFFSET ??_C@_0CE@BMBMBCJB@?4?2Customs?2Commands?2Hgt_Commands?4@
  00042	6a 00		 push	 0
  00044	85 c0		 test	 eax, eax
  00046	68 00 00 00 00	 push	 OFFSET ??_C@_0BI@LCOOLHAF@Command_Post_SwitchFree?$AA@
  0004b	0f 95 c1	 setne	 cl
  0004e	68 00 00 00 00	 push	 OFFSET ??_C@_08JNEOMACB@Commands?$AA@
  00053	88 0e		 mov	 BYTE PTR [esi], cl
  00055	ff d7		 call	 edi

; 19   : 	this->m_Data[COMMAND_POST].iVipOnly[1]			= GetPrivateProfileInt("Commands", "Command_Post_SwitchVip1", NULL, COMMANDS_FILE);

  00057	68 00 00 00 00	 push	 OFFSET ??_C@_0CE@BMBMBCJB@?4?2Customs?2Commands?2Hgt_Commands?4@
  0005c	6a 00		 push	 0
  0005e	68 00 00 00 00	 push	 OFFSET ??_C@_0BI@JBCMAJNC@Command_Post_SwitchVip1?$AA@
  00063	68 00 00 00 00	 push	 OFFSET ??_C@_08JNEOMACB@Commands?$AA@
  00068	89 46 04	 mov	 DWORD PTR [esi+4], eax
  0006b	ff d7		 call	 edi

; 20   : 	this->m_Data[COMMAND_POST].iVipOnly[2]			= GetPrivateProfileInt("Commands", "Command_Post_SwitchVip2", NULL, COMMANDS_FILE);

  0006d	68 00 00 00 00	 push	 OFFSET ??_C@_0CE@BMBMBCJB@?4?2Customs?2Commands?2Hgt_Commands?4@
  00072	6a 00		 push	 0
  00074	68 00 00 00 00	 push	 OFFSET ??_C@_0BI@LKABFKBB@Command_Post_SwitchVip2?$AA@
  00079	68 00 00 00 00	 push	 OFFSET ??_C@_08JNEOMACB@Commands?$AA@
  0007e	89 46 08	 mov	 DWORD PTR [esi+8], eax
  00081	ff d7		 call	 edi

; 21   : 	this->m_Data[COMMAND_POST].iVipOnly[3]			= GetPrivateProfileInt("Commands", "Command_Post_SwitchVip3", NULL, COMMANDS_FILE);

  00083	68 00 00 00 00	 push	 OFFSET ??_C@_0CE@BMBMBCJB@?4?2Customs?2Commands?2Hgt_Commands?4@
  00088	6a 00		 push	 0
  0008a	68 00 00 00 00	 push	 OFFSET ??_C@_0BI@KDBKGLFA@Command_Post_SwitchVip3?$AA@
  0008f	68 00 00 00 00	 push	 OFFSET ??_C@_08JNEOMACB@Commands?$AA@
  00094	89 46 0c	 mov	 DWORD PTR [esi+12], eax
  00097	ff d7		 call	 edi

; 22   : 	this->m_Data[COMMAND_POST].iLevel[0]			= GetPrivateProfileInt("Commands", "Command_Post_NeedLevelFree", NULL, COMMANDS_FILE);

  00099	68 00 00 00 00	 push	 OFFSET ??_C@_0CE@BMBMBCJB@?4?2Customs?2Commands?2Hgt_Commands?4@
  0009e	6a 00		 push	 0
  000a0	68 00 00 00 00	 push	 OFFSET ??_C@_0BL@BKHBFHKA@Command_Post_NeedLevelFree?$AA@
  000a5	68 00 00 00 00	 push	 OFFSET ??_C@_08JNEOMACB@Commands?$AA@
  000aa	89 46 10	 mov	 DWORD PTR [esi+16], eax
  000ad	ff d7		 call	 edi

; 23   : 	this->m_Data[COMMAND_POST].iLevel[1]			= GetPrivateProfileInt("Commands", "Command_Post_NeedLevelVip1", NULL, COMMANDS_FILE);

  000af	68 00 00 00 00	 push	 OFFSET ??_C@_0CE@BMBMBCJB@?4?2Customs?2Commands?2Hgt_Commands?4@
  000b4	6a 00		 push	 0
  000b6	68 00 00 00 00	 push	 OFFSET ??_C@_0BL@DJLDOJHH@Command_Post_NeedLevelVip1?$AA@
  000bb	68 00 00 00 00	 push	 OFFSET ??_C@_08JNEOMACB@Commands?$AA@
  000c0	89 46 14	 mov	 DWORD PTR [esi+20], eax
  000c3	ff d7		 call	 edi

; 24   : 	this->m_Data[COMMAND_POST].iLevel[2]			= GetPrivateProfileInt("Commands", "Command_Post_NeedLevelVip2", NULL, COMMANDS_FILE);

  000c5	68 00 00 00 00	 push	 OFFSET ??_C@_0CE@BMBMBCJB@?4?2Customs?2Commands?2Hgt_Commands?4@
  000ca	6a 00		 push	 0
  000cc	68 00 00 00 00	 push	 OFFSET ??_C@_0BL@BCJOLKLE@Command_Post_NeedLevelVip2?$AA@
  000d1	68 00 00 00 00	 push	 OFFSET ??_C@_08JNEOMACB@Commands?$AA@
  000d6	89 46 18	 mov	 DWORD PTR [esi+24], eax
  000d9	ff d7		 call	 edi

; 25   : 	this->m_Data[COMMAND_POST].iLevel[3]			= GetPrivateProfileInt("Commands", "Command_Post_NeedLevelVip3", NULL, COMMANDS_FILE);

  000db	68 00 00 00 00	 push	 OFFSET ??_C@_0CE@BMBMBCJB@?4?2Customs?2Commands?2Hgt_Commands?4@
  000e0	6a 00		 push	 0
  000e2	68 00 00 00 00	 push	 OFFSET ??_C@_0BL@LIFILPF@Command_Post_NeedLevelVip3?$AA@
  000e7	68 00 00 00 00	 push	 OFFSET ??_C@_08JNEOMACB@Commands?$AA@
  000ec	89 46 1c	 mov	 DWORD PTR [esi+28], eax
  000ef	ff d7		 call	 edi

; 26   : 	this->m_Data[COMMAND_POST].iMoney[0]			= GetPrivateProfileInt("Commands", "Command_Post_NeedMoneyFree", NULL, COMMANDS_FILE);

  000f1	68 00 00 00 00	 push	 OFFSET ??_C@_0CE@BMBMBCJB@?4?2Customs?2Commands?2Hgt_Commands?4@
  000f6	6a 00		 push	 0
  000f8	68 00 00 00 00	 push	 OFFSET ??_C@_0BL@JMNIAPLG@Command_Post_NeedMoneyFree?$AA@
  000fd	68 00 00 00 00	 push	 OFFSET ??_C@_08JNEOMACB@Commands?$AA@
  00102	89 46 20	 mov	 DWORD PTR [esi+32], eax
  00105	ff d7		 call	 edi

; 27   : 	this->m_Data[COMMAND_POST].iMoney[1]			= GetPrivateProfileInt("Commands", "Command_Post_NeedMoneyVip1", NULL, COMMANDS_FILE);

  00107	68 00 00 00 00	 push	 OFFSET ??_C@_0CE@BMBMBCJB@?4?2Customs?2Commands?2Hgt_Commands?4@
  0010c	6a 00		 push	 0
  0010e	68 00 00 00 00	 push	 OFFSET ??_C@_0BL@LPBKLBGB@Command_Post_NeedMoneyVip1?$AA@
  00113	68 00 00 00 00	 push	 OFFSET ??_C@_08JNEOMACB@Commands?$AA@
  00118	89 46 24	 mov	 DWORD PTR [esi+36], eax
  0011b	ff d7		 call	 edi

; 28   : 	this->m_Data[COMMAND_POST].iMoney[2]			= GetPrivateProfileInt("Commands", "Command_Post_NeedMoneyVip2", NULL, COMMANDS_FILE);

  0011d	68 00 00 00 00	 push	 OFFSET ??_C@_0CE@BMBMBCJB@?4?2Customs?2Commands?2Hgt_Commands?4@
  00122	6a 00		 push	 0
  00124	68 00 00 00 00	 push	 OFFSET ??_C@_0BL@JEDHOCKC@Command_Post_NeedMoneyVip2?$AA@
  00129	68 00 00 00 00	 push	 OFFSET ??_C@_08JNEOMACB@Commands?$AA@
  0012e	89 46 28	 mov	 DWORD PTR [esi+40], eax
  00131	ff d7		 call	 edi

; 29   : 	this->m_Data[COMMAND_POST].iMoney[3]			= GetPrivateProfileInt("Commands", "Command_Post_NeedMoneyVip3", NULL, COMMANDS_FILE);

  00133	68 00 00 00 00	 push	 OFFSET ??_C@_0CE@BMBMBCJB@?4?2Customs?2Commands?2Hgt_Commands?4@
  00138	6a 00		 push	 0
  0013a	68 00 00 00 00	 push	 OFFSET ??_C@_0BL@INCMNDOD@Command_Post_NeedMoneyVip3?$AA@
  0013f	68 00 00 00 00	 push	 OFFSET ??_C@_08JNEOMACB@Commands?$AA@
  00144	89 46 2c	 mov	 DWORD PTR [esi+44], eax
  00147	ff d7		 call	 edi

; 30   : 	this->m_Data[COMMAND_POST].iResets[0]           = GetPrivateProfileInt("Commands", "Command_Post_NeedResetsFree", NULL, COMMANDS_FILE);

  00149	68 00 00 00 00	 push	 OFFSET ??_C@_0CE@BMBMBCJB@?4?2Customs?2Commands?2Hgt_Commands?4@
  0014e	6a 00		 push	 0
  00150	68 00 00 00 00	 push	 OFFSET ??_C@_0BM@OBLINCAI@Command_Post_NeedResetsFree?$AA@
  00155	68 00 00 00 00	 push	 OFFSET ??_C@_08JNEOMACB@Commands?$AA@
  0015a	89 46 30	 mov	 DWORD PTR [esi+48], eax
  0015d	ff d7		 call	 edi

; 31   : 	this->m_Data[COMMAND_POST].iResets[1]           = GetPrivateProfileInt("Commands", "Command_Post_NeedResetsVip1", NULL, COMMANDS_FILE);

  0015f	68 00 00 00 00	 push	 OFFSET ??_C@_0CE@BMBMBCJB@?4?2Customs?2Commands?2Hgt_Commands?4@
  00164	6a 00		 push	 0
  00166	68 00 00 00 00	 push	 OFFSET ??_C@_0BM@MCHKGMNP@Command_Post_NeedResetsVip1?$AA@
  0016b	68 00 00 00 00	 push	 OFFSET ??_C@_08JNEOMACB@Commands?$AA@
  00170	89 46 34	 mov	 DWORD PTR [esi+52], eax
  00173	ff d7		 call	 edi

; 32   : 	this->m_Data[COMMAND_POST].iResets[2]           = GetPrivateProfileInt("Commands", "Command_Post_NeedResetsVip2", NULL, COMMANDS_FILE);

  00175	68 00 00 00 00	 push	 OFFSET ??_C@_0CE@BMBMBCJB@?4?2Customs?2Commands?2Hgt_Commands?4@
  0017a	6a 00		 push	 0
  0017c	68 00 00 00 00	 push	 OFFSET ??_C@_0BM@OJFHDPBM@Command_Post_NeedResetsVip2?$AA@
  00181	68 00 00 00 00	 push	 OFFSET ??_C@_08JNEOMACB@Commands?$AA@
  00186	89 46 38	 mov	 DWORD PTR [esi+56], eax
  00189	ff d7		 call	 edi

; 33   : 	this->m_Data[COMMAND_POST].iResets[3]           = GetPrivateProfileInt("Commands", "Command_Post_NeedResetsVip3", NULL, COMMANDS_FILE);

  0018b	68 00 00 00 00	 push	 OFFSET ??_C@_0CE@BMBMBCJB@?4?2Customs?2Commands?2Hgt_Commands?4@
  00190	6a 00		 push	 0
  00192	68 00 00 00 00	 push	 OFFSET ??_C@_0BM@PAEMAOFN@Command_Post_NeedResetsVip3?$AA@
  00197	68 00 00 00 00	 push	 OFFSET ??_C@_08JNEOMACB@Commands?$AA@
  0019c	89 46 3c	 mov	 DWORD PTR [esi+60], eax
  0019f	ff d7		 call	 edi

; 34   : 	this->m_Data[COMMAND_POST].iMResets[0]          = GetPrivateProfileInt("Commands", "Command_Post_NeedMasterResetsFree", NULL, COMMANDS_FILE);

  001a1	68 00 00 00 00	 push	 OFFSET ??_C@_0CE@BMBMBCJB@?4?2Customs?2Commands?2Hgt_Commands?4@
  001a6	6a 00		 push	 0
  001a8	68 00 00 00 00	 push	 OFFSET ??_C@_0CC@LCOOLEBA@Command_Post_NeedMasterResetsFre@
  001ad	68 00 00 00 00	 push	 OFFSET ??_C@_08JNEOMACB@Commands?$AA@
  001b2	89 46 40	 mov	 DWORD PTR [esi+64], eax
  001b5	ff d7		 call	 edi

; 35   : 	this->m_Data[COMMAND_POST].iMResets[1]          = GetPrivateProfileInt("Commands", "Command_Post_NeedMasterResetsVip1", NULL, COMMANDS_FILE);

  001b7	68 00 00 00 00	 push	 OFFSET ??_C@_0CE@BMBMBCJB@?4?2Customs?2Commands?2Hgt_Commands?4@
  001bc	6a 00		 push	 0
  001be	68 00 00 00 00	 push	 OFFSET ??_C@_0CC@JBCMAKMH@Command_Post_NeedMasterResetsVip@
  001c3	68 00 00 00 00	 push	 OFFSET ??_C@_08JNEOMACB@Commands?$AA@
  001c8	89 46 44	 mov	 DWORD PTR [esi+68], eax
  001cb	ff d7		 call	 edi

; 36   : 	this->m_Data[COMMAND_POST].iMResets[2]          = GetPrivateProfileInt("Commands", "Command_Post_NeedMasterResetsVip2", NULL, COMMANDS_FILE);

  001cd	68 00 00 00 00	 push	 OFFSET ??_C@_0CE@BMBMBCJB@?4?2Customs?2Commands?2Hgt_Commands?4@
  001d2	6a 00		 push	 0
  001d4	68 00 00 00 00	 push	 OFFSET ??_C@_0CC@LKABFJAE@Command_Post_NeedMasterResetsVip@
  001d9	68 00 00 00 00	 push	 OFFSET ??_C@_08JNEOMACB@Commands?$AA@
  001de	89 46 48	 mov	 DWORD PTR [esi+72], eax
  001e1	ff d7		 call	 edi

; 37   : 	this->m_Data[COMMAND_POST].iMResets[3]          = GetPrivateProfileInt("Commands", "Command_Post_NeedMasterResetsVip3", NULL, COMMANDS_FILE);

  001e3	68 00 00 00 00	 push	 OFFSET ??_C@_0CE@BMBMBCJB@?4?2Customs?2Commands?2Hgt_Commands?4@
  001e8	6a 00		 push	 0
  001ea	68 00 00 00 00	 push	 OFFSET ??_C@_0CC@KDBKGIEF@Command_Post_NeedMasterResetsVip@
  001ef	68 00 00 00 00	 push	 OFFSET ??_C@_08JNEOMACB@Commands?$AA@
  001f4	89 46 4c	 mov	 DWORD PTR [esi+76], eax
  001f7	ff d7		 call	 edi

; 38   : 	this->m_Data[COMMAND_POST].iPostColor[0]		= GetPrivateProfileInt("Commands", "Command_Post_TypeColorFree", NULL, COMMANDS_FILE);

  001f9	68 00 00 00 00	 push	 OFFSET ??_C@_0CE@BMBMBCJB@?4?2Customs?2Commands?2Hgt_Commands?4@
  001fe	6a 00		 push	 0
  00200	68 00 00 00 00	 push	 OFFSET ??_C@_0BL@MBIOCLAP@Command_Post_TypeColorFree?$AA@
  00205	68 00 00 00 00	 push	 OFFSET ??_C@_08JNEOMACB@Commands?$AA@
  0020a	89 46 50	 mov	 DWORD PTR [esi+80], eax
  0020d	ff d7		 call	 edi

; 39   : 	this->m_Data[COMMAND_POST].iPostColor[1]		= GetPrivateProfileInt("Commands", "Command_Post_TypeColorVip1", NULL, COMMANDS_FILE);

  0020f	68 00 00 00 00	 push	 OFFSET ??_C@_0CE@BMBMBCJB@?4?2Customs?2Commands?2Hgt_Commands?4@
  00214	6a 00		 push	 0
  00216	68 00 00 00 00	 push	 OFFSET ??_C@_0BL@OCEMJFNI@Command_Post_TypeColorVip1?$AA@
  0021b	68 00 00 00 00	 push	 OFFSET ??_C@_08JNEOMACB@Commands?$AA@
  00220	89 86 80 00 00
	00		 mov	 DWORD PTR [esi+128], eax
  00226	ff d7		 call	 edi

; 40   : 	this->m_Data[COMMAND_POST].iPostColor[2]		= GetPrivateProfileInt("Commands", "Command_Post_TypeColorVip2", NULL, COMMANDS_FILE);

  00228	68 00 00 00 00	 push	 OFFSET ??_C@_0CE@BMBMBCJB@?4?2Customs?2Commands?2Hgt_Commands?4@
  0022d	6a 00		 push	 0
  0022f	68 00 00 00 00	 push	 OFFSET ??_C@_0BL@MJGBMGBL@Command_Post_TypeColorVip2?$AA@
  00234	68 00 00 00 00	 push	 OFFSET ??_C@_08JNEOMACB@Commands?$AA@
  00239	89 86 84 00 00
	00		 mov	 DWORD PTR [esi+132], eax
  0023f	ff d7		 call	 edi

; 41   : 	this->m_Data[COMMAND_POST].iPostColor[3]		= GetPrivateProfileInt("Commands", "Command_Post_TypeColorVip3", NULL, COMMANDS_FILE);

  00241	68 00 00 00 00	 push	 OFFSET ??_C@_0CE@BMBMBCJB@?4?2Customs?2Commands?2Hgt_Commands?4@
  00246	89 86 88 00 00
	00		 mov	 DWORD PTR [esi+136], eax
  0024c	6a 00		 push	 0
  0024e	68 00 00 00 00	 push	 OFFSET ??_C@_0BL@NAHKPHFK@Command_Post_TypeColorVip3?$AA@
  00253	68 00 00 00 00	 push	 OFFSET ??_C@_08JNEOMACB@Commands?$AA@
  00258	ff d7		 call	 edi

; 42   : 	this->m_Data[COMMAND_POST].iDelay				= GetPrivateProfileInt("Commands", "Command_Post_Delay", NULL, COMMANDS_FILE);

  0025a	68 00 00 00 00	 push	 OFFSET ??_C@_0CE@BMBMBCJB@?4?2Customs?2Commands?2Hgt_Commands?4@
  0025f	6a 00		 push	 0
  00261	68 00 00 00 00	 push	 OFFSET ??_C@_0BD@NIJDNKFF@Command_Post_Delay?$AA@
  00266	68 00 00 00 00	 push	 OFFSET ??_C@_08JNEOMACB@Commands?$AA@
  0026b	89 86 8c 00 00
	00		 mov	 DWORD PTR [esi+140], eax
  00271	ff d7		 call	 edi

; 43   : 	// ---
; 44   : 	GetPrivateProfileString("Commands", "Command_PKClear_Sintax", NULL, this->m_Data[COMMAND_PKCLEAR].szSintax, sizeof(this->m_Data[COMMAND_PKCLEAR].szSintax), COMMANDS_FILE);

  00273	68 00 00 00 00	 push	 OFFSET ??_C@_0CE@BMBMBCJB@?4?2Customs?2Commands?2Hgt_Commands?4@
  00278	6a 14		 push	 20			; 00000014H
  0027a	8d 96 3c 02 00
	00		 lea	 edx, DWORD PTR [esi+572]
  00280	52		 push	 edx
  00281	6a 00		 push	 0
  00283	68 00 00 00 00	 push	 OFFSET ??_C@_0BH@IHNIPHGD@Command_PKClear_Sintax?$AA@
  00288	68 00 00 00 00	 push	 OFFSET ??_C@_08JNEOMACB@Commands?$AA@
  0028d	89 46 54	 mov	 DWORD PTR [esi+84], eax
  00290	ff d3		 call	 ebx

; 45   : 	// ---
; 46   : 	this->m_Data[COMMAND_PKCLEAR].iEnabled			= GetPrivateProfileInt("Commands", "Command_PKClear_Enabled", NULL, COMMANDS_FILE);

  00292	68 00 00 00 00	 push	 OFFSET ??_C@_0CE@BMBMBCJB@?4?2Customs?2Commands?2Hgt_Commands?4@
  00297	6a 00		 push	 0
  00299	68 00 00 00 00	 push	 OFFSET ??_C@_0BI@FCLMHIJN@Command_PKClear_Enabled?$AA@
  0029e	68 00 00 00 00	 push	 OFFSET ??_C@_08JNEOMACB@Commands?$AA@
  002a3	ff d7		 call	 edi

; 47   : 	this->m_Data[COMMAND_PKCLEAR].iVipOnly[0]		= GetPrivateProfileInt("Commands", "Command_PKClear_SwitchFree", NULL, COMMANDS_FILE);

  002a5	68 00 00 00 00	 push	 OFFSET ??_C@_0CE@BMBMBCJB@?4?2Customs?2Commands?2Hgt_Commands?4@
  002aa	6a 00		 push	 0
  002ac	85 c0		 test	 eax, eax
  002ae	68 00 00 00 00	 push	 OFFSET ??_C@_0BL@CKHJPINL@Command_PKClear_SwitchFree?$AA@
  002b3	0f 95 c0	 setne	 al
  002b6	68 00 00 00 00	 push	 OFFSET ??_C@_08JNEOMACB@Commands?$AA@
  002bb	88 86 e4 01 00
	00		 mov	 BYTE PTR [esi+484], al
  002c1	ff d7		 call	 edi

; 48   : 	this->m_Data[COMMAND_PKCLEAR].iVipOnly[1]		= GetPrivateProfileInt("Commands", "Command_PKClear_SwitchVip1", NULL, COMMANDS_FILE);

  002c3	68 00 00 00 00	 push	 OFFSET ??_C@_0CE@BMBMBCJB@?4?2Customs?2Commands?2Hgt_Commands?4@
  002c8	6a 00		 push	 0
  002ca	68 00 00 00 00	 push	 OFFSET ??_C@_0BL@JLLEGAM@Command_PKClear_SwitchVip1?$AA@
  002cf	68 00 00 00 00	 push	 OFFSET ??_C@_08JNEOMACB@Commands?$AA@
  002d4	89 86 e8 01 00
	00		 mov	 DWORD PTR [esi+488], eax
  002da	ff d7		 call	 edi

; 49   : 	this->m_Data[COMMAND_PKCLEAR].iVipOnly[2]		= GetPrivateProfileInt("Commands", "Command_PKClear_SwitchVip2", NULL, COMMANDS_FILE);

  002dc	68 00 00 00 00	 push	 OFFSET ??_C@_0CE@BMBMBCJB@?4?2Customs?2Commands?2Hgt_Commands?4@
  002e1	6a 00		 push	 0
  002e3	68 00 00 00 00	 push	 OFFSET ??_C@_0BL@CCJGBFMP@Command_PKClear_SwitchVip2?$AA@
  002e8	68 00 00 00 00	 push	 OFFSET ??_C@_08JNEOMACB@Commands?$AA@
  002ed	89 86 ec 01 00
	00		 mov	 DWORD PTR [esi+492], eax
  002f3	ff d7		 call	 edi

; 50   : 	this->m_Data[COMMAND_PKCLEAR].iVipOnly[3]		= GetPrivateProfileInt("Commands", "Command_PKClear_SwitchVip3", NULL, COMMANDS_FILE);

  002f5	68 00 00 00 00	 push	 OFFSET ??_C@_0CE@BMBMBCJB@?4?2Customs?2Commands?2Hgt_Commands?4@
  002fa	6a 00		 push	 0
  002fc	68 00 00 00 00	 push	 OFFSET ??_C@_0BL@DLINCEIO@Command_PKClear_SwitchVip3?$AA@
  00301	68 00 00 00 00	 push	 OFFSET ??_C@_08JNEOMACB@Commands?$AA@
  00306	89 86 f0 01 00
	00		 mov	 DWORD PTR [esi+496], eax
  0030c	ff d7		 call	 edi

; 51   : 	this->m_Data[COMMAND_PKCLEAR].iLevel[0]			= GetPrivateProfileInt("Commands", "Command_PKClear_NeedLevelFree", NULL, COMMANDS_FILE);

  0030e	68 00 00 00 00	 push	 OFFSET ??_C@_0CE@BMBMBCJB@?4?2Customs?2Commands?2Hgt_Commands?4@
  00313	6a 00		 push	 0
  00315	68 00 00 00 00	 push	 OFFSET ??_C@_0BO@IEOMBKCP@Command_PKClear_NeedLevelFree?$AA@
  0031a	68 00 00 00 00	 push	 OFFSET ??_C@_08JNEOMACB@Commands?$AA@
  0031f	89 86 f4 01 00
	00		 mov	 DWORD PTR [esi+500], eax
  00325	ff d7		 call	 edi

; 52   : 	this->m_Data[COMMAND_PKCLEAR].iLevel[1]			= GetPrivateProfileInt("Commands", "Command_PKClear_NeedLevelVip1", NULL, COMMANDS_FILE);

  00327	68 00 00 00 00	 push	 OFFSET ??_C@_0CE@BMBMBCJB@?4?2Customs?2Commands?2Hgt_Commands?4@
  0032c	6a 00		 push	 0
  0032e	68 00 00 00 00	 push	 OFFSET ??_C@_0BO@KHCOKEPI@Command_PKClear_NeedLevelVip1?$AA@
  00333	68 00 00 00 00	 push	 OFFSET ??_C@_08JNEOMACB@Commands?$AA@
  00338	89 86 f8 01 00
	00		 mov	 DWORD PTR [esi+504], eax
  0033e	ff d7		 call	 edi

; 53   : 	this->m_Data[COMMAND_PKCLEAR].iLevel[2]			= GetPrivateProfileInt("Commands", "Command_PKClear_NeedLevelVip2", NULL, COMMANDS_FILE);

  00340	68 00 00 00 00	 push	 OFFSET ??_C@_0CE@BMBMBCJB@?4?2Customs?2Commands?2Hgt_Commands?4@
  00345	6a 00		 push	 0
  00347	68 00 00 00 00	 push	 OFFSET ??_C@_0BO@IMADPHDL@Command_PKClear_NeedLevelVip2?$AA@
  0034c	68 00 00 00 00	 push	 OFFSET ??_C@_08JNEOMACB@Commands?$AA@
  00351	89 86 fc 01 00
	00		 mov	 DWORD PTR [esi+508], eax
  00357	ff d7		 call	 edi

; 54   : 	this->m_Data[COMMAND_PKCLEAR].iLevel[3]			= GetPrivateProfileInt("Commands", "Command_PKClear_NeedLevelVip3", NULL, COMMANDS_FILE);

  00359	68 00 00 00 00	 push	 OFFSET ??_C@_0CE@BMBMBCJB@?4?2Customs?2Commands?2Hgt_Commands?4@
  0035e	6a 00		 push	 0
  00360	68 00 00 00 00	 push	 OFFSET ??_C@_0BO@JFBIMGHK@Command_PKClear_NeedLevelVip3?$AA@
  00365	68 00 00 00 00	 push	 OFFSET ??_C@_08JNEOMACB@Commands?$AA@
  0036a	89 86 00 02 00
	00		 mov	 DWORD PTR [esi+512], eax
  00370	ff d7		 call	 edi

; 55   : 	this->m_Data[COMMAND_PKCLEAR].iMoney[0]			= GetPrivateProfileInt("Commands", "Command_PKClear_NeedMoneyFree", NULL, COMMANDS_FILE);

  00372	68 00 00 00 00	 push	 OFFSET ??_C@_0CE@BMBMBCJB@?4?2Customs?2Commands?2Hgt_Commands?4@
  00377	6a 00		 push	 0
  00379	68 00 00 00 00	 push	 OFFSET ??_C@_0BO@CEFECDJ@Command_PKClear_NeedMoneyFree?$AA@
  0037e	68 00 00 00 00	 push	 OFFSET ??_C@_08JNEOMACB@Commands?$AA@
  00383	89 86 04 02 00
	00		 mov	 DWORD PTR [esi+516], eax
  00389	ff d7		 call	 edi
  0038b	89 86 08 02 00
	00		 mov	 DWORD PTR [esi+520], eax

; 56   : 	this->m_Data[COMMAND_PKCLEAR].iMoney[1]			= GetPrivateProfileInt("Commands", "Command_PKClear_NeedMoneyVip1", NULL, COMMANDS_FILE);

  00391	68 00 00 00 00	 push	 OFFSET ??_C@_0CE@BMBMBCJB@?4?2Customs?2Commands?2Hgt_Commands?4@
  00396	6a 00		 push	 0
  00398	68 00 00 00 00	 push	 OFFSET ??_C@_0BO@CBIHPMOO@Command_PKClear_NeedMoneyVip1?$AA@
  0039d	68 00 00 00 00	 push	 OFFSET ??_C@_08JNEOMACB@Commands?$AA@
  003a2	ff d7		 call	 edi

; 57   : 	this->m_Data[COMMAND_PKCLEAR].iMoney[2]			= GetPrivateProfileInt("Commands", "Command_PKClear_NeedMoneyVip2", NULL, COMMANDS_FILE);

  003a4	68 00 00 00 00	 push	 OFFSET ??_C@_0CE@BMBMBCJB@?4?2Customs?2Commands?2Hgt_Commands?4@
  003a9	6a 00		 push	 0
  003ab	68 00 00 00 00	 push	 OFFSET ??_C@_0BO@KKKKPCN@Command_PKClear_NeedMoneyVip2?$AA@
  003b0	68 00 00 00 00	 push	 OFFSET ??_C@_08JNEOMACB@Commands?$AA@
  003b5	89 86 0c 02 00
	00		 mov	 DWORD PTR [esi+524], eax
  003bb	ff d7		 call	 edi

; 58   : 	this->m_Data[COMMAND_PKCLEAR].iMoney[3]			= GetPrivateProfileInt("Commands", "Command_PKClear_NeedMoneyVip3", NULL, COMMANDS_FILE);

  003bd	68 00 00 00 00	 push	 OFFSET ??_C@_0CE@BMBMBCJB@?4?2Customs?2Commands?2Hgt_Commands?4@
  003c2	6a 00		 push	 0
  003c4	68 00 00 00 00	 push	 OFFSET ??_C@_0BO@BDLBJOGM@Command_PKClear_NeedMoneyVip3?$AA@
  003c9	68 00 00 00 00	 push	 OFFSET ??_C@_08JNEOMACB@Commands?$AA@
  003ce	89 86 10 02 00
	00		 mov	 DWORD PTR [esi+528], eax
  003d4	ff d7		 call	 edi

; 59   : 	this->m_Data[COMMAND_PKCLEAR].iResets[0]        = GetPrivateProfileInt("Commands", "Command_PKClear_NeedResetsFree", NULL, COMMANDS_FILE);

  003d6	68 00 00 00 00	 push	 OFFSET ??_C@_0CE@BMBMBCJB@?4?2Customs?2Commands?2Hgt_Commands?4@
  003db	6a 00		 push	 0
  003dd	68 00 00 00 00	 push	 OFFSET ??_C@_0BP@JMCBNBPE@Command_PKClear_NeedResetsFree?$AA@
  003e2	68 00 00 00 00	 push	 OFFSET ??_C@_08JNEOMACB@Commands?$AA@
  003e7	89 86 14 02 00
	00		 mov	 DWORD PTR [esi+532], eax
  003ed	ff d7		 call	 edi

; 60   : 	this->m_Data[COMMAND_PKCLEAR].iResets[1]        = GetPrivateProfileInt("Commands", "Command_PKClear_NeedResetsVip1", NULL, COMMANDS_FILE);

  003ef	68 00 00 00 00	 push	 OFFSET ??_C@_0CE@BMBMBCJB@?4?2Customs?2Commands?2Hgt_Commands?4@
  003f4	6a 00		 push	 0
  003f6	68 00 00 00 00	 push	 OFFSET ??_C@_0BP@LPODGPCD@Command_PKClear_NeedResetsVip1?$AA@
  003fb	68 00 00 00 00	 push	 OFFSET ??_C@_08JNEOMACB@Commands?$AA@
  00400	89 86 18 02 00
	00		 mov	 DWORD PTR [esi+536], eax
  00406	ff d7		 call	 edi

; 61   : 	this->m_Data[COMMAND_PKCLEAR].iResets[2]        = GetPrivateProfileInt("Commands", "Command_PKClear_NeedResetsVip2", NULL, COMMANDS_FILE);

  00408	68 00 00 00 00	 push	 OFFSET ??_C@_0CE@BMBMBCJB@?4?2Customs?2Commands?2Hgt_Commands?4@
  0040d	6a 00		 push	 0
  0040f	68 00 00 00 00	 push	 OFFSET ??_C@_0BP@JEMODMOA@Command_PKClear_NeedResetsVip2?$AA@
  00414	68 00 00 00 00	 push	 OFFSET ??_C@_08JNEOMACB@Commands?$AA@
  00419	89 86 1c 02 00
	00		 mov	 DWORD PTR [esi+540], eax
  0041f	ff d7		 call	 edi

; 62   : 	this->m_Data[COMMAND_PKCLEAR].iResets[3]        = GetPrivateProfileInt("Commands", "Command_PKClear_NeedResetsVip3", NULL, COMMANDS_FILE);

  00421	68 00 00 00 00	 push	 OFFSET ??_C@_0CE@BMBMBCJB@?4?2Customs?2Commands?2Hgt_Commands?4@
  00426	6a 00		 push	 0
  00428	68 00 00 00 00	 push	 OFFSET ??_C@_0BP@INNFANKB@Command_PKClear_NeedResetsVip3?$AA@
  0042d	68 00 00 00 00	 push	 OFFSET ??_C@_08JNEOMACB@Commands?$AA@
  00432	89 86 20 02 00
	00		 mov	 DWORD PTR [esi+544], eax
  00438	ff d7		 call	 edi

; 63   : 	this->m_Data[COMMAND_PKCLEAR].iMResets[0]       = GetPrivateProfileInt("Commands", "Command_PKClear_NeedMasterResetsFree", NULL, COMMANDS_FILE);

  0043a	68 00 00 00 00	 push	 OFFSET ??_C@_0CE@BMBMBCJB@?4?2Customs?2Commands?2Hgt_Commands?4@
  0043f	6a 00		 push	 0
  00441	68 00 00 00 00	 push	 OFFSET ??_C@_0CF@LHPECIP@Command_PKClear_NeedMasterResets@
  00446	68 00 00 00 00	 push	 OFFSET ??_C@_08JNEOMACB@Commands?$AA@
  0044b	89 86 24 02 00
	00		 mov	 DWORD PTR [esi+548], eax
  00451	ff d7		 call	 edi

; 64   : 	this->m_Data[COMMAND_PKCLEAR].iMResets[1]       = GetPrivateProfileInt("Commands", "Command_PKClear_NeedMasterResetsVip1", NULL, COMMANDS_FILE);

  00453	68 00 00 00 00	 push	 OFFSET ??_C@_0CE@BMBMBCJB@?4?2Customs?2Commands?2Hgt_Commands?4@
  00458	6a 00		 push	 0
  0045a	68 00 00 00 00	 push	 OFFSET ??_C@_0CF@CILNPMFI@Command_PKClear_NeedMasterResets@
  0045f	68 00 00 00 00	 push	 OFFSET ??_C@_08JNEOMACB@Commands?$AA@
  00464	89 86 28 02 00
	00		 mov	 DWORD PTR [esi+552], eax
  0046a	ff d7		 call	 edi

; 65   : 	this->m_Data[COMMAND_PKCLEAR].iMResets[2]       = GetPrivateProfileInt("Commands", "Command_PKClear_NeedMasterResetsVip2", NULL, COMMANDS_FILE);

  0046c	68 00 00 00 00	 push	 OFFSET ??_C@_0CE@BMBMBCJB@?4?2Customs?2Commands?2Hgt_Commands?4@
  00471	6a 00		 push	 0
  00473	68 00 00 00 00	 push	 OFFSET ??_C@_0CF@DJAKPJL@Command_PKClear_NeedMasterResets@
  00478	68 00 00 00 00	 push	 OFFSET ??_C@_08JNEOMACB@Commands?$AA@
  0047d	89 86 2c 02 00
	00		 mov	 DWORD PTR [esi+556], eax
  00483	ff d7		 call	 edi

; 66   : 	this->m_Data[COMMAND_PKCLEAR].iMResets[3]       = GetPrivateProfileInt("Commands", "Command_PKClear_NeedMasterResetsVip3", NULL, COMMANDS_FILE);

  00485	68 00 00 00 00	 push	 OFFSET ??_C@_0CE@BMBMBCJB@?4?2Customs?2Commands?2Hgt_Commands?4@
  0048a	6a 00		 push	 0
  0048c	68 00 00 00 00	 push	 OFFSET ??_C@_0CF@BKILJONK@Command_PKClear_NeedMasterResets@
  00491	68 00 00 00 00	 push	 OFFSET ??_C@_08JNEOMACB@Commands?$AA@
  00496	89 86 30 02 00
	00		 mov	 DWORD PTR [esi+560], eax
  0049c	ff d7		 call	 edi

; 67   : 	// ---
; 68   : 	GetPrivateProfileString("Commands", "Command_HeroClear_Sintax", NULL, this->m_Data[COMMAND_HEROCLEAR].szSintax, sizeof(this->m_Data[COMMAND_HEROCLEAR].szSintax), COMMANDS_FILE);

  0049e	68 00 00 00 00	 push	 OFFSET ??_C@_0CE@BMBMBCJB@?4?2Customs?2Commands?2Hgt_Commands?4@
  004a3	6a 14		 push	 20			; 00000014H
  004a5	8d 8e 20 04 00
	00		 lea	 ecx, DWORD PTR [esi+1056]
  004ab	51		 push	 ecx
  004ac	6a 00		 push	 0
  004ae	68 00 00 00 00	 push	 OFFSET ??_C@_0BJ@BIKKEJJM@Command_HeroClear_Sintax?$AA@
  004b3	68 00 00 00 00	 push	 OFFSET ??_C@_08JNEOMACB@Commands?$AA@
  004b8	89 86 34 02 00
	00		 mov	 DWORD PTR [esi+564], eax
  004be	ff d3		 call	 ebx

; 69   : 	// ---
; 70   : 	this->m_Data[COMMAND_HEROCLEAR].iEnabled		= GetPrivateProfileInt("Commands", "Command_HeroClear_Enabled", NULL, COMMANDS_FILE);

  004c0	68 00 00 00 00	 push	 OFFSET ??_C@_0CE@BMBMBCJB@?4?2Customs?2Commands?2Hgt_Commands?4@
  004c5	6a 00		 push	 0
  004c7	68 00 00 00 00	 push	 OFFSET ??_C@_0BK@HPCBOFKO@Command_HeroClear_Enabled?$AA@
  004cc	68 00 00 00 00	 push	 OFFSET ??_C@_08JNEOMACB@Commands?$AA@
  004d1	ff d7		 call	 edi
  004d3	85 c0		 test	 eax, eax
  004d5	0f 95 c2	 setne	 dl
  004d8	88 96 c8 03 00
	00		 mov	 BYTE PTR [esi+968], dl

; 71   : 	this->m_Data[COMMAND_HEROCLEAR].iVipOnly[0]		= GetPrivateProfileInt("Commands", "Command_HeroClear_SwitchFree", NULL, COMMANDS_FILE);

  004de	68 00 00 00 00	 push	 OFFSET ??_C@_0CE@BMBMBCJB@?4?2Customs?2Commands?2Hgt_Commands?4@
  004e3	6a 00		 push	 0
  004e5	68 00 00 00 00	 push	 OFFSET ??_C@_0BN@EGAFLIJB@Command_HeroClear_SwitchFree?$AA@
  004ea	68 00 00 00 00	 push	 OFFSET ??_C@_08JNEOMACB@Commands?$AA@
  004ef	ff d7		 call	 edi

; 72   : 	this->m_Data[COMMAND_HEROCLEAR].iVipOnly[1]		= GetPrivateProfileInt("Commands", "Command_HeroClear_SwitchVip1", NULL, COMMANDS_FILE);

  004f1	68 00 00 00 00	 push	 OFFSET ??_C@_0CE@BMBMBCJB@?4?2Customs?2Commands?2Hgt_Commands?4@
  004f6	6a 00		 push	 0
  004f8	68 00 00 00 00	 push	 OFFSET ??_C@_0BN@GFMHAGEG@Command_HeroClear_SwitchVip1?$AA@
  004fd	68 00 00 00 00	 push	 OFFSET ??_C@_08JNEOMACB@Commands?$AA@
  00502	89 86 cc 03 00
	00		 mov	 DWORD PTR [esi+972], eax
  00508	ff d7		 call	 edi

; 73   : 	this->m_Data[COMMAND_HEROCLEAR].iVipOnly[2]		= GetPrivateProfileInt("Commands", "Command_HeroClear_SwitchVip2", NULL, COMMANDS_FILE);

  0050a	68 00 00 00 00	 push	 OFFSET ??_C@_0CE@BMBMBCJB@?4?2Customs?2Commands?2Hgt_Commands?4@
  0050f	6a 00		 push	 0
  00511	68 00 00 00 00	 push	 OFFSET ??_C@_0BN@EOOKFFIF@Command_HeroClear_SwitchVip2?$AA@
  00516	68 00 00 00 00	 push	 OFFSET ??_C@_08JNEOMACB@Commands?$AA@
  0051b	89 86 d0 03 00
	00		 mov	 DWORD PTR [esi+976], eax
  00521	ff d7		 call	 edi

; 74   : 	this->m_Data[COMMAND_HEROCLEAR].iVipOnly[3]		= GetPrivateProfileInt("Commands", "Command_HeroClear_SwitchVip3", NULL, COMMANDS_FILE);

  00523	68 00 00 00 00	 push	 OFFSET ??_C@_0CE@BMBMBCJB@?4?2Customs?2Commands?2Hgt_Commands?4@
  00528	6a 00		 push	 0
  0052a	68 00 00 00 00	 push	 OFFSET ??_C@_0BN@FHPBGEME@Command_HeroClear_SwitchVip3?$AA@
  0052f	68 00 00 00 00	 push	 OFFSET ??_C@_08JNEOMACB@Commands?$AA@
  00534	89 86 d4 03 00
	00		 mov	 DWORD PTR [esi+980], eax
  0053a	ff d7		 call	 edi

; 75   : 	this->m_Data[COMMAND_HEROCLEAR].iLevel[0]		= GetPrivateProfileInt("Commands", "Command_HeroClear_NeedLevelFree", NULL, COMMANDS_FILE);

  0053c	68 00 00 00 00	 push	 OFFSET ??_C@_0CE@BMBMBCJB@?4?2Customs?2Commands?2Hgt_Commands?4@
  00541	6a 00		 push	 0
  00543	68 00 00 00 00	 push	 OFFSET ??_C@_0CA@FACLGAEH@Command_HeroClear_NeedLevelFree?$AA@
  00548	68 00 00 00 00	 push	 OFFSET ??_C@_08JNEOMACB@Commands?$AA@
  0054d	89 86 d8 03 00
	00		 mov	 DWORD PTR [esi+984], eax
  00553	ff d7		 call	 edi

; 76   : 	this->m_Data[COMMAND_HEROCLEAR].iLevel[1]		= GetPrivateProfileInt("Commands", "Command_HeroClear_NeedLevelVip1", NULL, COMMANDS_FILE);

  00555	68 00 00 00 00	 push	 OFFSET ??_C@_0CE@BMBMBCJB@?4?2Customs?2Commands?2Hgt_Commands?4@
  0055a	6a 00		 push	 0
  0055c	68 00 00 00 00	 push	 OFFSET ??_C@_0CA@HDOJNOJA@Command_HeroClear_NeedLevelVip1?$AA@
  00561	68 00 00 00 00	 push	 OFFSET ??_C@_08JNEOMACB@Commands?$AA@
  00566	89 86 dc 03 00
	00		 mov	 DWORD PTR [esi+988], eax
  0056c	ff d7		 call	 edi

; 77   : 	this->m_Data[COMMAND_HEROCLEAR].iLevel[2]		= GetPrivateProfileInt("Commands", "Command_HeroClear_NeedLevelVip2", NULL, COMMANDS_FILE);

  0056e	68 00 00 00 00	 push	 OFFSET ??_C@_0CE@BMBMBCJB@?4?2Customs?2Commands?2Hgt_Commands?4@
  00573	6a 00		 push	 0
  00575	68 00 00 00 00	 push	 OFFSET ??_C@_0CA@FIMEINFD@Command_HeroClear_NeedLevelVip2?$AA@
  0057a	68 00 00 00 00	 push	 OFFSET ??_C@_08JNEOMACB@Commands?$AA@
  0057f	89 86 e0 03 00
	00		 mov	 DWORD PTR [esi+992], eax
  00585	ff d7		 call	 edi

; 78   : 	this->m_Data[COMMAND_HEROCLEAR].iLevel[3]		= GetPrivateProfileInt("Commands", "Command_HeroClear_NeedLevelVip3", NULL, COMMANDS_FILE);

  00587	68 00 00 00 00	 push	 OFFSET ??_C@_0CE@BMBMBCJB@?4?2Customs?2Commands?2Hgt_Commands?4@
  0058c	6a 00		 push	 0
  0058e	68 00 00 00 00	 push	 OFFSET ??_C@_0CA@EBNPLMBC@Command_HeroClear_NeedLevelVip3?$AA@
  00593	68 00 00 00 00	 push	 OFFSET ??_C@_08JNEOMACB@Commands?$AA@
  00598	89 86 e4 03 00
	00		 mov	 DWORD PTR [esi+996], eax
  0059e	ff d7		 call	 edi

; 79   : 	this->m_Data[COMMAND_HEROCLEAR].iMoney[0]		= GetPrivateProfileInt("Commands", "Command_HeroClear_NeedMoneyFree", NULL, COMMANDS_FILE);

  005a0	68 00 00 00 00	 push	 OFFSET ??_C@_0CE@BMBMBCJB@?4?2Customs?2Commands?2Hgt_Commands?4@
  005a5	6a 00		 push	 0
  005a7	68 00 00 00 00	 push	 OFFSET ??_C@_0CA@NGICDIFB@Command_HeroClear_NeedMoneyFree?$AA@
  005ac	68 00 00 00 00	 push	 OFFSET ??_C@_08JNEOMACB@Commands?$AA@
  005b1	89 86 e8 03 00
	00		 mov	 DWORD PTR [esi+1000], eax
  005b7	ff d7		 call	 edi

; 80   : 	this->m_Data[COMMAND_HEROCLEAR].iMoney[1]		= GetPrivateProfileInt("Commands", "Command_HeroClear_NeedMoneyVip1", NULL, COMMANDS_FILE);

  005b9	68 00 00 00 00	 push	 OFFSET ??_C@_0CE@BMBMBCJB@?4?2Customs?2Commands?2Hgt_Commands?4@
  005be	6a 00		 push	 0
  005c0	68 00 00 00 00	 push	 OFFSET ??_C@_0CA@PFEAIGIG@Command_HeroClear_NeedMoneyVip1?$AA@
  005c5	68 00 00 00 00	 push	 OFFSET ??_C@_08JNEOMACB@Commands?$AA@
  005ca	89 86 ec 03 00
	00		 mov	 DWORD PTR [esi+1004], eax
  005d0	ff d7		 call	 edi

; 81   : 	this->m_Data[COMMAND_HEROCLEAR].iMoney[2]		= GetPrivateProfileInt("Commands", "Command_HeroClear_NeedMoneyVip2", NULL, COMMANDS_FILE);

  005d2	68 00 00 00 00	 push	 OFFSET ??_C@_0CE@BMBMBCJB@?4?2Customs?2Commands?2Hgt_Commands?4@
  005d7	6a 00		 push	 0
  005d9	68 00 00 00 00	 push	 OFFSET ??_C@_0CA@NOGNNFEF@Command_HeroClear_NeedMoneyVip2?$AA@
  005de	68 00 00 00 00	 push	 OFFSET ??_C@_08JNEOMACB@Commands?$AA@
  005e3	89 86 f0 03 00
	00		 mov	 DWORD PTR [esi+1008], eax
  005e9	ff d7		 call	 edi

; 82   : 	this->m_Data[COMMAND_HEROCLEAR].iMoney[3]		= GetPrivateProfileInt("Commands", "Command_HeroClear_NeedMoneyVip3", NULL, COMMANDS_FILE);

  005eb	68 00 00 00 00	 push	 OFFSET ??_C@_0CE@BMBMBCJB@?4?2Customs?2Commands?2Hgt_Commands?4@
  005f0	6a 00		 push	 0
  005f2	68 00 00 00 00	 push	 OFFSET ??_C@_0CA@MHHGOEAE@Command_HeroClear_NeedMoneyVip3?$AA@
  005f7	68 00 00 00 00	 push	 OFFSET ??_C@_08JNEOMACB@Commands?$AA@
  005fc	89 86 f4 03 00
	00		 mov	 DWORD PTR [esi+1012], eax
  00602	ff d7		 call	 edi

; 83   : 	this->m_Data[COMMAND_HEROCLEAR].iResets[0]      = GetPrivateProfileInt("Commands", "Command_HeroClear_NeedResetsFree", NULL, COMMANDS_FILE);

  00604	68 00 00 00 00	 push	 OFFSET ??_C@_0CE@BMBMBCJB@?4?2Customs?2Commands?2Hgt_Commands?4@
  00609	6a 00		 push	 0
  0060b	68 00 00 00 00	 push	 OFFSET ??_C@_0CB@NPJMPPOE@Command_HeroClear_NeedResetsFree@
  00610	68 00 00 00 00	 push	 OFFSET ??_C@_08JNEOMACB@Commands?$AA@
  00615	89 86 f8 03 00
	00		 mov	 DWORD PTR [esi+1016], eax
  0061b	ff d7		 call	 edi

; 84   : 	this->m_Data[COMMAND_HEROCLEAR].iResets[1]      = GetPrivateProfileInt("Commands", "Command_HeroClear_NeedResetsVip1", NULL, COMMANDS_FILE);

  0061d	68 00 00 00 00	 push	 OFFSET ??_C@_0CE@BMBMBCJB@?4?2Customs?2Commands?2Hgt_Commands?4@
  00622	6a 00		 push	 0
  00624	89 86 fc 03 00
	00		 mov	 DWORD PTR [esi+1020], eax
  0062a	68 00 00 00 00	 push	 OFFSET ??_C@_0CB@PMFOEBDD@Command_HeroClear_NeedResetsVip1@
  0062f	68 00 00 00 00	 push	 OFFSET ??_C@_08JNEOMACB@Commands?$AA@
  00634	ff d7		 call	 edi

; 85   : 	this->m_Data[COMMAND_HEROCLEAR].iResets[2]      = GetPrivateProfileInt("Commands", "Command_HeroClear_NeedResetsVip2", NULL, COMMANDS_FILE);

  00636	68 00 00 00 00	 push	 OFFSET ??_C@_0CE@BMBMBCJB@?4?2Customs?2Commands?2Hgt_Commands?4@
  0063b	6a 00		 push	 0
  0063d	68 00 00 00 00	 push	 OFFSET ??_C@_0CB@NHHDBCPA@Command_HeroClear_NeedResetsVip2@
  00642	68 00 00 00 00	 push	 OFFSET ??_C@_08JNEOMACB@Commands?$AA@
  00647	89 86 00 04 00
	00		 mov	 DWORD PTR [esi+1024], eax
  0064d	ff d7		 call	 edi

; 86   : 	this->m_Data[COMMAND_HEROCLEAR].iResets[3]      = GetPrivateProfileInt("Commands", "Command_HeroClear_NeedResetsVip3", NULL, COMMANDS_FILE);

  0064f	68 00 00 00 00	 push	 OFFSET ??_C@_0CE@BMBMBCJB@?4?2Customs?2Commands?2Hgt_Commands?4@
  00654	6a 00		 push	 0
  00656	68 00 00 00 00	 push	 OFFSET ??_C@_0CB@MOGICDLB@Command_HeroClear_NeedResetsVip3@
  0065b	68 00 00 00 00	 push	 OFFSET ??_C@_08JNEOMACB@Commands?$AA@
  00660	89 86 04 04 00
	00		 mov	 DWORD PTR [esi+1028], eax
  00666	ff d7		 call	 edi

; 87   : 	this->m_Data[COMMAND_HEROCLEAR].iMResets[0]     = GetPrivateProfileInt("Commands", "Command_HeroClear_NeedMasterResetsFree", NULL, COMMANDS_FILE);

  00668	68 00 00 00 00	 push	 OFFSET ??_C@_0CE@BMBMBCJB@?4?2Customs?2Commands?2Hgt_Commands?4@
  0066d	6a 00		 push	 0
  0066f	68 00 00 00 00	 push	 OFFSET ??_C@_0CH@OLJMHEKP@Command_HeroClear_NeedMasterRese@
  00674	68 00 00 00 00	 push	 OFFSET ??_C@_08JNEOMACB@Commands?$AA@
  00679	89 86 08 04 00
	00		 mov	 DWORD PTR [esi+1032], eax
  0067f	ff d7		 call	 edi

; 88   : 	this->m_Data[COMMAND_HEROCLEAR].iMResets[1]     = GetPrivateProfileInt("Commands", "Command_HeroClear_NeedMasterResetsVip1", NULL, COMMANDS_FILE);

  00681	68 00 00 00 00	 push	 OFFSET ??_C@_0CE@BMBMBCJB@?4?2Customs?2Commands?2Hgt_Commands?4@
  00686	6a 00		 push	 0
  00688	68 00 00 00 00	 push	 OFFSET ??_C@_0CH@MIFOMKHI@Command_HeroClear_NeedMasterRese@
  0068d	68 00 00 00 00	 push	 OFFSET ??_C@_08JNEOMACB@Commands?$AA@
  00692	89 86 0c 04 00
	00		 mov	 DWORD PTR [esi+1036], eax
  00698	ff d7		 call	 edi

; 89   : 	this->m_Data[COMMAND_HEROCLEAR].iMResets[2]		= GetPrivateProfileInt("Commands", "Command_HeroClear_NeedMasterResetsVip2", NULL, COMMANDS_FILE);

  0069a	68 00 00 00 00	 push	 OFFSET ??_C@_0CE@BMBMBCJB@?4?2Customs?2Commands?2Hgt_Commands?4@
  0069f	6a 00		 push	 0
  006a1	68 00 00 00 00	 push	 OFFSET ??_C@_0CH@ODHDJJLL@Command_HeroClear_NeedMasterRese@
  006a6	68 00 00 00 00	 push	 OFFSET ??_C@_08JNEOMACB@Commands?$AA@
  006ab	89 86 10 04 00
	00		 mov	 DWORD PTR [esi+1040], eax
  006b1	ff d7		 call	 edi

; 90   : 	this->m_Data[COMMAND_HEROCLEAR].iMResets[3]     = GetPrivateProfileInt("Commands", "Command_HeroClear_NeedMasterResetsVip3", NULL, COMMANDS_FILE);

  006b3	68 00 00 00 00	 push	 OFFSET ??_C@_0CE@BMBMBCJB@?4?2Customs?2Commands?2Hgt_Commands?4@
  006b8	6a 00		 push	 0
  006ba	68 00 00 00 00	 push	 OFFSET ??_C@_0CH@PKGIKIPK@Command_HeroClear_NeedMasterRese@
  006bf	68 00 00 00 00	 push	 OFFSET ??_C@_08JNEOMACB@Commands?$AA@
  006c4	89 86 14 04 00
	00		 mov	 DWORD PTR [esi+1044], eax
  006ca	ff d7		 call	 edi

; 91   : 	// ---
; 92   : 	GetPrivateProfileString("Commands", "Command_Evo_Sintax", NULL, this->m_Data[COMMAND_EVO].szSintax, sizeof(this->m_Data[COMMAND_EVO].szSintax), COMMANDS_FILE);

  006cc	68 00 00 00 00	 push	 OFFSET ??_C@_0CE@BMBMBCJB@?4?2Customs?2Commands?2Hgt_Commands?4@
  006d1	6a 14		 push	 20			; 00000014H
  006d3	89 86 18 04 00
	00		 mov	 DWORD PTR [esi+1048], eax
  006d9	8d 86 04 06 00
	00		 lea	 eax, DWORD PTR [esi+1540]
  006df	50		 push	 eax
  006e0	6a 00		 push	 0
  006e2	68 00 00 00 00	 push	 OFFSET ??_C@_0BD@LFJFNECH@Command_Evo_Sintax?$AA@
  006e7	68 00 00 00 00	 push	 OFFSET ??_C@_08JNEOMACB@Commands?$AA@
  006ec	ff d3		 call	 ebx

; 93   : 	// ---
; 94   : 	this->m_Data[COMMAND_EVO].iEnabled				= GetPrivateProfileInt("Commands", "Command_Evo_Enabled", NULL, COMMANDS_FILE);

  006ee	68 00 00 00 00	 push	 OFFSET ??_C@_0CE@BMBMBCJB@?4?2Customs?2Commands?2Hgt_Commands?4@
  006f3	6a 00		 push	 0
  006f5	68 00 00 00 00	 push	 OFFSET ??_C@_0BE@CDDPLADH@Command_Evo_Enabled?$AA@
  006fa	68 00 00 00 00	 push	 OFFSET ??_C@_08JNEOMACB@Commands?$AA@
  006ff	ff d7		 call	 edi

; 95   : 	this->m_Data[COMMAND_EVO].iVipOnly[0]			= GetPrivateProfileInt("Commands", "Command_Evo_SwitchFree", NULL, COMMANDS_FILE);

  00701	68 00 00 00 00	 push	 OFFSET ??_C@_0CE@BMBMBCJB@?4?2Customs?2Commands?2Hgt_Commands?4@
  00706	6a 00		 push	 0
  00708	85 c0		 test	 eax, eax
  0070a	68 00 00 00 00	 push	 OFFSET ??_C@_0BH@IJAEKPMA@Command_Evo_SwitchFree?$AA@
  0070f	0f 95 c1	 setne	 cl
  00712	68 00 00 00 00	 push	 OFFSET ??_C@_08JNEOMACB@Commands?$AA@
  00717	88 8e ac 05 00
	00		 mov	 BYTE PTR [esi+1452], cl
  0071d	ff d7		 call	 edi

; 96   : 	this->m_Data[COMMAND_EVO].iVipOnly[1]			= GetPrivateProfileInt("Commands", "Command_Evo_SwitchVip1", NULL, COMMANDS_FILE);

  0071f	68 00 00 00 00	 push	 OFFSET ??_C@_0CE@BMBMBCJB@?4?2Customs?2Commands?2Hgt_Commands?4@
  00724	6a 00		 push	 0
  00726	68 00 00 00 00	 push	 OFFSET ??_C@_0BH@KKMGBBBH@Command_Evo_SwitchVip1?$AA@
  0072b	68 00 00 00 00	 push	 OFFSET ??_C@_08JNEOMACB@Commands?$AA@
  00730	89 86 b0 05 00
	00		 mov	 DWORD PTR [esi+1456], eax
  00736	ff d7		 call	 edi

; 97   : 	this->m_Data[COMMAND_EVO].iVipOnly[2]			= GetPrivateProfileInt("Commands", "Command_Evo_SwitchVip2", NULL, COMMANDS_FILE);

  00738	68 00 00 00 00	 push	 OFFSET ??_C@_0CE@BMBMBCJB@?4?2Customs?2Commands?2Hgt_Commands?4@
  0073d	6a 00		 push	 0
  0073f	68 00 00 00 00	 push	 OFFSET ??_C@_0BH@IBOLECNE@Command_Evo_SwitchVip2?$AA@
  00744	68 00 00 00 00	 push	 OFFSET ??_C@_08JNEOMACB@Commands?$AA@
  00749	89 86 b4 05 00
	00		 mov	 DWORD PTR [esi+1460], eax
  0074f	ff d7		 call	 edi

; 98   : 	this->m_Data[COMMAND_EVO].iVipOnly[3]			= GetPrivateProfileInt("Commands", "Command_Evo_SwitchVip3", NULL, COMMANDS_FILE);

  00751	68 00 00 00 00	 push	 OFFSET ??_C@_0CE@BMBMBCJB@?4?2Customs?2Commands?2Hgt_Commands?4@
  00756	6a 00		 push	 0
  00758	68 00 00 00 00	 push	 OFFSET ??_C@_0BH@JIPAHDJF@Command_Evo_SwitchVip3?$AA@
  0075d	68 00 00 00 00	 push	 OFFSET ??_C@_08JNEOMACB@Commands?$AA@
  00762	89 86 b8 05 00
	00		 mov	 DWORD PTR [esi+1464], eax
  00768	ff d7		 call	 edi

; 99   : 	this->m_Data[COMMAND_EVO].iLevel[0]				= GetPrivateProfileInt("Commands", "Command_Evo_NeedLevelFree", NULL, COMMANDS_FILE);

  0076a	68 00 00 00 00	 push	 OFFSET ??_C@_0CE@BMBMBCJB@?4?2Customs?2Commands?2Hgt_Commands?4@
  0076f	89 86 bc 05 00
	00		 mov	 DWORD PTR [esi+1468], eax
  00775	6a 00		 push	 0
  00777	68 00 00 00 00	 push	 OFFSET ??_C@_0BK@EPNBJAAP@Command_Evo_NeedLevelFree?$AA@
  0077c	68 00 00 00 00	 push	 OFFSET ??_C@_08JNEOMACB@Commands?$AA@
  00781	ff d7		 call	 edi

; 100  : 	this->m_Data[COMMAND_EVO].iLevel[1]				= GetPrivateProfileInt("Commands", "Command_Evo_NeedLevelVip1", NULL, COMMANDS_FILE);

  00783	68 00 00 00 00	 push	 OFFSET ??_C@_0CE@BMBMBCJB@?4?2Customs?2Commands?2Hgt_Commands?4@
  00788	6a 00		 push	 0
  0078a	68 00 00 00 00	 push	 OFFSET ??_C@_0BK@GMBDCONI@Command_Evo_NeedLevelVip1?$AA@
  0078f	68 00 00 00 00	 push	 OFFSET ??_C@_08JNEOMACB@Commands?$AA@
  00794	89 86 c0 05 00
	00		 mov	 DWORD PTR [esi+1472], eax
  0079a	ff d7		 call	 edi

; 101  : 	this->m_Data[COMMAND_EVO].iLevel[2]				= GetPrivateProfileInt("Commands", "Command_Evo_NeedLevelVip2", NULL, COMMANDS_FILE);

  0079c	68 00 00 00 00	 push	 OFFSET ??_C@_0CE@BMBMBCJB@?4?2Customs?2Commands?2Hgt_Commands?4@
  007a1	6a 00		 push	 0
  007a3	68 00 00 00 00	 push	 OFFSET ??_C@_0BK@EHDOHNBL@Command_Evo_NeedLevelVip2?$AA@
  007a8	68 00 00 00 00	 push	 OFFSET ??_C@_08JNEOMACB@Commands?$AA@
  007ad	89 86 c4 05 00
	00		 mov	 DWORD PTR [esi+1476], eax
  007b3	ff d7		 call	 edi

; 102  : 	this->m_Data[COMMAND_EVO].iLevel[3]				= GetPrivateProfileInt("Commands", "Command_Evo_NeedLevelVip3", NULL, COMMANDS_FILE);

  007b5	68 00 00 00 00	 push	 OFFSET ??_C@_0CE@BMBMBCJB@?4?2Customs?2Commands?2Hgt_Commands?4@
  007ba	6a 00		 push	 0
  007bc	68 00 00 00 00	 push	 OFFSET ??_C@_0BK@FOCFEMFK@Command_Evo_NeedLevelVip3?$AA@
  007c1	68 00 00 00 00	 push	 OFFSET ??_C@_08JNEOMACB@Commands?$AA@
  007c6	89 86 c8 05 00
	00		 mov	 DWORD PTR [esi+1480], eax
  007cc	ff d7		 call	 edi

; 103  : 	this->m_Data[COMMAND_EVO].iMoney[0]				= GetPrivateProfileInt("Commands", "Command_Evo_NeedMoneyFree", NULL, COMMANDS_FILE);

  007ce	68 00 00 00 00	 push	 OFFSET ??_C@_0CE@BMBMBCJB@?4?2Customs?2Commands?2Hgt_Commands?4@
  007d3	6a 00		 push	 0
  007d5	68 00 00 00 00	 push	 OFFSET ??_C@_0BK@MJHIMIBJ@Command_Evo_NeedMoneyFree?$AA@
  007da	68 00 00 00 00	 push	 OFFSET ??_C@_08JNEOMACB@Commands?$AA@
  007df	89 86 cc 05 00
	00		 mov	 DWORD PTR [esi+1484], eax
  007e5	ff d7		 call	 edi

; 104  : 	this->m_Data[COMMAND_EVO].iMoney[1]				= GetPrivateProfileInt("Commands", "Command_Evo_NeedMoneyVip1", NULL, COMMANDS_FILE);

  007e7	68 00 00 00 00	 push	 OFFSET ??_C@_0CE@BMBMBCJB@?4?2Customs?2Commands?2Hgt_Commands?4@
  007ec	6a 00		 push	 0
  007ee	68 00 00 00 00	 push	 OFFSET ??_C@_0BK@OKLKHGMO@Command_Evo_NeedMoneyVip1?$AA@
  007f3	68 00 00 00 00	 push	 OFFSET ??_C@_08JNEOMACB@Commands?$AA@
  007f8	89 86 d0 05 00
	00		 mov	 DWORD PTR [esi+1488], eax
  007fe	ff d7		 call	 edi

; 105  : 	this->m_Data[COMMAND_EVO].iMoney[2]				= GetPrivateProfileInt("Commands", "Command_Evo_NeedMoneyVip2", NULL, COMMANDS_FILE);

  00800	68 00 00 00 00	 push	 OFFSET ??_C@_0CE@BMBMBCJB@?4?2Customs?2Commands?2Hgt_Commands?4@
  00805	6a 00		 push	 0
  00807	68 00 00 00 00	 push	 OFFSET ??_C@_0BK@MBJHCFAN@Command_Evo_NeedMoneyVip2?$AA@
  0080c	68 00 00 00 00	 push	 OFFSET ??_C@_08JNEOMACB@Commands?$AA@
  00811	89 86 d4 05 00
	00		 mov	 DWORD PTR [esi+1492], eax
  00817	ff d7		 call	 edi

; 106  : 	this->m_Data[COMMAND_EVO].iMoney[3]				= GetPrivateProfileInt("Commands", "Command_Evo_NeedMoneyVip3", NULL, COMMANDS_FILE);

  00819	68 00 00 00 00	 push	 OFFSET ??_C@_0CE@BMBMBCJB@?4?2Customs?2Commands?2Hgt_Commands?4@
  0081e	6a 00		 push	 0
  00820	68 00 00 00 00	 push	 OFFSET ??_C@_0BK@NIIMBEEM@Command_Evo_NeedMoneyVip3?$AA@
  00825	68 00 00 00 00	 push	 OFFSET ??_C@_08JNEOMACB@Commands?$AA@
  0082a	89 86 d8 05 00
	00		 mov	 DWORD PTR [esi+1496], eax
  00830	ff d7		 call	 edi

; 107  : 	this->m_Data[COMMAND_EVO].iResets[0]			= GetPrivateProfileInt("Commands", "Command_Evo_NeedResetsFree", NULL, COMMANDS_FILE);

  00832	68 00 00 00 00	 push	 OFFSET ??_C@_0CE@BMBMBCJB@?4?2Customs?2Commands?2Hgt_Commands?4@
  00837	6a 00		 push	 0
  00839	68 00 00 00 00	 push	 OFFSET ??_C@_0BL@KHIEMMLG@Command_Evo_NeedResetsFree?$AA@
  0083e	68 00 00 00 00	 push	 OFFSET ??_C@_08JNEOMACB@Commands?$AA@
  00843	89 86 dc 05 00
	00		 mov	 DWORD PTR [esi+1500], eax
  00849	ff d7		 call	 edi

; 108  : 	this->m_Data[COMMAND_EVO].iResets[1]			= GetPrivateProfileInt("Commands", "Command_Evo_NeedResetsVip1", NULL, COMMANDS_FILE);

  0084b	68 00 00 00 00	 push	 OFFSET ??_C@_0CE@BMBMBCJB@?4?2Customs?2Commands?2Hgt_Commands?4@
  00850	6a 00		 push	 0
  00852	68 00 00 00 00	 push	 OFFSET ??_C@_0BL@IEEGHCGB@Command_Evo_NeedResetsVip1?$AA@
  00857	68 00 00 00 00	 push	 OFFSET ??_C@_08JNEOMACB@Commands?$AA@
  0085c	89 86 e0 05 00
	00		 mov	 DWORD PTR [esi+1504], eax
  00862	ff d7		 call	 edi

; 109  : 	this->m_Data[COMMAND_EVO].iResets[2]			= GetPrivateProfileInt("Commands", "Command_Evo_NeedResetsVip2", NULL, COMMANDS_FILE);

  00864	68 00 00 00 00	 push	 OFFSET ??_C@_0CE@BMBMBCJB@?4?2Customs?2Commands?2Hgt_Commands?4@
  00869	6a 00		 push	 0
  0086b	68 00 00 00 00	 push	 OFFSET ??_C@_0BL@KPGLCBKC@Command_Evo_NeedResetsVip2?$AA@
  00870	68 00 00 00 00	 push	 OFFSET ??_C@_08JNEOMACB@Commands?$AA@
  00875	89 86 e4 05 00
	00		 mov	 DWORD PTR [esi+1508], eax
  0087b	ff d7		 call	 edi

; 110  : 	this->m_Data[COMMAND_EVO].iResets[3]			= GetPrivateProfileInt("Commands", "Command_Evo_NeedResetsVip3", NULL, COMMANDS_FILE);

  0087d	68 00 00 00 00	 push	 OFFSET ??_C@_0CE@BMBMBCJB@?4?2Customs?2Commands?2Hgt_Commands?4@
  00882	6a 00		 push	 0
  00884	68 00 00 00 00	 push	 OFFSET ??_C@_0BL@LGHABAOD@Command_Evo_NeedResetsVip3?$AA@
  00889	68 00 00 00 00	 push	 OFFSET ??_C@_08JNEOMACB@Commands?$AA@
  0088e	89 86 e8 05 00
	00		 mov	 DWORD PTR [esi+1512], eax
  00894	ff d7		 call	 edi

; 111  : 	this->m_Data[COMMAND_EVO].iMResets[0]			= GetPrivateProfileInt("Commands", "Command_Evo_NeedMasterResetsFree", NULL, COMMANDS_FILE);

  00896	68 00 00 00 00	 push	 OFFSET ??_C@_0CE@BMBMBCJB@?4?2Customs?2Commands?2Hgt_Commands?4@
  0089b	6a 00		 push	 0
  0089d	68 00 00 00 00	 push	 OFFSET ??_C@_0CB@IDBEFJJN@Command_Evo_NeedMasterResetsFree@
  008a2	68 00 00 00 00	 push	 OFFSET ??_C@_08JNEOMACB@Commands?$AA@
  008a7	89 86 ec 05 00
	00		 mov	 DWORD PTR [esi+1516], eax
  008ad	ff d7		 call	 edi

; 112  : 	this->m_Data[COMMAND_EVO].iMResets[1]			= GetPrivateProfileInt("Commands", "Command_Evo_NeedMasterResetsVip1", NULL, COMMANDS_FILE);

  008af	68 00 00 00 00	 push	 OFFSET ??_C@_0CE@BMBMBCJB@?4?2Customs?2Commands?2Hgt_Commands?4@
  008b4	6a 00		 push	 0
  008b6	68 00 00 00 00	 push	 OFFSET ??_C@_0CB@KANGOHEK@Command_Evo_NeedMasterResetsVip1@
  008bb	68 00 00 00 00	 push	 OFFSET ??_C@_08JNEOMACB@Commands?$AA@
  008c0	89 86 f0 05 00
	00		 mov	 DWORD PTR [esi+1520], eax
  008c6	ff d7		 call	 edi

; 113  : 	this->m_Data[COMMAND_EVO].iMResets[2]			= GetPrivateProfileInt("Commands", "Command_Evo_NeedMasterResetsVip2", NULL, COMMANDS_FILE);

  008c8	68 00 00 00 00	 push	 OFFSET ??_C@_0CE@BMBMBCJB@?4?2Customs?2Commands?2Hgt_Commands?4@
  008cd	6a 00		 push	 0
  008cf	68 00 00 00 00	 push	 OFFSET ??_C@_0CB@ILPLLEIJ@Command_Evo_NeedMasterResetsVip2@
  008d4	68 00 00 00 00	 push	 OFFSET ??_C@_08JNEOMACB@Commands?$AA@
  008d9	89 86 f4 05 00
	00		 mov	 DWORD PTR [esi+1524], eax
  008df	ff d7		 call	 edi

; 114  : 	this->m_Data[COMMAND_EVO].iMResets[3]			= GetPrivateProfileInt("Commands", "Command_Evo_NeedMasterResetsVip3", NULL, COMMANDS_FILE);

  008e1	68 00 00 00 00	 push	 OFFSET ??_C@_0CE@BMBMBCJB@?4?2Customs?2Commands?2Hgt_Commands?4@
  008e6	6a 00		 push	 0
  008e8	68 00 00 00 00	 push	 OFFSET ??_C@_0CB@JCOAIFMI@Command_Evo_NeedMasterResetsVip3@
  008ed	68 00 00 00 00	 push	 OFFSET ??_C@_08JNEOMACB@Commands?$AA@
  008f2	89 86 f8 05 00
	00		 mov	 DWORD PTR [esi+1528], eax
  008f8	ff d7		 call	 edi

; 115  : 	// ---
; 116  : 	GetPrivateProfileString("Commands", "Command_Money_Sintax", NULL, this->m_Data[COMMAND_ZEN].szSintax, sizeof(this->m_Data[COMMAND_ZEN].szSintax), COMMANDS_FILE);

  008fa	68 00 00 00 00	 push	 OFFSET ??_C@_0CE@BMBMBCJB@?4?2Customs?2Commands?2Hgt_Commands?4@
  008ff	6a 14		 push	 20			; 00000014H
  00901	8d 96 e8 07 00
	00		 lea	 edx, DWORD PTR [esi+2024]
  00907	52		 push	 edx
  00908	6a 00		 push	 0
  0090a	68 00 00 00 00	 push	 OFFSET ??_C@_0BF@GKGCCFJM@Command_Money_Sintax?$AA@
  0090f	68 00 00 00 00	 push	 OFFSET ??_C@_08JNEOMACB@Commands?$AA@
  00914	89 86 fc 05 00
	00		 mov	 DWORD PTR [esi+1532], eax
  0091a	ff d3		 call	 ebx

; 117  : 	// ---
; 118  : 	this->m_Data[COMMAND_ZEN].iEnabled				= GetPrivateProfileInt("Commands", "Command_Money_Enabled", NULL, COMMANDS_FILE);

  0091c	68 00 00 00 00	 push	 OFFSET ??_C@_0CE@BMBMBCJB@?4?2Customs?2Commands?2Hgt_Commands?4@
  00921	6a 00		 push	 0
  00923	68 00 00 00 00	 push	 OFFSET ??_C@_0BG@HPFDCNMC@Command_Money_Enabled?$AA@
  00928	68 00 00 00 00	 push	 OFFSET ??_C@_08JNEOMACB@Commands?$AA@
  0092d	ff d7		 call	 edi

; 119  : 	this->m_Data[COMMAND_ZEN].iVipOnly[0]			= GetPrivateProfileInt("Commands", "Command_Money_SwitchFree", NULL, COMMANDS_FILE);

  0092f	68 00 00 00 00	 push	 OFFSET ??_C@_0CE@BMBMBCJB@?4?2Customs?2Commands?2Hgt_Commands?4@
  00934	6a 00		 push	 0
  00936	85 c0		 test	 eax, eax
  00938	68 00 00 00 00	 push	 OFFSET ??_C@_0BJ@LKOAMHID@Command_Money_SwitchFree?$AA@
  0093d	0f 95 c0	 setne	 al
  00940	68 00 00 00 00	 push	 OFFSET ??_C@_08JNEOMACB@Commands?$AA@
  00945	88 86 90 07 00
	00		 mov	 BYTE PTR [esi+1936], al
  0094b	ff d7		 call	 edi

; 120  : 	this->m_Data[COMMAND_ZEN].iVipOnly[1]			= GetPrivateProfileInt("Commands", "Command_Money_SwitchVip1", NULL, COMMANDS_FILE);

  0094d	68 00 00 00 00	 push	 OFFSET ??_C@_0CE@BMBMBCJB@?4?2Customs?2Commands?2Hgt_Commands?4@
  00952	6a 00		 push	 0
  00954	68 00 00 00 00	 push	 OFFSET ??_C@_0BJ@JJCCHJFE@Command_Money_SwitchVip1?$AA@
  00959	68 00 00 00 00	 push	 OFFSET ??_C@_08JNEOMACB@Commands?$AA@
  0095e	89 86 94 07 00
	00		 mov	 DWORD PTR [esi+1940], eax
  00964	ff d7		 call	 edi

; 121  : 	this->m_Data[COMMAND_ZEN].iVipOnly[2]			= GetPrivateProfileInt("Commands", "Command_Money_SwitchVip2", NULL, COMMANDS_FILE);

  00966	68 00 00 00 00	 push	 OFFSET ??_C@_0CE@BMBMBCJB@?4?2Customs?2Commands?2Hgt_Commands?4@
  0096b	6a 00		 push	 0
  0096d	68 00 00 00 00	 push	 OFFSET ??_C@_0BJ@LCAPCKJH@Command_Money_SwitchVip2?$AA@
  00972	68 00 00 00 00	 push	 OFFSET ??_C@_08JNEOMACB@Commands?$AA@
  00977	89 86 98 07 00
	00		 mov	 DWORD PTR [esi+1944], eax
  0097d	ff d7		 call	 edi

; 122  : 	this->m_Data[COMMAND_ZEN].iVipOnly[3]			= GetPrivateProfileInt("Commands", "Command_Money_SwitchVip3", NULL, COMMANDS_FILE);

  0097f	68 00 00 00 00	 push	 OFFSET ??_C@_0CE@BMBMBCJB@?4?2Customs?2Commands?2Hgt_Commands?4@
  00984	6a 00		 push	 0
  00986	68 00 00 00 00	 push	 OFFSET ??_C@_0BJ@KLBEBLNG@Command_Money_SwitchVip3?$AA@
  0098b	68 00 00 00 00	 push	 OFFSET ??_C@_08JNEOMACB@Commands?$AA@
  00990	89 86 9c 07 00
	00		 mov	 DWORD PTR [esi+1948], eax
  00996	ff d7		 call	 edi

; 123  : 	this->m_Data[COMMAND_ZEN].iLevel[0]				= GetPrivateProfileInt("Commands", "Command_Money_NeedLevelFree", NULL, COMMANDS_FILE);

  00998	68 00 00 00 00	 push	 OFFSET ??_C@_0CE@BMBMBCJB@?4?2Customs?2Commands?2Hgt_Commands?4@
  0099d	6a 00		 push	 0
  0099f	68 00 00 00 00	 push	 OFFSET ??_C@_0BM@DHEOGEGL@Command_Money_NeedLevelFree?$AA@
  009a4	68 00 00 00 00	 push	 OFFSET ??_C@_08JNEOMACB@Commands?$AA@
  009a9	89 86 a0 07 00
	00		 mov	 DWORD PTR [esi+1952], eax
  009af	ff d7		 call	 edi

; 124  : 	this->m_Data[COMMAND_ZEN].iLevel[1]				= GetPrivateProfileInt("Commands", "Command_Money_NeedLevelVip1", NULL, COMMANDS_FILE);

  009b1	68 00 00 00 00	 push	 OFFSET ??_C@_0CE@BMBMBCJB@?4?2Customs?2Commands?2Hgt_Commands?4@
  009b6	6a 00		 push	 0
  009b8	68 00 00 00 00	 push	 OFFSET ??_C@_0BM@BEIMNKLM@Command_Money_NeedLevelVip1?$AA@
  009bd	68 00 00 00 00	 push	 OFFSET ??_C@_08JNEOMACB@Commands?$AA@
  009c2	89 86 a4 07 00
	00		 mov	 DWORD PTR [esi+1956], eax
  009c8	ff d7		 call	 edi

; 125  : 	this->m_Data[COMMAND_ZEN].iLevel[2]				= GetPrivateProfileInt("Commands", "Command_Money_NeedLevelVip2", NULL, COMMANDS_FILE);

  009ca	68 00 00 00 00	 push	 OFFSET ??_C@_0CE@BMBMBCJB@?4?2Customs?2Commands?2Hgt_Commands?4@
  009cf	6a 00		 push	 0
  009d1	68 00 00 00 00	 push	 OFFSET ??_C@_0BM@DPKBIJHP@Command_Money_NeedLevelVip2?$AA@
  009d6	68 00 00 00 00	 push	 OFFSET ??_C@_08JNEOMACB@Commands?$AA@
  009db	89 86 a8 07 00
	00		 mov	 DWORD PTR [esi+1960], eax
  009e1	ff d7		 call	 edi

; 126  : 	this->m_Data[COMMAND_ZEN].iLevel[3]				= GetPrivateProfileInt("Commands", "Command_Money_NeedLevelVip3", NULL, COMMANDS_FILE);

  009e3	68 00 00 00 00	 push	 OFFSET ??_C@_0CE@BMBMBCJB@?4?2Customs?2Commands?2Hgt_Commands?4@
  009e8	6a 00		 push	 0
  009ea	68 00 00 00 00	 push	 OFFSET ??_C@_0BM@CGLKLIDO@Command_Money_NeedLevelVip3?$AA@
  009ef	68 00 00 00 00	 push	 OFFSET ??_C@_08JNEOMACB@Commands?$AA@
  009f4	89 86 ac 07 00
	00		 mov	 DWORD PTR [esi+1964], eax
  009fa	ff d7		 call	 edi

; 127  : 	this->m_Data[COMMAND_ZEN].iMoney[0]				= GetPrivateProfileInt("Commands", "Command_Money_NeedMoneyFree", NULL, COMMANDS_FILE);

  009fc	68 00 00 00 00	 push	 OFFSET ??_C@_0CE@BMBMBCJB@?4?2Customs?2Commands?2Hgt_Commands?4@
  00a01	6a 00		 push	 0
  00a03	68 00 00 00 00	 push	 OFFSET ??_C@_0BM@LBOHDMHN@Command_Money_NeedMoneyFree?$AA@
  00a08	89 86 b0 07 00
	00		 mov	 DWORD PTR [esi+1968], eax
  00a0e	68 00 00 00 00	 push	 OFFSET ??_C@_08JNEOMACB@Commands?$AA@
  00a13	ff d7		 call	 edi

; 128  : 	this->m_Data[COMMAND_ZEN].iMoney[1]				= GetPrivateProfileInt("Commands", "Command_Money_NeedMoneyVip1", NULL, COMMANDS_FILE);

  00a15	68 00 00 00 00	 push	 OFFSET ??_C@_0CE@BMBMBCJB@?4?2Customs?2Commands?2Hgt_Commands?4@
  00a1a	6a 00		 push	 0
  00a1c	68 00 00 00 00	 push	 OFFSET ??_C@_0BM@JCCFICKK@Command_Money_NeedMoneyVip1?$AA@
  00a21	68 00 00 00 00	 push	 OFFSET ??_C@_08JNEOMACB@Commands?$AA@
  00a26	89 86 b4 07 00
	00		 mov	 DWORD PTR [esi+1972], eax
  00a2c	ff d7		 call	 edi

; 129  : 	this->m_Data[COMMAND_ZEN].iMoney[2]				= GetPrivateProfileInt("Commands", "Command_Money_NeedMoneyVip2", NULL, COMMANDS_FILE);

  00a2e	68 00 00 00 00	 push	 OFFSET ??_C@_0CE@BMBMBCJB@?4?2Customs?2Commands?2Hgt_Commands?4@
  00a33	6a 00		 push	 0
  00a35	68 00 00 00 00	 push	 OFFSET ??_C@_0BM@LJAINBGJ@Command_Money_NeedMoneyVip2?$AA@
  00a3a	68 00 00 00 00	 push	 OFFSET ??_C@_08JNEOMACB@Commands?$AA@
  00a3f	89 86 b8 07 00
	00		 mov	 DWORD PTR [esi+1976], eax
  00a45	ff d7		 call	 edi

; 130  : 	this->m_Data[COMMAND_ZEN].iMoney[3]				= GetPrivateProfileInt("Commands", "Command_Money_NeedMoneyVip3", NULL, COMMANDS_FILE);

  00a47	68 00 00 00 00	 push	 OFFSET ??_C@_0CE@BMBMBCJB@?4?2Customs?2Commands?2Hgt_Commands?4@
  00a4c	6a 00		 push	 0
  00a4e	68 00 00 00 00	 push	 OFFSET ??_C@_0BM@KABDOACI@Command_Money_NeedMoneyVip3?$AA@
  00a53	68 00 00 00 00	 push	 OFFSET ??_C@_08JNEOMACB@Commands?$AA@
  00a58	89 86 bc 07 00
	00		 mov	 DWORD PTR [esi+1980], eax
  00a5e	ff d7		 call	 edi

; 131  : 	this->m_Data[COMMAND_ZEN].iResets[0]			= GetPrivateProfileInt("Commands", "Command_Money_NeedResetsFree", NULL, COMMANDS_FILE);

  00a60	68 00 00 00 00	 push	 OFFSET ??_C@_0CE@BMBMBCJB@?4?2Customs?2Commands?2Hgt_Commands?4@
  00a65	6a 00		 push	 0
  00a67	68 00 00 00 00	 push	 OFFSET ??_C@_0BN@ONCDPGAD@Command_Money_NeedResetsFree?$AA@
  00a6c	68 00 00 00 00	 push	 OFFSET ??_C@_08JNEOMACB@Commands?$AA@
  00a71	89 86 c0 07 00
	00		 mov	 DWORD PTR [esi+1984], eax
  00a77	ff d7		 call	 edi

; 132  : 	this->m_Data[COMMAND_ZEN].iResets[1]			= GetPrivateProfileInt("Commands", "Command_Money_NeedResetsVip1", NULL, COMMANDS_FILE);

  00a79	68 00 00 00 00	 push	 OFFSET ??_C@_0CE@BMBMBCJB@?4?2Customs?2Commands?2Hgt_Commands?4@
  00a7e	6a 00		 push	 0
  00a80	68 00 00 00 00	 push	 OFFSET ??_C@_0BN@MOOBEINE@Command_Money_NeedResetsVip1?$AA@
  00a85	68 00 00 00 00	 push	 OFFSET ??_C@_08JNEOMACB@Commands?$AA@
  00a8a	89 86 c4 07 00
	00		 mov	 DWORD PTR [esi+1988], eax
  00a90	ff d7		 call	 edi

; 133  : 	this->m_Data[COMMAND_ZEN].iResets[2]			= GetPrivateProfileInt("Commands", "Command_Money_NeedResetsVip2", NULL, COMMANDS_FILE);

  00a92	68 00 00 00 00	 push	 OFFSET ??_C@_0CE@BMBMBCJB@?4?2Customs?2Commands?2Hgt_Commands?4@
  00a97	6a 00		 push	 0
  00a99	68 00 00 00 00	 push	 OFFSET ??_C@_0BN@OFMMBLBH@Command_Money_NeedResetsVip2?$AA@
  00a9e	68 00 00 00 00	 push	 OFFSET ??_C@_08JNEOMACB@Commands?$AA@
  00aa3	89 86 c8 07 00
	00		 mov	 DWORD PTR [esi+1992], eax
  00aa9	ff d7		 call	 edi

; 134  : 	this->m_Data[COMMAND_ZEN].iResets[3]			= GetPrivateProfileInt("Commands", "Command_Money_NeedResetsVip3", NULL, COMMANDS_FILE);

  00aab	68 00 00 00 00	 push	 OFFSET ??_C@_0CE@BMBMBCJB@?4?2Customs?2Commands?2Hgt_Commands?4@
  00ab0	6a 00		 push	 0
  00ab2	68 00 00 00 00	 push	 OFFSET ??_C@_0BN@PMNHCKFG@Command_Money_NeedResetsVip3?$AA@
  00ab7	68 00 00 00 00	 push	 OFFSET ??_C@_08JNEOMACB@Commands?$AA@
  00abc	89 86 cc 07 00
	00		 mov	 DWORD PTR [esi+1996], eax
  00ac2	ff d7		 call	 edi

; 135  : 	this->m_Data[COMMAND_ZEN].iMResets[0]			= GetPrivateProfileInt("Commands", "Command_Money_NeedMasterResetsFree", NULL, COMMANDS_FILE);

  00ac4	68 00 00 00 00	 push	 OFFSET ??_C@_0CE@BMBMBCJB@?4?2Customs?2Commands?2Hgt_Commands?4@
  00ac9	6a 00		 push	 0
  00acb	68 00 00 00 00	 push	 OFFSET ??_C@_0CD@IPDDFCNG@Command_Money_NeedMasterResetsFr@
  00ad0	68 00 00 00 00	 push	 OFFSET ??_C@_08JNEOMACB@Commands?$AA@
  00ad5	89 86 d0 07 00
	00		 mov	 DWORD PTR [esi+2000], eax
  00adb	ff d7		 call	 edi

; 136  : 	this->m_Data[COMMAND_ZEN].iMResets[1]			= GetPrivateProfileInt("Commands", "Command_Money_NeedMasterResetsVip1", NULL, COMMANDS_FILE);

  00add	68 00 00 00 00	 push	 OFFSET ??_C@_0CE@BMBMBCJB@?4?2Customs?2Commands?2Hgt_Commands?4@
  00ae2	6a 00		 push	 0
  00ae4	68 00 00 00 00	 push	 OFFSET ??_C@_0CD@KMPBOMAB@Command_Money_NeedMasterResetsVi@
  00ae9	68 00 00 00 00	 push	 OFFSET ??_C@_08JNEOMACB@Commands?$AA@
  00aee	89 86 d4 07 00
	00		 mov	 DWORD PTR [esi+2004], eax
  00af4	ff d7		 call	 edi

; 137  : 	this->m_Data[COMMAND_ZEN].iMResets[2]			= GetPrivateProfileInt("Commands", "Command_Money_NeedMasterResetsVip2", NULL, COMMANDS_FILE);

  00af6	68 00 00 00 00	 push	 OFFSET ??_C@_0CE@BMBMBCJB@?4?2Customs?2Commands?2Hgt_Commands?4@
  00afb	6a 00		 push	 0
  00afd	68 00 00 00 00	 push	 OFFSET ??_C@_0CD@IHNMLPMC@Command_Money_NeedMasterResetsVi@
  00b02	68 00 00 00 00	 push	 OFFSET ??_C@_08JNEOMACB@Commands?$AA@
  00b07	89 86 d8 07 00
	00		 mov	 DWORD PTR [esi+2008], eax
  00b0d	ff d7		 call	 edi

; 138  : 	this->m_Data[COMMAND_ZEN].iMResets[3]			= GetPrivateProfileInt("Commands", "Command_Money_NeedMasterResetsVip3", NULL, COMMANDS_FILE);

  00b0f	68 00 00 00 00	 push	 OFFSET ??_C@_0CE@BMBMBCJB@?4?2Customs?2Commands?2Hgt_Commands?4@
  00b14	6a 00		 push	 0
  00b16	68 00 00 00 00	 push	 OFFSET ??_C@_0CD@JOMHIOID@Command_Money_NeedMasterResetsVi@
  00b1b	68 00 00 00 00	 push	 OFFSET ??_C@_08JNEOMACB@Commands?$AA@
  00b20	89 86 dc 07 00
	00		 mov	 DWORD PTR [esi+2012], eax
  00b26	ff d7		 call	 edi

; 139  : 	// ---
; 140  : 	GetPrivateProfileString("Commands", "Command_AddPoints_SintaxStr", NULL, this->m_Data[COMMAND_ADD].szSintaxAdd[0], sizeof(this->m_Data[COMMAND_ADD].szSintaxAdd[0]), COMMANDS_FILE);

  00b28	68 00 00 00 00	 push	 OFFSET ??_C@_0CE@BMBMBCJB@?4?2Customs?2Commands?2Hgt_Commands?4@
  00b2d	6a 14		 push	 20			; 00000014H
  00b2f	8d 8e 04 0a 00
	00		 lea	 ecx, DWORD PTR [esi+2564]
  00b35	51		 push	 ecx
  00b36	6a 00		 push	 0
  00b38	68 00 00 00 00	 push	 OFFSET ??_C@_0BM@HKCGOFJE@Command_AddPoints_SintaxStr?$AA@
  00b3d	68 00 00 00 00	 push	 OFFSET ??_C@_08JNEOMACB@Commands?$AA@
  00b42	89 86 e0 07 00
	00		 mov	 DWORD PTR [esi+2016], eax
  00b48	ff d3		 call	 ebx

; 141  : 	GetPrivateProfileString("Commands", "Command_AddPoints_SintaxAgi", NULL, this->m_Data[COMMAND_ADD].szSintaxAdd[1], sizeof(this->m_Data[COMMAND_ADD].szSintaxAdd[1]), COMMANDS_FILE);

  00b4a	68 00 00 00 00	 push	 OFFSET ??_C@_0CE@BMBMBCJB@?4?2Customs?2Commands?2Hgt_Commands?4@
  00b4f	6a 14		 push	 20			; 00000014H
  00b51	8d 96 18 0a 00
	00		 lea	 edx, DWORD PTR [esi+2584]
  00b57	52		 push	 edx
  00b58	6a 00		 push	 0
  00b5a	68 00 00 00 00	 push	 OFFSET ??_C@_0BM@DHGAKMDD@Command_AddPoints_SintaxAgi?$AA@
  00b5f	68 00 00 00 00	 push	 OFFSET ??_C@_08JNEOMACB@Commands?$AA@
  00b64	ff d3		 call	 ebx

; 142  : 	GetPrivateProfileString("Commands", "Command_AddPoints_SiyntaxVit", NULL, this->m_Data[COMMAND_ADD].szSintaxAdd[2], sizeof(this->m_Data[COMMAND_ADD].szSintaxAdd[2]), COMMANDS_FILE);

  00b66	68 00 00 00 00	 push	 OFFSET ??_C@_0CE@BMBMBCJB@?4?2Customs?2Commands?2Hgt_Commands?4@
  00b6b	6a 14		 push	 20			; 00000014H
  00b6d	8d 86 2c 0a 00
	00		 lea	 eax, DWORD PTR [esi+2604]
  00b73	50		 push	 eax
  00b74	6a 00		 push	 0
  00b76	68 00 00 00 00	 push	 OFFSET ??_C@_0BN@CEPHBKBK@Command_AddPoints_SiyntaxVit?$AA@
  00b7b	68 00 00 00 00	 push	 OFFSET ??_C@_08JNEOMACB@Commands?$AA@
  00b80	ff d3		 call	 ebx

; 143  : 	GetPrivateProfileString("Commands", "Command_AddPoints_SintaxEne", NULL, this->m_Data[COMMAND_ADD].szSintaxAdd[3], sizeof(this->m_Data[COMMAND_ADD].szSintaxAdd[3]), COMMANDS_FILE);

  00b82	68 00 00 00 00	 push	 OFFSET ??_C@_0CE@BMBMBCJB@?4?2Customs?2Commands?2Hgt_Commands?4@
  00b87	6a 14		 push	 20			; 00000014H
  00b89	8d 8e 40 0a 00
	00		 lea	 ecx, DWORD PTR [esi+2624]
  00b8f	51		 push	 ecx
  00b90	6a 00		 push	 0
  00b92	68 00 00 00 00	 push	 OFFSET ??_C@_0BM@BLGGEPOH@Command_AddPoints_SintaxEne?$AA@
  00b97	68 00 00 00 00	 push	 OFFSET ??_C@_08JNEOMACB@Commands?$AA@
  00b9c	ff d3		 call	 ebx

; 144  : 	GetPrivateProfileString("Commands", "Command_AddPoints_SintaxCmd", NULL, this->m_Data[COMMAND_ADD].szSintaxAdd[4], sizeof(this->m_Data[COMMAND_ADD].szSintaxAdd[4]), COMMANDS_FILE);

  00b9e	68 00 00 00 00	 push	 OFFSET ??_C@_0CE@BMBMBCJB@?4?2Customs?2Commands?2Hgt_Commands?4@
  00ba3	6a 14		 push	 20			; 00000014H
  00ba5	8d 96 54 0a 00
	00		 lea	 edx, DWORD PTR [esi+2644]
  00bab	52		 push	 edx
  00bac	6a 00		 push	 0
  00bae	68 00 00 00 00	 push	 OFFSET ??_C@_0BM@CFFAJPCD@Command_AddPoints_SintaxCmd?$AA@
  00bb3	68 00 00 00 00	 push	 OFFSET ??_C@_08JNEOMACB@Commands?$AA@
  00bb8	ff d3		 call	 ebx

; 145  : 	// ---
; 146  : 	this->m_Data[COMMAND_ADD].iEnabled          = GetPrivateProfileInt("Commands", "Command_AddPoints_Enabled", NULL, COMMANDS_FILE);

  00bba	68 00 00 00 00	 push	 OFFSET ??_C@_0CE@BMBMBCJB@?4?2Customs?2Commands?2Hgt_Commands?4@
  00bbf	6a 00		 push	 0
  00bc1	68 00 00 00 00	 push	 OFFSET ??_C@_0BK@JGFCPOGJ@Command_AddPoints_Enabled?$AA@
  00bc6	68 00 00 00 00	 push	 OFFSET ??_C@_08JNEOMACB@Commands?$AA@
  00bcb	ff d7		 call	 edi

; 147  : 	this->m_Data[COMMAND_ADD].iVipOnly[0]       = GetPrivateProfileInt("Commands", "Command_AddPoints_SwitchFree", NULL, COMMANDS_FILE);

  00bcd	68 00 00 00 00	 push	 OFFSET ??_C@_0CE@BMBMBCJB@?4?2Customs?2Commands?2Hgt_Commands?4@
  00bd2	6a 00		 push	 0
  00bd4	85 c0		 test	 eax, eax
  00bd6	68 00 00 00 00	 push	 OFFSET ??_C@_0BN@LCNPNDKB@Command_AddPoints_SwitchFree?$AA@
  00bdb	0f 95 c0	 setne	 al
  00bde	68 00 00 00 00	 push	 OFFSET ??_C@_08JNEOMACB@Commands?$AA@
  00be3	88 86 74 09 00
	00		 mov	 BYTE PTR [esi+2420], al
  00be9	ff d7		 call	 edi

; 148  : 	this->m_Data[COMMAND_ADD].iVipOnly[1]       = GetPrivateProfileInt("Commands", "Command_AddPoints_SwitchVip1", NULL, COMMANDS_FILE);

  00beb	68 00 00 00 00	 push	 OFFSET ??_C@_0CE@BMBMBCJB@?4?2Customs?2Commands?2Hgt_Commands?4@
  00bf0	6a 00		 push	 0
  00bf2	68 00 00 00 00	 push	 OFFSET ??_C@_0BN@JBBNGNHG@Command_AddPoints_SwitchVip1?$AA@
  00bf7	68 00 00 00 00	 push	 OFFSET ??_C@_08JNEOMACB@Commands?$AA@
  00bfc	89 86 78 09 00
	00		 mov	 DWORD PTR [esi+2424], eax
  00c02	ff d7		 call	 edi

; 149  : 	this->m_Data[COMMAND_ADD].iVipOnly[2]       = GetPrivateProfileInt("Commands", "Command_AddPoints_SwitchVip2", NULL, COMMANDS_FILE);

  00c04	68 00 00 00 00	 push	 OFFSET ??_C@_0CE@BMBMBCJB@?4?2Customs?2Commands?2Hgt_Commands?4@
  00c09	6a 00		 push	 0
  00c0b	68 00 00 00 00	 push	 OFFSET ??_C@_0BN@LKDADOLF@Command_AddPoints_SwitchVip2?$AA@
  00c10	68 00 00 00 00	 push	 OFFSET ??_C@_08JNEOMACB@Commands?$AA@
  00c15	89 86 7c 09 00
	00		 mov	 DWORD PTR [esi+2428], eax
  00c1b	ff d7		 call	 edi

; 150  : 	this->m_Data[COMMAND_ADD].iVipOnly[3]       = GetPrivateProfileInt("Commands", "Command_AddPoints_SwitchVip3", NULL, COMMANDS_FILE);

  00c1d	68 00 00 00 00	 push	 OFFSET ??_C@_0CE@BMBMBCJB@?4?2Customs?2Commands?2Hgt_Commands?4@
  00c22	6a 00		 push	 0
  00c24	68 00 00 00 00	 push	 OFFSET ??_C@_0BN@KDCLAPPE@Command_AddPoints_SwitchVip3?$AA@
  00c29	68 00 00 00 00	 push	 OFFSET ??_C@_08JNEOMACB@Commands?$AA@
  00c2e	89 86 80 09 00
	00		 mov	 DWORD PTR [esi+2432], eax
  00c34	ff d7		 call	 edi

; 151  : 	this->m_Data[COMMAND_ADD].iLevel[0]         = GetPrivateProfileInt("Commands", "Command_AddPoints_NeedLevelFree", NULL, COMMANDS_FILE);

  00c36	68 00 00 00 00	 push	 OFFSET ??_C@_0CE@BMBMBCJB@?4?2Customs?2Commands?2Hgt_Commands?4@
  00c3b	6a 00		 push	 0
  00c3d	68 00 00 00 00	 push	 OFFSET ??_C@_0CA@JEEPAMIF@Command_AddPoints_NeedLevelFree?$AA@
  00c42	68 00 00 00 00	 push	 OFFSET ??_C@_08JNEOMACB@Commands?$AA@
  00c47	89 86 84 09 00
	00		 mov	 DWORD PTR [esi+2436], eax
  00c4d	ff d7		 call	 edi

; 152  : 	this->m_Data[COMMAND_ADD].iLevel[1]         = GetPrivateProfileInt("Commands", "Command_AddPoints_NeedLevelVip1", NULL, COMMANDS_FILE);

  00c4f	68 00 00 00 00	 push	 OFFSET ??_C@_0CE@BMBMBCJB@?4?2Customs?2Commands?2Hgt_Commands?4@
  00c54	6a 00		 push	 0
  00c56	68 00 00 00 00	 push	 OFFSET ??_C@_0CA@LHINLCFC@Command_AddPoints_NeedLevelVip1?$AA@
  00c5b	68 00 00 00 00	 push	 OFFSET ??_C@_08JNEOMACB@Commands?$AA@
  00c60	89 86 88 09 00
	00		 mov	 DWORD PTR [esi+2440], eax
  00c66	ff d7		 call	 edi

; 153  : 	this->m_Data[COMMAND_ADD].iLevel[2]         = GetPrivateProfileInt("Commands", "Command_AddPoints_NeedLevelVip2", NULL, COMMANDS_FILE);

  00c68	68 00 00 00 00	 push	 OFFSET ??_C@_0CE@BMBMBCJB@?4?2Customs?2Commands?2Hgt_Commands?4@
  00c6d	6a 00		 push	 0
  00c6f	68 00 00 00 00	 push	 OFFSET ??_C@_0CA@JMKAOBJB@Command_AddPoints_NeedLevelVip2?$AA@
  00c74	68 00 00 00 00	 push	 OFFSET ??_C@_08JNEOMACB@Commands?$AA@
  00c79	89 86 8c 09 00
	00		 mov	 DWORD PTR [esi+2444], eax
  00c7f	ff d7		 call	 edi

; 154  : 	this->m_Data[COMMAND_ADD].iLevel[3]         = GetPrivateProfileInt("Commands", "Command_AddPoints_NeedLevelVip3", NULL, COMMANDS_FILE);

  00c81	68 00 00 00 00	 push	 OFFSET ??_C@_0CE@BMBMBCJB@?4?2Customs?2Commands?2Hgt_Commands?4@
  00c86	6a 00		 push	 0
  00c88	68 00 00 00 00	 push	 OFFSET ??_C@_0CA@IFLLNANA@Command_AddPoints_NeedLevelVip3?$AA@
  00c8d	89 86 90 09 00
	00		 mov	 DWORD PTR [esi+2448], eax
  00c93	68 00 00 00 00	 push	 OFFSET ??_C@_08JNEOMACB@Commands?$AA@
  00c98	ff d7		 call	 edi

; 155  : 	this->m_Data[COMMAND_ADD].iMoney[0]         = GetPrivateProfileInt("Commands", "Command_AddPoints_NeedMoneyFree", NULL, COMMANDS_FILE);

  00c9a	68 00 00 00 00	 push	 OFFSET ??_C@_0CE@BMBMBCJB@?4?2Customs?2Commands?2Hgt_Commands?4@
  00c9f	6a 00		 push	 0
  00ca1	68 00 00 00 00	 push	 OFFSET ??_C@_0CA@BCOGFEJD@Command_AddPoints_NeedMoneyFree?$AA@
  00ca6	68 00 00 00 00	 push	 OFFSET ??_C@_08JNEOMACB@Commands?$AA@
  00cab	89 86 94 09 00
	00		 mov	 DWORD PTR [esi+2452], eax
  00cb1	ff d7		 call	 edi

; 156  : 	this->m_Data[COMMAND_ADD].iMoney[1]         = GetPrivateProfileInt("Commands", "Command_AddPoints_NeedMoneyVip1", NULL, COMMANDS_FILE);

  00cb3	68 00 00 00 00	 push	 OFFSET ??_C@_0CE@BMBMBCJB@?4?2Customs?2Commands?2Hgt_Commands?4@
  00cb8	6a 00		 push	 0
  00cba	68 00 00 00 00	 push	 OFFSET ??_C@_0CA@DBCEOKEE@Command_AddPoints_NeedMoneyVip1?$AA@
  00cbf	68 00 00 00 00	 push	 OFFSET ??_C@_08JNEOMACB@Commands?$AA@
  00cc4	89 86 98 09 00
	00		 mov	 DWORD PTR [esi+2456], eax
  00cca	ff d7		 call	 edi

; 157  : 	this->m_Data[COMMAND_ADD].iMoney[2]         = GetPrivateProfileInt("Commands", "Command_AddPoints_NeedMoneyVip2", NULL, COMMANDS_FILE);

  00ccc	68 00 00 00 00	 push	 OFFSET ??_C@_0CE@BMBMBCJB@?4?2Customs?2Commands?2Hgt_Commands?4@
  00cd1	6a 00		 push	 0
  00cd3	68 00 00 00 00	 push	 OFFSET ??_C@_0CA@BKAJLJIH@Command_AddPoints_NeedMoneyVip2?$AA@
  00cd8	68 00 00 00 00	 push	 OFFSET ??_C@_08JNEOMACB@Commands?$AA@
  00cdd	89 86 9c 09 00
	00		 mov	 DWORD PTR [esi+2460], eax
  00ce3	ff d7		 call	 edi

; 158  : 	this->m_Data[COMMAND_ADD].iMoney[3]         = GetPrivateProfileInt("Commands", "Command_AddPoints_NeedMoneyVip3", NULL, COMMANDS_FILE);

  00ce5	68 00 00 00 00	 push	 OFFSET ??_C@_0CE@BMBMBCJB@?4?2Customs?2Commands?2Hgt_Commands?4@
  00cea	6a 00		 push	 0
  00cec	68 00 00 00 00	 push	 OFFSET ??_C@_0CA@DBCIIMG@Command_AddPoints_NeedMoneyVip3?$AA@
  00cf1	68 00 00 00 00	 push	 OFFSET ??_C@_08JNEOMACB@Commands?$AA@
  00cf6	89 86 a0 09 00
	00		 mov	 DWORD PTR [esi+2464], eax
  00cfc	ff d7		 call	 edi

; 159  : 	this->m_Data[COMMAND_ADD].iResets[0]		= GetPrivateProfileInt("Commands", "Command_AddPoints_NeedResetsFree", NULL, COMMANDS_FILE);

  00cfe	68 00 00 00 00	 push	 OFFSET ??_C@_0CE@BMBMBCJB@?4?2Customs?2Commands?2Hgt_Commands?4@
  00d03	6a 00		 push	 0
  00d05	68 00 00 00 00	 push	 OFFSET ??_C@_0CB@KKDCDIBE@Command_AddPoints_NeedResetsFree@
  00d0a	68 00 00 00 00	 push	 OFFSET ??_C@_08JNEOMACB@Commands?$AA@
  00d0f	89 86 a4 09 00
	00		 mov	 DWORD PTR [esi+2468], eax
  00d15	ff d7		 call	 edi

; 160  : 	this->m_Data[COMMAND_ADD].iResets[1]		= GetPrivateProfileInt("Commands", "Command_AddPoints_NeedResetsVip1", NULL, COMMANDS_FILE);

  00d17	68 00 00 00 00	 push	 OFFSET ??_C@_0CE@BMBMBCJB@?4?2Customs?2Commands?2Hgt_Commands?4@
  00d1c	6a 00		 push	 0
  00d1e	68 00 00 00 00	 push	 OFFSET ??_C@_0CB@IJPAIGMD@Command_AddPoints_NeedResetsVip1@
  00d23	68 00 00 00 00	 push	 OFFSET ??_C@_08JNEOMACB@Commands?$AA@
  00d28	89 86 a8 09 00
	00		 mov	 DWORD PTR [esi+2472], eax
  00d2e	ff d7		 call	 edi

; 161  : 	this->m_Data[COMMAND_ADD].iResets[2]		= GetPrivateProfileInt("Commands", "Command_AddPoints_NeedResetsVip2", NULL, COMMANDS_FILE);

  00d30	68 00 00 00 00	 push	 OFFSET ??_C@_0CE@BMBMBCJB@?4?2Customs?2Commands?2Hgt_Commands?4@
  00d35	6a 00		 push	 0
  00d37	68 00 00 00 00	 push	 OFFSET ??_C@_0CB@KCNNNFAA@Command_AddPoints_NeedResetsVip2@
  00d3c	68 00 00 00 00	 push	 OFFSET ??_C@_08JNEOMACB@Commands?$AA@
  00d41	89 86 ac 09 00
	00		 mov	 DWORD PTR [esi+2476], eax
  00d47	ff d7		 call	 edi

; 162  : 	this->m_Data[COMMAND_ADD].iResets[3]		= GetPrivateProfileInt("Commands", "Command_AddPoints_NeedResetsVip3", NULL, COMMANDS_FILE);

  00d49	68 00 00 00 00	 push	 OFFSET ??_C@_0CE@BMBMBCJB@?4?2Customs?2Commands?2Hgt_Commands?4@
  00d4e	6a 00		 push	 0
  00d50	68 00 00 00 00	 push	 OFFSET ??_C@_0CB@LLMGOEEB@Command_AddPoints_NeedResetsVip3@
  00d55	68 00 00 00 00	 push	 OFFSET ??_C@_08JNEOMACB@Commands?$AA@
  00d5a	89 86 b0 09 00
	00		 mov	 DWORD PTR [esi+2480], eax
  00d60	ff d7		 call	 edi

; 163  : 	this->m_Data[COMMAND_ADD].iMResets[0]		= GetPrivateProfileInt("Commands", "Command_AddPoints_NeedMasterResetsFree", NULL, COMMANDS_FILE);

  00d62	68 00 00 00 00	 push	 OFFSET ??_C@_0CE@BMBMBCJB@?4?2Customs?2Commands?2Hgt_Commands?4@
  00d67	6a 00		 push	 0
  00d69	68 00 00 00 00	 push	 OFFSET ??_C@_0CH@FKLFJNPA@Command_AddPoints_NeedMasterRese@
  00d6e	68 00 00 00 00	 push	 OFFSET ??_C@_08JNEOMACB@Commands?$AA@
  00d73	89 86 b4 09 00
	00		 mov	 DWORD PTR [esi+2484], eax
  00d79	ff d7		 call	 edi

; 164  : 	this->m_Data[COMMAND_ADD].iMResets[1]		= GetPrivateProfileInt("Commands", "Command_AddPoints_NeedMasterResetsVip1", NULL, COMMANDS_FILE);

  00d7b	68 00 00 00 00	 push	 OFFSET ??_C@_0CE@BMBMBCJB@?4?2Customs?2Commands?2Hgt_Commands?4@
  00d80	6a 00		 push	 0
  00d82	68 00 00 00 00	 push	 OFFSET ??_C@_0CH@HJHHCDCH@Command_AddPoints_NeedMasterRese@
  00d87	68 00 00 00 00	 push	 OFFSET ??_C@_08JNEOMACB@Commands?$AA@
  00d8c	89 86 b8 09 00
	00		 mov	 DWORD PTR [esi+2488], eax
  00d92	ff d7		 call	 edi

; 165  : 	this->m_Data[COMMAND_ADD].iMResets[2]		= GetPrivateProfileInt("Commands", "Command_AddPoints_NeedMasterResetsVip2", NULL, COMMANDS_FILE);

  00d94	68 00 00 00 00	 push	 OFFSET ??_C@_0CE@BMBMBCJB@?4?2Customs?2Commands?2Hgt_Commands?4@
  00d99	6a 00		 push	 0
  00d9b	68 00 00 00 00	 push	 OFFSET ??_C@_0CH@FCFKHAOE@Command_AddPoints_NeedMasterRese@
  00da0	68 00 00 00 00	 push	 OFFSET ??_C@_08JNEOMACB@Commands?$AA@
  00da5	89 86 bc 09 00
	00		 mov	 DWORD PTR [esi+2492], eax
  00dab	ff d7		 call	 edi

; 166  : 	this->m_Data[COMMAND_ADD].iMResets[3]		= GetPrivateProfileInt("Commands", "Command_AddPoints_NeedMasterResetsVip3", NULL, COMMANDS_FILE);

  00dad	68 00 00 00 00	 push	 OFFSET ??_C@_0CE@BMBMBCJB@?4?2Customs?2Commands?2Hgt_Commands?4@
  00db2	6a 00		 push	 0
  00db4	68 00 00 00 00	 push	 OFFSET ??_C@_0CH@ELEBEBKF@Command_AddPoints_NeedMasterRese@
  00db9	68 00 00 00 00	 push	 OFFSET ??_C@_08JNEOMACB@Commands?$AA@
  00dbe	89 86 c0 09 00
	00		 mov	 DWORD PTR [esi+2496], eax
  00dc4	ff d7		 call	 edi

; 167  : 	// ---
; 168  : 	GetPrivateProfileString("Commands", "Command_ReAddPoints_Sintax", NULL, this->m_Data[COMMAND_READD].szSintax, sizeof(this->m_Data[COMMAND_READD].szSintax), COMMANDS_FILE);

  00dc6	68 00 00 00 00	 push	 OFFSET ??_C@_0CE@BMBMBCJB@?4?2Customs?2Commands?2Hgt_Commands?4@
  00dcb	6a 14		 push	 20			; 00000014H
  00dcd	8d 8e b0 0b 00
	00		 lea	 ecx, DWORD PTR [esi+2992]
  00dd3	51		 push	 ecx
  00dd4	6a 00		 push	 0
  00dd6	68 00 00 00 00	 push	 OFFSET ??_C@_0BL@OACPPCKI@Command_ReAddPoints_Sintax?$AA@
  00ddb	89 86 c4 09 00
	00		 mov	 DWORD PTR [esi+2500], eax
  00de1	68 00 00 00 00	 push	 OFFSET ??_C@_08JNEOMACB@Commands?$AA@
  00de6	ff d3		 call	 ebx

; 169  : 	// ---
; 170  : 	this->m_Data[COMMAND_READD].iEnabled        = GetPrivateProfileInt("Commands", "Command_ReAddPoints_Enabled", NULL, COMMANDS_FILE);

  00de8	68 00 00 00 00	 push	 OFFSET ??_C@_0CE@BMBMBCJB@?4?2Customs?2Commands?2Hgt_Commands?4@
  00ded	6a 00		 push	 0
  00def	68 00 00 00 00	 push	 OFFSET ??_C@_0BM@FOGNJEKA@Command_ReAddPoints_Enabled?$AA@
  00df4	68 00 00 00 00	 push	 OFFSET ??_C@_08JNEOMACB@Commands?$AA@
  00df9	ff d7		 call	 edi

; 171  : 	this->m_Data[COMMAND_READD].iVipOnly[0]     = GetPrivateProfileInt("Commands", "Command_ReAddPoints_SwitchFree", NULL, COMMANDS_FILE);

  00dfb	68 00 00 00 00	 push	 OFFSET ??_C@_0CE@BMBMBCJB@?4?2Customs?2Commands?2Hgt_Commands?4@
  00e00	6a 00		 push	 0
  00e02	85 c0		 test	 eax, eax
  00e04	68 00 00 00 00	 push	 OFFSET ??_C@_0BP@FNFNALG@Command_ReAddPoints_SwitchFree?$AA@
  00e09	0f 95 c2	 setne	 dl
  00e0c	68 00 00 00 00	 push	 OFFSET ??_C@_08JNEOMACB@Commands?$AA@
  00e11	88 96 58 0b 00
	00		 mov	 BYTE PTR [esi+2904], dl
  00e17	ff d7		 call	 edi

; 172  : 	this->m_Data[COMMAND_READD].iVipOnly[1]     = GetPrivateProfileInt("Commands", "Command_ReAddPoints_SwitchVip1", NULL, COMMANDS_FILE);

  00e19	68 00 00 00 00	 push	 OFFSET ??_C@_0CE@BMBMBCJB@?4?2Customs?2Commands?2Hgt_Commands?4@
  00e1e	6a 00		 push	 0
  00e20	68 00 00 00 00	 push	 OFFSET ??_C@_0BP@CGBHGOGB@Command_ReAddPoints_SwitchVip1?$AA@
  00e25	68 00 00 00 00	 push	 OFFSET ??_C@_08JNEOMACB@Commands?$AA@
  00e2a	89 86 5c 0b 00
	00		 mov	 DWORD PTR [esi+2908], eax
  00e30	ff d7		 call	 edi

; 173  : 	this->m_Data[COMMAND_READD].iVipOnly[2]     = GetPrivateProfileInt("Commands", "Command_ReAddPoints_SwitchVip2", NULL, COMMANDS_FILE);

  00e32	68 00 00 00 00	 push	 OFFSET ??_C@_0CE@BMBMBCJB@?4?2Customs?2Commands?2Hgt_Commands?4@
  00e37	6a 00		 push	 0
  00e39	68 00 00 00 00	 push	 OFFSET ??_C@_0BP@NDKDNKC@Command_ReAddPoints_SwitchVip2?$AA@
  00e3e	68 00 00 00 00	 push	 OFFSET ??_C@_08JNEOMACB@Commands?$AA@
  00e43	89 86 60 0b 00
	00		 mov	 DWORD PTR [esi+2912], eax
  00e49	ff d7		 call	 edi

; 174  : 	this->m_Data[COMMAND_READD].iVipOnly[3]     = GetPrivateProfileInt("Commands", "Command_ReAddPoints_SwitchVip3", NULL, COMMANDS_FILE);

  00e4b	68 00 00 00 00	 push	 OFFSET ??_C@_0CE@BMBMBCJB@?4?2Customs?2Commands?2Hgt_Commands?4@
  00e50	6a 00		 push	 0
  00e52	68 00 00 00 00	 push	 OFFSET ??_C@_0BP@BECBAMOD@Command_ReAddPoints_SwitchVip3?$AA@
  00e57	68 00 00 00 00	 push	 OFFSET ??_C@_08JNEOMACB@Commands?$AA@
  00e5c	89 86 64 0b 00
	00		 mov	 DWORD PTR [esi+2916], eax
  00e62	ff d7		 call	 edi

; 175  : 	this->m_Data[COMMAND_READD].iLevel[0]       = GetPrivateProfileInt("Commands", "Command_ReAddPoints_NeedLevelFree", NULL, COMMANDS_FILE);

  00e64	68 00 00 00 00	 push	 OFFSET ??_C@_0CE@BMBMBCJB@?4?2Customs?2Commands?2Hgt_Commands?4@
  00e69	6a 00		 push	 0
  00e6b	68 00 00 00 00	 push	 OFFSET ??_C@_0CC@EGNOADBK@Command_ReAddPoints_NeedLevelFre@
  00e70	68 00 00 00 00	 push	 OFFSET ??_C@_08JNEOMACB@Commands?$AA@
  00e75	89 86 68 0b 00
	00		 mov	 DWORD PTR [esi+2920], eax
  00e7b	ff d7		 call	 edi

; 176  : 	this->m_Data[COMMAND_READD].iLevel[1]       = GetPrivateProfileInt("Commands", "Command_ReAddPoints_NeedLevelVip1", NULL, COMMANDS_FILE);

  00e7d	68 00 00 00 00	 push	 OFFSET ??_C@_0CE@BMBMBCJB@?4?2Customs?2Commands?2Hgt_Commands?4@
  00e82	6a 00		 push	 0
  00e84	68 00 00 00 00	 push	 OFFSET ??_C@_0CC@GFBMLNMN@Command_ReAddPoints_NeedLevelVip@
  00e89	68 00 00 00 00	 push	 OFFSET ??_C@_08JNEOMACB@Commands?$AA@
  00e8e	89 86 6c 0b 00
	00		 mov	 DWORD PTR [esi+2924], eax
  00e94	ff d7		 call	 edi

; 177  : 	this->m_Data[COMMAND_READD].iLevel[2]       = GetPrivateProfileInt("Commands", "Command_ReAddPoints_NeedLevelVip2", NULL, COMMANDS_FILE);

  00e96	68 00 00 00 00	 push	 OFFSET ??_C@_0CE@BMBMBCJB@?4?2Customs?2Commands?2Hgt_Commands?4@
  00e9b	6a 00		 push	 0
  00e9d	68 00 00 00 00	 push	 OFFSET ??_C@_0CC@EODBOOAO@Command_ReAddPoints_NeedLevelVip@
  00ea2	68 00 00 00 00	 push	 OFFSET ??_C@_08JNEOMACB@Commands?$AA@
  00ea7	89 86 70 0b 00
	00		 mov	 DWORD PTR [esi+2928], eax
  00ead	ff d7		 call	 edi

; 178  : 	this->m_Data[COMMAND_READD].iLevel[3]       = GetPrivateProfileInt("Commands", "Command_ReAddPoints_NeedLevelVip3", NULL, COMMANDS_FILE);

  00eaf	68 00 00 00 00	 push	 OFFSET ??_C@_0CE@BMBMBCJB@?4?2Customs?2Commands?2Hgt_Commands?4@
  00eb4	6a 00		 push	 0
  00eb6	68 00 00 00 00	 push	 OFFSET ??_C@_0CC@FHCKNPEP@Command_ReAddPoints_NeedLevelVip@
  00ebb	68 00 00 00 00	 push	 OFFSET ??_C@_08JNEOMACB@Commands?$AA@
  00ec0	89 86 74 0b 00
	00		 mov	 DWORD PTR [esi+2932], eax
  00ec6	ff d7		 call	 edi

; 179  : 	this->m_Data[COMMAND_READD].iMoney[0]       = GetPrivateProfileInt("Commands", "Command_ReAddPoints_NeedMoneyFree", NULL, COMMANDS_FILE);

  00ec8	68 00 00 00 00	 push	 OFFSET ??_C@_0CE@BMBMBCJB@?4?2Customs?2Commands?2Hgt_Commands?4@
  00ecd	6a 00		 push	 0
  00ecf	68 00 00 00 00	 push	 OFFSET ??_C@_0CC@MAHHFLAM@Command_ReAddPoints_NeedMoneyFre@
  00ed4	68 00 00 00 00	 push	 OFFSET ??_C@_08JNEOMACB@Commands?$AA@
  00ed9	89 86 78 0b 00
	00		 mov	 DWORD PTR [esi+2936], eax
  00edf	ff d7		 call	 edi

; 180  : 	this->m_Data[COMMAND_READD].iMoney[1]       = GetPrivateProfileInt("Commands", "Command_ReAddPoints_NeedMoneyVip1", NULL, COMMANDS_FILE);

  00ee1	68 00 00 00 00	 push	 OFFSET ??_C@_0CE@BMBMBCJB@?4?2Customs?2Commands?2Hgt_Commands?4@
  00ee6	6a 00		 push	 0
  00ee8	68 00 00 00 00	 push	 OFFSET ??_C@_0CC@ODLFOFNL@Command_ReAddPoints_NeedMoneyVip@
  00eed	68 00 00 00 00	 push	 OFFSET ??_C@_08JNEOMACB@Commands?$AA@
  00ef2	89 86 7c 0b 00
	00		 mov	 DWORD PTR [esi+2940], eax
  00ef8	ff d7		 call	 edi

; 181  : 	this->m_Data[COMMAND_READD].iMoney[2]       = GetPrivateProfileInt("Commands", "Command_ReAddPoints_NeedMoneyVip2", NULL, COMMANDS_FILE);

  00efa	68 00 00 00 00	 push	 OFFSET ??_C@_0CE@BMBMBCJB@?4?2Customs?2Commands?2Hgt_Commands?4@
  00eff	6a 00		 push	 0
  00f01	68 00 00 00 00	 push	 OFFSET ??_C@_0CC@MIJILGBI@Command_ReAddPoints_NeedMoneyVip@
  00f06	68 00 00 00 00	 push	 OFFSET ??_C@_08JNEOMACB@Commands?$AA@
  00f0b	89 86 80 0b 00
	00		 mov	 DWORD PTR [esi+2944], eax
  00f11	ff d7		 call	 edi

; 182  : 	this->m_Data[COMMAND_READD].iMoney[3]       = GetPrivateProfileInt("Commands", "Command_ReAddPoints_NeedMoneyVip3", NULL, COMMANDS_FILE);

  00f13	68 00 00 00 00	 push	 OFFSET ??_C@_0CE@BMBMBCJB@?4?2Customs?2Commands?2Hgt_Commands?4@
  00f18	6a 00		 push	 0
  00f1a	68 00 00 00 00	 push	 OFFSET ??_C@_0CC@NBIDIHFJ@Command_ReAddPoints_NeedMoneyVip@
  00f1f	68 00 00 00 00	 push	 OFFSET ??_C@_08JNEOMACB@Commands?$AA@
  00f24	89 86 84 0b 00
	00		 mov	 DWORD PTR [esi+2948], eax
  00f2a	ff d7		 call	 edi
  00f2c	89 86 88 0b 00
	00		 mov	 DWORD PTR [esi+2952], eax

; 183  : 	this->m_Data[COMMAND_READD].iResets[0]		= GetPrivateProfileInt("Commands", "Command_ReAddPoints_NeedResetsFree", NULL, COMMANDS_FILE);

  00f32	68 00 00 00 00	 push	 OFFSET ??_C@_0CE@BMBMBCJB@?4?2Customs?2Commands?2Hgt_Commands?4@
  00f37	6a 00		 push	 0
  00f39	68 00 00 00 00	 push	 OFFSET ??_C@_0CD@MKFACHMO@Command_ReAddPoints_NeedResetsFr@
  00f3e	68 00 00 00 00	 push	 OFFSET ??_C@_08JNEOMACB@Commands?$AA@
  00f43	ff d7		 call	 edi

; 184  : 	this->m_Data[COMMAND_READD].iResets[1]		= GetPrivateProfileInt("Commands", "Command_ReAddPoints_NeedResetsVip1", NULL, COMMANDS_FILE);

  00f45	68 00 00 00 00	 push	 OFFSET ??_C@_0CE@BMBMBCJB@?4?2Customs?2Commands?2Hgt_Commands?4@
  00f4a	6a 00		 push	 0
  00f4c	68 00 00 00 00	 push	 OFFSET ??_C@_0CD@OJJCJJBJ@Command_ReAddPoints_NeedResetsVi@
  00f51	68 00 00 00 00	 push	 OFFSET ??_C@_08JNEOMACB@Commands?$AA@
  00f56	89 86 8c 0b 00
	00		 mov	 DWORD PTR [esi+2956], eax
  00f5c	ff d7		 call	 edi

; 185  : 	this->m_Data[COMMAND_READD].iResets[2]		= GetPrivateProfileInt("Commands", "Command_ReAddPoints_NeedResetsVip2", NULL, COMMANDS_FILE);

  00f5e	68 00 00 00 00	 push	 OFFSET ??_C@_0CE@BMBMBCJB@?4?2Customs?2Commands?2Hgt_Commands?4@
  00f63	6a 00		 push	 0
  00f65	68 00 00 00 00	 push	 OFFSET ??_C@_0CD@MCLPMKNK@Command_ReAddPoints_NeedResetsVi@
  00f6a	68 00 00 00 00	 push	 OFFSET ??_C@_08JNEOMACB@Commands?$AA@
  00f6f	89 86 90 0b 00
	00		 mov	 DWORD PTR [esi+2960], eax
  00f75	ff d7		 call	 edi

; 186  : 	this->m_Data[COMMAND_READD].iResets[3]		= GetPrivateProfileInt("Commands", "Command_ReAddPoints_NeedResetsVip3", NULL, COMMANDS_FILE);

  00f77	68 00 00 00 00	 push	 OFFSET ??_C@_0CE@BMBMBCJB@?4?2Customs?2Commands?2Hgt_Commands?4@
  00f7c	6a 00		 push	 0
  00f7e	68 00 00 00 00	 push	 OFFSET ??_C@_0CD@NLKEPLJL@Command_ReAddPoints_NeedResetsVi@
  00f83	68 00 00 00 00	 push	 OFFSET ??_C@_08JNEOMACB@Commands?$AA@
  00f88	89 86 94 0b 00
	00		 mov	 DWORD PTR [esi+2964], eax
  00f8e	ff d7		 call	 edi

; 187  : 	this->m_Data[COMMAND_READD].iMResets[0]		= GetPrivateProfileInt("Commands", "Command_ReAddPoints_NeedMasterResetsFree", NULL, COMMANDS_FILE);

  00f90	68 00 00 00 00	 push	 OFFSET ??_C@_0CE@BMBMBCJB@?4?2Customs?2Commands?2Hgt_Commands?4@
  00f95	6a 00		 push	 0
  00f97	68 00 00 00 00	 push	 OFFSET ??_C@_0CJ@NCFIFGEC@Command_ReAddPoints_NeedMasterRe@
  00f9c	68 00 00 00 00	 push	 OFFSET ??_C@_08JNEOMACB@Commands?$AA@
  00fa1	89 86 98 0b 00
	00		 mov	 DWORD PTR [esi+2968], eax
  00fa7	ff d7		 call	 edi

; 188  : 	this->m_Data[COMMAND_READD].iMResets[1]		= GetPrivateProfileInt("Commands", "Command_ReAddPoints_NeedMasterResetsVip1", NULL, COMMANDS_FILE);

  00fa9	68 00 00 00 00	 push	 OFFSET ??_C@_0CE@BMBMBCJB@?4?2Customs?2Commands?2Hgt_Commands?4@
  00fae	6a 00		 push	 0
  00fb0	68 00 00 00 00	 push	 OFFSET ??_C@_0CJ@PBJKOIJF@Command_ReAddPoints_NeedMasterRe@
  00fb5	68 00 00 00 00	 push	 OFFSET ??_C@_08JNEOMACB@Commands?$AA@
  00fba	89 86 9c 0b 00
	00		 mov	 DWORD PTR [esi+2972], eax
  00fc0	ff d7		 call	 edi

; 189  : 	this->m_Data[COMMAND_READD].iMResets[2]		= GetPrivateProfileInt("Commands", "Command_ReAddPoints_NeedMasterResetsVip2", NULL, COMMANDS_FILE);

  00fc2	68 00 00 00 00	 push	 OFFSET ??_C@_0CE@BMBMBCJB@?4?2Customs?2Commands?2Hgt_Commands?4@
  00fc7	6a 00		 push	 0
  00fc9	68 00 00 00 00	 push	 OFFSET ??_C@_0CJ@NKLHLLFG@Command_ReAddPoints_NeedMasterRe@
  00fce	68 00 00 00 00	 push	 OFFSET ??_C@_08JNEOMACB@Commands?$AA@
  00fd3	89 86 a0 0b 00
	00		 mov	 DWORD PTR [esi+2976], eax
  00fd9	ff d7		 call	 edi

; 190  : 	this->m_Data[COMMAND_READD].iMResets[3]		= GetPrivateProfileInt("Commands", "Command_ReAddPoints_NeedMasterResetsVip3", NULL, COMMANDS_FILE);

  00fdb	68 00 00 00 00	 push	 OFFSET ??_C@_0CE@BMBMBCJB@?4?2Customs?2Commands?2Hgt_Commands?4@
  00fe0	6a 00		 push	 0
  00fe2	68 00 00 00 00	 push	 OFFSET ??_C@_0CJ@MDKMIKBH@Command_ReAddPoints_NeedMasterRe@
  00fe7	68 00 00 00 00	 push	 OFFSET ??_C@_08JNEOMACB@Commands?$AA@
  00fec	89 86 a4 0b 00
	00		 mov	 DWORD PTR [esi+2980], eax
  00ff2	ff d7		 call	 edi

; 191  : 	// ---
; 192  : 	GetPrivateProfileString("Commands", "Command_Warehouse_Sintax", NULL, this->m_Data[COMMAND_WARE].szSintax, sizeof(this->m_Data[COMMAND_WARE].szSintax), COMMANDS_FILE);

  00ff4	68 00 00 00 00	 push	 OFFSET ??_C@_0CE@BMBMBCJB@?4?2Customs?2Commands?2Hgt_Commands?4@
  00ff9	6a 14		 push	 20			; 00000014H
  00ffb	89 86 a8 0b 00
	00		 mov	 DWORD PTR [esi+2984], eax
  01001	8d 86 94 0d 00
	00		 lea	 eax, DWORD PTR [esi+3476]
  01007	50		 push	 eax
  01008	6a 00		 push	 0
  0100a	68 00 00 00 00	 push	 OFFSET ??_C@_0BJ@KJFKOJCI@Command_Warehouse_Sintax?$AA@
  0100f	68 00 00 00 00	 push	 OFFSET ??_C@_08JNEOMACB@Commands?$AA@
  01014	ff d3		 call	 ebx

; 193  : 	// ---
; 194  : 	this->m_Data[COMMAND_WARE].iEnabled				= GetPrivateProfileInt("Commands", "Command_Warehouse_Enabled", NULL, COMMANDS_FILE);

  01016	68 00 00 00 00	 push	 OFFSET ??_C@_0CE@BMBMBCJB@?4?2Customs?2Commands?2Hgt_Commands?4@
  0101b	6a 00		 push	 0
  0101d	68 00 00 00 00	 push	 OFFSET ??_C@_0BK@LDJMGCJL@Command_Warehouse_Enabled?$AA@
  01022	68 00 00 00 00	 push	 OFFSET ??_C@_08JNEOMACB@Commands?$AA@
  01027	ff d7		 call	 edi

; 195  : 	this->m_Data[COMMAND_WARE].iVipOnly[0]			= GetPrivateProfileInt("Commands", "Command_Warehouse_SwitchFree", NULL, COMMANDS_FILE);

  01029	68 00 00 00 00	 push	 OFFSET ??_C@_0CE@BMBMBCJB@?4?2Customs?2Commands?2Hgt_Commands?4@
  0102e	6a 00		 push	 0
  01030	85 c0		 test	 eax, eax
  01032	68 00 00 00 00	 push	 OFFSET ??_C@_0BN@KFLHFOJL@Command_Warehouse_SwitchFree?$AA@
  01037	0f 95 c1	 setne	 cl
  0103a	68 00 00 00 00	 push	 OFFSET ??_C@_08JNEOMACB@Commands?$AA@
  0103f	88 8e 3c 0d 00
	00		 mov	 BYTE PTR [esi+3388], cl
  01045	ff d7		 call	 edi

; 196  : 	this->m_Data[COMMAND_WARE].iVipOnly[1]			= GetPrivateProfileInt("Commands", "Command_Warehouse_SwitchVip1", NULL, COMMANDS_FILE);

  01047	68 00 00 00 00	 push	 OFFSET ??_C@_0CE@BMBMBCJB@?4?2Customs?2Commands?2Hgt_Commands?4@
  0104c	6a 00		 push	 0
  0104e	68 00 00 00 00	 push	 OFFSET ??_C@_0BN@IGHFOAEM@Command_Warehouse_SwitchVip1?$AA@
  01053	68 00 00 00 00	 push	 OFFSET ??_C@_08JNEOMACB@Commands?$AA@
  01058	89 86 40 0d 00
	00		 mov	 DWORD PTR [esi+3392], eax
  0105e	ff d7		 call	 edi

; 197  : 	this->m_Data[COMMAND_WARE].iVipOnly[2]			= GetPrivateProfileInt("Commands", "Command_Warehouse_SwitchVip2", NULL, COMMANDS_FILE);

  01060	68 00 00 00 00	 push	 OFFSET ??_C@_0CE@BMBMBCJB@?4?2Customs?2Commands?2Hgt_Commands?4@
  01065	6a 00		 push	 0
  01067	68 00 00 00 00	 push	 OFFSET ??_C@_0BN@KNFILDIP@Command_Warehouse_SwitchVip2?$AA@
  0106c	68 00 00 00 00	 push	 OFFSET ??_C@_08JNEOMACB@Commands?$AA@
  01071	89 86 44 0d 00
	00		 mov	 DWORD PTR [esi+3396], eax
  01077	ff d7		 call	 edi

; 198  : 	this->m_Data[COMMAND_WARE].iVipOnly[3]			= GetPrivateProfileInt("Commands", "Command_Warehouse_SwitchVip3", NULL, COMMANDS_FILE);

  01079	68 00 00 00 00	 push	 OFFSET ??_C@_0CE@BMBMBCJB@?4?2Customs?2Commands?2Hgt_Commands?4@
  0107e	6a 00		 push	 0
  01080	68 00 00 00 00	 push	 OFFSET ??_C@_0BN@LEEDICMO@Command_Warehouse_SwitchVip3?$AA@
  01085	68 00 00 00 00	 push	 OFFSET ??_C@_08JNEOMACB@Commands?$AA@
  0108a	89 86 48 0d 00
	00		 mov	 DWORD PTR [esi+3400], eax
  01090	ff d7		 call	 edi

; 199  : 	this->m_Data[COMMAND_WARE].iLevel[0]			= GetPrivateProfileInt("Commands", "Command_Warehouse_NeedLevelFree", NULL, COMMANDS_FILE);

  01092	68 00 00 00 00	 push	 OFFSET ??_C@_0CE@BMBMBCJB@?4?2Customs?2Commands?2Hgt_Commands?4@
  01097	6a 00		 push	 0
  01099	68 00 00 00 00	 push	 OFFSET ??_C@_0CA@HAPHGDLI@Command_Warehouse_NeedLevelFree?$AA@
  0109e	68 00 00 00 00	 push	 OFFSET ??_C@_08JNEOMACB@Commands?$AA@
  010a3	89 86 4c 0d 00
	00		 mov	 DWORD PTR [esi+3404], eax
  010a9	ff d7		 call	 edi

; 200  : 	this->m_Data[COMMAND_WARE].iLevel[1]			= GetPrivateProfileInt("Commands", "Command_Warehouse_NeedLevelVip1", NULL, COMMANDS_FILE);

  010ab	68 00 00 00 00	 push	 OFFSET ??_C@_0CE@BMBMBCJB@?4?2Customs?2Commands?2Hgt_Commands?4@
  010b0	6a 00		 push	 0
  010b2	68 00 00 00 00	 push	 OFFSET ??_C@_0CA@FDDFNNGP@Command_Warehouse_NeedLevelVip1?$AA@
  010b7	68 00 00 00 00	 push	 OFFSET ??_C@_08JNEOMACB@Commands?$AA@
  010bc	89 86 50 0d 00
	00		 mov	 DWORD PTR [esi+3408], eax
  010c2	ff d7		 call	 edi

; 201  : 	this->m_Data[COMMAND_WARE].iLevel[2]			= GetPrivateProfileInt("Commands", "Command_Warehouse_NeedLevelVip2", NULL, COMMANDS_FILE);

  010c4	68 00 00 00 00	 push	 OFFSET ??_C@_0CE@BMBMBCJB@?4?2Customs?2Commands?2Hgt_Commands?4@
  010c9	6a 00		 push	 0
  010cb	68 00 00 00 00	 push	 OFFSET ??_C@_0CA@HIBIIOKM@Command_Warehouse_NeedLevelVip2?$AA@
  010d0	68 00 00 00 00	 push	 OFFSET ??_C@_08JNEOMACB@Commands?$AA@
  010d5	89 86 54 0d 00
	00		 mov	 DWORD PTR [esi+3412], eax
  010db	ff d7		 call	 edi

; 202  : 	this->m_Data[COMMAND_WARE].iLevel[3]			= GetPrivateProfileInt("Commands", "Command_Warehouse_NeedLevelVip3", NULL, COMMANDS_FILE);

  010dd	68 00 00 00 00	 push	 OFFSET ??_C@_0CE@BMBMBCJB@?4?2Customs?2Commands?2Hgt_Commands?4@
  010e2	6a 00		 push	 0
  010e4	68 00 00 00 00	 push	 OFFSET ??_C@_0CA@GBADLPON@Command_Warehouse_NeedLevelVip3?$AA@
  010e9	68 00 00 00 00	 push	 OFFSET ??_C@_08JNEOMACB@Commands?$AA@
  010ee	89 86 58 0d 00
	00		 mov	 DWORD PTR [esi+3416], eax
  010f4	ff d7		 call	 edi

; 203  : 	this->m_Data[COMMAND_WARE].iMoney[0]			= GetPrivateProfileInt("Commands", "Command_Warehouse_NeedMoneyFree", NULL, COMMANDS_FILE);

  010f6	68 00 00 00 00	 push	 OFFSET ??_C@_0CE@BMBMBCJB@?4?2Customs?2Commands?2Hgt_Commands?4@
  010fb	6a 00		 push	 0
  010fd	68 00 00 00 00	 push	 OFFSET ??_C@_0CA@PGFODLKO@Command_Warehouse_NeedMoneyFree?$AA@
  01102	68 00 00 00 00	 push	 OFFSET ??_C@_08JNEOMACB@Commands?$AA@
  01107	89 86 5c 0d 00
	00		 mov	 DWORD PTR [esi+3420], eax
  0110d	ff d7		 call	 edi

; 204  : 	this->m_Data[COMMAND_WARE].iMoney[1]			= GetPrivateProfileInt("Commands", "Command_Warehouse_NeedMoneyVip1", NULL, COMMANDS_FILE);

  0110f	68 00 00 00 00	 push	 OFFSET ??_C@_0CE@BMBMBCJB@?4?2Customs?2Commands?2Hgt_Commands?4@
  01114	6a 00		 push	 0
  01116	68 00 00 00 00	 push	 OFFSET ??_C@_0CA@NFJMIFHJ@Command_Warehouse_NeedMoneyVip1?$AA@
  0111b	68 00 00 00 00	 push	 OFFSET ??_C@_08JNEOMACB@Commands?$AA@
  01120	89 86 60 0d 00
	00		 mov	 DWORD PTR [esi+3424], eax
  01126	ff d7		 call	 edi

; 205  : 	this->m_Data[COMMAND_WARE].iMoney[2]			= GetPrivateProfileInt("Commands", "Command_Warehouse_NeedMoneyVip2", NULL, COMMANDS_FILE);

  01128	68 00 00 00 00	 push	 OFFSET ??_C@_0CE@BMBMBCJB@?4?2Customs?2Commands?2Hgt_Commands?4@
  0112d	6a 00		 push	 0
  0112f	68 00 00 00 00	 push	 OFFSET ??_C@_0CA@POLBNGLK@Command_Warehouse_NeedMoneyVip2?$AA@
  01134	68 00 00 00 00	 push	 OFFSET ??_C@_08JNEOMACB@Commands?$AA@
  01139	89 86 64 0d 00
	00		 mov	 DWORD PTR [esi+3428], eax
  0113f	ff d7		 call	 edi

; 206  : 	this->m_Data[COMMAND_WARE].iMoney[3]			= GetPrivateProfileInt("Commands", "Command_Warehouse_NeedMoneyVip3", NULL, COMMANDS_FILE);

  01141	68 00 00 00 00	 push	 OFFSET ??_C@_0CE@BMBMBCJB@?4?2Customs?2Commands?2Hgt_Commands?4@
  01146	6a 00		 push	 0
  01148	68 00 00 00 00	 push	 OFFSET ??_C@_0CA@OHKKOHPL@Command_Warehouse_NeedMoneyVip3?$AA@
  0114d	68 00 00 00 00	 push	 OFFSET ??_C@_08JNEOMACB@Commands?$AA@
  01152	89 86 68 0d 00
	00		 mov	 DWORD PTR [esi+3432], eax
  01158	ff d7		 call	 edi

; 207  : 	this->m_Data[COMMAND_WARE].iResets[0]			= GetPrivateProfileInt("Commands", "Command_Warehouse_NeedResetsFree", NULL, COMMANDS_FILE);

  0115a	68 00 00 00 00	 push	 OFFSET ??_C@_0CE@BMBMBCJB@?4?2Customs?2Commands?2Hgt_Commands?4@
  0115f	6a 00		 push	 0
  01161	68 00 00 00 00	 push	 OFFSET ??_C@_0CB@PCLOMMGK@Command_Warehouse_NeedResetsFree@
  01166	68 00 00 00 00	 push	 OFFSET ??_C@_08JNEOMACB@Commands?$AA@
  0116b	89 86 6c 0d 00
	00		 mov	 DWORD PTR [esi+3436], eax
  01171	ff d7		 call	 edi

; 208  : 	this->m_Data[COMMAND_WARE].iResets[1]			= GetPrivateProfileInt("Commands", "Command_Warehouse_NeedResetsVip1", NULL, COMMANDS_FILE);

  01173	68 00 00 00 00	 push	 OFFSET ??_C@_0CE@BMBMBCJB@?4?2Customs?2Commands?2Hgt_Commands?4@
  01178	6a 00		 push	 0
  0117a	68 00 00 00 00	 push	 OFFSET ??_C@_0CB@NBHMHCLN@Command_Warehouse_NeedResetsVip1@
  0117f	68 00 00 00 00	 push	 OFFSET ??_C@_08JNEOMACB@Commands?$AA@
  01184	89 86 70 0d 00
	00		 mov	 DWORD PTR [esi+3440], eax
  0118a	ff d7		 call	 edi

; 209  : 	this->m_Data[COMMAND_WARE].iResets[2]			= GetPrivateProfileInt("Commands", "Command_Warehouse_NeedResetsVip2", NULL, COMMANDS_FILE);

  0118c	68 00 00 00 00	 push	 OFFSET ??_C@_0CE@BMBMBCJB@?4?2Customs?2Commands?2Hgt_Commands?4@
  01191	6a 00		 push	 0
  01193	68 00 00 00 00	 push	 OFFSET ??_C@_0CB@PKFBCBHO@Command_Warehouse_NeedResetsVip2@
  01198	68 00 00 00 00	 push	 OFFSET ??_C@_08JNEOMACB@Commands?$AA@
  0119d	89 86 74 0d 00
	00		 mov	 DWORD PTR [esi+3444], eax
  011a3	ff d7		 call	 edi

; 210  : 	this->m_Data[COMMAND_WARE].iResets[3]			= GetPrivateProfileInt("Commands", "Command_Warehouse_NeedResetsVip3", NULL, COMMANDS_FILE);

  011a5	68 00 00 00 00	 push	 OFFSET ??_C@_0CE@BMBMBCJB@?4?2Customs?2Commands?2Hgt_Commands?4@
  011aa	6a 00		 push	 0
  011ac	68 00 00 00 00	 push	 OFFSET ??_C@_0CB@ODEKBADP@Command_Warehouse_NeedResetsVip3@
  011b1	68 00 00 00 00	 push	 OFFSET ??_C@_08JNEOMACB@Commands?$AA@
  011b6	89 86 78 0d 00
	00		 mov	 DWORD PTR [esi+3448], eax
  011bc	ff d7		 call	 edi

; 211  : 	this->m_Data[COMMAND_WARE].iMResets[0]			= GetPrivateProfileInt("Commands", "Command_Warehouse_NeedMasterResetsFree", NULL, COMMANDS_FILE);

  011be	68 00 00 00 00	 push	 OFFSET ??_C@_0CE@BMBMBCJB@?4?2Customs?2Commands?2Hgt_Commands?4@
  011c3	89 86 7c 0d 00
	00		 mov	 DWORD PTR [esi+3452], eax
  011c9	6a 00		 push	 0
  011cb	68 00 00 00 00	 push	 OFFSET ??_C@_0CH@BDAJHBFH@Command_Warehouse_NeedMasterRese@
  011d0	68 00 00 00 00	 push	 OFFSET ??_C@_08JNEOMACB@Commands?$AA@
  011d5	ff d7		 call	 edi

; 212  : 	this->m_Data[COMMAND_WARE].iMResets[1]			= GetPrivateProfileInt("Commands", "Command_Warehouse_NeedMasterResetsVip1", NULL, COMMANDS_FILE);

  011d7	68 00 00 00 00	 push	 OFFSET ??_C@_0CE@BMBMBCJB@?4?2Customs?2Commands?2Hgt_Commands?4@
  011dc	6a 00		 push	 0
  011de	68 00 00 00 00	 push	 OFFSET ??_C@_0CH@DAMLMPIA@Command_Warehouse_NeedMasterRese@
  011e3	68 00 00 00 00	 push	 OFFSET ??_C@_08JNEOMACB@Commands?$AA@
  011e8	89 86 80 0d 00
	00		 mov	 DWORD PTR [esi+3456], eax
  011ee	ff d7		 call	 edi

; 213  : 	this->m_Data[COMMAND_WARE].iMResets[2]			= GetPrivateProfileInt("Commands", "Command_Warehouse_NeedMasterResetsVip2", NULL, COMMANDS_FILE);

  011f0	68 00 00 00 00	 push	 OFFSET ??_C@_0CE@BMBMBCJB@?4?2Customs?2Commands?2Hgt_Commands?4@
  011f5	6a 00		 push	 0
  011f7	68 00 00 00 00	 push	 OFFSET ??_C@_0CH@BLOGJMED@Command_Warehouse_NeedMasterRese@
  011fc	68 00 00 00 00	 push	 OFFSET ??_C@_08JNEOMACB@Commands?$AA@
  01201	89 86 84 0d 00
	00		 mov	 DWORD PTR [esi+3460], eax
  01207	ff d7		 call	 edi

; 214  : 	this->m_Data[COMMAND_WARE].iMResets[3]			= GetPrivateProfileInt("Commands", "Command_Warehouse_NeedMasterResetsVip3", NULL, COMMANDS_FILE);

  01209	68 00 00 00 00	 push	 OFFSET ??_C@_0CE@BMBMBCJB@?4?2Customs?2Commands?2Hgt_Commands?4@
  0120e	6a 00		 push	 0
  01210	68 00 00 00 00	 push	 OFFSET ??_C@_0CH@CPNKNAC@Command_Warehouse_NeedMasterRese@
  01215	68 00 00 00 00	 push	 OFFSET ??_C@_08JNEOMACB@Commands?$AA@
  0121a	89 86 88 0d 00
	00		 mov	 DWORD PTR [esi+3464], eax
  01220	ff d7		 call	 edi

; 215  : 	this->m_Data[COMMAND_WARE].iWareType			= GetPrivateProfileInt("Commands", "Command_Warehouse_WareType", NULL, COMMANDS_FILE);

  01222	68 00 00 00 00	 push	 OFFSET ??_C@_0CE@BMBMBCJB@?4?2Customs?2Commands?2Hgt_Commands?4@
  01227	6a 00		 push	 0
  01229	68 00 00 00 00	 push	 OFFSET ??_C@_0BL@PPHAJHDA@Command_Warehouse_WareType?$AA@
  0122e	68 00 00 00 00	 push	 OFFSET ??_C@_08JNEOMACB@Commands?$AA@
  01233	89 86 8c 0d 00
	00		 mov	 DWORD PTR [esi+3468], eax
  01239	ff d7		 call	 edi

; 216  : 	this->m_Data[COMMAND_WARE].iWareNumber[0]		= GetPrivateProfileInt("Commands", "Command_Warehouse_WareNumberFree", NULL, COMMANDS_FILE);

  0123b	68 00 00 00 00	 push	 OFFSET ??_C@_0CE@BMBMBCJB@?4?2Customs?2Commands?2Hgt_Commands?4@
  01240	6a 00		 push	 0
  01242	68 00 00 00 00	 push	 OFFSET ??_C@_0CB@GMKDCEHN@Command_Warehouse_WareNumberFree@
  01247	68 00 00 00 00	 push	 OFFSET ??_C@_08JNEOMACB@Commands?$AA@
  0124c	89 86 a8 0d 00
	00		 mov	 DWORD PTR [esi+3496], eax
  01252	ff d7		 call	 edi

; 217  : 	this->m_Data[COMMAND_WARE].iWareNumber[1]		= GetPrivateProfileInt("Commands", "Command_Warehouse_WareNumberVip1", NULL, COMMANDS_FILE);

  01254	68 00 00 00 00	 push	 OFFSET ??_C@_0CE@BMBMBCJB@?4?2Customs?2Commands?2Hgt_Commands?4@
  01259	6a 00		 push	 0
  0125b	68 00 00 00 00	 push	 OFFSET ??_C@_0CB@EPGBJKKK@Command_Warehouse_WareNumberVip1@
  01260	68 00 00 00 00	 push	 OFFSET ??_C@_08JNEOMACB@Commands?$AA@
  01265	89 86 ac 0d 00
	00		 mov	 DWORD PTR [esi+3500], eax
  0126b	ff d7		 call	 edi

; 218  : 	this->m_Data[COMMAND_WARE].iWareNumber[2]		= GetPrivateProfileInt("Commands", "Command_Warehouse_WareNumberVip2", NULL, COMMANDS_FILE);

  0126d	68 00 00 00 00	 push	 OFFSET ??_C@_0CE@BMBMBCJB@?4?2Customs?2Commands?2Hgt_Commands?4@
  01272	6a 00		 push	 0
  01274	68 00 00 00 00	 push	 OFFSET ??_C@_0CB@GEEMMJGJ@Command_Warehouse_WareNumberVip2@
  01279	68 00 00 00 00	 push	 OFFSET ??_C@_08JNEOMACB@Commands?$AA@
  0127e	89 86 b0 0d 00
	00		 mov	 DWORD PTR [esi+3504], eax
  01284	ff d7		 call	 edi

; 219  : 	this->m_Data[COMMAND_WARE].iWareNumber[3]		= GetPrivateProfileInt("Commands", "Command_Warehouse_WareNumberVip3", NULL, COMMANDS_FILE);

  01286	68 00 00 00 00	 push	 OFFSET ??_C@_0CE@BMBMBCJB@?4?2Customs?2Commands?2Hgt_Commands?4@
  0128b	6a 00		 push	 0
  0128d	68 00 00 00 00	 push	 OFFSET ??_C@_0CB@HNFHPICI@Command_Warehouse_WareNumberVip3@
  01292	68 00 00 00 00	 push	 OFFSET ??_C@_08JNEOMACB@Commands?$AA@
  01297	89 86 b4 0d 00
	00		 mov	 DWORD PTR [esi+3508], eax
  0129d	ff d7		 call	 edi

; 220  : 	this->m_Data[COMMAND_WARE].iDelay				= GetPrivateProfileInt("Commands", "Command_Warehouse_Delay", NULL, COMMANDS_FILE);

  0129f	68 00 00 00 00	 push	 OFFSET ??_C@_0CE@BMBMBCJB@?4?2Customs?2Commands?2Hgt_Commands?4@
  012a4	6a 00		 push	 0
  012a6	68 00 00 00 00	 push	 OFFSET ??_C@_0BI@FBEFGMIJ@Command_Warehouse_Delay?$AA@
  012ab	68 00 00 00 00	 push	 OFFSET ??_C@_08JNEOMACB@Commands?$AA@
  012b0	89 86 b8 0d 00
	00		 mov	 DWORD PTR [esi+3512], eax
  012b6	ff d7		 call	 edi

; 221  : 	// ---
; 222  : 	GetPrivateProfileString("Commands", "Command_OpenWarehouse_Sintax", NULL, this->m_Data[COMMAND_OPENWARE].szSintax, sizeof(this->m_Data[COMMAND_OPENWARE].szSintax), COMMANDS_FILE);

  012b8	68 00 00 00 00	 push	 OFFSET ??_C@_0CE@BMBMBCJB@?4?2Customs?2Commands?2Hgt_Commands?4@
  012bd	6a 14		 push	 20			; 00000014H
  012bf	8d 96 78 0f 00
	00		 lea	 edx, DWORD PTR [esi+3960]
  012c5	52		 push	 edx
  012c6	6a 00		 push	 0
  012c8	68 00 00 00 00	 push	 OFFSET ??_C@_0BN@JEHLHNK@Command_OpenWarehouse_Sintax?$AA@
  012cd	68 00 00 00 00	 push	 OFFSET ??_C@_08JNEOMACB@Commands?$AA@
  012d2	89 86 90 0d 00
	00		 mov	 DWORD PTR [esi+3472], eax
  012d8	ff d3		 call	 ebx

; 223  : 	// ---
; 224  : 	this->m_Data[COMMAND_OPENWARE].iEnabled        = GetPrivateProfileInt("Commands", "Command_OpenWarehouse_Enabled", NULL, COMMANDS_FILE);

  012da	68 00 00 00 00	 push	 OFFSET ??_C@_0CE@BMBMBCJB@?4?2Customs?2Commands?2Hgt_Commands?4@
  012df	6a 00		 push	 0
  012e1	68 00 00 00 00	 push	 OFFSET ??_C@_0BO@OAIPOMPF@Command_OpenWarehouse_Enabled?$AA@
  012e6	68 00 00 00 00	 push	 OFFSET ??_C@_08JNEOMACB@Commands?$AA@
  012eb	ff d7		 call	 edi

; 225  : 	this->m_Data[COMMAND_OPENWARE].iVipOnly[0]     = GetPrivateProfileInt("Commands", "Command_OpenWarehouse_SwitchFree", NULL, COMMANDS_FILE);

  012ed	68 00 00 00 00	 push	 OFFSET ??_C@_0CE@BMBMBCJB@?4?2Customs?2Commands?2Hgt_Commands?4@
  012f2	6a 00		 push	 0
  012f4	85 c0		 test	 eax, eax
  012f6	68 00 00 00 00	 push	 OFFSET ??_C@_0CB@MGEAEMPJ@Command_OpenWarehouse_SwitchFree@
  012fb	0f 95 c0	 setne	 al
  012fe	68 00 00 00 00	 push	 OFFSET ??_C@_08JNEOMACB@Commands?$AA@
  01303	88 86 20 0f 00
	00		 mov	 BYTE PTR [esi+3872], al
  01309	ff d7		 call	 edi
  0130b	89 86 24 0f 00
	00		 mov	 DWORD PTR [esi+3876], eax

; 226  : 	this->m_Data[COMMAND_OPENWARE].iVipOnly[1]     = GetPrivateProfileInt("Commands", "Command_OpenWarehouse_SwitchVip1", NULL, COMMANDS_FILE);

  01311	68 00 00 00 00	 push	 OFFSET ??_C@_0CE@BMBMBCJB@?4?2Customs?2Commands?2Hgt_Commands?4@
  01316	6a 00		 push	 0
  01318	68 00 00 00 00	 push	 OFFSET ??_C@_0CB@OFICPCCO@Command_OpenWarehouse_SwitchVip1@
  0131d	68 00 00 00 00	 push	 OFFSET ??_C@_08JNEOMACB@Commands?$AA@
  01322	ff d7		 call	 edi

; 227  : 	this->m_Data[COMMAND_OPENWARE].iVipOnly[2]     = GetPrivateProfileInt("Commands", "Command_OpenWarehouse_SwitchVip2", NULL, COMMANDS_FILE);

  01324	68 00 00 00 00	 push	 OFFSET ??_C@_0CE@BMBMBCJB@?4?2Customs?2Commands?2Hgt_Commands?4@
  01329	6a 00		 push	 0
  0132b	68 00 00 00 00	 push	 OFFSET ??_C@_0CB@MOKPKBON@Command_OpenWarehouse_SwitchVip2@
  01330	68 00 00 00 00	 push	 OFFSET ??_C@_08JNEOMACB@Commands?$AA@
  01335	89 86 28 0f 00
	00		 mov	 DWORD PTR [esi+3880], eax
  0133b	ff d7		 call	 edi

; 228  : 	this->m_Data[COMMAND_OPENWARE].iVipOnly[3]     = GetPrivateProfileInt("Commands", "Command_OpenWarehouse_SwitchVip3", NULL, COMMANDS_FILE);

  0133d	68 00 00 00 00	 push	 OFFSET ??_C@_0CE@BMBMBCJB@?4?2Customs?2Commands?2Hgt_Commands?4@
  01342	6a 00		 push	 0
  01344	68 00 00 00 00	 push	 OFFSET ??_C@_0CB@NHLEJAKM@Command_OpenWarehouse_SwitchVip3@
  01349	68 00 00 00 00	 push	 OFFSET ??_C@_08JNEOMACB@Commands?$AA@
  0134e	89 86 2c 0f 00
	00		 mov	 DWORD PTR [esi+3884], eax
  01354	ff d7		 call	 edi

; 229  : 	this->m_Data[COMMAND_OPENWARE].iLevel[0]       = GetPrivateProfileInt("Commands", "Command_OpenWarehouse_NeedLevelFree", NULL, COMMANDS_FILE);

  01356	68 00 00 00 00	 push	 OFFSET ??_C@_0CE@BMBMBCJB@?4?2Customs?2Commands?2Hgt_Commands?4@
  0135b	6a 00		 push	 0
  0135d	68 00 00 00 00	 push	 OFFSET ??_C@_0CE@GAIJGLPJ@Command_OpenWarehouse_NeedLevelF@
  01362	68 00 00 00 00	 push	 OFFSET ??_C@_08JNEOMACB@Commands?$AA@
  01367	89 86 30 0f 00
	00		 mov	 DWORD PTR [esi+3888], eax
  0136d	ff d7		 call	 edi

; 230  : 	this->m_Data[COMMAND_OPENWARE].iLevel[1]       = GetPrivateProfileInt("Commands", "Command_OpenWarehouse_NeedLevelVip1", NULL, COMMANDS_FILE);

  0136f	68 00 00 00 00	 push	 OFFSET ??_C@_0CE@BMBMBCJB@?4?2Customs?2Commands?2Hgt_Commands?4@
  01374	6a 00		 push	 0
  01376	68 00 00 00 00	 push	 OFFSET ??_C@_0CE@EDELNFCO@Command_OpenWarehouse_NeedLevelV@
  0137b	68 00 00 00 00	 push	 OFFSET ??_C@_08JNEOMACB@Commands?$AA@
  01380	89 86 34 0f 00
	00		 mov	 DWORD PTR [esi+3892], eax
  01386	ff d7		 call	 edi

; 231  : 	this->m_Data[COMMAND_OPENWARE].iLevel[2]       = GetPrivateProfileInt("Commands", "Command_OpenWarehouse_NeedLevelVip2", NULL, COMMANDS_FILE);

  01388	68 00 00 00 00	 push	 OFFSET ??_C@_0CE@BMBMBCJB@?4?2Customs?2Commands?2Hgt_Commands?4@
  0138d	6a 00		 push	 0
  0138f	68 00 00 00 00	 push	 OFFSET ??_C@_0CE@GIGGIGON@Command_OpenWarehouse_NeedLevelV@
  01394	68 00 00 00 00	 push	 OFFSET ??_C@_08JNEOMACB@Commands?$AA@
  01399	89 86 38 0f 00
	00		 mov	 DWORD PTR [esi+3896], eax
  0139f	ff d7		 call	 edi

; 232  : 	this->m_Data[COMMAND_OPENWARE].iLevel[3]       = GetPrivateProfileInt("Commands", "Command_OpenWarehouse_NeedLevelVip3", NULL, COMMANDS_FILE);

  013a1	68 00 00 00 00	 push	 OFFSET ??_C@_0CE@BMBMBCJB@?4?2Customs?2Commands?2Hgt_Commands?4@
  013a6	6a 00		 push	 0
  013a8	68 00 00 00 00	 push	 OFFSET ??_C@_0CE@HBHNLHKM@Command_OpenWarehouse_NeedLevelV@
  013ad	68 00 00 00 00	 push	 OFFSET ??_C@_08JNEOMACB@Commands?$AA@
  013b2	89 86 3c 0f 00
	00		 mov	 DWORD PTR [esi+3900], eax
  013b8	ff d7		 call	 edi

; 233  : 	this->m_Data[COMMAND_OPENWARE].iMoney[0]       = GetPrivateProfileInt("Commands", "Command_OpenWarehouse_NeedMoneyFree", NULL, COMMANDS_FILE);

  013ba	68 00 00 00 00	 push	 OFFSET ??_C@_0CE@BMBMBCJB@?4?2Customs?2Commands?2Hgt_Commands?4@
  013bf	6a 00		 push	 0
  013c1	68 00 00 00 00	 push	 OFFSET ??_C@_0CE@OGCADDOP@Command_OpenWarehouse_NeedMoneyF@
  013c6	68 00 00 00 00	 push	 OFFSET ??_C@_08JNEOMACB@Commands?$AA@
  013cb	89 86 40 0f 00
	00		 mov	 DWORD PTR [esi+3904], eax
  013d1	ff d7		 call	 edi

; 234  : 	this->m_Data[COMMAND_OPENWARE].iMoney[1]       = GetPrivateProfileInt("Commands", "Command_OpenWarehouse_NeedMoneyVip1", NULL, COMMANDS_FILE);

  013d3	68 00 00 00 00	 push	 OFFSET ??_C@_0CE@BMBMBCJB@?4?2Customs?2Commands?2Hgt_Commands?4@
  013d8	6a 00		 push	 0
  013da	68 00 00 00 00	 push	 OFFSET ??_C@_0CE@MFOCINDI@Command_OpenWarehouse_NeedMoneyV@
  013df	68 00 00 00 00	 push	 OFFSET ??_C@_08JNEOMACB@Commands?$AA@
  013e4	89 86 44 0f 00
	00		 mov	 DWORD PTR [esi+3908], eax
  013ea	ff d7		 call	 edi

; 235  : 	this->m_Data[COMMAND_OPENWARE].iMoney[2]       = GetPrivateProfileInt("Commands", "Command_OpenWarehouse_NeedMoneyVip2", NULL, COMMANDS_FILE);

  013ec	68 00 00 00 00	 push	 OFFSET ??_C@_0CE@BMBMBCJB@?4?2Customs?2Commands?2Hgt_Commands?4@
  013f1	6a 00		 push	 0
  013f3	68 00 00 00 00	 push	 OFFSET ??_C@_0CE@OOMPNOPL@Command_OpenWarehouse_NeedMoneyV@
  013f8	68 00 00 00 00	 push	 OFFSET ??_C@_08JNEOMACB@Commands?$AA@
  013fd	89 86 48 0f 00
	00		 mov	 DWORD PTR [esi+3912], eax
  01403	ff d7		 call	 edi

; 236  : 	this->m_Data[COMMAND_OPENWARE].iMoney[3]       = GetPrivateProfileInt("Commands", "Command_OpenWarehouse_NeedMoneyVip3", NULL, COMMANDS_FILE);

  01405	68 00 00 00 00	 push	 OFFSET ??_C@_0CE@BMBMBCJB@?4?2Customs?2Commands?2Hgt_Commands?4@
  0140a	6a 00		 push	 0
  0140c	68 00 00 00 00	 push	 OFFSET ??_C@_0CE@PHNEOPLK@Command_OpenWarehouse_NeedMoneyV@
  01411	68 00 00 00 00	 push	 OFFSET ??_C@_08JNEOMACB@Commands?$AA@
  01416	89 86 4c 0f 00
	00		 mov	 DWORD PTR [esi+3916], eax
  0141c	ff d7		 call	 edi

; 237  : 	this->m_Data[COMMAND_OPENWARE].iResets[0]		= GetPrivateProfileInt("Commands", "Command_OpenWarehouse_NeedResetsFree", NULL, COMMANDS_FILE);

  0141e	68 00 00 00 00	 push	 OFFSET ??_C@_0CE@BMBMBCJB@?4?2Customs?2Commands?2Hgt_Commands?4@
  01423	6a 00		 push	 0
  01425	68 00 00 00 00	 push	 OFFSET ??_C@_0CF@PDHFMDGE@Command_OpenWarehouse_NeedResets@
  0142a	68 00 00 00 00	 push	 OFFSET ??_C@_08JNEOMACB@Commands?$AA@
  0142f	89 86 50 0f 00
	00		 mov	 DWORD PTR [esi+3920], eax
  01435	ff d7		 call	 edi

; 238  : 	this->m_Data[COMMAND_OPENWARE].iResets[1]		= GetPrivateProfileInt("Commands", "Command_OpenWarehouse_NeedResetsVip1", NULL, COMMANDS_FILE);

  01437	68 00 00 00 00	 push	 OFFSET ??_C@_0CE@BMBMBCJB@?4?2Customs?2Commands?2Hgt_Commands?4@
  0143c	6a 00		 push	 0
  0143e	68 00 00 00 00	 push	 OFFSET ??_C@_0CF@NALHHNLD@Command_OpenWarehouse_NeedResets@
  01443	68 00 00 00 00	 push	 OFFSET ??_C@_08JNEOMACB@Commands?$AA@
  01448	89 86 54 0f 00
	00		 mov	 DWORD PTR [esi+3924], eax
  0144e	ff d7		 call	 edi

; 239  : 	this->m_Data[COMMAND_OPENWARE].iResets[2]		= GetPrivateProfileInt("Commands", "Command_OpenWarehouse_NeedResetsVip2", NULL, COMMANDS_FILE);

  01450	68 00 00 00 00	 push	 OFFSET ??_C@_0CE@BMBMBCJB@?4?2Customs?2Commands?2Hgt_Commands?4@
  01455	6a 00		 push	 0
  01457	68 00 00 00 00	 push	 OFFSET ??_C@_0CF@PLJKCOHA@Command_OpenWarehouse_NeedResets@
  0145c	89 86 58 0f 00
	00		 mov	 DWORD PTR [esi+3928], eax
  01462	68 00 00 00 00	 push	 OFFSET ??_C@_08JNEOMACB@Commands?$AA@
  01467	ff d7		 call	 edi

; 240  : 	this->m_Data[COMMAND_OPENWARE].iResets[3]		= GetPrivateProfileInt("Commands", "Command_OpenWarehouse_NeedResetsVip3", NULL, COMMANDS_FILE);

  01469	68 00 00 00 00	 push	 OFFSET ??_C@_0CE@BMBMBCJB@?4?2Customs?2Commands?2Hgt_Commands?4@
  0146e	6a 00		 push	 0
  01470	68 00 00 00 00	 push	 OFFSET ??_C@_0CF@OCIBBPDB@Command_OpenWarehouse_NeedResets@
  01475	68 00 00 00 00	 push	 OFFSET ??_C@_08JNEOMACB@Commands?$AA@
  0147a	89 86 5c 0f 00
	00		 mov	 DWORD PTR [esi+3932], eax
  01480	ff d7		 call	 edi

; 241  : 	this->m_Data[COMMAND_OPENWARE].iMResets[0]		= GetPrivateProfileInt("Commands", "Command_OpenWarehouse_NeedMasterResetsFree", NULL, COMMANDS_FILE);

  01482	68 00 00 00 00	 push	 OFFSET ??_C@_0CE@BMBMBCJB@?4?2Customs?2Commands?2Hgt_Commands?4@
  01487	6a 00		 push	 0
  01489	68 00 00 00 00	 push	 OFFSET ??_C@_0CL@LNNIEMG@Command_OpenWarehouse_NeedMaster@
  0148e	68 00 00 00 00	 push	 OFFSET ??_C@_08JNEOMACB@Commands?$AA@
  01493	89 86 60 0f 00
	00		 mov	 DWORD PTR [esi+3936], eax
  01499	ff d7		 call	 edi

; 242  : 	this->m_Data[COMMAND_OPENWARE].iMResets[1]		= GetPrivateProfileInt("Commands", "Command_OpenWarehouse_NeedMasterResetsVip1", NULL, COMMANDS_FILE);

  0149b	68 00 00 00 00	 push	 OFFSET ??_C@_0CE@BMBMBCJB@?4?2Customs?2Commands?2Hgt_Commands?4@
  014a0	6a 00		 push	 0
  014a2	68 00 00 00 00	 push	 OFFSET ??_C@_0CL@CIBPDKBB@Command_OpenWarehouse_NeedMaster@
  014a7	68 00 00 00 00	 push	 OFFSET ??_C@_08JNEOMACB@Commands?$AA@
  014ac	89 86 64 0f 00
	00		 mov	 DWORD PTR [esi+3940], eax
  014b2	ff d7		 call	 edi

; 243  : 	this->m_Data[COMMAND_OPENWARE].iMResets[2]		= GetPrivateProfileInt("Commands", "Command_OpenWarehouse_NeedMasterResetsVip2", NULL, COMMANDS_FILE);

  014b4	68 00 00 00 00	 push	 OFFSET ??_C@_0CE@BMBMBCJB@?4?2Customs?2Commands?2Hgt_Commands?4@
  014b9	6a 00		 push	 0
  014bb	68 00 00 00 00	 push	 OFFSET ??_C@_0CL@DDCGJNC@Command_OpenWarehouse_NeedMaster@
  014c0	68 00 00 00 00	 push	 OFFSET ??_C@_08JNEOMACB@Commands?$AA@
  014c5	89 86 68 0f 00
	00		 mov	 DWORD PTR [esi+3944], eax
  014cb	ff d7		 call	 edi

; 244  : 	this->m_Data[COMMAND_OPENWARE].iMResets[3]		= GetPrivateProfileInt("Commands", "Command_OpenWarehouse_NeedMasterResetsVip3", NULL, COMMANDS_FILE);

  014cd	68 00 00 00 00	 push	 OFFSET ??_C@_0CE@BMBMBCJB@?4?2Customs?2Commands?2Hgt_Commands?4@
  014d2	6a 00		 push	 0
  014d4	68 00 00 00 00	 push	 OFFSET ??_C@_0CL@BKCJFIJD@Command_OpenWarehouse_NeedMaster@
  014d9	68 00 00 00 00	 push	 OFFSET ??_C@_08JNEOMACB@Commands?$AA@
  014de	89 86 6c 0f 00
	00		 mov	 DWORD PTR [esi+3948], eax
  014e4	ff d7		 call	 edi

; 245  : 	this->m_Data[COMMAND_OPENWARE].iDelay			= GetPrivateProfileInt("Commands", "Command_OpenWarehouse_Delay", NULL, COMMANDS_FILE);

  014e6	68 00 00 00 00	 push	 OFFSET ??_C@_0CE@BMBMBCJB@?4?2Customs?2Commands?2Hgt_Commands?4@
  014eb	6a 00		 push	 0
  014ed	68 00 00 00 00	 push	 OFFSET ??_C@_0BM@EGPJOGGJ@Command_OpenWarehouse_Delay?$AA@
  014f2	68 00 00 00 00	 push	 OFFSET ??_C@_08JNEOMACB@Commands?$AA@
  014f7	89 86 70 0f 00
	00		 mov	 DWORD PTR [esi+3952], eax
  014fd	ff d7		 call	 edi

; 246  : 	// ---
; 247  : 	GetPrivateProfileString("Commands", "Command_WarehouseInfo_Sintax", NULL, this->m_Data[COMMAND_WAREINFO].szSintax, sizeof(this->m_Data[COMMAND_WAREINFO].szSintax), COMMANDS_FILE);

  014ff	68 00 00 00 00	 push	 OFFSET ??_C@_0CE@BMBMBCJB@?4?2Customs?2Commands?2Hgt_Commands?4@
  01504	6a 14		 push	 20			; 00000014H
  01506	8d 8e 5c 11 00
	00		 lea	 ecx, DWORD PTR [esi+4444]
  0150c	51		 push	 ecx
  0150d	6a 00		 push	 0
  0150f	68 00 00 00 00	 push	 OFFSET ??_C@_0BN@PFIGHEOO@Command_WarehouseInfo_Sintax?$AA@
  01514	68 00 00 00 00	 push	 OFFSET ??_C@_08JNEOMACB@Commands?$AA@
  01519	89 86 74 0f 00
	00		 mov	 DWORD PTR [esi+3956], eax
  0151f	ff d3		 call	 ebx

; 248  : 	// ---
; 249  : 	this->m_Data[COMMAND_WAREINFO].iEnabled        = GetPrivateProfileInt("Commands", "Command_WarehouseInfo_Enabled", NULL, COMMANDS_FILE);

  01521	68 00 00 00 00	 push	 OFFSET ??_C@_0CE@BMBMBCJB@?4?2Customs?2Commands?2Hgt_Commands?4@
  01526	6a 00		 push	 0
  01528	68 00 00 00 00	 push	 OFFSET ??_C@_0BO@MBMHNJID@Command_WarehouseInfo_Enabled?$AA@
  0152d	68 00 00 00 00	 push	 OFFSET ??_C@_08JNEOMACB@Commands?$AA@
  01532	ff d7		 call	 edi

; 250  : 	this->m_Data[COMMAND_WAREINFO].iVipOnly[0]     = GetPrivateProfileInt("Commands", "Command_WarehouseInfo_SwitchFree", NULL, COMMANDS_FILE);

  01534	68 00 00 00 00	 push	 OFFSET ??_C@_0CE@BMBMBCJB@?4?2Customs?2Commands?2Hgt_Commands?4@
  01539	6a 00		 push	 0
  0153b	85 c0		 test	 eax, eax
  0153d	68 00 00 00 00	 push	 OFFSET ??_C@_0CB@EMAKFDCO@Command_WarehouseInfo_SwitchFree@
  01542	0f 95 c2	 setne	 dl
  01545	68 00 00 00 00	 push	 OFFSET ??_C@_08JNEOMACB@Commands?$AA@
  0154a	88 96 04 11 00
	00		 mov	 BYTE PTR [esi+4356], dl
  01550	ff d7		 call	 edi

; 251  : 	this->m_Data[COMMAND_WAREINFO].iVipOnly[1]     = GetPrivateProfileInt("Commands", "Command_WarehouseInfo_SwitchVip1", NULL, COMMANDS_FILE);

  01552	68 00 00 00 00	 push	 OFFSET ??_C@_0CE@BMBMBCJB@?4?2Customs?2Commands?2Hgt_Commands?4@
  01557	6a 00		 push	 0
  01559	68 00 00 00 00	 push	 OFFSET ??_C@_0CB@GPMIONPJ@Command_WarehouseInfo_SwitchVip1@
  0155e	68 00 00 00 00	 push	 OFFSET ??_C@_08JNEOMACB@Commands?$AA@
  01563	89 86 08 11 00
	00		 mov	 DWORD PTR [esi+4360], eax
  01569	ff d7		 call	 edi

; 252  : 	this->m_Data[COMMAND_WAREINFO].iVipOnly[2]     = GetPrivateProfileInt("Commands", "Command_WarehouseInfo_SwitchVip2", NULL, COMMANDS_FILE);

  0156b	68 00 00 00 00	 push	 OFFSET ??_C@_0CE@BMBMBCJB@?4?2Customs?2Commands?2Hgt_Commands?4@
  01570	6a 00		 push	 0
  01572	68 00 00 00 00	 push	 OFFSET ??_C@_0CB@EEOFLODK@Command_WarehouseInfo_SwitchVip2@
  01577	68 00 00 00 00	 push	 OFFSET ??_C@_08JNEOMACB@Commands?$AA@
  0157c	89 86 0c 11 00
	00		 mov	 DWORD PTR [esi+4364], eax
  01582	ff d7		 call	 edi

; 253  : 	this->m_Data[COMMAND_WAREINFO].iVipOnly[3]     = GetPrivateProfileInt("Commands", "Command_WarehouseInfo_SwitchVip3", NULL, COMMANDS_FILE);

  01584	68 00 00 00 00	 push	 OFFSET ??_C@_0CE@BMBMBCJB@?4?2Customs?2Commands?2Hgt_Commands?4@
  01589	6a 00		 push	 0
  0158b	68 00 00 00 00	 push	 OFFSET ??_C@_0CB@FNPOIPHL@Command_WarehouseInfo_SwitchVip3@
  01590	68 00 00 00 00	 push	 OFFSET ??_C@_08JNEOMACB@Commands?$AA@
  01595	89 86 10 11 00
	00		 mov	 DWORD PTR [esi+4368], eax
  0159b	ff d7		 call	 edi

; 254  : 	this->m_Data[COMMAND_WAREINFO].iLevel[0]       = GetPrivateProfileInt("Commands", "Command_WarehouseInfo_NeedLevelFree", NULL, COMMANDS_FILE);

  0159d	68 00 00 00 00	 push	 OFFSET ??_C@_0CE@BMBMBCJB@?4?2Customs?2Commands?2Hgt_Commands?4@
  015a2	6a 00		 push	 0
  015a4	89 86 14 11 00
	00		 mov	 DWORD PTR [esi+4372], eax
  015aa	68 00 00 00 00	 push	 OFFSET ??_C@_0CE@LDBMOONG@Command_WarehouseInfo_NeedLevelF@
  015af	68 00 00 00 00	 push	 OFFSET ??_C@_08JNEOMACB@Commands?$AA@
  015b4	ff d7		 call	 edi

; 255  : 	this->m_Data[COMMAND_WAREINFO].iLevel[1]       = GetPrivateProfileInt("Commands", "Command_WarehouseInfo_NeedLevelVip1", NULL, COMMANDS_FILE);

  015b6	68 00 00 00 00	 push	 OFFSET ??_C@_0CE@BMBMBCJB@?4?2Customs?2Commands?2Hgt_Commands?4@
  015bb	6a 00		 push	 0
  015bd	68 00 00 00 00	 push	 OFFSET ??_C@_0CE@JANOFAAB@Command_WarehouseInfo_NeedLevelV@
  015c2	68 00 00 00 00	 push	 OFFSET ??_C@_08JNEOMACB@Commands?$AA@
  015c7	89 86 18 11 00
	00		 mov	 DWORD PTR [esi+4376], eax
  015cd	ff d7		 call	 edi

; 256  : 	this->m_Data[COMMAND_WAREINFO].iLevel[2]       = GetPrivateProfileInt("Commands", "Command_WarehouseInfo_NeedLevelVip2", NULL, COMMANDS_FILE);

  015cf	68 00 00 00 00	 push	 OFFSET ??_C@_0CE@BMBMBCJB@?4?2Customs?2Commands?2Hgt_Commands?4@
  015d4	6a 00		 push	 0
  015d6	68 00 00 00 00	 push	 OFFSET ??_C@_0CE@LLPDADMC@Command_WarehouseInfo_NeedLevelV@
  015db	68 00 00 00 00	 push	 OFFSET ??_C@_08JNEOMACB@Commands?$AA@
  015e0	89 86 1c 11 00
	00		 mov	 DWORD PTR [esi+4380], eax
  015e6	ff d7		 call	 edi

; 257  : 	this->m_Data[COMMAND_WAREINFO].iLevel[3]       = GetPrivateProfileInt("Commands", "Command_WarehouseInfo_NeedLevelVip3", NULL, COMMANDS_FILE);

  015e8	68 00 00 00 00	 push	 OFFSET ??_C@_0CE@BMBMBCJB@?4?2Customs?2Commands?2Hgt_Commands?4@
  015ed	6a 00		 push	 0
  015ef	68 00 00 00 00	 push	 OFFSET ??_C@_0CE@KCOIDCID@Command_WarehouseInfo_NeedLevelV@
  015f4	68 00 00 00 00	 push	 OFFSET ??_C@_08JNEOMACB@Commands?$AA@
  015f9	89 86 20 11 00
	00		 mov	 DWORD PTR [esi+4384], eax
  015ff	ff d7		 call	 edi

; 258  : 	this->m_Data[COMMAND_WAREINFO].iMoney[0]       = GetPrivateProfileInt("Commands", "Command_WarehouseInfo_NeedMoneyFree", NULL, COMMANDS_FILE);

  01601	68 00 00 00 00	 push	 OFFSET ??_C@_0CE@BMBMBCJB@?4?2Customs?2Commands?2Hgt_Commands?4@
  01606	6a 00		 push	 0
  01608	68 00 00 00 00	 push	 OFFSET ??_C@_0CE@DFLFLGMA@Command_WarehouseInfo_NeedMoneyF@
  0160d	68 00 00 00 00	 push	 OFFSET ??_C@_08JNEOMACB@Commands?$AA@
  01612	89 86 24 11 00
	00		 mov	 DWORD PTR [esi+4388], eax
  01618	ff d7		 call	 edi

; 259  : 	this->m_Data[COMMAND_WAREINFO].iMoney[1]       = GetPrivateProfileInt("Commands", "Command_WarehouseInfo_NeedMoneyVip1", NULL, COMMANDS_FILE);

  0161a	68 00 00 00 00	 push	 OFFSET ??_C@_0CE@BMBMBCJB@?4?2Customs?2Commands?2Hgt_Commands?4@
  0161f	6a 00		 push	 0
  01621	68 00 00 00 00	 push	 OFFSET ??_C@_0CE@BGHHAIBH@Command_WarehouseInfo_NeedMoneyV@
  01626	68 00 00 00 00	 push	 OFFSET ??_C@_08JNEOMACB@Commands?$AA@
  0162b	89 86 28 11 00
	00		 mov	 DWORD PTR [esi+4392], eax
  01631	ff d7		 call	 edi

; 260  : 	this->m_Data[COMMAND_WAREINFO].iMoney[2]       = GetPrivateProfileInt("Commands", "Command_WarehouseInfo_NeedMoneyVip2", NULL, COMMANDS_FILE);

  01633	68 00 00 00 00	 push	 OFFSET ??_C@_0CE@BMBMBCJB@?4?2Customs?2Commands?2Hgt_Commands?4@
  01638	6a 00		 push	 0
  0163a	68 00 00 00 00	 push	 OFFSET ??_C@_0CE@DNFKFLNE@Command_WarehouseInfo_NeedMoneyV@
  0163f	68 00 00 00 00	 push	 OFFSET ??_C@_08JNEOMACB@Commands?$AA@
  01644	89 86 2c 11 00
	00		 mov	 DWORD PTR [esi+4396], eax
  0164a	ff d7		 call	 edi

; 261  : 	this->m_Data[COMMAND_WAREINFO].iMoney[3]       = GetPrivateProfileInt("Commands", "Command_WarehouseInfo_NeedMoneyVip3", NULL, COMMANDS_FILE);

  0164c	68 00 00 00 00	 push	 OFFSET ??_C@_0CE@BMBMBCJB@?4?2Customs?2Commands?2Hgt_Commands?4@
  01651	6a 00		 push	 0
  01653	68 00 00 00 00	 push	 OFFSET ??_C@_0CE@CEEBGKJF@Command_WarehouseInfo_NeedMoneyV@
  01658	68 00 00 00 00	 push	 OFFSET ??_C@_08JNEOMACB@Commands?$AA@
  0165d	89 86 30 11 00
	00		 mov	 DWORD PTR [esi+4400], eax
  01663	ff d7		 call	 edi

; 262  : 	this->m_Data[COMMAND_WAREINFO].iResets[0]		= GetPrivateProfileInt("Commands", "Command_WarehouseInfo_NeedResetsFree", NULL, COMMANDS_FILE);

  01665	68 00 00 00 00	 push	 OFFSET ??_C@_0CE@BMBMBCJB@?4?2Customs?2Commands?2Hgt_Commands?4@
  0166a	6a 00		 push	 0
  0166c	68 00 00 00 00	 push	 OFFSET ??_C@_0CF@FIHHGLLI@Command_WarehouseInfo_NeedResets@
  01671	68 00 00 00 00	 push	 OFFSET ??_C@_08JNEOMACB@Commands?$AA@
  01676	89 86 34 11 00
	00		 mov	 DWORD PTR [esi+4404], eax
  0167c	ff d7		 call	 edi

; 263  : 	this->m_Data[COMMAND_WAREINFO].iResets[1]		= GetPrivateProfileInt("Commands", "Command_WarehouseInfo_NeedResetsVip1", NULL, COMMANDS_FILE);

  0167e	68 00 00 00 00	 push	 OFFSET ??_C@_0CE@BMBMBCJB@?4?2Customs?2Commands?2Hgt_Commands?4@
  01683	6a 00		 push	 0
  01685	68 00 00 00 00	 push	 OFFSET ??_C@_0CF@HLLFNFGP@Command_WarehouseInfo_NeedResets@
  0168a	68 00 00 00 00	 push	 OFFSET ??_C@_08JNEOMACB@Commands?$AA@
  0168f	89 86 38 11 00
	00		 mov	 DWORD PTR [esi+4408], eax
  01695	ff d7		 call	 edi

; 264  : 	this->m_Data[COMMAND_WAREINFO].iResets[2]		= GetPrivateProfileInt("Commands", "Command_WarehouseInfo_NeedResetsVip2", NULL, COMMANDS_FILE);

  01697	68 00 00 00 00	 push	 OFFSET ??_C@_0CE@BMBMBCJB@?4?2Customs?2Commands?2Hgt_Commands?4@
  0169c	6a 00		 push	 0
  0169e	68 00 00 00 00	 push	 OFFSET ??_C@_0CF@FAJIIGKM@Command_WarehouseInfo_NeedResets@
  016a3	68 00 00 00 00	 push	 OFFSET ??_C@_08JNEOMACB@Commands?$AA@
  016a8	89 86 3c 11 00
	00		 mov	 DWORD PTR [esi+4412], eax
  016ae	ff d7		 call	 edi

; 265  : 	this->m_Data[COMMAND_WAREINFO].iResets[3]		= GetPrivateProfileInt("Commands", "Command_WarehouseInfo_NeedResetsVip3", NULL, COMMANDS_FILE);

  016b0	68 00 00 00 00	 push	 OFFSET ??_C@_0CE@BMBMBCJB@?4?2Customs?2Commands?2Hgt_Commands?4@
  016b5	6a 00		 push	 0
  016b7	68 00 00 00 00	 push	 OFFSET ??_C@_0CF@EJIDLHON@Command_WarehouseInfo_NeedResets@
  016bc	68 00 00 00 00	 push	 OFFSET ??_C@_08JNEOMACB@Commands?$AA@
  016c1	89 86 40 11 00
	00		 mov	 DWORD PTR [esi+4416], eax
  016c7	ff d7		 call	 edi

; 266  : 	this->m_Data[COMMAND_WAREINFO].iMResets[0]		= GetPrivateProfileInt("Commands", "Command_WarehouseInfo_NeedMasterResetsFree", NULL, COMMANDS_FILE);

  016c9	68 00 00 00 00	 push	 OFFSET ??_C@_0CE@BMBMBCJB@?4?2Customs?2Commands?2Hgt_Commands?4@
  016ce	6a 00		 push	 0
  016d0	68 00 00 00 00	 push	 OFFSET ??_C@_0CL@FBFCPGMP@Command_WarehouseInfo_NeedMaster@
  016d5	68 00 00 00 00	 push	 OFFSET ??_C@_08JNEOMACB@Commands?$AA@
  016da	89 86 44 11 00
	00		 mov	 DWORD PTR [esi+4420], eax
  016e0	ff d7		 call	 edi

; 267  : 	this->m_Data[COMMAND_WAREINFO].iMResets[1]		= GetPrivateProfileInt("Commands", "Command_WarehouseInfo_NeedMasterResetsVip1", NULL, COMMANDS_FILE);

  016e2	68 00 00 00 00	 push	 OFFSET ??_C@_0CE@BMBMBCJB@?4?2Customs?2Commands?2Hgt_Commands?4@
  016e7	6a 00		 push	 0
  016e9	68 00 00 00 00	 push	 OFFSET ??_C@_0CL@HCJAEIBI@Command_WarehouseInfo_NeedMaster@
  016ee	68 00 00 00 00	 push	 OFFSET ??_C@_08JNEOMACB@Commands?$AA@
  016f3	89 86 48 11 00
	00		 mov	 DWORD PTR [esi+4424], eax
  016f9	ff d7		 call	 edi
  016fb	89 86 4c 11 00
	00		 mov	 DWORD PTR [esi+4428], eax

; 268  : 	this->m_Data[COMMAND_WAREINFO].iMResets[2]		= GetPrivateProfileInt("Commands", "Command_WarehouseInfo_NeedMasterResetsVip2", NULL, COMMANDS_FILE);

  01701	68 00 00 00 00	 push	 OFFSET ??_C@_0CE@BMBMBCJB@?4?2Customs?2Commands?2Hgt_Commands?4@
  01706	6a 00		 push	 0
  01708	68 00 00 00 00	 push	 OFFSET ??_C@_0CL@FJLNBLNL@Command_WarehouseInfo_NeedMaster@
  0170d	68 00 00 00 00	 push	 OFFSET ??_C@_08JNEOMACB@Commands?$AA@
  01712	ff d7		 call	 edi

; 269  : 	this->m_Data[COMMAND_WAREINFO].iMResets[3]		= GetPrivateProfileInt("Commands", "Command_WarehouseInfo_NeedMasterResetsVip3", NULL, COMMANDS_FILE);

  01714	68 00 00 00 00	 push	 OFFSET ??_C@_0CE@BMBMBCJB@?4?2Customs?2Commands?2Hgt_Commands?4@
  01719	6a 00		 push	 0
  0171b	68 00 00 00 00	 push	 OFFSET ??_C@_0CL@EAKGCKJK@Command_WarehouseInfo_NeedMaster@
  01720	68 00 00 00 00	 push	 OFFSET ??_C@_08JNEOMACB@Commands?$AA@
  01725	89 86 50 11 00
	00		 mov	 DWORD PTR [esi+4432], eax
  0172b	ff d7		 call	 edi

; 270  : 	// ---
; 271  : 	GetPrivateProfileString("Commands", "Command_EventManager_Sintax_Open", NULL, gEventManager.m_Data.szSintax, sizeof(gEventManager.m_Data.szSintax), COMMANDS_FILE);

  0172d	68 00 00 00 00	 push	 OFFSET ??_C@_0CE@BMBMBCJB@?4?2Customs?2Commands?2Hgt_Commands?4@
  01732	6a 32		 push	 50			; 00000032H
  01734	68 00 00 00 00	 push	 OFFSET ?gEventManager@@3VCEventManager@@A ; gEventManager
  01739	6a 00		 push	 0
  0173b	68 00 00 00 00	 push	 OFFSET ??_C@_0CB@BBMKKDLF@Command_EventManager_Sintax_Open@
  01740	68 00 00 00 00	 push	 OFFSET ??_C@_08JNEOMACB@Commands?$AA@
  01745	89 86 54 11 00
	00		 mov	 DWORD PTR [esi+4436], eax
  0174b	ff d3		 call	 ebx

; 272  : 	GetPrivateProfileString("Commands", "Command_EventManager_Sintax_Enter", NULL, gEventManager.m_Data.szEnter, sizeof(gEventManager.m_Data.szEnter), COMMANDS_FILE);

  0174d	68 00 00 00 00	 push	 OFFSET ??_C@_0CE@BMBMBCJB@?4?2Customs?2Commands?2Hgt_Commands?4@
  01752	6a 32		 push	 50			; 00000032H
  01754	68 32 00 00 00	 push	 OFFSET ?gEventManager@@3VCEventManager@@A+50
  01759	6a 00		 push	 0
  0175b	68 00 00 00 00	 push	 OFFSET ??_C@_0CC@DMKIEDEK@Command_EventManager_Sintax_Ente@
  01760	68 00 00 00 00	 push	 OFFSET ??_C@_08JNEOMACB@Commands?$AA@
  01765	ff d3		 call	 ebx

; 273  : 	// ---
; 274  : 	this->m_Data[COMMAND_EVENT].iEnabled        = GetPrivateProfileInt("Commands", "Command_EventManager_Enabled", NULL, COMMANDS_FILE);

  01767	68 00 00 00 00	 push	 OFFSET ??_C@_0CE@BMBMBCJB@?4?2Customs?2Commands?2Hgt_Commands?4@
  0176c	6a 00		 push	 0
  0176e	68 00 00 00 00	 push	 OFFSET ??_C@_0BN@JJFMLIFH@Command_EventManager_Enabled?$AA@
  01773	68 00 00 00 00	 push	 OFFSET ??_C@_08JNEOMACB@Commands?$AA@
  01778	ff d7		 call	 edi

; 275  : 	this->m_Data[COMMAND_EVENT].iVipOnly[0]     = GetPrivateProfileInt("Commands", "Command_EventManager_SwitchFree", NULL, COMMANDS_FILE);

  0177a	68 00 00 00 00	 push	 OFFSET ??_C@_0CE@BMBMBCJB@?4?2Customs?2Commands?2Hgt_Commands?4@
  0177f	6a 00		 push	 0
  01781	85 c0		 test	 eax, eax
  01783	68 00 00 00 00	 push	 OFFSET ??_C@_0CA@NNLBNOLA@Command_EventManager_SwitchFree?$AA@
  01788	0f 95 c0	 setne	 al
  0178b	68 00 00 00 00	 push	 OFFSET ??_C@_08JNEOMACB@Commands?$AA@
  01790	88 86 b0 16 00
	00		 mov	 BYTE PTR [esi+5808], al
  01796	ff d7		 call	 edi

; 276  : 	this->m_Data[COMMAND_EVENT].iVipOnly[1]     = GetPrivateProfileInt("Commands", "Command_EventManager_SwitchVip1", NULL, COMMANDS_FILE);

  01798	68 00 00 00 00	 push	 OFFSET ??_C@_0CE@BMBMBCJB@?4?2Customs?2Commands?2Hgt_Commands?4@
  0179d	6a 00		 push	 0
  0179f	68 00 00 00 00	 push	 OFFSET ??_C@_0CA@POHDGAGH@Command_EventManager_SwitchVip1?$AA@
  017a4	68 00 00 00 00	 push	 OFFSET ??_C@_08JNEOMACB@Commands?$AA@
  017a9	89 86 b4 16 00
	00		 mov	 DWORD PTR [esi+5812], eax
  017af	ff d7		 call	 edi

; 277  : 	this->m_Data[COMMAND_EVENT].iVipOnly[2]     = GetPrivateProfileInt("Commands", "Command_EventManager_SwitchVip2", NULL, COMMANDS_FILE);

  017b1	68 00 00 00 00	 push	 OFFSET ??_C@_0CE@BMBMBCJB@?4?2Customs?2Commands?2Hgt_Commands?4@
  017b6	6a 00		 push	 0
  017b8	68 00 00 00 00	 push	 OFFSET ??_C@_0CA@NFFODDKE@Command_EventManager_SwitchVip2?$AA@
  017bd	68 00 00 00 00	 push	 OFFSET ??_C@_08JNEOMACB@Commands?$AA@
  017c2	89 86 b8 16 00
	00		 mov	 DWORD PTR [esi+5816], eax
  017c8	ff d7		 call	 edi

; 278  : 	this->m_Data[COMMAND_EVENT].iVipOnly[3]     = GetPrivateProfileInt("Commands", "Command_EventManager_SwitchVip3", NULL, COMMANDS_FILE);

  017ca	68 00 00 00 00	 push	 OFFSET ??_C@_0CE@BMBMBCJB@?4?2Customs?2Commands?2Hgt_Commands?4@
  017cf	6a 00		 push	 0
  017d1	68 00 00 00 00	 push	 OFFSET ??_C@_0CA@MMEFACOF@Command_EventManager_SwitchVip3?$AA@
  017d6	68 00 00 00 00	 push	 OFFSET ??_C@_08JNEOMACB@Commands?$AA@
  017db	89 86 bc 16 00
	00		 mov	 DWORD PTR [esi+5820], eax
  017e1	ff d7		 call	 edi

; 279  : 	this->m_Data[COMMAND_EVENT].iLevel[0]       = GetPrivateProfileInt("Commands", "Command_EventManager_NeedLevelFree", NULL, COMMANDS_FILE);

  017e3	68 00 00 00 00	 push	 OFFSET ??_C@_0CE@BMBMBCJB@?4?2Customs?2Commands?2Hgt_Commands?4@
  017e8	6a 00		 push	 0
  017ea	68 00 00 00 00	 push	 OFFSET ??_C@_0CD@JGAPPHLP@Command_EventManager_NeedLevelFr@
  017ef	68 00 00 00 00	 push	 OFFSET ??_C@_08JNEOMACB@Commands?$AA@
  017f4	89 86 c0 16 00
	00		 mov	 DWORD PTR [esi+5824], eax
  017fa	ff d7		 call	 edi

; 280  : 	this->m_Data[COMMAND_EVENT].iLevel[1]       = GetPrivateProfileInt("Commands", "Command_EventManager_NeedLevelVip1", NULL, COMMANDS_FILE);

  017fc	68 00 00 00 00	 push	 OFFSET ??_C@_0CE@BMBMBCJB@?4?2Customs?2Commands?2Hgt_Commands?4@
  01801	6a 00		 push	 0
  01803	68 00 00 00 00	 push	 OFFSET ??_C@_0CD@LFMNEJGI@Command_EventManager_NeedLevelVi@
  01808	68 00 00 00 00	 push	 OFFSET ??_C@_08JNEOMACB@Commands?$AA@
  0180d	89 86 c4 16 00
	00		 mov	 DWORD PTR [esi+5828], eax
  01813	ff d7		 call	 edi

; 281  : 	this->m_Data[COMMAND_EVENT].iLevel[2]       = GetPrivateProfileInt("Commands", "Command_EventManager_NeedLevelVip2", NULL, COMMANDS_FILE);

  01815	68 00 00 00 00	 push	 OFFSET ??_C@_0CE@BMBMBCJB@?4?2Customs?2Commands?2Hgt_Commands?4@
  0181a	6a 00		 push	 0
  0181c	68 00 00 00 00	 push	 OFFSET ??_C@_0CD@JOOABKKL@Command_EventManager_NeedLevelVi@
  01821	68 00 00 00 00	 push	 OFFSET ??_C@_08JNEOMACB@Commands?$AA@
  01826	89 86 c8 16 00
	00		 mov	 DWORD PTR [esi+5832], eax
  0182c	ff d7		 call	 edi

; 282  : 	this->m_Data[COMMAND_EVENT].iLevel[3]       = GetPrivateProfileInt("Commands", "Command_EventManager_NeedLevelVip3", NULL, COMMANDS_FILE);

  0182e	68 00 00 00 00	 push	 OFFSET ??_C@_0CE@BMBMBCJB@?4?2Customs?2Commands?2Hgt_Commands?4@
  01833	6a 00		 push	 0
  01835	68 00 00 00 00	 push	 OFFSET ??_C@_0CD@IHPLCLOK@Command_EventManager_NeedLevelVi@
  0183a	68 00 00 00 00	 push	 OFFSET ??_C@_08JNEOMACB@Commands?$AA@
  0183f	89 86 cc 16 00
	00		 mov	 DWORD PTR [esi+5836], eax
  01845	ff d7		 call	 edi

; 283  : 	this->m_Data[COMMAND_EVENT].iMoney[0]       = GetPrivateProfileInt("Commands", "Command_EventManager_NeedMoneyFree", NULL, COMMANDS_FILE);

  01847	68 00 00 00 00	 push	 OFFSET ??_C@_0CE@BMBMBCJB@?4?2Customs?2Commands?2Hgt_Commands?4@
  0184c	6a 00		 push	 0
  0184e	68 00 00 00 00	 push	 OFFSET ??_C@_0CD@BAKGKPKJ@Command_EventManager_NeedMoneyFr@
  01853	68 00 00 00 00	 push	 OFFSET ??_C@_08JNEOMACB@Commands?$AA@
  01858	89 86 d0 16 00
	00		 mov	 DWORD PTR [esi+5840], eax
  0185e	ff d7		 call	 edi

; 284  : 	this->m_Data[COMMAND_EVENT].iMoney[1]       = GetPrivateProfileInt("Commands", "Command_EventManager_NeedMoneyVip1", NULL, COMMANDS_FILE);

  01860	68 00 00 00 00	 push	 OFFSET ??_C@_0CE@BMBMBCJB@?4?2Customs?2Commands?2Hgt_Commands?4@
  01865	6a 00		 push	 0
  01867	68 00 00 00 00	 push	 OFFSET ??_C@_0CD@DDGEBBHO@Command_EventManager_NeedMoneyVi@
  0186c	68 00 00 00 00	 push	 OFFSET ??_C@_08JNEOMACB@Commands?$AA@
  01871	89 86 d4 16 00
	00		 mov	 DWORD PTR [esi+5844], eax
  01877	ff d7		 call	 edi

; 285  : 	this->m_Data[COMMAND_EVENT].iMoney[2]       = GetPrivateProfileInt("Commands", "Command_EventManager_NeedMoneyVip2", NULL, COMMANDS_FILE);

  01879	68 00 00 00 00	 push	 OFFSET ??_C@_0CE@BMBMBCJB@?4?2Customs?2Commands?2Hgt_Commands?4@
  0187e	6a 00		 push	 0
  01880	68 00 00 00 00	 push	 OFFSET ??_C@_0CD@BIEJECLN@Command_EventManager_NeedMoneyVi@
  01885	68 00 00 00 00	 push	 OFFSET ??_C@_08JNEOMACB@Commands?$AA@
  0188a	89 86 d8 16 00
	00		 mov	 DWORD PTR [esi+5848], eax
  01890	ff d7		 call	 edi

; 286  : 	this->m_Data[COMMAND_EVENT].iMoney[3]       = GetPrivateProfileInt("Commands", "Command_EventManager_NeedMoneyVip3", NULL, COMMANDS_FILE);

  01892	68 00 00 00 00	 push	 OFFSET ??_C@_0CE@BMBMBCJB@?4?2Customs?2Commands?2Hgt_Commands?4@
  01897	6a 00		 push	 0
  01899	68 00 00 00 00	 push	 OFFSET ??_C@_0CD@BFCHDPM@Command_EventManager_NeedMoneyVi@
  0189e	68 00 00 00 00	 push	 OFFSET ??_C@_08JNEOMACB@Commands?$AA@
  018a3	89 86 dc 16 00
	00		 mov	 DWORD PTR [esi+5852], eax
  018a9	ff d7		 call	 edi

; 287  : 	this->m_Data[COMMAND_EVENT].iResets[0]		= GetPrivateProfileInt("Commands", "Command_EventManager_NeedResetsFree", NULL, COMMANDS_FILE);

  018ab	68 00 00 00 00	 push	 OFFSET ??_C@_0CE@BMBMBCJB@?4?2Customs?2Commands?2Hgt_Commands?4@
  018b0	6a 00		 push	 0
  018b2	68 00 00 00 00	 push	 OFFSET ??_C@_0CE@GMDMKBFN@Command_EventManager_NeedResetsF@
  018b7	68 00 00 00 00	 push	 OFFSET ??_C@_08JNEOMACB@Commands?$AA@
  018bc	89 86 e0 16 00
	00		 mov	 DWORD PTR [esi+5856], eax
  018c2	ff d7		 call	 edi

; 288  : 	this->m_Data[COMMAND_EVENT].iResets[1]		= GetPrivateProfileInt("Commands", "Command_EventManager_NeedResetsVip1", NULL, COMMANDS_FILE);

  018c4	68 00 00 00 00	 push	 OFFSET ??_C@_0CE@BMBMBCJB@?4?2Customs?2Commands?2Hgt_Commands?4@
  018c9	6a 00		 push	 0
  018cb	68 00 00 00 00	 push	 OFFSET ??_C@_0CE@EPPOBPIK@Command_EventManager_NeedResetsV@
  018d0	68 00 00 00 00	 push	 OFFSET ??_C@_08JNEOMACB@Commands?$AA@
  018d5	89 86 e4 16 00
	00		 mov	 DWORD PTR [esi+5860], eax
  018db	ff d7		 call	 edi

; 289  : 	this->m_Data[COMMAND_EVENT].iResets[2]		= GetPrivateProfileInt("Commands", "Command_EventManager_NeedResetsVip2", NULL, COMMANDS_FILE);

  018dd	68 00 00 00 00	 push	 OFFSET ??_C@_0CE@BMBMBCJB@?4?2Customs?2Commands?2Hgt_Commands?4@
  018e2	6a 00		 push	 0
  018e4	68 00 00 00 00	 push	 OFFSET ??_C@_0CE@GENDEMEJ@Command_EventManager_NeedResetsV@
  018e9	68 00 00 00 00	 push	 OFFSET ??_C@_08JNEOMACB@Commands?$AA@
  018ee	89 86 e8 16 00
	00		 mov	 DWORD PTR [esi+5864], eax
  018f4	ff d7		 call	 edi

; 290  : 	this->m_Data[COMMAND_EVENT].iResets[3]		= GetPrivateProfileInt("Commands", "Command_EventManager_NeedResetsVip3", NULL, COMMANDS_FILE);

  018f6	68 00 00 00 00	 push	 OFFSET ??_C@_0CE@BMBMBCJB@?4?2Customs?2Commands?2Hgt_Commands?4@
  018fb	6a 00		 push	 0
  018fd	68 00 00 00 00	 push	 OFFSET ??_C@_0CE@HNMIHNAI@Command_EventManager_NeedResetsV@
  01902	68 00 00 00 00	 push	 OFFSET ??_C@_08JNEOMACB@Commands?$AA@
  01907	89 86 ec 16 00
	00		 mov	 DWORD PTR [esi+5868], eax
  0190d	ff d7		 call	 edi

; 291  : 	this->m_Data[COMMAND_EVENT].iMResets[0]		= GetPrivateProfileInt("Commands", "Command_EventManager_NeedMasterResetsFree", NULL, COMMANDS_FILE);

  0190f	68 00 00 00 00	 push	 OFFSET ??_C@_0CE@BMBMBCJB@?4?2Customs?2Commands?2Hgt_Commands?4@
  01914	6a 00		 push	 0
  01916	68 00 00 00 00	 push	 OFFSET ??_C@_0CK@NLAJBOPE@Command_EventManager_NeedMasterR@
  0191b	68 00 00 00 00	 push	 OFFSET ??_C@_08JNEOMACB@Commands?$AA@
  01920	89 86 f0 16 00
	00		 mov	 DWORD PTR [esi+5872], eax
  01926	ff d7		 call	 edi

; 292  : 	this->m_Data[COMMAND_EVENT].iMResets[1]		= GetPrivateProfileInt("Commands", "Command_EventManager_NeedMasterResetsVip1", NULL, COMMANDS_FILE);

  01928	68 00 00 00 00	 push	 OFFSET ??_C@_0CE@BMBMBCJB@?4?2Customs?2Commands?2Hgt_Commands?4@
  0192d	6a 00		 push	 0
  0192f	68 00 00 00 00	 push	 OFFSET ??_C@_0CK@PIMLKACD@Command_EventManager_NeedMasterR@
  01934	68 00 00 00 00	 push	 OFFSET ??_C@_08JNEOMACB@Commands?$AA@
  01939	89 86 f4 16 00
	00		 mov	 DWORD PTR [esi+5876], eax
  0193f	ff d7		 call	 edi

; 293  : 	this->m_Data[COMMAND_EVENT].iMResets[2]		= GetPrivateProfileInt("Commands", "Command_EventManager_NeedMasterResetsVip2", NULL, COMMANDS_FILE);

  01941	68 00 00 00 00	 push	 OFFSET ??_C@_0CE@BMBMBCJB@?4?2Customs?2Commands?2Hgt_Commands?4@
  01946	6a 00		 push	 0
  01948	68 00 00 00 00	 push	 OFFSET ??_C@_0CK@NDOGPDOA@Command_EventManager_NeedMasterR@
  0194d	68 00 00 00 00	 push	 OFFSET ??_C@_08JNEOMACB@Commands?$AA@
  01952	89 86 f8 16 00
	00		 mov	 DWORD PTR [esi+5880], eax
  01958	ff d7		 call	 edi

; 294  : 	this->m_Data[COMMAND_EVENT].iMResets[3]		= GetPrivateProfileInt("Commands", "Command_EventManager_NeedMasterResetsVip3", NULL, COMMANDS_FILE);

  0195a	68 00 00 00 00	 push	 OFFSET ??_C@_0CE@BMBMBCJB@?4?2Customs?2Commands?2Hgt_Commands?4@
  0195f	6a 00		 push	 0
  01961	68 00 00 00 00	 push	 OFFSET ??_C@_0CK@MKPNMCKB@Command_EventManager_NeedMasterR@
  01966	68 00 00 00 00	 push	 OFFSET ??_C@_08JNEOMACB@Commands?$AA@
  0196b	89 86 fc 16 00
	00		 mov	 DWORD PTR [esi+5884], eax
  01971	ff d7		 call	 edi

; 295  : 	// ---
; 296  : 	GetPrivateProfileString("Commands", "Command_AltClass_Sintax_DW", NULL, this->m_Data[COMMAND_ALTCLASS].szSintaxAlt[0], sizeof(this->m_Data[COMMAND_ALTCLASS].szSintaxAlt[0]), COMMANDS_FILE);

  01973	68 00 00 00 00	 push	 OFFSET ??_C@_0CE@BMBMBCJB@?4?2Customs?2Commands?2Hgt_Commands?4@
  01978	6a 14		 push	 20			; 00000014H
  0197a	8d 8e c8 13 00
	00		 lea	 ecx, DWORD PTR [esi+5064]
  01980	51		 push	 ecx
  01981	6a 00		 push	 0
  01983	68 00 00 00 00	 push	 OFFSET ??_C@_0BL@NIMMIEGB@Command_AltClass_Sintax_DW?$AA@
  01988	68 00 00 00 00	 push	 OFFSET ??_C@_08JNEOMACB@Commands?$AA@
  0198d	89 86 00 17 00
	00		 mov	 DWORD PTR [esi+5888], eax
  01993	ff d3		 call	 ebx

; 297  : 	GetPrivateProfileString("Commands", "Command_AltClass_Sintax_SM", NULL, this->m_Data[COMMAND_ALTCLASS].szSintaxAlt[1], sizeof(this->m_Data[COMMAND_ALTCLASS].szSintaxAlt[1]), COMMANDS_FILE);

  01995	68 00 00 00 00	 push	 OFFSET ??_C@_0CE@BMBMBCJB@?4?2Customs?2Commands?2Hgt_Commands?4@
  0199a	6a 14		 push	 20			; 00000014H
  0199c	8d 96 dc 13 00
	00		 lea	 edx, DWORD PTR [esi+5084]
  019a2	52		 push	 edx
  019a3	6a 00		 push	 0
  019a5	68 00 00 00 00	 push	 OFFSET ??_C@_0BL@HBIIMLEP@Command_AltClass_Sintax_SM?$AA@
  019aa	68 00 00 00 00	 push	 OFFSET ??_C@_08JNEOMACB@Commands?$AA@
  019af	ff d3		 call	 ebx

; 298  : 	GetPrivateProfileString("Commands", "Command_AltClass_Sintax_DK", NULL, this->m_Data[COMMAND_ALTCLASS].szSintaxAlt[2], sizeof(this->m_Data[COMMAND_ALTCLASS].szSintaxAlt[2]), COMMANDS_FILE);

  019b1	68 00 00 00 00	 push	 OFFSET ??_C@_0CE@BMBMBCJB@?4?2Customs?2Commands?2Hgt_Commands?4@
  019b6	6a 14		 push	 20			; 00000014H
  019b8	8d 86 f0 13 00
	00		 lea	 eax, DWORD PTR [esi+5104]
  019be	50		 push	 eax
  019bf	6a 00		 push	 0
  019c1	68 00 00 00 00	 push	 OFFSET ??_C@_0BL@DOLLNJDM@Command_AltClass_Sintax_DK?$AA@
  019c6	68 00 00 00 00	 push	 OFFSET ??_C@_08JNEOMACB@Commands?$AA@
  019cb	ff d3		 call	 ebx

; 299  : 	GetPrivateProfileString("Commands", "Command_AltClass_Sintax_BK", NULL, this->m_Data[COMMAND_ALTCLASS].szSintaxAlt[3], sizeof(this->m_Data[COMMAND_ALTCLASS].szSintaxAlt[3]), COMMANDS_FILE);

  019cd	68 00 00 00 00	 push	 OFFSET ??_C@_0CE@BMBMBCJB@?4?2Customs?2Commands?2Hgt_Commands?4@
  019d2	6a 14		 push	 20			; 00000014H
  019d4	8d 8e 04 14 00
	00		 lea	 ecx, DWORD PTR [esi+5124]
  019da	51		 push	 ecx
  019db	6a 00		 push	 0
  019dd	68 00 00 00 00	 push	 OFFSET ??_C@_0BL@DKDGKFIO@Command_AltClass_Sintax_BK?$AA@
  019e2	68 00 00 00 00	 push	 OFFSET ??_C@_08JNEOMACB@Commands?$AA@
  019e7	ff d3		 call	 ebx

; 300  : 	GetPrivateProfileString("Commands", "Command_AltClass_Sintax_FE", NULL, this->m_Data[COMMAND_ALTCLASS].szSintaxAlt[4], sizeof(this->m_Data[COMMAND_ALTCLASS].szSintaxAlt[4]), COMMANDS_FILE);

  019e9	68 00 00 00 00	 push	 OFFSET ??_C@_0CE@BMBMBCJB@?4?2Customs?2Commands?2Hgt_Commands?4@
  019ee	6a 14		 push	 20			; 00000014H
  019f0	8d 96 18 14 00
	00		 lea	 edx, DWORD PTR [esi+5144]
  019f6	52		 push	 edx
  019f7	6a 00		 push	 0
  019f9	68 00 00 00 00	 push	 OFFSET ??_C@_0BL@KDLMCANM@Command_AltClass_Sintax_FE?$AA@
  019fe	68 00 00 00 00	 push	 OFFSET ??_C@_08JNEOMACB@Commands?$AA@
  01a03	ff d3		 call	 ebx

; 301  : 	GetPrivateProfileString("Commands", "Command_AltClass_Sintax_ME", NULL, this->m_Data[COMMAND_ALTCLASS].szSintaxAlt[5], sizeof(this->m_Data[COMMAND_ALTCLASS].szSintaxAlt[5]), COMMANDS_FILE);

  01a05	68 00 00 00 00	 push	 OFFSET ??_C@_0CE@BMBMBCJB@?4?2Customs?2Commands?2Hgt_Commands?4@
  01a0a	6a 14		 push	 20			; 00000014H
  01a0c	8d 86 2c 14 00
	00		 lea	 eax, DWORD PTR [esi+5164]
  01a12	50		 push	 eax
  01a13	6a 00		 push	 0
  01a15	68 00 00 00 00	 push	 OFFSET ??_C@_0BL@KPOJMPDN@Command_AltClass_Sintax_ME?$AA@
  01a1a	68 00 00 00 00	 push	 OFFSET ??_C@_08JNEOMACB@Commands?$AA@
  01a1f	ff d3		 call	 ebx

; 302  : 	GetPrivateProfileString("Commands", "Command_AltClass_Sintax_MG", NULL, this->m_Data[COMMAND_ALTCLASS].szSintaxAlt[6], sizeof(this->m_Data[COMMAND_ALTCLASS].szSintaxAlt[6]), COMMANDS_FILE);

  01a21	68 00 00 00 00	 push	 OFFSET ??_C@_0CE@BMBMBCJB@?4?2Customs?2Commands?2Hgt_Commands?4@
  01a26	6a 14		 push	 20			; 00000014H
  01a28	8d 8e 40 14 00
	00		 lea	 ecx, DWORD PTR [esi+5184]
  01a2e	51		 push	 ecx
  01a2f	6a 00		 push	 0
  01a31	68 00 00 00 00	 push	 OFFSET ??_C@_0BL@JNNPKNLP@Command_AltClass_Sintax_MG?$AA@
  01a36	68 00 00 00 00	 push	 OFFSET ??_C@_08JNEOMACB@Commands?$AA@
  01a3b	ff d3		 call	 ebx

; 303  : 	GetPrivateProfileString("Commands", "Command_AltClass_Sintax_DL", NULL, this->m_Data[COMMAND_ALTCLASS].szSintaxAlt[7], sizeof(this->m_Data[COMMAND_ALTCLASS].szSintaxAlt[7]), COMMANDS_FILE);

  01a3d	68 00 00 00 00	 push	 OFFSET ??_C@_0CE@BMBMBCJB@?4?2Customs?2Commands?2Hgt_Commands?4@
  01a42	6a 14		 push	 20			; 00000014H
  01a44	8d 96 54 14 00
	00		 lea	 edx, DWORD PTR [esi+5204]
  01a4a	52		 push	 edx
  01a4b	6a 00		 push	 0
  01a4d	68 00 00 00 00	 push	 OFFSET ??_C@_0BL@HBPKEPPL@Command_AltClass_Sintax_DL?$AA@
  01a52	68 00 00 00 00	 push	 OFFSET ??_C@_08JNEOMACB@Commands?$AA@
  01a57	ff d3		 call	 ebx

; 304  : 	// ---
; 305  : 	this->m_Data[COMMAND_ALTCLASS].iEnabled        = GetPrivateProfileInt("Commands", "Command_AltClass_Enabled", NULL, COMMANDS_FILE);

  01a59	68 00 00 00 00	 push	 OFFSET ??_C@_0CE@BMBMBCJB@?4?2Customs?2Commands?2Hgt_Commands?4@
  01a5e	6a 00		 push	 0
  01a60	68 00 00 00 00	 push	 OFFSET ??_C@_0BJ@ELEFHPD@Command_AltClass_Enabled?$AA@
  01a65	68 00 00 00 00	 push	 OFFSET ??_C@_08JNEOMACB@Commands?$AA@
  01a6a	ff d7		 call	 edi

; 306  : 	this->m_Data[COMMAND_ALTCLASS].iVipOnly[0]     = GetPrivateProfileInt("Commands", "Command_AltClass_SwitchFree", NULL, COMMANDS_FILE);

  01a6c	68 00 00 00 00	 push	 OFFSET ??_C@_0CE@BMBMBCJB@?4?2Customs?2Commands?2Hgt_Commands?4@
  01a71	6a 00		 push	 0
  01a73	85 c0		 test	 eax, eax
  01a75	68 00 00 00 00	 push	 OFFSET ??_C@_0BM@HEPHKOPI@Command_AltClass_SwitchFree?$AA@
  01a7a	0f 95 c0	 setne	 al
  01a7d	68 00 00 00 00	 push	 OFFSET ??_C@_08JNEOMACB@Commands?$AA@
  01a82	88 86 e8 12 00
	00		 mov	 BYTE PTR [esi+4840], al
  01a88	ff d7		 call	 edi

; 307  : 	this->m_Data[COMMAND_ALTCLASS].iVipOnly[1]     = GetPrivateProfileInt("Commands", "Command_AltClass_SwitchVip1", NULL, COMMANDS_FILE);

  01a8a	68 00 00 00 00	 push	 OFFSET ??_C@_0CE@BMBMBCJB@?4?2Customs?2Commands?2Hgt_Commands?4@
  01a8f	6a 00		 push	 0
  01a91	68 00 00 00 00	 push	 OFFSET ??_C@_0BM@FHDFBACP@Command_AltClass_SwitchVip1?$AA@
  01a96	68 00 00 00 00	 push	 OFFSET ??_C@_08JNEOMACB@Commands?$AA@
  01a9b	89 86 ec 12 00
	00		 mov	 DWORD PTR [esi+4844], eax
  01aa1	ff d7		 call	 edi

; 308  : 	this->m_Data[COMMAND_ALTCLASS].iVipOnly[2]     = GetPrivateProfileInt("Commands", "Command_AltClass_SwitchVip2", NULL, COMMANDS_FILE);

  01aa3	68 00 00 00 00	 push	 OFFSET ??_C@_0CE@BMBMBCJB@?4?2Customs?2Commands?2Hgt_Commands?4@
  01aa8	6a 00		 push	 0
  01aaa	68 00 00 00 00	 push	 OFFSET ??_C@_0BM@HMBIEDOM@Command_AltClass_SwitchVip2?$AA@
  01aaf	68 00 00 00 00	 push	 OFFSET ??_C@_08JNEOMACB@Commands?$AA@
  01ab4	89 86 f0 12 00
	00		 mov	 DWORD PTR [esi+4848], eax
  01aba	ff d7		 call	 edi

; 309  : 	this->m_Data[COMMAND_ALTCLASS].iVipOnly[3]     = GetPrivateProfileInt("Commands", "Command_AltClass_SwitchVip3", NULL, COMMANDS_FILE);

  01abc	68 00 00 00 00	 push	 OFFSET ??_C@_0CE@BMBMBCJB@?4?2Customs?2Commands?2Hgt_Commands?4@
  01ac1	6a 00		 push	 0
  01ac3	68 00 00 00 00	 push	 OFFSET ??_C@_0BM@GFADHCKN@Command_AltClass_SwitchVip3?$AA@
  01ac8	68 00 00 00 00	 push	 OFFSET ??_C@_08JNEOMACB@Commands?$AA@
  01acd	89 86 f4 12 00
	00		 mov	 DWORD PTR [esi+4852], eax
  01ad3	ff d7		 call	 edi

; 310  : 	this->m_Data[COMMAND_ALTCLASS].iLevel[0]       = GetPrivateProfileInt("Commands", "Command_AltClass_NeedLevelFree", NULL, COMMANDS_FILE);

  01ad5	68 00 00 00 00	 push	 OFFSET ??_C@_0CE@BMBMBCJB@?4?2Customs?2Commands?2Hgt_Commands?4@
  01ada	6a 00		 push	 0
  01adc	68 00 00 00 00	 push	 OFFSET ??_C@_0BP@FIAGLGDN@Command_AltClass_NeedLevelFree?$AA@
  01ae1	68 00 00 00 00	 push	 OFFSET ??_C@_08JNEOMACB@Commands?$AA@
  01ae6	89 86 f8 12 00
	00		 mov	 DWORD PTR [esi+4856], eax
  01aec	ff d7		 call	 edi

; 311  : 	this->m_Data[COMMAND_ALTCLASS].iLevel[1]       = GetPrivateProfileInt("Commands", "Command_AltClass_NeedLevelVip1", NULL, COMMANDS_FILE);

  01aee	68 00 00 00 00	 push	 OFFSET ??_C@_0CE@BMBMBCJB@?4?2Customs?2Commands?2Hgt_Commands?4@
  01af3	6a 00		 push	 0
  01af5	68 00 00 00 00	 push	 OFFSET ??_C@_0BP@HLMEAIOK@Command_AltClass_NeedLevelVip1?$AA@
  01afa	68 00 00 00 00	 push	 OFFSET ??_C@_08JNEOMACB@Commands?$AA@
  01aff	89 86 fc 12 00
	00		 mov	 DWORD PTR [esi+4860], eax
  01b05	ff d7		 call	 edi

; 312  : 	this->m_Data[COMMAND_ALTCLASS].iLevel[2]       = GetPrivateProfileInt("Commands", "Command_AltClass_NeedLevelVip2", NULL, COMMANDS_FILE);

  01b07	68 00 00 00 00	 push	 OFFSET ??_C@_0CE@BMBMBCJB@?4?2Customs?2Commands?2Hgt_Commands?4@
  01b0c	6a 00		 push	 0
  01b0e	68 00 00 00 00	 push	 OFFSET ??_C@_0BP@FAOJFLCJ@Command_AltClass_NeedLevelVip2?$AA@
  01b13	68 00 00 00 00	 push	 OFFSET ??_C@_08JNEOMACB@Commands?$AA@
  01b18	89 86 00 13 00
	00		 mov	 DWORD PTR [esi+4864], eax
  01b1e	ff d7		 call	 edi

; 313  : 	this->m_Data[COMMAND_ALTCLASS].iLevel[3]       = GetPrivateProfileInt("Commands", "Command_AltClass_NeedLevelVip3", NULL, COMMANDS_FILE);

  01b20	68 00 00 00 00	 push	 OFFSET ??_C@_0CE@BMBMBCJB@?4?2Customs?2Commands?2Hgt_Commands?4@
  01b25	6a 00		 push	 0
  01b27	68 00 00 00 00	 push	 OFFSET ??_C@_0BP@EJPCGKGI@Command_AltClass_NeedLevelVip3?$AA@
  01b2c	68 00 00 00 00	 push	 OFFSET ??_C@_08JNEOMACB@Commands?$AA@
  01b31	89 86 04 13 00
	00		 mov	 DWORD PTR [esi+4868], eax
  01b37	ff d7		 call	 edi

; 314  : 	this->m_Data[COMMAND_ALTCLASS].iMoney[0]       = GetPrivateProfileInt("Commands", "Command_AltClass_NeedMoneyFree", NULL, COMMANDS_FILE);

  01b39	68 00 00 00 00	 push	 OFFSET ??_C@_0CE@BMBMBCJB@?4?2Customs?2Commands?2Hgt_Commands?4@
  01b3e	6a 00		 push	 0
  01b40	68 00 00 00 00	 push	 OFFSET ??_C@_0BP@NOKPOOCL@Command_AltClass_NeedMoneyFree?$AA@
  01b45	68 00 00 00 00	 push	 OFFSET ??_C@_08JNEOMACB@Commands?$AA@
  01b4a	89 86 08 13 00
	00		 mov	 DWORD PTR [esi+4872], eax
  01b50	ff d7		 call	 edi

; 315  : 	this->m_Data[COMMAND_ALTCLASS].iMoney[1]       = GetPrivateProfileInt("Commands", "Command_AltClass_NeedMoneyVip1", NULL, COMMANDS_FILE);

  01b52	68 00 00 00 00	 push	 OFFSET ??_C@_0CE@BMBMBCJB@?4?2Customs?2Commands?2Hgt_Commands?4@
  01b57	6a 00		 push	 0
  01b59	68 00 00 00 00	 push	 OFFSET ??_C@_0BP@PNGNFAPM@Command_AltClass_NeedMoneyVip1?$AA@
  01b5e	68 00 00 00 00	 push	 OFFSET ??_C@_08JNEOMACB@Commands?$AA@
  01b63	89 86 0c 13 00
	00		 mov	 DWORD PTR [esi+4876], eax
  01b69	ff d7		 call	 edi

; 316  : 	this->m_Data[COMMAND_ALTCLASS].iMoney[2]       = GetPrivateProfileInt("Commands", "Command_AltClass_NeedMoneyVip2", NULL, COMMANDS_FILE);

  01b6b	68 00 00 00 00	 push	 OFFSET ??_C@_0CE@BMBMBCJB@?4?2Customs?2Commands?2Hgt_Commands?4@
  01b70	6a 00		 push	 0
  01b72	68 00 00 00 00	 push	 OFFSET ??_C@_0BP@NGEAADDP@Command_AltClass_NeedMoneyVip2?$AA@
  01b77	68 00 00 00 00	 push	 OFFSET ??_C@_08JNEOMACB@Commands?$AA@
  01b7c	89 86 10 13 00
	00		 mov	 DWORD PTR [esi+4880], eax
  01b82	ff d7		 call	 edi

; 317  : 	this->m_Data[COMMAND_ALTCLASS].iMoney[3]       = GetPrivateProfileInt("Commands", "Command_AltClass_NeedMoneyVip3", NULL, COMMANDS_FILE);

  01b84	68 00 00 00 00	 push	 OFFSET ??_C@_0CE@BMBMBCJB@?4?2Customs?2Commands?2Hgt_Commands?4@
  01b89	6a 00		 push	 0
  01b8b	68 00 00 00 00	 push	 OFFSET ??_C@_0BP@MPFLDCHO@Command_AltClass_NeedMoneyVip3?$AA@
  01b90	68 00 00 00 00	 push	 OFFSET ??_C@_08JNEOMACB@Commands?$AA@
  01b95	89 86 14 13 00
	00		 mov	 DWORD PTR [esi+4884], eax
  01b9b	ff d7		 call	 edi

; 318  : 	this->m_Data[COMMAND_ALTCLASS].iResets[0]		= GetPrivateProfileInt("Commands", "Command_AltClass_NeedResetsFree", NULL, COMMANDS_FILE);

  01b9d	68 00 00 00 00	 push	 OFFSET ??_C@_0CE@BMBMBCJB@?4?2Customs?2Commands?2Hgt_Commands?4@
  01ba2	6a 00		 push	 0
  01ba4	68 00 00 00 00	 push	 OFFSET ??_C@_0CA@GPEEEKBA@Command_AltClass_NeedResetsFree?$AA@
  01ba9	68 00 00 00 00	 push	 OFFSET ??_C@_08JNEOMACB@Commands?$AA@
  01bae	89 86 18 13 00
	00		 mov	 DWORD PTR [esi+4888], eax
  01bb4	ff d7		 call	 edi

; 319  : 	this->m_Data[COMMAND_ALTCLASS].iResets[1]		= GetPrivateProfileInt("Commands", "Command_AltClass_NeedResetsVip1", NULL, COMMANDS_FILE);

  01bb6	68 00 00 00 00	 push	 OFFSET ??_C@_0CE@BMBMBCJB@?4?2Customs?2Commands?2Hgt_Commands?4@
  01bbb	6a 00		 push	 0
  01bbd	68 00 00 00 00	 push	 OFFSET ??_C@_0CA@EMIGPEMH@Command_AltClass_NeedResetsVip1?$AA@
  01bc2	68 00 00 00 00	 push	 OFFSET ??_C@_08JNEOMACB@Commands?$AA@
  01bc7	89 86 1c 13 00
	00		 mov	 DWORD PTR [esi+4892], eax
  01bcd	ff d7		 call	 edi

; 320  : 	this->m_Data[COMMAND_ALTCLASS].iResets[2]		= GetPrivateProfileInt("Commands", "Command_AltClass_NeedResetsVip2", NULL, COMMANDS_FILE);

  01bcf	68 00 00 00 00	 push	 OFFSET ??_C@_0CE@BMBMBCJB@?4?2Customs?2Commands?2Hgt_Commands?4@
  01bd4	6a 00		 push	 0
  01bd6	68 00 00 00 00	 push	 OFFSET ??_C@_0CA@GHKLKHAE@Command_AltClass_NeedResetsVip2?$AA@
  01bdb	68 00 00 00 00	 push	 OFFSET ??_C@_08JNEOMACB@Commands?$AA@
  01be0	89 86 20 13 00
	00		 mov	 DWORD PTR [esi+4896], eax
  01be6	ff d7		 call	 edi

; 321  : 	this->m_Data[COMMAND_ALTCLASS].iResets[3]		= GetPrivateProfileInt("Commands", "Command_AltClass_NeedResetsVip3", NULL, COMMANDS_FILE);

  01be8	68 00 00 00 00	 push	 OFFSET ??_C@_0CE@BMBMBCJB@?4?2Customs?2Commands?2Hgt_Commands?4@
  01bed	6a 00		 push	 0
  01bef	68 00 00 00 00	 push	 OFFSET ??_C@_0CA@HOLAJGEF@Command_AltClass_NeedResetsVip3?$AA@
  01bf4	68 00 00 00 00	 push	 OFFSET ??_C@_08JNEOMACB@Commands?$AA@
  01bf9	89 86 24 13 00
	00		 mov	 DWORD PTR [esi+4900], eax
  01bff	ff d7		 call	 edi

; 322  : 	this->m_Data[COMMAND_ALTCLASS].iMResets[0]		= GetPrivateProfileInt("Commands", "Command_AltClass_NeedMasterResetsFree", NULL, COMMANDS_FILE);

  01c01	68 00 00 00 00	 push	 OFFSET ??_C@_0CE@BMBMBCJB@?4?2Customs?2Commands?2Hgt_Commands?4@
  01c06	89 86 28 13 00
	00		 mov	 DWORD PTR [esi+4904], eax
  01c0c	6a 00		 push	 0
  01c0e	68 00 00 00 00	 push	 OFFSET ??_C@_0CG@JLAGMHKC@Command_AltClass_NeedMasterReset@
  01c13	68 00 00 00 00	 push	 OFFSET ??_C@_08JNEOMACB@Commands?$AA@
  01c18	ff d7		 call	 edi

; 323  : 	this->m_Data[COMMAND_ALTCLASS].iMResets[1]		= GetPrivateProfileInt("Commands", "Command_AltClass_NeedMasterResetsVip1", NULL, COMMANDS_FILE);

  01c1a	68 00 00 00 00	 push	 OFFSET ??_C@_0CE@BMBMBCJB@?4?2Customs?2Commands?2Hgt_Commands?4@
  01c1f	6a 00		 push	 0
  01c21	68 00 00 00 00	 push	 OFFSET ??_C@_0CG@LIMEHJHF@Command_AltClass_NeedMasterReset@
  01c26	68 00 00 00 00	 push	 OFFSET ??_C@_08JNEOMACB@Commands?$AA@
  01c2b	89 86 2c 13 00
	00		 mov	 DWORD PTR [esi+4908], eax
  01c31	ff d7		 call	 edi

; 324  : 	this->m_Data[COMMAND_ALTCLASS].iMResets[2]		= GetPrivateProfileInt("Commands", "Command_AltClass_NeedMasterResetsVip2", NULL, COMMANDS_FILE);

  01c33	68 00 00 00 00	 push	 OFFSET ??_C@_0CE@BMBMBCJB@?4?2Customs?2Commands?2Hgt_Commands?4@
  01c38	6a 00		 push	 0
  01c3a	68 00 00 00 00	 push	 OFFSET ??_C@_0CG@JDOJCKLG@Command_AltClass_NeedMasterReset@
  01c3f	68 00 00 00 00	 push	 OFFSET ??_C@_08JNEOMACB@Commands?$AA@
  01c44	89 86 30 13 00
	00		 mov	 DWORD PTR [esi+4912], eax
  01c4a	ff d7		 call	 edi

; 325  : 	this->m_Data[COMMAND_ALTCLASS].iMResets[3]		= GetPrivateProfileInt("Commands", "Command_AltClass_NeedMasterResetsVip3", NULL, COMMANDS_FILE);

  01c4c	68 00 00 00 00	 push	 OFFSET ??_C@_0CE@BMBMBCJB@?4?2Customs?2Commands?2Hgt_Commands?4@
  01c51	6a 00		 push	 0
  01c53	68 00 00 00 00	 push	 OFFSET ??_C@_0CG@IKPCBLPH@Command_AltClass_NeedMasterReset@
  01c58	68 00 00 00 00	 push	 OFFSET ??_C@_08JNEOMACB@Commands?$AA@
  01c5d	89 86 34 13 00
	00		 mov	 DWORD PTR [esi+4916], eax
  01c63	ff d7		 call	 edi

; 326  : 	// ---
; 327  : 	GetPrivateProfileString("Commands", "Command_CharInfo_Sintax", NULL, this->m_Data[COMMAND_CHARINFO].szSintax, sizeof(this->m_Data[COMMAND_CHARINFO].szSintax), COMMANDS_FILE);

  01c65	68 00 00 00 00	 push	 OFFSET ??_C@_0CE@BMBMBCJB@?4?2Customs?2Commands?2Hgt_Commands?4@
  01c6a	6a 14		 push	 20			; 00000014H
  01c6c	8d 8e 24 15 00
	00		 lea	 ecx, DWORD PTR [esi+5412]
  01c72	51		 push	 ecx
  01c73	6a 00		 push	 0
  01c75	68 00 00 00 00	 push	 OFFSET ??_C@_0BI@JBAIDPBK@Command_CharInfo_Sintax?$AA@
  01c7a	68 00 00 00 00	 push	 OFFSET ??_C@_08JNEOMACB@Commands?$AA@
  01c7f	89 86 38 13 00
	00		 mov	 DWORD PTR [esi+4920], eax
  01c85	ff d3		 call	 ebx

; 328  : 	// ---
; 329  : 	this->m_Data[COMMAND_CHARINFO].iEnabled        = GetPrivateProfileInt("Commands", "Command_CharInfo_Enabled", NULL, COMMANDS_FILE);

  01c87	68 00 00 00 00	 push	 OFFSET ??_C@_0CE@BMBMBCJB@?4?2Customs?2Commands?2Hgt_Commands?4@
  01c8c	6a 00		 push	 0
  01c8e	68 00 00 00 00	 push	 OFFSET ??_C@_0BJ@HLHDGBMN@Command_CharInfo_Enabled?$AA@
  01c93	68 00 00 00 00	 push	 OFFSET ??_C@_08JNEOMACB@Commands?$AA@
  01c98	ff d7		 call	 edi

; 330  : 	this->m_Data[COMMAND_CHARINFO].iVipOnly[0]     = GetPrivateProfileInt("Commands", "Command_CharInfo_SwitchFree", NULL, COMMANDS_FILE);

  01c9a	68 00 00 00 00	 push	 OFFSET ??_C@_0CE@BMBMBCJB@?4?2Customs?2Commands?2Hgt_Commands?4@
  01c9f	6a 00		 push	 0
  01ca1	85 c0		 test	 eax, eax
  01ca3	68 00 00 00 00	 push	 OFFSET ??_C@_0BM@NGBOKAHL@Command_CharInfo_SwitchFree?$AA@
  01ca8	0f 95 c2	 setne	 dl
  01cab	68 00 00 00 00	 push	 OFFSET ??_C@_08JNEOMACB@Commands?$AA@
  01cb0	88 96 cc 14 00
	00		 mov	 BYTE PTR [esi+5324], dl
  01cb6	ff d7		 call	 edi

; 331  : 	this->m_Data[COMMAND_CHARINFO].iVipOnly[1]     = GetPrivateProfileInt("Commands", "Command_CharInfo_SwitchVip1", NULL, COMMANDS_FILE);

  01cb8	68 00 00 00 00	 push	 OFFSET ??_C@_0CE@BMBMBCJB@?4?2Customs?2Commands?2Hgt_Commands?4@
  01cbd	6a 00		 push	 0
  01cbf	68 00 00 00 00	 push	 OFFSET ??_C@_0BM@PFNMBOKM@Command_CharInfo_SwitchVip1?$AA@
  01cc4	68 00 00 00 00	 push	 OFFSET ??_C@_08JNEOMACB@Commands?$AA@
  01cc9	89 86 d0 14 00
	00		 mov	 DWORD PTR [esi+5328], eax
  01ccf	ff d7		 call	 edi

; 332  : 	this->m_Data[COMMAND_CHARINFO].iVipOnly[2]     = GetPrivateProfileInt("Commands", "Command_CharInfo_SwitchVip2", NULL, COMMANDS_FILE);

  01cd1	68 00 00 00 00	 push	 OFFSET ??_C@_0CE@BMBMBCJB@?4?2Customs?2Commands?2Hgt_Commands?4@
  01cd6	6a 00		 push	 0
  01cd8	68 00 00 00 00	 push	 OFFSET ??_C@_0BM@NOPBENGP@Command_CharInfo_SwitchVip2?$AA@
  01cdd	68 00 00 00 00	 push	 OFFSET ??_C@_08JNEOMACB@Commands?$AA@
  01ce2	89 86 d4 14 00
	00		 mov	 DWORD PTR [esi+5332], eax
  01ce8	ff d7		 call	 edi

; 333  : 	this->m_Data[COMMAND_CHARINFO].iVipOnly[3]     = GetPrivateProfileInt("Commands", "Command_CharInfo_SwitchVip3", NULL, COMMANDS_FILE);

  01cea	68 00 00 00 00	 push	 OFFSET ??_C@_0CE@BMBMBCJB@?4?2Customs?2Commands?2Hgt_Commands?4@
  01cef	6a 00		 push	 0
  01cf1	68 00 00 00 00	 push	 OFFSET ??_C@_0BM@MHOKHMCO@Command_CharInfo_SwitchVip3?$AA@
  01cf6	68 00 00 00 00	 push	 OFFSET ??_C@_08JNEOMACB@Commands?$AA@
  01cfb	89 86 d8 14 00
	00		 mov	 DWORD PTR [esi+5336], eax
  01d01	ff d7		 call	 edi

; 334  : 	this->m_Data[COMMAND_CHARINFO].iLevel[0]       = GetPrivateProfileInt("Commands", "Command_CharInfo_NeedLevelFree", NULL, COMMANDS_FILE);

  01d03	68 00 00 00 00	 push	 OFFSET ??_C@_0CE@BMBMBCJB@?4?2Customs?2Commands?2Hgt_Commands?4@
  01d08	6a 00		 push	 0
  01d0a	68 00 00 00 00	 push	 OFFSET ??_C@_0BP@PMCAGEBE@Command_CharInfo_NeedLevelFree?$AA@
  01d0f	68 00 00 00 00	 push	 OFFSET ??_C@_08JNEOMACB@Commands?$AA@
  01d14	89 86 dc 14 00
	00		 mov	 DWORD PTR [esi+5340], eax
  01d1a	ff d7		 call	 edi

; 335  : 	this->m_Data[COMMAND_CHARINFO].iLevel[1]       = GetPrivateProfileInt("Commands", "Command_CharInfo_NeedLevelVip1", NULL, COMMANDS_FILE);

  01d1c	68 00 00 00 00	 push	 OFFSET ??_C@_0CE@BMBMBCJB@?4?2Customs?2Commands?2Hgt_Commands?4@
  01d21	6a 00		 push	 0
  01d23	68 00 00 00 00	 push	 OFFSET ??_C@_0BP@NPOCNKMD@Command_CharInfo_NeedLevelVip1?$AA@
  01d28	68 00 00 00 00	 push	 OFFSET ??_C@_08JNEOMACB@Commands?$AA@
  01d2d	89 86 e0 14 00
	00		 mov	 DWORD PTR [esi+5344], eax
  01d33	ff d7		 call	 edi

; 336  : 	this->m_Data[COMMAND_CHARINFO].iLevel[2]       = GetPrivateProfileInt("Commands", "Command_CharInfo_NeedLevelVip2", NULL, COMMANDS_FILE);

  01d35	68 00 00 00 00	 push	 OFFSET ??_C@_0CE@BMBMBCJB@?4?2Customs?2Commands?2Hgt_Commands?4@
  01d3a	6a 00		 push	 0
  01d3c	68 00 00 00 00	 push	 OFFSET ??_C@_0BP@PEMPIJAA@Command_CharInfo_NeedLevelVip2?$AA@
  01d41	68 00 00 00 00	 push	 OFFSET ??_C@_08JNEOMACB@Commands?$AA@
  01d46	89 86 e4 14 00
	00		 mov	 DWORD PTR [esi+5348], eax
  01d4c	ff d7		 call	 edi
  01d4e	89 86 e8 14 00
	00		 mov	 DWORD PTR [esi+5352], eax

; 337  : 	this->m_Data[COMMAND_CHARINFO].iLevel[3]       = GetPrivateProfileInt("Commands", "Command_CharInfo_NeedLevelVip3", NULL, COMMANDS_FILE);

  01d54	68 00 00 00 00	 push	 OFFSET ??_C@_0CE@BMBMBCJB@?4?2Customs?2Commands?2Hgt_Commands?4@
  01d59	6a 00		 push	 0
  01d5b	68 00 00 00 00	 push	 OFFSET ??_C@_0BP@ONNELIEB@Command_CharInfo_NeedLevelVip3?$AA@
  01d60	68 00 00 00 00	 push	 OFFSET ??_C@_08JNEOMACB@Commands?$AA@
  01d65	ff d7		 call	 edi

; 338  : 	this->m_Data[COMMAND_CHARINFO].iMoney[0]       = GetPrivateProfileInt("Commands", "Command_CharInfo_NeedMoneyFree", NULL, COMMANDS_FILE);

  01d67	68 00 00 00 00	 push	 OFFSET ??_C@_0CE@BMBMBCJB@?4?2Customs?2Commands?2Hgt_Commands?4@
  01d6c	6a 00		 push	 0
  01d6e	68 00 00 00 00	 push	 OFFSET ??_C@_0BP@HKIJDMAC@Command_CharInfo_NeedMoneyFree?$AA@
  01d73	68 00 00 00 00	 push	 OFFSET ??_C@_08JNEOMACB@Commands?$AA@
  01d78	89 86 ec 14 00
	00		 mov	 DWORD PTR [esi+5356], eax
  01d7e	ff d7		 call	 edi

; 339  : 	this->m_Data[COMMAND_CHARINFO].iMoney[1]       = GetPrivateProfileInt("Commands", "Command_CharInfo_NeedMoneyVip1", NULL, COMMANDS_FILE);

  01d80	68 00 00 00 00	 push	 OFFSET ??_C@_0CE@BMBMBCJB@?4?2Customs?2Commands?2Hgt_Commands?4@
  01d85	6a 00		 push	 0
  01d87	68 00 00 00 00	 push	 OFFSET ??_C@_0BP@FJELICNF@Command_CharInfo_NeedMoneyVip1?$AA@
  01d8c	68 00 00 00 00	 push	 OFFSET ??_C@_08JNEOMACB@Commands?$AA@
  01d91	89 86 f0 14 00
	00		 mov	 DWORD PTR [esi+5360], eax
  01d97	ff d7		 call	 edi

; 340  : 	this->m_Data[COMMAND_CHARINFO].iMoney[2]       = GetPrivateProfileInt("Commands", "Command_CharInfo_NeedMoneyVip2", NULL, COMMANDS_FILE);

  01d99	68 00 00 00 00	 push	 OFFSET ??_C@_0CE@BMBMBCJB@?4?2Customs?2Commands?2Hgt_Commands?4@
  01d9e	6a 00		 push	 0
  01da0	68 00 00 00 00	 push	 OFFSET ??_C@_0BP@HCGGNBBG@Command_CharInfo_NeedMoneyVip2?$AA@
  01da5	68 00 00 00 00	 push	 OFFSET ??_C@_08JNEOMACB@Commands?$AA@
  01daa	89 86 f4 14 00
	00		 mov	 DWORD PTR [esi+5364], eax
  01db0	ff d7		 call	 edi

; 341  : 	this->m_Data[COMMAND_CHARINFO].iMoney[3]       = GetPrivateProfileInt("Commands", "Command_CharInfo_NeedMoneyVip3", NULL, COMMANDS_FILE);

  01db2	68 00 00 00 00	 push	 OFFSET ??_C@_0CE@BMBMBCJB@?4?2Customs?2Commands?2Hgt_Commands?4@
  01db7	6a 00		 push	 0
  01db9	68 00 00 00 00	 push	 OFFSET ??_C@_0BP@GLHNOAFH@Command_CharInfo_NeedMoneyVip3?$AA@
  01dbe	68 00 00 00 00	 push	 OFFSET ??_C@_08JNEOMACB@Commands?$AA@
  01dc3	89 86 f8 14 00
	00		 mov	 DWORD PTR [esi+5368], eax
  01dc9	ff d7		 call	 edi

; 342  : 	this->m_Data[COMMAND_CHARINFO].iResets[0]		= GetPrivateProfileInt("Commands", "Command_CharInfo_NeedResetsFree", NULL, COMMANDS_FILE);

  01dcb	68 00 00 00 00	 push	 OFFSET ??_C@_0CE@BMBMBCJB@?4?2Customs?2Commands?2Hgt_Commands?4@
  01dd0	6a 00		 push	 0
  01dd2	68 00 00 00 00	 push	 OFFSET ??_C@_0CA@CNFCPEKO@Command_CharInfo_NeedResetsFree?$AA@
  01dd7	68 00 00 00 00	 push	 OFFSET ??_C@_08JNEOMACB@Commands?$AA@
  01ddc	89 86 fc 14 00
	00		 mov	 DWORD PTR [esi+5372], eax
  01de2	ff d7		 call	 edi

; 343  : 	this->m_Data[COMMAND_CHARINFO].iResets[1]		= GetPrivateProfileInt("Commands", "Command_CharInfo_NeedResetsVip1", NULL, COMMANDS_FILE);

  01de4	68 00 00 00 00	 push	 OFFSET ??_C@_0CE@BMBMBCJB@?4?2Customs?2Commands?2Hgt_Commands?4@
  01de9	6a 00		 push	 0
  01deb	68 00 00 00 00	 push	 OFFSET ??_C@_0CA@OJAEKHJ@Command_CharInfo_NeedResetsVip1?$AA@
  01df0	68 00 00 00 00	 push	 OFFSET ??_C@_08JNEOMACB@Commands?$AA@
  01df5	89 86 00 15 00
	00		 mov	 DWORD PTR [esi+5376], eax
  01dfb	ff d7		 call	 edi

; 344  : 	this->m_Data[COMMAND_CHARINFO].iResets[2]		= GetPrivateProfileInt("Commands", "Command_CharInfo_NeedResetsVip2", NULL, COMMANDS_FILE);

  01dfd	68 00 00 00 00	 push	 OFFSET ??_C@_0CE@BMBMBCJB@?4?2Customs?2Commands?2Hgt_Commands?4@
  01e02	6a 00		 push	 0
  01e04	68 00 00 00 00	 push	 OFFSET ??_C@_0CA@CFLNBJLK@Command_CharInfo_NeedResetsVip2?$AA@
  01e09	68 00 00 00 00	 push	 OFFSET ??_C@_08JNEOMACB@Commands?$AA@
  01e0e	89 86 04 15 00
	00		 mov	 DWORD PTR [esi+5380], eax
  01e14	ff d7		 call	 edi

; 345  : 	this->m_Data[COMMAND_CHARINFO].iResets[3]		= GetPrivateProfileInt("Commands", "Command_CharInfo_NeedResetsVip3", NULL, COMMANDS_FILE);

  01e16	68 00 00 00 00	 push	 OFFSET ??_C@_0CE@BMBMBCJB@?4?2Customs?2Commands?2Hgt_Commands?4@
  01e1b	6a 00		 push	 0
  01e1d	68 00 00 00 00	 push	 OFFSET ??_C@_0CA@DMKGCIPL@Command_CharInfo_NeedResetsVip3?$AA@
  01e22	68 00 00 00 00	 push	 OFFSET ??_C@_08JNEOMACB@Commands?$AA@
  01e27	89 86 08 15 00
	00		 mov	 DWORD PTR [esi+5384], eax
  01e2d	ff d7		 call	 edi

; 346  : 	this->m_Data[COMMAND_CHARINFO].iMResets[0]		= GetPrivateProfileInt("Commands", "Command_CharInfo_NeedMasterResetsFree", NULL, COMMANDS_FILE);

  01e2f	68 00 00 00 00	 push	 OFFSET ??_C@_0CE@BMBMBCJB@?4?2Customs?2Commands?2Hgt_Commands?4@
  01e34	6a 00		 push	 0
  01e36	68 00 00 00 00	 push	 OFFSET ??_C@_0CG@BCFNFCDP@Command_CharInfo_NeedMasterReset@
  01e3b	68 00 00 00 00	 push	 OFFSET ??_C@_08JNEOMACB@Commands?$AA@
  01e40	89 86 0c 15 00
	00		 mov	 DWORD PTR [esi+5388], eax
  01e46	ff d7		 call	 edi

; 347  : 	this->m_Data[COMMAND_CHARINFO].iMResets[1]		= GetPrivateProfileInt("Commands", "Command_CharInfo_NeedMasterResetsVip1", NULL, COMMANDS_FILE);

  01e48	68 00 00 00 00	 push	 OFFSET ??_C@_0CE@BMBMBCJB@?4?2Customs?2Commands?2Hgt_Commands?4@
  01e4d	6a 00		 push	 0
  01e4f	68 00 00 00 00	 push	 OFFSET ??_C@_0CG@DBJPOMOI@Command_CharInfo_NeedMasterReset@
  01e54	68 00 00 00 00	 push	 OFFSET ??_C@_08JNEOMACB@Commands?$AA@
  01e59	89 86 10 15 00
	00		 mov	 DWORD PTR [esi+5392], eax
  01e5f	ff d7		 call	 edi

; 348  : 	this->m_Data[COMMAND_CHARINFO].iMResets[2]		= GetPrivateProfileInt("Commands", "Command_CharInfo_NeedMasterResetsVip2", NULL, COMMANDS_FILE);

  01e61	68 00 00 00 00	 push	 OFFSET ??_C@_0CE@BMBMBCJB@?4?2Customs?2Commands?2Hgt_Commands?4@
  01e66	6a 00		 push	 0
  01e68	68 00 00 00 00	 push	 OFFSET ??_C@_0CG@BKLCLPCL@Command_CharInfo_NeedMasterReset@
  01e6d	68 00 00 00 00	 push	 OFFSET ??_C@_08JNEOMACB@Commands?$AA@
  01e72	89 86 14 15 00
	00		 mov	 DWORD PTR [esi+5396], eax
  01e78	ff d7		 call	 edi

; 349  : 	this->m_Data[COMMAND_CHARINFO].iMResets[3]		= GetPrivateProfileInt("Commands", "Command_CharInfo_NeedMasterResetsVip3", NULL, COMMANDS_FILE);

  01e7a	68 00 00 00 00	 push	 OFFSET ??_C@_0CE@BMBMBCJB@?4?2Customs?2Commands?2Hgt_Commands?4@
  01e7f	6a 00		 push	 0
  01e81	68 00 00 00 00	 push	 OFFSET ??_C@_0CG@DKJIOGK@Command_CharInfo_NeedMasterReset@
  01e86	68 00 00 00 00	 push	 OFFSET ??_C@_08JNEOMACB@Commands?$AA@
  01e8b	89 86 18 15 00
	00		 mov	 DWORD PTR [esi+5400], eax
  01e91	ff d7		 call	 edi

; 350  : 	// ---
; 351  : 	LogAdd(LOG_GOLD, "[COMMANDS FILE] Carregado !");

  01e93	68 00 00 00 00	 push	 OFFSET ??_C@_0BM@CBACLGEP@?$FLCOMMANDS?5FILE?$FN?5Carregado?5?$CB?$AA@
  01e98	6a 05		 push	 5
  01e9a	89 86 1c 15 00
	00		 mov	 DWORD PTR [esi+5404], eax
  01ea0	e8 00 00 00 00	 call	 ?LogAdd@@YAXW4eLogColor@@PADZZ ; LogAdd
  01ea5	83 c4 08	 add	 esp, 8

; 352  : }

  01ea8	5f		 pop	 edi
  01ea9	5e		 pop	 esi
  01eaa	5b		 pop	 ebx
  01eab	c3		 ret	 0
?Load@CCommands@@QAEXXZ ENDP				; CCommands::Load
_TEXT	ENDS
PUBLIC	??_C@_0CB@MAFGFPFE@?$FL?$CFs?$FN?5Master?5Reset?5Necessario?5?$CFd?4@ ; `string'
PUBLIC	??_C@_0BK@BOMDBELC@?$FL?$CFs?$FN?5Reset?5Necessario?5?$CFd?4?$AA@ ; `string'
PUBLIC	??_C@_0BI@MKCDIMJM@?$FL?$CFs?$FN?5Zen?5Necessario?5?$CFd?4?$AA@ ; `string'
PUBLIC	??_C@_0BK@EJCDFBLH@?$FL?$CFs?$FN?5Level?5Necessario?5?$CFd?4?$AA@ ; `string'
PUBLIC	??_C@_0BH@IBGCOIHP@?$FL?$CFs?$FN?5Vip?5Insuficiente?4?$AA@ ; `string'
PUBLIC	??_C@_0BJ@JBJINFIJ@?$FL?$CFs?$FN?5Comando?5Desativado?4?$AA@ ; `string'
PUBLIC	?IsCheck@CCommands@@QAE_NPAUOBJECTSTRUCT@@H@Z	; CCommands::IsCheck
EXTRN	?GCMoneySend@@YAXHK@Z:PROC			; GCMoneySend
EXTRN	?MsgUser@@YAXHHPADZZ:PROC			; MsgUser
;	COMDAT ??_C@_0CB@MAFGFPFE@?$FL?$CFs?$FN?5Master?5Reset?5Necessario?5?$CFd?4@
CONST	SEGMENT
??_C@_0CB@MAFGFPFE@?$FL?$CFs?$FN?5Master?5Reset?5Necessario?5?$CFd?4@ DB '['
	DB	'%s] Master Reset Necessario %d.', 00H	; `string'
CONST	ENDS
;	COMDAT ??_C@_0BK@BOMDBELC@?$FL?$CFs?$FN?5Reset?5Necessario?5?$CFd?4?$AA@
CONST	SEGMENT
??_C@_0BK@BOMDBELC@?$FL?$CFs?$FN?5Reset?5Necessario?5?$CFd?4?$AA@ DB '[%s'
	DB	'] Reset Necessario %d.', 00H		; `string'
CONST	ENDS
;	COMDAT ??_C@_0BI@MKCDIMJM@?$FL?$CFs?$FN?5Zen?5Necessario?5?$CFd?4?$AA@
CONST	SEGMENT
??_C@_0BI@MKCDIMJM@?$FL?$CFs?$FN?5Zen?5Necessario?5?$CFd?4?$AA@ DB '[%s] '
	DB	'Zen Necessario %d.', 00H			; `string'
CONST	ENDS
;	COMDAT ??_C@_0BK@EJCDFBLH@?$FL?$CFs?$FN?5Level?5Necessario?5?$CFd?4?$AA@
CONST	SEGMENT
??_C@_0BK@EJCDFBLH@?$FL?$CFs?$FN?5Level?5Necessario?5?$CFd?4?$AA@ DB '[%s'
	DB	'] Level Necessario %d.', 00H		; `string'
CONST	ENDS
;	COMDAT ??_C@_0BH@IBGCOIHP@?$FL?$CFs?$FN?5Vip?5Insuficiente?4?$AA@
CONST	SEGMENT
??_C@_0BH@IBGCOIHP@?$FL?$CFs?$FN?5Vip?5Insuficiente?4?$AA@ DB '[%s] Vip I'
	DB	'nsuficiente.', 00H				; `string'
CONST	ENDS
;	COMDAT ??_C@_0BJ@JBJINFIJ@?$FL?$CFs?$FN?5Comando?5Desativado?4?$AA@
CONST	SEGMENT
??_C@_0BJ@JBJINFIJ@?$FL?$CFs?$FN?5Comando?5Desativado?4?$AA@ DB '[%s] Com'
	DB	'ando Desativado.', 00H			; `string'
; Function compile flags: /Ogtp
CONST	ENDS
;	COMDAT ?IsCheck@CCommands@@QAE_NPAUOBJECTSTRUCT@@H@Z
_TEXT	SEGMENT
_lpObj$ = 8						; size = 4
_iCommand$ = 12						; size = 4
?IsCheck@CCommands@@QAE_NPAUOBJECTSTRUCT@@H@Z PROC	; CCommands::IsCheck, COMDAT
; _this$ = ecx

; 355  : {

  00000	55		 push	 ebp
  00001	8b ec		 mov	 ebp, esp

; 356  : 	if(!this->m_Data[iCommand].iEnabled)

  00003	8b 55 0c	 mov	 edx, DWORD PTR _iCommand$[ebp]
  00006	8b c2		 mov	 eax, edx
  00008	69 c0 e4 01 00
	00		 imul	 eax, 484		; 000001e4H
  0000e	80 3c 08 00	 cmp	 BYTE PTR [eax+ecx], 0

; 357  : 	{
; 358  : 		MsgUser(lpObj->m_Index, 1, "[%s] Comando Desativado.", lpObj->Name);

  00012	8b 45 08	 mov	 eax, DWORD PTR _lpObj$[ebp]
  00015	75 1c		 jne	 SHORT $LN6@IsCheck
  00017	8b 10		 mov	 edx, DWORD PTR [eax]
  00019	8d 48 6f	 lea	 ecx, DWORD PTR [eax+111]
  0001c	51		 push	 ecx
  0001d	68 00 00 00 00	 push	 OFFSET ??_C@_0BJ@JBJINFIJ@?$FL?$CFs?$FN?5Comando?5Desativado?4?$AA@
  00022	6a 01		 push	 1
  00024	52		 push	 edx
  00025	e8 00 00 00 00	 call	 ?MsgUser@@YAXHHPADZZ	; MsgUser
  0002a	83 c4 10	 add	 esp, 16			; 00000010H

; 359  : 		return false;

  0002d	32 c0		 xor	 al, al

; 397  : }

  0002f	5d		 pop	 ebp
  00030	c2 08 00	 ret	 8
$LN6@IsCheck:

; 360  : 	}
; 361  : 	// ---
; 362  : 	if(!this->m_Data[iCommand].iVipOnly[lpObj->m_Vip])

  00033	6b d2 79	 imul	 edx, 121		; 00000079H
  00036	03 90 3c 15 00
	00		 add	 edx, DWORD PTR [eax+5436]
  0003c	56		 push	 esi
  0003d	83 7c 91 04 00	 cmp	 DWORD PTR [ecx+edx*4+4], 0
  00042	75 1d		 jne	 SHORT $LN5@IsCheck

; 363  : 	{
; 364  : 		MsgUser(lpObj->m_Index, 1, "[%s] Vip Insuficiente.", lpObj->Name);

  00044	8b 10		 mov	 edx, DWORD PTR [eax]
  00046	8d 48 6f	 lea	 ecx, DWORD PTR [eax+111]
  00049	51		 push	 ecx
  0004a	68 00 00 00 00	 push	 OFFSET ??_C@_0BH@IBGCOIHP@?$FL?$CFs?$FN?5Vip?5Insuficiente?4?$AA@
  0004f	6a 01		 push	 1
  00051	52		 push	 edx
  00052	e8 00 00 00 00	 call	 ?MsgUser@@YAXHHPADZZ	; MsgUser
  00057	83 c4 10	 add	 esp, 16			; 00000010H

; 365  : 		return false;

  0005a	32 c0		 xor	 al, al
  0005c	5e		 pop	 esi

; 397  : }

  0005d	5d		 pop	 ebp
  0005e	c2 08 00	 ret	 8
$LN5@IsCheck:

; 366  : 	}
; 367  : 	// ---
; 368  : 	if(lpObj->Level < this->m_Data[iCommand].iLevel[lpObj->m_Vip])

  00061	8b 74 91 14	 mov	 esi, DWORD PTR [ecx+edx*4+20]
  00065	57		 push	 edi
  00066	0f bf b8 9c 00
	00 00		 movsx	 edi, WORD PTR [eax+156]
  0006d	3b fe		 cmp	 edi, esi
  0006f	7d 1f		 jge	 SHORT $LN4@IsCheck

; 369  : 	{
; 370  : 		MsgUser(lpObj->m_Index, 1, "[%s] Level Necessario %d.", lpObj->Name, this->m_Data[iCommand].iLevel[lpObj->m_Vip]);

  00071	8b 10		 mov	 edx, DWORD PTR [eax]
  00073	56		 push	 esi
  00074	8d 48 6f	 lea	 ecx, DWORD PTR [eax+111]
  00077	51		 push	 ecx
  00078	68 00 00 00 00	 push	 OFFSET ??_C@_0BK@EJCDFBLH@?$FL?$CFs?$FN?5Level?5Necessario?5?$CFd?4?$AA@
  0007d	6a 01		 push	 1
  0007f	52		 push	 edx
  00080	e8 00 00 00 00	 call	 ?MsgUser@@YAXHHPADZZ	; MsgUser
  00085	83 c4 14	 add	 esp, 20			; 00000014H
  00088	5f		 pop	 edi

; 371  : 		return false;

  00089	32 c0		 xor	 al, al
  0008b	5e		 pop	 esi

; 397  : }

  0008c	5d		 pop	 ebp
  0008d	c2 08 00	 ret	 8
$LN4@IsCheck:

; 372  : 	}
; 373  : 	// ---
; 374  : 	if(lpObj->Money < this->m_Data[iCommand].iMoney[lpObj->m_Vip])

  00090	8b 74 91 24	 mov	 esi, DWORD PTR [ecx+edx*4+36]
  00094	53		 push	 ebx
  00095	8b 98 b0 00 00
	00		 mov	 ebx, DWORD PTR [eax+176]
  0009b	3b de		 cmp	 ebx, esi
  0009d	7d 20		 jge	 SHORT $LN3@IsCheck

; 375  : 	{
; 376  : 		MsgUser(lpObj->m_Index, 1, "[%s] Zen Necessario %d.", lpObj->Name, this->m_Data[iCommand].iMoney[lpObj->m_Vip]);

  0009f	8b 10		 mov	 edx, DWORD PTR [eax]
  000a1	56		 push	 esi
  000a2	8d 48 6f	 lea	 ecx, DWORD PTR [eax+111]
  000a5	51		 push	 ecx
  000a6	68 00 00 00 00	 push	 OFFSET ??_C@_0BI@MKCDIMJM@?$FL?$CFs?$FN?5Zen?5Necessario?5?$CFd?4?$AA@
  000ab	6a 01		 push	 1
  000ad	52		 push	 edx
  000ae	e8 00 00 00 00	 call	 ?MsgUser@@YAXHHPADZZ	; MsgUser
  000b3	83 c4 14	 add	 esp, 20			; 00000014H
  000b6	5b		 pop	 ebx
  000b7	5f		 pop	 edi

; 377  : 		return false;

  000b8	32 c0		 xor	 al, al
  000ba	5e		 pop	 esi

; 397  : }

  000bb	5d		 pop	 ebp
  000bc	c2 08 00	 ret	 8
$LN3@IsCheck:

; 378  : 	}
; 379  : 	// ---
; 380  : 	if(lpObj->m_Resets < this->m_Data[iCommand].iResets[lpObj->m_Vip])

  000bf	8b 7c 91 34	 mov	 edi, DWORD PTR [ecx+edx*4+52]
  000c3	39 b8 40 15 00
	00		 cmp	 DWORD PTR [eax+5440], edi
  000c9	7d 20		 jge	 SHORT $LN2@IsCheck

; 381  : 	{
; 382  : 		MsgUser(lpObj->m_Index, 1, "[%s] Reset Necessario %d.", lpObj->Name, this->m_Data[iCommand].iResets[lpObj->m_Vip]);

  000cb	8b 10		 mov	 edx, DWORD PTR [eax]
  000cd	57		 push	 edi
  000ce	8d 48 6f	 lea	 ecx, DWORD PTR [eax+111]
  000d1	51		 push	 ecx
  000d2	68 00 00 00 00	 push	 OFFSET ??_C@_0BK@BOMDBELC@?$FL?$CFs?$FN?5Reset?5Necessario?5?$CFd?4?$AA@
  000d7	6a 01		 push	 1
  000d9	52		 push	 edx
  000da	e8 00 00 00 00	 call	 ?MsgUser@@YAXHHPADZZ	; MsgUser
  000df	83 c4 14	 add	 esp, 20			; 00000014H
  000e2	5b		 pop	 ebx
  000e3	5f		 pop	 edi

; 383  : 		return false;

  000e4	32 c0		 xor	 al, al
  000e6	5e		 pop	 esi

; 397  : }

  000e7	5d		 pop	 ebp
  000e8	c2 08 00	 ret	 8
$LN2@IsCheck:

; 384  : 	}
; 385  : 	// ---
; 386  : 	if(lpObj->m_MasterResets < this->m_Data[iCommand].iMResets[lpObj->m_Vip])

  000eb	8b 4c 91 44	 mov	 ecx, DWORD PTR [ecx+edx*4+68]
  000ef	39 88 44 15 00
	00		 cmp	 DWORD PTR [eax+5444], ecx
  000f5	7d 20		 jge	 SHORT $LN1@IsCheck

; 387  : 	{
; 388  : 		MsgUser(lpObj->m_Index, 1, "[%s] Master Reset Necessario %d.", lpObj->Name, this->m_Data[iCommand].iMResets[lpObj->m_Vip]);

  000f7	8b 10		 mov	 edx, DWORD PTR [eax]
  000f9	51		 push	 ecx
  000fa	8d 48 6f	 lea	 ecx, DWORD PTR [eax+111]
  000fd	51		 push	 ecx
  000fe	68 00 00 00 00	 push	 OFFSET ??_C@_0CB@MAFGFPFE@?$FL?$CFs?$FN?5Master?5Reset?5Necessario?5?$CFd?4@
  00103	6a 01		 push	 1
  00105	52		 push	 edx
  00106	e8 00 00 00 00	 call	 ?MsgUser@@YAXHHPADZZ	; MsgUser
  0010b	83 c4 14	 add	 esp, 20			; 00000014H
  0010e	5b		 pop	 ebx
  0010f	5f		 pop	 edi

; 389  : 		return false;

  00110	32 c0		 xor	 al, al
  00112	5e		 pop	 esi

; 397  : }

  00113	5d		 pop	 ebp
  00114	c2 08 00	 ret	 8
$LN1@IsCheck:

; 390  : 	}
; 391  : 	// ---
; 392  : 	lpObj->Money -= this->m_Data[iCommand].iMoney[lpObj->m_Vip];

  00117	8b cb		 mov	 ecx, ebx
  00119	2b ce		 sub	 ecx, esi
  0011b	89 88 b0 00 00
	00		 mov	 DWORD PTR [eax+176], ecx

; 393  : 	// ---
; 394  : 	GCMoneySend(lpObj->m_Index, lpObj->Money);

  00121	8b 00		 mov	 eax, DWORD PTR [eax]
  00123	51		 push	 ecx
  00124	50		 push	 eax
  00125	e8 00 00 00 00	 call	 ?GCMoneySend@@YAXHK@Z	; GCMoneySend
  0012a	83 c4 08	 add	 esp, 8
  0012d	5b		 pop	 ebx
  0012e	5f		 pop	 edi

; 395  : 	// ---
; 396  : 	return true;

  0012f	b0 01		 mov	 al, 1
  00131	5e		 pop	 esi

; 397  : }

  00132	5d		 pop	 ebp
  00133	c2 08 00	 ret	 8
?IsCheck@CCommands@@QAE_NPAUOBJECTSTRUCT@@H@Z ENDP	; CCommands::IsCheck
_TEXT	ENDS
PUBLIC	??_C@_0BL@OIKAEINO@Skype?5?3?5hugo?4alexandre?4777?$AA@ ; `string'
PUBLIC	??_C@_0CA@DOBHGNDE@Developer?5?3?5Hugo?5Gomes?5?$HM?5HGTeam?$AA@ ; `string'
PUBLIC	??_C@_0BD@EGPNHNEA@Version?5?3?51?40?40?40x?$AA@ ; `string'
PUBLIC	??_C@_0N@CHHNKCBN@eMu?5Season?5I?$AA@		; `string'
PUBLIC	?Info@CCommands@@QAEXH@Z			; CCommands::Info
EXTRN	?GCLevelUpMsgSend@@YAXHH@Z:PROC			; GCLevelUpMsgSend
;	COMDAT ??_C@_0BL@OIKAEINO@Skype?5?3?5hugo?4alexandre?4777?$AA@
CONST	SEGMENT
??_C@_0BL@OIKAEINO@Skype?5?3?5hugo?4alexandre?4777?$AA@ DB 'Skype : hugo.'
	DB	'alexandre.777', 00H				; `string'
CONST	ENDS
;	COMDAT ??_C@_0CA@DOBHGNDE@Developer?5?3?5Hugo?5Gomes?5?$HM?5HGTeam?$AA@
CONST	SEGMENT
??_C@_0CA@DOBHGNDE@Developer?5?3?5Hugo?5Gomes?5?$HM?5HGTeam?$AA@ DB 'Deve'
	DB	'loper : Hugo Gomes | HGTeam', 00H		; `string'
CONST	ENDS
;	COMDAT ??_C@_0BD@EGPNHNEA@Version?5?3?51?40?40?40x?$AA@
CONST	SEGMENT
??_C@_0BD@EGPNHNEA@Version?5?3?51?40?40?40x?$AA@ DB 'Version : 1.0.0.0x', 00H ; `string'
CONST	ENDS
;	COMDAT ??_C@_0N@CHHNKCBN@eMu?5Season?5I?$AA@
CONST	SEGMENT
??_C@_0N@CHHNKCBN@eMu?5Season?5I?$AA@ DB 'eMu Season I', 00H ; `string'
; Function compile flags: /Ogtp
CONST	ENDS
;	COMDAT ?Info@CCommands@@QAEXH@Z
_TEXT	SEGMENT
_aIndex$ = 8						; size = 4
?Info@CCommands@@QAEXH@Z PROC				; CCommands::Info, COMDAT
; _this$ = ecx

; 400  : {

  00000	55		 push	 ebp
  00001	8b ec		 mov	 ebp, esp
  00003	56		 push	 esi

; 401  : 	LPOBJ lpObj = &gObj[aIndex];
; 402  : 	// ---
; 403  : 	MsgUser(aIndex, 0, "eMu Season I");

  00004	8b 75 08	 mov	 esi, DWORD PTR _aIndex$[ebp]
  00007	68 00 00 00 00	 push	 OFFSET ??_C@_0N@CHHNKCBN@eMu?5Season?5I?$AA@
  0000c	6a 00		 push	 0
  0000e	56		 push	 esi
  0000f	e8 00 00 00 00	 call	 ?MsgUser@@YAXHHPADZZ	; MsgUser

; 404  : 	MsgUser(aIndex, 0, "Version : 1.0.0.0x");

  00014	68 00 00 00 00	 push	 OFFSET ??_C@_0BD@EGPNHNEA@Version?5?3?51?40?40?40x?$AA@
  00019	6a 00		 push	 0
  0001b	56		 push	 esi
  0001c	e8 00 00 00 00	 call	 ?MsgUser@@YAXHHPADZZ	; MsgUser

; 405  : 	MsgUser(aIndex, 0, "Developer : Hugo Gomes | HGTeam");

  00021	68 00 00 00 00	 push	 OFFSET ??_C@_0CA@DOBHGNDE@Developer?5?3?5Hugo?5Gomes?5?$HM?5HGTeam?$AA@
  00026	6a 00		 push	 0
  00028	56		 push	 esi
  00029	e8 00 00 00 00	 call	 ?MsgUser@@YAXHHPADZZ	; MsgUser

; 406  : 	MsgUser(aIndex, 0, "Skype : hugo.alexandre.777");

  0002e	68 00 00 00 00	 push	 OFFSET ??_C@_0BL@OIKAEINO@Skype?5?3?5hugo?4alexandre?4777?$AA@
  00033	6a 00		 push	 0
  00035	56		 push	 esi
  00036	e8 00 00 00 00	 call	 ?MsgUser@@YAXHHPADZZ	; MsgUser

; 407  : 	// ---
; 408  : 	GCLevelUpMsgSend(aIndex, true);

  0003b	6a 01		 push	 1
  0003d	56		 push	 esi
  0003e	e8 00 00 00 00	 call	 ?GCLevelUpMsgSend@@YAXHH@Z ; GCLevelUpMsgSend
  00043	83 c4 38	 add	 esp, 56			; 00000038H
  00046	5e		 pop	 esi

; 409  : }

  00047	5d		 pop	 ebp
  00048	c2 04 00	 ret	 4
?Info@CCommands@@QAEXH@Z ENDP				; CCommands::Info
_TEXT	ENDS
PUBLIC	??_C@_0CE@HGNOMOOI@?$CFs?5voc?j?5n?co?5?i?5mais?5um?5serial?5kil@ ; `string'
PUBLIC	??_C@_0BM@OFKBKOIM@?$CFs?5voc?j?5n?co?5?i?5serial?5killer?$AA@ ; `string'
PUBLIC	?PkClear@CCommands@@QAEXH@Z			; CCommands::PkClear
EXTRN	?GCPkLevelSend@@YAXHE@Z:PROC			; GCPkLevelSend
EXTRN	?gObj@@3PAUOBJECTSTRUCT@@A:BYTE			; gObj
;	COMDAT ??_C@_0CE@HGNOMOOI@?$CFs?5voc?j?5n?co?5?i?5mais?5um?5serial?5kil@
CONST	SEGMENT
??_C@_0CE@HGNOMOOI@?$CFs?5voc?j?5n?co?5?i?5mais?5um?5serial?5kil@ DB '%s '
	DB	'voc', 0eaH, ' n', 0e3H, 'o ', 0e9H, ' mais um serial killer', 00H ; `string'
CONST	ENDS
;	COMDAT ??_C@_0BM@OFKBKOIM@?$CFs?5voc?j?5n?co?5?i?5serial?5killer?$AA@
CONST	SEGMENT
??_C@_0BM@OFKBKOIM@?$CFs?5voc?j?5n?co?5?i?5serial?5killer?$AA@ DB '%s voc'
	DB	0eaH, ' n', 0e3H, 'o ', 0e9H, ' serial killer', 00H ; `string'
; Function compile flags: /Ogtp
CONST	ENDS
;	COMDAT ?PkClear@CCommands@@QAEXH@Z
_TEXT	SEGMENT
_aIndex$ = 8						; size = 4
?PkClear@CCommands@@QAEXH@Z PROC			; CCommands::PkClear, COMDAT
; _this$ = ecx

; 470  : {

  00000	55		 push	 ebp
  00001	8b ec		 mov	 ebp, esp
  00003	56		 push	 esi
  00004	57		 push	 edi

; 471  : 	if(this->IsCheck(&gObj[aIndex], COMMAND_PKCLEAR) == false)

  00005	8b 7d 08	 mov	 edi, DWORD PTR _aIndex$[ebp]
  00008	8b f7		 mov	 esi, edi
  0000a	69 f6 64 15 00
	00		 imul	 esi, 5476		; 00001564H
  00010	6a 01		 push	 1
  00012	8d 86 00 00 00
	00		 lea	 eax, DWORD PTR ?gObj@@3PAUOBJECTSTRUCT@@A[esi]
  00018	50		 push	 eax
  00019	e8 00 00 00 00	 call	 ?IsCheck@CCommands@@QAE_NPAUOBJECTSTRUCT@@H@Z ; CCommands::IsCheck
  0001e	84 c0		 test	 al, al
  00020	74 58		 je	 SHORT $LN3@PkClear

; 472  : 	{
; 473  : 		return;
; 474  : 	}
; 475  : 	// ---
; 476  : 	if(gObj[aIndex].m_PK_Level <= 3)

  00022	80 be fd 00 00
	00 03		 cmp	 BYTE PTR ?gObj@@3PAUOBJECTSTRUCT@@A[esi+253], 3
  00029	7f 1d		 jg	 SHORT $LN1@PkClear

; 477  : 	{
; 478  : 		MsgUser(aIndex, 1, "%s voc no  serial killer", gObj[aIndex].Name);

  0002b	8d 8e 6f 00 00
	00		 lea	 ecx, DWORD PTR ?gObj@@3PAUOBJECTSTRUCT@@A[esi+111]
  00031	51		 push	 ecx
  00032	68 00 00 00 00	 push	 OFFSET ??_C@_0BM@OFKBKOIM@?$CFs?5voc?j?5n?co?5?i?5serial?5killer?$AA@
  00037	6a 01		 push	 1
  00039	57		 push	 edi
  0003a	e8 00 00 00 00	 call	 ?MsgUser@@YAXHHPADZZ	; MsgUser
  0003f	83 c4 10	 add	 esp, 16			; 00000010H
  00042	5f		 pop	 edi
  00043	5e		 pop	 esi

; 489  : }

  00044	5d		 pop	 ebp
  00045	c2 04 00	 ret	 4
$LN1@PkClear:

; 479  : 		return;
; 480  : 	}
; 481  : 	// ---
; 482  : 	gObj[aIndex].m_PK_Level	= 0;

  00048	33 c0		 xor	 eax, eax

; 483  : 	gObj[aIndex].m_PK_Time	= 0;
; 484  : 	gObj[aIndex].m_PK_Count	= 0;
; 485  : 	// ---
; 486  : 	GCPkLevelSend(aIndex, gObj[aIndex].m_PK_Level);

  0004a	50		 push	 eax
  0004b	57		 push	 edi
  0004c	88 86 fd 00 00
	00		 mov	 BYTE PTR ?gObj@@3PAUOBJECTSTRUCT@@A[esi+253], al
  00052	89 86 00 01 00
	00		 mov	 DWORD PTR ?gObj@@3PAUOBJECTSTRUCT@@A[esi+256], eax
  00058	88 86 fc 00 00
	00		 mov	 BYTE PTR ?gObj@@3PAUOBJECTSTRUCT@@A[esi+252], al
  0005e	e8 00 00 00 00	 call	 ?GCPkLevelSend@@YAXHE@Z	; GCPkLevelSend

; 487  : 	// ---
; 488  : 	MsgUser(aIndex, 1, "%s voc no  mais um serial killer", gObj[aIndex].Name);

  00063	8d 96 6f 00 00
	00		 lea	 edx, DWORD PTR ?gObj@@3PAUOBJECTSTRUCT@@A[esi+111]
  00069	52		 push	 edx
  0006a	68 00 00 00 00	 push	 OFFSET ??_C@_0CE@HGNOMOOI@?$CFs?5voc?j?5n?co?5?i?5mais?5um?5serial?5kil@
  0006f	6a 01		 push	 1
  00071	57		 push	 edi
  00072	e8 00 00 00 00	 call	 ?MsgUser@@YAXHHPADZZ	; MsgUser
  00077	83 c4 18	 add	 esp, 24			; 00000018H
$LN3@PkClear:
  0007a	5f		 pop	 edi
  0007b	5e		 pop	 esi

; 489  : }

  0007c	5d		 pop	 ebp
  0007d	c2 04 00	 ret	 4
?PkClear@CCommands@@QAEXH@Z ENDP			; CCommands::PkClear
_TEXT	ENDS
PUBLIC	??_C@_0BM@OJOKMMEC@?$CFs?5voc?j?5n?co?5?i?5mais?5um?5Heroi?$AA@ ; `string'
PUBLIC	??_C@_0BE@ENNNCNA@?$CFs?5voc?j?5n?co?5?i?5Heroi?$AA@ ; `string'
PUBLIC	?HeroClear@CCommands@@QAEXH@Z			; CCommands::HeroClear
;	COMDAT ??_C@_0BM@OJOKMMEC@?$CFs?5voc?j?5n?co?5?i?5mais?5um?5Heroi?$AA@
CONST	SEGMENT
??_C@_0BM@OJOKMMEC@?$CFs?5voc?j?5n?co?5?i?5mais?5um?5Heroi?$AA@ DB '%s vo'
	DB	'c', 0eaH, ' n', 0e3H, 'o ', 0e9H, ' mais um Heroi', 00H ; `string'
CONST	ENDS
;	COMDAT ??_C@_0BE@ENNNCNA@?$CFs?5voc?j?5n?co?5?i?5Heroi?$AA@
CONST	SEGMENT
??_C@_0BE@ENNNCNA@?$CFs?5voc?j?5n?co?5?i?5Heroi?$AA@ DB '%s voc', 0eaH, ' '
	DB	'n', 0e3H, 'o ', 0e9H, ' Heroi', 00H		; `string'
; Function compile flags: /Ogtp
CONST	ENDS
;	COMDAT ?HeroClear@CCommands@@QAEXH@Z
_TEXT	SEGMENT
_aIndex$ = 8						; size = 4
?HeroClear@CCommands@@QAEXH@Z PROC			; CCommands::HeroClear, COMDAT
; _this$ = ecx

; 492  : {

  00000	55		 push	 ebp
  00001	8b ec		 mov	 ebp, esp
  00003	56		 push	 esi
  00004	57		 push	 edi

; 493  : 	if(this->IsCheck(&gObj[aIndex], COMMAND_HEROCLEAR) == false)

  00005	8b 7d 08	 mov	 edi, DWORD PTR _aIndex$[ebp]
  00008	8b f7		 mov	 esi, edi
  0000a	69 f6 64 15 00
	00		 imul	 esi, 5476		; 00001564H
  00010	6a 02		 push	 2
  00012	8d 86 00 00 00
	00		 lea	 eax, DWORD PTR ?gObj@@3PAUOBJECTSTRUCT@@A[esi]
  00018	50		 push	 eax
  00019	e8 00 00 00 00	 call	 ?IsCheck@CCommands@@QAE_NPAUOBJECTSTRUCT@@H@Z ; CCommands::IsCheck
  0001e	84 c0		 test	 al, al
  00020	74 5a		 je	 SHORT $LN3@HeroClear

; 494  : 	{
; 495  : 		return;
; 496  : 	}
; 497  : 	// ---
; 498  : 	if(gObj[aIndex].m_PK_Level <= 3)

  00022	80 be fd 00 00
	00 03		 cmp	 BYTE PTR ?gObj@@3PAUOBJECTSTRUCT@@A[esi+253], 3
  00029	7f 1d		 jg	 SHORT $LN1@HeroClear

; 499  : 	{
; 500  : 		MsgUser(aIndex, 1, "%s voc no  Heroi", gObj[aIndex].Name);

  0002b	8d 8e 6f 00 00
	00		 lea	 ecx, DWORD PTR ?gObj@@3PAUOBJECTSTRUCT@@A[esi+111]
  00031	51		 push	 ecx
  00032	68 00 00 00 00	 push	 OFFSET ??_C@_0BE@ENNNCNA@?$CFs?5voc?j?5n?co?5?i?5Heroi?$AA@
  00037	6a 01		 push	 1
  00039	57		 push	 edi
  0003a	e8 00 00 00 00	 call	 ?MsgUser@@YAXHHPADZZ	; MsgUser
  0003f	83 c4 10	 add	 esp, 16			; 00000010H
  00042	5f		 pop	 edi
  00043	5e		 pop	 esi

; 512  : }

  00044	5d		 pop	 ebp
  00045	c2 04 00	 ret	 4
$LN1@HeroClear:

; 501  : 		return;
; 502  : 	}
; 503  : 	// ---
; 504  : 	gObj[aIndex].m_PK_Level		= 0;

  00048	33 c0		 xor	 eax, eax

; 505  : 	gObj[aIndex].m_PK_Time		= 0;
; 506  : 	gObj[aIndex].m_PK_Time		= 0;
; 507  : 	// ---
; 508  : 	GCPkLevelSend(aIndex, gObj[aIndex].m_PK_Level);

  0004a	50		 push	 eax
  0004b	57		 push	 edi
  0004c	88 86 fd 00 00
	00		 mov	 BYTE PTR ?gObj@@3PAUOBJECTSTRUCT@@A[esi+253], al
  00052	89 86 00 01 00
	00		 mov	 DWORD PTR ?gObj@@3PAUOBJECTSTRUCT@@A[esi+256], eax
  00058	e8 00 00 00 00	 call	 ?GCPkLevelSend@@YAXHE@Z	; GCPkLevelSend

; 509  : 	GCPkLevelSend(aIndex, 3);

  0005d	6a 03		 push	 3
  0005f	57		 push	 edi
  00060	e8 00 00 00 00	 call	 ?GCPkLevelSend@@YAXHE@Z	; GCPkLevelSend

; 510  : 	// ---
; 511  : 	MsgUser(aIndex, 1, "%s voc no  mais um Heroi", gObj[aIndex].Name);

  00065	8d 96 6f 00 00
	00		 lea	 edx, DWORD PTR ?gObj@@3PAUOBJECTSTRUCT@@A[esi+111]
  0006b	52		 push	 edx
  0006c	68 00 00 00 00	 push	 OFFSET ??_C@_0BM@OJOKMMEC@?$CFs?5voc?j?5n?co?5?i?5mais?5um?5Heroi?$AA@
  00071	6a 01		 push	 1
  00073	57		 push	 edi
  00074	e8 00 00 00 00	 call	 ?MsgUser@@YAXHHPADZZ	; MsgUser
  00079	83 c4 20	 add	 esp, 32			; 00000020H
$LN3@HeroClear:
  0007c	5f		 pop	 edi
  0007d	5e		 pop	 esi

; 512  : }

  0007e	5d		 pop	 ebp
  0007f	c2 04 00	 ret	 4
?HeroClear@CCommands@@QAEXH@Z ENDP			; CCommands::HeroClear
_TEXT	ENDS
PUBLIC	??_C@_0CB@MIHNEBOF@Voc?j?5j?a?5est?a?5na?5ultima?5evolu?g?co?4@ ; `string'
PUBLIC	??_C@_0BK@FFJGKGHF@Voc?j?5n?co?5possui?5evolu?g?co?4?$AA@ ; `string'
PUBLIC	??_C@_0BO@PGODOPAA@?$CFs?5sua?5evolu?g?co?5teve?5sucesso?$CB?$AA@ ; `string'
PUBLIC	?Evo@CCommands@@QAEXH@Z				; CCommands::Evo
EXTRN	?GCSendQuestPrize@@YAXHEE@Z:PROC		; GCSendQuestPrize
EXTRN	?gObjMakePreviewCharSet@@YAXH@Z:PROC		; gObjMakePreviewCharSet
;	COMDAT ??_C@_0CB@MIHNEBOF@Voc?j?5j?a?5est?a?5na?5ultima?5evolu?g?co?4@
CONST	SEGMENT
??_C@_0CB@MIHNEBOF@Voc?j?5j?a?5est?a?5na?5ultima?5evolu?g?co?4@ DB 'Voc', 0eaH
	DB	' j', 0e1H, ' est', 0e1H, ' na ultima evolu', 0e7H, 0e3H, 'o.', 00H ; `string'
CONST	ENDS
;	COMDAT ??_C@_0BK@FFJGKGHF@Voc?j?5n?co?5possui?5evolu?g?co?4?$AA@
CONST	SEGMENT
??_C@_0BK@FFJGKGHF@Voc?j?5n?co?5possui?5evolu?g?co?4?$AA@ DB 'Voc', 0eaH, ' '
	DB	'n', 0e3H, 'o possui evolu', 0e7H, 0e3H, 'o.', 00H ; `string'
CONST	ENDS
;	COMDAT ??_C@_0BO@PGODOPAA@?$CFs?5sua?5evolu?g?co?5teve?5sucesso?$CB?$AA@
CONST	SEGMENT
??_C@_0BO@PGODOPAA@?$CFs?5sua?5evolu?g?co?5teve?5sucesso?$CB?$AA@ DB '%s '
	DB	'sua evolu', 0e7H, 0e3H, 'o teve sucesso!', 00H ; `string'
; Function compile flags: /Ogtp
CONST	ENDS
;	COMDAT ?Evo@CCommands@@QAEXH@Z
_TEXT	SEGMENT
_aIndex$ = 8						; size = 4
?Evo@CCommands@@QAEXH@Z PROC				; CCommands::Evo, COMDAT
; _this$ = ecx

; 515  : {

  00000	55		 push	 ebp
  00001	8b ec		 mov	 ebp, esp
  00003	53		 push	 ebx

; 516  : 	if(this->IsCheck(&gObj[aIndex], COMMAND_EVO) == false)

  00004	8b 5d 08	 mov	 ebx, DWORD PTR _aIndex$[ebp]
  00007	56		 push	 esi
  00008	8b f3		 mov	 esi, ebx
  0000a	69 f6 64 15 00
	00		 imul	 esi, 5476		; 00001564H
  00010	57		 push	 edi
  00011	6a 03		 push	 3
  00013	8d be 00 00 00
	00		 lea	 edi, DWORD PTR ?gObj@@3PAUOBJECTSTRUCT@@A[esi]
  00019	57		 push	 edi
  0001a	e8 00 00 00 00	 call	 ?IsCheck@CCommands@@QAE_NPAUOBJECTSTRUCT@@H@Z ; CCommands::IsCheck
  0001f	84 c0		 test	 al, al
  00021	0f 84 a1 00 00
	00		 je	 $LN7@Evo

; 517  : 	{
; 518  : 		return;
; 519  : 	}
; 520  : 	// ---
; 521  : 	if(gObj[aIndex].DbClass == 1 || gObj[aIndex].DbClass == 17 || gObj[aIndex].DbClass == 33)

  00027	8a 86 9a 00 00
	00		 mov	 al, BYTE PTR ?gObj@@3PAUOBJECTSTRUCT@@A[esi+154]
  0002d	3c 01		 cmp	 al, 1
  0002f	0f 84 83 00 00
	00		 je	 $LN4@Evo
  00035	3c 11		 cmp	 al, 17			; 00000011H
  00037	74 7f		 je	 SHORT $LN4@Evo
  00039	3c 21		 cmp	 al, 33			; 00000021H
  0003b	74 7b		 je	 SHORT $LN4@Evo

; 524  : 		return;
; 525  : 	}
; 526  : 	// ---
; 527  : 	else if(gObj[aIndex].DbClass == 48 || gObj[aIndex].DbClass == 64)

  0003d	3c 30		 cmp	 al, 48			; 00000030H
  0003f	74 60		 je	 SHORT $LN1@Evo
  00041	3c 40		 cmp	 al, 64			; 00000040H
  00043	74 5c		 je	 SHORT $LN1@Evo

; 530  : 		return;
; 531  : 	}
; 532  : 	// ---
; 533  : 	gObj[aIndex].ChangeUP = 1;
; 534  : 	gObj[aIndex].DbClass |= 1;

  00045	0c 01		 or	 al, 1
  00047	88 86 9a 00 00
	00		 mov	 BYTE PTR ?gObj@@3PAUOBJECTSTRUCT@@A[esi+154], al

; 535  : 	// ---
; 536  : 	gObjMakePreviewCharSet(gObj[aIndex].m_Index);

  0004d	8b 07		 mov	 eax, DWORD PTR [edi]
  0004f	50		 push	 eax
  00050	c6 86 9b 00 00
	00 01		 mov	 BYTE PTR ?gObj@@3PAUOBJECTSTRUCT@@A[esi+155], 1
  00057	e8 00 00 00 00	 call	 ?gObjMakePreviewCharSet@@YAXH@Z ; gObjMakePreviewCharSet

; 537  : 	// ---
; 538  : 	BYTE btClass = (gObj[aIndex].Class << 5) & 0xE0;
; 539  : 	btClass |= (gObj[aIndex].ChangeUP << 4) & 0x10;
; 540  : 	// ---
; 541  : 	GCSendQuestPrize(gObj[aIndex].m_Index, 201, btClass);

  0005c	8a 8e 98 00 00
	00		 mov	 cl, BYTE PTR ?gObj@@3PAUOBJECTSTRUCT@@A[esi+152]
  00062	8a 96 9b 00 00
	00		 mov	 dl, BYTE PTR ?gObj@@3PAUOBJECTSTRUCT@@A[esi+155]
  00068	02 c9		 add	 cl, cl
  0006a	80 e2 01	 and	 dl, 1
  0006d	0a ca		 or	 cl, dl
  0006f	c0 e1 04	 shl	 cl, 4
  00072	0f b6 c1	 movzx	 eax, cl
  00075	8b 0f		 mov	 ecx, DWORD PTR [edi]
  00077	50		 push	 eax
  00078	68 c9 00 00 00	 push	 201			; 000000c9H
  0007d	51		 push	 ecx
  0007e	e8 00 00 00 00	 call	 ?GCSendQuestPrize@@YAXHEE@Z ; GCSendQuestPrize

; 542  : 	// ---
; 543  : 	MsgUser(aIndex, 1, "%s sua evoluo teve sucesso!", gObj[aIndex].Name);

  00083	8d 96 6f 00 00
	00		 lea	 edx, DWORD PTR ?gObj@@3PAUOBJECTSTRUCT@@A[esi+111]
  00089	52		 push	 edx
  0008a	68 00 00 00 00	 push	 OFFSET ??_C@_0BO@PGODOPAA@?$CFs?5sua?5evolu?g?co?5teve?5sucesso?$CB?$AA@
  0008f	6a 01		 push	 1
  00091	53		 push	 ebx
  00092	e8 00 00 00 00	 call	 ?MsgUser@@YAXHHPADZZ	; MsgUser
  00097	83 c4 20	 add	 esp, 32			; 00000020H
  0009a	5f		 pop	 edi
  0009b	5e		 pop	 esi
  0009c	5b		 pop	 ebx

; 544  : }

  0009d	5d		 pop	 ebp
  0009e	c2 04 00	 ret	 4
$LN1@Evo:

; 528  : 	{
; 529  : 		MsgUser(aIndex, 1, "Voc no possui evoluo.");

  000a1	68 00 00 00 00	 push	 OFFSET ??_C@_0BK@FFJGKGHF@Voc?j?5n?co?5possui?5evolu?g?co?4?$AA@
  000a6	6a 01		 push	 1
  000a8	53		 push	 ebx
  000a9	e8 00 00 00 00	 call	 ?MsgUser@@YAXHHPADZZ	; MsgUser
  000ae	83 c4 0c	 add	 esp, 12			; 0000000cH
  000b1	5f		 pop	 edi
  000b2	5e		 pop	 esi
  000b3	5b		 pop	 ebx

; 544  : }

  000b4	5d		 pop	 ebp
  000b5	c2 04 00	 ret	 4
$LN4@Evo:

; 522  : 	{
; 523  : 		MsgUser(aIndex, 1, "Voc j est na ultima evoluo.");

  000b8	68 00 00 00 00	 push	 OFFSET ??_C@_0CB@MIHNEBOF@Voc?j?5j?a?5est?a?5na?5ultima?5evolu?g?co?4@
  000bd	6a 01		 push	 1
  000bf	53		 push	 ebx
  000c0	e8 00 00 00 00	 call	 ?MsgUser@@YAXHHPADZZ	; MsgUser
  000c5	83 c4 0c	 add	 esp, 12			; 0000000cH
$LN7@Evo:
  000c8	5f		 pop	 edi
  000c9	5e		 pop	 esi
  000ca	5b		 pop	 ebx

; 544  : }

  000cb	5d		 pop	 ebp
  000cc	c2 04 00	 ret	 4
?Evo@CCommands@@QAEXH@Z ENDP				; CCommands::Evo
_TEXT	ENDS
PUBLIC	??_C@_0CF@PILNNJGI@Voc?j?5n?co?5pode?5adicionar?5mais?5que@ ; `string'
PUBLIC	??_C@_0BJ@FPMDJCBL@Voc?j?5Adcionou?5?$CFd?5Zen?$CIs?$CJ?4?$AA@ ; `string'
PUBLIC	??_C@_0DC@GPPPCNBM@Voc?j?5n?co?5pode?5adicionar?5valores?5@ ; `string'
PUBLIC	?Money@CCommands@@QAEXHPAD@Z			; CCommands::Money
EXTRN	_atoi:PROC
;	COMDAT ??_C@_0CF@PILNNJGI@Voc?j?5n?co?5pode?5adicionar?5mais?5que@
CONST	SEGMENT
??_C@_0CF@PILNNJGI@Voc?j?5n?co?5pode?5adicionar?5mais?5que@ DB 'Voc', 0eaH
	DB	' n', 0e3H, 'o pode adicionar mais que %d.', 00H ; `string'
CONST	ENDS
;	COMDAT ??_C@_0BJ@FPMDJCBL@Voc?j?5Adcionou?5?$CFd?5Zen?$CIs?$CJ?4?$AA@
CONST	SEGMENT
??_C@_0BJ@FPMDJCBL@Voc?j?5Adcionou?5?$CFd?5Zen?$CIs?$CJ?4?$AA@ DB 'Voc', 0eaH
	DB	' Adcionou %d Zen(s).', 00H			; `string'
CONST	ENDS
;	COMDAT ??_C@_0DC@GPPPCNBM@Voc?j?5n?co?5pode?5adicionar?5valores?5@
CONST	SEGMENT
??_C@_0DC@GPPPCNBM@Voc?j?5n?co?5pode?5adicionar?5valores?5@ DB 'Voc', 0eaH
	DB	' n', 0e3H, 'o pode adicionar valores negativos no zen!', 00H ; `string'
; Function compile flags: /Ogtp
CONST	ENDS
;	COMDAT ?Money@CCommands@@QAEXHPAD@Z
_TEXT	SEGMENT
_aIndex$ = 8						; size = 4
_szMsg$ = 12						; size = 4
?Money@CCommands@@QAEXHPAD@Z PROC			; CCommands::Money, COMDAT
; _this$ = ecx

; 547  : {

  00000	55		 push	 ebp
  00001	8b ec		 mov	 ebp, esp
  00003	53		 push	 ebx

; 548  : 	if(this->IsCheck(&gObj[aIndex], COMMAND_ZEN) == false)

  00004	8b 5d 08	 mov	 ebx, DWORD PTR _aIndex$[ebp]
  00007	56		 push	 esi
  00008	8b f3		 mov	 esi, ebx
  0000a	69 f6 64 15 00
	00		 imul	 esi, 5476		; 00001564H
  00010	6a 04		 push	 4
  00012	8d 86 00 00 00
	00		 lea	 eax, DWORD PTR ?gObj@@3PAUOBJECTSTRUCT@@A[esi]
  00018	50		 push	 eax
  00019	e8 00 00 00 00	 call	 ?IsCheck@CCommands@@QAE_NPAUOBJECTSTRUCT@@H@Z ; CCommands::IsCheck
  0001e	84 c0		 test	 al, al
  00020	0f 84 85 00 00
	00		 je	 $LN1@Money

; 549  : 	{
; 550  : 		return;
; 551  : 	}
; 552  : 	// ---
; 553  : 	int iZenCount = atoi(szMsg);

  00026	8b 4d 0c	 mov	 ecx, DWORD PTR _szMsg$[ebp]
  00029	57		 push	 edi
  0002a	51		 push	 ecx
  0002b	e8 00 00 00 00	 call	 _atoi
  00030	8b f8		 mov	 edi, eax
  00032	83 c4 04	 add	 esp, 4

; 554  : 	// ---
; 555  : 	if(iZenCount < 0)

  00035	85 ff		 test	 edi, edi
  00037	79 17		 jns	 SHORT $LN5@Money

; 556  : 	{
; 557  : 		MsgUser(aIndex, 1, "Voc no pode adicionar valores negativos no zen!");

  00039	68 00 00 00 00	 push	 OFFSET ??_C@_0DC@GPPPCNBM@Voc?j?5n?co?5pode?5adicionar?5valores?5@
  0003e	6a 01		 push	 1
  00040	53		 push	 ebx
  00041	e8 00 00 00 00	 call	 ?MsgUser@@YAXHHPADZZ	; MsgUser
  00046	83 c4 0c	 add	 esp, 12			; 0000000cH
  00049	5f		 pop	 edi
  0004a	5e		 pop	 esi
  0004b	5b		 pop	 ebx

; 574  : 		}
; 575  : 	}
; 576  : }

  0004c	5d		 pop	 ebp
  0004d	c2 08 00	 ret	 8
$LN5@Money:

; 558  : 		return;
; 559  : 	}
; 560  : 	else
; 561  : 	{
; 562  : 		if(gObj[aIndex].Money + iZenCount >= 2000000000 || gObj[aIndex].Money >= 2000000000 || iZenCount >= 2000000000)

  00050	8b 8e b0 00 00
	00		 mov	 ecx, DWORD PTR ?gObj@@3PAUOBJECTSTRUCT@@A[esi+176]
  00056	8d 04 39	 lea	 eax, DWORD PTR [ecx+edi]
  00059	3d 00 94 35 77	 cmp	 eax, 2000000000		; 77359400H
  0005e	7d 35		 jge	 SHORT $LN2@Money
  00060	81 f9 00 94 35
	77		 cmp	 ecx, 2000000000		; 77359400H
  00066	7d 2d		 jge	 SHORT $LN2@Money
  00068	81 ff 00 94 35
	77		 cmp	 edi, 2000000000		; 77359400H
  0006e	7d 25		 jge	 SHORT $LN2@Money

; 565  : 			return;
; 566  : 		}
; 567  : 		else
; 568  : 		{
; 569  : 			gObj[aIndex].Money += iZenCount;
; 570  : 			// ---
; 571  : 			GCMoneySend(aIndex, gObj[aIndex].Money);

  00070	50		 push	 eax
  00071	53		 push	 ebx
  00072	89 86 b0 00 00
	00		 mov	 DWORD PTR ?gObj@@3PAUOBJECTSTRUCT@@A[esi+176], eax
  00078	e8 00 00 00 00	 call	 ?GCMoneySend@@YAXHK@Z	; GCMoneySend

; 572  : 			// ---
; 573  : 			MsgUser(aIndex, 1, "Voc Adcionou %d Zen(s).", iZenCount);

  0007d	57		 push	 edi
  0007e	68 00 00 00 00	 push	 OFFSET ??_C@_0BJ@FPMDJCBL@Voc?j?5Adcionou?5?$CFd?5Zen?$CIs?$CJ?4?$AA@
  00083	6a 01		 push	 1
  00085	53		 push	 ebx
  00086	e8 00 00 00 00	 call	 ?MsgUser@@YAXHHPADZZ	; MsgUser
  0008b	83 c4 18	 add	 esp, 24			; 00000018H
  0008e	5f		 pop	 edi
  0008f	5e		 pop	 esi
  00090	5b		 pop	 ebx

; 574  : 		}
; 575  : 	}
; 576  : }

  00091	5d		 pop	 ebp
  00092	c2 08 00	 ret	 8
$LN2@Money:

; 563  : 		{
; 564  : 			MsgUser(aIndex, 1, "Voc no pode adicionar mais que %d.", 2000000000);

  00095	68 00 94 35 77	 push	 2000000000		; 77359400H
  0009a	68 00 00 00 00	 push	 OFFSET ??_C@_0CF@PILNNJGI@Voc?j?5n?co?5pode?5adicionar?5mais?5que@
  0009f	6a 01		 push	 1
  000a1	53		 push	 ebx
  000a2	e8 00 00 00 00	 call	 ?MsgUser@@YAXHHPADZZ	; MsgUser
  000a7	83 c4 10	 add	 esp, 16			; 00000010H
  000aa	5f		 pop	 edi
$LN1@Money:
  000ab	5e		 pop	 esi
  000ac	5b		 pop	 ebx

; 574  : 		}
; 575  : 	}
; 576  : }

  000ad	5d		 pop	 ebp
  000ae	c2 08 00	 ret	 8
?Money@CCommands@@QAEXHPAD@Z ENDP			; CCommands::Money
_TEXT	ENDS
PUBLIC	??_C@_0BM@DMFMGKCE@?$FL?$CFs?$FN?5Pontos?5redistribuidos?4?$AA@ ; `string'
PUBLIC	?ReAdd@CCommands@@QAEXH@Z			; CCommands::ReAdd
EXTRN	?GCReFillSend@@YAXHHEE@Z:PROC			; GCReFillSend
EXTRN	?gObjSetBP@@YAXH@Z:PROC				; gObjSetBP
EXTRN	?GCManaSend@@YAXHHEEH@Z:PROC			; GCManaSend
EXTRN	?gObjCalCharacter@@YAXH@Z:PROC			; gObjCalCharacter
EXTRN	?Refresh@CToolKit@@QAEXK@Z:PROC			; CToolKit::Refresh
EXTRN	?gToolKit@@3VCToolKit@@A:BYTE			; gToolKit
EXTRN	?DCInfo@@3Vclassdef@@A:BYTE			; DCInfo
EXTRN	__fltused:DWORD
EXTRN	__ftol2_sse:PROC
;	COMDAT ??_C@_0BM@DMFMGKCE@?$FL?$CFs?$FN?5Pontos?5redistribuidos?4?$AA@
CONST	SEGMENT
??_C@_0BM@DMFMGKCE@?$FL?$CFs?$FN?5Pontos?5redistribuidos?4?$AA@ DB '[%s] '
	DB	'Pontos redistribuidos.', 00H		; `string'
; Function compile flags: /Ogtp
CONST	ENDS
;	COMDAT ?ReAdd@CCommands@@QAEXH@Z
_TEXT	SEGMENT
_wLeadership$ = -8					; size = 2
_wEnergy$ = -4						; size = 2
_wVitality$ = 8						; size = 2
_aIndex$ = 8						; size = 4
?ReAdd@CCommands@@QAEXH@Z PROC				; CCommands::ReAdd, COMDAT
; _this$ = ecx

; 579  : {

  00000	55		 push	 ebp
  00001	8b ec		 mov	 ebp, esp
  00003	83 ec 08	 sub	 esp, 8
  00006	56		 push	 esi
  00007	57		 push	 edi

; 580  : 	if(this->IsCheck(&gObj[aIndex], COMMAND_READD) == false)

  00008	8b 7d 08	 mov	 edi, DWORD PTR _aIndex$[ebp]
  0000b	8b f7		 mov	 esi, edi
  0000d	69 f6 64 15 00
	00		 imul	 esi, 5476		; 00001564H
  00013	6a 06		 push	 6
  00015	8d 86 00 00 00
	00		 lea	 eax, DWORD PTR ?gObj@@3PAUOBJECTSTRUCT@@A[esi]
  0001b	50		 push	 eax
  0001c	e8 00 00 00 00	 call	 ?IsCheck@CCommands@@QAE_NPAUOBJECTSTRUCT@@H@Z ; CCommands::IsCheck
  00021	84 c0		 test	 al, al
  00023	0f 84 37 01 00
	00		 je	 $LN2@ReAdd

; 581  : 	{
; 582  : 		return;
; 583  : 	}
; 584  : 	// ---
; 585  : 	WORD wStrength		= DCInfo.DefClass[gObj[aIndex].Class].Strength; 

  00029	0f b7 86 98 00
	00 00		 movzx	 eax, WORD PTR ?gObj@@3PAUOBJECTSTRUCT@@A[esi+152]
  00030	69 c0 60 09 00
	00		 imul	 eax, 2400		; 00000960H
  00036	0f b7 88 08 00
	00 00		 movzx	 ecx, WORD PTR ?DCInfo@@3Vclassdef@@A[eax+8]

; 586  : 	WORD wDexterity		= DCInfo.DefClass[gObj[aIndex].Class].Dexterity; 

  0003d	0f b7 90 0a 00
	00 00		 movzx	 edx, WORD PTR ?DCInfo@@3Vclassdef@@A[eax+10]
  00044	53		 push	 ebx

; 587  : 	WORD wVitality		= DCInfo.DefClass[gObj[aIndex].Class].Vitality; 

  00045	0f b7 98 0c 00
	00 00		 movzx	 ebx, WORD PTR ?DCInfo@@3Vclassdef@@A[eax+12]
  0004c	89 5d 08	 mov	 DWORD PTR _wVitality$[ebp], ebx

; 588  : 	WORD wEnergy		= DCInfo.DefClass[gObj[aIndex].Class].Energy;

  0004f	0f b7 98 0e 00
	00 00		 movzx	 ebx, WORD PTR ?DCInfo@@3Vclassdef@@A[eax+14]

; 589  : 	WORD wLeadership	= DCInfo.DefClass[gObj[aIndex].Class].Leadership;

  00056	0f b7 80 60 09
	00 00		 movzx	 eax, WORD PTR ?DCInfo@@3Vclassdef@@A[eax+2400]
  0005d	89 5d fc	 mov	 DWORD PTR _wEnergy$[ebp], ebx

; 590  : 	// ---
; 591  : 	gObj[aIndex].LevelUpPoint += (gObj[aIndex].Strength - wStrength) + (gObj[aIndex].Dexterity - wDexterity) + (gObj[aIndex].Vitality - wVitality) + (gObj[aIndex].Energy - wEnergy) + (gObj[aIndex].Leadership - wLeadership);

  00060	0f b7 9e d8 00
	00 00		 movzx	 ebx, WORD PTR ?gObj@@3PAUOBJECTSTRUCT@@A[esi+216]
  00067	89 45 f8	 mov	 DWORD PTR _wLeadership$[ebp], eax
  0006a	0f b7 c0	 movzx	 eax, ax
  0006d	2b d8		 sub	 ebx, eax
  0006f	0f b7 45 fc	 movzx	 eax, WORD PTR _wEnergy$[ebp]
  00073	2b d8		 sub	 ebx, eax
  00075	0f b7 45 08	 movzx	 eax, WORD PTR _wVitality$[ebp]
  00079	2b d8		 sub	 ebx, eax
  0007b	0f b7 86 ba 00
	00 00		 movzx	 eax, WORD PTR ?gObj@@3PAUOBJECTSTRUCT@@A[esi+186]
  00082	2b da		 sub	 ebx, edx
  00084	2b d9		 sub	 ebx, ecx
  00086	03 d8		 add	 ebx, eax
  00088	0f b7 86 b4 00
	00 00		 movzx	 eax, WORD PTR ?gObj@@3PAUOBJECTSTRUCT@@A[esi+180]
  0008f	03 d8		 add	 ebx, eax
  00091	0f b7 86 b6 00
	00 00		 movzx	 eax, WORD PTR ?gObj@@3PAUOBJECTSTRUCT@@A[esi+182]
  00098	03 d8		 add	 ebx, eax
  0009a	0f b7 86 b8 00
	00 00		 movzx	 eax, WORD PTR ?gObj@@3PAUOBJECTSTRUCT@@A[esi+184]

; 592  : 	// ---
; 593  : 	gObj[aIndex].Strength		= wStrength; 

  000a1	66 89 8e b4 00
	00 00		 mov	 WORD PTR ?gObj@@3PAUOBJECTSTRUCT@@A[esi+180], cx

; 594  : 	gObj[aIndex].Dexterity		= wDexterity; 
; 595  : 	gObj[aIndex].Vitality		= wVitality; 

  000a8	66 8b 4d 08	 mov	 cx, WORD PTR _wVitality$[ebp]
  000ac	03 d8		 add	 ebx, eax

; 596  : 	gObj[aIndex].Energy			= wEnergy;
; 597  : 	gObj[aIndex].Leadership		= wLeadership;

  000ae	66 8b 45 f8	 mov	 ax, WORD PTR _wLeadership$[ebp]
  000b2	01 9e a0 00 00
	00		 add	 DWORD PTR ?gObj@@3PAUOBJECTSTRUCT@@A[esi+160], ebx
  000b8	66 89 96 b6 00
	00 00		 mov	 WORD PTR ?gObj@@3PAUOBJECTSTRUCT@@A[esi+182], dx
  000bf	66 8b 55 fc	 mov	 dx, WORD PTR _wEnergy$[ebp]
  000c3	66 89 8e b8 00
	00 00		 mov	 WORD PTR ?gObj@@3PAUOBJECTSTRUCT@@A[esi+184], cx

; 598  : 	// ---
; 599  : 	gToolKit.Refresh(aIndex);

  000ca	57		 push	 edi
  000cb	b9 00 00 00 00	 mov	 ecx, OFFSET ?gToolKit@@3VCToolKit@@A ; gToolKit
  000d0	66 89 96 ba 00
	00 00		 mov	 WORD PTR ?gObj@@3PAUOBJECTSTRUCT@@A[esi+186], dx
  000d7	66 89 86 d8 00
	00 00		 mov	 WORD PTR ?gObj@@3PAUOBJECTSTRUCT@@A[esi+216], ax
  000de	e8 00 00 00 00	 call	 ?Refresh@CToolKit@@QAEXK@Z ; CToolKit::Refresh

; 600  : 	// ---
; 601  : 	gObjCalCharacter(aIndex);

  000e3	57		 push	 edi
  000e4	e8 00 00 00 00	 call	 ?gObjCalCharacter@@YAXH@Z ; gObjCalCharacter

; 602  : 	// ---
; 603  : 	GCManaSend(aIndex, gObj[aIndex].MaxMana + gObj[aIndex].AddMana, 0xFE, 0, gObj[aIndex].MaxBP + gObj[aIndex].AddBP);

  000e9	8b 8e f0 00 00
	00		 mov	 ecx, DWORD PTR ?gObj@@3PAUOBJECTSTRUCT@@A[esi+240]
  000ef	db 86 10 01 00
	00		 fild	 DWORD PTR ?gObj@@3PAUOBJECTSTRUCT@@A[esi+272]
  000f5	03 8e ec 00 00
	00		 add	 ecx, DWORD PTR ?gObj@@3PAUOBJECTSTRUCT@@A[esi+236]
  000fb	83 c4 04	 add	 esp, 4
  000fe	d8 86 d4 00 00
	00		 fadd	 DWORD PTR ?gObj@@3PAUOBJECTSTRUCT@@A[esi+212]
  00104	51		 push	 ecx
  00105	6a 00		 push	 0
  00107	68 fe 00 00 00	 push	 254			; 000000feH
  0010c	e8 00 00 00 00	 call	 __ftol2_sse
  00111	50		 push	 eax
  00112	57		 push	 edi
  00113	e8 00 00 00 00	 call	 ?GCManaSend@@YAXHHEEH@Z	; GCManaSend

; 604  : 	// ---
; 605  : 	gObjSetBP(aIndex);

  00118	57		 push	 edi
  00119	e8 00 00 00 00	 call	 ?gObjSetBP@@YAXH@Z	; gObjSetBP

; 606  : 	// ---
; 607  : 	GCReFillSend(aIndex, gObj[aIndex].MaxLife + gObj[aIndex].AddLife, 0xFE, 0);

  0011e	db 86 0c 01 00
	00		 fild	 DWORD PTR ?gObj@@3PAUOBJECTSTRUCT@@A[esi+268]
  00124	83 c4 18	 add	 esp, 24			; 00000018H
  00127	6a 00		 push	 0
  00129	d8 86 c0 00 00
	00		 fadd	 DWORD PTR ?gObj@@3PAUOBJECTSTRUCT@@A[esi+192]
  0012f	68 fe 00 00 00	 push	 254			; 000000feH
  00134	e8 00 00 00 00	 call	 __ftol2_sse
  00139	50		 push	 eax
  0013a	57		 push	 edi
  0013b	e8 00 00 00 00	 call	 ?GCReFillSend@@YAXHHEE@Z ; GCReFillSend

; 608  : 	// ---
; 609  : 	GCLevelUpMsgSend(aIndex, true);

  00140	6a 01		 push	 1
  00142	57		 push	 edi
  00143	e8 00 00 00 00	 call	 ?GCLevelUpMsgSend@@YAXHH@Z ; GCLevelUpMsgSend

; 610  : 	// ---
; 611  : 	MsgUser(aIndex, 1, "[%s] Pontos redistribuidos.", gObj[aIndex].Name);

  00148	8d 96 6f 00 00
	00		 lea	 edx, DWORD PTR ?gObj@@3PAUOBJECTSTRUCT@@A[esi+111]
  0014e	52		 push	 edx
  0014f	68 00 00 00 00	 push	 OFFSET ??_C@_0BM@DMFMGKCE@?$FL?$CFs?$FN?5Pontos?5redistribuidos?4?$AA@
  00154	6a 01		 push	 1
  00156	57		 push	 edi
  00157	e8 00 00 00 00	 call	 ?MsgUser@@YAXHHPADZZ	; MsgUser
  0015c	83 c4 28	 add	 esp, 40			; 00000028H
  0015f	5b		 pop	 ebx
$LN2@ReAdd:
  00160	5f		 pop	 edi
  00161	5e		 pop	 esi

; 612  : }

  00162	8b e5		 mov	 esp, ebp
  00164	5d		 pop	 ebp
  00165	c2 04 00	 ret	 4
?ReAdd@CCommands@@QAEXH@Z ENDP				; CCommands::ReAdd
_TEXT	ENDS
PUBLIC	??_C@_0CK@HNIHBFOF@?$FL?$CFs?$FN?5Voc?j?5N?co?5tem?5Pontos?5para?5ad@ ; `string'
PUBLIC	??_C@_0BM@CDAPGOFH@?$FL?$CFs?$FN?5Somente?5Para?5Dark?5Lord?$AA@ ; `string'
PUBLIC	??_C@_07CGELAPEJ@Comando?$AA@			; `string'
PUBLIC	??_C@_0BM@NOKPLFDH@?$FL?$CFs?$FN?5Limite?5?$CFd?5em?5Carisma?5?$CB?$AA@ ; `string'
PUBLIC	??_C@_07GGBDJDBC@Energia?$AA@			; `string'
PUBLIC	??_C@_0BM@HCGIBMOK@?$FL?$CFs?$FN?5Limite?5?$CFd?5em?5Energia?5?$CB?$AA@ ; `string'
PUBLIC	??_C@_0L@EDBOIBME@Vitalidade?$AA@		; `string'
PUBLIC	??_C@_0BP@ODIPAIPA@?$FL?$CFs?$FN?5Limite?5?$CFd?5em?5Vitalidade?5?$CB?$AA@ ; `string'
PUBLIC	??_C@_09EBDKGJBM@Agilidade?$AA@			; `string'
PUBLIC	??_C@_0BO@MPGPFIME@?$FL?$CFs?$FN?5Limite?5?$CFd?5em?5Agilidade?5?$CB?$AA@ ; `string'
PUBLIC	??_C@_0CC@DINONNLC@?$FL?$CFs?$FN?5?$CFd?5Ponto?$CIs?$CJ?5Adcionados?5em?5?$CF@ ; `string'
PUBLIC	??_C@_05JNCDKDGF@For?ga?$AA@			; `string'
PUBLIC	??_C@_0BK@HFOCDHLN@?$FL?$CFs?$FN?5Limite?5?$CFd?5em?5For?ga?5?$CB?$AA@ ; `string'
PUBLIC	??_C@_00CNPNBAHC@?$AA@				; `string'
PUBLIC	??_C@_0DC@ODHDLKGF@?$FL?$CFs?$FN?5Voc?j?5n?co?5pode?5adicionar?5mai@ ; `string'
PUBLIC	?Add@CCommands@@QAEXHPADE@Z			; CCommands::Add
EXTRN	?gServerInfo@@3VCServerInfo@@A:BYTE		; gServerInfo
;	COMDAT ??_C@_0CK@HNIHBFOF@?$FL?$CFs?$FN?5Voc?j?5N?co?5tem?5Pontos?5para?5ad@
CONST	SEGMENT
??_C@_0CK@HNIHBFOF@?$FL?$CFs?$FN?5Voc?j?5N?co?5tem?5Pontos?5para?5ad@ DB '['
	DB	'%s] Voc', 0eaH, ' N', 0e3H, 'o tem Pontos para adicionar !', 00H ; `string'
CONST	ENDS
;	COMDAT ??_C@_0BM@CDAPGOFH@?$FL?$CFs?$FN?5Somente?5Para?5Dark?5Lord?$AA@
CONST	SEGMENT
??_C@_0BM@CDAPGOFH@?$FL?$CFs?$FN?5Somente?5Para?5Dark?5Lord?$AA@ DB '[%s]'
	DB	' Somente Para Dark Lord', 00H		; `string'
CONST	ENDS
;	COMDAT ??_C@_07CGELAPEJ@Comando?$AA@
CONST	SEGMENT
??_C@_07CGELAPEJ@Comando?$AA@ DB 'Comando', 00H		; `string'
CONST	ENDS
;	COMDAT ??_C@_0BM@NOKPLFDH@?$FL?$CFs?$FN?5Limite?5?$CFd?5em?5Carisma?5?$CB?$AA@
CONST	SEGMENT
??_C@_0BM@NOKPLFDH@?$FL?$CFs?$FN?5Limite?5?$CFd?5em?5Carisma?5?$CB?$AA@ DB '['
	DB	'%s] Limite %d em Carisma !', 00H		; `string'
CONST	ENDS
;	COMDAT ??_C@_07GGBDJDBC@Energia?$AA@
CONST	SEGMENT
??_C@_07GGBDJDBC@Energia?$AA@ DB 'Energia', 00H		; `string'
CONST	ENDS
;	COMDAT ??_C@_0BM@HCGIBMOK@?$FL?$CFs?$FN?5Limite?5?$CFd?5em?5Energia?5?$CB?$AA@
CONST	SEGMENT
??_C@_0BM@HCGIBMOK@?$FL?$CFs?$FN?5Limite?5?$CFd?5em?5Energia?5?$CB?$AA@ DB '['
	DB	'%s] Limite %d em Energia !', 00H		; `string'
CONST	ENDS
;	COMDAT ??_C@_0L@EDBOIBME@Vitalidade?$AA@
CONST	SEGMENT
??_C@_0L@EDBOIBME@Vitalidade?$AA@ DB 'Vitalidade', 00H	; `string'
CONST	ENDS
;	COMDAT ??_C@_0BP@ODIPAIPA@?$FL?$CFs?$FN?5Limite?5?$CFd?5em?5Vitalidade?5?$CB?$AA@
CONST	SEGMENT
??_C@_0BP@ODIPAIPA@?$FL?$CFs?$FN?5Limite?5?$CFd?5em?5Vitalidade?5?$CB?$AA@ DB '['
	DB	'%s] Limite %d em Vitalidade !', 00H		; `string'
CONST	ENDS
;	COMDAT ??_C@_09EBDKGJBM@Agilidade?$AA@
CONST	SEGMENT
??_C@_09EBDKGJBM@Agilidade?$AA@ DB 'Agilidade', 00H	; `string'
CONST	ENDS
;	COMDAT ??_C@_0BO@MPGPFIME@?$FL?$CFs?$FN?5Limite?5?$CFd?5em?5Agilidade?5?$CB?$AA@
CONST	SEGMENT
??_C@_0BO@MPGPFIME@?$FL?$CFs?$FN?5Limite?5?$CFd?5em?5Agilidade?5?$CB?$AA@ DB '['
	DB	'%s] Limite %d em Agilidade !', 00H		; `string'
CONST	ENDS
;	COMDAT ??_C@_0CC@DINONNLC@?$FL?$CFs?$FN?5?$CFd?5Ponto?$CIs?$CJ?5Adcionados?5em?5?$CF@
CONST	SEGMENT
??_C@_0CC@DINONNLC@?$FL?$CFs?$FN?5?$CFd?5Ponto?$CIs?$CJ?5Adcionados?5em?5?$CF@ DB '['
	DB	'%s] %d Ponto(s) Adcionados em %s', 00H	; `string'
CONST	ENDS
;	COMDAT ??_C@_05JNCDKDGF@For?ga?$AA@
CONST	SEGMENT
??_C@_05JNCDKDGF@For?ga?$AA@ DB 'For', 0e7H, 'a', 00H	; `string'
CONST	ENDS
;	COMDAT ??_C@_0BK@HFOCDHLN@?$FL?$CFs?$FN?5Limite?5?$CFd?5em?5For?ga?5?$CB?$AA@
CONST	SEGMENT
??_C@_0BK@HFOCDHLN@?$FL?$CFs?$FN?5Limite?5?$CFd?5em?5For?ga?5?$CB?$AA@ DB '['
	DB	'%s] Limite %d em For', 0e7H, 'a !', 00H	; `string'
CONST	ENDS
;	COMDAT ??_C@_00CNPNBAHC@?$AA@
CONST	SEGMENT
??_C@_00CNPNBAHC@?$AA@ DB 00H				; `string'
CONST	ENDS
;	COMDAT ??_C@_0DC@ODHDLKGF@?$FL?$CFs?$FN?5Voc?j?5n?co?5pode?5adicionar?5mai@
CONST	SEGMENT
??_C@_0DC@ODHDLKGF@?$FL?$CFs?$FN?5Voc?j?5n?co?5pode?5adicionar?5mai@ DB '['
	DB	'%s] Voc', 0eaH, ' n', 0e3H, 'o pode adicionar mais que %s pon'
	DB	'tos !', 00H					; `string'
; Function compile flags: /Ogtp
CONST	ENDS
;	COMDAT ?Add@CCommands@@QAEXHPADE@Z
_TEXT	SEGMENT
_aIndex$ = 8						; size = 4
_iPoints$ = 12						; size = 4
_szMsg$ = 12						; size = 4
_btType$ = 16						; size = 1
?Add@CCommands@@QAEXHPADE@Z PROC			; CCommands::Add, COMDAT
; _this$ = ecx

; 615  : {

  00000	55		 push	 ebp
  00001	8b ec		 mov	 ebp, esp
  00003	53		 push	 ebx

; 616  : 	if(this->IsCheck(&gObj[aIndex], COMMAND_ADD) == false)

  00004	8b 5d 08	 mov	 ebx, DWORD PTR _aIndex$[ebp]
  00007	56		 push	 esi
  00008	8b f3		 mov	 esi, ebx
  0000a	69 f6 64 15 00
	00		 imul	 esi, 5476		; 00001564H
  00010	6a 05		 push	 5
  00012	8d 86 00 00 00
	00		 lea	 eax, DWORD PTR ?gObj@@3PAUOBJECTSTRUCT@@A[esi]
  00018	50		 push	 eax
  00019	e8 00 00 00 00	 call	 ?IsCheck@CCommands@@QAE_NPAUOBJECTSTRUCT@@H@Z ; CCommands::IsCheck
  0001e	84 c0		 test	 al, al
  00020	0f 84 cb 02 00
	00		 je	 $LN24@Add

; 617  : 	{
; 618  : 		return;
; 619  : 	}
; 620  : 	// ---
; 621  : 	int iPoints = atoi(szMsg);

  00026	8b 4d 0c	 mov	 ecx, DWORD PTR _szMsg$[ebp]
  00029	57		 push	 edi
  0002a	51		 push	 ecx
  0002b	e8 00 00 00 00	 call	 _atoi
  00030	8b f8		 mov	 edi, eax

; 622  : 	// ---
; 623  : 	if(gObj[aIndex].LevelUpPoint < iPoints || iPoints < 0 || iPoints == 0)

  00032	8b 86 a0 00 00
	00		 mov	 eax, DWORD PTR ?gObj@@3PAUOBJECTSTRUCT@@A[esi+160]
  00038	83 c4 04	 add	 esp, 4
  0003b	89 7d 0c	 mov	 DWORD PTR _iPoints$[ebp], edi
  0003e	3b c7		 cmp	 eax, edi
  00040	0f 8c 93 02 00
	00		 jl	 $LN21@Add
  00046	85 ff		 test	 edi, edi
  00048	0f 88 8b 02 00
	00		 js	 $LN21@Add
  0004e	0f 84 85 02 00
	00		 je	 $LN21@Add

; 626  : 		return;
; 627  : 	}
; 628  : 	// ---
; 629  : 	if(iPoints > gServerInfo.m_Data.iMaxStatus)

  00054	8b 15 70 00 00
	00		 mov	 edx, DWORD PTR ?gServerInfo@@3VCServerInfo@@A+112
  0005a	3b fa		 cmp	 edi, edx
  0005c	7e 1f		 jle	 SHORT $LN20@Add

; 630  : 	{
; 631  : 		MsgUser(aIndex, 1, "[%s] Voc no pode adicionar mais que %s pontos !", gObj[aIndex].Name, gServerInfo.m_Data.iMaxStatus);

  0005e	52		 push	 edx
  0005f	8d 96 6f 00 00
	00		 lea	 edx, DWORD PTR ?gObj@@3PAUOBJECTSTRUCT@@A[esi+111]
  00065	52		 push	 edx
  00066	68 00 00 00 00	 push	 OFFSET ??_C@_0DC@ODHDLKGF@?$FL?$CFs?$FN?5Voc?j?5n?co?5pode?5adicionar?5mai@
  0006b	6a 01		 push	 1
  0006d	53		 push	 ebx
  0006e	e8 00 00 00 00	 call	 ?MsgUser@@YAXHHPADZZ	; MsgUser
  00073	83 c4 14	 add	 esp, 20			; 00000014H
  00076	5f		 pop	 edi
  00077	5e		 pop	 esi
  00078	5b		 pop	 ebx

; 737  : }

  00079	5d		 pop	 ebp
  0007a	c2 0c 00	 ret	 12			; 0000000cH
$LN20@Add:

; 632  : 		return;
; 633  : 	}
; 634  : 	// ---
; 635  : 	char * szBuffer = "";
; 636  : 	// ---
; 637  : 	switch(btType)

  0007d	0f b6 4d 10	 movzx	 ecx, BYTE PTR _btType$[ebp]
  00081	bb 00 00 00 00	 mov	 ebx, OFFSET ??_C@_00CNPNBAHC@?$AA@
  00086	83 f9 04	 cmp	 ecx, 4
  00089	77 4d		 ja	 SHORT $LN18@Add
  0008b	ff 24 8d 00 00
	00 00		 jmp	 DWORD PTR $LN29@Add[ecx*4]
$LN17@Add:

; 638  : 	{
; 639  : 	case 0:
; 640  : 		{
; 641  : 			if(gObj[aIndex].Strength + iPoints > gServerInfo.m_Data.iMaxStatus)

  00092	0f b7 8e b4 00
	00 00		 movzx	 ecx, WORD PTR ?gObj@@3PAUOBJECTSTRUCT@@A[esi+180]
  00099	8d 1c 0f	 lea	 ebx, DWORD PTR [edi+ecx]
  0009c	3b da		 cmp	 ebx, edx
  0009e	7e 22		 jle	 SHORT $LN16@Add

; 642  : 			{
; 643  : 				MsgUser(aIndex, 1, "[%s] Limite %d em Fora !", gObj[aIndex].Name, gServerInfo.m_Data.iMaxStatus);

  000a0	8b 4d 08	 mov	 ecx, DWORD PTR _aIndex$[ebp]
  000a3	52		 push	 edx
  000a4	8d 86 6f 00 00
	00		 lea	 eax, DWORD PTR ?gObj@@3PAUOBJECTSTRUCT@@A[esi+111]
  000aa	50		 push	 eax
  000ab	68 00 00 00 00	 push	 OFFSET ??_C@_0BK@HFOCDHLN@?$FL?$CFs?$FN?5Limite?5?$CFd?5em?5For?ga?5?$CB?$AA@
  000b0	6a 01		 push	 1
  000b2	51		 push	 ecx
  000b3	e8 00 00 00 00	 call	 ?MsgUser@@YAXHHPADZZ	; MsgUser
  000b8	83 c4 14	 add	 esp, 20			; 00000014H
  000bb	5f		 pop	 edi
  000bc	5e		 pop	 esi
  000bd	5b		 pop	 ebx

; 737  : }

  000be	5d		 pop	 ebp
  000bf	c2 0c 00	 ret	 12			; 0000000cH
$LN16@Add:

; 644  : 				return;
; 645  : 			}
; 646  : 			else
; 647  : 			{
; 648  : 				szBuffer = "Fora";
; 649  : 				gObj[aIndex].Strength += iPoints;

  000c2	03 cf		 add	 ecx, edi
  000c4	bb 00 00 00 00	 mov	 ebx, OFFSET ??_C@_05JNCDKDGF@For?ga?$AA@
  000c9	66 89 8e b4 00
	00 00		 mov	 WORD PTR ?gObj@@3PAUOBJECTSTRUCT@@A[esi+180], cx
$LN28@Add:

; 665  : 				gObj[aIndex].LevelUpPoint -= iPoints;

  000d0	2b c7		 sub	 eax, edi
  000d2	89 86 a0 00 00
	00		 mov	 DWORD PTR ?gObj@@3PAUOBJECTSTRUCT@@A[esi+160], eax
$LN18@Add:

; 724  : 	}
; 725  : 	// ---
; 726  : 	gToolKit.Refresh(aIndex);

  000d8	8b 4d 08	 mov	 ecx, DWORD PTR _aIndex$[ebp]
  000db	51		 push	 ecx
  000dc	b9 00 00 00 00	 mov	 ecx, OFFSET ?gToolKit@@3VCToolKit@@A ; gToolKit
  000e1	e8 00 00 00 00	 call	 ?Refresh@CToolKit@@QAEXK@Z ; CToolKit::Refresh

; 727  : 	// ---
; 728  : 	gObjCalCharacter(aIndex);

  000e6	8b 55 08	 mov	 edx, DWORD PTR _aIndex$[ebp]
  000e9	52		 push	 edx
  000ea	e8 00 00 00 00	 call	 ?gObjCalCharacter@@YAXH@Z ; gObjCalCharacter

; 729  : 	// ---
; 730  : 	GCManaSend(aIndex, gObj[aIndex].MaxMana + gObj[aIndex].AddMana, 0xFE, 0, gObj[aIndex].MaxBP + gObj[aIndex].AddBP);

  000ef	db 86 10 01 00
	00		 fild	 DWORD PTR ?gObj@@3PAUOBJECTSTRUCT@@A[esi+272]
  000f5	8b 86 f0 00 00
	00		 mov	 eax, DWORD PTR ?gObj@@3PAUOBJECTSTRUCT@@A[esi+240]
  000fb	03 86 ec 00 00
	00		 add	 eax, DWORD PTR ?gObj@@3PAUOBJECTSTRUCT@@A[esi+236]
  00101	d8 86 d4 00 00
	00		 fadd	 DWORD PTR ?gObj@@3PAUOBJECTSTRUCT@@A[esi+212]
  00107	83 c4 04	 add	 esp, 4
  0010a	50		 push	 eax
  0010b	6a 00		 push	 0
  0010d	68 fe 00 00 00	 push	 254			; 000000feH
  00112	e8 00 00 00 00	 call	 __ftol2_sse
  00117	8b 4d 08	 mov	 ecx, DWORD PTR _aIndex$[ebp]
  0011a	50		 push	 eax
  0011b	51		 push	 ecx
  0011c	e8 00 00 00 00	 call	 ?GCManaSend@@YAXHHEEH@Z	; GCManaSend

; 731  : 	// ---
; 732  : 	gObjSetBP(aIndex);

  00121	8b 55 08	 mov	 edx, DWORD PTR _aIndex$[ebp]
  00124	52		 push	 edx
  00125	e8 00 00 00 00	 call	 ?gObjSetBP@@YAXH@Z	; gObjSetBP

; 733  : 	// ---
; 734  : 	GCLevelUpMsgSend(aIndex, true);

  0012a	8b 45 08	 mov	 eax, DWORD PTR _aIndex$[ebp]
  0012d	6a 01		 push	 1
  0012f	50		 push	 eax
  00130	e8 00 00 00 00	 call	 ?GCLevelUpMsgSend@@YAXHH@Z ; GCLevelUpMsgSend

; 735  : 	// ---
; 736  : 	MsgUser(aIndex, 1, "[%s] %d Ponto(s) Adcionados em %s", gObj[aIndex].Name, iPoints, szBuffer);

  00135	8b 55 08	 mov	 edx, DWORD PTR _aIndex$[ebp]
  00138	53		 push	 ebx
  00139	57		 push	 edi
  0013a	8d 8e 6f 00 00
	00		 lea	 ecx, DWORD PTR ?gObj@@3PAUOBJECTSTRUCT@@A[esi+111]
  00140	51		 push	 ecx
  00141	68 00 00 00 00	 push	 OFFSET ??_C@_0CC@DINONNLC@?$FL?$CFs?$FN?5?$CFd?5Ponto?$CIs?$CJ?5Adcionados?5em?5?$CF@
  00146	6a 01		 push	 1
  00148	52		 push	 edx
  00149	e8 00 00 00 00	 call	 ?MsgUser@@YAXHHPADZZ	; MsgUser
  0014e	83 c4 38	 add	 esp, 56			; 00000038H
  00151	5f		 pop	 edi
  00152	5e		 pop	 esi
  00153	5b		 pop	 ebx

; 737  : }

  00154	5d		 pop	 ebp
  00155	c2 0c 00	 ret	 12			; 0000000cH
$LN14@Add:

; 650  : 				gObj[aIndex].LevelUpPoint -= iPoints;
; 651  : 			}
; 652  : 		}
; 653  : 		break;
; 654  : 	case 1:
; 655  : 		{
; 656  : 			if(gObj[aIndex].Dexterity + iPoints > 32767)

  00158	0f b7 8e b6 00
	00 00		 movzx	 ecx, WORD PTR ?gObj@@3PAUOBJECTSTRUCT@@A[esi+182]
  0015f	8d 14 0f	 lea	 edx, DWORD PTR [edi+ecx]
  00162	81 fa ff 7f 00
	00		 cmp	 edx, 32767		; 00007fffH
  00168	7e 26		 jle	 SHORT $LN13@Add

; 657  : 			{
; 658  : 				MsgUser(aIndex, 1, "[%s] Limite %d em Agilidade !", gObj[aIndex].Name, 32767);

  0016a	8b 4d 08	 mov	 ecx, DWORD PTR _aIndex$[ebp]
  0016d	68 ff 7f 00 00	 push	 32767			; 00007fffH
  00172	8d 86 6f 00 00
	00		 lea	 eax, DWORD PTR ?gObj@@3PAUOBJECTSTRUCT@@A[esi+111]
  00178	50		 push	 eax
  00179	68 00 00 00 00	 push	 OFFSET ??_C@_0BO@MPGPFIME@?$FL?$CFs?$FN?5Limite?5?$CFd?5em?5Agilidade?5?$CB?$AA@
  0017e	6a 01		 push	 1
  00180	51		 push	 ecx
  00181	e8 00 00 00 00	 call	 ?MsgUser@@YAXHHPADZZ	; MsgUser
  00186	83 c4 14	 add	 esp, 20			; 00000014H
  00189	5f		 pop	 edi
  0018a	5e		 pop	 esi
  0018b	5b		 pop	 ebx

; 737  : }

  0018c	5d		 pop	 ebp
  0018d	c2 0c 00	 ret	 12			; 0000000cH
$LN13@Add:

; 659  : 				return;
; 660  : 			}
; 661  : 			else
; 662  : 			{
; 663  : 				szBuffer = "Agilidade";
; 664  : 				gObj[aIndex].Dexterity += iPoints;

  00190	03 cf		 add	 ecx, edi
  00192	bb 00 00 00 00	 mov	 ebx, OFFSET ??_C@_09EBDKGJBM@Agilidade?$AA@
  00197	66 89 8e b6 00
	00 00		 mov	 WORD PTR ?gObj@@3PAUOBJECTSTRUCT@@A[esi+182], cx

; 666  : 			}
; 667  : 		}
; 668  : 		break;

  0019e	e9 2d ff ff ff	 jmp	 $LN28@Add
$LN11@Add:

; 669  : 	case 2:
; 670  : 		{
; 671  : 			if(gObj[aIndex].Vitality + iPoints > 32767)

  001a3	0f b7 8e b8 00
	00 00		 movzx	 ecx, WORD PTR ?gObj@@3PAUOBJECTSTRUCT@@A[esi+184]
  001aa	8d 14 0f	 lea	 edx, DWORD PTR [edi+ecx]
  001ad	81 fa ff 7f 00
	00		 cmp	 edx, 32767		; 00007fffH
  001b3	7e 26		 jle	 SHORT $LN10@Add

; 672  : 			{
; 673  : 				MsgUser(aIndex, 1, "[%s] Limite %d em Vitalidade !", gObj[aIndex].Name, 32767);

  001b5	8b 4d 08	 mov	 ecx, DWORD PTR _aIndex$[ebp]
  001b8	68 ff 7f 00 00	 push	 32767			; 00007fffH
  001bd	8d 86 6f 00 00
	00		 lea	 eax, DWORD PTR ?gObj@@3PAUOBJECTSTRUCT@@A[esi+111]
  001c3	50		 push	 eax
  001c4	68 00 00 00 00	 push	 OFFSET ??_C@_0BP@ODIPAIPA@?$FL?$CFs?$FN?5Limite?5?$CFd?5em?5Vitalidade?5?$CB?$AA@
  001c9	6a 01		 push	 1
  001cb	51		 push	 ecx
  001cc	e8 00 00 00 00	 call	 ?MsgUser@@YAXHHPADZZ	; MsgUser
  001d1	83 c4 14	 add	 esp, 20			; 00000014H
  001d4	5f		 pop	 edi
  001d5	5e		 pop	 esi
  001d6	5b		 pop	 ebx

; 737  : }

  001d7	5d		 pop	 ebp
  001d8	c2 0c 00	 ret	 12			; 0000000cH
$LN10@Add:

; 674  : 				return;
; 675  : 			}
; 676  : 			else
; 677  : 			{
; 678  : 				szBuffer = "Vitalidade";
; 679  : 				gObj[aIndex].Vitality += iPoints;
; 680  : 				gObj[aIndex].MaxLife += gObj[aIndex].VitalityToLife * iPoints;

  001db	d9 86 f4 00 00
	00		 fld	 DWORD PTR ?gObj@@3PAUOBJECTSTRUCT@@A[esi+244]
  001e1	03 cf		 add	 ecx, edi
  001e3	da 4d 0c	 fimul	 DWORD PTR _iPoints$[ebp]
  001e6	bb 00 00 00 00	 mov	 ebx, OFFSET ??_C@_0L@EDBOIBME@Vitalidade?$AA@
  001eb	66 89 8e b8 00
	00 00		 mov	 WORD PTR ?gObj@@3PAUOBJECTSTRUCT@@A[esi+184], cx
  001f2	d8 86 c0 00 00
	00		 fadd	 DWORD PTR ?gObj@@3PAUOBJECTSTRUCT@@A[esi+192]
  001f8	d9 9e c0 00 00
	00		 fstp	 DWORD PTR ?gObj@@3PAUOBJECTSTRUCT@@A[esi+192]

; 681  : 				gObj[aIndex].LevelUpPoint -= iPoints;
; 682  : 			}
; 683  : 		}
; 684  : 		break;

  001fe	e9 cd fe ff ff	 jmp	 $LN28@Add
$LN8@Add:

; 685  : 	case 3:
; 686  : 		{
; 687  : 			if(gObj[aIndex].Energy + iPoints > 32767)

  00203	0f b7 8e ba 00
	00 00		 movzx	 ecx, WORD PTR ?gObj@@3PAUOBJECTSTRUCT@@A[esi+186]
  0020a	8d 14 0f	 lea	 edx, DWORD PTR [edi+ecx]
  0020d	81 fa ff 7f 00
	00		 cmp	 edx, 32767		; 00007fffH
  00213	7e 26		 jle	 SHORT $LN7@Add

; 688  : 			{
; 689  : 				MsgUser(aIndex, 1, "[%s] Limite %d em Energia !", gObj[aIndex].Name, 32767);

  00215	8b 4d 08	 mov	 ecx, DWORD PTR _aIndex$[ebp]
  00218	68 ff 7f 00 00	 push	 32767			; 00007fffH
  0021d	8d 86 6f 00 00
	00		 lea	 eax, DWORD PTR ?gObj@@3PAUOBJECTSTRUCT@@A[esi+111]
  00223	50		 push	 eax
  00224	68 00 00 00 00	 push	 OFFSET ??_C@_0BM@HCGIBMOK@?$FL?$CFs?$FN?5Limite?5?$CFd?5em?5Energia?5?$CB?$AA@
  00229	6a 01		 push	 1
  0022b	51		 push	 ecx
  0022c	e8 00 00 00 00	 call	 ?MsgUser@@YAXHHPADZZ	; MsgUser
  00231	83 c4 14	 add	 esp, 20			; 00000014H
  00234	5f		 pop	 edi
  00235	5e		 pop	 esi
  00236	5b		 pop	 ebx

; 737  : }

  00237	5d		 pop	 ebp
  00238	c2 0c 00	 ret	 12			; 0000000cH
$LN7@Add:

; 690  : 				return;
; 691  : 			}
; 692  : 			else
; 693  : 			{
; 694  : 				szBuffer = "Energia";
; 695  : 				gObj[aIndex].Energy += iPoints;
; 696  : 				gObj[aIndex].MaxMana += gObj[aIndex].EnergyToMana * iPoints;

  0023b	d9 86 f8 00 00
	00		 fld	 DWORD PTR ?gObj@@3PAUOBJECTSTRUCT@@A[esi+248]
  00241	03 cf		 add	 ecx, edi
  00243	da 4d 0c	 fimul	 DWORD PTR _iPoints$[ebp]
  00246	bb 00 00 00 00	 mov	 ebx, OFFSET ??_C@_07GGBDJDBC@Energia?$AA@
  0024b	66 89 8e ba 00
	00 00		 mov	 WORD PTR ?gObj@@3PAUOBJECTSTRUCT@@A[esi+186], cx
  00252	d8 86 d4 00 00
	00		 fadd	 DWORD PTR ?gObj@@3PAUOBJECTSTRUCT@@A[esi+212]
  00258	d9 9e d4 00 00
	00		 fstp	 DWORD PTR ?gObj@@3PAUOBJECTSTRUCT@@A[esi+212]

; 697  : 				gObj[aIndex].LevelUpPoint -= iPoints;
; 698  : 			}
; 699  : 		}
; 700  : 		break;

  0025e	e9 6d fe ff ff	 jmp	 $LN28@Add
$LN5@Add:

; 701  : 	case 4:
; 702  : 		{
; 703  : 			if(gObj[aIndex].Class == CLASS_DARKLORD)

  00263	66 83 be 98 00
	00 00 04	 cmp	 WORD PTR ?gObj@@3PAUOBJECTSTRUCT@@A[esi+152], 4
  0026b	75 4b		 jne	 SHORT $LN4@Add

; 704  : 			{
; 705  : 				if(gObj[aIndex].Leadership + iPoints > 32767)

  0026d	0f b7 8e d8 00
	00 00		 movzx	 ecx, WORD PTR ?gObj@@3PAUOBJECTSTRUCT@@A[esi+216]
  00274	8d 14 0f	 lea	 edx, DWORD PTR [edi+ecx]
  00277	81 fa ff 7f 00
	00		 cmp	 edx, 32767		; 00007fffH
  0027d	7e 26		 jle	 SHORT $LN3@Add

; 706  : 				{
; 707  : 					MsgUser(aIndex, 1, "[%s] Limite %d em Carisma !", gObj[aIndex].Name, 32767);

  0027f	8b 4d 08	 mov	 ecx, DWORD PTR _aIndex$[ebp]
  00282	68 ff 7f 00 00	 push	 32767			; 00007fffH
  00287	8d 86 6f 00 00
	00		 lea	 eax, DWORD PTR ?gObj@@3PAUOBJECTSTRUCT@@A[esi+111]
  0028d	50		 push	 eax
  0028e	68 00 00 00 00	 push	 OFFSET ??_C@_0BM@NOKPLFDH@?$FL?$CFs?$FN?5Limite?5?$CFd?5em?5Carisma?5?$CB?$AA@
  00293	6a 01		 push	 1
  00295	51		 push	 ecx
  00296	e8 00 00 00 00	 call	 ?MsgUser@@YAXHHPADZZ	; MsgUser
  0029b	83 c4 14	 add	 esp, 20			; 00000014H
  0029e	5f		 pop	 edi
  0029f	5e		 pop	 esi
  002a0	5b		 pop	 ebx

; 737  : }

  002a1	5d		 pop	 ebp
  002a2	c2 0c 00	 ret	 12			; 0000000cH
$LN3@Add:

; 708  : 					return;
; 709  : 				}
; 710  : 				else
; 711  : 				{
; 712  : 					szBuffer = "Comando";
; 713  : 					gObj[aIndex].Leadership += iPoints;

  002a5	03 cf		 add	 ecx, edi
  002a7	bb 00 00 00 00	 mov	 ebx, OFFSET ??_C@_07CGELAPEJ@Comando?$AA@
  002ac	66 89 8e d8 00
	00 00		 mov	 WORD PTR ?gObj@@3PAUOBJECTSTRUCT@@A[esi+216], cx

; 720  : 				return;
; 721  : 			}
; 722  : 		}
; 723  : 		break;

  002b3	e9 18 fe ff ff	 jmp	 $LN28@Add
$LN4@Add:

; 714  : 					gObj[aIndex].LevelUpPoint -= iPoints;
; 715  : 				}
; 716  : 			}
; 717  : 			else
; 718  : 			{
; 719  : 				MsgUser(aIndex, 1, "[%s] Somente Para Dark Lord", gObj[aIndex].Name);

  002b8	8b 45 08	 mov	 eax, DWORD PTR _aIndex$[ebp]
  002bb	8d 96 6f 00 00
	00		 lea	 edx, DWORD PTR ?gObj@@3PAUOBJECTSTRUCT@@A[esi+111]
  002c1	52		 push	 edx
  002c2	68 00 00 00 00	 push	 OFFSET ??_C@_0BM@CDAPGOFH@?$FL?$CFs?$FN?5Somente?5Para?5Dark?5Lord?$AA@
  002c7	6a 01		 push	 1
  002c9	50		 push	 eax
  002ca	e8 00 00 00 00	 call	 ?MsgUser@@YAXHHPADZZ	; MsgUser
  002cf	83 c4 10	 add	 esp, 16			; 00000010H
  002d2	5f		 pop	 edi
  002d3	5e		 pop	 esi
  002d4	5b		 pop	 ebx

; 737  : }

  002d5	5d		 pop	 ebp
  002d6	c2 0c 00	 ret	 12			; 0000000cH
$LN21@Add:

; 624  : 	{
; 625  : 		MsgUser(aIndex, 1, "[%s] Voc No tem Pontos para adicionar !", gObj[aIndex].Name);

  002d9	8d 86 6f 00 00
	00		 lea	 eax, DWORD PTR ?gObj@@3PAUOBJECTSTRUCT@@A[esi+111]
  002df	50		 push	 eax
  002e0	68 00 00 00 00	 push	 OFFSET ??_C@_0CK@HNIHBFOF@?$FL?$CFs?$FN?5Voc?j?5N?co?5tem?5Pontos?5para?5ad@
  002e5	6a 01		 push	 1
  002e7	53		 push	 ebx
  002e8	e8 00 00 00 00	 call	 ?MsgUser@@YAXHHPADZZ	; MsgUser
  002ed	83 c4 10	 add	 esp, 16			; 00000010H
  002f0	5f		 pop	 edi
$LN24@Add:
  002f1	5e		 pop	 esi
  002f2	5b		 pop	 ebx

; 737  : }

  002f3	5d		 pop	 ebp
  002f4	c2 0c 00	 ret	 12			; 0000000cH
  002f7	90		 npad	 1
$LN29@Add:
  002f8	00 00 00 00	 DD	 $LN17@Add
  002fc	00 00 00 00	 DD	 $LN14@Add
  00300	00 00 00 00	 DD	 $LN11@Add
  00304	00 00 00 00	 DD	 $LN8@Add
  00308	00 00 00 00	 DD	 $LN5@Add
?Add@CCommands@@QAEXHPADE@Z ENDP			; CCommands::Add
_TEXT	ENDS
PUBLIC	??_C@_0CI@PIMKEGOB@?$FL?$CFs?$FN?5Voc?j?5n?co?5pode?5trocar?5de?5ba?z@ ; `string'
PUBLIC	??_C@_0BL@MJHEGHAI@?$FL?$CFs?$FN?5Ba?z?5?$CI?$CFd?$CJ?5selecionado?4?$AA@ ; `string'
PUBLIC	??_C@_0BO@LHBNLKEP@EXEC?5WarehouseChange?5?8?$CFs?8?0?5?$CFd?$AA@ ; `string'
PUBLIC	??_C@_0BG@JOMIENEF@?$FL?$CFs?$FN?5Trocando?5ba?z?5?4?4?4?$AA@ ; `string'
PUBLIC	??_C@_0BN@LBLGCCID@?$FL?$CFs?$FN?5Seu?5limite?5de?5ba?zs?5?i?5?$CFd?$AA@ ; `string'
PUBLIC	??_C@_0CM@OLOLEMJO@?$FL?$CFs?$FN?5Aguarde?5?$CFd?5segundo?$CIs?$CJ?5para?5@ ; `string'
PUBLIC	??_C@_0BL@IBKJMNMH@?$FL?$CFs?$FN?5Modo?5?3?5?1ware?5?$DMnumero?$DO?$AA@ ; `string'
PUBLIC	?Ware@CCommands@@QAEXHPAD@Z			; CCommands::Ware
EXTRN	?Execute@SQLClass@@QAAXPADZZ:PROC		; SQLClass::Execute
EXTRN	?gSQLManager@@3VSQLClass@@A:BYTE		; gSQLManager
EXTRN	__imp__Sleep@4:PROC
EXTRN	__imp__GetTickCount@0:PROC
;	COMDAT ??_C@_0CI@PIMKEGOB@?$FL?$CFs?$FN?5Voc?j?5n?co?5pode?5trocar?5de?5ba?z@
CONST	SEGMENT
??_C@_0CI@PIMKEGOB@?$FL?$CFs?$FN?5Voc?j?5n?co?5pode?5trocar?5de?5ba?z@ DB '['
	DB	'%s] Voc', 0eaH, ' n', 0e3H, 'o pode trocar de ba', 0faH, ' ag'
	DB	'ora.', 00H					; `string'
CONST	ENDS
;	COMDAT ??_C@_0BL@MJHEGHAI@?$FL?$CFs?$FN?5Ba?z?5?$CI?$CFd?$CJ?5selecionado?4?$AA@
CONST	SEGMENT
??_C@_0BL@MJHEGHAI@?$FL?$CFs?$FN?5Ba?z?5?$CI?$CFd?$CJ?5selecionado?4?$AA@ DB '['
	DB	'%s] Ba', 0faH, ' (%d) selecionado.', 00H	; `string'
CONST	ENDS
;	COMDAT ??_C@_0BO@LHBNLKEP@EXEC?5WarehouseChange?5?8?$CFs?8?0?5?$CFd?$AA@
CONST	SEGMENT
??_C@_0BO@LHBNLKEP@EXEC?5WarehouseChange?5?8?$CFs?8?0?5?$CFd?$AA@ DB 'EXE'
	DB	'C WarehouseChange ''%s'', %d', 00H		; `string'
CONST	ENDS
;	COMDAT ??_C@_0BG@JOMIENEF@?$FL?$CFs?$FN?5Trocando?5ba?z?5?4?4?4?$AA@
CONST	SEGMENT
??_C@_0BG@JOMIENEF@?$FL?$CFs?$FN?5Trocando?5ba?z?5?4?4?4?$AA@ DB '[%s] Tr'
	DB	'ocando ba', 0faH, ' ...', 00H		; `string'
CONST	ENDS
;	COMDAT ??_C@_0BN@LBLGCCID@?$FL?$CFs?$FN?5Seu?5limite?5de?5ba?zs?5?i?5?$CFd?$AA@
CONST	SEGMENT
??_C@_0BN@LBLGCCID@?$FL?$CFs?$FN?5Seu?5limite?5de?5ba?zs?5?i?5?$CFd?$AA@ DB '['
	DB	'%s] Seu limite de ba', 0faH, 's ', 0e9H, ' %d', 00H ; `string'
CONST	ENDS
;	COMDAT ??_C@_0CM@OLOLEMJO@?$FL?$CFs?$FN?5Aguarde?5?$CFd?5segundo?$CIs?$CJ?5para?5@
CONST	SEGMENT
??_C@_0CM@OLOLEMJO@?$FL?$CFs?$FN?5Aguarde?5?$CFd?5segundo?$CIs?$CJ?5para?5@ DB '['
	DB	'%s] Aguarde %d segundo(s) para usar o bau.', 00H ; `string'
CONST	ENDS
;	COMDAT ??_C@_0BL@IBKJMNMH@?$FL?$CFs?$FN?5Modo?5?3?5?1ware?5?$DMnumero?$DO?$AA@
CONST	SEGMENT
??_C@_0BL@IBKJMNMH@?$FL?$CFs?$FN?5Modo?5?3?5?1ware?5?$DMnumero?$DO?$AA@ DB '['
	DB	'%s] Modo : /ware <numero>', 00H		; `string'
; Function compile flags: /Ogtp
CONST	ENDS
;	COMDAT ?Ware@CCommands@@QAEXHPAD@Z
_TEXT	SEGMENT
_this$ = -4						; size = 4
_iWareCode$ = 8						; size = 4
_aIndex$ = 8						; size = 4
_szMsg$ = 12						; size = 4
?Ware@CCommands@@QAEXHPAD@Z PROC			; CCommands::Ware, COMDAT
; _this$ = ecx

; 740  : {

  00000	55		 push	 ebp
  00001	8b ec		 mov	 ebp, esp
  00003	51		 push	 ecx
  00004	53		 push	 ebx

; 741  : 	if(this->IsCheck(&gObj[aIndex], COMMAND_WARE) == false)

  00005	8b 5d 08	 mov	 ebx, DWORD PTR _aIndex$[ebp]
  00008	56		 push	 esi
  00009	8b f3		 mov	 esi, ebx
  0000b	69 f6 64 15 00
	00		 imul	 esi, 5476		; 00001564H
  00011	6a 07		 push	 7
  00013	8d 86 00 00 00
	00		 lea	 eax, DWORD PTR ?gObj@@3PAUOBJECTSTRUCT@@A[esi]
  00019	50		 push	 eax
  0001a	89 4d fc	 mov	 DWORD PTR _this$[ebp], ecx
  0001d	e8 00 00 00 00	 call	 ?IsCheck@CCommands@@QAE_NPAUOBJECTSTRUCT@@H@Z ; CCommands::IsCheck
  00022	84 c0		 test	 al, al
  00024	0f 84 7b 01 00
	00		 je	 $LN13@Ware

; 742  : 	{
; 743  : 		return;
; 744  : 	}
; 745  : 	// ---
; 746  : 	int iWareCode = atoi(szMsg);

  0002a	57		 push	 edi
  0002b	8b 7d 0c	 mov	 edi, DWORD PTR _szMsg$[ebp]
  0002e	57		 push	 edi
  0002f	e8 00 00 00 00	 call	 _atoi
  00034	89 45 08	 mov	 DWORD PTR _iWareCode$[ebp], eax

; 747  : 	// ---
; 748  : 	if(strlen(szMsg) < 1)

  00037	8b c7		 mov	 eax, edi
  00039	83 c4 04	 add	 esp, 4
  0003c	8d 50 01	 lea	 edx, DWORD PTR [eax+1]
  0003f	90		 npad	 1
$LL15@Ware:
  00040	8a 08		 mov	 cl, BYTE PTR [eax]
  00042	40		 inc	 eax
  00043	84 c9		 test	 cl, cl
  00045	75 f9		 jne	 SHORT $LL15@Ware
  00047	2b c2		 sub	 eax, edx
  00049	83 f8 01	 cmp	 eax, 1
  0004c	73 20		 jae	 SHORT $LN11@Ware

; 749  : 	{
; 750  : 		MsgUser(aIndex, 1, "[%s] Modo : /ware <numero>", gObj[aIndex].Name);

  0004e	8d 8e 6f 00 00
	00		 lea	 ecx, DWORD PTR ?gObj@@3PAUOBJECTSTRUCT@@A[esi+111]
  00054	51		 push	 ecx
  00055	68 00 00 00 00	 push	 OFFSET ??_C@_0BL@IBKJMNMH@?$FL?$CFs?$FN?5Modo?5?3?5?1ware?5?$DMnumero?$DO?$AA@

; 765  : 	{
; 766  : 		MsgUser(aIndex, 1, "[%s] Voc no pode trocar de ba agora.", gObj[aIndex].Name);

  0005a	6a 01		 push	 1
  0005c	53		 push	 ebx
  0005d	e8 00 00 00 00	 call	 ?MsgUser@@YAXHHPADZZ	; MsgUser
  00062	83 c4 10	 add	 esp, 16			; 00000010H
  00065	5f		 pop	 edi
  00066	5e		 pop	 esi
  00067	5b		 pop	 ebx

; 802  : }

  00068	8b e5		 mov	 esp, ebp
  0006a	5d		 pop	 ebp
  0006b	c2 08 00	 ret	 8
$LN11@Ware:

; 751  : 		return;
; 752  : 	}
; 753  : 	// ---
; 754  : 	DWORD dwDelay = (GetTickCount() - gObj[aIndex].m_DelayWare) / 1000;

  0006e	8b 3d 00 00 00
	00		 mov	 edi, DWORD PTR __imp__GetTickCount@0
  00074	ff d7		 call	 edi
  00076	8b d0		 mov	 edx, eax
  00078	2b 96 54 15 00
	00		 sub	 edx, DWORD PTR ?gObj@@3PAUOBJECTSTRUCT@@A[esi+5460]
  0007e	b8 d3 4d 62 10	 mov	 eax, 274877907		; 10624dd3H
  00083	f7 e2		 mul	 edx

; 755  : 	// ---
; 756  : 	if(dwDelay < this->m_Data[COMMAND_WARE].iDelay)

  00085	8b 45 fc	 mov	 eax, DWORD PTR _this$[ebp]
  00088	8b 80 90 0d 00
	00		 mov	 eax, DWORD PTR [eax+3472]
  0008e	c1 ea 06	 shr	 edx, 6
  00091	3b d0		 cmp	 edx, eax
  00093	73 23		 jae	 SHORT $LN10@Ware

; 757  : 	{
; 758  : 		MsgUser(aIndex, 1, "[%s] Aguarde %d segundo(s) para usar o bau.", gObj[aIndex].Name, (this->m_Data[COMMAND_WARE].iDelay - dwDelay));

  00095	2b c2		 sub	 eax, edx
  00097	50		 push	 eax
  00098	8d 8e 6f 00 00
	00		 lea	 ecx, DWORD PTR ?gObj@@3PAUOBJECTSTRUCT@@A[esi+111]
  0009e	51		 push	 ecx
  0009f	68 00 00 00 00	 push	 OFFSET ??_C@_0CM@OLOLEMJO@?$FL?$CFs?$FN?5Aguarde?5?$CFd?5segundo?$CIs?$CJ?5para?5@

; 775  : 				{
; 776  : 					MsgUser(aIndex, 1, "[%s] Seu limite de bas  %d", gObj[aIndex].Name, this->m_Data[COMMAND_WARE].iWareNumber[gObj[aIndex].m_Vip]);

  000a4	6a 01		 push	 1
  000a6	53		 push	 ebx
  000a7	e8 00 00 00 00	 call	 ?MsgUser@@YAXHHPADZZ	; MsgUser
  000ac	83 c4 14	 add	 esp, 20			; 00000014H
  000af	5f		 pop	 edi
  000b0	5e		 pop	 esi
  000b1	5b		 pop	 ebx

; 802  : }

  000b2	8b e5		 mov	 esp, ebp
  000b4	5d		 pop	 ebp
  000b5	c2 08 00	 ret	 8
$LN10@Ware:

; 759  : 		return;
; 760  : 	}
; 761  : 	// ---
; 762  : 	gObj[aIndex].m_DelayWare = GetTickCount();

  000b8	ff d7		 call	 edi

; 763  : 	// ---	
; 764  : 	if(gObj[aIndex].pTransaction == 1 || gObj[aIndex].WarehouseSave == 1)

  000ba	80 be 98 0c 00
	00 01		 cmp	 BYTE PTR ?gObj@@3PAUOBJECTSTRUCT@@A[esi+3224], 1
  000c1	89 86 54 15 00
	00		 mov	 DWORD PTR ?gObj@@3PAUOBJECTSTRUCT@@A[esi+5460], eax
  000c7	0f 84 c0 00 00
	00		 je	 $LN16@Ware
  000cd	83 be d8 0c 00
	00 01		 cmp	 DWORD PTR ?gObj@@3PAUOBJECTSTRUCT@@A[esi+3288], 1
  000d4	0f 84 b3 00 00
	00		 je	 $LN16@Ware

; 767  : 		return;
; 768  : 	}
; 769  : 	// ---
; 770  : 	switch(this->m_Data[COMMAND_WARE].iWareType)

  000da	8b 4d fc	 mov	 ecx, DWORD PTR _this$[ebp]
  000dd	8b 81 a8 0d 00
	00		 mov	 eax, DWORD PTR [ecx+3496]
  000e3	83 e8 00	 sub	 eax, 0
  000e6	74 18		 je	 SHORT $LN5@Ware
  000e8	48		 dec	 eax
  000e9	75 48		 jne	 SHORT $LN4@Ware

; 777  : 					return;
; 778  : 				}
; 779  : 			}
; 780  : 			break;
; 781  : 			// ---
; 782  : 		case 1:
; 783  : 			{
; 784  : 				if(iWareCode > gObj[aIndex].m_WareNumber)

  000eb	8b 86 60 15 00
	00		 mov	 eax, DWORD PTR ?gObj@@3PAUOBJECTSTRUCT@@A[esi+5472]
  000f1	39 45 08	 cmp	 DWORD PTR _iWareCode$[ebp], eax
  000f4	7e 3d		 jle	 SHORT $LN4@Ware

; 785  : 				{
; 786  : 					MsgUser(aIndex, 1, "[%s] Seu limite de bas  %d", gObj[aIndex].Name, gObj[aIndex].m_WareNumber);

  000f6	50		 push	 eax
  000f7	8d 96 6f 00 00
	00		 lea	 edx, DWORD PTR ?gObj@@3PAUOBJECTSTRUCT@@A[esi+111]
  000fd	52		 push	 edx

; 787  : 					return;

  000fe	eb 1a		 jmp	 SHORT $LN19@Ware
$LN5@Ware:

; 771  : 	{
; 772  : 		case 0:
; 773  : 			{
; 774  : 				if(iWareCode > this->m_Data[COMMAND_WARE].iWareNumber[gObj[aIndex].m_Vip])

  00100	8b 86 3c 15 00
	00		 mov	 eax, DWORD PTR ?gObj@@3PAUOBJECTSTRUCT@@A[esi+5436]
  00106	8b 84 81 ac 0d
	00 00		 mov	 eax, DWORD PTR [ecx+eax*4+3500]
  0010d	39 45 08	 cmp	 DWORD PTR _iWareCode$[ebp], eax
  00110	7e 21		 jle	 SHORT $LN4@Ware

; 775  : 				{
; 776  : 					MsgUser(aIndex, 1, "[%s] Seu limite de bas  %d", gObj[aIndex].Name, this->m_Data[COMMAND_WARE].iWareNumber[gObj[aIndex].m_Vip]);

  00112	50		 push	 eax
  00113	8d 8e 6f 00 00
	00		 lea	 ecx, DWORD PTR ?gObj@@3PAUOBJECTSTRUCT@@A[esi+111]
  00119	51		 push	 ecx
$LN19@Ware:
  0011a	68 00 00 00 00	 push	 OFFSET ??_C@_0BN@LBLGCCID@?$FL?$CFs?$FN?5Seu?5limite?5de?5ba?zs?5?i?5?$CFd?$AA@
  0011f	6a 01		 push	 1
  00121	53		 push	 ebx
  00122	e8 00 00 00 00	 call	 ?MsgUser@@YAXHHPADZZ	; MsgUser
  00127	83 c4 14	 add	 esp, 20			; 00000014H
  0012a	5f		 pop	 edi
  0012b	5e		 pop	 esi
  0012c	5b		 pop	 ebx

; 802  : }

  0012d	8b e5		 mov	 esp, ebp
  0012f	5d		 pop	 ebp
  00130	c2 08 00	 ret	 8
$LN4@Ware:

; 788  : 				}
; 789  : 			}
; 790  : 			break;
; 791  : 		default:
; 792  : 			break;
; 793  : 	}
; 794  : 	// ---
; 795  : 	MsgUser(aIndex, 1, "[%s] Trocando ba ...", gObj[aIndex].Name);

  00133	8d be 6f 00 00
	00		 lea	 edi, DWORD PTR ?gObj@@3PAUOBJECTSTRUCT@@A[esi+111]
  00139	57		 push	 edi
  0013a	68 00 00 00 00	 push	 OFFSET ??_C@_0BG@JOMIENEF@?$FL?$CFs?$FN?5Trocando?5ba?z?5?4?4?4?$AA@
  0013f	6a 01		 push	 1
  00141	53		 push	 ebx
  00142	e8 00 00 00 00	 call	 ?MsgUser@@YAXHHPADZZ	; MsgUser
  00147	83 c4 10	 add	 esp, 16			; 00000010H

; 796  : 	// ---
; 797  : 	Sleep(1000);

  0014a	68 e8 03 00 00	 push	 1000			; 000003e8H
  0014f	ff 15 00 00 00
	00		 call	 DWORD PTR __imp__Sleep@4

; 798  : 	// ---
; 799  : 	gSQLManager.Execute("EXEC WarehouseChange '%s', %d", gObj[aIndex].AccountID, iWareCode);

  00155	8b 55 08	 mov	 edx, DWORD PTR _iWareCode$[ebp]
  00158	52		 push	 edx
  00159	8d 86 64 00 00
	00		 lea	 eax, DWORD PTR ?gObj@@3PAUOBJECTSTRUCT@@A[esi+100]
  0015f	50		 push	 eax
  00160	68 00 00 00 00	 push	 OFFSET ??_C@_0BO@LHBNLKEP@EXEC?5WarehouseChange?5?8?$CFs?8?0?5?$CFd?$AA@
  00165	68 00 00 00 00	 push	 OFFSET ?gSQLManager@@3VSQLClass@@A ; gSQLManager
  0016a	e8 00 00 00 00	 call	 ?Execute@SQLClass@@QAAXPADZZ ; SQLClass::Execute

; 800  : 	// ---
; 801  : 	MsgUser(aIndex, 1, "[%s] Ba (%d) selecionado.", gObj[aIndex].Name, iWareCode);

  0016f	8b 4d 08	 mov	 ecx, DWORD PTR _iWareCode$[ebp]
  00172	51		 push	 ecx
  00173	57		 push	 edi
  00174	68 00 00 00 00	 push	 OFFSET ??_C@_0BL@MJHEGHAI@?$FL?$CFs?$FN?5Ba?z?5?$CI?$CFd?$CJ?5selecionado?4?$AA@
  00179	6a 01		 push	 1
  0017b	53		 push	 ebx
  0017c	e8 00 00 00 00	 call	 ?MsgUser@@YAXHHPADZZ	; MsgUser
  00181	83 c4 24	 add	 esp, 36			; 00000024H
  00184	5f		 pop	 edi
  00185	5e		 pop	 esi
  00186	5b		 pop	 ebx

; 802  : }

  00187	8b e5		 mov	 esp, ebp
  00189	5d		 pop	 ebp
  0018a	c2 08 00	 ret	 8
$LN16@Ware:

; 765  : 	{
; 766  : 		MsgUser(aIndex, 1, "[%s] Voc no pode trocar de ba agora.", gObj[aIndex].Name);

  0018d	8d 96 6f 00 00
	00		 lea	 edx, DWORD PTR ?gObj@@3PAUOBJECTSTRUCT@@A[esi+111]
  00193	52		 push	 edx
  00194	68 00 00 00 00	 push	 OFFSET ??_C@_0CI@PIMKEGOB@?$FL?$CFs?$FN?5Voc?j?5n?co?5pode?5trocar?5de?5ba?z@
  00199	6a 01		 push	 1
  0019b	53		 push	 ebx
  0019c	e8 00 00 00 00	 call	 ?MsgUser@@YAXHHPADZZ	; MsgUser
  001a1	83 c4 10	 add	 esp, 16			; 00000010H
  001a4	5f		 pop	 edi
$LN13@Ware:
  001a5	5e		 pop	 esi
  001a6	5b		 pop	 ebx

; 802  : }

  001a7	8b e5		 mov	 esp, ebp
  001a9	5d		 pop	 ebp
  001aa	c2 08 00	 ret	 8
?Ware@CCommands@@QAEXHPAD@Z ENDP			; CCommands::Ware
_TEXT	ENDS
PUBLIC	??_C@_0CE@JDAOMAED@?$CFs?5Feche?5o?5ba?z?5para?5usar?5o?5coman@ ; `string'
PUBLIC	??_C@_0BN@HNEKEMB@?$FL?$CFs?$FN?5Ba?z?5aberto?5com?5sucesso?4?$AA@ ; `string'
PUBLIC	??_C@_0BF@CEJOGEIM@?$FL?$CFs?$FN?5Abrindo?5ba?z?5?4?4?4?$AA@ ; `string'
PUBLIC	??_C@_0CN@LDPKIFCG@?$FL?$CFs?$FN?5Aguarde?5?$CFd?5segundo?$CIs?$CJ?5para?5@ ; `string'
PUBLIC	??_C@_0CJ@OFOCNKLJ@?$CFs?5Feche?5o?5chaosbox?5para?5usar?5o?5@ ; `string'
PUBLIC	??_C@_0CG@HBHJELFD@?$CFs?5Feche?5o?5Trade?5Para?5Usar?5o?5Com@ ; `string'
PUBLIC	?OpenWare@CCommands@@QAEXH@Z			; CCommands::OpenWare
EXTRN	?GDGetWarehouseList@@YAXHPAD@Z:PROC		; GDGetWarehouseList
;	COMDAT ??_C@_0CE@JDAOMAED@?$CFs?5Feche?5o?5ba?z?5para?5usar?5o?5coman@
CONST	SEGMENT
??_C@_0CE@JDAOMAED@?$CFs?5Feche?5o?5ba?z?5para?5usar?5o?5coman@ DB '%s Fe'
	DB	'che o ba', 0faH, ' para usar o comando!', 00H ; `string'
CONST	ENDS
;	COMDAT ??_C@_0BN@HNEKEMB@?$FL?$CFs?$FN?5Ba?z?5aberto?5com?5sucesso?4?$AA@
CONST	SEGMENT
??_C@_0BN@HNEKEMB@?$FL?$CFs?$FN?5Ba?z?5aberto?5com?5sucesso?4?$AA@ DB '[%'
	DB	's] Ba', 0faH, ' aberto com sucesso.', 00H	; `string'
CONST	ENDS
;	COMDAT ??_C@_0BF@CEJOGEIM@?$FL?$CFs?$FN?5Abrindo?5ba?z?5?4?4?4?$AA@
CONST	SEGMENT
??_C@_0BF@CEJOGEIM@?$FL?$CFs?$FN?5Abrindo?5ba?z?5?4?4?4?$AA@ DB '[%s] Abr'
	DB	'indo ba', 0faH, ' ...', 00H			; `string'
CONST	ENDS
;	COMDAT ??_C@_0CN@LDPKIFCG@?$FL?$CFs?$FN?5Aguarde?5?$CFd?5segundo?$CIs?$CJ?5para?5@
CONST	SEGMENT
??_C@_0CN@LDPKIFCG@?$FL?$CFs?$FN?5Aguarde?5?$CFd?5segundo?$CIs?$CJ?5para?5@ DB '['
	DB	'%s] Aguarde %d segundo(s) para abrir o bau.', 00H ; `string'
CONST	ENDS
;	COMDAT ??_C@_0CJ@OFOCNKLJ@?$CFs?5Feche?5o?5chaosbox?5para?5usar?5o?5@
CONST	SEGMENT
??_C@_0CJ@OFOCNKLJ@?$CFs?5Feche?5o?5chaosbox?5para?5usar?5o?5@ DB '%s Fec'
	DB	'he o chaosbox para usar o comando!', 00H	; `string'
CONST	ENDS
;	COMDAT ??_C@_0CG@HBHJELFD@?$CFs?5Feche?5o?5Trade?5Para?5Usar?5o?5Com@
CONST	SEGMENT
??_C@_0CG@HBHJELFD@?$CFs?5Feche?5o?5Trade?5Para?5Usar?5o?5Com@ DB '%s Fec'
	DB	'he o Trade Para Usar o Comando!', 00H	; `string'
; Function compile flags: /Ogtp
CONST	ENDS
;	COMDAT ?OpenWare@CCommands@@QAEXH@Z
_TEXT	SEGMENT
_this$ = -4						; size = 4
_aIndex$ = 8						; size = 4
?OpenWare@CCommands@@QAEXH@Z PROC			; CCommands::OpenWare, COMDAT
; _this$ = ecx

; 805  : {

  00000	55		 push	 ebp
  00001	8b ec		 mov	 ebp, esp
  00003	51		 push	 ecx
  00004	56		 push	 esi
  00005	57		 push	 edi

; 806  : 	if(this->IsCheck(&gObj[aIndex], COMMAND_OPENWARE) == false)

  00006	8b 7d 08	 mov	 edi, DWORD PTR _aIndex$[ebp]
  00009	8b f7		 mov	 esi, edi
  0000b	69 f6 64 15 00
	00		 imul	 esi, 5476		; 00001564H
  00011	6a 08		 push	 8
  00013	8d 86 00 00 00
	00		 lea	 eax, DWORD PTR ?gObj@@3PAUOBJECTSTRUCT@@A[esi]
  00019	50		 push	 eax
  0001a	89 4d fc	 mov	 DWORD PTR _this$[ebp], ecx
  0001d	e8 00 00 00 00	 call	 ?IsCheck@CCommands@@QAE_NPAUOBJECTSTRUCT@@H@Z ; CCommands::IsCheck
  00022	84 c0		 test	 al, al
  00024	0f 84 c0 00 00
	00		 je	 $LN7@OpenWare

; 807  : 	{
; 808  : 		return;
; 809  : 	}
; 810  : 	// ---
; 811  : 	if(gObj[aIndex].pTransaction == 1)

  0002a	80 be 98 0c 00
	00 01		 cmp	 BYTE PTR ?gObj@@3PAUOBJECTSTRUCT@@A[esi+3224], 1
  00031	75 1f		 jne	 SHORT $LN5@OpenWare

; 812  :     {
; 813  : 		MsgUser(aIndex, 1, "%s Feche o Trade Para Usar o Comando!", gObj[aIndex].Name);		

  00033	8d 8e 6f 00 00
	00		 lea	 ecx, DWORD PTR ?gObj@@3PAUOBJECTSTRUCT@@A[esi+111]
  00039	51		 push	 ecx
  0003a	68 00 00 00 00	 push	 OFFSET ??_C@_0CG@HBHJELFD@?$CFs?5Feche?5o?5Trade?5Para?5Usar?5o?5Com@
  0003f	6a 01		 push	 1
  00041	57		 push	 edi
  00042	e8 00 00 00 00	 call	 ?MsgUser@@YAXHHPADZZ	; MsgUser
  00047	83 c4 10	 add	 esp, 16			; 00000010H
  0004a	5f		 pop	 edi
  0004b	5e		 pop	 esi

; 855  : }

  0004c	8b e5		 mov	 esp, ebp
  0004e	5d		 pop	 ebp
  0004f	c2 04 00	 ret	 4
$LN5@OpenWare:

; 814  : 		return;
; 815  :     }
; 816  : 	// ---
; 817  : 	if(gObj[aIndex].m_IfState.use == 1 && gObj[aIndex].m_IfState.type == 7 )

  00052	8b 86 84 0c 00
	00		 mov	 eax, DWORD PTR ?gObj@@3PAUOBJECTSTRUCT@@A[esi+3204]
  00058	8b d0		 mov	 edx, eax
  0005a	80 e2 03	 and	 dl, 3
  0005d	80 fa 01	 cmp	 dl, 1
  00060	75 2b		 jne	 SHORT $LN4@OpenWare
  00062	25 c0 ff 00 00	 and	 eax, 65472		; 0000ffc0H
  00067	3d c0 01 00 00	 cmp	 eax, 448		; 000001c0H
  0006c	75 1f		 jne	 SHORT $LN4@OpenWare

; 818  :     {
; 819  : 		MsgUser(aIndex, 1, "%s Feche o chaosbox para usar o comando!", gObj[aIndex].Name);	

  0006e	8d 86 6f 00 00
	00		 lea	 eax, DWORD PTR ?gObj@@3PAUOBJECTSTRUCT@@A[esi+111]
  00074	50		 push	 eax
  00075	68 00 00 00 00	 push	 OFFSET ??_C@_0CJ@OFOCNKLJ@?$CFs?5Feche?5o?5chaosbox?5para?5usar?5o?5@
  0007a	6a 01		 push	 1
  0007c	57		 push	 edi
  0007d	e8 00 00 00 00	 call	 ?MsgUser@@YAXHHPADZZ	; MsgUser
  00082	83 c4 10	 add	 esp, 16			; 00000010H
  00085	5f		 pop	 edi
  00086	5e		 pop	 esi

; 855  : }

  00087	8b e5		 mov	 esp, ebp
  00089	5d		 pop	 ebp
  0008a	c2 04 00	 ret	 4
$LN4@OpenWare:

; 820  : 		return;
; 821  : 	}
; 822  : 	// ---
; 823  : 	if(gObj[aIndex].m_ReqWarehouseOpen != 0  || gObj[aIndex].WarehouseSave != 0 )

  0008d	80 be 58 0f 00
	00 00		 cmp	 BYTE PTR ?gObj@@3PAUOBJECTSTRUCT@@A[esi+3928], 0
  00094	0f 85 e1 00 00
	00		 jne	 $LN2@OpenWare
  0009a	83 be d8 0c 00
	00 00		 cmp	 DWORD PTR ?gObj@@3PAUOBJECTSTRUCT@@A[esi+3288], 0
  000a1	0f 85 d4 00 00
	00		 jne	 $LN2@OpenWare

; 826  : 		return;
; 827  : 	}
; 828  : 	// ---
; 829  : 	DWORD dwDelay = (GetTickCount() - gObj[aIndex].m_DelayOpenWare) / 1000;

  000a7	53		 push	 ebx
  000a8	8b 1d 00 00 00
	00		 mov	 ebx, DWORD PTR __imp__GetTickCount@0
  000ae	ff d3		 call	 ebx
  000b0	8b c8		 mov	 ecx, eax
  000b2	2b 8e 58 15 00
	00		 sub	 ecx, DWORD PTR ?gObj@@3PAUOBJECTSTRUCT@@A[esi+5464]
  000b8	b8 d3 4d 62 10	 mov	 eax, 274877907		; 10624dd3H
  000bd	f7 e1		 mul	 ecx

; 830  : 	// ---
; 831  : 	if(dwDelay < this->m_Data[COMMAND_OPENWARE].iDelay)

  000bf	8b 45 fc	 mov	 eax, DWORD PTR _this$[ebp]
  000c2	8b 80 74 0f 00
	00		 mov	 eax, DWORD PTR [eax+3956]
  000c8	c1 ea 06	 shr	 edx, 6
  000cb	3b d0		 cmp	 edx, eax
  000cd	73 23		 jae	 SHORT $LN1@OpenWare

; 832  : 	{
; 833  : 		MsgUser(aIndex, 1, "[%s] Aguarde %d segundo(s) para abrir o bau.", gObj[aIndex].Name, (this->m_Data[COMMAND_OPENWARE].iDelay - dwDelay));

  000cf	2b c2		 sub	 eax, edx
  000d1	50		 push	 eax
  000d2	8d 8e 6f 00 00
	00		 lea	 ecx, DWORD PTR ?gObj@@3PAUOBJECTSTRUCT@@A[esi+111]
  000d8	51		 push	 ecx
  000d9	68 00 00 00 00	 push	 OFFSET ??_C@_0CN@LDPKIFCG@?$FL?$CFs?$FN?5Aguarde?5?$CFd?5segundo?$CIs?$CJ?5para?5@
  000de	6a 01		 push	 1
  000e0	57		 push	 edi
  000e1	e8 00 00 00 00	 call	 ?MsgUser@@YAXHHPADZZ	; MsgUser
  000e6	83 c4 14	 add	 esp, 20			; 00000014H
  000e9	5b		 pop	 ebx
$LN7@OpenWare:
  000ea	5f		 pop	 edi
  000eb	5e		 pop	 esi

; 855  : }

  000ec	8b e5		 mov	 esp, ebp
  000ee	5d		 pop	 ebp
  000ef	c2 04 00	 ret	 4
$LN1@OpenWare:

; 834  : 		return;
; 835  : 	}
; 836  : 	// ---
; 837  : 	gObj[aIndex].m_DelayWare = GetTickCount();

  000f2	ff d3		 call	 ebx

; 838  : 	// ---	
; 839  : 	gObj[aIndex].m_ReqWarehouseOpen		= 1;
; 840  : 	gObj[aIndex].m_IfState.type			= 6;
; 841  : 	gObj[aIndex].m_IfState.use			= 1;
; 842  : 	gObj[aIndex].m_IfState.state		= 0;

  000f4	8b 96 84 0c 00
	00		 mov	 edx, DWORD PTR ?gObj@@3PAUOBJECTSTRUCT@@A[esi+3204]
  000fa	89 86 54 15 00
	00		 mov	 DWORD PTR ?gObj@@3PAUOBJECTSTRUCT@@A[esi+5460], eax

; 843  : 	gObj[aIndex].WarehouseSave			= 1;
; 844  : 	gObj[aIndex].WarehouseCount			= 0;
; 845  : 	// ---
; 846  : 	GDGetWarehouseList(aIndex, gObj[aIndex].AccountID);

  00100	8d 86 64 00 00
	00		 lea	 eax, DWORD PTR ?gObj@@3PAUOBJECTSTRUCT@@A[esi+100]
  00106	81 e2 81 01 ff
	ff		 and	 edx, -65151		; ffff0181H
  0010c	50		 push	 eax
  0010d	81 ca 81 01 00
	00		 or	 edx, 385		; 00000181H
  00113	57		 push	 edi
  00114	c6 86 58 0f 00
	00 01		 mov	 BYTE PTR ?gObj@@3PAUOBJECTSTRUCT@@A[esi+3928], 1
  0011b	89 96 84 0c 00
	00		 mov	 DWORD PTR ?gObj@@3PAUOBJECTSTRUCT@@A[esi+3204], edx
  00121	c7 86 d8 0c 00
	00 01 00 00 00	 mov	 DWORD PTR ?gObj@@3PAUOBJECTSTRUCT@@A[esi+3288], 1
  0012b	c6 86 cc 0c 00
	00 00		 mov	 BYTE PTR ?gObj@@3PAUOBJECTSTRUCT@@A[esi+3276], 0
  00132	e8 00 00 00 00	 call	 ?GDGetWarehouseList@@YAXHPAD@Z ; GDGetWarehouseList

; 847  : 	// ---
; 848  : 	GCLevelUpMsgSend(aIndex, true);

  00137	6a 01		 push	 1
  00139	57		 push	 edi
  0013a	e8 00 00 00 00	 call	 ?GCLevelUpMsgSend@@YAXHH@Z ; GCLevelUpMsgSend

; 849  : 	// ---
; 850  : 	MsgUser(aIndex, 1, "[%s] Abrindo ba ...", gObj[aIndex].Name);

  0013f	8d b6 6f 00 00
	00		 lea	 esi, DWORD PTR ?gObj@@3PAUOBJECTSTRUCT@@A[esi+111]
  00145	56		 push	 esi
  00146	68 00 00 00 00	 push	 OFFSET ??_C@_0BF@CEJOGEIM@?$FL?$CFs?$FN?5Abrindo?5ba?z?5?4?4?4?$AA@
  0014b	6a 01		 push	 1
  0014d	57		 push	 edi
  0014e	e8 00 00 00 00	 call	 ?MsgUser@@YAXHHPADZZ	; MsgUser
  00153	83 c4 20	 add	 esp, 32			; 00000020H

; 851  : 	// ---
; 852  : 	Sleep(1000);

  00156	68 e8 03 00 00	 push	 1000			; 000003e8H
  0015b	ff 15 00 00 00
	00		 call	 DWORD PTR __imp__Sleep@4

; 853  : 	// ---
; 854  : 	MsgUser(aIndex, 1, "[%s] Ba aberto com sucesso.", gObj[aIndex].Name);	

  00161	56		 push	 esi
  00162	68 00 00 00 00	 push	 OFFSET ??_C@_0BN@HNEKEMB@?$FL?$CFs?$FN?5Ba?z?5aberto?5com?5sucesso?4?$AA@
  00167	6a 01		 push	 1
  00169	57		 push	 edi
  0016a	e8 00 00 00 00	 call	 ?MsgUser@@YAXHHPADZZ	; MsgUser
  0016f	83 c4 10	 add	 esp, 16			; 00000010H
  00172	5b		 pop	 ebx
  00173	5f		 pop	 edi
  00174	5e		 pop	 esi

; 855  : }

  00175	8b e5		 mov	 esp, ebp
  00177	5d		 pop	 ebp
  00178	c2 04 00	 ret	 4
$LN2@OpenWare:

; 824  : 	{
; 825  : 		MsgUser(aIndex, 1, "%s Feche o ba para usar o comando!", gObj[aIndex].Name);	

  0017b	8d 8e 6f 00 00
	00		 lea	 ecx, DWORD PTR ?gObj@@3PAUOBJECTSTRUCT@@A[esi+111]
  00181	51		 push	 ecx
  00182	68 00 00 00 00	 push	 OFFSET ??_C@_0CE@JDAOMAED@?$CFs?5Feche?5o?5ba?z?5para?5usar?5o?5coman@
  00187	6a 01		 push	 1
  00189	57		 push	 edi
  0018a	e8 00 00 00 00	 call	 ?MsgUser@@YAXHHPADZZ	; MsgUser
  0018f	83 c4 10	 add	 esp, 16			; 00000010H
  00192	5f		 pop	 edi
  00193	5e		 pop	 esi

; 855  : }

  00194	8b e5		 mov	 esp, ebp
  00196	5d		 pop	 ebp
  00197	c2 04 00	 ret	 4
?OpenWare@CCommands@@QAEXH@Z ENDP			; CCommands::OpenWare
_TEXT	ENDS
PUBLIC	??_C@_0DM@FGCFGLIP@?$FL?$CFs?$FN?5Para?5comprar?5novos?5ba?zs?0?5ut@ ; `string'
PUBLIC	??_C@_0CB@MDDCODNJ@?$FL?$CFs?$FN?5Voc?j?5possui?5?$CFd?5Ba?zs?5Extras?4@ ; `string'
PUBLIC	?WareInfo@CCommands@@QAEXH@Z			; CCommands::WareInfo
;	COMDAT ??_C@_0DM@FGCFGLIP@?$FL?$CFs?$FN?5Para?5comprar?5novos?5ba?zs?0?5ut@
CONST	SEGMENT
??_C@_0DM@FGCFGLIP@?$FL?$CFs?$FN?5Para?5comprar?5novos?5ba?zs?0?5ut@ DB '['
	DB	'%s] Para comprar novos ba', 0faH, 's, utilize o Expansion of '
	DB	'Vault.', 00H				; `string'
CONST	ENDS
;	COMDAT ??_C@_0CB@MDDCODNJ@?$FL?$CFs?$FN?5Voc?j?5possui?5?$CFd?5Ba?zs?5Extras?4@
CONST	SEGMENT
??_C@_0CB@MDDCODNJ@?$FL?$CFs?$FN?5Voc?j?5possui?5?$CFd?5Ba?zs?5Extras?4@ DB '['
	DB	'%s] Voc', 0eaH, ' possui %d Ba', 0faH, 's Extras.', 00H ; `string'
; Function compile flags: /Ogtp
CONST	ENDS
;	COMDAT ?WareInfo@CCommands@@QAEXH@Z
_TEXT	SEGMENT
_aIndex$ = 8						; size = 4
?WareInfo@CCommands@@QAEXH@Z PROC			; CCommands::WareInfo, COMDAT
; _this$ = ecx

; 858  : {

  00000	55		 push	 ebp
  00001	8b ec		 mov	 ebp, esp
  00003	53		 push	 ebx

; 859  : 	if(this->IsCheck(&gObj[aIndex], COMMAND_WAREINFO) == false)

  00004	8b 5d 08	 mov	 ebx, DWORD PTR _aIndex$[ebp]
  00007	56		 push	 esi
  00008	8b f3		 mov	 esi, ebx
  0000a	69 f6 64 15 00
	00		 imul	 esi, 5476		; 00001564H
  00010	57		 push	 edi
  00011	6a 09		 push	 9
  00013	8d 86 00 00 00
	00		 lea	 eax, DWORD PTR ?gObj@@3PAUOBJECTSTRUCT@@A[esi]
  00019	50		 push	 eax
  0001a	8b f9		 mov	 edi, ecx
  0001c	e8 00 00 00 00	 call	 ?IsCheck@CCommands@@QAE_NPAUOBJECTSTRUCT@@H@Z ; CCommands::IsCheck
  00021	84 c0		 test	 al, al
  00023	74 52		 je	 SHORT $LN6@WareInfo

; 860  : 	{
; 861  : 		return;
; 862  : 	}
; 863  : 	// ---
; 864  : 	switch(this->m_Data[COMMAND_WARE].iWareType)

  00025	8b 87 a8 0d 00
	00		 mov	 eax, DWORD PTR [edi+3496]
  0002b	83 e8 00	 sub	 eax, 0
  0002e	74 0b		 je	 SHORT $LN2@WareInfo
  00030	48		 dec	 eax
  00031	75 2d		 jne	 SHORT $LN3@WareInfo

; 869  : 			}
; 870  : 			break;
; 871  : 		case 1:
; 872  : 			{
; 873  : 				MsgUser(aIndex, 1, "[%s] Voc possui %d Bas Extras.", gObj[aIndex].Name, gObj[aIndex].m_WareNumber);

  00033	8b 8e 60 15 00
	00		 mov	 ecx, DWORD PTR ?gObj@@3PAUOBJECTSTRUCT@@A[esi+5472]

; 874  : 			}
; 875  : 			break;

  00039	eb 0d		 jmp	 SHORT $LN8@WareInfo
$LN2@WareInfo:

; 865  : 	{
; 866  : 		case 0:
; 867  : 			{
; 868  : 				MsgUser(aIndex, 1, "[%s] Voc possui %d Bas Extras.", gObj[aIndex].Name, this->m_Data[COMMAND_WARE].iWareNumber[gObj[aIndex].m_Vip]);

  0003b	8b 86 3c 15 00
	00		 mov	 eax, DWORD PTR ?gObj@@3PAUOBJECTSTRUCT@@A[esi+5436]
  00041	8b 8c 87 ac 0d
	00 00		 mov	 ecx, DWORD PTR [edi+eax*4+3500]
$LN8@WareInfo:
  00048	51		 push	 ecx
  00049	8d 96 6f 00 00
	00		 lea	 edx, DWORD PTR ?gObj@@3PAUOBJECTSTRUCT@@A[esi+111]
  0004f	52		 push	 edx
  00050	68 00 00 00 00	 push	 OFFSET ??_C@_0CB@MDDCODNJ@?$FL?$CFs?$FN?5Voc?j?5possui?5?$CFd?5Ba?zs?5Extras?4@
  00055	6a 01		 push	 1
  00057	53		 push	 ebx
  00058	e8 00 00 00 00	 call	 ?MsgUser@@YAXHHPADZZ	; MsgUser
  0005d	83 c4 14	 add	 esp, 20			; 00000014H
$LN3@WareInfo:

; 876  : 	}
; 877  : 	// ---
; 878  : 	MsgUser(aIndex, 1, "[%s] Para comprar novos bas, utilize o Expansion of Vault.", gObj[aIndex].Name);

  00060	8d 86 6f 00 00
	00		 lea	 eax, DWORD PTR ?gObj@@3PAUOBJECTSTRUCT@@A[esi+111]
  00066	50		 push	 eax
  00067	68 00 00 00 00	 push	 OFFSET ??_C@_0DM@FGCFGLIP@?$FL?$CFs?$FN?5Para?5comprar?5novos?5ba?zs?0?5ut@
  0006c	6a 01		 push	 1
  0006e	53		 push	 ebx
  0006f	e8 00 00 00 00	 call	 ?MsgUser@@YAXHHPADZZ	; MsgUser
  00074	83 c4 10	 add	 esp, 16			; 00000010H
$LN6@WareInfo:
  00077	5f		 pop	 edi
  00078	5e		 pop	 esi
  00079	5b		 pop	 ebx

; 879  : }

  0007a	5d		 pop	 ebp
  0007b	c2 04 00	 ret	 4
?WareInfo@CCommands@@QAEXH@Z ENDP			; CCommands::WareInfo
_TEXT	ENDS
PUBLIC	??_C@_0DE@FOPBALPI@?$FL?$CFs?$FN?5Remova?5todos?5os?5items?5antes@ ; `string'
PUBLIC	?AltClass@CCommands@@QAEXHE@Z			; CCommands::AltClass
;	COMDAT ??_C@_0DE@FOPBALPI@?$FL?$CFs?$FN?5Remova?5todos?5os?5items?5antes@
CONST	SEGMENT
??_C@_0DE@FOPBALPI@?$FL?$CFs?$FN?5Remova?5todos?5os?5items?5antes@ DB '[%'
	DB	's] Remova todos os items antes de usar o comando.', 00H ; `string'
; Function compile flags: /Ogtp
CONST	ENDS
;	COMDAT ?AltClass@CCommands@@QAEXHE@Z
_TEXT	SEGMENT
_aIndex$ = 8						; size = 4
_btType$ = 12						; size = 1
?AltClass@CCommands@@QAEXHE@Z PROC			; CCommands::AltClass, COMDAT
; _this$ = ecx

; 882  : {

  00000	55		 push	 ebp
  00001	8b ec		 mov	 ebp, esp
  00003	56		 push	 esi
  00004	57		 push	 edi

; 883  : 	if(this->IsCheck(&gObj[aIndex], COMMAND_ALTCLASS) == false)

  00005	8b 7d 08	 mov	 edi, DWORD PTR _aIndex$[ebp]
  00008	8b f7		 mov	 esi, edi
  0000a	69 f6 64 15 00
	00		 imul	 esi, 5476		; 00001564H
  00010	6a 0a		 push	 10			; 0000000aH
  00012	8d 86 00 00 00
	00		 lea	 eax, DWORD PTR ?gObj@@3PAUOBJECTSTRUCT@@A[esi]
  00018	50		 push	 eax
  00019	e8 00 00 00 00	 call	 ?IsCheck@CCommands@@QAE_NPAUOBJECTSTRUCT@@H@Z ; CCommands::IsCheck
  0001e	84 c0		 test	 al, al
  00020	0f 84 11 01 00
	00		 je	 $LN17@AltClass

; 884  : 	{
; 885  : 		return;
; 886  : 	}
; 887  : 	// ---
; 888  : 	for(int i = 0; i < 11; i++)

  00026	8b 86 8c 0c 00
	00		 mov	 eax, DWORD PTR ?gObj@@3PAUOBJECTSTRUCT@@A[esi+3212]
  0002c	33 c9		 xor	 ecx, ecx
  0002e	83 c0 06	 add	 eax, 6
  00031	8d 51 01	 lea	 edx, DWORD PTR [ecx+1]
$LL15@AltClass:

; 889  : 	{
; 890  : 		if(gObj[aIndex].pInventory[i].m_Type > 0)

  00034	66 83 38 00	 cmp	 WORD PTR [eax], 0
  00038	7f 20		 jg	 SHORT $LN20@AltClass

; 884  : 	{
; 885  : 		return;
; 886  : 	}
; 887  : 	// ---
; 888  : 	for(int i = 0; i < 11; i++)

  0003a	03 ca		 add	 ecx, edx
  0003c	05 a8 00 00 00	 add	 eax, 168		; 000000a8H
  00041	83 f9 0b	 cmp	 ecx, 11			; 0000000bH
  00044	7c ee		 jl	 SHORT $LL15@AltClass

; 893  : 			return;
; 894  : 		}
; 895  : 	}
; 896  : 	// ---
; 897  : 	switch(btType)

  00046	0f b6 45 0c	 movzx	 eax, BYTE PTR _btType$[ebp]
  0004a	83 f8 07	 cmp	 eax, 7
  0004d	0f 87 d8 00 00
	00		 ja	 $LN1@AltClass
  00053	ff 24 85 00 00
	00 00		 jmp	 DWORD PTR $LN22@AltClass[eax*4]
$LN20@AltClass:

; 891  : 		{
; 892  : 			MsgUser(aIndex, 1, "[%s] Remova todos os items antes de usar o comando.", gObj[aIndex].Name);

  0005a	8d 8e 6f 00 00
	00		 lea	 ecx, DWORD PTR ?gObj@@3PAUOBJECTSTRUCT@@A[esi+111]
  00060	51		 push	 ecx
  00061	68 00 00 00 00	 push	 OFFSET ??_C@_0DE@FOPBALPI@?$FL?$CFs?$FN?5Remova?5todos?5os?5items?5antes@
  00066	52		 push	 edx
  00067	57		 push	 edi
  00068	e8 00 00 00 00	 call	 ?MsgUser@@YAXHHPADZZ	; MsgUser
  0006d	83 c4 10	 add	 esp, 16			; 00000010H
  00070	5f		 pop	 edi
  00071	5e		 pop	 esi

; 913  : }

  00072	5d		 pop	 ebp
  00073	c2 08 00	 ret	 8
$LN9@AltClass:
  00076	5f		 pop	 edi

; 898  : 	{	
; 899  : 		case 0: gObj[aIndex].DbClass = 0;								break;

  00077	c6 86 9a 00 00
	00 00		 mov	 BYTE PTR ?gObj@@3PAUOBJECTSTRUCT@@A[esi+154], 0

; 907  : 		// ---
; 908  : 		default: break;
; 909  : 	}
; 910  : 	// ---
; 911  : 	gObj[aIndex].CloseType  = 1;

  0007e	88 96 08 00 00
	00		 mov	 BYTE PTR ?gObj@@3PAUOBJECTSTRUCT@@A[esi+8], dl

; 912  : 	gObj[aIndex].CloseCount = 1;

  00084	88 96 07 00 00
	00		 mov	 BYTE PTR ?gObj@@3PAUOBJECTSTRUCT@@A[esi+7], dl
  0008a	5e		 pop	 esi

; 913  : }

  0008b	5d		 pop	 ebp
  0008c	c2 08 00	 ret	 8
$LN8@AltClass:
  0008f	5f		 pop	 edi

; 900  : 		case 1: gObj[aIndex].DbClass = 1;								break;

  00090	88 96 9a 00 00
	00		 mov	 BYTE PTR ?gObj@@3PAUOBJECTSTRUCT@@A[esi+154], dl

; 907  : 		// ---
; 908  : 		default: break;
; 909  : 	}
; 910  : 	// ---
; 911  : 	gObj[aIndex].CloseType  = 1;

  00096	88 96 08 00 00
	00		 mov	 BYTE PTR ?gObj@@3PAUOBJECTSTRUCT@@A[esi+8], dl

; 912  : 	gObj[aIndex].CloseCount = 1;

  0009c	88 96 07 00 00
	00		 mov	 BYTE PTR ?gObj@@3PAUOBJECTSTRUCT@@A[esi+7], dl
  000a2	5e		 pop	 esi

; 913  : }

  000a3	5d		 pop	 ebp
  000a4	c2 08 00	 ret	 8
$LN7@AltClass:
  000a7	5f		 pop	 edi

; 901  : 		case 2: gObj[aIndex].DbClass = 16;								break;

  000a8	c6 86 9a 00 00
	00 10		 mov	 BYTE PTR ?gObj@@3PAUOBJECTSTRUCT@@A[esi+154], 16 ; 00000010H

; 907  : 		// ---
; 908  : 		default: break;
; 909  : 	}
; 910  : 	// ---
; 911  : 	gObj[aIndex].CloseType  = 1;

  000af	88 96 08 00 00
	00		 mov	 BYTE PTR ?gObj@@3PAUOBJECTSTRUCT@@A[esi+8], dl

; 912  : 	gObj[aIndex].CloseCount = 1;

  000b5	88 96 07 00 00
	00		 mov	 BYTE PTR ?gObj@@3PAUOBJECTSTRUCT@@A[esi+7], dl
  000bb	5e		 pop	 esi

; 913  : }

  000bc	5d		 pop	 ebp
  000bd	c2 08 00	 ret	 8
$LN6@AltClass:
  000c0	5f		 pop	 edi

; 902  : 		case 3: gObj[aIndex].DbClass = 17;								break;

  000c1	c6 86 9a 00 00
	00 11		 mov	 BYTE PTR ?gObj@@3PAUOBJECTSTRUCT@@A[esi+154], 17 ; 00000011H

; 907  : 		// ---
; 908  : 		default: break;
; 909  : 	}
; 910  : 	// ---
; 911  : 	gObj[aIndex].CloseType  = 1;

  000c8	88 96 08 00 00
	00		 mov	 BYTE PTR ?gObj@@3PAUOBJECTSTRUCT@@A[esi+8], dl

; 912  : 	gObj[aIndex].CloseCount = 1;

  000ce	88 96 07 00 00
	00		 mov	 BYTE PTR ?gObj@@3PAUOBJECTSTRUCT@@A[esi+7], dl
  000d4	5e		 pop	 esi

; 913  : }

  000d5	5d		 pop	 ebp
  000d6	c2 08 00	 ret	 8
$LN5@AltClass:
  000d9	5f		 pop	 edi

; 903  : 		case 4: gObj[aIndex].DbClass = 32;								break;

  000da	c6 86 9a 00 00
	00 20		 mov	 BYTE PTR ?gObj@@3PAUOBJECTSTRUCT@@A[esi+154], 32 ; 00000020H

; 907  : 		// ---
; 908  : 		default: break;
; 909  : 	}
; 910  : 	// ---
; 911  : 	gObj[aIndex].CloseType  = 1;

  000e1	88 96 08 00 00
	00		 mov	 BYTE PTR ?gObj@@3PAUOBJECTSTRUCT@@A[esi+8], dl

; 912  : 	gObj[aIndex].CloseCount = 1;

  000e7	88 96 07 00 00
	00		 mov	 BYTE PTR ?gObj@@3PAUOBJECTSTRUCT@@A[esi+7], dl
  000ed	5e		 pop	 esi

; 913  : }

  000ee	5d		 pop	 ebp
  000ef	c2 08 00	 ret	 8
$LN4@AltClass:
  000f2	5f		 pop	 edi

; 904  : 		case 5:	gObj[aIndex].DbClass = 33;								break;

  000f3	c6 86 9a 00 00
	00 21		 mov	 BYTE PTR ?gObj@@3PAUOBJECTSTRUCT@@A[esi+154], 33 ; 00000021H

; 907  : 		// ---
; 908  : 		default: break;
; 909  : 	}
; 910  : 	// ---
; 911  : 	gObj[aIndex].CloseType  = 1;

  000fa	88 96 08 00 00
	00		 mov	 BYTE PTR ?gObj@@3PAUOBJECTSTRUCT@@A[esi+8], dl

; 912  : 	gObj[aIndex].CloseCount = 1;

  00100	88 96 07 00 00
	00		 mov	 BYTE PTR ?gObj@@3PAUOBJECTSTRUCT@@A[esi+7], dl
  00106	5e		 pop	 esi

; 913  : }

  00107	5d		 pop	 ebp
  00108	c2 08 00	 ret	 8
$LN3@AltClass:
  0010b	5f		 pop	 edi

; 905  : 		case 6:	gObj[aIndex].DbClass = 48;								break;

  0010c	c6 86 9a 00 00
	00 30		 mov	 BYTE PTR ?gObj@@3PAUOBJECTSTRUCT@@A[esi+154], 48 ; 00000030H

; 907  : 		// ---
; 908  : 		default: break;
; 909  : 	}
; 910  : 	// ---
; 911  : 	gObj[aIndex].CloseType  = 1;

  00113	88 96 08 00 00
	00		 mov	 BYTE PTR ?gObj@@3PAUOBJECTSTRUCT@@A[esi+8], dl

; 912  : 	gObj[aIndex].CloseCount = 1;

  00119	88 96 07 00 00
	00		 mov	 BYTE PTR ?gObj@@3PAUOBJECTSTRUCT@@A[esi+7], dl
  0011f	5e		 pop	 esi

; 913  : }

  00120	5d		 pop	 ebp
  00121	c2 08 00	 ret	 8
$LN2@AltClass:

; 906  : 		case 7:	gObj[aIndex].DbClass = 64; gObj[aIndex].AddLeadership;	break;

  00124	c6 86 9a 00 00
	00 40		 mov	 BYTE PTR ?gObj@@3PAUOBJECTSTRUCT@@A[esi+154], 64 ; 00000040H
$LN1@AltClass:

; 907  : 		// ---
; 908  : 		default: break;
; 909  : 	}
; 910  : 	// ---
; 911  : 	gObj[aIndex].CloseType  = 1;

  0012b	88 96 08 00 00
	00		 mov	 BYTE PTR ?gObj@@3PAUOBJECTSTRUCT@@A[esi+8], dl

; 912  : 	gObj[aIndex].CloseCount = 1;

  00131	88 96 07 00 00
	00		 mov	 BYTE PTR ?gObj@@3PAUOBJECTSTRUCT@@A[esi+7], dl
$LN17@AltClass:
  00137	5f		 pop	 edi
  00138	5e		 pop	 esi

; 913  : }

  00139	5d		 pop	 ebp
  0013a	c2 08 00	 ret	 8
  0013d	8d 49 00	 npad	 3
$LN22@AltClass:
  00140	00 00 00 00	 DD	 $LN9@AltClass
  00144	00 00 00 00	 DD	 $LN8@AltClass
  00148	00 00 00 00	 DD	 $LN7@AltClass
  0014c	00 00 00 00	 DD	 $LN6@AltClass
  00150	00 00 00 00	 DD	 $LN5@AltClass
  00154	00 00 00 00	 DD	 $LN4@AltClass
  00158	00 00 00 00	 DD	 $LN3@AltClass
  0015c	00 00 00 00	 DD	 $LN2@AltClass
?AltClass@CCommands@@QAEXHE@Z ENDP			; CCommands::AltClass
_TEXT	ENDS
PUBLIC	??_C@_0CN@OANHFNDD@?$FL?$CFs?$FN?5Voc?j?5possui?5?$CFd?5Resets?0?5?$CFd?5M@ ; `string'
PUBLIC	??_C@_0CF@EGJMKJI@?$FL?$CFs?$FN?5Voc?j?5possui?5?$CFd?5Golds?0?5?$CFd?5Ca@ ; `string'
PUBLIC	?CharInfo@CCommands@@QAEXH@Z			; CCommands::CharInfo
;	COMDAT ??_C@_0CN@OANHFNDD@?$FL?$CFs?$FN?5Voc?j?5possui?5?$CFd?5Resets?0?5?$CFd?5M@
CONST	SEGMENT
??_C@_0CN@OANHFNDD@?$FL?$CFs?$FN?5Voc?j?5possui?5?$CFd?5Resets?0?5?$CFd?5M@ DB '['
	DB	'%s] Voc', 0eaH, ' possui %d Resets, %d MasterResets.', 00H ; `string'
CONST	ENDS
;	COMDAT ??_C@_0CF@EGJMKJI@?$FL?$CFs?$FN?5Voc?j?5possui?5?$CFd?5Golds?0?5?$CFd?5Ca@
CONST	SEGMENT
??_C@_0CF@EGJMKJI@?$FL?$CFs?$FN?5Voc?j?5possui?5?$CFd?5Golds?0?5?$CFd?5Ca@ DB '['
	DB	'%s] Voc', 0eaH, ' possui %d Golds, %d Cashs.', 00H ; `string'
; Function compile flags: /Ogtp
CONST	ENDS
;	COMDAT ?CharInfo@CCommands@@QAEXH@Z
_TEXT	SEGMENT
_aIndex$ = 8						; size = 4
?CharInfo@CCommands@@QAEXH@Z PROC			; CCommands::CharInfo, COMDAT
; _this$ = ecx

; 916  : {

  00000	55		 push	 ebp
  00001	8b ec		 mov	 ebp, esp
  00003	53		 push	 ebx

; 917  : 	if(this->IsCheck(&gObj[aIndex], COMMAND_CHARINFO) == false)

  00004	8b 5d 08	 mov	 ebx, DWORD PTR _aIndex$[ebp]
  00007	56		 push	 esi
  00008	8b f3		 mov	 esi, ebx
  0000a	69 f6 64 15 00
	00		 imul	 esi, 5476		; 00001564H
  00010	6a 0b		 push	 11			; 0000000bH
  00012	8d 86 00 00 00
	00		 lea	 eax, DWORD PTR ?gObj@@3PAUOBJECTSTRUCT@@A[esi]
  00018	50		 push	 eax
  00019	e8 00 00 00 00	 call	 ?IsCheck@CCommands@@QAE_NPAUOBJECTSTRUCT@@H@Z ; CCommands::IsCheck
  0001e	84 c0		 test	 al, al
  00020	74 43		 je	 SHORT $LN2@CharInfo

; 918  : 	{
; 919  : 		return;
; 920  : 	}
; 921  : 	// ---
; 922  : 	MsgUser(aIndex, 1, "[%s] Voc possui %d Golds, %d Cashs.", gObj[aIndex].Name, gObj[aIndex].m_Gold, gObj[aIndex].m_Cash);

  00022	8b 8e 48 15 00
	00		 mov	 ecx, DWORD PTR ?gObj@@3PAUOBJECTSTRUCT@@A[esi+5448]
  00028	8b 96 4c 15 00
	00		 mov	 edx, DWORD PTR ?gObj@@3PAUOBJECTSTRUCT@@A[esi+5452]
  0002e	57		 push	 edi
  0002f	51		 push	 ecx
  00030	52		 push	 edx
  00031	8d be 6f 00 00
	00		 lea	 edi, DWORD PTR ?gObj@@3PAUOBJECTSTRUCT@@A[esi+111]
  00037	57		 push	 edi
  00038	68 00 00 00 00	 push	 OFFSET ??_C@_0CF@EGJMKJI@?$FL?$CFs?$FN?5Voc?j?5possui?5?$CFd?5Golds?0?5?$CFd?5Ca@
  0003d	6a 01		 push	 1
  0003f	53		 push	 ebx
  00040	e8 00 00 00 00	 call	 ?MsgUser@@YAXHHPADZZ	; MsgUser

; 923  : 	// ---
; 924  : 	MsgUser(aIndex, 1, "[%s] Voc possui %d Resets, %d MasterResets.", gObj[aIndex].Name, gObj[aIndex].m_Resets, gObj[aIndex].m_MasterResets);

  00045	8b 86 44 15 00
	00		 mov	 eax, DWORD PTR ?gObj@@3PAUOBJECTSTRUCT@@A[esi+5444]
  0004b	8b 8e 40 15 00
	00		 mov	 ecx, DWORD PTR ?gObj@@3PAUOBJECTSTRUCT@@A[esi+5440]
  00051	50		 push	 eax
  00052	51		 push	 ecx
  00053	57		 push	 edi
  00054	68 00 00 00 00	 push	 OFFSET ??_C@_0CN@OANHFNDD@?$FL?$CFs?$FN?5Voc?j?5possui?5?$CFd?5Resets?0?5?$CFd?5M@
  00059	6a 01		 push	 1
  0005b	53		 push	 ebx
  0005c	e8 00 00 00 00	 call	 ?MsgUser@@YAXHHPADZZ	; MsgUser
  00061	83 c4 30	 add	 esp, 48			; 00000030H
  00064	5f		 pop	 edi
$LN2@CharInfo:
  00065	5e		 pop	 esi
  00066	5b		 pop	 ebx

; 925  : 	// ---
; 926  : 	/*if(hgtObj->m_Vip > 0)
; 927  : 	{
; 928  : 		MsgUser(aIndex, 1, "[%s] Voc possui %d dia(s) Vip.", gObj[aIndex].Name, gObj[aIndex].m_VipDays);
; 929  : 	}
; 930  : 	else
; 931  : 	{
; 932  : 		MsgUser(aIndex, 1, "[%s] Voc no  Vip.", gObj[aIndex].Name);
; 933  : 	}*/
; 934  : 	// ---
; 935  : 	/*if(hgtObj->m_OnHour > 0)
; 936  : 	{
; 937  : 		MsgUser(aIndex, 1, "[%s] Voc possui %d hora(s) online.", gObj[aIndex].Name, gObj[aIndex].m_OnHour);
; 938  : 	}
; 939  : 	else
; 940  : 	{
; 941  : 		MsgUser(aIndex, 1, "[%s] Voc possui %d minuto(s) online.", gObj[aIndex].Name, gObj[aIndex].m_OnMin);
; 942  : 	}*/
; 943  : }

  00067	5d		 pop	 ebp
  00068	c2 04 00	 ret	 4
?CharInfo@CCommands@@QAEXH@Z ENDP			; CCommands::CharInfo
_TEXT	ENDS
PUBLIC	??$sprintf_s@$0GE@@@YAHAAY0GE@DPBDZZ		; sprintf_s<100>
EXTRN	_vsprintf_s:PROC
; Function compile flags: /Ogtp
; File c:\program files (x86)\microsoft visual studio 10.0\vc\include\stdio.h
;	COMDAT ??$sprintf_s@$0GE@@@YAHAAY0GE@DPBDZZ
_TEXT	SEGMENT
__Dest$ = 8						; size = 4
__Format$ = 12						; size = 4
??$sprintf_s@$0GE@@@YAHAAY0GE@DPBDZZ PROC		; sprintf_s<100>, COMDAT

; 323  : __DEFINE_CPP_OVERLOAD_SECURE_FUNC_0_1_ARGLIST(int, sprintf_s, vsprintf_s, _Deref_post_z_ char, _Dest, _In_z_ _Printf_format_string_ const char *, _Format)

  00000	55		 push	 ebp
  00001	8b ec		 mov	 ebp, esp
  00003	8b 4d 0c	 mov	 ecx, DWORD PTR __Format$[ebp]
  00006	8b 55 08	 mov	 edx, DWORD PTR __Dest$[ebp]
  00009	8d 45 10	 lea	 eax, DWORD PTR __Format$[ebp+4]
  0000c	50		 push	 eax
  0000d	51		 push	 ecx
  0000e	6a 64		 push	 100			; 00000064H
  00010	52		 push	 edx
  00011	e8 00 00 00 00	 call	 _vsprintf_s
  00016	83 c4 10	 add	 esp, 16			; 00000010H
  00019	5d		 pop	 ebp
  0001a	c3		 ret	 0
??$sprintf_s@$0GE@@@YAHAAY0GE@DPBDZZ ENDP		; sprintf_s<100>
_TEXT	ENDS
PUBLIC	?set@PBMSG_HEAD@@QAEXPAEEE@Z			; PBMSG_HEAD::set
; Function compile flags: /Ogtp
; File c:\users\faelhs\mu-1.1\emu - gameserver sapphire s0\include\prodef.h
;	COMDAT ?set@PBMSG_HEAD@@QAEXPAEEE@Z
_TEXT	SEGMENT
_lpBuf$ = 8						; size = 4
_head$ = 12						; size = 1
_size$ = 16						; size = 1
?set@PBMSG_HEAD@@QAEXPAEEE@Z PROC			; PBMSG_HEAD::set, COMDAT
; _this$ = ecx

; 92   : 	{

  00000	55		 push	 ebp
  00001	8b ec		 mov	 ebp, esp

; 93   : 		lpBuf[0] = 0xC1;

  00003	8b 45 08	 mov	 eax, DWORD PTR _lpBuf$[ebp]

; 94   : 		lpBuf[1] = size;

  00006	8a 4d 10	 mov	 cl, BYTE PTR _size$[ebp]

; 95   : 		lpBuf[2] = head;

  00009	8a 55 0c	 mov	 dl, BYTE PTR _head$[ebp]
  0000c	c6 00 c1	 mov	 BYTE PTR [eax], 193	; 000000c1H
  0000f	88 48 01	 mov	 BYTE PTR [eax+1], cl
  00012	88 50 02	 mov	 BYTE PTR [eax+2], dl

; 96   : 	};	// line : 22

  00015	5d		 pop	 ebp
  00016	c2 0c 00	 ret	 12			; 0000000cH
?set@PBMSG_HEAD@@QAEXPAEEE@Z ENDP			; PBMSG_HEAD::set
_TEXT	ENDS
PUBLIC	??_C@_0BA@JOEDEHLO@?$EA?$EA?$FLPOST?$FN?5?$CFs?3?5?$CFs?$AA@ ; `string'
PUBLIC	??_C@_0P@ILFFPJPG@?$EA?$FLPOST?$FN?5?$CFs?3?5?$CFs?$AA@ ; `string'
PUBLIC	??_C@_0P@KKIBEAFC@?$HO?$FLPOST?$FN?5?$CFs?3?5?$CFs?$AA@ ; `string'
PUBLIC	??_C@_0O@EHMGPIKL@?$FLPOST?$FN?5?$CFs?3?5?$CFs?$AA@ ; `string'
PUBLIC	??_C@_0CI@CKCLBJFD@?$FL?$CFs?$FN?5Aguarde?5?$CFd?5segundo?$CIs?$CJ?5para?5@ ; `string'
PUBLIC	??_C@_0CB@MOAGPEHI@Como?5usar?5o?5comando?3?5?1post?5?$DMmsg?$DO@ ; `string'
PUBLIC	_szMsg$GSCopy$
PUBLIC	_aIndex$GSCopy$
PUBLIC	__$ArrayPad$
PUBLIC	?Post@CCommands@@QAEXHPAD@Z			; CCommands::Post
EXTRN	?DataSendAll@@YAXPAEH@Z:PROC			; DataSendAll
EXTRN	_sprintf:PROC
EXTRN	___security_cookie:DWORD
EXTRN	@__security_check_cookie@4:PROC
EXTRN	_memcpy:PROC
EXTRN	_memset:PROC
;	COMDAT ??_C@_0BA@JOEDEHLO@?$EA?$EA?$FLPOST?$FN?5?$CFs?3?5?$CFs?$AA@
CONST	SEGMENT
??_C@_0BA@JOEDEHLO@?$EA?$EA?$FLPOST?$FN?5?$CFs?3?5?$CFs?$AA@ DB '@@[POST]'
	DB	' %s: %s', 00H				; `string'
CONST	ENDS
;	COMDAT ??_C@_0P@ILFFPJPG@?$EA?$FLPOST?$FN?5?$CFs?3?5?$CFs?$AA@
CONST	SEGMENT
??_C@_0P@ILFFPJPG@?$EA?$FLPOST?$FN?5?$CFs?3?5?$CFs?$AA@ DB '@[POST] %s: %'
	DB	's', 00H					; `string'
CONST	ENDS
;	COMDAT ??_C@_0P@KKIBEAFC@?$HO?$FLPOST?$FN?5?$CFs?3?5?$CFs?$AA@
CONST	SEGMENT
??_C@_0P@KKIBEAFC@?$HO?$FLPOST?$FN?5?$CFs?3?5?$CFs?$AA@ DB '~[POST] %s: %'
	DB	's', 00H					; `string'
CONST	ENDS
;	COMDAT ??_C@_0O@EHMGPIKL@?$FLPOST?$FN?5?$CFs?3?5?$CFs?$AA@
CONST	SEGMENT
??_C@_0O@EHMGPIKL@?$FLPOST?$FN?5?$CFs?3?5?$CFs?$AA@ DB '[POST] %s: %s', 00H ; `string'
CONST	ENDS
;	COMDAT ??_C@_0CI@CKCLBJFD@?$FL?$CFs?$FN?5Aguarde?5?$CFd?5segundo?$CIs?$CJ?5para?5@
CONST	SEGMENT
??_C@_0CI@CKCLBJFD@?$FL?$CFs?$FN?5Aguarde?5?$CFd?5segundo?$CIs?$CJ?5para?5@ DB '['
	DB	'%s] Aguarde %d segundo(s) para postar.', 00H ; `string'
CONST	ENDS
;	COMDAT ??_C@_0CB@MOAGPEHI@Como?5usar?5o?5comando?3?5?1post?5?$DMmsg?$DO@
CONST	SEGMENT
??_C@_0CB@MOAGPEHI@Como?5usar?5o?5comando?3?5?1post?5?$DMmsg?$DO@ DB 'Com'
	DB	'o usar o comando: /post <msg>', 00H		; `string'
; Function compile flags: /Ogtp
; File c:\users\faelhs\mu-1.1\emu - gameserver sapphire s0\gameserver\commands.cpp
CONST	ENDS
;	COMDAT ?Post@CCommands@@QAEXHPAD@Z
_TEXT	SEGMENT
tv74 = -192						; size = 4
_aIndex$GSCopy$ = -188					; size = 4
_szMsg$GSCopy$ = -184					; size = 4
_pMsg$ = -180						; size = 73
_CMessage$ = -104					; size = 100
__$ArrayPad$ = -4					; size = 4
_aIndex$ = 8						; size = 4
_szMsg$ = 12						; size = 4
?Post@CCommands@@QAEXHPAD@Z PROC			; CCommands::Post, COMDAT
; _this$ = ecx

; 412  : {

  00000	55		 push	 ebp
  00001	8b ec		 mov	 ebp, esp
  00003	81 ec c0 00 00
	00		 sub	 esp, 192		; 000000c0H
  00009	a1 00 00 00 00	 mov	 eax, DWORD PTR ___security_cookie
  0000e	33 c5		 xor	 eax, ebp
  00010	89 45 fc	 mov	 DWORD PTR __$ArrayPad$[ebp], eax
  00013	53		 push	 ebx
  00014	56		 push	 esi
  00015	8b 75 08	 mov	 esi, DWORD PTR _aIndex$[ebp]

; 430  : 	}
; 431  : 	// ---
; 432  : 	gObj[aIndex].m_DelayPost = GetTickCount();

  00018	89 b5 44 ff ff
	ff		 mov	 DWORD PTR _aIndex$GSCopy$[ebp], esi
  0001e	69 f6 64 15 00
	00		 imul	 esi, 5476		; 00001564H
  00024	57		 push	 edi
  00025	8b 7d 0c	 mov	 edi, DWORD PTR _szMsg$[ebp]
  00028	6a 00		 push	 0
  0002a	8d 86 00 00 00
	00		 lea	 eax, DWORD PTR ?gObj@@3PAUOBJECTSTRUCT@@A[esi]
  00030	50		 push	 eax
  00031	8b d9		 mov	 ebx, ecx
  00033	89 bd 48 ff ff
	ff		 mov	 DWORD PTR _szMsg$GSCopy$[ebp], edi
  00039	e8 00 00 00 00	 call	 ?IsCheck@CCommands@@QAE_NPAUOBJECTSTRUCT@@H@Z ; CCommands::IsCheck
  0003e	84 c0		 test	 al, al
  00040	0f 84 82 01 00
	00		 je	 $LN11@Post

; 413  : 	if(this->IsCheck(&gObj[aIndex], COMMAND_POST) == false)
; 414  : 	{
; 415  : 		return;
; 416  : 	}
; 417  : 	// ---
; 418  : 	if(strlen(szMsg) <= NULL)

  00046	8b c7		 mov	 eax, edi
  00048	8d 50 01	 lea	 edx, DWORD PTR [eax+1]
  0004b	eb 03 8d 49 00	 npad	 5
$LL15@Post:
  00050	8a 08		 mov	 cl, BYTE PTR [eax]
  00052	40		 inc	 eax
  00053	84 c9		 test	 cl, cl
  00055	75 f9		 jne	 SHORT $LL15@Post
  00057	2b c2		 sub	 eax, edx
  00059	75 29		 jne	 SHORT $LN9@Post

; 419  : 	{
; 420  : 		MsgUser(aIndex, 1, "Como usar o comando: /post <msg>");

  0005b	8b 8d 44 ff ff
	ff		 mov	 ecx, DWORD PTR _aIndex$GSCopy$[ebp]
  00061	68 00 00 00 00	 push	 OFFSET ??_C@_0CB@MOAGPEHI@Como?5usar?5o?5comando?3?5?1post?5?$DMmsg?$DO@
  00066	6a 01		 push	 1
  00068	51		 push	 ecx
  00069	e8 00 00 00 00	 call	 ?MsgUser@@YAXHHPADZZ	; MsgUser
  0006e	83 c4 0c	 add	 esp, 12			; 0000000cH
  00071	5f		 pop	 edi
  00072	5e		 pop	 esi
  00073	5b		 pop	 ebx

; 467  : }

  00074	8b 4d fc	 mov	 ecx, DWORD PTR __$ArrayPad$[ebp]
  00077	33 cd		 xor	 ecx, ebp
  00079	e8 00 00 00 00	 call	 @__security_check_cookie@4
  0007e	8b e5		 mov	 esp, ebp
  00080	5d		 pop	 ebp
  00081	c2 08 00	 ret	 8
$LN9@Post:

; 421  : 		return;
; 422  : 	}
; 423  : 	// ---
; 424  : 	DWORD dwDelay = (GetTickCount() - gObj[aIndex].m_DelayPost) / 1000;

  00084	8b 3d 00 00 00
	00		 mov	 edi, DWORD PTR __imp__GetTickCount@0
  0008a	ff d7		 call	 edi
  0008c	8b d0		 mov	 edx, eax
  0008e	2b 96 50 15 00
	00		 sub	 edx, DWORD PTR ?gObj@@3PAUOBJECTSTRUCT@@A[esi+5456]
  00094	b8 d3 4d 62 10	 mov	 eax, 274877907		; 10624dd3H
  00099	f7 e2		 mul	 edx

; 425  : 	// ---
; 426  : 	if(dwDelay < this->m_Data[COMMAND_POST].iDelay)

  0009b	8b 43 54	 mov	 eax, DWORD PTR [ebx+84]
  0009e	c1 ea 06	 shr	 edx, 6
  000a1	3b d0		 cmp	 edx, eax
  000a3	73 22		 jae	 SHORT $LN8@Post

; 427  : 	{
; 428  : 		MsgUser(aIndex, 1, "[%s] Aguarde %d segundo(s) para postar.", gObj[aIndex].Name, (this->m_Data[COMMAND_POST].iDelay - dwDelay));

  000a5	8b 8d 44 ff ff
	ff		 mov	 ecx, DWORD PTR _aIndex$GSCopy$[ebp]
  000ab	2b c2		 sub	 eax, edx
  000ad	50		 push	 eax
  000ae	8d 86 6f 00 00
	00		 lea	 eax, DWORD PTR ?gObj@@3PAUOBJECTSTRUCT@@A[esi+111]
  000b4	50		 push	 eax
  000b5	68 00 00 00 00	 push	 OFFSET ??_C@_0CI@CKCLBJFD@?$FL?$CFs?$FN?5Aguarde?5?$CFd?5segundo?$CIs?$CJ?5para?5@
  000ba	6a 01		 push	 1
  000bc	51		 push	 ecx
  000bd	e8 00 00 00 00	 call	 ?MsgUser@@YAXHHPADZZ	; MsgUser

; 429  : 		return;

  000c2	e9 fe 00 00 00	 jmp	 $LN17@Post
$LN8@Post:

; 430  : 	}
; 431  : 	// ---
; 432  : 	gObj[aIndex].m_DelayPost = GetTickCount();

  000c7	ff d7		 call	 edi
  000c9	89 86 50 15 00
	00		 mov	 DWORD PTR ?gObj@@3PAUOBJECTSTRUCT@@A[esi+5456], eax

; 433  : 	// ---
; 434  : 	char CMessage[100];
; 435  : 	// ---
; 436  : 	PMSG_CHATDATA pMsg;
; 437  : 	// ---
; 438  : 	pMsg.h.set((LPBYTE)&pMsg,0x00,sizeof(pMsg));
; 439  : 	// ---
; 440  : 	memset(&pMsg.chatid, 0, sizeof(pMsg.chatid));

  000cf	33 c0		 xor	 eax, eax

; 441  : 	memset(&pMsg.chatmsg, 0, sizeof(pMsg.chatmsg));

  000d1	6a 3c		 push	 60			; 0000003cH
  000d3	50		 push	 eax
  000d4	8d 95 59 ff ff
	ff		 lea	 edx, DWORD PTR _pMsg$[ebp+13]
  000da	52		 push	 edx
  000db	66 c7 85 4c ff
	ff ff c1 49	 mov	 WORD PTR _pMsg$[ebp], 18881 ; 000049c1H
  000e4	c6 85 4e ff ff
	ff 00		 mov	 BYTE PTR _pMsg$[ebp+2], 0
  000eb	89 85 4f ff ff
	ff		 mov	 DWORD PTR _pMsg$[ebp+3], eax
  000f1	89 85 53 ff ff
	ff		 mov	 DWORD PTR _pMsg$[ebp+7], eax
  000f7	66 89 85 57 ff
	ff ff		 mov	 WORD PTR _pMsg$[ebp+11], ax
  000fe	e8 00 00 00 00	 call	 _memset

; 442  : 	// ---
; 443  : 	sprintf_s(CMessage, "[POST] %s: %s", gObj[aIndex].Name, szMsg); // -> Normal

  00103	8b 85 48 ff ff
	ff		 mov	 eax, DWORD PTR _szMsg$GSCopy$[ebp]
  00109	50		 push	 eax
  0010a	8d be 6f 00 00
	00		 lea	 edi, DWORD PTR ?gObj@@3PAUOBJECTSTRUCT@@A[esi+111]
  00110	57		 push	 edi
  00111	8d 4d 98	 lea	 ecx, DWORD PTR _CMessage$[ebp]
  00114	68 00 00 00 00	 push	 OFFSET ??_C@_0O@EHMGPIKL@?$FLPOST?$FN?5?$CFs?3?5?$CFs?$AA@
  00119	51		 push	 ecx
  0011a	e8 00 00 00 00	 call	 ??$sprintf_s@$0GE@@@YAHAAY0GE@DPBDZZ ; sprintf_s<100>

; 444  : 	// ---
; 445  : 	if(this->m_Data[COMMAND_POST].iPostColor[gObj[aIndex].m_Vip] == 0) // -> Golden

  0011f	8b 96 3c 15 00
	00		 mov	 edx, DWORD PTR ?gObj@@3PAUOBJECTSTRUCT@@A[esi+5436]
  00125	8b 9c 93 80 00
	00 00		 mov	 ebx, DWORD PTR [ebx+edx*4+128]
  0012c	83 c4 1c	 add	 esp, 28			; 0000001cH
  0012f	85 db		 test	 ebx, ebx
  00131	75 09		 jne	 SHORT $LN7@Post

; 446  : 	{
; 447  : 		pMsg.h.headcode = 0x02;

  00133	c6 85 4e ff ff
	ff 02		 mov	 BYTE PTR _pMsg$[ebp+2], 2
  0013a	eb 4e		 jmp	 SHORT $LN1@Post
$LN7@Post:

; 448  : 	}
; 449  : 	else if(this->m_Data[COMMAND_POST].iPostColor[gObj[aIndex].m_Vip] == 1) // -> Blue

  0013c	83 fb 01	 cmp	 ebx, 1
  0013f	75 13		 jne	 SHORT $LN5@Post

; 450  : 	{
; 451  : 		sprintf(CMessage, "~[POST] %s: %s", gObj[aIndex].Name, szMsg);

  00141	8b 85 48 ff ff
	ff		 mov	 eax, DWORD PTR _szMsg$GSCopy$[ebp]
  00147	50		 push	 eax
  00148	57		 push	 edi
  00149	68 00 00 00 00	 push	 OFFSET ??_C@_0P@KKIBEAFC@?$HO?$FLPOST?$FN?5?$CFs?3?5?$CFs?$AA@
  0014e	8d 4d 98	 lea	 ecx, DWORD PTR _CMessage$[ebp]
  00151	51		 push	 ecx
  00152	eb 2e		 jmp	 SHORT $LN18@Post
$LN5@Post:

; 452  : 	}
; 453  : 	else if(this->m_Data[COMMAND_POST].iPostColor[gObj[aIndex].m_Vip] == 2) // -> Green

  00154	83 fb 02	 cmp	 ebx, 2
  00157	75 13		 jne	 SHORT $LN3@Post

; 454  : 	{
; 455  : 		sprintf(CMessage, "@[POST] %s: %s", gObj[aIndex].Name, szMsg);

  00159	8b 95 48 ff ff
	ff		 mov	 edx, DWORD PTR _szMsg$GSCopy$[ebp]
  0015f	52		 push	 edx
  00160	57		 push	 edi
  00161	68 00 00 00 00	 push	 OFFSET ??_C@_0P@ILFFPJPG@?$EA?$FLPOST?$FN?5?$CFs?3?5?$CFs?$AA@
  00166	8d 45 98	 lea	 eax, DWORD PTR _CMessage$[ebp]
  00169	50		 push	 eax
  0016a	eb 16		 jmp	 SHORT $LN18@Post
$LN3@Post:

; 456  : 	}
; 457  : 	else if(this->m_Data[COMMAND_POST].iPostColor[gObj[aIndex].m_Vip] == 3) // -> Yellow

  0016c	83 fb 03	 cmp	 ebx, 3
  0016f	75 19		 jne	 SHORT $LN1@Post

; 458  : 	{
; 459  : 		sprintf(CMessage, "@@[POST] %s: %s", gObj[aIndex].Name, szMsg);

  00171	8b 8d 48 ff ff
	ff		 mov	 ecx, DWORD PTR _szMsg$GSCopy$[ebp]
  00177	51		 push	 ecx
  00178	57		 push	 edi
  00179	68 00 00 00 00	 push	 OFFSET ??_C@_0BA@JOEDEHLO@?$EA?$EA?$FLPOST?$FN?5?$CFs?3?5?$CFs?$AA@
  0017e	8d 55 98	 lea	 edx, DWORD PTR _CMessage$[ebp]
  00181	52		 push	 edx
$LN18@Post:
  00182	e8 00 00 00 00	 call	 _sprintf
  00187	83 c4 10	 add	 esp, 16			; 00000010H
$LN1@Post:

; 460  : 	}
; 461  : 	// ---
; 462  : 	memcpy(&pMsg.chatmsg,CMessage,strlen(CMessage));

  0018a	8d 45 98	 lea	 eax, DWORD PTR _CMessage$[ebp]
  0018d	8d 50 01	 lea	 edx, DWORD PTR [eax+1]
$LL16@Post:
  00190	8a 08		 mov	 cl, BYTE PTR [eax]
  00192	40		 inc	 eax
  00193	84 c9		 test	 cl, cl
  00195	75 f9		 jne	 SHORT $LL16@Post
  00197	2b c2		 sub	 eax, edx
  00199	8b d8		 mov	 ebx, eax
  0019b	53		 push	 ebx
  0019c	8d 45 98	 lea	 eax, DWORD PTR _CMessage$[ebp]
  0019f	50		 push	 eax
  001a0	8d 8d 59 ff ff
	ff		 lea	 ecx, DWORD PTR _pMsg$[ebp+13]
  001a6	51		 push	 ecx
  001a7	e8 00 00 00 00	 call	 _memcpy

; 463  : 	// ---
; 464  : 	pMsg.h.size = (strlen(CMessage)+ 0x13);

  001ac	80 c3 13	 add	 bl, 19			; 00000013H

; 465  : 	// ---
; 466  : 	DataSendAll((LPBYTE)&pMsg,pMsg.h.size);

  001af	0f b6 d3	 movzx	 edx, bl
  001b2	52		 push	 edx
  001b3	8d 85 4c ff ff
	ff		 lea	 eax, DWORD PTR _pMsg$[ebp]
  001b9	50		 push	 eax
  001ba	88 9d 4d ff ff
	ff		 mov	 BYTE PTR _pMsg$[ebp+1], bl
  001c0	e8 00 00 00 00	 call	 ?DataSendAll@@YAXPAEH@Z	; DataSendAll
$LN17@Post:
  001c5	83 c4 14	 add	 esp, 20			; 00000014H
$LN11@Post:

; 467  : }

  001c8	8b 4d fc	 mov	 ecx, DWORD PTR __$ArrayPad$[ebp]
  001cb	5f		 pop	 edi
  001cc	5e		 pop	 esi
  001cd	33 cd		 xor	 ecx, ebp
  001cf	5b		 pop	 ebx
  001d0	e8 00 00 00 00	 call	 @__security_check_cookie@4
  001d5	8b e5		 mov	 esp, ebp
  001d7	5d		 pop	 ebp
  001d8	c2 08 00	 ret	 8
?Post@CCommands@@QAEXHPAD@Z ENDP			; CCommands::Post
_TEXT	ENDS
PUBLIC	??_C@_05FJCDLMEJ@?1info?$AA@			; `string'
PUBLIC	?Manager@CCommands@@QAEXPAUPMSG_CHATDATA@@H@Z	; CCommands::Manager
EXTRN	?Hide@CPrivilege@@QAEXHPAD@Z:PROC		; CPrivilege::Hide
EXTRN	?SetDrop@CPrivilege@@QAEXHPAD@Z:PROC		; CPrivilege::SetDrop
EXTRN	?SetPKLevel@CPrivilege@@QAEXHPAD@Z:PROC		; CPrivilege::SetPKLevel
EXTRN	?SetLevel@CPrivilege@@QAEXHPAD@Z:PROC		; CPrivilege::SetLevel
EXTRN	?SetZen@CPrivilege@@QAEXHPAD@Z:PROC		; CPrivilege::SetZen
EXTRN	?Reward@CPrivilege@@QAEXHPAD@Z:PROC		; CPrivilege::Reward
EXTRN	?MoveAll@CPrivilege@@QAEXHPAD@Z:PROC		; CPrivilege::MoveAll
EXTRN	?Move@CPrivilege@@QAEXHPAD@Z:PROC		; CPrivilege::Move
EXTRN	?Make@CPrivilege@@QAEXHPAD@Z:PROC		; CPrivilege::Make
EXTRN	?Skin@CPrivilege@@QAEXHPAD@Z:PROC		; CPrivilege::Skin
EXTRN	?UnBlock@CPrivilege@@QAEXHPAD@Z:PROC		; CPrivilege::UnBlock
EXTRN	?Block@CPrivilege@@QAEXHPAD@Z:PROC		; CPrivilege::Block
EXTRN	?Disconnect@CPrivilege@@QAEXHPAD@Z:PROC		; CPrivilege::Disconnect
EXTRN	?Reload@CPrivilege@@QAEXHPAD@Z:PROC		; CPrivilege::Reload
EXTRN	?gPrivilege@@3VCPrivilege@@A:BYTE		; gPrivilege
EXTRN	?CommandEnter@CEventManager@@QAEXH@Z:PROC	; CEventManager::CommandEnter
EXTRN	?CommandInit@CEventManager@@QAEXHPAD@Z:PROC	; CEventManager::CommandInit
EXTRN	?Init@CMoves@@QAEXPAUOBJECTSTRUCT@@_NDDFFFF@Z:PROC ; CMoves::Init
EXTRN	?gMoves@@3VCMoves@@A:BYTE			; gMoves
EXTRN	?Init@CMasterReset@@QAEXPAUOBJECTSTRUCT@@@Z:PROC ; CMasterReset::Init
EXTRN	?gMasterReset@@3VCMasterReset@@A:BYTE		; gMasterReset
EXTRN	?Init@CReset@@QAEXPAUOBJECTSTRUCT@@@Z:PROC	; CReset::Init
EXTRN	?gReset@@3VCReset@@A:BYTE			; gReset
EXTRN	__memicmp:PROC
;	COMDAT ??_C@_05FJCDLMEJ@?1info?$AA@
CONST	SEGMENT
??_C@_05FJCDLMEJ@?1info?$AA@ DB '/info', 00H		; `string'
; Function compile flags: /Ogtp
CONST	ENDS
;	COMDAT ?Manager@CCommands@@QAEXPAUPMSG_CHATDATA@@H@Z
_TEXT	SEGMENT
_lpMsg$ = 8						; size = 4
_aIndex$ = 12						; size = 4
?Manager@CCommands@@QAEXPAUPMSG_CHATDATA@@H@Z PROC	; CCommands::Manager, COMDAT
; _this$ = ecx

; 946  : {

  00000	55		 push	 ebp
  00001	8b ec		 mov	 ebp, esp
  00003	53		 push	 ebx

; 947  : 	if (!_memicmp(lpMsg->chatmsg, "/info", strlen("/info")))

  00004	8b 5d 08	 mov	 ebx, DWORD PTR _lpMsg$[ebp]
  00007	56		 push	 esi
  00008	57		 push	 edi
  00009	6a 05		 push	 5
  0000b	83 c3 0d	 add	 ebx, 13			; 0000000dH
  0000e	68 00 00 00 00	 push	 OFFSET ??_C@_05FJCDLMEJ@?1info?$AA@
  00013	53		 push	 ebx
  00014	8b f1		 mov	 esi, ecx
  00016	e8 00 00 00 00	 call	 __memicmp
  0001b	83 c4 0c	 add	 esp, 12			; 0000000cH
  0001e	85 c0		 test	 eax, eax
  00020	75 0b		 jne	 SHORT $LN46@Manager

; 948  : 	{
; 949  : 		this->Info(aIndex);

  00022	8b 45 0c	 mov	 eax, DWORD PTR _aIndex$[ebp]
  00025	50		 push	 eax
  00026	8b ce		 mov	 ecx, esi
  00028	e8 00 00 00 00	 call	 ?Info@CCommands@@QAEXH@Z ; CCommands::Info
$LN46@Manager:

; 950  : 	}
; 951  : 
; 952  : 	if (!_memicmp(lpMsg->chatmsg, this->m_Data[COMMAND_POST].szSintax, strlen(this->m_Data[COMMAND_POST].szSintax)))

  0002d	8d 7e 58	 lea	 edi, DWORD PTR [esi+88]
  00030	8b c7		 mov	 eax, edi
  00032	8d 50 01	 lea	 edx, DWORD PTR [eax+1]
$LL51@Manager:
  00035	8a 08		 mov	 cl, BYTE PTR [eax]
  00037	40		 inc	 eax
  00038	84 c9		 test	 cl, cl
  0003a	75 f9		 jne	 SHORT $LL51@Manager
  0003c	2b c2		 sub	 eax, edx
  0003e	50		 push	 eax
  0003f	57		 push	 edi
  00040	53		 push	 ebx
  00041	e8 00 00 00 00	 call	 __memicmp
  00046	83 c4 0c	 add	 esp, 12			; 0000000cH
  00049	85 c0		 test	 eax, eax
  0004b	75 21		 jne	 SHORT $LN45@Manager

; 953  : 	{
; 954  : 		this->Post(aIndex, &lpMsg->chatmsg[strlen(this->m_Data[COMMAND_POST].szSintax)]);

  0004d	8b c7		 mov	 eax, edi
  0004f	8d 50 01	 lea	 edx, DWORD PTR [eax+1]
$LL52@Manager:
  00052	8a 08		 mov	 cl, BYTE PTR [eax]
  00054	40		 inc	 eax
  00055	84 c9		 test	 cl, cl
  00057	75 f9		 jne	 SHORT $LL52@Manager
  00059	8b 4d 08	 mov	 ecx, DWORD PTR _lpMsg$[ebp]
  0005c	2b c2		 sub	 eax, edx
  0005e	8d 54 08 0d	 lea	 edx, DWORD PTR [eax+ecx+13]
  00062	8b 45 0c	 mov	 eax, DWORD PTR _aIndex$[ebp]
  00065	52		 push	 edx
  00066	50		 push	 eax
  00067	8b ce		 mov	 ecx, esi
  00069	e8 00 00 00 00	 call	 ?Post@CCommands@@QAEXHPAD@Z ; CCommands::Post
$LN45@Manager:

; 955  : 	}
; 956  : 	// ---
; 957  : 	if (!_memicmp(lpMsg->chatmsg, this->m_Data[COMMAND_PKCLEAR].szSintax, strlen(this->m_Data[COMMAND_PKCLEAR].szSintax)))

  0006e	8d 96 3c 02 00
	00		 lea	 edx, DWORD PTR [esi+572]
  00074	8b c2		 mov	 eax, edx
  00076	8d 78 01	 lea	 edi, DWORD PTR [eax+1]
  00079	8d a4 24 00 00
	00 00		 npad	 7
$LL53@Manager:
  00080	8a 08		 mov	 cl, BYTE PTR [eax]
  00082	40		 inc	 eax
  00083	84 c9		 test	 cl, cl
  00085	75 f9		 jne	 SHORT $LL53@Manager
  00087	2b c7		 sub	 eax, edi
  00089	50		 push	 eax
  0008a	52		 push	 edx
  0008b	53		 push	 ebx
  0008c	e8 00 00 00 00	 call	 __memicmp
  00091	83 c4 0c	 add	 esp, 12			; 0000000cH
  00094	85 c0		 test	 eax, eax
  00096	75 0b		 jne	 SHORT $LN44@Manager

; 958  : 	{
; 959  : 		this->PkClear(aIndex);

  00098	8b 4d 0c	 mov	 ecx, DWORD PTR _aIndex$[ebp]
  0009b	51		 push	 ecx
  0009c	8b ce		 mov	 ecx, esi
  0009e	e8 00 00 00 00	 call	 ?PkClear@CCommands@@QAEXH@Z ; CCommands::PkClear
$LN44@Manager:

; 960  : 	}
; 961  : 	// ---
; 962  : 	if (!_memicmp(lpMsg->chatmsg, this->m_Data[COMMAND_HEROCLEAR].szSintax, strlen(this->m_Data[COMMAND_HEROCLEAR].szSintax)))

  000a3	8d 96 20 04 00
	00		 lea	 edx, DWORD PTR [esi+1056]
  000a9	8b c2		 mov	 eax, edx
  000ab	8d 78 01	 lea	 edi, DWORD PTR [eax+1]
  000ae	8b ff		 npad	 2
$LL54@Manager:
  000b0	8a 08		 mov	 cl, BYTE PTR [eax]
  000b2	40		 inc	 eax
  000b3	84 c9		 test	 cl, cl
  000b5	75 f9		 jne	 SHORT $LL54@Manager
  000b7	2b c7		 sub	 eax, edi
  000b9	50		 push	 eax
  000ba	52		 push	 edx
  000bb	53		 push	 ebx
  000bc	e8 00 00 00 00	 call	 __memicmp
  000c1	83 c4 0c	 add	 esp, 12			; 0000000cH
  000c4	85 c0		 test	 eax, eax
  000c6	75 0b		 jne	 SHORT $LN43@Manager

; 963  : 	{
; 964  : 		this->HeroClear(aIndex);

  000c8	8b 55 0c	 mov	 edx, DWORD PTR _aIndex$[ebp]
  000cb	52		 push	 edx
  000cc	8b ce		 mov	 ecx, esi
  000ce	e8 00 00 00 00	 call	 ?HeroClear@CCommands@@QAEXH@Z ; CCommands::HeroClear
$LN43@Manager:

; 965  : 	}
; 966  : 	// ---
; 967  : 	if (!_memicmp(lpMsg->chatmsg, this->m_Data[COMMAND_EVO].szSintax, strlen(this->m_Data[COMMAND_EVO].szSintax)))

  000d3	8d 96 04 06 00
	00		 lea	 edx, DWORD PTR [esi+1540]
  000d9	8b c2		 mov	 eax, edx
  000db	8d 78 01	 lea	 edi, DWORD PTR [eax+1]
  000de	8b ff		 npad	 2
$LL55@Manager:
  000e0	8a 08		 mov	 cl, BYTE PTR [eax]
  000e2	40		 inc	 eax
  000e3	84 c9		 test	 cl, cl
  000e5	75 f9		 jne	 SHORT $LL55@Manager
  000e7	2b c7		 sub	 eax, edi
  000e9	50		 push	 eax
  000ea	52		 push	 edx
  000eb	53		 push	 ebx
  000ec	e8 00 00 00 00	 call	 __memicmp
  000f1	83 c4 0c	 add	 esp, 12			; 0000000cH
  000f4	85 c0		 test	 eax, eax
  000f6	75 0b		 jne	 SHORT $LN42@Manager

; 968  : 	{
; 969  : 		this->Evo(aIndex);

  000f8	8b 45 0c	 mov	 eax, DWORD PTR _aIndex$[ebp]
  000fb	50		 push	 eax
  000fc	8b ce		 mov	 ecx, esi
  000fe	e8 00 00 00 00	 call	 ?Evo@CCommands@@QAEXH@Z	; CCommands::Evo
$LN42@Manager:

; 970  : 	}
; 971  : 	// ---
; 972  : 	if (!_memicmp(lpMsg->chatmsg, this->m_Data[COMMAND_ZEN].szSintax, strlen(this->m_Data[COMMAND_ZEN].szSintax)))

  00103	8d be e8 07 00
	00		 lea	 edi, DWORD PTR [esi+2024]
  00109	8b c7		 mov	 eax, edi
  0010b	8d 50 01	 lea	 edx, DWORD PTR [eax+1]
  0010e	8b ff		 npad	 2
$LL56@Manager:
  00110	8a 08		 mov	 cl, BYTE PTR [eax]
  00112	40		 inc	 eax
  00113	84 c9		 test	 cl, cl
  00115	75 f9		 jne	 SHORT $LL56@Manager
  00117	2b c2		 sub	 eax, edx
  00119	50		 push	 eax
  0011a	57		 push	 edi
  0011b	53		 push	 ebx
  0011c	e8 00 00 00 00	 call	 __memicmp
  00121	83 c4 0c	 add	 esp, 12			; 0000000cH
  00124	85 c0		 test	 eax, eax
  00126	75 24		 jne	 SHORT $LN41@Manager

; 973  : 	{
; 974  : 		this->Money(aIndex, &lpMsg->chatmsg[strlen(this->m_Data[COMMAND_ZEN].szSintax)]);

  00128	8b c7		 mov	 eax, edi
  0012a	8d 50 01	 lea	 edx, DWORD PTR [eax+1]
  0012d	8d 49 00	 npad	 3
$LL57@Manager:
  00130	8a 08		 mov	 cl, BYTE PTR [eax]
  00132	40		 inc	 eax
  00133	84 c9		 test	 cl, cl
  00135	75 f9		 jne	 SHORT $LL57@Manager
  00137	8b 4d 08	 mov	 ecx, DWORD PTR _lpMsg$[ebp]
  0013a	2b c2		 sub	 eax, edx
  0013c	8d 54 08 0d	 lea	 edx, DWORD PTR [eax+ecx+13]
  00140	8b 45 0c	 mov	 eax, DWORD PTR _aIndex$[ebp]
  00143	52		 push	 edx
  00144	50		 push	 eax
  00145	8b ce		 mov	 ecx, esi
  00147	e8 00 00 00 00	 call	 ?Money@CCommands@@QAEXHPAD@Z ; CCommands::Money
$LN41@Manager:

; 975  : 	}
; 976  : 	// ---
; 977  : 	if (!_memicmp(lpMsg->chatmsg, this->m_Data[COMMAND_ADD].szSintaxAdd[0], strlen(this->m_Data[COMMAND_ADD].szSintaxAdd[0])))

  0014c	8d be 04 0a 00
	00		 lea	 edi, DWORD PTR [esi+2564]
  00152	8b c7		 mov	 eax, edi
  00154	8d 50 01	 lea	 edx, DWORD PTR [eax+1]
$LL58@Manager:
  00157	8a 08		 mov	 cl, BYTE PTR [eax]
  00159	40		 inc	 eax
  0015a	84 c9		 test	 cl, cl
  0015c	75 f9		 jne	 SHORT $LL58@Manager
  0015e	2b c2		 sub	 eax, edx
  00160	50		 push	 eax
  00161	57		 push	 edi
  00162	53		 push	 ebx
  00163	e8 00 00 00 00	 call	 __memicmp
  00168	83 c4 0c	 add	 esp, 12			; 0000000cH
  0016b	85 c0		 test	 eax, eax
  0016d	75 23		 jne	 SHORT $LN40@Manager

; 978  : 	{
; 979  : 		this->Add(aIndex, &lpMsg->chatmsg[strlen(this->m_Data[COMMAND_ADD].szSintaxAdd[0])], 0);

  0016f	8b c7		 mov	 eax, edi
  00171	8d 50 01	 lea	 edx, DWORD PTR [eax+1]
$LL59@Manager:
  00174	8a 08		 mov	 cl, BYTE PTR [eax]
  00176	40		 inc	 eax
  00177	84 c9		 test	 cl, cl
  00179	75 f9		 jne	 SHORT $LL59@Manager
  0017b	8b 4d 08	 mov	 ecx, DWORD PTR _lpMsg$[ebp]
  0017e	2b c2		 sub	 eax, edx
  00180	8d 54 08 0d	 lea	 edx, DWORD PTR [eax+ecx+13]
  00184	8b 45 0c	 mov	 eax, DWORD PTR _aIndex$[ebp]
  00187	6a 00		 push	 0
  00189	52		 push	 edx
  0018a	50		 push	 eax
  0018b	8b ce		 mov	 ecx, esi
  0018d	e8 00 00 00 00	 call	 ?Add@CCommands@@QAEXHPADE@Z ; CCommands::Add
$LN40@Manager:

; 980  : 	}
; 981  : 	// ---
; 982  : 	if (!_memicmp(lpMsg->chatmsg, this->m_Data[COMMAND_ADD].szSintaxAdd[1], strlen(this->m_Data[COMMAND_ADD].szSintaxAdd[1])))

  00192	8d be 18 0a 00
	00		 lea	 edi, DWORD PTR [esi+2584]
  00198	8b c7		 mov	 eax, edi
  0019a	8d 50 01	 lea	 edx, DWORD PTR [eax+1]
  0019d	8d 49 00	 npad	 3
$LL60@Manager:
  001a0	8a 08		 mov	 cl, BYTE PTR [eax]
  001a2	40		 inc	 eax
  001a3	84 c9		 test	 cl, cl
  001a5	75 f9		 jne	 SHORT $LL60@Manager
  001a7	2b c2		 sub	 eax, edx
  001a9	50		 push	 eax
  001aa	57		 push	 edi
  001ab	53		 push	 ebx
  001ac	e8 00 00 00 00	 call	 __memicmp
  001b1	83 c4 0c	 add	 esp, 12			; 0000000cH
  001b4	85 c0		 test	 eax, eax
  001b6	75 26		 jne	 SHORT $LN39@Manager

; 983  : 	{
; 984  : 		this->Add(aIndex, &lpMsg->chatmsg[strlen(this->m_Data[COMMAND_ADD].szSintaxAdd[1])], 1);

  001b8	8b c7		 mov	 eax, edi
  001ba	8d 50 01	 lea	 edx, DWORD PTR [eax+1]
  001bd	8d 49 00	 npad	 3
$LL61@Manager:
  001c0	8a 08		 mov	 cl, BYTE PTR [eax]
  001c2	40		 inc	 eax
  001c3	84 c9		 test	 cl, cl
  001c5	75 f9		 jne	 SHORT $LL61@Manager
  001c7	8b 4d 08	 mov	 ecx, DWORD PTR _lpMsg$[ebp]
  001ca	2b c2		 sub	 eax, edx
  001cc	8d 54 08 0d	 lea	 edx, DWORD PTR [eax+ecx+13]
  001d0	8b 45 0c	 mov	 eax, DWORD PTR _aIndex$[ebp]
  001d3	6a 01		 push	 1
  001d5	52		 push	 edx
  001d6	50		 push	 eax
  001d7	8b ce		 mov	 ecx, esi
  001d9	e8 00 00 00 00	 call	 ?Add@CCommands@@QAEXHPADE@Z ; CCommands::Add
$LN39@Manager:

; 985  : 	}
; 986  : 	// ---
; 987  : 	if (!_memicmp(lpMsg->chatmsg, this->m_Data[COMMAND_ADD].szSintaxAdd[2], strlen(this->m_Data[COMMAND_ADD].szSintaxAdd[2])))

  001de	8d be 2c 0a 00
	00		 lea	 edi, DWORD PTR [esi+2604]
  001e4	8b c7		 mov	 eax, edi
  001e6	8d 50 01	 lea	 edx, DWORD PTR [eax+1]
  001e9	8d a4 24 00 00
	00 00		 npad	 7
$LL62@Manager:
  001f0	8a 08		 mov	 cl, BYTE PTR [eax]
  001f2	40		 inc	 eax
  001f3	84 c9		 test	 cl, cl
  001f5	75 f9		 jne	 SHORT $LL62@Manager
  001f7	2b c2		 sub	 eax, edx
  001f9	50		 push	 eax
  001fa	57		 push	 edi
  001fb	53		 push	 ebx
  001fc	e8 00 00 00 00	 call	 __memicmp
  00201	83 c4 0c	 add	 esp, 12			; 0000000cH
  00204	85 c0		 test	 eax, eax
  00206	75 26		 jne	 SHORT $LN38@Manager

; 988  : 	{
; 989  : 		this->Add(aIndex, &lpMsg->chatmsg[strlen(this->m_Data[COMMAND_ADD].szSintaxAdd[2])], 2);

  00208	8b c7		 mov	 eax, edi
  0020a	8d 50 01	 lea	 edx, DWORD PTR [eax+1]
  0020d	8d 49 00	 npad	 3
$LL63@Manager:
  00210	8a 08		 mov	 cl, BYTE PTR [eax]
  00212	40		 inc	 eax
  00213	84 c9		 test	 cl, cl
  00215	75 f9		 jne	 SHORT $LL63@Manager
  00217	8b 4d 08	 mov	 ecx, DWORD PTR _lpMsg$[ebp]
  0021a	2b c2		 sub	 eax, edx
  0021c	8d 54 08 0d	 lea	 edx, DWORD PTR [eax+ecx+13]
  00220	8b 45 0c	 mov	 eax, DWORD PTR _aIndex$[ebp]
  00223	6a 02		 push	 2
  00225	52		 push	 edx
  00226	50		 push	 eax
  00227	8b ce		 mov	 ecx, esi
  00229	e8 00 00 00 00	 call	 ?Add@CCommands@@QAEXHPADE@Z ; CCommands::Add
$LN38@Manager:

; 990  : 	}
; 991  : 	// ---
; 992  : 	if (!_memicmp(lpMsg->chatmsg, this->m_Data[COMMAND_ADD].szSintaxAdd[3], strlen(this->m_Data[COMMAND_ADD].szSintaxAdd[3])))

  0022e	8d be 40 0a 00
	00		 lea	 edi, DWORD PTR [esi+2624]
  00234	8b c7		 mov	 eax, edi
  00236	8d 50 01	 lea	 edx, DWORD PTR [eax+1]
  00239	8d a4 24 00 00
	00 00		 npad	 7
$LL64@Manager:
  00240	8a 08		 mov	 cl, BYTE PTR [eax]
  00242	40		 inc	 eax
  00243	84 c9		 test	 cl, cl
  00245	75 f9		 jne	 SHORT $LL64@Manager
  00247	2b c2		 sub	 eax, edx
  00249	50		 push	 eax
  0024a	57		 push	 edi
  0024b	53		 push	 ebx
  0024c	e8 00 00 00 00	 call	 __memicmp
  00251	83 c4 0c	 add	 esp, 12			; 0000000cH
  00254	85 c0		 test	 eax, eax
  00256	75 26		 jne	 SHORT $LN37@Manager

; 993  : 	{
; 994  : 		this->Add(aIndex, &lpMsg->chatmsg[strlen(this->m_Data[COMMAND_ADD].szSintaxAdd[3])], 3);

  00258	8b c7		 mov	 eax, edi
  0025a	8d 50 01	 lea	 edx, DWORD PTR [eax+1]
  0025d	8d 49 00	 npad	 3
$LL65@Manager:
  00260	8a 08		 mov	 cl, BYTE PTR [eax]
  00262	40		 inc	 eax
  00263	84 c9		 test	 cl, cl
  00265	75 f9		 jne	 SHORT $LL65@Manager
  00267	8b 4d 08	 mov	 ecx, DWORD PTR _lpMsg$[ebp]
  0026a	2b c2		 sub	 eax, edx
  0026c	8d 54 08 0d	 lea	 edx, DWORD PTR [eax+ecx+13]
  00270	8b 45 0c	 mov	 eax, DWORD PTR _aIndex$[ebp]
  00273	6a 03		 push	 3
  00275	52		 push	 edx
  00276	50		 push	 eax
  00277	8b ce		 mov	 ecx, esi
  00279	e8 00 00 00 00	 call	 ?Add@CCommands@@QAEXHPADE@Z ; CCommands::Add
$LN37@Manager:

; 995  : 	}
; 996  : 	// ---
; 997  : 	if (!_memicmp(lpMsg->chatmsg, this->m_Data[COMMAND_ADD].szSintaxAdd[4], strlen(this->m_Data[COMMAND_ADD].szSintaxAdd[4])))

  0027e	8d be 54 0a 00
	00		 lea	 edi, DWORD PTR [esi+2644]
  00284	8b c7		 mov	 eax, edi
  00286	8d 50 01	 lea	 edx, DWORD PTR [eax+1]
  00289	8d a4 24 00 00
	00 00		 npad	 7
$LL66@Manager:
  00290	8a 08		 mov	 cl, BYTE PTR [eax]
  00292	40		 inc	 eax
  00293	84 c9		 test	 cl, cl
  00295	75 f9		 jne	 SHORT $LL66@Manager
  00297	2b c2		 sub	 eax, edx
  00299	50		 push	 eax
  0029a	57		 push	 edi
  0029b	53		 push	 ebx
  0029c	e8 00 00 00 00	 call	 __memicmp
  002a1	83 c4 0c	 add	 esp, 12			; 0000000cH
  002a4	85 c0		 test	 eax, eax
  002a6	75 26		 jne	 SHORT $LN36@Manager

; 998  : 	{
; 999  : 		this->Add(aIndex, &lpMsg->chatmsg[strlen(this->m_Data[COMMAND_ADD].szSintaxAdd[4])], 4);

  002a8	8b c7		 mov	 eax, edi
  002aa	8d 50 01	 lea	 edx, DWORD PTR [eax+1]
  002ad	8d 49 00	 npad	 3
$LL67@Manager:
  002b0	8a 08		 mov	 cl, BYTE PTR [eax]
  002b2	40		 inc	 eax
  002b3	84 c9		 test	 cl, cl
  002b5	75 f9		 jne	 SHORT $LL67@Manager
  002b7	8b 4d 08	 mov	 ecx, DWORD PTR _lpMsg$[ebp]
  002ba	2b c2		 sub	 eax, edx
  002bc	8d 54 08 0d	 lea	 edx, DWORD PTR [eax+ecx+13]
  002c0	8b 45 0c	 mov	 eax, DWORD PTR _aIndex$[ebp]
  002c3	6a 04		 push	 4
  002c5	52		 push	 edx
  002c6	50		 push	 eax
  002c7	8b ce		 mov	 ecx, esi
  002c9	e8 00 00 00 00	 call	 ?Add@CCommands@@QAEXHPADE@Z ; CCommands::Add
$LN36@Manager:

; 1000 : 	}
; 1001 : 	// ---
; 1002 : 	if (!_memicmp(lpMsg->chatmsg, this->m_Data[COMMAND_READD].szSintax, strlen(this->m_Data[COMMAND_READD].szSintax)))

  002ce	8d 96 b0 0b 00
	00		 lea	 edx, DWORD PTR [esi+2992]
  002d4	8b c2		 mov	 eax, edx
  002d6	8d 78 01	 lea	 edi, DWORD PTR [eax+1]
  002d9	8d a4 24 00 00
	00 00		 npad	 7
$LL68@Manager:
  002e0	8a 08		 mov	 cl, BYTE PTR [eax]
  002e2	40		 inc	 eax
  002e3	84 c9		 test	 cl, cl
  002e5	75 f9		 jne	 SHORT $LL68@Manager
  002e7	2b c7		 sub	 eax, edi
  002e9	50		 push	 eax
  002ea	52		 push	 edx
  002eb	53		 push	 ebx
  002ec	e8 00 00 00 00	 call	 __memicmp
  002f1	83 c4 0c	 add	 esp, 12			; 0000000cH
  002f4	85 c0		 test	 eax, eax
  002f6	75 0b		 jne	 SHORT $LN35@Manager

; 1003 : 	{
; 1004 : 		this->ReAdd(aIndex);

  002f8	8b 4d 0c	 mov	 ecx, DWORD PTR _aIndex$[ebp]
  002fb	51		 push	 ecx
  002fc	8b ce		 mov	 ecx, esi
  002fe	e8 00 00 00 00	 call	 ?ReAdd@CCommands@@QAEXH@Z ; CCommands::ReAdd
$LN35@Manager:

; 1005 : 	}
; 1006 : 	// ---
; 1007 : 	if (!_memicmp(lpMsg->chatmsg, this->m_Data[COMMAND_WARE].szSintax, strlen(this->m_Data[COMMAND_WARE].szSintax)))

  00303	8d be 94 0d 00
	00		 lea	 edi, DWORD PTR [esi+3476]
  00309	8b c7		 mov	 eax, edi
  0030b	8d 50 01	 lea	 edx, DWORD PTR [eax+1]
  0030e	8b ff		 npad	 2
$LL69@Manager:
  00310	8a 08		 mov	 cl, BYTE PTR [eax]
  00312	40		 inc	 eax
  00313	84 c9		 test	 cl, cl
  00315	75 f9		 jne	 SHORT $LL69@Manager
  00317	2b c2		 sub	 eax, edx
  00319	50		 push	 eax
  0031a	57		 push	 edi
  0031b	53		 push	 ebx
  0031c	e8 00 00 00 00	 call	 __memicmp
  00321	83 c4 0c	 add	 esp, 12			; 0000000cH
  00324	85 c0		 test	 eax, eax
  00326	75 24		 jne	 SHORT $LN34@Manager

; 1008 : 	{
; 1009 : 		this->Ware(aIndex, &lpMsg->chatmsg[strlen(this->m_Data[COMMAND_WARE].szSintax)]);

  00328	8b c7		 mov	 eax, edi
  0032a	8d 50 01	 lea	 edx, DWORD PTR [eax+1]
  0032d	8d 49 00	 npad	 3
$LL70@Manager:
  00330	8a 08		 mov	 cl, BYTE PTR [eax]
  00332	40		 inc	 eax
  00333	84 c9		 test	 cl, cl
  00335	75 f9		 jne	 SHORT $LL70@Manager
  00337	8b 4d 0c	 mov	 ecx, DWORD PTR _aIndex$[ebp]
  0033a	2b c2		 sub	 eax, edx
  0033c	8b 55 08	 mov	 edx, DWORD PTR _lpMsg$[ebp]
  0033f	8d 44 10 0d	 lea	 eax, DWORD PTR [eax+edx+13]
  00343	50		 push	 eax
  00344	51		 push	 ecx
  00345	8b ce		 mov	 ecx, esi
  00347	e8 00 00 00 00	 call	 ?Ware@CCommands@@QAEXHPAD@Z ; CCommands::Ware
$LN34@Manager:

; 1010 : 	}
; 1011 : 	// ---
; 1012 : 	if (!_memicmp(lpMsg->chatmsg, this->m_Data[COMMAND_OPENWARE].szSintax, strlen(this->m_Data[COMMAND_OPENWARE].szSintax)))

  0034c	8d 96 78 0f 00
	00		 lea	 edx, DWORD PTR [esi+3960]
  00352	8b c2		 mov	 eax, edx
  00354	8d 78 01	 lea	 edi, DWORD PTR [eax+1]
$LL71@Manager:
  00357	8a 08		 mov	 cl, BYTE PTR [eax]
  00359	40		 inc	 eax
  0035a	84 c9		 test	 cl, cl
  0035c	75 f9		 jne	 SHORT $LL71@Manager
  0035e	2b c7		 sub	 eax, edi
  00360	50		 push	 eax
  00361	52		 push	 edx
  00362	53		 push	 ebx
  00363	e8 00 00 00 00	 call	 __memicmp
  00368	83 c4 0c	 add	 esp, 12			; 0000000cH
  0036b	85 c0		 test	 eax, eax
  0036d	75 0b		 jne	 SHORT $LN33@Manager

; 1013 : 	{
; 1014 : 		this->OpenWare(aIndex);

  0036f	8b 55 0c	 mov	 edx, DWORD PTR _aIndex$[ebp]
  00372	52		 push	 edx
  00373	8b ce		 mov	 ecx, esi
  00375	e8 00 00 00 00	 call	 ?OpenWare@CCommands@@QAEXH@Z ; CCommands::OpenWare
$LN33@Manager:

; 1015 : 	}
; 1016 : 	// ---
; 1017 : 	if (!_memicmp(lpMsg->chatmsg, this->m_Data[COMMAND_WAREINFO].szSintax, strlen(this->m_Data[COMMAND_WAREINFO].szSintax)))

  0037a	8d 96 5c 11 00
	00		 lea	 edx, DWORD PTR [esi+4444]
  00380	8b c2		 mov	 eax, edx
  00382	8d 78 01	 lea	 edi, DWORD PTR [eax+1]
$LL72@Manager:
  00385	8a 08		 mov	 cl, BYTE PTR [eax]
  00387	40		 inc	 eax
  00388	84 c9		 test	 cl, cl
  0038a	75 f9		 jne	 SHORT $LL72@Manager
  0038c	2b c7		 sub	 eax, edi
  0038e	50		 push	 eax
  0038f	52		 push	 edx
  00390	53		 push	 ebx
  00391	e8 00 00 00 00	 call	 __memicmp
  00396	83 c4 0c	 add	 esp, 12			; 0000000cH
  00399	85 c0		 test	 eax, eax
  0039b	75 0b		 jne	 SHORT $LN32@Manager

; 1018 : 	{
; 1019 : 		this->WareInfo(aIndex);

  0039d	8b 45 0c	 mov	 eax, DWORD PTR _aIndex$[ebp]
  003a0	50		 push	 eax
  003a1	8b ce		 mov	 ecx, esi
  003a3	e8 00 00 00 00	 call	 ?WareInfo@CCommands@@QAEXH@Z ; CCommands::WareInfo
$LN32@Manager:

; 1020 : 	}
; 1021 : 	// ---
; 1022 : 	if (!_memicmp(lpMsg->chatmsg, this->m_Data[COMMAND_ALTCLASS].szSintaxAlt[0], strlen(this->m_Data[COMMAND_ALTCLASS].szSintaxAlt[0])))

  003a8	8d 96 c8 13 00
	00		 lea	 edx, DWORD PTR [esi+5064]
  003ae	8b c2		 mov	 eax, edx
  003b0	8d 78 01	 lea	 edi, DWORD PTR [eax+1]
$LL73@Manager:
  003b3	8a 08		 mov	 cl, BYTE PTR [eax]
  003b5	40		 inc	 eax
  003b6	84 c9		 test	 cl, cl
  003b8	75 f9		 jne	 SHORT $LL73@Manager
  003ba	2b c7		 sub	 eax, edi
  003bc	50		 push	 eax
  003bd	52		 push	 edx
  003be	53		 push	 ebx
  003bf	e8 00 00 00 00	 call	 __memicmp
  003c4	83 c4 0c	 add	 esp, 12			; 0000000cH
  003c7	85 c0		 test	 eax, eax
  003c9	75 0c		 jne	 SHORT $LN31@Manager

; 1023 : 	{
; 1024 : 		this->AltClass(aIndex, 0);

  003cb	8b 4d 0c	 mov	 ecx, DWORD PTR _aIndex$[ebp]
  003ce	50		 push	 eax
  003cf	51		 push	 ecx
  003d0	8b ce		 mov	 ecx, esi
  003d2	e8 00 00 00 00	 call	 ?AltClass@CCommands@@QAEXHE@Z ; CCommands::AltClass
$LN31@Manager:

; 1025 : 	}
; 1026 : 	// ---
; 1027 : 	if (!_memicmp(lpMsg->chatmsg, this->m_Data[COMMAND_ALTCLASS].szSintaxAlt[1], strlen(this->m_Data[COMMAND_ALTCLASS].szSintaxAlt[1])))

  003d7	8d 96 dc 13 00
	00		 lea	 edx, DWORD PTR [esi+5084]
  003dd	8b c2		 mov	 eax, edx
  003df	8d 78 01	 lea	 edi, DWORD PTR [eax+1]
$LL74@Manager:
  003e2	8a 08		 mov	 cl, BYTE PTR [eax]
  003e4	40		 inc	 eax
  003e5	84 c9		 test	 cl, cl
  003e7	75 f9		 jne	 SHORT $LL74@Manager
  003e9	2b c7		 sub	 eax, edi
  003eb	50		 push	 eax
  003ec	52		 push	 edx
  003ed	53		 push	 ebx
  003ee	e8 00 00 00 00	 call	 __memicmp
  003f3	83 c4 0c	 add	 esp, 12			; 0000000cH
  003f6	85 c0		 test	 eax, eax
  003f8	75 0d		 jne	 SHORT $LN30@Manager

; 1028 : 	{
; 1029 : 		this->AltClass(aIndex, 1);

  003fa	8b 55 0c	 mov	 edx, DWORD PTR _aIndex$[ebp]
  003fd	6a 01		 push	 1
  003ff	52		 push	 edx
  00400	8b ce		 mov	 ecx, esi
  00402	e8 00 00 00 00	 call	 ?AltClass@CCommands@@QAEXHE@Z ; CCommands::AltClass
$LN30@Manager:

; 1030 : 	}
; 1031 : 	// ---
; 1032 : 	if (!_memicmp(lpMsg->chatmsg, this->m_Data[COMMAND_ALTCLASS].szSintaxAlt[2], strlen(this->m_Data[COMMAND_ALTCLASS].szSintaxAlt[2])))

  00407	8d 96 f0 13 00
	00		 lea	 edx, DWORD PTR [esi+5104]
  0040d	8b c2		 mov	 eax, edx
  0040f	8d 78 01	 lea	 edi, DWORD PTR [eax+1]
$LL75@Manager:
  00412	8a 08		 mov	 cl, BYTE PTR [eax]
  00414	40		 inc	 eax
  00415	84 c9		 test	 cl, cl
  00417	75 f9		 jne	 SHORT $LL75@Manager
  00419	2b c7		 sub	 eax, edi
  0041b	50		 push	 eax
  0041c	52		 push	 edx
  0041d	53		 push	 ebx
  0041e	e8 00 00 00 00	 call	 __memicmp
  00423	83 c4 0c	 add	 esp, 12			; 0000000cH
  00426	85 c0		 test	 eax, eax
  00428	75 0d		 jne	 SHORT $LN29@Manager

; 1033 : 	{
; 1034 : 		this->AltClass(aIndex, 2);

  0042a	8b 45 0c	 mov	 eax, DWORD PTR _aIndex$[ebp]
  0042d	6a 02		 push	 2
  0042f	50		 push	 eax
  00430	8b ce		 mov	 ecx, esi
  00432	e8 00 00 00 00	 call	 ?AltClass@CCommands@@QAEXHE@Z ; CCommands::AltClass
$LN29@Manager:

; 1035 : 	}
; 1036 : 	// ---
; 1037 : 	if (!_memicmp(lpMsg->chatmsg, this->m_Data[COMMAND_ALTCLASS].szSintaxAlt[3], strlen(this->m_Data[COMMAND_ALTCLASS].szSintaxAlt[3])))

  00437	8d 96 04 14 00
	00		 lea	 edx, DWORD PTR [esi+5124]
  0043d	8b c2		 mov	 eax, edx
  0043f	8d 78 01	 lea	 edi, DWORD PTR [eax+1]
$LL76@Manager:
  00442	8a 08		 mov	 cl, BYTE PTR [eax]
  00444	40		 inc	 eax
  00445	84 c9		 test	 cl, cl
  00447	75 f9		 jne	 SHORT $LL76@Manager
  00449	2b c7		 sub	 eax, edi
  0044b	50		 push	 eax
  0044c	52		 push	 edx
  0044d	53		 push	 ebx
  0044e	e8 00 00 00 00	 call	 __memicmp
  00453	83 c4 0c	 add	 esp, 12			; 0000000cH
  00456	85 c0		 test	 eax, eax
  00458	75 0d		 jne	 SHORT $LN28@Manager

; 1038 : 	{
; 1039 : 		this->AltClass(aIndex, 3);

  0045a	8b 4d 0c	 mov	 ecx, DWORD PTR _aIndex$[ebp]
  0045d	6a 03		 push	 3
  0045f	51		 push	 ecx
  00460	8b ce		 mov	 ecx, esi
  00462	e8 00 00 00 00	 call	 ?AltClass@CCommands@@QAEXHE@Z ; CCommands::AltClass
$LN28@Manager:

; 1040 : 	}
; 1041 : 	// ---
; 1042 : 	if (!_memicmp(lpMsg->chatmsg, this->m_Data[COMMAND_ALTCLASS].szSintaxAlt[4], strlen(this->m_Data[COMMAND_ALTCLASS].szSintaxAlt[4])))

  00467	8d 96 18 14 00
	00		 lea	 edx, DWORD PTR [esi+5144]
  0046d	8b c2		 mov	 eax, edx
  0046f	8d 78 01	 lea	 edi, DWORD PTR [eax+1]
$LL77@Manager:
  00472	8a 08		 mov	 cl, BYTE PTR [eax]
  00474	40		 inc	 eax
  00475	84 c9		 test	 cl, cl
  00477	75 f9		 jne	 SHORT $LL77@Manager
  00479	2b c7		 sub	 eax, edi
  0047b	50		 push	 eax
  0047c	52		 push	 edx
  0047d	53		 push	 ebx
  0047e	e8 00 00 00 00	 call	 __memicmp
  00483	83 c4 0c	 add	 esp, 12			; 0000000cH
  00486	85 c0		 test	 eax, eax
  00488	75 0d		 jne	 SHORT $LN27@Manager

; 1043 : 	{
; 1044 : 		this->AltClass(aIndex, 4);

  0048a	8b 55 0c	 mov	 edx, DWORD PTR _aIndex$[ebp]
  0048d	6a 04		 push	 4
  0048f	52		 push	 edx
  00490	8b ce		 mov	 ecx, esi
  00492	e8 00 00 00 00	 call	 ?AltClass@CCommands@@QAEXHE@Z ; CCommands::AltClass
$LN27@Manager:

; 1045 : 	}
; 1046 : 	// ---
; 1047 : 	if (!_memicmp(lpMsg->chatmsg, this->m_Data[COMMAND_ALTCLASS].szSintaxAlt[5], strlen(this->m_Data[COMMAND_ALTCLASS].szSintaxAlt[5])))

  00497	8d 96 2c 14 00
	00		 lea	 edx, DWORD PTR [esi+5164]
  0049d	8b c2		 mov	 eax, edx
  0049f	8d 78 01	 lea	 edi, DWORD PTR [eax+1]
$LL78@Manager:
  004a2	8a 08		 mov	 cl, BYTE PTR [eax]
  004a4	40		 inc	 eax
  004a5	84 c9		 test	 cl, cl
  004a7	75 f9		 jne	 SHORT $LL78@Manager
  004a9	2b c7		 sub	 eax, edi
  004ab	50		 push	 eax
  004ac	52		 push	 edx
  004ad	53		 push	 ebx
  004ae	e8 00 00 00 00	 call	 __memicmp
  004b3	83 c4 0c	 add	 esp, 12			; 0000000cH
  004b6	85 c0		 test	 eax, eax
  004b8	75 0d		 jne	 SHORT $LN26@Manager

; 1048 : 	{
; 1049 : 		this->AltClass(aIndex, 5);

  004ba	8b 45 0c	 mov	 eax, DWORD PTR _aIndex$[ebp]
  004bd	6a 05		 push	 5
  004bf	50		 push	 eax
  004c0	8b ce		 mov	 ecx, esi
  004c2	e8 00 00 00 00	 call	 ?AltClass@CCommands@@QAEXHE@Z ; CCommands::AltClass
$LN26@Manager:

; 1050 : 	}
; 1051 : 	// ---
; 1052 : 	if (!_memicmp(lpMsg->chatmsg, this->m_Data[COMMAND_ALTCLASS].szSintaxAlt[6], strlen(this->m_Data[COMMAND_ALTCLASS].szSintaxAlt[6])))

  004c7	8d 96 40 14 00
	00		 lea	 edx, DWORD PTR [esi+5184]
  004cd	8b c2		 mov	 eax, edx
  004cf	8d 78 01	 lea	 edi, DWORD PTR [eax+1]
$LL79@Manager:
  004d2	8a 08		 mov	 cl, BYTE PTR [eax]
  004d4	40		 inc	 eax
  004d5	84 c9		 test	 cl, cl
  004d7	75 f9		 jne	 SHORT $LL79@Manager
  004d9	2b c7		 sub	 eax, edi
  004db	50		 push	 eax
  004dc	52		 push	 edx
  004dd	53		 push	 ebx
  004de	e8 00 00 00 00	 call	 __memicmp
  004e3	83 c4 0c	 add	 esp, 12			; 0000000cH
  004e6	85 c0		 test	 eax, eax
  004e8	75 0d		 jne	 SHORT $LN25@Manager

; 1053 : 	{
; 1054 : 		this->AltClass(aIndex, 6);

  004ea	8b 4d 0c	 mov	 ecx, DWORD PTR _aIndex$[ebp]
  004ed	6a 06		 push	 6
  004ef	51		 push	 ecx
  004f0	8b ce		 mov	 ecx, esi
  004f2	e8 00 00 00 00	 call	 ?AltClass@CCommands@@QAEXHE@Z ; CCommands::AltClass
$LN25@Manager:

; 1055 : 	}
; 1056 : 	// ---
; 1057 : 	if (!_memicmp(lpMsg->chatmsg, this->m_Data[COMMAND_ALTCLASS].szSintaxAlt[7], strlen(this->m_Data[COMMAND_ALTCLASS].szSintaxAlt[7])))

  004f7	8d 96 54 14 00
	00		 lea	 edx, DWORD PTR [esi+5204]
  004fd	8b c2		 mov	 eax, edx
  004ff	8d 78 01	 lea	 edi, DWORD PTR [eax+1]
$LL80@Manager:
  00502	8a 08		 mov	 cl, BYTE PTR [eax]
  00504	40		 inc	 eax
  00505	84 c9		 test	 cl, cl
  00507	75 f9		 jne	 SHORT $LL80@Manager
  00509	2b c7		 sub	 eax, edi
  0050b	50		 push	 eax
  0050c	52		 push	 edx
  0050d	53		 push	 ebx
  0050e	e8 00 00 00 00	 call	 __memicmp
  00513	83 c4 0c	 add	 esp, 12			; 0000000cH
  00516	85 c0		 test	 eax, eax
  00518	75 0d		 jne	 SHORT $LN24@Manager

; 1058 : 	{
; 1059 : 		this->AltClass(aIndex, 7);

  0051a	8b 55 0c	 mov	 edx, DWORD PTR _aIndex$[ebp]
  0051d	6a 07		 push	 7
  0051f	52		 push	 edx
  00520	8b ce		 mov	 ecx, esi
  00522	e8 00 00 00 00	 call	 ?AltClass@CCommands@@QAEXHE@Z ; CCommands::AltClass
$LN24@Manager:

; 1060 : 	}
; 1061 : 	// ---
; 1062 : 	if (!_memicmp(lpMsg->chatmsg, this->m_Data[COMMAND_CHARINFO].szSintax, strlen(this->m_Data[COMMAND_CHARINFO].szSintax)))

  00527	8d 96 24 15 00
	00		 lea	 edx, DWORD PTR [esi+5412]
  0052d	8b c2		 mov	 eax, edx
  0052f	8d 78 01	 lea	 edi, DWORD PTR [eax+1]
$LL81@Manager:
  00532	8a 08		 mov	 cl, BYTE PTR [eax]
  00534	40		 inc	 eax
  00535	84 c9		 test	 cl, cl
  00537	75 f9		 jne	 SHORT $LL81@Manager
  00539	2b c7		 sub	 eax, edi
  0053b	50		 push	 eax
  0053c	52		 push	 edx
  0053d	53		 push	 ebx
  0053e	e8 00 00 00 00	 call	 __memicmp

; 1063 : 	{
; 1064 : 		this->CharInfo(aIndex);

  00543	8b 7d 0c	 mov	 edi, DWORD PTR _aIndex$[ebp]
  00546	83 c4 0c	 add	 esp, 12			; 0000000cH
  00549	85 c0		 test	 eax, eax
  0054b	75 08		 jne	 SHORT $LN23@Manager
  0054d	57		 push	 edi
  0054e	8b ce		 mov	 ecx, esi
  00550	e8 00 00 00 00	 call	 ?CharInfo@CCommands@@QAEXH@Z ; CCommands::CharInfo
$LN23@Manager:

; 1065 : 	}
; 1066 : 	// ---
; 1067 : 	if (!_memicmp(lpMsg->chatmsg, gReset.szSintax, strlen(gReset.szSintax)))

  00555	b8 04 00 00 00	 mov	 eax, OFFSET ?gReset@@3VCReset@@A+4
  0055a	8d 50 01	 lea	 edx, DWORD PTR [eax+1]
  0055d	8d 49 00	 npad	 3
$LL82@Manager:
  00560	8a 08		 mov	 cl, BYTE PTR [eax]
  00562	40		 inc	 eax
  00563	84 c9		 test	 cl, cl
  00565	75 f9		 jne	 SHORT $LL82@Manager
  00567	2b c2		 sub	 eax, edx
  00569	50		 push	 eax
  0056a	68 04 00 00 00	 push	 OFFSET ?gReset@@3VCReset@@A+4
  0056f	53		 push	 ebx
  00570	e8 00 00 00 00	 call	 __memicmp
  00575	83 c4 0c	 add	 esp, 12			; 0000000cH
  00578	85 c0		 test	 eax, eax
  0057a	75 18		 jne	 SHORT $LN22@Manager

; 1068 : 	{
; 1069 : 		gReset.Init(&gObj[aIndex]);

  0057c	8b c7		 mov	 eax, edi
  0057e	69 c0 64 15 00
	00		 imul	 eax, 5476		; 00001564H
  00584	05 00 00 00 00	 add	 eax, OFFSET ?gObj@@3PAUOBJECTSTRUCT@@A ; gObj
  00589	50		 push	 eax
  0058a	b9 00 00 00 00	 mov	 ecx, OFFSET ?gReset@@3VCReset@@A ; gReset
  0058f	e8 00 00 00 00	 call	 ?Init@CReset@@QAEXPAUOBJECTSTRUCT@@@Z ; CReset::Init
$LN22@Manager:

; 1070 : 	}
; 1071 : 	// ---
; 1072 : 	if (!_memicmp(lpMsg->chatmsg, gMasterReset.szSintax, strlen(gMasterReset.szSintax)))

  00594	b8 00 00 00 00	 mov	 eax, OFFSET ?gMasterReset@@3VCMasterReset@@A ; gMasterReset
  00599	8d 50 01	 lea	 edx, DWORD PTR [eax+1]
  0059c	8d 64 24 00	 npad	 4
$LL83@Manager:
  005a0	8a 08		 mov	 cl, BYTE PTR [eax]
  005a2	40		 inc	 eax
  005a3	84 c9		 test	 cl, cl
  005a5	75 f9		 jne	 SHORT $LL83@Manager
  005a7	2b c2		 sub	 eax, edx
  005a9	50		 push	 eax
  005aa	68 00 00 00 00	 push	 OFFSET ?gMasterReset@@3VCMasterReset@@A ; gMasterReset
  005af	53		 push	 ebx
  005b0	e8 00 00 00 00	 call	 __memicmp
  005b5	83 c4 0c	 add	 esp, 12			; 0000000cH
  005b8	85 c0		 test	 eax, eax
  005ba	75 17		 jne	 SHORT $LN21@Manager

; 1073 : 	{
; 1074 : 		gMasterReset.Init(&gObj[aIndex]);

  005bc	69 ff 64 15 00
	00		 imul	 edi, 5476		; 00001564H
  005c2	81 c7 00 00 00
	00		 add	 edi, OFFSET ?gObj@@3PAUOBJECTSTRUCT@@A ; gObj
  005c8	57		 push	 edi
  005c9	b9 00 00 00 00	 mov	 ecx, OFFSET ?gMasterReset@@3VCMasterReset@@A ; gMasterReset
  005ce	e8 00 00 00 00	 call	 ?Init@CMasterReset@@QAEXPAUOBJECTSTRUCT@@@Z ; CMasterReset::Init
$LN21@Manager:

; 1075 : 	}
; 1076 : 	// ---
; 1077 : 	for(int i = 0; i <  gMoves.iCount; i++)

  005d3	33 ff		 xor	 edi, edi
  005d5	39 3d f4 0a 01
	00		 cmp	 DWORD PTR ?gMoves@@3VCMoves@@A+68340, edi
  005db	0f 8e 8c 00 00
	00		 jle	 $LN18@Manager
  005e1	be 00 00 00 00	 mov	 esi, OFFSET ?gMoves@@3VCMoves@@A ; gMoves
$LL20@Manager:

; 1078 : 	{
; 1079 : 		if (!_memicmp(lpMsg->chatmsg, gMoves.m_Data[i].szSintax, strlen(gMoves.m_Data[i].szSintax)))

  005e6	8b c6		 mov	 eax, esi
  005e8	8d 50 01	 lea	 edx, DWORD PTR [eax+1]
  005eb	eb 03 8d 49 00	 npad	 5
$LL84@Manager:
  005f0	8a 08		 mov	 cl, BYTE PTR [eax]
  005f2	40		 inc	 eax
  005f3	84 c9		 test	 cl, cl
  005f5	75 f9		 jne	 SHORT $LL84@Manager
  005f7	2b c2		 sub	 eax, edx
  005f9	50		 push	 eax
  005fa	56		 push	 esi
  005fb	53		 push	 ebx
  005fc	e8 00 00 00 00	 call	 __memicmp
  00601	83 c4 0c	 add	 esp, 12			; 0000000cH
  00604	85 c0		 test	 eax, eax
  00606	75 52		 jne	 SHORT $LN19@Manager

; 1080 : 		{
; 1081 : 			gMoves.Init(&gObj[aIndex], gMoves.m_Data[i].bEnabled, gMoves.m_Data[i].szVip, gMoves.m_Data[i].szPK, gMoves.m_Data[i].sLevel, gMoves.m_Data[i].sMap, gMoves.m_Data[i].sCordX, gMoves.m_Data[i].sCordY);

  00608	0f b7 8e 08 01
	00 00		 movzx	 ecx, WORD PTR [esi+264]
  0060f	0f b7 96 06 01
	00 00		 movzx	 edx, WORD PTR [esi+262]
  00616	0f b7 86 04 01
	00 00		 movzx	 eax, WORD PTR [esi+260]
  0061d	51		 push	 ecx
  0061e	0f b7 8e 02 01
	00 00		 movzx	 ecx, WORD PTR [esi+258]
  00625	52		 push	 edx
  00626	0f b6 96 00 01
	00 00		 movzx	 edx, BYTE PTR [esi+256]
  0062d	50		 push	 eax
  0062e	0f b6 86 ff 00
	00 00		 movzx	 eax, BYTE PTR [esi+255]
  00635	51		 push	 ecx
  00636	0f b6 8e 0a 01
	00 00		 movzx	 ecx, BYTE PTR [esi+266]
  0063d	52		 push	 edx
  0063e	8b 55 0c	 mov	 edx, DWORD PTR _aIndex$[ebp]
  00641	69 d2 64 15 00
	00		 imul	 edx, 5476		; 00001564H
  00647	50		 push	 eax
  00648	51		 push	 ecx
  00649	81 c2 00 00 00
	00		 add	 edx, OFFSET ?gObj@@3PAUOBJECTSTRUCT@@A ; gObj
  0064f	52		 push	 edx
  00650	b9 00 00 00 00	 mov	 ecx, OFFSET ?gMoves@@3VCMoves@@A ; gMoves
  00655	e8 00 00 00 00	 call	 ?Init@CMoves@@QAEXPAUOBJECTSTRUCT@@_NDDFFFF@Z ; CMoves::Init
$LN19@Manager:

; 1075 : 	}
; 1076 : 	// ---
; 1077 : 	for(int i = 0; i <  gMoves.iCount; i++)

  0065a	47		 inc	 edi
  0065b	81 c6 0c 01 00
	00		 add	 esi, 268		; 0000010cH
  00661	3b 3d f4 0a 01
	00		 cmp	 edi, DWORD PTR ?gMoves@@3VCMoves@@A+68340
  00667	0f 8c 79 ff ff
	ff		 jl	 $LL20@Manager
$LN18@Manager:

; 1082 : 		}
; 1083 : 	}
; 1084 : 	// ---
; 1085 : 	if (!_memicmp(lpMsg->chatmsg, gEventManager.m_Data.szSintax, strlen(gEventManager.m_Data.szSintax)))

  0066d	b8 00 00 00 00	 mov	 eax, OFFSET ?gEventManager@@3VCEventManager@@A ; gEventManager
  00672	8d 50 01	 lea	 edx, DWORD PTR [eax+1]
$LL85@Manager:
  00675	8a 08		 mov	 cl, BYTE PTR [eax]
  00677	40		 inc	 eax
  00678	84 c9		 test	 cl, cl
  0067a	75 f9		 jne	 SHORT $LL85@Manager
  0067c	2b c2		 sub	 eax, edx
  0067e	50		 push	 eax
  0067f	68 00 00 00 00	 push	 OFFSET ?gEventManager@@3VCEventManager@@A ; gEventManager
  00684	53		 push	 ebx
  00685	e8 00 00 00 00	 call	 __memicmp
  0068a	83 c4 0c	 add	 esp, 12			; 0000000cH
  0068d	85 c0		 test	 eax, eax
  0068f	75 30		 jne	 SHORT $LN117@Manager

; 1086 : 	{
; 1087 : 		gEventManager.CommandInit(aIndex, &lpMsg->chatmsg[strlen(gEventManager.m_Data.szSintax)]);

  00691	b8 00 00 00 00	 mov	 eax, OFFSET ?gEventManager@@3VCEventManager@@A ; gEventManager
  00696	8d 50 01	 lea	 edx, DWORD PTR [eax+1]
  00699	8d a4 24 00 00
	00 00		 npad	 7
$LL86@Manager:
  006a0	8a 08		 mov	 cl, BYTE PTR [eax]
  006a2	40		 inc	 eax
  006a3	84 c9		 test	 cl, cl
  006a5	75 f9		 jne	 SHORT $LL86@Manager
  006a7	8b 7d 08	 mov	 edi, DWORD PTR _lpMsg$[ebp]
  006aa	8b 75 0c	 mov	 esi, DWORD PTR _aIndex$[ebp]
  006ad	2b c2		 sub	 eax, edx
  006af	8d 44 38 0d	 lea	 eax, DWORD PTR [eax+edi+13]
  006b3	50		 push	 eax
  006b4	56		 push	 esi
  006b5	b9 00 00 00 00	 mov	 ecx, OFFSET ?gEventManager@@3VCEventManager@@A ; gEventManager
  006ba	e8 00 00 00 00	 call	 ?CommandInit@CEventManager@@QAEXHPAD@Z ; CEventManager::CommandInit
  006bf	eb 06		 jmp	 SHORT $LN16@Manager
$LN117@Manager:
  006c1	8b 75 0c	 mov	 esi, DWORD PTR _aIndex$[ebp]
  006c4	8b 7d 08	 mov	 edi, DWORD PTR _lpMsg$[ebp]
$LN16@Manager:

; 1088 : 	}
; 1089 : 	// ---
; 1090 : 	if (!_memicmp(lpMsg->chatmsg, gEventManager.m_Data.szEnter, strlen(gEventManager.m_Data.szEnter)))

  006c7	b8 32 00 00 00	 mov	 eax, OFFSET ?gEventManager@@3VCEventManager@@A+50
  006cc	8d 50 01	 lea	 edx, DWORD PTR [eax+1]
  006cf	90		 npad	 1
$LL87@Manager:
  006d0	8a 08		 mov	 cl, BYTE PTR [eax]
  006d2	40		 inc	 eax
  006d3	84 c9		 test	 cl, cl
  006d5	75 f9		 jne	 SHORT $LL87@Manager
  006d7	2b c2		 sub	 eax, edx
  006d9	50		 push	 eax
  006da	68 32 00 00 00	 push	 OFFSET ?gEventManager@@3VCEventManager@@A+50
  006df	53		 push	 ebx
  006e0	e8 00 00 00 00	 call	 __memicmp
  006e5	83 c4 0c	 add	 esp, 12			; 0000000cH
  006e8	85 c0		 test	 eax, eax
  006ea	75 0b		 jne	 SHORT $LN15@Manager

; 1091 : 	{
; 1092 : 		gEventManager.CommandEnter(aIndex);

  006ec	56		 push	 esi
  006ed	b9 00 00 00 00	 mov	 ecx, OFFSET ?gEventManager@@3VCEventManager@@A ; gEventManager
  006f2	e8 00 00 00 00	 call	 ?CommandEnter@CEventManager@@QAEXH@Z ; CEventManager::CommandEnter
$LN15@Manager:

; 1093 : 	}
; 1094 : 	// ---
; 1095 : 	if (!_memicmp(lpMsg->chatmsg, gPrivilege.m_Data[COMMAND_RELOAD].szSintax, strlen(gPrivilege.m_Data[COMMAND_RELOAD].szSintax)))

  006f7	b8 b4 00 00 00	 mov	 eax, OFFSET ?gPrivilege@@3VCPrivilege@@A+180
  006fc	8d 50 01	 lea	 edx, DWORD PTR [eax+1]
  006ff	90		 npad	 1
$LL88@Manager:
  00700	8a 08		 mov	 cl, BYTE PTR [eax]
  00702	40		 inc	 eax
  00703	84 c9		 test	 cl, cl
  00705	75 f9		 jne	 SHORT $LL88@Manager
  00707	2b c2		 sub	 eax, edx
  00709	50		 push	 eax
  0070a	68 b4 00 00 00	 push	 OFFSET ?gPrivilege@@3VCPrivilege@@A+180
  0070f	53		 push	 ebx
  00710	e8 00 00 00 00	 call	 __memicmp
  00715	83 c4 0c	 add	 esp, 12			; 0000000cH
  00718	85 c0		 test	 eax, eax
  0071a	75 21		 jne	 SHORT $LN14@Manager

; 1096 : 	{
; 1097 : 		gPrivilege.Reload(aIndex, &lpMsg->chatmsg[strlen(gPrivilege.m_Data[COMMAND_RELOAD].szSintax)]);

  0071c	b8 b4 00 00 00	 mov	 eax, OFFSET ?gPrivilege@@3VCPrivilege@@A+180
  00721	8d 50 01	 lea	 edx, DWORD PTR [eax+1]
$LL89@Manager:
  00724	8a 08		 mov	 cl, BYTE PTR [eax]
  00726	40		 inc	 eax
  00727	84 c9		 test	 cl, cl
  00729	75 f9		 jne	 SHORT $LL89@Manager
  0072b	2b c2		 sub	 eax, edx
  0072d	8d 4c 38 0d	 lea	 ecx, DWORD PTR [eax+edi+13]
  00731	51		 push	 ecx
  00732	56		 push	 esi
  00733	b9 00 00 00 00	 mov	 ecx, OFFSET ?gPrivilege@@3VCPrivilege@@A ; gPrivilege
  00738	e8 00 00 00 00	 call	 ?Reload@CPrivilege@@QAEXHPAD@Z ; CPrivilege::Reload
$LN14@Manager:

; 1098 : 	}
; 1099 : 	// ---
; 1100 : 	if (!_memicmp(lpMsg->chatmsg, gPrivilege.m_Data[COMMAND_DISCONNECT].szSintax, strlen(gPrivilege.m_Data[COMMAND_DISCONNECT].szSintax)))

  0073d	b8 98 01 00 00	 mov	 eax, OFFSET ?gPrivilege@@3VCPrivilege@@A+408
  00742	8d 50 01	 lea	 edx, DWORD PTR [eax+1]
$LL90@Manager:
  00745	8a 08		 mov	 cl, BYTE PTR [eax]
  00747	40		 inc	 eax
  00748	84 c9		 test	 cl, cl
  0074a	75 f9		 jne	 SHORT $LL90@Manager
  0074c	2b c2		 sub	 eax, edx
  0074e	50		 push	 eax
  0074f	68 98 01 00 00	 push	 OFFSET ?gPrivilege@@3VCPrivilege@@A+408
  00754	53		 push	 ebx
  00755	e8 00 00 00 00	 call	 __memicmp
  0075a	83 c4 0c	 add	 esp, 12			; 0000000cH
  0075d	85 c0		 test	 eax, eax
  0075f	75 28		 jne	 SHORT $LN13@Manager

; 1101 : 	{
; 1102 : 		gPrivilege.Disconnect(aIndex, &lpMsg->chatmsg[strlen(gPrivilege.m_Data[COMMAND_DISCONNECT].szSintax)]);

  00761	b8 98 01 00 00	 mov	 eax, OFFSET ?gPrivilege@@3VCPrivilege@@A+408
  00766	8d 50 01	 lea	 edx, DWORD PTR [eax+1]
  00769	8d a4 24 00 00
	00 00		 npad	 7
$LL91@Manager:
  00770	8a 08		 mov	 cl, BYTE PTR [eax]
  00772	40		 inc	 eax
  00773	84 c9		 test	 cl, cl
  00775	75 f9		 jne	 SHORT $LL91@Manager
  00777	2b c2		 sub	 eax, edx
  00779	8d 54 38 0d	 lea	 edx, DWORD PTR [eax+edi+13]
  0077d	52		 push	 edx
  0077e	56		 push	 esi
  0077f	b9 00 00 00 00	 mov	 ecx, OFFSET ?gPrivilege@@3VCPrivilege@@A ; gPrivilege
  00784	e8 00 00 00 00	 call	 ?Disconnect@CPrivilege@@QAEXHPAD@Z ; CPrivilege::Disconnect
$LN13@Manager:

; 1103 : 	}
; 1104 : 	// ---
; 1105 : 	if (!_memicmp(lpMsg->chatmsg, gPrivilege.m_Data[COMMAND_BLOCK].szSintax, strlen(gPrivilege.m_Data[COMMAND_BLOCK].szSintax)))

  00789	b8 7c 02 00 00	 mov	 eax, OFFSET ?gPrivilege@@3VCPrivilege@@A+636
  0078e	8d 50 01	 lea	 edx, DWORD PTR [eax+1]
$LL92@Manager:
  00791	8a 08		 mov	 cl, BYTE PTR [eax]
  00793	40		 inc	 eax
  00794	84 c9		 test	 cl, cl
  00796	75 f9		 jne	 SHORT $LL92@Manager
  00798	2b c2		 sub	 eax, edx
  0079a	50		 push	 eax
  0079b	68 7c 02 00 00	 push	 OFFSET ?gPrivilege@@3VCPrivilege@@A+636
  007a0	53		 push	 ebx
  007a1	e8 00 00 00 00	 call	 __memicmp
  007a6	83 c4 0c	 add	 esp, 12			; 0000000cH
  007a9	85 c0		 test	 eax, eax
  007ab	75 21		 jne	 SHORT $LN12@Manager

; 1106 : 	{
; 1107 : 		gPrivilege.Block(aIndex, &lpMsg->chatmsg[strlen(gPrivilege.m_Data[COMMAND_BLOCK].szSintax)]);

  007ad	b8 7c 02 00 00	 mov	 eax, OFFSET ?gPrivilege@@3VCPrivilege@@A+636
  007b2	8d 50 01	 lea	 edx, DWORD PTR [eax+1]
$LL93@Manager:
  007b5	8a 08		 mov	 cl, BYTE PTR [eax]
  007b7	40		 inc	 eax
  007b8	84 c9		 test	 cl, cl
  007ba	75 f9		 jne	 SHORT $LL93@Manager
  007bc	2b c2		 sub	 eax, edx
  007be	8d 44 38 0d	 lea	 eax, DWORD PTR [eax+edi+13]
  007c2	50		 push	 eax
  007c3	56		 push	 esi
  007c4	b9 00 00 00 00	 mov	 ecx, OFFSET ?gPrivilege@@3VCPrivilege@@A ; gPrivilege
  007c9	e8 00 00 00 00	 call	 ?Block@CPrivilege@@QAEXHPAD@Z ; CPrivilege::Block
$LN12@Manager:

; 1108 : 	}
; 1109 : 	// ---
; 1110 : 	if (!_memicmp(lpMsg->chatmsg, gPrivilege.m_Data[COMMAND_UNBLOCK].szSintax, strlen(gPrivilege.m_Data[COMMAND_UNBLOCK].szSintax)))

  007ce	b8 60 03 00 00	 mov	 eax, OFFSET ?gPrivilege@@3VCPrivilege@@A+864
  007d3	8d 50 01	 lea	 edx, DWORD PTR [eax+1]
$LL94@Manager:
  007d6	8a 08		 mov	 cl, BYTE PTR [eax]
  007d8	40		 inc	 eax
  007d9	84 c9		 test	 cl, cl
  007db	75 f9		 jne	 SHORT $LL94@Manager
  007dd	2b c2		 sub	 eax, edx
  007df	50		 push	 eax
  007e0	68 60 03 00 00	 push	 OFFSET ?gPrivilege@@3VCPrivilege@@A+864
  007e5	53		 push	 ebx
  007e6	e8 00 00 00 00	 call	 __memicmp
  007eb	83 c4 0c	 add	 esp, 12			; 0000000cH
  007ee	85 c0		 test	 eax, eax
  007f0	75 27		 jne	 SHORT $LN11@Manager

; 1111 : 	{
; 1112 : 		gPrivilege.UnBlock(aIndex, &lpMsg->chatmsg[strlen(gPrivilege.m_Data[COMMAND_UNBLOCK].szSintax)]);

  007f2	b8 60 03 00 00	 mov	 eax, OFFSET ?gPrivilege@@3VCPrivilege@@A+864
  007f7	8d 50 01	 lea	 edx, DWORD PTR [eax+1]
  007fa	8d 9b 00 00 00
	00		 npad	 6
$LL95@Manager:
  00800	8a 08		 mov	 cl, BYTE PTR [eax]
  00802	40		 inc	 eax
  00803	84 c9		 test	 cl, cl
  00805	75 f9		 jne	 SHORT $LL95@Manager
  00807	2b c2		 sub	 eax, edx
  00809	8d 4c 38 0d	 lea	 ecx, DWORD PTR [eax+edi+13]
  0080d	51		 push	 ecx
  0080e	56		 push	 esi
  0080f	b9 00 00 00 00	 mov	 ecx, OFFSET ?gPrivilege@@3VCPrivilege@@A ; gPrivilege
  00814	e8 00 00 00 00	 call	 ?UnBlock@CPrivilege@@QAEXHPAD@Z ; CPrivilege::UnBlock
$LN11@Manager:

; 1113 : 	}
; 1114 : 	// ---
; 1115 : 	if (!_memicmp(lpMsg->chatmsg, gPrivilege.m_Data[COMMAND_SKIN].szSintax, strlen(gPrivilege.m_Data[COMMAND_SKIN].szSintax)))

  00819	b8 44 04 00 00	 mov	 eax, OFFSET ?gPrivilege@@3VCPrivilege@@A+1092
  0081e	8d 50 01	 lea	 edx, DWORD PTR [eax+1]
$LL96@Manager:
  00821	8a 08		 mov	 cl, BYTE PTR [eax]
  00823	40		 inc	 eax
  00824	84 c9		 test	 cl, cl
  00826	75 f9		 jne	 SHORT $LL96@Manager
  00828	2b c2		 sub	 eax, edx
  0082a	50		 push	 eax
  0082b	68 44 04 00 00	 push	 OFFSET ?gPrivilege@@3VCPrivilege@@A+1092
  00830	53		 push	 ebx
  00831	e8 00 00 00 00	 call	 __memicmp
  00836	83 c4 0c	 add	 esp, 12			; 0000000cH
  00839	85 c0		 test	 eax, eax
  0083b	75 21		 jne	 SHORT $LN10@Manager

; 1116 : 	{
; 1117 : 		gPrivilege.Skin(aIndex, &lpMsg->chatmsg[strlen(gPrivilege.m_Data[COMMAND_SKIN].szSintax)]);

  0083d	b8 44 04 00 00	 mov	 eax, OFFSET ?gPrivilege@@3VCPrivilege@@A+1092
  00842	8d 50 01	 lea	 edx, DWORD PTR [eax+1]
$LL97@Manager:
  00845	8a 08		 mov	 cl, BYTE PTR [eax]
  00847	40		 inc	 eax
  00848	84 c9		 test	 cl, cl
  0084a	75 f9		 jne	 SHORT $LL97@Manager
  0084c	2b c2		 sub	 eax, edx
  0084e	8d 54 38 0d	 lea	 edx, DWORD PTR [eax+edi+13]
  00852	52		 push	 edx
  00853	56		 push	 esi
  00854	b9 00 00 00 00	 mov	 ecx, OFFSET ?gPrivilege@@3VCPrivilege@@A ; gPrivilege
  00859	e8 00 00 00 00	 call	 ?Skin@CPrivilege@@QAEXHPAD@Z ; CPrivilege::Skin
$LN10@Manager:

; 1118 : 	}
; 1119 : 	// ---
; 1120 : 	if (!_memicmp(lpMsg->chatmsg, gPrivilege.m_Data[COMMAND_MAKE].szSintax, strlen(gPrivilege.m_Data[COMMAND_MAKE].szSintax)))

  0085e	b8 28 05 00 00	 mov	 eax, OFFSET ?gPrivilege@@3VCPrivilege@@A+1320
  00863	8d 50 01	 lea	 edx, DWORD PTR [eax+1]
$LL98@Manager:
  00866	8a 08		 mov	 cl, BYTE PTR [eax]
  00868	40		 inc	 eax
  00869	84 c9		 test	 cl, cl
  0086b	75 f9		 jne	 SHORT $LL98@Manager
  0086d	2b c2		 sub	 eax, edx
  0086f	50		 push	 eax
  00870	68 28 05 00 00	 push	 OFFSET ?gPrivilege@@3VCPrivilege@@A+1320
  00875	53		 push	 ebx
  00876	e8 00 00 00 00	 call	 __memicmp
  0087b	83 c4 0c	 add	 esp, 12			; 0000000cH
  0087e	85 c0		 test	 eax, eax
  00880	75 27		 jne	 SHORT $LN9@Manager

; 1121 : 	{
; 1122 : 		gPrivilege.Make(aIndex, &lpMsg->chatmsg[strlen(gPrivilege.m_Data[COMMAND_MAKE].szSintax)]);

  00882	b8 28 05 00 00	 mov	 eax, OFFSET ?gPrivilege@@3VCPrivilege@@A+1320
  00887	8d 50 01	 lea	 edx, DWORD PTR [eax+1]
  0088a	8d 9b 00 00 00
	00		 npad	 6
$LL99@Manager:
  00890	8a 08		 mov	 cl, BYTE PTR [eax]
  00892	40		 inc	 eax
  00893	84 c9		 test	 cl, cl
  00895	75 f9		 jne	 SHORT $LL99@Manager
  00897	2b c2		 sub	 eax, edx
  00899	8d 44 38 0d	 lea	 eax, DWORD PTR [eax+edi+13]
  0089d	50		 push	 eax
  0089e	56		 push	 esi
  0089f	b9 00 00 00 00	 mov	 ecx, OFFSET ?gPrivilege@@3VCPrivilege@@A ; gPrivilege
  008a4	e8 00 00 00 00	 call	 ?Make@CPrivilege@@QAEXHPAD@Z ; CPrivilege::Make
$LN9@Manager:

; 1123 : 	}
; 1124 : 	// ---
; 1125 : 	if (!_memicmp(lpMsg->chatmsg, gPrivilege.m_Data[COMMAND_GMOVE].szSintax, strlen(gPrivilege.m_Data[COMMAND_GMOVE].szSintax)))

  008a9	b8 0c 06 00 00	 mov	 eax, OFFSET ?gPrivilege@@3VCPrivilege@@A+1548
  008ae	8d 50 01	 lea	 edx, DWORD PTR [eax+1]
$LL100@Manager:
  008b1	8a 08		 mov	 cl, BYTE PTR [eax]
  008b3	40		 inc	 eax
  008b4	84 c9		 test	 cl, cl
  008b6	75 f9		 jne	 SHORT $LL100@Manager
  008b8	2b c2		 sub	 eax, edx
  008ba	50		 push	 eax
  008bb	68 0c 06 00 00	 push	 OFFSET ?gPrivilege@@3VCPrivilege@@A+1548
  008c0	53		 push	 ebx
  008c1	e8 00 00 00 00	 call	 __memicmp
  008c6	83 c4 0c	 add	 esp, 12			; 0000000cH
  008c9	85 c0		 test	 eax, eax
  008cb	75 21		 jne	 SHORT $LN8@Manager

; 1126 : 	{
; 1127 : 		gPrivilege.Move(aIndex, &lpMsg->chatmsg[strlen(gPrivilege.m_Data[COMMAND_GMOVE].szSintax)]);

  008cd	b8 0c 06 00 00	 mov	 eax, OFFSET ?gPrivilege@@3VCPrivilege@@A+1548
  008d2	8d 50 01	 lea	 edx, DWORD PTR [eax+1]
$LL101@Manager:
  008d5	8a 08		 mov	 cl, BYTE PTR [eax]
  008d7	40		 inc	 eax
  008d8	84 c9		 test	 cl, cl
  008da	75 f9		 jne	 SHORT $LL101@Manager
  008dc	2b c2		 sub	 eax, edx
  008de	8d 4c 38 0d	 lea	 ecx, DWORD PTR [eax+edi+13]
  008e2	51		 push	 ecx
  008e3	56		 push	 esi
  008e4	b9 00 00 00 00	 mov	 ecx, OFFSET ?gPrivilege@@3VCPrivilege@@A ; gPrivilege
  008e9	e8 00 00 00 00	 call	 ?Move@CPrivilege@@QAEXHPAD@Z ; CPrivilege::Move
$LN8@Manager:

; 1128 : 	}
; 1129 : 	// ---
; 1130 : 	if (!_memicmp(lpMsg->chatmsg, gPrivilege.m_Data[COMMAND_MOVEALL].szSintax, strlen(gPrivilege.m_Data[COMMAND_MOVEALL].szSintax)))

  008ee	b8 f0 06 00 00	 mov	 eax, OFFSET ?gPrivilege@@3VCPrivilege@@A+1776
  008f3	8d 50 01	 lea	 edx, DWORD PTR [eax+1]
$LL102@Manager:
  008f6	8a 08		 mov	 cl, BYTE PTR [eax]
  008f8	40		 inc	 eax
  008f9	84 c9		 test	 cl, cl
  008fb	75 f9		 jne	 SHORT $LL102@Manager
  008fd	2b c2		 sub	 eax, edx
  008ff	50		 push	 eax
  00900	68 f0 06 00 00	 push	 OFFSET ?gPrivilege@@3VCPrivilege@@A+1776
  00905	53		 push	 ebx
  00906	e8 00 00 00 00	 call	 __memicmp
  0090b	83 c4 0c	 add	 esp, 12			; 0000000cH
  0090e	85 c0		 test	 eax, eax
  00910	75 27		 jne	 SHORT $LN7@Manager

; 1131 : 	{
; 1132 : 		gPrivilege.MoveAll(aIndex, &lpMsg->chatmsg[strlen(gPrivilege.m_Data[COMMAND_MOVEALL].szSintax)]);

  00912	b8 f0 06 00 00	 mov	 eax, OFFSET ?gPrivilege@@3VCPrivilege@@A+1776
  00917	8d 50 01	 lea	 edx, DWORD PTR [eax+1]
  0091a	8d 9b 00 00 00
	00		 npad	 6
$LL103@Manager:
  00920	8a 08		 mov	 cl, BYTE PTR [eax]
  00922	40		 inc	 eax
  00923	84 c9		 test	 cl, cl
  00925	75 f9		 jne	 SHORT $LL103@Manager
  00927	2b c2		 sub	 eax, edx
  00929	8d 54 38 0d	 lea	 edx, DWORD PTR [eax+edi+13]
  0092d	52		 push	 edx
  0092e	56		 push	 esi
  0092f	b9 00 00 00 00	 mov	 ecx, OFFSET ?gPrivilege@@3VCPrivilege@@A ; gPrivilege
  00934	e8 00 00 00 00	 call	 ?MoveAll@CPrivilege@@QAEXHPAD@Z ; CPrivilege::MoveAll
$LN7@Manager:

; 1133 : 	}
; 1134 : 	// ---
; 1135 : 	if (!_memicmp(lpMsg->chatmsg, gPrivilege.m_Data[COMMAND_REWARD].szSintax, strlen(gPrivilege.m_Data[COMMAND_REWARD].szSintax)))

  00939	b8 d4 07 00 00	 mov	 eax, OFFSET ?gPrivilege@@3VCPrivilege@@A+2004
  0093e	8d 50 01	 lea	 edx, DWORD PTR [eax+1]
$LL104@Manager:
  00941	8a 08		 mov	 cl, BYTE PTR [eax]
  00943	40		 inc	 eax
  00944	84 c9		 test	 cl, cl
  00946	75 f9		 jne	 SHORT $LL104@Manager
  00948	2b c2		 sub	 eax, edx
  0094a	50		 push	 eax
  0094b	68 d4 07 00 00	 push	 OFFSET ?gPrivilege@@3VCPrivilege@@A+2004
  00950	53		 push	 ebx
  00951	e8 00 00 00 00	 call	 __memicmp
  00956	83 c4 0c	 add	 esp, 12			; 0000000cH
  00959	85 c0		 test	 eax, eax
  0095b	75 21		 jne	 SHORT $LN6@Manager

; 1136 : 	{
; 1137 : 		gPrivilege.Reward(aIndex, &lpMsg->chatmsg[strlen(gPrivilege.m_Data[COMMAND_REWARD].szSintax)]);

  0095d	b8 d4 07 00 00	 mov	 eax, OFFSET ?gPrivilege@@3VCPrivilege@@A+2004
  00962	8d 50 01	 lea	 edx, DWORD PTR [eax+1]
$LL105@Manager:
  00965	8a 08		 mov	 cl, BYTE PTR [eax]
  00967	40		 inc	 eax
  00968	84 c9		 test	 cl, cl
  0096a	75 f9		 jne	 SHORT $LL105@Manager
  0096c	2b c2		 sub	 eax, edx
  0096e	8d 44 38 0d	 lea	 eax, DWORD PTR [eax+edi+13]
  00972	50		 push	 eax
  00973	56		 push	 esi
  00974	b9 00 00 00 00	 mov	 ecx, OFFSET ?gPrivilege@@3VCPrivilege@@A ; gPrivilege
  00979	e8 00 00 00 00	 call	 ?Reward@CPrivilege@@QAEXHPAD@Z ; CPrivilege::Reward
$LN6@Manager:

; 1138 : 	}
; 1139 : 	// ---
; 1140 : 	if (!_memicmp(lpMsg->chatmsg, gPrivilege.m_Data[COMMAND_SETZEN].szSintax, strlen(gPrivilege.m_Data[COMMAND_SETZEN].szSintax)))

  0097e	b8 b8 08 00 00	 mov	 eax, OFFSET ?gPrivilege@@3VCPrivilege@@A+2232
  00983	8d 50 01	 lea	 edx, DWORD PTR [eax+1]
$LL106@Manager:
  00986	8a 08		 mov	 cl, BYTE PTR [eax]
  00988	40		 inc	 eax
  00989	84 c9		 test	 cl, cl
  0098b	75 f9		 jne	 SHORT $LL106@Manager
  0098d	2b c2		 sub	 eax, edx
  0098f	50		 push	 eax
  00990	68 b8 08 00 00	 push	 OFFSET ?gPrivilege@@3VCPrivilege@@A+2232
  00995	53		 push	 ebx
  00996	e8 00 00 00 00	 call	 __memicmp
  0099b	83 c4 0c	 add	 esp, 12			; 0000000cH
  0099e	85 c0		 test	 eax, eax
  009a0	75 27		 jne	 SHORT $LN5@Manager

; 1141 : 	{
; 1142 : 		gPrivilege.SetZen(aIndex, &lpMsg->chatmsg[strlen(gPrivilege.m_Data[COMMAND_SETZEN].szSintax)]);

  009a2	b8 b8 08 00 00	 mov	 eax, OFFSET ?gPrivilege@@3VCPrivilege@@A+2232
  009a7	8d 50 01	 lea	 edx, DWORD PTR [eax+1]
  009aa	8d 9b 00 00 00
	00		 npad	 6
$LL107@Manager:
  009b0	8a 08		 mov	 cl, BYTE PTR [eax]
  009b2	40		 inc	 eax
  009b3	84 c9		 test	 cl, cl
  009b5	75 f9		 jne	 SHORT $LL107@Manager
  009b7	2b c2		 sub	 eax, edx
  009b9	8d 4c 38 0d	 lea	 ecx, DWORD PTR [eax+edi+13]
  009bd	51		 push	 ecx
  009be	56		 push	 esi
  009bf	b9 00 00 00 00	 mov	 ecx, OFFSET ?gPrivilege@@3VCPrivilege@@A ; gPrivilege
  009c4	e8 00 00 00 00	 call	 ?SetZen@CPrivilege@@QAEXHPAD@Z ; CPrivilege::SetZen
$LN5@Manager:

; 1143 : 	}
; 1144 : 	// ---
; 1145 : 	if (!_memicmp(lpMsg->chatmsg, gPrivilege.m_Data[COMMAND_SETLEVEL].szSintax, strlen(gPrivilege.m_Data[COMMAND_SETLEVEL].szSintax)))

  009c9	b8 9c 09 00 00	 mov	 eax, OFFSET ?gPrivilege@@3VCPrivilege@@A+2460
  009ce	8d 50 01	 lea	 edx, DWORD PTR [eax+1]
$LL108@Manager:
  009d1	8a 08		 mov	 cl, BYTE PTR [eax]
  009d3	40		 inc	 eax
  009d4	84 c9		 test	 cl, cl
  009d6	75 f9		 jne	 SHORT $LL108@Manager
  009d8	2b c2		 sub	 eax, edx
  009da	50		 push	 eax
  009db	68 9c 09 00 00	 push	 OFFSET ?gPrivilege@@3VCPrivilege@@A+2460
  009e0	53		 push	 ebx
  009e1	e8 00 00 00 00	 call	 __memicmp
  009e6	83 c4 0c	 add	 esp, 12			; 0000000cH
  009e9	85 c0		 test	 eax, eax
  009eb	75 21		 jne	 SHORT $LN4@Manager

; 1146 : 	{
; 1147 : 		gPrivilege.SetLevel(aIndex, &lpMsg->chatmsg[strlen(gPrivilege.m_Data[COMMAND_SETLEVEL].szSintax)]);

  009ed	b8 9c 09 00 00	 mov	 eax, OFFSET ?gPrivilege@@3VCPrivilege@@A+2460
  009f2	8d 50 01	 lea	 edx, DWORD PTR [eax+1]
$LL109@Manager:
  009f5	8a 08		 mov	 cl, BYTE PTR [eax]
  009f7	40		 inc	 eax
  009f8	84 c9		 test	 cl, cl
  009fa	75 f9		 jne	 SHORT $LL109@Manager
  009fc	2b c2		 sub	 eax, edx
  009fe	8d 54 38 0d	 lea	 edx, DWORD PTR [eax+edi+13]
  00a02	52		 push	 edx
  00a03	56		 push	 esi
  00a04	b9 00 00 00 00	 mov	 ecx, OFFSET ?gPrivilege@@3VCPrivilege@@A ; gPrivilege
  00a09	e8 00 00 00 00	 call	 ?SetLevel@CPrivilege@@QAEXHPAD@Z ; CPrivilege::SetLevel
$LN4@Manager:

; 1148 : 	}
; 1149 : 	// ---
; 1150 : 	if (!_memicmp(lpMsg->chatmsg, gPrivilege.m_Data[COMMAND_SETPK].szSintax, strlen(gPrivilege.m_Data[COMMAND_SETPK].szSintax)))

  00a0e	b8 80 0a 00 00	 mov	 eax, OFFSET ?gPrivilege@@3VCPrivilege@@A+2688
  00a13	8d 50 01	 lea	 edx, DWORD PTR [eax+1]
$LL110@Manager:
  00a16	8a 08		 mov	 cl, BYTE PTR [eax]
  00a18	40		 inc	 eax
  00a19	84 c9		 test	 cl, cl
  00a1b	75 f9		 jne	 SHORT $LL110@Manager
  00a1d	2b c2		 sub	 eax, edx
  00a1f	50		 push	 eax
  00a20	68 80 0a 00 00	 push	 OFFSET ?gPrivilege@@3VCPrivilege@@A+2688
  00a25	53		 push	 ebx
  00a26	e8 00 00 00 00	 call	 __memicmp
  00a2b	83 c4 0c	 add	 esp, 12			; 0000000cH
  00a2e	85 c0		 test	 eax, eax
  00a30	75 27		 jne	 SHORT $LN3@Manager

; 1151 : 	{
; 1152 : 		gPrivilege.SetPKLevel(aIndex, &lpMsg->chatmsg[strlen(gPrivilege.m_Data[COMMAND_SETPK].szSintax)]);

  00a32	b8 80 0a 00 00	 mov	 eax, OFFSET ?gPrivilege@@3VCPrivilege@@A+2688
  00a37	8d 50 01	 lea	 edx, DWORD PTR [eax+1]
  00a3a	8d 9b 00 00 00
	00		 npad	 6
$LL111@Manager:
  00a40	8a 08		 mov	 cl, BYTE PTR [eax]
  00a42	40		 inc	 eax
  00a43	84 c9		 test	 cl, cl
  00a45	75 f9		 jne	 SHORT $LL111@Manager
  00a47	2b c2		 sub	 eax, edx
  00a49	8d 44 38 0d	 lea	 eax, DWORD PTR [eax+edi+13]
  00a4d	50		 push	 eax
  00a4e	56		 push	 esi
  00a4f	b9 00 00 00 00	 mov	 ecx, OFFSET ?gPrivilege@@3VCPrivilege@@A ; gPrivilege
  00a54	e8 00 00 00 00	 call	 ?SetPKLevel@CPrivilege@@QAEXHPAD@Z ; CPrivilege::SetPKLevel
$LN3@Manager:

; 1153 : 	}
; 1154 : 	// ---
; 1155 : 	if (!_memicmp(lpMsg->chatmsg, gPrivilege.m_Data[COMMAND_SETDROP].szSintax, strlen(gPrivilege.m_Data[COMMAND_SETDROP].szSintax)))

  00a59	b8 64 0b 00 00	 mov	 eax, OFFSET ?gPrivilege@@3VCPrivilege@@A+2916
  00a5e	8d 50 01	 lea	 edx, DWORD PTR [eax+1]
$LL112@Manager:
  00a61	8a 08		 mov	 cl, BYTE PTR [eax]
  00a63	40		 inc	 eax
  00a64	84 c9		 test	 cl, cl
  00a66	75 f9		 jne	 SHORT $LL112@Manager
  00a68	2b c2		 sub	 eax, edx
  00a6a	50		 push	 eax
  00a6b	68 64 0b 00 00	 push	 OFFSET ?gPrivilege@@3VCPrivilege@@A+2916
  00a70	53		 push	 ebx
  00a71	e8 00 00 00 00	 call	 __memicmp
  00a76	83 c4 0c	 add	 esp, 12			; 0000000cH
  00a79	85 c0		 test	 eax, eax
  00a7b	75 21		 jne	 SHORT $LN2@Manager

; 1156 : 	{
; 1157 : 		gPrivilege.SetDrop(aIndex, &lpMsg->chatmsg[strlen(gPrivilege.m_Data[COMMAND_SETDROP].szSintax)]);

  00a7d	b8 64 0b 00 00	 mov	 eax, OFFSET ?gPrivilege@@3VCPrivilege@@A+2916
  00a82	8d 50 01	 lea	 edx, DWORD PTR [eax+1]
$LL113@Manager:
  00a85	8a 08		 mov	 cl, BYTE PTR [eax]
  00a87	40		 inc	 eax
  00a88	84 c9		 test	 cl, cl
  00a8a	75 f9		 jne	 SHORT $LL113@Manager
  00a8c	2b c2		 sub	 eax, edx
  00a8e	8d 4c 38 0d	 lea	 ecx, DWORD PTR [eax+edi+13]
  00a92	51		 push	 ecx
  00a93	56		 push	 esi
  00a94	b9 00 00 00 00	 mov	 ecx, OFFSET ?gPrivilege@@3VCPrivilege@@A ; gPrivilege
  00a99	e8 00 00 00 00	 call	 ?SetDrop@CPrivilege@@QAEXHPAD@Z ; CPrivilege::SetDrop
$LN2@Manager:

; 1158 : 	}
; 1159 : 	// ---
; 1160 : 	if (!_memicmp(lpMsg->chatmsg, gPrivilege.m_Data[COMMAND_HIDE].szSintax, strlen(gPrivilege.m_Data[COMMAND_HIDE].szSintax)))

  00a9e	b8 48 0c 00 00	 mov	 eax, OFFSET ?gPrivilege@@3VCPrivilege@@A+3144
  00aa3	8d 50 01	 lea	 edx, DWORD PTR [eax+1]
$LL114@Manager:
  00aa6	8a 08		 mov	 cl, BYTE PTR [eax]
  00aa8	40		 inc	 eax
  00aa9	84 c9		 test	 cl, cl
  00aab	75 f9		 jne	 SHORT $LL114@Manager
  00aad	2b c2		 sub	 eax, edx
  00aaf	50		 push	 eax
  00ab0	68 48 0c 00 00	 push	 OFFSET ?gPrivilege@@3VCPrivilege@@A+3144
  00ab5	53		 push	 ebx
  00ab6	e8 00 00 00 00	 call	 __memicmp
  00abb	83 c4 0c	 add	 esp, 12			; 0000000cH
  00abe	85 c0		 test	 eax, eax
  00ac0	75 27		 jne	 SHORT $LN1@Manager

; 1161 : 	{
; 1162 : 		gPrivilege.Hide(aIndex, &lpMsg->chatmsg[strlen(gPrivilege.m_Data[COMMAND_HIDE].szSintax)]);

  00ac2	b8 48 0c 00 00	 mov	 eax, OFFSET ?gPrivilege@@3VCPrivilege@@A+3144
  00ac7	8d 50 01	 lea	 edx, DWORD PTR [eax+1]
  00aca	8d 9b 00 00 00
	00		 npad	 6
$LL115@Manager:
  00ad0	8a 08		 mov	 cl, BYTE PTR [eax]
  00ad2	40		 inc	 eax
  00ad3	84 c9		 test	 cl, cl
  00ad5	75 f9		 jne	 SHORT $LL115@Manager
  00ad7	2b c2		 sub	 eax, edx
  00ad9	8d 54 38 0d	 lea	 edx, DWORD PTR [eax+edi+13]
  00add	52		 push	 edx
  00ade	56		 push	 esi
  00adf	b9 00 00 00 00	 mov	 ecx, OFFSET ?gPrivilege@@3VCPrivilege@@A ; gPrivilege
  00ae4	e8 00 00 00 00	 call	 ?Hide@CPrivilege@@QAEXHPAD@Z ; CPrivilege::Hide
$LN1@Manager:
  00ae9	5f		 pop	 edi
  00aea	5e		 pop	 esi
  00aeb	5b		 pop	 ebx

; 1163 : 	}
; 1164 : }

  00aec	5d		 pop	 ebp
  00aed	c2 08 00	 ret	 8
?Manager@CCommands@@QAEXPAUPMSG_CHATDATA@@H@Z ENDP	; CCommands::Manager
_TEXT	ENDS
END
