; Listing generated by Microsoft (R) Optimizing Compiler Version 16.00.30319.01 

	TITLE	C:\Users\faelhs\mu-1.1\eMu - GameServer Sapphire S0\GameServer\DSProtocol.cpp
	.686P
	.XMM
	include listing.inc
	.model	flat

INCLUDELIB LIBCMT
INCLUDELIB OLDNAMES

_DATA	SEGMENT
_g_sttBLOODCASTLE_LEVEL DD 0fH
	DD	050H
	DD	0aH
	DD	03cH
	DD	051H
	DD	082H
	DD	03dH
	DD	06eH
	DD	083H
	DD	0b4H
	DD	06fH
	DD	0a0H
	DD	0b5H
	DD	0e6H
	DD	0a1H
	DD	0d2H
	DD	0e7H
	DD	0118H
	DD	0d3H
	DD	0104H
	DD	0119H
	DD	014aH
	DD	0105H
	DD	0136H
	DD	014bH
	DD	0190H
	DD	0137H
	DD	0190H
_DATA	ENDS
PUBLIC	?GetMapSvrGroup@CMapServerManager@@QAEHXZ	; CMapServerManager::GetMapSvrGroup
; Function compile flags: /Ogtp
; File c:\users\faelhs\mu-1.1\emu - gameserver sapphire s0\gameserver\mapservermanager.h
;	COMDAT ?GetMapSvrGroup@CMapServerManager@@QAEHXZ
_TEXT	SEGMENT
?GetMapSvrGroup@CMapServerManager@@QAEHXZ PROC		; CMapServerManager::GetMapSvrGroup, COMDAT
; _this$ = ecx

; 50   : 		if ( this->m_lpThisMapSvrData != NULL )

  00000	8b 81 80 af 00
	00		 mov	 eax, DWORD PTR [ecx+44928]
  00006	85 c0		 test	 eax, eax
  00008	74 05		 je	 SHORT $LN1@GetMapSvrG

; 51   : 		{
; 52   : 			return m_lpThisMapSvrData->m_btMAPSVR_GROUP;

  0000a	0f b6 40 08	 movzx	 eax, BYTE PTR [eax+8]

; 55   : 	}

  0000e	c3		 ret	 0
$LN1@GetMapSvrG:

; 53   : 		}
; 54   : 		return -1;

  0000f	83 c8 ff	 or	 eax, -1

; 55   : 	}

  00012	c3		 ret	 0
?GetMapSvrGroup@CMapServerManager@@QAEHXZ ENDP		; CMapServerManager::GetMapSvrGroup
_TEXT	ENDS
PUBLIC	?SetCastleState@CCastleSiegeSync@@QAEXH@Z	; CCastleSiegeSync::SetCastleState
; Function compile flags: /Ogtp
; File c:\users\faelhs\mu-1.1\emu - gameserver sapphire s0\gameserver\castlesiegesync.h
;	COMDAT ?SetCastleState@CCastleSiegeSync@@QAEXH@Z
_TEXT	SEGMENT
_iCastleState$ = 8					; size = 4
?SetCastleState@CCastleSiegeSync@@QAEXH@Z PROC		; CCastleSiegeSync::SetCastleState, COMDAT
; _this$ = ecx

; 30   : 	void SetCastleState(int iCastleState){this->m_iCurCastleState = iCastleState;};	// line : 56

  00000	55		 push	 ebp
  00001	8b ec		 mov	 ebp, esp
  00003	8b 45 08	 mov	 eax, DWORD PTR _iCastleState$[ebp]
  00006	89 41 04	 mov	 DWORD PTR [ecx+4], eax
  00009	5d		 pop	 ebp
  0000a	c2 04 00	 ret	 4
?SetCastleState@CCastleSiegeSync@@QAEXH@Z ENDP		; CCastleSiegeSync::SetCastleState
_TEXT	ENDS
PUBLIC	?SetTaxRateChaos@CCastleSiegeSync@@QAEXH@Z	; CCastleSiegeSync::SetTaxRateChaos
; Function compile flags: /Ogtp
;	COMDAT ?SetTaxRateChaos@CCastleSiegeSync@@QAEXH@Z
_TEXT	SEGMENT
_iTaxRate$ = 8						; size = 4
?SetTaxRateChaos@CCastleSiegeSync@@QAEXH@Z PROC		; CCastleSiegeSync::SetTaxRateChaos, COMDAT
; _this$ = ecx

; 31   : 	void SetTaxRateChaos(int iTaxRate){this->m_iCurTaxRateChaos = iTaxRate;};	// line : 59

  00000	55		 push	 ebp
  00001	8b ec		 mov	 ebp, esp
  00003	8b 45 08	 mov	 eax, DWORD PTR _iTaxRate$[ebp]
  00006	89 41 08	 mov	 DWORD PTR [ecx+8], eax
  00009	5d		 pop	 ebp
  0000a	c2 04 00	 ret	 4
?SetTaxRateChaos@CCastleSiegeSync@@QAEXH@Z ENDP		; CCastleSiegeSync::SetTaxRateChaos
_TEXT	ENDS
PUBLIC	?SetTaxRateStore@CCastleSiegeSync@@QAEXH@Z	; CCastleSiegeSync::SetTaxRateStore
; Function compile flags: /Ogtp
;	COMDAT ?SetTaxRateStore@CCastleSiegeSync@@QAEXH@Z
_TEXT	SEGMENT
_iTaxRate$ = 8						; size = 4
?SetTaxRateStore@CCastleSiegeSync@@QAEXH@Z PROC		; CCastleSiegeSync::SetTaxRateStore, COMDAT
; _this$ = ecx

; 32   : 	void SetTaxRateStore(int iTaxRate){this->m_iCurTaxRateStore = iTaxRate;};	// line : 62

  00000	55		 push	 ebp
  00001	8b ec		 mov	 ebp, esp
  00003	8b 45 08	 mov	 eax, DWORD PTR _iTaxRate$[ebp]
  00006	89 41 0c	 mov	 DWORD PTR [ecx+12], eax
  00009	5d		 pop	 ebp
  0000a	c2 04 00	 ret	 4
?SetTaxRateStore@CCastleSiegeSync@@QAEXH@Z ENDP		; CCastleSiegeSync::SetTaxRateStore
_TEXT	ENDS
PUBLIC	?SetTaxHuntZone@CCastleSiegeSync@@QAEXH@Z	; CCastleSiegeSync::SetTaxHuntZone
; Function compile flags: /Ogtp
;	COMDAT ?SetTaxHuntZone@CCastleSiegeSync@@QAEXH@Z
_TEXT	SEGMENT
_iTaxRate$ = 8						; size = 4
?SetTaxHuntZone@CCastleSiegeSync@@QAEXH@Z PROC		; CCastleSiegeSync::SetTaxHuntZone, COMDAT
; _this$ = ecx

; 33   : 	void SetTaxHuntZone(int iTaxRate){this->m_iCurTaxHuntZone = iTaxRate;};	// line : 65

  00000	55		 push	 ebp
  00001	8b ec		 mov	 ebp, esp
  00003	8b 45 08	 mov	 eax, DWORD PTR _iTaxRate$[ebp]
  00006	89 41 10	 mov	 DWORD PTR [ecx+16], eax
  00009	5d		 pop	 ebp
  0000a	c2 04 00	 ret	 4
?SetTaxHuntZone@CCastleSiegeSync@@QAEXH@Z ENDP		; CCastleSiegeSync::SetTaxHuntZone
_TEXT	ENDS
PUBLIC	?GetTributeMoney@CCastleSiegeSync@@QAEHXZ	; CCastleSiegeSync::GetTributeMoney
; Function compile flags: /Ogtp
;	COMDAT ?GetTributeMoney@CCastleSiegeSync@@QAEHXZ
_TEXT	SEGMENT
?GetTributeMoney@CCastleSiegeSync@@QAEHXZ PROC		; CCastleSiegeSync::GetTributeMoney, COMDAT
; _this$ = ecx

; 35   : 	int GetTributeMoney(){return this->m_lCastleTributeMoney;};	// line : 77

  00000	8b 41 14	 mov	 eax, DWORD PTR [ecx+20]
  00003	c3		 ret	 0
?GetTributeMoney@CCastleSiegeSync@@QAEHXZ ENDP		; CCastleSiegeSync::GetTributeMoney
_TEXT	ENDS
PUBLIC	?_ARGB@@YAKEEEE@Z				; _ARGB
; Function compile flags: /Ogtp
; File c:\users\faelhs\mu-1.1\emu - gameserver sapphire s0\gameserver\tnotice.h
;	COMDAT ?_ARGB@@YAKEEEE@Z
_TEXT	SEGMENT
_a$ = 8							; size = 1
_r$ = 12						; size = 1
_g$ = 16						; size = 1
_b$ = 20						; size = 1
?_ARGB@@YAKEEEE@Z PROC					; _ARGB, COMDAT

; 8    : __inline DWORD _ARGB(BYTE a, BYTE r, BYTE g, BYTE b){ return a*16777216 + b*65536 + g*256 + r;}; // in tnotice.h : line 8

  00000	55		 push	 ebp
  00001	8b ec		 mov	 ebp, esp
  00003	0f b6 45 08	 movzx	 eax, BYTE PTR _a$[ebp]
  00007	0f b6 4d 14	 movzx	 ecx, BYTE PTR _b$[ebp]
  0000b	0f b6 55 10	 movzx	 edx, BYTE PTR _g$[ebp]
  0000f	c1 e0 08	 shl	 eax, 8
  00012	03 c1		 add	 eax, ecx
  00014	0f b6 4d 0c	 movzx	 ecx, BYTE PTR _r$[ebp]
  00018	c1 e0 08	 shl	 eax, 8
  0001b	03 c2		 add	 eax, edx
  0001d	c1 e0 08	 shl	 eax, 8
  00020	03 c1		 add	 eax, ecx
  00022	5d		 pop	 ebp
  00023	c3		 ret	 0
?_ARGB@@YAKEEEE@Z ENDP					; _ARGB
_TEXT	ENDS
PUBLIC	??_C@_0P@GMPEKMII@Test?5Data?5Send?$AA@		; `string'
PUBLIC	??_C@_02DKCKIIND@?$CFs?$AA@			; `string'
PUBLIC	??_C@_02DPKJAMEF@?$CFd?$AA@			; `string'
PUBLIC	__$ArrayPad$
PUBLIC	?TestDSSend@@YAXXZ				; TestDSSend
EXTRN	?Send@DBSockMng@@QAEHPADH@Z:PROC		; DBSockMng::Send
EXTRN	?cDBSMng@@3VDBSockMng@@A:BYTE			; cDBSMng
EXTRN	?LogAdd@@YAXW4eLogColor@@PADZZ:PROC		; LogAdd
EXTRN	__imp__wsprintfA:PROC
EXTRN	?iCount@@3HA:DWORD				; iCount
EXTRN	___security_cookie:DWORD
EXTRN	@__security_check_cookie@4:PROC
;	COMDAT ??_C@_0P@GMPEKMII@Test?5Data?5Send?$AA@
; File c:\users\faelhs\mu-1.1\emu - gameserver sapphire s0\gameserver\dsprotocol.cpp
CONST	SEGMENT
??_C@_0P@GMPEKMII@Test?5Data?5Send?$AA@ DB 'Test Data Send', 00H ; `string'
CONST	ENDS
;	COMDAT ??_C@_02DKCKIIND@?$CFs?$AA@
CONST	SEGMENT
??_C@_02DKCKIIND@?$CFs?$AA@ DB '%s', 00H		; `string'
CONST	ENDS
;	COMDAT ??_C@_02DPKJAMEF@?$CFd?$AA@
CONST	SEGMENT
??_C@_02DPKJAMEF@?$CFd?$AA@ DB '%d', 00H		; `string'
; Function compile flags: /Ogtp
CONST	ENDS
;	COMDAT ?TestDSSend@@YAXXZ
_TEXT	SEGMENT
_pMsg$ = -2008						; size = 2004
__$ArrayPad$ = -4					; size = 4
?TestDSSend@@YAXXZ PROC					; TestDSSend, COMDAT

; 237  : {

  00000	55		 push	 ebp
  00001	8b ec		 mov	 ebp, esp
  00003	81 ec d8 07 00
	00		 sub	 esp, 2008		; 000007d8H
  00009	a1 00 00 00 00	 mov	 eax, DWORD PTR ___security_cookie
  0000e	33 c5		 xor	 eax, ebp
  00010	89 45 fc	 mov	 DWORD PTR __$ArrayPad$[ebp], eax

; 238  : 	PMSG_TEST pMsg;
; 239  : 	int size;
; 240  : 
; 241  : 	size = sizeof(PMSG_TEST);
; 242  : 	pMsg.h.c=0xC2;
; 243  : 	pMsg.h.headcode =0xFF;
; 244  : 	pMsg.h.sizeH = SET_NUMBERH(size);
; 245  : 	pMsg.h.sizeL = SET_NUMBERL(size);
; 246  : 
; 247  : 	wsprintf(pMsg.testbuf, "%d", iCount);

  00013	a1 00 00 00 00	 mov	 eax, DWORD PTR ?iCount@@3HA ; iCount
  00018	56		 push	 esi
  00019	8b 35 00 00 00
	00		 mov	 esi, DWORD PTR __imp__wsprintfA
  0001f	50		 push	 eax
  00020	8d 8d 2c f8 ff
	ff		 lea	 ecx, DWORD PTR _pMsg$[ebp+4]
  00026	68 00 00 00 00	 push	 OFFSET ??_C@_02DPKJAMEF@?$CFd?$AA@
  0002b	51		 push	 ecx
  0002c	c7 85 28 f8 ff
	ff c2 07 d4 ff	 mov	 DWORD PTR _pMsg$[ebp], -2881598 ; ffd407c2H
  00036	ff d6		 call	 esi

; 248  : 	LogAdd(LOG_BLACK, "%s", pMsg.testbuf );

  00038	8d 95 2c f8 ff
	ff		 lea	 edx, DWORD PTR _pMsg$[ebp+4]
  0003e	52		 push	 edx
  0003f	68 00 00 00 00	 push	 OFFSET ??_C@_02DKCKIIND@?$CFs?$AA@
  00044	6a 00		 push	 0
  00046	e8 00 00 00 00	 call	 ?LogAdd@@YAXW4eLogColor@@PADZZ ; LogAdd
  0004b	83 c4 18	 add	 esp, 24			; 00000018H

; 249  : 	cDBSMng.Send((char *)&pMsg, size);

  0004e	68 d4 07 00 00	 push	 2004			; 000007d4H
  00053	8d 85 28 f8 ff
	ff		 lea	 eax, DWORD PTR _pMsg$[ebp]
  00059	50		 push	 eax
  0005a	b9 00 00 00 00	 mov	 ecx, OFFSET ?cDBSMng@@3VDBSockMng@@A ; cDBSMng
  0005f	e8 00 00 00 00	 call	 ?Send@DBSockMng@@QAEHPADH@Z ; DBSockMng::Send

; 250  : 	iCount++;

  00064	a1 00 00 00 00	 mov	 eax, DWORD PTR ?iCount@@3HA ; iCount
  00069	40		 inc	 eax

; 251  : 
; 252  : 	wsprintf(pMsg.testbuf, "%d", iCount);

  0006a	50		 push	 eax
  0006b	8d 8d 2c f8 ff
	ff		 lea	 ecx, DWORD PTR _pMsg$[ebp+4]
  00071	68 00 00 00 00	 push	 OFFSET ??_C@_02DPKJAMEF@?$CFd?$AA@
  00076	51		 push	 ecx
  00077	a3 00 00 00 00	 mov	 DWORD PTR ?iCount@@3HA, eax ; iCount
  0007c	ff d6		 call	 esi

; 253  : 	LogAdd(LOG_BLACK, "%s", pMsg.testbuf);

  0007e	8d 95 2c f8 ff
	ff		 lea	 edx, DWORD PTR _pMsg$[ebp+4]
  00084	52		 push	 edx
  00085	68 00 00 00 00	 push	 OFFSET ??_C@_02DKCKIIND@?$CFs?$AA@
  0008a	6a 00		 push	 0
  0008c	e8 00 00 00 00	 call	 ?LogAdd@@YAXW4eLogColor@@PADZZ ; LogAdd
  00091	83 c4 18	 add	 esp, 24			; 00000018H

; 254  : 	cDBSMng.Send((char *)&pMsg, size);

  00094	68 d4 07 00 00	 push	 2004			; 000007d4H
  00099	8d 85 28 f8 ff
	ff		 lea	 eax, DWORD PTR _pMsg$[ebp]
  0009f	50		 push	 eax
  000a0	b9 00 00 00 00	 mov	 ecx, OFFSET ?cDBSMng@@3VDBSockMng@@A ; cDBSMng
  000a5	e8 00 00 00 00	 call	 ?Send@DBSockMng@@QAEHPADH@Z ; DBSockMng::Send

; 255  : 	iCount++;

  000aa	a1 00 00 00 00	 mov	 eax, DWORD PTR ?iCount@@3HA ; iCount
  000af	40		 inc	 eax

; 256  : 
; 257  : 	wsprintf(pMsg.testbuf, "%d", iCount);

  000b0	50		 push	 eax
  000b1	8d 8d 2c f8 ff
	ff		 lea	 ecx, DWORD PTR _pMsg$[ebp+4]
  000b7	68 00 00 00 00	 push	 OFFSET ??_C@_02DPKJAMEF@?$CFd?$AA@
  000bc	51		 push	 ecx
  000bd	a3 00 00 00 00	 mov	 DWORD PTR ?iCount@@3HA, eax ; iCount
  000c2	ff d6		 call	 esi

; 258  : 	LogAdd(LOG_BLACK, "%s", pMsg.testbuf);

  000c4	8d 95 2c f8 ff
	ff		 lea	 edx, DWORD PTR _pMsg$[ebp+4]
  000ca	52		 push	 edx
  000cb	68 00 00 00 00	 push	 OFFSET ??_C@_02DKCKIIND@?$CFs?$AA@
  000d0	6a 00		 push	 0
  000d2	e8 00 00 00 00	 call	 ?LogAdd@@YAXW4eLogColor@@PADZZ ; LogAdd
  000d7	83 c4 18	 add	 esp, 24			; 00000018H

; 259  : 	cDBSMng.Send((char *)&pMsg, size);

  000da	68 d4 07 00 00	 push	 2004			; 000007d4H
  000df	8d 85 28 f8 ff
	ff		 lea	 eax, DWORD PTR _pMsg$[ebp]
  000e5	50		 push	 eax
  000e6	b9 00 00 00 00	 mov	 ecx, OFFSET ?cDBSMng@@3VDBSockMng@@A ; cDBSMng
  000eb	e8 00 00 00 00	 call	 ?Send@DBSockMng@@QAEHPADH@Z ; DBSockMng::Send

; 260  : 	iCount++;

  000f0	a1 00 00 00 00	 mov	 eax, DWORD PTR ?iCount@@3HA ; iCount
  000f5	40		 inc	 eax

; 261  : 
; 262  : 	wsprintf(pMsg.testbuf, "%d", iCount);

  000f6	50		 push	 eax
  000f7	8d 8d 2c f8 ff
	ff		 lea	 ecx, DWORD PTR _pMsg$[ebp+4]
  000fd	68 00 00 00 00	 push	 OFFSET ??_C@_02DPKJAMEF@?$CFd?$AA@
  00102	51		 push	 ecx
  00103	a3 00 00 00 00	 mov	 DWORD PTR ?iCount@@3HA, eax ; iCount
  00108	ff d6		 call	 esi

; 263  : 	LogAdd(LOG_BLACK, "%s", pMsg.testbuf);

  0010a	8d 95 2c f8 ff
	ff		 lea	 edx, DWORD PTR _pMsg$[ebp+4]
  00110	52		 push	 edx
  00111	68 00 00 00 00	 push	 OFFSET ??_C@_02DKCKIIND@?$CFs?$AA@
  00116	6a 00		 push	 0
  00118	e8 00 00 00 00	 call	 ?LogAdd@@YAXW4eLogColor@@PADZZ ; LogAdd
  0011d	83 c4 18	 add	 esp, 24			; 00000018H

; 264  : 	cDBSMng.Send((char *)&pMsg, size);

  00120	68 d4 07 00 00	 push	 2004			; 000007d4H
  00125	8d 85 28 f8 ff
	ff		 lea	 eax, DWORD PTR _pMsg$[ebp]
  0012b	50		 push	 eax
  0012c	b9 00 00 00 00	 mov	 ecx, OFFSET ?cDBSMng@@3VDBSockMng@@A ; cDBSMng
  00131	e8 00 00 00 00	 call	 ?Send@DBSockMng@@QAEHPADH@Z ; DBSockMng::Send

; 265  : 	iCount++;

  00136	a1 00 00 00 00	 mov	 eax, DWORD PTR ?iCount@@3HA ; iCount
  0013b	40		 inc	 eax
  0013c	a3 00 00 00 00	 mov	 DWORD PTR ?iCount@@3HA, eax ; iCount

; 266  : 
; 267  : 	wsprintf(pMsg.testbuf, "%d", iCount);

  00141	50		 push	 eax
  00142	8d 8d 2c f8 ff
	ff		 lea	 ecx, DWORD PTR _pMsg$[ebp+4]
  00148	68 00 00 00 00	 push	 OFFSET ??_C@_02DPKJAMEF@?$CFd?$AA@
  0014d	51		 push	 ecx
  0014e	ff d6		 call	 esi

; 268  : 	LogAdd(LOG_BLACK, "%s", pMsg.testbuf);

  00150	8d 95 2c f8 ff
	ff		 lea	 edx, DWORD PTR _pMsg$[ebp+4]
  00156	52		 push	 edx
  00157	68 00 00 00 00	 push	 OFFSET ??_C@_02DKCKIIND@?$CFs?$AA@
  0015c	6a 00		 push	 0
  0015e	e8 00 00 00 00	 call	 ?LogAdd@@YAXW4eLogColor@@PADZZ ; LogAdd
  00163	83 c4 18	 add	 esp, 24			; 00000018H

; 269  : 	cDBSMng.Send((char *)&pMsg, size);

  00166	68 d4 07 00 00	 push	 2004			; 000007d4H
  0016b	8d 85 28 f8 ff
	ff		 lea	 eax, DWORD PTR _pMsg$[ebp]
  00171	50		 push	 eax
  00172	b9 00 00 00 00	 mov	 ecx, OFFSET ?cDBSMng@@3VDBSockMng@@A ; cDBSMng
  00177	e8 00 00 00 00	 call	 ?Send@DBSockMng@@QAEHPADH@Z ; DBSockMng::Send

; 270  : 	iCount++;

  0017c	a1 00 00 00 00	 mov	 eax, DWORD PTR ?iCount@@3HA ; iCount
  00181	40		 inc	 eax

; 271  : 
; 272  : 	wsprintf(pMsg.testbuf, "%d", iCount);

  00182	50		 push	 eax
  00183	8d 8d 2c f8 ff
	ff		 lea	 ecx, DWORD PTR _pMsg$[ebp+4]
  00189	68 00 00 00 00	 push	 OFFSET ??_C@_02DPKJAMEF@?$CFd?$AA@
  0018e	51		 push	 ecx
  0018f	a3 00 00 00 00	 mov	 DWORD PTR ?iCount@@3HA, eax ; iCount
  00194	ff d6		 call	 esi

; 273  : 	LogAdd(LOG_BLACK, "%s", pMsg.testbuf);

  00196	8d 95 2c f8 ff
	ff		 lea	 edx, DWORD PTR _pMsg$[ebp+4]
  0019c	52		 push	 edx
  0019d	68 00 00 00 00	 push	 OFFSET ??_C@_02DKCKIIND@?$CFs?$AA@
  001a2	6a 00		 push	 0
  001a4	e8 00 00 00 00	 call	 ?LogAdd@@YAXW4eLogColor@@PADZZ ; LogAdd
  001a9	83 c4 18	 add	 esp, 24			; 00000018H

; 274  : 	cDBSMng.Send((char *)&pMsg, size);

  001ac	68 d4 07 00 00	 push	 2004			; 000007d4H
  001b1	8d 85 28 f8 ff
	ff		 lea	 eax, DWORD PTR _pMsg$[ebp]
  001b7	50		 push	 eax
  001b8	b9 00 00 00 00	 mov	 ecx, OFFSET ?cDBSMng@@3VDBSockMng@@A ; cDBSMng
  001bd	e8 00 00 00 00	 call	 ?Send@DBSockMng@@QAEHPADH@Z ; DBSockMng::Send

; 275  : 	iCount++;

  001c2	a1 00 00 00 00	 mov	 eax, DWORD PTR ?iCount@@3HA ; iCount
  001c7	40		 inc	 eax

; 276  : 
; 277  : 	wsprintf(pMsg.testbuf, "%d", iCount);

  001c8	50		 push	 eax
  001c9	8d 8d 2c f8 ff
	ff		 lea	 ecx, DWORD PTR _pMsg$[ebp+4]
  001cf	68 00 00 00 00	 push	 OFFSET ??_C@_02DPKJAMEF@?$CFd?$AA@
  001d4	51		 push	 ecx
  001d5	a3 00 00 00 00	 mov	 DWORD PTR ?iCount@@3HA, eax ; iCount
  001da	ff d6		 call	 esi

; 278  : 	LogAdd(LOG_BLACK, "%s", pMsg.testbuf);

  001dc	8d 95 2c f8 ff
	ff		 lea	 edx, DWORD PTR _pMsg$[ebp+4]
  001e2	52		 push	 edx
  001e3	68 00 00 00 00	 push	 OFFSET ??_C@_02DKCKIIND@?$CFs?$AA@
  001e8	6a 00		 push	 0
  001ea	e8 00 00 00 00	 call	 ?LogAdd@@YAXW4eLogColor@@PADZZ ; LogAdd
  001ef	83 c4 18	 add	 esp, 24			; 00000018H

; 279  : 	cDBSMng.Send((char *)&pMsg, size);

  001f2	68 d4 07 00 00	 push	 2004			; 000007d4H
  001f7	8d 85 28 f8 ff
	ff		 lea	 eax, DWORD PTR _pMsg$[ebp]
  001fd	50		 push	 eax
  001fe	b9 00 00 00 00	 mov	 ecx, OFFSET ?cDBSMng@@3VDBSockMng@@A ; cDBSMng
  00203	e8 00 00 00 00	 call	 ?Send@DBSockMng@@QAEHPADH@Z ; DBSockMng::Send

; 280  : 	iCount++;

  00208	a1 00 00 00 00	 mov	 eax, DWORD PTR ?iCount@@3HA ; iCount
  0020d	40		 inc	 eax

; 281  : 
; 282  : 	wsprintf(pMsg.testbuf, "%d", iCount);

  0020e	50		 push	 eax
  0020f	8d 8d 2c f8 ff
	ff		 lea	 ecx, DWORD PTR _pMsg$[ebp+4]
  00215	68 00 00 00 00	 push	 OFFSET ??_C@_02DPKJAMEF@?$CFd?$AA@
  0021a	51		 push	 ecx
  0021b	a3 00 00 00 00	 mov	 DWORD PTR ?iCount@@3HA, eax ; iCount
  00220	ff d6		 call	 esi

; 283  : 	LogAdd(LOG_BLACK, "%s", pMsg.testbuf);

  00222	8d 95 2c f8 ff
	ff		 lea	 edx, DWORD PTR _pMsg$[ebp+4]
  00228	52		 push	 edx
  00229	68 00 00 00 00	 push	 OFFSET ??_C@_02DKCKIIND@?$CFs?$AA@
  0022e	6a 00		 push	 0
  00230	e8 00 00 00 00	 call	 ?LogAdd@@YAXW4eLogColor@@PADZZ ; LogAdd
  00235	83 c4 18	 add	 esp, 24			; 00000018H

; 284  : 	cDBSMng.Send((char *)&pMsg, size);

  00238	68 d4 07 00 00	 push	 2004			; 000007d4H
  0023d	8d 85 28 f8 ff
	ff		 lea	 eax, DWORD PTR _pMsg$[ebp]
  00243	50		 push	 eax
  00244	b9 00 00 00 00	 mov	 ecx, OFFSET ?cDBSMng@@3VDBSockMng@@A ; cDBSMng
  00249	e8 00 00 00 00	 call	 ?Send@DBSockMng@@QAEHPADH@Z ; DBSockMng::Send

; 285  : 	iCount++;

  0024e	a1 00 00 00 00	 mov	 eax, DWORD PTR ?iCount@@3HA ; iCount
  00253	40		 inc	 eax

; 286  : 
; 287  : 	wsprintf(pMsg.testbuf, "%d", iCount);

  00254	50		 push	 eax
  00255	8d 8d 2c f8 ff
	ff		 lea	 ecx, DWORD PTR _pMsg$[ebp+4]
  0025b	68 00 00 00 00	 push	 OFFSET ??_C@_02DPKJAMEF@?$CFd?$AA@
  00260	51		 push	 ecx
  00261	a3 00 00 00 00	 mov	 DWORD PTR ?iCount@@3HA, eax ; iCount
  00266	ff d6		 call	 esi

; 288  : 	LogAdd(LOG_BLACK, "%s", pMsg.testbuf);

  00268	8d 95 2c f8 ff
	ff		 lea	 edx, DWORD PTR _pMsg$[ebp+4]
  0026e	52		 push	 edx
  0026f	68 00 00 00 00	 push	 OFFSET ??_C@_02DKCKIIND@?$CFs?$AA@
  00274	6a 00		 push	 0
  00276	e8 00 00 00 00	 call	 ?LogAdd@@YAXW4eLogColor@@PADZZ ; LogAdd
  0027b	83 c4 18	 add	 esp, 24			; 00000018H

; 289  : 	cDBSMng.Send((char *)&pMsg, size);

  0027e	68 d4 07 00 00	 push	 2004			; 000007d4H
  00283	8d 85 28 f8 ff
	ff		 lea	 eax, DWORD PTR _pMsg$[ebp]
  00289	50		 push	 eax
  0028a	b9 00 00 00 00	 mov	 ecx, OFFSET ?cDBSMng@@3VDBSockMng@@A ; cDBSMng
  0028f	e8 00 00 00 00	 call	 ?Send@DBSockMng@@QAEHPADH@Z ; DBSockMng::Send

; 290  : 	iCount++;

  00294	a1 00 00 00 00	 mov	 eax, DWORD PTR ?iCount@@3HA ; iCount
  00299	40		 inc	 eax

; 291  : 
; 292  : 	wsprintf(pMsg.testbuf, "%d", iCount);

  0029a	50		 push	 eax
  0029b	8d 8d 2c f8 ff
	ff		 lea	 ecx, DWORD PTR _pMsg$[ebp+4]
  002a1	68 00 00 00 00	 push	 OFFSET ??_C@_02DPKJAMEF@?$CFd?$AA@
  002a6	51		 push	 ecx
  002a7	a3 00 00 00 00	 mov	 DWORD PTR ?iCount@@3HA, eax ; iCount
  002ac	ff d6		 call	 esi

; 293  : 	LogAdd(LOG_BLACK, "%s", pMsg.testbuf);

  002ae	8d 95 2c f8 ff
	ff		 lea	 edx, DWORD PTR _pMsg$[ebp+4]
  002b4	52		 push	 edx
  002b5	68 00 00 00 00	 push	 OFFSET ??_C@_02DKCKIIND@?$CFs?$AA@
  002ba	6a 00		 push	 0
  002bc	e8 00 00 00 00	 call	 ?LogAdd@@YAXW4eLogColor@@PADZZ ; LogAdd
  002c1	83 c4 18	 add	 esp, 24			; 00000018H

; 294  : 	cDBSMng.Send((char *)&pMsg, size);

  002c4	68 d4 07 00 00	 push	 2004			; 000007d4H
  002c9	8d 85 28 f8 ff
	ff		 lea	 eax, DWORD PTR _pMsg$[ebp]
  002cf	50		 push	 eax
  002d0	b9 00 00 00 00	 mov	 ecx, OFFSET ?cDBSMng@@3VDBSockMng@@A ; cDBSMng
  002d5	e8 00 00 00 00	 call	 ?Send@DBSockMng@@QAEHPADH@Z ; DBSockMng::Send

; 295  : 	iCount++;

  002da	a1 00 00 00 00	 mov	 eax, DWORD PTR ?iCount@@3HA ; iCount
  002df	40		 inc	 eax

; 296  : 
; 297  : 	wsprintf(pMsg.testbuf, "%d", iCount);

  002e0	50		 push	 eax
  002e1	8d 8d 2c f8 ff
	ff		 lea	 ecx, DWORD PTR _pMsg$[ebp+4]
  002e7	68 00 00 00 00	 push	 OFFSET ??_C@_02DPKJAMEF@?$CFd?$AA@
  002ec	51		 push	 ecx
  002ed	a3 00 00 00 00	 mov	 DWORD PTR ?iCount@@3HA, eax ; iCount
  002f2	ff d6		 call	 esi

; 298  : 	LogAdd(LOG_BLACK, "%s", pMsg.testbuf);

  002f4	8d 95 2c f8 ff
	ff		 lea	 edx, DWORD PTR _pMsg$[ebp+4]
  002fa	52		 push	 edx
  002fb	68 00 00 00 00	 push	 OFFSET ??_C@_02DKCKIIND@?$CFs?$AA@
  00300	6a 00		 push	 0
  00302	e8 00 00 00 00	 call	 ?LogAdd@@YAXW4eLogColor@@PADZZ ; LogAdd
  00307	83 c4 18	 add	 esp, 24			; 00000018H

; 299  : 	cDBSMng.Send((char *)&pMsg, size);

  0030a	68 d4 07 00 00	 push	 2004			; 000007d4H
  0030f	8d 85 28 f8 ff
	ff		 lea	 eax, DWORD PTR _pMsg$[ebp]
  00315	50		 push	 eax
  00316	b9 00 00 00 00	 mov	 ecx, OFFSET ?cDBSMng@@3VDBSockMng@@A ; cDBSMng
  0031b	e8 00 00 00 00	 call	 ?Send@DBSockMng@@QAEHPADH@Z ; DBSockMng::Send

; 300  : 	iCount++;

  00320	a1 00 00 00 00	 mov	 eax, DWORD PTR ?iCount@@3HA ; iCount
  00325	40		 inc	 eax

; 301  : 
; 302  : 	wsprintf(pMsg.testbuf, "%d", iCount);

  00326	50		 push	 eax
  00327	8d 8d 2c f8 ff
	ff		 lea	 ecx, DWORD PTR _pMsg$[ebp+4]
  0032d	68 00 00 00 00	 push	 OFFSET ??_C@_02DPKJAMEF@?$CFd?$AA@
  00332	51		 push	 ecx
  00333	a3 00 00 00 00	 mov	 DWORD PTR ?iCount@@3HA, eax ; iCount
  00338	ff d6		 call	 esi

; 303  : 	LogAdd(LOG_BLACK, "%s", pMsg.testbuf);

  0033a	8d 95 2c f8 ff
	ff		 lea	 edx, DWORD PTR _pMsg$[ebp+4]
  00340	52		 push	 edx
  00341	68 00 00 00 00	 push	 OFFSET ??_C@_02DKCKIIND@?$CFs?$AA@
  00346	6a 00		 push	 0
  00348	e8 00 00 00 00	 call	 ?LogAdd@@YAXW4eLogColor@@PADZZ ; LogAdd
  0034d	83 c4 18	 add	 esp, 24			; 00000018H

; 304  : 	cDBSMng.Send((char *)&pMsg, size);

  00350	68 d4 07 00 00	 push	 2004			; 000007d4H
  00355	8d 85 28 f8 ff
	ff		 lea	 eax, DWORD PTR _pMsg$[ebp]
  0035b	50		 push	 eax
  0035c	b9 00 00 00 00	 mov	 ecx, OFFSET ?cDBSMng@@3VDBSockMng@@A ; cDBSMng
  00361	e8 00 00 00 00	 call	 ?Send@DBSockMng@@QAEHPADH@Z ; DBSockMng::Send

; 305  : 	iCount++;

  00366	a1 00 00 00 00	 mov	 eax, DWORD PTR ?iCount@@3HA ; iCount
  0036b	40		 inc	 eax

; 306  : 
; 307  : 	wsprintf(pMsg.testbuf, "%d", iCount);

  0036c	50		 push	 eax
  0036d	8d 8d 2c f8 ff
	ff		 lea	 ecx, DWORD PTR _pMsg$[ebp+4]
  00373	68 00 00 00 00	 push	 OFFSET ??_C@_02DPKJAMEF@?$CFd?$AA@
  00378	51		 push	 ecx
  00379	a3 00 00 00 00	 mov	 DWORD PTR ?iCount@@3HA, eax ; iCount
  0037e	ff d6		 call	 esi

; 308  : 	LogAdd(LOG_BLACK, "%s", pMsg.testbuf);

  00380	8d 95 2c f8 ff
	ff		 lea	 edx, DWORD PTR _pMsg$[ebp+4]
  00386	52		 push	 edx
  00387	68 00 00 00 00	 push	 OFFSET ??_C@_02DKCKIIND@?$CFs?$AA@
  0038c	6a 00		 push	 0
  0038e	e8 00 00 00 00	 call	 ?LogAdd@@YAXW4eLogColor@@PADZZ ; LogAdd
  00393	83 c4 18	 add	 esp, 24			; 00000018H

; 309  : 	cDBSMng.Send((char *)&pMsg, size);

  00396	68 d4 07 00 00	 push	 2004			; 000007d4H
  0039b	8d 85 28 f8 ff
	ff		 lea	 eax, DWORD PTR _pMsg$[ebp]
  003a1	50		 push	 eax
  003a2	b9 00 00 00 00	 mov	 ecx, OFFSET ?cDBSMng@@3VDBSockMng@@A ; cDBSMng
  003a7	e8 00 00 00 00	 call	 ?Send@DBSockMng@@QAEHPADH@Z ; DBSockMng::Send

; 310  : 	iCount++;

  003ac	a1 00 00 00 00	 mov	 eax, DWORD PTR ?iCount@@3HA ; iCount
  003b1	40		 inc	 eax

; 311  : 
; 312  : 	wsprintf(pMsg.testbuf, "%d", iCount);

  003b2	50		 push	 eax
  003b3	8d 8d 2c f8 ff
	ff		 lea	 ecx, DWORD PTR _pMsg$[ebp+4]
  003b9	68 00 00 00 00	 push	 OFFSET ??_C@_02DPKJAMEF@?$CFd?$AA@
  003be	51		 push	 ecx
  003bf	a3 00 00 00 00	 mov	 DWORD PTR ?iCount@@3HA, eax ; iCount
  003c4	ff d6		 call	 esi

; 313  : 	LogAdd(LOG_BLACK, "%s", pMsg.testbuf);

  003c6	8d 95 2c f8 ff
	ff		 lea	 edx, DWORD PTR _pMsg$[ebp+4]
  003cc	52		 push	 edx
  003cd	68 00 00 00 00	 push	 OFFSET ??_C@_02DKCKIIND@?$CFs?$AA@
  003d2	6a 00		 push	 0
  003d4	e8 00 00 00 00	 call	 ?LogAdd@@YAXW4eLogColor@@PADZZ ; LogAdd
  003d9	83 c4 18	 add	 esp, 24			; 00000018H

; 314  : 	cDBSMng.Send((char *)&pMsg, size);

  003dc	68 d4 07 00 00	 push	 2004			; 000007d4H
  003e1	8d 85 28 f8 ff
	ff		 lea	 eax, DWORD PTR _pMsg$[ebp]
  003e7	50		 push	 eax
  003e8	b9 00 00 00 00	 mov	 ecx, OFFSET ?cDBSMng@@3VDBSockMng@@A ; cDBSMng
  003ed	e8 00 00 00 00	 call	 ?Send@DBSockMng@@QAEHPADH@Z ; DBSockMng::Send

; 315  : 	iCount++;

  003f2	a1 00 00 00 00	 mov	 eax, DWORD PTR ?iCount@@3HA ; iCount
  003f7	40		 inc	 eax

; 316  : 
; 317  : 	wsprintf(pMsg.testbuf, "%d", iCount);

  003f8	50		 push	 eax
  003f9	8d 8d 2c f8 ff
	ff		 lea	 ecx, DWORD PTR _pMsg$[ebp+4]
  003ff	68 00 00 00 00	 push	 OFFSET ??_C@_02DPKJAMEF@?$CFd?$AA@
  00404	51		 push	 ecx
  00405	a3 00 00 00 00	 mov	 DWORD PTR ?iCount@@3HA, eax ; iCount
  0040a	ff d6		 call	 esi

; 318  : 	LogAdd(LOG_BLACK, "%s", pMsg.testbuf);

  0040c	8d 95 2c f8 ff
	ff		 lea	 edx, DWORD PTR _pMsg$[ebp+4]
  00412	52		 push	 edx
  00413	68 00 00 00 00	 push	 OFFSET ??_C@_02DKCKIIND@?$CFs?$AA@
  00418	6a 00		 push	 0
  0041a	e8 00 00 00 00	 call	 ?LogAdd@@YAXW4eLogColor@@PADZZ ; LogAdd
  0041f	83 c4 18	 add	 esp, 24			; 00000018H

; 319  : 	cDBSMng.Send((char *)&pMsg, size);

  00422	68 d4 07 00 00	 push	 2004			; 000007d4H
  00427	8d 85 28 f8 ff
	ff		 lea	 eax, DWORD PTR _pMsg$[ebp]
  0042d	50		 push	 eax
  0042e	b9 00 00 00 00	 mov	 ecx, OFFSET ?cDBSMng@@3VDBSockMng@@A ; cDBSMng
  00433	e8 00 00 00 00	 call	 ?Send@DBSockMng@@QAEHPADH@Z ; DBSockMng::Send

; 320  : 	iCount++;

  00438	a1 00 00 00 00	 mov	 eax, DWORD PTR ?iCount@@3HA ; iCount
  0043d	40		 inc	 eax

; 321  : 
; 322  : 	wsprintf(pMsg.testbuf, "%d", iCount);

  0043e	50		 push	 eax
  0043f	8d 8d 2c f8 ff
	ff		 lea	 ecx, DWORD PTR _pMsg$[ebp+4]
  00445	68 00 00 00 00	 push	 OFFSET ??_C@_02DPKJAMEF@?$CFd?$AA@
  0044a	51		 push	 ecx
  0044b	a3 00 00 00 00	 mov	 DWORD PTR ?iCount@@3HA, eax ; iCount
  00450	ff d6		 call	 esi

; 323  : 	LogAdd(LOG_BLACK, "%s", pMsg.testbuf);

  00452	8d 95 2c f8 ff
	ff		 lea	 edx, DWORD PTR _pMsg$[ebp+4]
  00458	52		 push	 edx
  00459	68 00 00 00 00	 push	 OFFSET ??_C@_02DKCKIIND@?$CFs?$AA@
  0045e	6a 00		 push	 0
  00460	e8 00 00 00 00	 call	 ?LogAdd@@YAXW4eLogColor@@PADZZ ; LogAdd
  00465	83 c4 18	 add	 esp, 24			; 00000018H

; 324  : 	cDBSMng.Send((char *)&pMsg, size);

  00468	68 d4 07 00 00	 push	 2004			; 000007d4H
  0046d	8d 85 28 f8 ff
	ff		 lea	 eax, DWORD PTR _pMsg$[ebp]
  00473	50		 push	 eax
  00474	b9 00 00 00 00	 mov	 ecx, OFFSET ?cDBSMng@@3VDBSockMng@@A ; cDBSMng
  00479	e8 00 00 00 00	 call	 ?Send@DBSockMng@@QAEHPADH@Z ; DBSockMng::Send

; 325  : 	iCount++;

  0047e	a1 00 00 00 00	 mov	 eax, DWORD PTR ?iCount@@3HA ; iCount
  00483	40		 inc	 eax

; 326  : 
; 327  : 	wsprintf(pMsg.testbuf, "%d", iCount);

  00484	50		 push	 eax
  00485	8d 8d 2c f8 ff
	ff		 lea	 ecx, DWORD PTR _pMsg$[ebp+4]
  0048b	68 00 00 00 00	 push	 OFFSET ??_C@_02DPKJAMEF@?$CFd?$AA@
  00490	51		 push	 ecx
  00491	a3 00 00 00 00	 mov	 DWORD PTR ?iCount@@3HA, eax ; iCount
  00496	ff d6		 call	 esi

; 328  : 	LogAdd(LOG_BLACK, "%s", pMsg.testbuf);

  00498	8d 95 2c f8 ff
	ff		 lea	 edx, DWORD PTR _pMsg$[ebp+4]
  0049e	52		 push	 edx
  0049f	68 00 00 00 00	 push	 OFFSET ??_C@_02DKCKIIND@?$CFs?$AA@
  004a4	6a 00		 push	 0
  004a6	e8 00 00 00 00	 call	 ?LogAdd@@YAXW4eLogColor@@PADZZ ; LogAdd
  004ab	83 c4 18	 add	 esp, 24			; 00000018H

; 329  : 	cDBSMng.Send((char *)&pMsg, size);

  004ae	68 d4 07 00 00	 push	 2004			; 000007d4H
  004b3	8d 85 28 f8 ff
	ff		 lea	 eax, DWORD PTR _pMsg$[ebp]
  004b9	50		 push	 eax
  004ba	b9 00 00 00 00	 mov	 ecx, OFFSET ?cDBSMng@@3VDBSockMng@@A ; cDBSMng
  004bf	e8 00 00 00 00	 call	 ?Send@DBSockMng@@QAEHPADH@Z ; DBSockMng::Send

; 330  : 	iCount++;

  004c4	a1 00 00 00 00	 mov	 eax, DWORD PTR ?iCount@@3HA ; iCount
  004c9	40		 inc	 eax

; 331  : 
; 332  : 	wsprintf(pMsg.testbuf, "%d", iCount);

  004ca	50		 push	 eax
  004cb	8d 8d 2c f8 ff
	ff		 lea	 ecx, DWORD PTR _pMsg$[ebp+4]
  004d1	68 00 00 00 00	 push	 OFFSET ??_C@_02DPKJAMEF@?$CFd?$AA@
  004d6	51		 push	 ecx
  004d7	a3 00 00 00 00	 mov	 DWORD PTR ?iCount@@3HA, eax ; iCount
  004dc	ff d6		 call	 esi

; 333  : 	LogAdd(LOG_BLACK, "%s", pMsg.testbuf);

  004de	8d 95 2c f8 ff
	ff		 lea	 edx, DWORD PTR _pMsg$[ebp+4]
  004e4	52		 push	 edx
  004e5	68 00 00 00 00	 push	 OFFSET ??_C@_02DKCKIIND@?$CFs?$AA@
  004ea	6a 00		 push	 0
  004ec	e8 00 00 00 00	 call	 ?LogAdd@@YAXW4eLogColor@@PADZZ ; LogAdd
  004f1	83 c4 18	 add	 esp, 24			; 00000018H

; 334  : 	cDBSMng.Send((char *)&pMsg, size);

  004f4	68 d4 07 00 00	 push	 2004			; 000007d4H
  004f9	8d 85 28 f8 ff
	ff		 lea	 eax, DWORD PTR _pMsg$[ebp]
  004ff	50		 push	 eax
  00500	b9 00 00 00 00	 mov	 ecx, OFFSET ?cDBSMng@@3VDBSockMng@@A ; cDBSMng
  00505	e8 00 00 00 00	 call	 ?Send@DBSockMng@@QAEHPADH@Z ; DBSockMng::Send

; 335  : 	iCount++;

  0050a	a1 00 00 00 00	 mov	 eax, DWORD PTR ?iCount@@3HA ; iCount
  0050f	40		 inc	 eax

; 336  : 
; 337  : 	wsprintf(pMsg.testbuf, "%d", iCount);

  00510	50		 push	 eax
  00511	8d 8d 2c f8 ff
	ff		 lea	 ecx, DWORD PTR _pMsg$[ebp+4]
  00517	68 00 00 00 00	 push	 OFFSET ??_C@_02DPKJAMEF@?$CFd?$AA@
  0051c	51		 push	 ecx
  0051d	a3 00 00 00 00	 mov	 DWORD PTR ?iCount@@3HA, eax ; iCount
  00522	ff d6		 call	 esi

; 338  : 	LogAdd(LOG_BLACK, "%s", pMsg.testbuf);

  00524	8d 95 2c f8 ff
	ff		 lea	 edx, DWORD PTR _pMsg$[ebp+4]
  0052a	52		 push	 edx
  0052b	68 00 00 00 00	 push	 OFFSET ??_C@_02DKCKIIND@?$CFs?$AA@
  00530	6a 00		 push	 0
  00532	e8 00 00 00 00	 call	 ?LogAdd@@YAXW4eLogColor@@PADZZ ; LogAdd
  00537	83 c4 18	 add	 esp, 24			; 00000018H

; 339  : 	cDBSMng.Send((char *)&pMsg, size);

  0053a	68 d4 07 00 00	 push	 2004			; 000007d4H
  0053f	8d 85 28 f8 ff
	ff		 lea	 eax, DWORD PTR _pMsg$[ebp]
  00545	50		 push	 eax
  00546	b9 00 00 00 00	 mov	 ecx, OFFSET ?cDBSMng@@3VDBSockMng@@A ; cDBSMng
  0054b	e8 00 00 00 00	 call	 ?Send@DBSockMng@@QAEHPADH@Z ; DBSockMng::Send

; 340  : 	iCount++;

  00550	a1 00 00 00 00	 mov	 eax, DWORD PTR ?iCount@@3HA ; iCount
  00555	40		 inc	 eax

; 341  : 
; 342  : 	wsprintf(pMsg.testbuf, "%d", iCount);

  00556	50		 push	 eax
  00557	8d 8d 2c f8 ff
	ff		 lea	 ecx, DWORD PTR _pMsg$[ebp+4]
  0055d	68 00 00 00 00	 push	 OFFSET ??_C@_02DPKJAMEF@?$CFd?$AA@
  00562	51		 push	 ecx
  00563	a3 00 00 00 00	 mov	 DWORD PTR ?iCount@@3HA, eax ; iCount
  00568	ff d6		 call	 esi

; 343  : 	LogAdd(LOG_BLACK, "%s", pMsg.testbuf);

  0056a	8d 95 2c f8 ff
	ff		 lea	 edx, DWORD PTR _pMsg$[ebp+4]
  00570	52		 push	 edx
  00571	68 00 00 00 00	 push	 OFFSET ??_C@_02DKCKIIND@?$CFs?$AA@
  00576	6a 00		 push	 0
  00578	e8 00 00 00 00	 call	 ?LogAdd@@YAXW4eLogColor@@PADZZ ; LogAdd
  0057d	83 c4 18	 add	 esp, 24			; 00000018H

; 344  : 	cDBSMng.Send((char *)&pMsg, size);

  00580	68 d4 07 00 00	 push	 2004			; 000007d4H
  00585	8d 85 28 f8 ff
	ff		 lea	 eax, DWORD PTR _pMsg$[ebp]
  0058b	50		 push	 eax
  0058c	b9 00 00 00 00	 mov	 ecx, OFFSET ?cDBSMng@@3VDBSockMng@@A ; cDBSMng
  00591	e8 00 00 00 00	 call	 ?Send@DBSockMng@@QAEHPADH@Z ; DBSockMng::Send

; 345  : 	iCount++;

  00596	a1 00 00 00 00	 mov	 eax, DWORD PTR ?iCount@@3HA ; iCount
  0059b	40		 inc	 eax

; 346  : 
; 347  : 	wsprintf(pMsg.testbuf, "%d", iCount);

  0059c	50		 push	 eax
  0059d	8d 8d 2c f8 ff
	ff		 lea	 ecx, DWORD PTR _pMsg$[ebp+4]
  005a3	68 00 00 00 00	 push	 OFFSET ??_C@_02DPKJAMEF@?$CFd?$AA@
  005a8	51		 push	 ecx
  005a9	a3 00 00 00 00	 mov	 DWORD PTR ?iCount@@3HA, eax ; iCount
  005ae	ff d6		 call	 esi

; 348  : 	LogAdd(LOG_BLACK, "%s", pMsg.testbuf);

  005b0	8d 95 2c f8 ff
	ff		 lea	 edx, DWORD PTR _pMsg$[ebp+4]
  005b6	52		 push	 edx
  005b7	68 00 00 00 00	 push	 OFFSET ??_C@_02DKCKIIND@?$CFs?$AA@
  005bc	6a 00		 push	 0
  005be	e8 00 00 00 00	 call	 ?LogAdd@@YAXW4eLogColor@@PADZZ ; LogAdd
  005c3	83 c4 18	 add	 esp, 24			; 00000018H

; 349  : 	cDBSMng.Send((char *)&pMsg, size);

  005c6	68 d4 07 00 00	 push	 2004			; 000007d4H
  005cb	8d 85 28 f8 ff
	ff		 lea	 eax, DWORD PTR _pMsg$[ebp]
  005d1	50		 push	 eax
  005d2	b9 00 00 00 00	 mov	 ecx, OFFSET ?cDBSMng@@3VDBSockMng@@A ; cDBSMng
  005d7	e8 00 00 00 00	 call	 ?Send@DBSockMng@@QAEHPADH@Z ; DBSockMng::Send

; 350  : 	iCount++;

  005dc	a1 00 00 00 00	 mov	 eax, DWORD PTR ?iCount@@3HA ; iCount
  005e1	40		 inc	 eax

; 351  : 
; 352  : 	wsprintf(pMsg.testbuf, "%d", iCount);

  005e2	50		 push	 eax
  005e3	a3 00 00 00 00	 mov	 DWORD PTR ?iCount@@3HA, eax ; iCount
  005e8	68 00 00 00 00	 push	 OFFSET ??_C@_02DPKJAMEF@?$CFd?$AA@
  005ed	8d 8d 2c f8 ff
	ff		 lea	 ecx, DWORD PTR _pMsg$[ebp+4]
  005f3	51		 push	 ecx
  005f4	ff d6		 call	 esi

; 353  : 	LogAdd(LOG_BLACK, "%s", pMsg.testbuf);

  005f6	8d 95 2c f8 ff
	ff		 lea	 edx, DWORD PTR _pMsg$[ebp+4]
  005fc	52		 push	 edx
  005fd	68 00 00 00 00	 push	 OFFSET ??_C@_02DKCKIIND@?$CFs?$AA@
  00602	6a 00		 push	 0
  00604	e8 00 00 00 00	 call	 ?LogAdd@@YAXW4eLogColor@@PADZZ ; LogAdd
  00609	83 c4 18	 add	 esp, 24			; 00000018H

; 354  : 	cDBSMng.Send((char *)&pMsg, size);

  0060c	68 d4 07 00 00	 push	 2004			; 000007d4H
  00611	8d 85 28 f8 ff
	ff		 lea	 eax, DWORD PTR _pMsg$[ebp]
  00617	50		 push	 eax
  00618	b9 00 00 00 00	 mov	 ecx, OFFSET ?cDBSMng@@3VDBSockMng@@A ; cDBSMng
  0061d	e8 00 00 00 00	 call	 ?Send@DBSockMng@@QAEHPADH@Z ; DBSockMng::Send

; 355  : 	iCount++;

  00622	a1 00 00 00 00	 mov	 eax, DWORD PTR ?iCount@@3HA ; iCount
  00627	40		 inc	 eax

; 356  : 
; 357  : 	wsprintf(pMsg.testbuf, "%d", iCount);

  00628	50		 push	 eax
  00629	8d 8d 2c f8 ff
	ff		 lea	 ecx, DWORD PTR _pMsg$[ebp+4]
  0062f	68 00 00 00 00	 push	 OFFSET ??_C@_02DPKJAMEF@?$CFd?$AA@
  00634	51		 push	 ecx
  00635	a3 00 00 00 00	 mov	 DWORD PTR ?iCount@@3HA, eax ; iCount
  0063a	ff d6		 call	 esi

; 358  : 	LogAdd(LOG_BLACK, "%s", pMsg.testbuf);

  0063c	8d 95 2c f8 ff
	ff		 lea	 edx, DWORD PTR _pMsg$[ebp+4]
  00642	52		 push	 edx
  00643	68 00 00 00 00	 push	 OFFSET ??_C@_02DKCKIIND@?$CFs?$AA@
  00648	6a 00		 push	 0
  0064a	e8 00 00 00 00	 call	 ?LogAdd@@YAXW4eLogColor@@PADZZ ; LogAdd
  0064f	83 c4 18	 add	 esp, 24			; 00000018H

; 359  : 	cDBSMng.Send((char *)&pMsg, size);

  00652	68 d4 07 00 00	 push	 2004			; 000007d4H
  00657	8d 85 28 f8 ff
	ff		 lea	 eax, DWORD PTR _pMsg$[ebp]
  0065d	50		 push	 eax
  0065e	b9 00 00 00 00	 mov	 ecx, OFFSET ?cDBSMng@@3VDBSockMng@@A ; cDBSMng
  00663	e8 00 00 00 00	 call	 ?Send@DBSockMng@@QAEHPADH@Z ; DBSockMng::Send

; 360  : 	iCount++;

  00668	ff 05 00 00 00
	00		 inc	 DWORD PTR ?iCount@@3HA	; iCount

; 361  : 
; 362  : 	LogAdd(LOG_BLACK, "Test Data Send");

  0066e	68 00 00 00 00	 push	 OFFSET ??_C@_0P@GMPEKMII@Test?5Data?5Send?$AA@
  00673	6a 00		 push	 0
  00675	e8 00 00 00 00	 call	 ?LogAdd@@YAXW4eLogColor@@PADZZ ; LogAdd

; 363  : }

  0067a	8b 4d fc	 mov	 ecx, DWORD PTR __$ArrayPad$[ebp]
  0067d	83 c4 08	 add	 esp, 8
  00680	33 cd		 xor	 ecx, ebp
  00682	5e		 pop	 esi
  00683	e8 00 00 00 00	 call	 @__security_check_cookie@4
  00688	8b e5		 mov	 esp, ebp
  0068a	5d		 pop	 ebp
  0068b	c3		 ret	 0
?TestDSSend@@YAXXZ ENDP					; TestDSSend
_TEXT	ENDS
PUBLIC	__$ArrayPad$
PUBLIC	?DataServerLogin@@YAXXZ				; DataServerLogin
EXTRN	?szServerName@@3PADA:BYTE			; szServerName
EXTRN	?gGameServerCode@@3FA:WORD			; gGameServerCode
EXTRN	?GameServerPort@@3GA:WORD			; GameServerPort
; Function compile flags: /Ogtp
;	COMDAT ?DataServerLogin@@YAXXZ
_TEXT	SEGMENT
_pInfo$ = -64						; size = 58
__$ArrayPad$ = -4					; size = 4
?DataServerLogin@@YAXXZ PROC				; DataServerLogin, COMDAT

; 366  : {

  00000	55		 push	 ebp
  00001	8b ec		 mov	 ebp, esp
  00003	83 ec 40	 sub	 esp, 64			; 00000040H
  00006	a1 00 00 00 00	 mov	 eax, DWORD PTR ___security_cookie
  0000b	33 c5		 xor	 eax, ebp
  0000d	89 45 fc	 mov	 DWORD PTR __$ArrayPad$[ebp], eax

; 367  : 	SDHP_SERVERINFO pInfo;
; 368  : 
; 369  : 	pInfo.h.c =0xC1;
; 370  : 	pInfo.h.size = sizeof(SDHP_SERVERINFO);	// Size
; 371  : 	pInfo.h.headcode =0x00;
; 372  : 	pInfo.Port =(WORD)GameServerPort;

  00010	66 a1 00 00 00
	00		 mov	 ax, WORD PTR ?GameServerPort@@3GA ; GameServerPort

; 373  : 	pInfo.Type =1;
; 374  : 	pInfo.ServerCode =gGameServerCode;

  00016	66 8b 0d 00 00
	00 00		 mov	 cx, WORD PTR ?gGameServerCode@@3FA ; gGameServerCode
  0001d	66 89 45 c4	 mov	 WORD PTR _pInfo$[ebp+4], ax
  00021	c7 45 c0 c1 3a
	00 01		 mov	 DWORD PTR _pInfo$[ebp], 16792257 ; 01003ac1H
  00028	66 89 4d f8	 mov	 WORD PTR _pInfo$[ebp+56], cx

; 375  : 	strcpy( (char*)&pInfo.ServerName[0], (const char*)&szServerName[0] );

  0002c	33 c0		 xor	 eax, eax
  0002e	8b ff		 npad	 2
$LL3@DataServer:
  00030	8a 88 00 00 00
	00		 mov	 cl, BYTE PTR ?szServerName@@3PADA[eax]
  00036	88 4c 05 c6	 mov	 BYTE PTR _pInfo$[ebp+eax+6], cl
  0003a	40		 inc	 eax
  0003b	84 c9		 test	 cl, cl
  0003d	75 f1		 jne	 SHORT $LL3@DataServer

; 376  : 
; 377  : 	cDBSMng.Send((char*)&pInfo , pInfo.h.size  );	

  0003f	0f b6 55 c1	 movzx	 edx, BYTE PTR _pInfo$[ebp+1]
  00043	52		 push	 edx
  00044	8d 45 c0	 lea	 eax, DWORD PTR _pInfo$[ebp]
  00047	50		 push	 eax
  00048	b9 00 00 00 00	 mov	 ecx, OFFSET ?cDBSMng@@3VDBSockMng@@A ; cDBSMng
  0004d	e8 00 00 00 00	 call	 ?Send@DBSockMng@@QAEHPADH@Z ; DBSockMng::Send

; 378  : }

  00052	8b 4d fc	 mov	 ecx, DWORD PTR __$ArrayPad$[ebp]
  00055	33 cd		 xor	 ecx, ebp
  00057	e8 00 00 00 00	 call	 @__security_check_cookie@4
  0005c	8b e5		 mov	 esp, ebp
  0005e	5d		 pop	 ebp
  0005f	c3		 ret	 0
?DataServerLogin@@YAXXZ ENDP				; DataServerLogin
_TEXT	ENDS
PUBLIC	?DataServerLoginResult@@YAXPAUSDHP_RESULT@@@Z	; DataServerLoginResult
EXTRN	__imp__SendMessageA@16:PROC
EXTRN	?DataServerConnected@@3HA:DWORD			; DataServerConnected
EXTRN	?gServerReady@@3HA:DWORD			; gServerReady
EXTRN	?ghWnd@@3PAUHWND__@@A:DWORD			; ghWnd
EXTRN	?MsgBox@@YAXPADZZ:PROC				; MsgBox
EXTRN	?Get@CMsg@@QAEPADH@Z:PROC			; CMsg::Get
EXTRN	?lMsg@@3VCMsg@@A:BYTE				; lMsg
; Function compile flags: /Ogtp
;	COMDAT ?DataServerLoginResult@@YAXPAUSDHP_RESULT@@@Z
_TEXT	SEGMENT
_lpMsg$ = 8						; size = 4
?DataServerLoginResult@@YAXPAUSDHP_RESULT@@@Z PROC	; DataServerLoginResult, COMDAT

; 381  : {

  00000	55		 push	 ebp
  00001	8b ec		 mov	 ebp, esp

; 382  : 	if (lpMsg->Result == false )

  00003	8b 45 08	 mov	 eax, DWORD PTR _lpMsg$[ebp]
  00006	80 78 03 00	 cmp	 BYTE PTR [eax+3], 0
  0000a	75 1a		 jne	 SHORT $LN1@DataServer@2

; 383  : 	{
; 384  : 		MsgBox(lMsg.Get(MSGGET(1, 210)));	// Authentication error from authentication server

  0000c	68 d2 01 00 00	 push	 466			; 000001d2H
  00011	b9 00 00 00 00	 mov	 ecx, OFFSET ?lMsg@@3VCMsg@@A ; lMsg
  00016	e8 00 00 00 00	 call	 ?Get@CMsg@@QAEPADH@Z	; CMsg::Get
  0001b	50		 push	 eax
  0001c	e8 00 00 00 00	 call	 ?MsgBox@@YAXPADZZ	; MsgBox
  00021	83 c4 04	 add	 esp, 4

; 391  : 	
; 392  : }

  00024	5d		 pop	 ebp
  00025	c3		 ret	 0
$LN1@DataServer@2:

; 385  : 		return;
; 386  : 	}
; 387  : 	
; 388  : 	DataServerConnected = TRUE;
; 389  : 	gServerReady++;
; 390  : 	SendMessage(ghWnd, WM_START_SERVER, 0, 0); // Review the Message WM_USER +5

  00026	8b 0d 00 00 00
	00		 mov	 ecx, DWORD PTR ?ghWnd@@3PAUHWND__@@A ; ghWnd
  0002c	6a 00		 push	 0
  0002e	6a 00		 push	 0
  00030	b8 01 00 00 00	 mov	 eax, 1
  00035	01 05 00 00 00
	00		 add	 DWORD PTR ?gServerReady@@3HA, eax ; gServerReady
  0003b	68 05 04 00 00	 push	 1029			; 00000405H
  00040	51		 push	 ecx
  00041	a3 00 00 00 00	 mov	 DWORD PTR ?DataServerConnected@@3HA, eax ; DataServerConnected
  00046	ff 15 00 00 00
	00		 call	 DWORD PTR __imp__SendMessageA@16

; 391  : 	
; 392  : }

  0004c	5d		 pop	 ebp
  0004d	c3		 ret	 0
?DataServerLoginResult@@YAXPAUSDHP_RESULT@@@Z ENDP	; DataServerLoginResult
_TEXT	ENDS
PUBLIC	__$ArrayPad$
PUBLIC	?JGPGetCharList@@YAXPAE@Z			; JGPGetCharList
EXTRN	?DataSend@@YAHHPAEK@Z:PROC			; DataSend
EXTRN	?LevelSmallConvert@@YAEH@Z:PROC			; LevelSmallConvert
EXTRN	?CloseClient@@YAXH@Z:PROC			; CloseClient
EXTRN	?gObj@@3PAUOBJECTSTRUCT@@A:BYTE			; gObj
EXTRN	?gObjIsAccontConnect@@YAHHPAD@Z:PROC		; gObjIsAccontConnect
EXTRN	_memset:PROC
; Function compile flags: /Ogtp
;	COMDAT ?JGPGetCharList@@YAXPAE@Z
_TEXT	SEGMENT
$T160316 = -388						; size = 4
_aIndex$ = -384						; size = 4
tv2865 = -380						; size = 4
tv2762 = -376						; size = 4
tv2853 = -372						; size = 4
_n$157950 = -368					; size = 4
_lOfs$ = -364						; size = 4
_lsOfs$ = -360						; size = 4
tv3267 = -356						; size = 4
tv2859 = -356						; size = 4
_pCLCount$ = -352					; size = 7
tv2877 = -344						; size = 4
tv2840 = -344						; size = 4
_index$ = -337						; size = 1
_TempInventory$ = -336					; size = 24
_pCList$ = -312						; size = 34
_levelindex$158140 = -276				; size = 4
_levelindex$158055 = -276				; size = 4
_levelindex$157997 = -276				; size = 4
_sendbuf$ = -272					; size = 256
_szId$ = -16						; size = 11
__$ArrayPad$ = -4					; size = 4
_lpRecv$ = 8						; size = 4
?JGPGetCharList@@YAXPAE@Z PROC				; JGPGetCharList, COMDAT

; 424  : {

  00000	55		 push	 ebp
  00001	8b ec		 mov	 ebp, esp
  00003	81 ec 84 01 00
	00		 sub	 esp, 388		; 00000184H
  00009	a1 00 00 00 00	 mov	 eax, DWORD PTR ___security_cookie
  0000e	33 c5		 xor	 eax, ebp
  00010	89 45 fc	 mov	 DWORD PTR __$ArrayPad$[ebp], eax
  00013	53		 push	 ebx
  00014	8b 5d 08	 mov	 ebx, DWORD PTR _lpRecv$[ebp]

; 425  : 	SDHP_CHARLISTCOUNT * lpCount = (SDHP_CHARLISTCOUNT *)lpRecv;
; 426  : 	SDHP_CHARLIST * lpCL;
; 427  : 	char szId[MAX_ACCOUNT_LEN + 1];
; 428  : 	BYTE sendbuf[256];
; 429  : 	int lOfs = 0;
; 430  : 	int lsOfs = sizeof(SDHP_CHARLISTCOUNT);
; 431  : 	int aIndex = lpCount->Number;
; 432  : 	BYTE index;
; 433  : 	PMSG_CHARLISTCOUNT pCLCount;	// Packet Char List Count
; 434  : 	PMSG_CHARLIST pCList;
; 435  : 	WORD TempInventory[12];
; 436  : 
; 437  : 	pCLCount.h.c = 0xC1;
; 438  : 	pCLCount.h.headcode = 0xF3;
; 439  : 	pCLCount.subcode = 0x00;
; 440  : 	pCLCount.Count = lpCount->Count;
; 441  : 
; 442  : 	szId[MAX_ACCOUNT_LEN] = 0;
; 443  : 	memcpy(szId, lpCount->AccountId, MAX_ACCOUNT_LEN);

  00017	8b 4b 0d	 mov	 ecx, DWORD PTR [ebx+13]
  0001a	8a 43 06	 mov	 al, BYTE PTR [ebx+6]
  0001d	8b 53 11	 mov	 edx, DWORD PTR [ebx+17]
  00020	56		 push	 esi
  00021	0f bf 73 04	 movsx	 esi, WORD PTR [ebx+4]
  00025	89 4d f0	 mov	 DWORD PTR _szId$[ebp], ecx

; 444  : 
; 445  : 	if (::gObjIsAccontConnect(aIndex, szId) == FALSE)

  00028	8d 4d f0	 lea	 ecx, DWORD PTR _szId$[ebp]
  0002b	88 85 a6 fe ff
	ff		 mov	 BYTE PTR _pCLCount$[ebp+6], al
  00031	66 8b 43 15	 mov	 ax, WORD PTR [ebx+21]
  00035	51		 push	 ecx
  00036	56		 push	 esi
  00037	c7 85 98 fe ff
	ff 1c 00 00 00	 mov	 DWORD PTR _lsOfs$[ebp], 28 ; 0000001cH
  00041	89 b5 80 fe ff
	ff		 mov	 DWORD PTR _aIndex$[ebp], esi
  00047	c6 85 a0 fe ff
	ff c1		 mov	 BYTE PTR _pCLCount$[ebp], 193 ; 000000c1H
  0004e	66 c7 85 a2 fe
	ff ff f3 00	 mov	 WORD PTR _pCLCount$[ebp+2], 243 ; 000000f3H
  00057	c6 45 fa 00	 mov	 BYTE PTR _szId$[ebp+10], 0
  0005b	89 55 f4	 mov	 DWORD PTR _szId$[ebp+4], edx
  0005e	66 89 45 f8	 mov	 WORD PTR _szId$[ebp+8], ax
  00062	e8 00 00 00 00	 call	 ?gObjIsAccontConnect@@YAHHPAD@Z ; gObjIsAccontConnect
  00067	83 c4 08	 add	 esp, 8
  0006a	85 c0		 test	 eax, eax
  0006c	75 42		 jne	 SHORT $LN132@JGPGetChar

; 446  : 	{
; 447  : 		LogAdd(LOG_RED, lMsg.Get(MSGGET(1, 165)), gObj[aIndex].AccountID, szId);

  0006e	8b c6		 mov	 eax, esi
  00070	69 c0 64 15 00
	00		 imul	 eax, 5476		; 00001564H
  00076	8d 55 f0	 lea	 edx, DWORD PTR _szId$[ebp]
  00079	52		 push	 edx
  0007a	05 64 00 00 00	 add	 eax, OFFSET ?gObj@@3PAUOBJECTSTRUCT@@A+100
  0007f	50		 push	 eax
  00080	68 a5 01 00 00	 push	 421			; 000001a5H
  00085	b9 00 00 00 00	 mov	 ecx, OFFSET ?lMsg@@3VCMsg@@A ; lMsg
  0008a	e8 00 00 00 00	 call	 ?Get@CMsg@@QAEPADH@Z	; CMsg::Get
  0008f	50		 push	 eax
  00090	6a 01		 push	 1
  00092	e8 00 00 00 00	 call	 ?LogAdd@@YAXW4eLogColor@@PADZZ ; LogAdd

; 448  : 		CloseClient(aIndex);

  00097	56		 push	 esi
  00098	e8 00 00 00 00	 call	 ?CloseClient@@YAXH@Z	; CloseClient
  0009d	83 c4 14	 add	 esp, 20			; 00000014H
  000a0	5e		 pop	 esi
  000a1	5b		 pop	 ebx

; 1090 : }

  000a2	8b 4d fc	 mov	 ecx, DWORD PTR __$ArrayPad$[ebp]
  000a5	33 cd		 xor	 ecx, ebp
  000a7	e8 00 00 00 00	 call	 @__security_check_cookie@4
  000ac	8b e5		 mov	 esp, ebp
  000ae	5d		 pop	 ebp
  000af	c3		 ret	 0
$LN132@JGPGetChar:

; 449  : 
; 450  : 		return;
; 451  : 	}
; 452  : 
; 453  : 	gObj[aIndex].Magumsa = lpCount->Magumsa;

  000b0	8a 43 0c	 mov	 al, BYTE PTR [ebx+12]
  000b3	8b ce		 mov	 ecx, esi
  000b5	69 c9 64 15 00
	00		 imul	 ecx, 5476		; 00001564H

; 454  : 	pCLCount.MaxClass = gObj[aIndex].Magumsa + 2;
; 455  : 	pCLCount.MoveCnt = lpCount->MoveCnt;
; 456  : 
; 457  : 	memset(sendbuf, 0, sizeof(sendbuf));

  000bb	68 00 01 00 00	 push	 256			; 00000100H
  000c0	88 81 2c 00 00
	00		 mov	 BYTE PTR ?gObj@@3PAUOBJECTSTRUCT@@A[ecx+44], al
  000c6	89 8d 88 fe ff
	ff		 mov	 DWORD PTR tv2762[ebp], ecx
  000cc	8a 4b 18	 mov	 cl, BYTE PTR [ebx+24]
  000cf	8d 95 f0 fe ff
	ff		 lea	 edx, DWORD PTR _sendbuf$[ebp]
  000d5	04 02		 add	 al, 2
  000d7	6a 00		 push	 0
  000d9	52		 push	 edx
  000da	88 85 a4 fe ff
	ff		 mov	 BYTE PTR _pCLCount$[ebp+4], al
  000e0	88 8d a5 fe ff
	ff		 mov	 BYTE PTR _pCLCount$[ebp+5], cl
  000e6	e8 00 00 00 00	 call	 _memset
  000eb	83 c4 0c	 add	 esp, 12			; 0000000cH

; 458  : 	lOfs += sizeof(PMSG_CHARLISTCOUNT);
; 459  : 
; 460  : 	if (pCLCount.Count > 0)

  000ee	80 bd a6 fe ff
	ff 00		 cmp	 BYTE PTR _pCLCount$[ebp+6], 0
  000f5	c7 85 94 fe ff
	ff 07 00 00 00	 mov	 DWORD PTR _lOfs$[ebp], 7
  000ff	0f 86 92 11 00
	00		 jbe	 $LN128@JGPGetChar

; 461  : 	{
; 462  : 		for (int n = 0; n < pCLCount.Count; n++)

  00105	0f b6 85 a6 fe
	ff ff		 movzx	 eax, BYTE PTR _pCLCount$[ebp+6]
  0010c	c7 85 90 fe ff
	ff 00 00 00 00	 mov	 DWORD PTR _n$157950[ebp], 0
  00116	89 85 7c fe ff
	ff		 mov	 DWORD PTR $T160316[ebp], eax
  0011c	85 c0		 test	 eax, eax
  0011e	0f 8e 73 11 00
	00		 jle	 $LN128@JGPGetChar
  00124	57		 push	 edi
  00125	eb 09 8d a4 24
	00 00 00 00 8b
	ff		 npad	 11
$LL130@JGPGetChar:

; 463  : 		{
; 464  : 			memset(&pCList, 0, sizeof(pCList));
; 465  : 			lpCL = (SDHP_CHARLIST *)&lpRecv[lsOfs];
; 466  : 			pCList.Index = lpCL->Index;

  00130	8b b5 98 fe ff
	ff		 mov	 esi, DWORD PTR _lsOfs$[ebp]

; 467  : 			pCList.Level = lpCL->Level;

  00136	66 8b 4c 33 0c	 mov	 cx, WORD PTR [ebx+esi+12]

; 468  : 			pCList.CtlCode = lpCL->CtlCode;

  0013b	8a 54 33 0f	 mov	 dl, BYTE PTR [ebx+esi+15]
  0013f	33 c0		 xor	 eax, eax
  00141	89 85 d4 fe ff
	ff		 mov	 DWORD PTR _pCList$[ebp+12], eax
  00147	89 85 c8 fe ff
	ff		 mov	 DWORD PTR _pCList$[ebp], eax
  0014d	66 89 85 e8 fe
	ff ff		 mov	 WORD PTR _pCList$[ebp+32], ax
  00154	89 85 cc fe ff
	ff		 mov	 DWORD PTR _pCList$[ebp+4], eax
  0015a	89 85 d0 fe ff
	ff		 mov	 DWORD PTR _pCList$[ebp+8], eax
  00160	89 85 d8 fe ff
	ff		 mov	 DWORD PTR _pCList$[ebp+16], eax
  00166	89 85 dc fe ff
	ff		 mov	 DWORD PTR _pCList$[ebp+20], eax
  0016c	89 85 e0 fe ff
	ff		 mov	 DWORD PTR _pCList$[ebp+24], eax
  00172	89 85 e4 fe ff
	ff		 mov	 DWORD PTR _pCList$[ebp+28], eax
  00178	0f b6 04 33	 movzx	 eax, BYTE PTR [ebx+esi]
  0017c	88 85 c8 fe ff
	ff		 mov	 BYTE PTR _pCList$[ebp], al

; 469  : 			pCList.btGuildStatus = lpCL->btGuildStatus;

  00182	0f b6 44 33 41	 movzx	 eax, BYTE PTR [ebx+esi+65]
  00187	66 89 8d d4 fe
	ff ff		 mov	 WORD PTR _pCList$[ebp+12], cx

; 470  : 
; 471  : 			if (gObj[aIndex].m_cAccountItemBlock != 0)

  0018e	8b 8d 88 fe ff
	ff		 mov	 ecx, DWORD PTR tv2762[ebp]
  00194	80 b9 b0 01 00
	00 00		 cmp	 BYTE PTR ?gObj@@3PAUOBJECTSTRUCT@@A[ecx+432], 0
  0019b	88 95 d6 fe ff
	ff		 mov	 BYTE PTR _pCList$[ebp+14], dl
  001a1	88 85 e9 fe ff
	ff		 mov	 BYTE PTR _pCList$[ebp+33], al
  001a7	74 07		 je	 SHORT $LN127@JGPGetChar

; 472  : 				pCList.CtlCode |= 0x10;	// Set Block Item

  001a9	80 8d d6 fe ff
	ff 10		 or	 BYTE PTR _pCList$[ebp+14], 16 ; 00000010H
$LN127@JGPGetChar:

; 473  : 
; 474  : 			memcpy(pCList.Name, lpCL->Name, MAX_ACCOUNT_LEN);

  001b0	8b 44 33 05	 mov	 eax, DWORD PTR [ebx+esi+5]
  001b4	8b 54 33 01	 mov	 edx, DWORD PTR [ebx+esi+1]
  001b8	66 8b 4c 33 09	 mov	 cx, WORD PTR [ebx+esi+9]
  001bd	89 95 c9 fe ff
	ff		 mov	 DWORD PTR _pCList$[ebp+1], edx
  001c3	89 85 cd fe ff
	ff		 mov	 DWORD PTR _pCList$[ebp+5], eax

; 475  : 			pCList.CharSet[CS_CLASS] = CS_GET_CLASS(lpCL->Class);
; 476  : 			int changeup = CS_GET_CHANGEUP(lpCL->Class);

  001c9	8a 44 33 0e	 mov	 al, BYTE PTR [ebx+esi+14]

; 477  : 			pCList.CharSet[CS_CLASS] |= CS_SET_CHANGEUP(changeup);

  001cd	8a d0		 mov	 dl, al
  001cf	80 e2 01	 and	 dl, 1
  001d2	02 d2		 add	 dl, dl
  001d4	02 d2		 add	 dl, dl
  001d6	02 d2		 add	 dl, dl
  001d8	24 f0		 and	 al, 240			; 000000f0H
  001da	0a d0		 or	 dl, al

; 478  : 			pCList.CharSet[9] = 0;
; 479  : 
; 480  : 			if (lpCL->DbVersion == 0)

  001dc	8a 44 33 40	 mov	 al, BYTE PTR [ebx+esi+64]
  001e0	02 d2		 add	 dl, dl
  001e2	66 89 8d d1 fe
	ff ff		 mov	 WORD PTR _pCList$[ebp+9], cx
  001e9	88 95 d7 fe ff
	ff		 mov	 BYTE PTR _pCList$[ebp+15], dl
  001ef	c6 85 e0 fe ff
	ff 00		 mov	 BYTE PTR _pCList$[ebp+24], 0
  001f6	84 c0		 test	 al, al
  001f8	0f 85 09 03 00
	00		 jne	 $LN126@JGPGetChar

; 481  : 			{
; 482  : 				if (lpCL->dbInventory[0] != (BYTE)-1)

  001fe	80 7c 33 10 ff	 cmp	 BYTE PTR [ebx+esi+16], 255 ; 000000ffH
  00203	74 3d		 je	 SHORT $LN125@JGPGetChar

; 483  : 				{
; 484  : 					WORD wItemCode = lpCL->dbInventory[0] / MAX_TYPE_ITEMS * MAX_SUBTYPE_ITEMS + lpCL->dbInventory[0] % MAX_TYPE_ITEMS;

  00205	8a 44 33 10	 mov	 al, BYTE PTR [ebx+esi+16]
  00209	8a c8		 mov	 cl, al
  0020b	c0 e9 04	 shr	 cl, 4
  0020e	0f b6 d1	 movzx	 edx, cl
  00211	0f b6 c0	 movzx	 eax, al
  00214	b9 00 02 00 00	 mov	 ecx, 512		; 00000200H
  00219	66 0f af d1	 imul	 dx, cx
  0021d	25 0f 00 00 80	 and	 eax, -2147483633	; 8000000fH
  00222	79 05		 jns	 SHORT $LN158@JGPGetChar
  00224	48		 dec	 eax
  00225	83 c8 f0	 or	 eax, -16		; fffffff0H
  00228	40		 inc	 eax
$LN158@JGPGetChar:
  00229	66 03 d0	 add	 dx, ax
  0022c	0f b7 c2	 movzx	 eax, dx

; 485  : 					pCList.CharSet[1] = wItemCode;

  0022f	88 85 d8 fe ff
	ff		 mov	 BYTE PTR _pCList$[ebp+16], al

; 486  : 					pCList.CharSet[12] |= DBI_GET_TYPE(wItemCode);

  00235	c1 e8 04	 shr	 eax, 4
  00238	24 f0		 and	 al, 240			; 000000f0H
  0023a	08 85 e3 fe ff
	ff		 or	 BYTE PTR _pCList$[ebp+27], al

; 487  : 				}
; 488  : 				else

  00240	eb 0e		 jmp	 SHORT $LN124@JGPGetChar
$LN125@JGPGetChar:

; 489  : 				{
; 490  : 					pCList.CharSet[1] = -1;
; 491  : 					pCList.CharSet[12] |= 0xF0;

  00242	80 8d e3 fe ff
	ff f0		 or	 BYTE PTR _pCList$[ebp+27], 240 ; 000000f0H
  00249	c6 85 d8 fe ff
	ff ff		 mov	 BYTE PTR _pCList$[ebp+16], 255 ; 000000ffH
$LN124@JGPGetChar:

; 492  : 				}
; 493  : 
; 494  : 				if (lpCL->dbInventory[2] != (BYTE)-1)

  00250	80 7c 33 12 ff	 cmp	 BYTE PTR [ebx+esi+18], 255 ; 000000ffH
  00255	74 3d		 je	 SHORT $LN123@JGPGetChar

; 495  : 				{
; 496  : 					WORD wItemCode = lpCL->dbInventory[2] / MAX_TYPE_ITEMS * MAX_SUBTYPE_ITEMS + lpCL->dbInventory[2] % MAX_TYPE_ITEMS;

  00257	8a 44 33 12	 mov	 al, BYTE PTR [ebx+esi+18]
  0025b	8a c8		 mov	 cl, al
  0025d	c0 e9 04	 shr	 cl, 4
  00260	0f b6 d1	 movzx	 edx, cl
  00263	0f b6 c0	 movzx	 eax, al
  00266	b9 00 02 00 00	 mov	 ecx, 512		; 00000200H
  0026b	66 0f af d1	 imul	 dx, cx
  0026f	25 0f 00 00 80	 and	 eax, -2147483633	; 8000000fH
  00274	79 05		 jns	 SHORT $LN159@JGPGetChar
  00276	48		 dec	 eax
  00277	83 c8 f0	 or	 eax, -16		; fffffff0H
  0027a	40		 inc	 eax
$LN159@JGPGetChar:
  0027b	66 03 d0	 add	 dx, ax
  0027e	0f b7 c2	 movzx	 eax, dx

; 497  : 					pCList.CharSet[2] = wItemCode;

  00281	88 85 d9 fe ff
	ff		 mov	 BYTE PTR _pCList$[ebp+17], al

; 498  : 					pCList.CharSet[13] |= DBI_GET_TYPE(wItemCode);

  00287	c1 e8 04	 shr	 eax, 4
  0028a	24 f0		 and	 al, 240			; 000000f0H
  0028c	08 85 e4 fe ff
	ff		 or	 BYTE PTR _pCList$[ebp+28], al

; 499  : 				}
; 500  : 				else

  00292	eb 0e		 jmp	 SHORT $LN122@JGPGetChar
$LN123@JGPGetChar:

; 501  : 				{
; 502  : 					pCList.CharSet[2] = -1;
; 503  : 					pCList.CharSet[13] |= 0xF0;

  00294	80 8d e4 fe ff
	ff f0		 or	 BYTE PTR _pCList$[ebp+28], 240 ; 000000f0H
  0029b	c6 85 d9 fe ff
	ff ff		 mov	 BYTE PTR _pCList$[ebp+17], 255 ; 000000ffH
$LN122@JGPGetChar:

; 504  : 				}
; 505  : 
; 506  : 				if (lpCL->dbInventory[4] == (BYTE)-1)

  002a2	8d 44 33 14	 lea	 eax, DWORD PTR [ebx+esi+20]
  002a6	89 85 a8 fe ff
	ff		 mov	 DWORD PTR tv2840[ebp], eax
  002ac	8a 00		 mov	 al, BYTE PTR [eax]
  002ae	3c ff		 cmp	 al, 255			; 000000ffH
  002b0	75 04		 jne	 SHORT $LN121@JGPGetChar

; 507  : 				{
; 508  : 					index = 0xF0;

  002b2	b0 f0		 mov	 al, 240			; 000000f0H

; 509  : 				}
; 510  : 				else

  002b4	eb 05		 jmp	 SHORT $LN120@JGPGetChar
$LN121@JGPGetChar:

; 511  : 				{
; 512  : 					index = (lpCL->dbInventory[4] & 0x0F) * MAX_TYPE_ITEMS;

  002b6	24 0f		 and	 al, 15			; 0000000fH
  002b8	c0 e0 04	 shl	 al, 4
$LN120@JGPGetChar:

; 513  : 				}
; 514  : 
; 515  : 				if (lpCL->dbInventory[6] == (BYTE)-1)

  002bb	8a 4c 33 16	 mov	 cl, BYTE PTR [ebx+esi+22]
  002bf	80 f9 ff	 cmp	 cl, 255			; 000000ffH
  002c2	75 04		 jne	 SHORT $LN119@JGPGetChar

; 516  : 				{
; 517  : 					index |= 0x0F;

  002c4	0c 0f		 or	 al, 15			; 0000000fH

; 518  : 				}
; 519  : 				else

  002c6	eb 05		 jmp	 SHORT $LN118@JGPGetChar
$LN119@JGPGetChar:

; 520  : 				{
; 521  : 					index |= (lpCL->dbInventory[6] & 0x0F);

  002c8	80 e1 0f	 and	 cl, 15			; 0000000fH
  002cb	0a c1		 or	 al, cl
$LN118@JGPGetChar:

; 522  : 				}
; 523  : 
; 524  : 				pCList.CharSet[3] = index;

  002cd	88 85 da fe ff
	ff		 mov	 BYTE PTR _pCList$[ebp+18], al

; 525  : 
; 526  : 				if (lpCL->dbInventory[8] == (BYTE)-1)

  002d3	8d 44 33 18	 lea	 eax, DWORD PTR [ebx+esi+24]
  002d7	89 85 8c fe ff
	ff		 mov	 DWORD PTR tv2853[ebp], eax
  002dd	8a 00		 mov	 al, BYTE PTR [eax]
  002df	3c ff		 cmp	 al, 255			; 000000ffH
  002e1	75 04		 jne	 SHORT $LN117@JGPGetChar

; 527  : 				{
; 528  : 					index = 0xF0;

  002e3	b0 f0		 mov	 al, 240			; 000000f0H

; 529  : 				}
; 530  : 				else

  002e5	eb 05		 jmp	 SHORT $LN116@JGPGetChar
$LN117@JGPGetChar:

; 531  : 				{
; 532  : 					index = (lpCL->dbInventory[8] & 0x0F) * MAX_TYPE_ITEMS;

  002e7	24 0f		 and	 al, 15			; 0000000fH
  002e9	c0 e0 04	 shl	 al, 4
$LN116@JGPGetChar:

; 533  : 				}
; 534  : 
; 535  : 				if (lpCL->dbInventory[10] == (BYTE)-1)

  002ec	8d 4c 33 1a	 lea	 ecx, DWORD PTR [ebx+esi+26]
  002f0	89 8d 9c fe ff
	ff		 mov	 DWORD PTR tv2859[ebp], ecx
  002f6	8a 09		 mov	 cl, BYTE PTR [ecx]
  002f8	80 f9 ff	 cmp	 cl, 255			; 000000ffH
  002fb	75 04		 jne	 SHORT $LN115@JGPGetChar

; 536  : 				{
; 537  : 					index |= 0x0F;

  002fd	0c 0f		 or	 al, 15			; 0000000fH

; 538  : 				}
; 539  : 				else

  002ff	eb 05		 jmp	 SHORT $LN114@JGPGetChar
$LN115@JGPGetChar:

; 540  : 				{
; 541  : 					index |= (lpCL->dbInventory[10] & 0x0F);

  00301	80 e1 0f	 and	 cl, 15			; 0000000fH
  00304	0a c1		 or	 al, cl
$LN114@JGPGetChar:

; 542  : 				}
; 543  : 
; 544  : 				pCList.CharSet[4] = index;
; 545  : 
; 546  : 				if (lpCL->dbInventory[12] == (BYTE)-1)

  00306	8a 54 33 1c	 mov	 dl, BYTE PTR [ebx+esi+28]
  0030a	88 85 db fe ff
	ff		 mov	 BYTE PTR _pCList$[ebp+19], al
  00310	8d 44 33 1c	 lea	 eax, DWORD PTR [ebx+esi+28]
  00314	89 85 84 fe ff
	ff		 mov	 DWORD PTR tv2865[ebp], eax
  0031a	80 fa ff	 cmp	 dl, 255			; 000000ffH
  0031d	75 04		 jne	 SHORT $LN113@JGPGetChar

; 547  : 				{
; 548  : 					index = 0xF0;

  0031f	b0 f0		 mov	 al, 240			; 000000f0H

; 549  : 				}
; 550  : 				else

  00321	eb 07		 jmp	 SHORT $LN112@JGPGetChar
$LN113@JGPGetChar:

; 551  : 				{
; 552  : 					index = (lpCL->dbInventory[12] & 0x0F) * MAX_TYPE_ITEMS;

  00323	8a c2		 mov	 al, dl
  00325	24 0f		 and	 al, 15			; 0000000fH
  00327	c0 e0 04	 shl	 al, 4
$LN112@JGPGetChar:

; 553  : 				}
; 554  : 
; 555  : 				if (lpCL->dbInventory[14] == (BYTE)-1)

  0032a	8a 4c 33 1e	 mov	 cl, BYTE PTR [ebx+esi+30]
  0032e	8d 7c 33 1e	 lea	 edi, DWORD PTR [ebx+esi+30]
  00332	80 f9 ff	 cmp	 cl, 255			; 000000ffH
  00335	75 04		 jne	 SHORT $LN111@JGPGetChar

; 556  : 				{
; 557  : 					index |= 0x0C;

  00337	0c 0c		 or	 al, 12			; 0000000cH

; 558  : 				}
; 559  : 				else

  00339	eb 09		 jmp	 SHORT $LN110@JGPGetChar
$LN111@JGPGetChar:

; 560  : 				{
; 561  : 					index |= ((lpCL->dbInventory[14] & 0x03) * 4);

  0033b	80 e1 03	 and	 cl, 3
  0033e	02 c9		 add	 cl, cl
  00340	02 c9		 add	 cl, cl
  00342	0a c1		 or	 al, cl
$LN110@JGPGetChar:

; 562  : 				}
; 563  : 
; 564  : 				if (lpCL->dbInventory[16] == (BYTE)-1)

  00344	8a 4c 33 20	 mov	 cl, BYTE PTR [ebx+esi+32]
  00348	80 f9 ff	 cmp	 cl, 255			; 000000ffH
  0034b	75 04		 jne	 SHORT $LN109@JGPGetChar

; 565  : 				{
; 566  : 					index |= 0x03;

  0034d	0c 03		 or	 al, 3

; 567  : 				}
; 568  : 				else

  0034f	eb 05		 jmp	 SHORT $LN108@JGPGetChar
$LN109@JGPGetChar:

; 569  : 				{
; 570  : 					index |= (lpCL->dbInventory[16] & 0x03);

  00351	80 e1 03	 and	 cl, 3
  00354	0a c1		 or	 al, cl
$LN108@JGPGetChar:

; 571  : 				}
; 572  : 
; 573  : 				pCList.CharSet[5] = index;
; 574  : 
; 575  : 				if (lpCL->dbInventory[4] == (BYTE)-1)

  00356	8b 8d a8 fe ff
	ff		 mov	 ecx, DWORD PTR tv2840[ebp]
  0035c	80 39 ff	 cmp	 BYTE PTR [ecx], 255	; 000000ffH
  0035f	88 85 dc fe ff
	ff		 mov	 BYTE PTR _pCList$[ebp+20], al
  00365	75 07		 jne	 SHORT $LN145@JGPGetChar

; 576  : 					pCList.CharSet[9] = 0x80;

  00367	c6 85 e0 fe ff
	ff 80		 mov	 BYTE PTR _pCList$[ebp+24], 128 ; 00000080H
$LN145@JGPGetChar:

; 577  : 
; 578  : 				if (lpCL->dbInventory[6] == (BYTE)-1)

  0036e	80 7c 33 16 ff	 cmp	 BYTE PTR [ebx+esi+22], 255 ; 000000ffH
  00373	75 07		 jne	 SHORT $LN146@JGPGetChar

; 579  : 					pCList.CharSet[9] |= 0x40;

  00375	80 8d e0 fe ff
	ff 40		 or	 BYTE PTR _pCList$[ebp+24], 64 ; 00000040H
$LN146@JGPGetChar:

; 580  : 
; 581  : 				if (lpCL->dbInventory[8] == (BYTE)-1)

  0037c	8b 85 8c fe ff
	ff		 mov	 eax, DWORD PTR tv2853[ebp]
  00382	80 38 ff	 cmp	 BYTE PTR [eax], 255	; 000000ffH
  00385	75 07		 jne	 SHORT $LN152@JGPGetChar

; 582  : 					pCList.CharSet[9] |= 0x20;

  00387	80 8d e0 fe ff
	ff 20		 or	 BYTE PTR _pCList$[ebp+24], 32 ; 00000020H
$LN152@JGPGetChar:

; 583  : 
; 584  : 				if (lpCL->dbInventory[10] == (BYTE)-1)

  0038e	8b 8d 9c fe ff
	ff		 mov	 ecx, DWORD PTR tv2859[ebp]
  00394	80 39 ff	 cmp	 BYTE PTR [ecx], 255	; 000000ffH
  00397	75 07		 jne	 SHORT $LN154@JGPGetChar

; 585  : 					pCList.CharSet[9] |= 0x10;

  00399	80 8d e0 fe ff
	ff 10		 or	 BYTE PTR _pCList$[ebp+24], 16 ; 00000010H
$LN154@JGPGetChar:

; 586  : 
; 587  : 				if (lpCL->dbInventory[12] == (BYTE)-1)

  003a0	80 fa ff	 cmp	 dl, 255			; 000000ffH
  003a3	75 07		 jne	 SHORT $LN103@JGPGetChar

; 588  : 					pCList.CharSet[9] |= 0x08;

  003a5	80 8d e0 fe ff
	ff 08		 or	 BYTE PTR _pCList$[ebp+24], 8
$LN103@JGPGetChar:

; 589  : 
; 590  : 				int levelindex = LevelSmallConvert(DBI_GET_LEVEL(lpCL->dbInventory[1]));

  003ac	0f b6 54 33 11	 movzx	 edx, BYTE PTR [ebx+esi+17]
  003b1	c1 ea 03	 shr	 edx, 3
  003b4	83 e2 0f	 and	 edx, 15			; 0000000fH
  003b7	52		 push	 edx
  003b8	e8 00 00 00 00	 call	 ?LevelSmallConvert@@YAEH@Z ; LevelSmallConvert

; 591  : 				levelindex |= (int)LevelSmallConvert(DBI_GET_LEVEL(lpCL->dbInventory[3])) << 3;

  003bd	0f b6 4c 33 13	 movzx	 ecx, BYTE PTR [ebx+esi+19]
  003c2	c1 e9 03	 shr	 ecx, 3
  003c5	0f b6 c0	 movzx	 eax, al
  003c8	83 e1 0f	 and	 ecx, 15			; 0000000fH
  003cb	51		 push	 ecx
  003cc	89 85 ec fe ff
	ff		 mov	 DWORD PTR _levelindex$157997[ebp], eax
  003d2	e8 00 00 00 00	 call	 ?LevelSmallConvert@@YAEH@Z ; LevelSmallConvert
  003d7	0f b6 d0	 movzx	 edx, al

; 592  : 				levelindex |= (int)LevelSmallConvert(DBI_GET_LEVEL(lpCL->dbInventory[5])) << 6;

  003da	0f b6 44 33 15	 movzx	 eax, BYTE PTR [ebx+esi+21]
  003df	03 d2		 add	 edx, edx
  003e1	c1 e8 03	 shr	 eax, 3
  003e4	03 d2		 add	 edx, edx
  003e6	83 e0 0f	 and	 eax, 15			; 0000000fH
  003e9	03 d2		 add	 edx, edx
  003eb	09 95 ec fe ff
	ff		 or	 DWORD PTR _levelindex$157997[ebp], edx
  003f1	50		 push	 eax
  003f2	e8 00 00 00 00	 call	 ?LevelSmallConvert@@YAEH@Z ; LevelSmallConvert

; 593  : 				levelindex |= (int)LevelSmallConvert(DBI_GET_LEVEL(lpCL->dbInventory[7])) << 9;

  003f7	0f b6 54 33 17	 movzx	 edx, BYTE PTR [ebx+esi+23]
  003fc	0f b6 c8	 movzx	 ecx, al
  003ff	c1 ea 03	 shr	 edx, 3
  00402	83 e2 0f	 and	 edx, 15			; 0000000fH
  00405	c1 e1 06	 shl	 ecx, 6
  00408	09 8d ec fe ff
	ff		 or	 DWORD PTR _levelindex$157997[ebp], ecx
  0040e	52		 push	 edx
  0040f	e8 00 00 00 00	 call	 ?LevelSmallConvert@@YAEH@Z ; LevelSmallConvert

; 594  : 				levelindex |= (int)LevelSmallConvert(DBI_GET_LEVEL(lpCL->dbInventory[9])) << 12;

  00414	0f b6 4c 33 19	 movzx	 ecx, BYTE PTR [ebx+esi+25]
  00419	0f b6 c0	 movzx	 eax, al
  0041c	c1 e9 03	 shr	 ecx, 3
  0041f	83 e1 0f	 and	 ecx, 15			; 0000000fH
  00422	c1 e0 09	 shl	 eax, 9
  00425	09 85 ec fe ff
	ff		 or	 DWORD PTR _levelindex$157997[ebp], eax
  0042b	51		 push	 ecx
  0042c	e8 00 00 00 00	 call	 ?LevelSmallConvert@@YAEH@Z ; LevelSmallConvert
  00431	0f b6 d0	 movzx	 edx, al

; 595  : 				levelindex |= (int)LevelSmallConvert(DBI_GET_LEVEL(lpCL->dbInventory[11])) << 15;

  00434	0f b6 44 33 1b	 movzx	 eax, BYTE PTR [ebx+esi+27]
  00439	c1 e8 03	 shr	 eax, 3
  0043c	83 e0 0f	 and	 eax, 15			; 0000000fH
  0043f	c1 e2 0c	 shl	 edx, 12			; 0000000cH
  00442	09 95 ec fe ff
	ff		 or	 DWORD PTR _levelindex$157997[ebp], edx
  00448	50		 push	 eax
  00449	e8 00 00 00 00	 call	 ?LevelSmallConvert@@YAEH@Z ; LevelSmallConvert

; 596  : 				levelindex |= (int)LevelSmallConvert(DBI_GET_LEVEL(lpCL->dbInventory[13])) << 18;

  0044e	0f b6 54 33 1d	 movzx	 edx, BYTE PTR [ebx+esi+29]
  00453	0f b6 c8	 movzx	 ecx, al
  00456	c1 ea 03	 shr	 edx, 3
  00459	83 e2 0f	 and	 edx, 15			; 0000000fH
  0045c	c1 e1 0f	 shl	 ecx, 15			; 0000000fH
  0045f	09 8d ec fe ff
	ff		 or	 DWORD PTR _levelindex$157997[ebp], ecx
  00465	52		 push	 edx
  00466	e8 00 00 00 00	 call	 ?LevelSmallConvert@@YAEH@Z ; LevelSmallConvert
  0046b	0f b6 c8	 movzx	 ecx, al
  0046e	8b 85 ec fe ff
	ff		 mov	 eax, DWORD PTR _levelindex$157997[ebp]
  00474	c1 e1 12	 shl	 ecx, 18			; 00000012H
  00477	0b c1		 or	 eax, ecx

; 597  : 
; 598  : 				pCList.CharSet[6] = levelindex >> 16 & 0xFF;

  00479	8b d0		 mov	 edx, eax
  0047b	c1 fa 10	 sar	 edx, 16			; 00000010H
  0047e	88 95 dd fe ff
	ff		 mov	 BYTE PTR _pCList$[ebp+21], dl

; 599  : 				pCList.CharSet[7] = (levelindex >> 8) & 0xFF;
; 600  : 				pCList.CharSet[8] = (levelindex) & 0xFF;
; 601  : 				pCList.CharSet[10] = 0;
; 602  : 				pCList.CharSet[11] = 0;
; 603  : 
; 604  : 				if (lpCL->dbInventory[4] == (BYTE)-1)

  00484	8b 95 a8 fe ff
	ff		 mov	 edx, DWORD PTR tv2840[ebp]
  0048a	8b c8		 mov	 ecx, eax
  0048c	c1 f9 08	 sar	 ecx, 8
  0048f	83 c4 1c	 add	 esp, 28			; 0000001cH
  00492	80 3a ff	 cmp	 BYTE PTR [edx], 255	; 000000ffH
  00495	88 8d de fe ff
	ff		 mov	 BYTE PTR _pCList$[ebp+22], cl
  0049b	88 85 df fe ff
	ff		 mov	 BYTE PTR _pCList$[ebp+23], al
  004a1	66 c7 85 e1 fe
	ff ff 00 00	 mov	 WORD PTR _pCList$[ebp+25], 0
  004aa	75 07		 jne	 SHORT $LN102@JGPGetChar

; 605  : 					pCList.CharSet[13] |= 0x0F;

  004ac	80 8d e4 fe ff
	ff 0f		 or	 BYTE PTR _pCList$[ebp+28], 15 ; 0000000fH
$LN102@JGPGetChar:

; 606  : 
; 607  : 				if (lpCL->dbInventory[8] == (BYTE)-1)

  004b3	8b 85 8c fe ff
	ff		 mov	 eax, DWORD PTR tv2853[ebp]
  004b9	80 38 ff	 cmp	 BYTE PTR [eax], 255	; 000000ffH
  004bc	75 07		 jne	 SHORT $LN137@JGPGetChar

; 608  : 					pCList.CharSet[14] |= 0xF0;

  004be	80 8d e5 fe ff
	ff f0		 or	 BYTE PTR _pCList$[ebp+29], 240 ; 000000f0H
$LN137@JGPGetChar:

; 609  : 
; 610  : 				if (lpCL->dbInventory[10] == (BYTE)-1)

  004c5	8b 8d 9c fe ff
	ff		 mov	 ecx, DWORD PTR tv2859[ebp]
  004cb	80 39 ff	 cmp	 BYTE PTR [ecx], 255	; 000000ffH
  004ce	75 07		 jne	 SHORT $LN100@JGPGetChar

; 611  : 					pCList.CharSet[14] |= 0x0F;

  004d0	80 8d e5 fe ff
	ff 0f		 or	 BYTE PTR _pCList$[ebp+29], 15 ; 0000000fH
$LN100@JGPGetChar:

; 612  : 
; 613  : 				if (lpCL->dbInventory[12] == (BYTE)-1)

  004d7	8b 95 84 fe ff
	ff		 mov	 edx, DWORD PTR tv2865[ebp]
  004dd	80 3a ff	 cmp	 BYTE PTR [edx], 255	; 000000ffH
  004e0	75 07		 jne	 SHORT $LN138@JGPGetChar

; 614  : 					pCList.CharSet[15] |= 0xF0;

  004e2	80 8d e6 fe ff
	ff f0		 or	 BYTE PTR _pCList$[ebp+30], 240 ; 000000f0H
$LN138@JGPGetChar:

; 615  : 
; 616  : 				if (lpCL->dbInventory[14] == (BYTE)-1)

  004e9	80 3f ff	 cmp	 BYTE PTR [edi], 255	; 000000ffH
  004ec	0f 85 03 06 00
	00		 jne	 $LN44@JGPGetChar

; 617  : 					pCList.CharSet[15] |= 0x0F;

  004f2	80 8d e6 fe ff
	ff 0f		 or	 BYTE PTR _pCList$[ebp+30], 15 ; 0000000fH

; 618  : 
; 619  : 				pCList.CharSet[16] = 0;

  004f9	66 c7 85 e7 fe
	ff ff 00 00	 mov	 WORD PTR _pCList$[ebp+31], 0

; 620  : 				pCList.CharSet[17] = 0;

  00502	e9 44 0d 00 00	 jmp	 $LN1@JGPGetChar
$LN126@JGPGetChar:

; 621  : 			}
; 622  : 			else if (lpCL->DbVersion <= 2)

  00507	3c 02		 cmp	 al, 2
  00509	0f 87 f4 05 00
	00		 ja	 $LN96@JGPGetChar

; 623  : 			{
; 624  : 				if (lpCL->dbInventory[0] != (BYTE)-1)

  0050f	80 7c 33 10 ff	 cmp	 BYTE PTR [ebx+esi+16], 255 ; 000000ffH
  00514	74 29		 je	 SHORT $LN95@JGPGetChar

; 625  : 				{
; 626  : 					TempInventory[0] = (lpCL->dbInventory[0] / 32) * MAX_SUBTYPE_ITEMS + lpCL->dbInventory[0] % 32;

  00516	8a 44 33 10	 mov	 al, BYTE PTR [ebx+esi+16]
  0051a	8a c8		 mov	 cl, al
  0051c	c0 e9 05	 shr	 cl, 5
  0051f	0f b6 d1	 movzx	 edx, cl
  00522	0f b6 c0	 movzx	 eax, al
  00525	b9 00 02 00 00	 mov	 ecx, 512		; 00000200H
  0052a	66 0f af d1	 imul	 dx, cx
  0052e	25 1f 00 00 80	 and	 eax, -2147483617	; 8000001fH
  00533	79 05		 jns	 SHORT $LN160@JGPGetChar
  00535	48		 dec	 eax
  00536	83 c8 e0	 or	 eax, -32		; ffffffe0H
  00539	40		 inc	 eax
$LN160@JGPGetChar:
  0053a	66 03 d0	 add	 dx, ax

; 627  : 				}
; 628  : 				else

  0053d	eb 05		 jmp	 SHORT $LN183@JGPGetChar
$LN95@JGPGetChar:

; 629  : 				{
; 630  : 					TempInventory[0] = -1;

  0053f	ba ff ff 00 00	 mov	 edx, 65535		; 0000ffffH
$LN183@JGPGetChar:

; 631  : 				}
; 632  : 
; 633  : 				if (lpCL->dbInventory[3] != (BYTE)-1)

  00544	80 7c 33 13 ff	 cmp	 BYTE PTR [ebx+esi+19], 255 ; 000000ffH
  00549	66 89 95 b0 fe
	ff ff		 mov	 WORD PTR _TempInventory$[ebp], dx
  00550	74 29		 je	 SHORT $LN93@JGPGetChar

; 634  : 				{
; 635  : 					TempInventory[1] = (lpCL->dbInventory[3] / 32) * MAX_SUBTYPE_ITEMS + lpCL->dbInventory[3] % 32;

  00552	8a 44 33 13	 mov	 al, BYTE PTR [ebx+esi+19]
  00556	8a c8		 mov	 cl, al
  00558	c0 e9 05	 shr	 cl, 5
  0055b	0f b6 c9	 movzx	 ecx, cl
  0055e	0f b6 c0	 movzx	 eax, al
  00561	bf 00 02 00 00	 mov	 edi, 512		; 00000200H
  00566	66 0f af cf	 imul	 cx, di
  0056a	25 1f 00 00 80	 and	 eax, -2147483617	; 8000001fH
  0056f	79 05		 jns	 SHORT $LN161@JGPGetChar
  00571	48		 dec	 eax
  00572	83 c8 e0	 or	 eax, -32		; ffffffe0H
  00575	40		 inc	 eax
$LN161@JGPGetChar:
  00576	66 03 c8	 add	 cx, ax

; 636  : 				}
; 637  : 				else

  00579	eb 05		 jmp	 SHORT $LN184@JGPGetChar
$LN93@JGPGetChar:

; 638  : 				{
; 639  : 					TempInventory[1] = -1;

  0057b	b9 ff ff 00 00	 mov	 ecx, 65535		; 0000ffffH
$LN184@JGPGetChar:

; 640  : 				}
; 641  : 
; 642  : 				if (lpCL->dbInventory[6] == (BYTE)-1 && (lpCL->dbInventory[8] & 0x80) == 0x80)

  00580	8a 44 33 16	 mov	 al, BYTE PTR [ebx+esi+22]
  00584	66 89 8d b2 fe
	ff ff		 mov	 WORD PTR _TempInventory$[ebp+2], cx
  0058b	3c ff		 cmp	 al, 255			; 000000ffH
  0058d	75 0e		 jne	 SHORT $LN91@JGPGetChar
  0058f	f6 44 33 18 80	 test	 BYTE PTR [ebx+esi+24], 128 ; 00000080H
  00594	74 07		 je	 SHORT $LN91@JGPGetChar

; 643  : 				{
; 644  : 					TempInventory[2] = -1;

  00596	b8 ff ff 00 00	 mov	 eax, 65535		; 0000ffffH

; 645  : 				}
; 646  : 				else

  0059b	eb 1a		 jmp	 SHORT $LN162@JGPGetChar
$LN91@JGPGetChar:

; 647  : 				{
; 648  : 					TempInventory[2] = (lpCL->dbInventory[6] + ((lpCL->dbInventory[8] >> 7) << 8)) % 32;

  0059d	0f b6 7c 33 18	 movzx	 edi, BYTE PTR [ebx+esi+24]
  005a2	0f b6 c0	 movzx	 eax, al
  005a5	83 e7 80	 and	 edi, -128		; ffffff80H
  005a8	8d 04 78	 lea	 eax, DWORD PTR [eax+edi*2]
  005ab	25 1f 00 00 80	 and	 eax, -2147483617	; 8000001fH
  005b0	79 05		 jns	 SHORT $LN162@JGPGetChar
  005b2	48		 dec	 eax
  005b3	83 c8 e0	 or	 eax, -32		; ffffffe0H
  005b6	40		 inc	 eax
$LN162@JGPGetChar:
  005b7	66 89 85 b4 fe
	ff ff		 mov	 WORD PTR _TempInventory$[ebp+4], ax

; 649  : 				}
; 650  : 
; 651  : 				if (lpCL->dbInventory[9] == (BYTE)-1 && (lpCL->dbInventory[11] & 0x80) == 0x80)

  005be	8a 44 33 19	 mov	 al, BYTE PTR [ebx+esi+25]
  005c2	3c ff		 cmp	 al, 255			; 000000ffH
  005c4	75 0e		 jne	 SHORT $LN89@JGPGetChar
  005c6	f6 44 33 1b 80	 test	 BYTE PTR [ebx+esi+27], 128 ; 00000080H
  005cb	74 07		 je	 SHORT $LN89@JGPGetChar

; 652  : 				{
; 653  : 					TempInventory[3] = -1;

  005cd	b8 ff ff 00 00	 mov	 eax, 65535		; 0000ffffH

; 654  : 				}
; 655  : 				else

  005d2	eb 1a		 jmp	 SHORT $LN163@JGPGetChar
$LN89@JGPGetChar:

; 656  : 				{
; 657  : 					TempInventory[3] = (lpCL->dbInventory[9] + ((lpCL->dbInventory[11] >> 7) << 8)) % 32;

  005d4	0f b6 7c 33 1b	 movzx	 edi, BYTE PTR [ebx+esi+27]
  005d9	0f b6 c0	 movzx	 eax, al
  005dc	83 e7 80	 and	 edi, -128		; ffffff80H
  005df	8d 04 78	 lea	 eax, DWORD PTR [eax+edi*2]
  005e2	25 1f 00 00 80	 and	 eax, -2147483617	; 8000001fH
  005e7	79 05		 jns	 SHORT $LN163@JGPGetChar
  005e9	48		 dec	 eax
  005ea	83 c8 e0	 or	 eax, -32		; ffffffe0H
  005ed	40		 inc	 eax
$LN163@JGPGetChar:
  005ee	66 89 85 b6 fe
	ff ff		 mov	 WORD PTR _TempInventory$[ebp+6], ax

; 658  : 				}
; 659  : 
; 660  : 				if (lpCL->dbInventory[12] == (BYTE)-1 && (lpCL->dbInventory[14] & 0x80) == 0x80)

  005f5	8a 44 33 1c	 mov	 al, BYTE PTR [ebx+esi+28]
  005f9	3c ff		 cmp	 al, 255			; 000000ffH
  005fb	75 0e		 jne	 SHORT $LN87@JGPGetChar
  005fd	f6 44 33 1e 80	 test	 BYTE PTR [ebx+esi+30], 128 ; 00000080H
  00602	74 07		 je	 SHORT $LN87@JGPGetChar

; 661  : 				{
; 662  : 					TempInventory[4] = 0x1F;

  00604	b8 1f 00 00 00	 mov	 eax, 31			; 0000001fH

; 663  : 				}
; 664  : 				else

  00609	eb 1a		 jmp	 SHORT $LN164@JGPGetChar
$LN87@JGPGetChar:

; 665  : 				{
; 666  : 					TempInventory[4] = (lpCL->dbInventory[12] + ((lpCL->dbInventory[14] >> 7) << 8)) % 32;

  0060b	0f b6 7c 33 1e	 movzx	 edi, BYTE PTR [ebx+esi+30]
  00610	0f b6 c0	 movzx	 eax, al
  00613	83 e7 80	 and	 edi, -128		; ffffff80H
  00616	8d 04 78	 lea	 eax, DWORD PTR [eax+edi*2]
  00619	25 1f 00 00 80	 and	 eax, -2147483617	; 8000001fH
  0061e	79 05		 jns	 SHORT $LN164@JGPGetChar
  00620	48		 dec	 eax
  00621	83 c8 e0	 or	 eax, -32		; ffffffe0H
  00624	40		 inc	 eax
$LN164@JGPGetChar:
  00625	66 89 85 b8 fe
	ff ff		 mov	 WORD PTR _TempInventory$[ebp+8], ax

; 667  : 				}
; 668  : 
; 669  : 				if (lpCL->dbInventory[15] == (BYTE)-1 && (lpCL->dbInventory[17] & 0x80) == 0x80)

  0062c	8a 44 33 1f	 mov	 al, BYTE PTR [ebx+esi+31]
  00630	3c ff		 cmp	 al, 255			; 000000ffH
  00632	75 0e		 jne	 SHORT $LN85@JGPGetChar
  00634	f6 44 33 21 80	 test	 BYTE PTR [ebx+esi+33], 128 ; 00000080H
  00639	74 07		 je	 SHORT $LN85@JGPGetChar

; 670  : 				{
; 671  : 					TempInventory[5] = 0x1F;

  0063b	b8 1f 00 00 00	 mov	 eax, 31			; 0000001fH

; 672  : 				}
; 673  : 				else

  00640	eb 1a		 jmp	 SHORT $LN165@JGPGetChar
$LN85@JGPGetChar:

; 674  : 				{
; 675  : 					TempInventory[5] = (lpCL->dbInventory[15] + ((lpCL->dbInventory[17] >> 7) << 8)) % 32;

  00642	0f b6 7c 33 21	 movzx	 edi, BYTE PTR [ebx+esi+33]
  00647	0f b6 c0	 movzx	 eax, al
  0064a	83 e7 80	 and	 edi, -128		; ffffff80H
  0064d	8d 04 78	 lea	 eax, DWORD PTR [eax+edi*2]
  00650	25 1f 00 00 80	 and	 eax, -2147483617	; 8000001fH
  00655	79 05		 jns	 SHORT $LN165@JGPGetChar
  00657	48		 dec	 eax
  00658	83 c8 e0	 or	 eax, -32		; ffffffe0H
  0065b	40		 inc	 eax
$LN165@JGPGetChar:
  0065c	66 89 85 ba fe
	ff ff		 mov	 WORD PTR _TempInventory$[ebp+10], ax

; 676  : 				}
; 677  : 
; 678  : 				if (lpCL->dbInventory[18] == (BYTE)-1 && (lpCL->dbInventory[20] & 0x80) == 0x80)

  00663	8a 44 33 22	 mov	 al, BYTE PTR [ebx+esi+34]
  00667	3c ff		 cmp	 al, 255			; 000000ffH
  00669	75 0e		 jne	 SHORT $LN83@JGPGetChar
  0066b	f6 44 33 24 80	 test	 BYTE PTR [ebx+esi+36], 128 ; 00000080H
  00670	74 07		 je	 SHORT $LN83@JGPGetChar

; 679  : 				{
; 680  : 					TempInventory[6] = 0x1F;

  00672	b8 1f 00 00 00	 mov	 eax, 31			; 0000001fH

; 681  : 				}
; 682  : 				else

  00677	eb 1a		 jmp	 SHORT $LN166@JGPGetChar
$LN83@JGPGetChar:

; 683  : 				{
; 684  : 					TempInventory[6] = (lpCL->dbInventory[18] + ((lpCL->dbInventory[20] >> 7) << 8)) % 32;

  00679	0f b6 7c 33 24	 movzx	 edi, BYTE PTR [ebx+esi+36]
  0067e	0f b6 c0	 movzx	 eax, al
  00681	83 e7 80	 and	 edi, -128		; ffffff80H
  00684	8d 04 78	 lea	 eax, DWORD PTR [eax+edi*2]
  00687	25 1f 00 00 80	 and	 eax, -2147483617	; 8000001fH
  0068c	79 05		 jns	 SHORT $LN166@JGPGetChar
  0068e	48		 dec	 eax
  0068f	83 c8 e0	 or	 eax, -32		; ffffffe0H
  00692	40		 inc	 eax
$LN166@JGPGetChar:
  00693	66 89 85 bc fe
	ff ff		 mov	 WORD PTR _TempInventory$[ebp+12], ax

; 685  : 				}
; 686  : 
; 687  : 				if (lpCL->dbInventory[21] == (BYTE)-1 && (lpCL->dbInventory[23] & 0x80) == 0x80)

  0069a	8a 44 33 25	 mov	 al, BYTE PTR [ebx+esi+37]
  0069e	3c ff		 cmp	 al, 255			; 000000ffH
  006a0	75 0e		 jne	 SHORT $LN81@JGPGetChar
  006a2	f6 44 33 27 80	 test	 BYTE PTR [ebx+esi+39], 128 ; 00000080H
  006a7	74 07		 je	 SHORT $LN81@JGPGetChar

; 688  : 				{
; 689  : 					TempInventory[7] = 0x1F;

  006a9	bf 1f 00 00 00	 mov	 edi, 31			; 0000001fH

; 690  : 				}
; 691  : 				else

  006ae	eb 1d		 jmp	 SHORT $LN167@JGPGetChar
$LN81@JGPGetChar:

; 692  : 				{
; 693  : 					TempInventory[7] = (lpCL->dbInventory[21] + ((lpCL->dbInventory[23] >> 7) << 8)) % 32;

  006b0	0f b6 7c 33 27	 movzx	 edi, BYTE PTR [ebx+esi+39]
  006b5	83 e7 80	 and	 edi, -128		; ffffff80H
  006b8	0f b6 c0	 movzx	 eax, al
  006bb	8d 04 78	 lea	 eax, DWORD PTR [eax+edi*2]
  006be	8b f8		 mov	 edi, eax
  006c0	81 e7 1f 00 00
	80		 and	 edi, -2147483617	; 8000001fH
  006c6	79 05		 jns	 SHORT $LN167@JGPGetChar
  006c8	4f		 dec	 edi
  006c9	83 cf e0	 or	 edi, -32		; ffffffe0H
  006cc	47		 inc	 edi
$LN167@JGPGetChar:

; 694  : 				}
; 695  : 
; 696  : 				if (lpCL->dbInventory[24] == (BYTE)-1 && (lpCL->dbInventory[26] & 0x80) == 0x80)

  006cd	8a 44 33 28	 mov	 al, BYTE PTR [ebx+esi+40]
  006d1	66 89 bd be fe
	ff ff		 mov	 WORD PTR _TempInventory$[ebp+14], di
  006d8	3c ff		 cmp	 al, 255			; 000000ffH
  006da	75 15		 jne	 SHORT $LN79@JGPGetChar
  006dc	f6 44 33 2a 80	 test	 BYTE PTR [ebx+esi+42], 128 ; 00000080H
  006e1	74 0e		 je	 SHORT $LN79@JGPGetChar

; 697  : 				{
; 698  : 					TempInventory[8] = 0x1F;

  006e3	b8 1f 00 00 00	 mov	 eax, 31			; 0000001fH
  006e8	66 89 85 c0 fe
	ff ff		 mov	 WORD PTR _TempInventory$[ebp+16], ax

; 699  : 				}
; 700  : 				else

  006ef	eb 29		 jmp	 SHORT $LN78@JGPGetChar
$LN79@JGPGetChar:

; 701  : 				{
; 702  : 					TempInventory[8] = (lpCL->dbInventory[24] + ((lpCL->dbInventory[26] >> 7) << 8)) % 32;

  006f1	0f b6 54 33 2a	 movzx	 edx, BYTE PTR [ebx+esi+42]
  006f6	0f b6 c0	 movzx	 eax, al
  006f9	83 e2 80	 and	 edx, -128		; ffffff80H
  006fc	8d 14 50	 lea	 edx, DWORD PTR [eax+edx*2]
  006ff	81 e2 1f 00 00
	80		 and	 edx, -2147483617	; 8000001fH
  00705	79 05		 jns	 SHORT $LN168@JGPGetChar
  00707	4a		 dec	 edx
  00708	83 ca e0	 or	 edx, -32		; ffffffe0H
  0070b	42		 inc	 edx
$LN168@JGPGetChar:
  0070c	66 89 95 c0 fe
	ff ff		 mov	 WORD PTR _TempInventory$[ebp+16], dx
  00713	66 8b 95 b0 fe
	ff ff		 mov	 dx, WORD PTR _TempInventory$[ebp]
$LN78@JGPGetChar:

; 703  : 				}
; 704  : 
; 705  : 				if (TempInventory[0] != (WORD)-1)

  0071a	b8 ff ff 00 00	 mov	 eax, 65535		; 0000ffffH
  0071f	66 3b d0	 cmp	 dx, ax
  00722	74 1f		 je	 SHORT $LN77@JGPGetChar

; 706  : 				{
; 707  : 					pCList.CharSet[1] = TempInventory[0];
; 708  : 					pCList.CharSet[12] |= DBI_GET_TYPE(TempInventory[0]);

  00724	8b 85 b0 fe ff
	ff		 mov	 eax, DWORD PTR _TempInventory$[ebp]
  0072a	8a 95 b0 fe ff
	ff		 mov	 dl, BYTE PTR _TempInventory$[ebp]
  00730	c1 e8 04	 shr	 eax, 4
  00733	24 f0		 and	 al, 240			; 000000f0H
  00735	08 85 e3 fe ff
	ff		 or	 BYTE PTR _pCList$[ebp+27], al
  0073b	88 95 d8 fe ff
	ff		 mov	 BYTE PTR _pCList$[ebp+16], dl

; 709  : 				}
; 710  : 				else

  00741	eb 0e		 jmp	 SHORT $LN76@JGPGetChar
$LN77@JGPGetChar:

; 711  : 				{
; 712  : 					pCList.CharSet[1] = -1;
; 713  : 					pCList.CharSet[12] |= 0xF0;

  00743	80 8d e3 fe ff
	ff f0		 or	 BYTE PTR _pCList$[ebp+27], 240 ; 000000f0H
  0074a	c6 85 d8 fe ff
	ff ff		 mov	 BYTE PTR _pCList$[ebp+16], 255 ; 000000ffH
$LN76@JGPGetChar:

; 714  : 				}
; 715  : 
; 716  : 				if (TempInventory[1] != (WORD)-1)

  00751	ba ff ff 00 00	 mov	 edx, 65535		; 0000ffffH
  00756	66 3b ca	 cmp	 cx, dx
  00759	74 20		 je	 SHORT $LN75@JGPGetChar

; 717  : 				{
; 718  : 					pCList.CharSet[2] = TempInventory[1];
; 719  : 					pCList.CharSet[13] |= DBI_GET_TYPE(TempInventory[1]);

  0075b	8b 95 b2 fe ff
	ff		 mov	 edx, DWORD PTR _TempInventory$[ebp+2]
  00761	8a 85 b2 fe ff
	ff		 mov	 al, BYTE PTR _TempInventory$[ebp+2]
  00767	c1 ea 04	 shr	 edx, 4
  0076a	80 e2 f0	 and	 dl, 240			; 000000f0H
  0076d	08 95 e4 fe ff
	ff		 or	 BYTE PTR _pCList$[ebp+28], dl
  00773	88 85 d9 fe ff
	ff		 mov	 BYTE PTR _pCList$[ebp+17], al

; 720  : 				}
; 721  : 				else

  00779	eb 0e		 jmp	 SHORT $LN74@JGPGetChar
$LN75@JGPGetChar:

; 722  : 				{
; 723  : 					pCList.CharSet[2] = -1;
; 724  : 					pCList.CharSet[13] |= 0xF0;

  0077b	80 8d e4 fe ff
	ff f0		 or	 BYTE PTR _pCList$[ebp+28], 240 ; 000000f0H
  00782	c6 85 d9 fe ff
	ff ff		 mov	 BYTE PTR _pCList$[ebp+17], 255 ; 000000ffH
$LN74@JGPGetChar:

; 725  : 				}
; 726  : 
; 727  : 				pCList.CharSet[3] = TempInventory[2] % MAX_TYPE_ITEMS * MAX_TYPE_ITEMS + TempInventory[3] % MAX_TYPE_ITEMS;

  00789	0f b7 85 b4 fe
	ff ff		 movzx	 eax, WORD PTR _TempInventory$[ebp+4]
  00790	25 0f 00 00 80	 and	 eax, -2147483633	; 8000000fH
  00795	79 05		 jns	 SHORT $LN169@JGPGetChar
  00797	48		 dec	 eax
  00798	83 c8 f0	 or	 eax, -16		; fffffff0H
  0079b	40		 inc	 eax
$LN169@JGPGetChar:
  0079c	0f b7 95 b6 fe
	ff ff		 movzx	 edx, WORD PTR _TempInventory$[ebp+6]
  007a3	c0 e0 04	 shl	 al, 4
  007a6	81 e2 0f 00 00
	80		 and	 edx, -2147483633	; 8000000fH
  007ac	79 05		 jns	 SHORT $LN170@JGPGetChar
  007ae	4a		 dec	 edx
  007af	83 ca f0	 or	 edx, -16		; fffffff0H
  007b2	42		 inc	 edx
$LN170@JGPGetChar:
  007b3	02 c2		 add	 al, dl
  007b5	88 85 da fe ff
	ff		 mov	 BYTE PTR _pCList$[ebp+18], al

; 728  : 				pCList.CharSet[4] = TempInventory[4] % MAX_TYPE_ITEMS * MAX_TYPE_ITEMS + TempInventory[5] % MAX_TYPE_ITEMS;

  007bb	0f b7 85 b8 fe
	ff ff		 movzx	 eax, WORD PTR _TempInventory$[ebp+8]
  007c2	25 0f 00 00 80	 and	 eax, -2147483633	; 8000000fH
  007c7	79 05		 jns	 SHORT $LN171@JGPGetChar
  007c9	48		 dec	 eax
  007ca	83 c8 f0	 or	 eax, -16		; fffffff0H
  007cd	40		 inc	 eax
$LN171@JGPGetChar:
  007ce	0f b7 95 ba fe
	ff ff		 movzx	 edx, WORD PTR _TempInventory$[ebp+10]
  007d5	c0 e0 04	 shl	 al, 4
  007d8	81 e2 0f 00 00
	80		 and	 edx, -2147483633	; 8000000fH
  007de	79 05		 jns	 SHORT $LN172@JGPGetChar
  007e0	4a		 dec	 edx
  007e1	83 ca f0	 or	 edx, -16		; fffffff0H
  007e4	42		 inc	 edx
$LN172@JGPGetChar:
  007e5	02 c2		 add	 al, dl
  007e7	88 85 db fe ff
	ff		 mov	 BYTE PTR _pCList$[ebp+19], al

; 729  : 				index = TempInventory[6] % MAX_TYPE_ITEMS * MAX_TYPE_ITEMS;

  007ed	0f b7 85 bc fe
	ff ff		 movzx	 eax, WORD PTR _TempInventory$[ebp+12]
  007f4	25 0f 00 00 80	 and	 eax, -2147483633	; 8000000fH
  007f9	79 05		 jns	 SHORT $LN173@JGPGetChar
  007fb	48		 dec	 eax
  007fc	83 c8 f0	 or	 eax, -16		; fffffff0H
  007ff	40		 inc	 eax
$LN173@JGPGetChar:
  00800	c0 e0 04	 shl	 al, 4

; 730  : 
; 731  : 				if (TempInventory[7] == 0x1F)

  00803	66 83 ff 1f	 cmp	 di, 31			; 0000001fH
  00807	75 04		 jne	 SHORT $LN73@JGPGetChar

; 732  : 				{
; 733  : 					index |= 0x0C;

  00809	0c 0c		 or	 al, 12			; 0000000cH

; 734  : 				}
; 735  : 				else

  0080b	eb 0f		 jmp	 SHORT $LN72@JGPGetChar
$LN73@JGPGetChar:

; 736  : 				{
; 737  : 					index |= (TempInventory[7] & 0x03) * 4;

  0080d	8a 95 be fe ff
	ff		 mov	 dl, BYTE PTR _TempInventory$[ebp+14]
  00813	80 e2 03	 and	 dl, 3
  00816	02 d2		 add	 dl, dl
  00818	02 d2		 add	 dl, dl
  0081a	0a c2		 or	 al, dl
$LN72@JGPGetChar:

; 738  : 				}
; 739  : 
; 740  : 				if ((TempInventory[8] & 0x04) == 0)

  0081c	8b 95 c0 fe ff
	ff		 mov	 edx, DWORD PTR _TempInventory$[ebp+16]
  00822	83 e2 04	 and	 edx, 4
  00825	89 95 a8 fe ff
	ff		 mov	 DWORD PTR tv2877[ebp], edx
  0082b	75 17		 jne	 SHORT $LN71@JGPGetChar

; 741  : 				{
; 742  : 					if (TempInventory[8] == 0x1F)

  0082d	66 83 bd c0 fe
	ff ff 1f	 cmp	 WORD PTR _TempInventory$[ebp+16], 31 ; 0000001fH

; 743  : 					{
; 744  : 						index |= 0x03;
; 745  : 					}
; 746  : 					else

  00835	74 0d		 je	 SHORT $LN71@JGPGetChar

; 747  : 					{
; 748  : 						index |= TempInventory[8] & 0x03;

  00837	8a 95 c0 fe ff
	ff		 mov	 dl, BYTE PTR _TempInventory$[ebp+16]
  0083d	80 e2 03	 and	 dl, 3
  00840	0a c2		 or	 al, dl

; 749  : 					}
; 750  : 				}
; 751  : 				else

  00842	eb 02		 jmp	 SHORT $LN185@JGPGetChar
$LN71@JGPGetChar:

; 752  : 				{
; 753  : 					index |= 0x03;

  00844	0c 03		 or	 al, 3
$LN185@JGPGetChar:
  00846	88 85 af fe ff
	ff		 mov	 BYTE PTR _index$[ebp], al

; 754  : 				}
; 755  : 
; 756  : 				pCList.CharSet[5] = index;

  0084c	88 85 dc fe ff
	ff		 mov	 BYTE PTR _pCList$[ebp+20], al

; 757  : 				int levelindex = 0;
; 758  : 
; 759  : 				if (TempInventory[0] != (WORD)-1)

  00852	b8 ff ff 00 00	 mov	 eax, 65535		; 0000ffffH
  00857	c7 85 ec fe ff
	ff 00 00 00 00	 mov	 DWORD PTR _levelindex$158055[ebp], 0
  00861	66 39 85 b0 fe
	ff ff		 cmp	 WORD PTR _TempInventory$[ebp], ax
  00868	74 24		 je	 SHORT $LN141@JGPGetChar

; 760  : 				{
; 761  : 					levelindex = LevelSmallConvert(DBI_GET_LEVEL(lpCL->dbInventory[1]));

  0086a	0f b6 4c 33 11	 movzx	 ecx, BYTE PTR [ebx+esi+17]
  0086f	c1 e9 03	 shr	 ecx, 3
  00872	83 e1 0f	 and	 ecx, 15			; 0000000fH
  00875	51		 push	 ecx
  00876	e8 00 00 00 00	 call	 ?LevelSmallConvert@@YAEH@Z ; LevelSmallConvert
  0087b	66 8b 8d b2 fe
	ff ff		 mov	 cx, WORD PTR _TempInventory$[ebp+2]
  00882	0f b6 d0	 movzx	 edx, al
  00885	83 c4 04	 add	 esp, 4
  00888	89 95 ec fe ff
	ff		 mov	 DWORD PTR _levelindex$158055[ebp], edx
$LN141@JGPGetChar:

; 762  : 				}
; 763  : 
; 764  : 				if (TempInventory[1] != (WORD)-1)

  0088e	b8 ff ff 00 00	 mov	 eax, 65535		; 0000ffffH
  00893	ba 1f 00 00 00	 mov	 edx, 31			; 0000001fH
  00898	66 3b c8	 cmp	 cx, ax
  0089b	74 28		 je	 SHORT $LN66@JGPGetChar

; 765  : 				{
; 766  : 					levelindex |= (int)LevelSmallConvert(DBI_GET_LEVEL(lpCL->dbInventory[4])) << 3;

  0089d	0f b6 4c 33 14	 movzx	 ecx, BYTE PTR [ebx+esi+20]
  008a2	c1 e9 03	 shr	 ecx, 3
  008a5	83 e1 0f	 and	 ecx, 15			; 0000000fH
  008a8	51		 push	 ecx
  008a9	e8 00 00 00 00	 call	 ?LevelSmallConvert@@YAEH@Z ; LevelSmallConvert
  008ae	0f b6 d0	 movzx	 edx, al
  008b1	03 d2		 add	 edx, edx
  008b3	03 d2		 add	 edx, edx
  008b5	03 d2		 add	 edx, edx
  008b7	83 c4 04	 add	 esp, 4
  008ba	09 95 ec fe ff
	ff		 or	 DWORD PTR _levelindex$158055[ebp], edx
  008c0	ba 1f 00 00 00	 mov	 edx, 31			; 0000001fH
$LN66@JGPGetChar:

; 767  : 				}
; 768  : 
; 769  : 				if (TempInventory[2] < 0x1F)

  008c5	66 39 95 b4 fe
	ff ff		 cmp	 WORD PTR _TempInventory$[ebp+4], dx
  008cc	73 25		 jae	 SHORT $LN65@JGPGetChar

; 770  : 				{
; 771  : 					levelindex |= (int)LevelSmallConvert(DBI_GET_LEVEL(lpCL->dbInventory[7])) << 6;

  008ce	0f b6 44 33 17	 movzx	 eax, BYTE PTR [ebx+esi+23]
  008d3	c1 e8 03	 shr	 eax, 3
  008d6	83 e0 0f	 and	 eax, 15			; 0000000fH
  008d9	50		 push	 eax
  008da	e8 00 00 00 00	 call	 ?LevelSmallConvert@@YAEH@Z ; LevelSmallConvert
  008df	0f b6 c8	 movzx	 ecx, al
  008e2	c1 e1 06	 shl	 ecx, 6
  008e5	83 c4 04	 add	 esp, 4
  008e8	09 8d ec fe ff
	ff		 or	 DWORD PTR _levelindex$158055[ebp], ecx
  008ee	ba 1f 00 00 00	 mov	 edx, 31			; 0000001fH
$LN65@JGPGetChar:

; 772  : 				}
; 773  : 
; 774  : 				if (TempInventory[3] < 0x1F)

  008f3	66 39 95 b6 fe
	ff ff		 cmp	 WORD PTR _TempInventory$[ebp+6], dx
  008fa	73 25		 jae	 SHORT $LN64@JGPGetChar

; 775  : 				{
; 776  : 					levelindex |= (int)LevelSmallConvert(DBI_GET_LEVEL(lpCL->dbInventory[10])) << 9;

  008fc	0f b6 54 33 1a	 movzx	 edx, BYTE PTR [ebx+esi+26]
  00901	c1 ea 03	 shr	 edx, 3
  00904	83 e2 0f	 and	 edx, 15			; 0000000fH
  00907	52		 push	 edx
  00908	e8 00 00 00 00	 call	 ?LevelSmallConvert@@YAEH@Z ; LevelSmallConvert
  0090d	0f b6 c0	 movzx	 eax, al
  00910	c1 e0 09	 shl	 eax, 9
  00913	83 c4 04	 add	 esp, 4
  00916	09 85 ec fe ff
	ff		 or	 DWORD PTR _levelindex$158055[ebp], eax
  0091c	ba 1f 00 00 00	 mov	 edx, 31			; 0000001fH
$LN64@JGPGetChar:

; 777  : 				}
; 778  : 
; 779  : 				if (TempInventory[4] < 0x1F)

  00921	66 39 95 b8 fe
	ff ff		 cmp	 WORD PTR _TempInventory$[ebp+8], dx
  00928	73 25		 jae	 SHORT $LN63@JGPGetChar

; 780  : 				{
; 781  : 					levelindex |= (int)LevelSmallConvert(DBI_GET_LEVEL(lpCL->dbInventory[13])) << 12;

  0092a	0f b6 4c 33 1d	 movzx	 ecx, BYTE PTR [ebx+esi+29]
  0092f	c1 e9 03	 shr	 ecx, 3
  00932	83 e1 0f	 and	 ecx, 15			; 0000000fH
  00935	51		 push	 ecx
  00936	e8 00 00 00 00	 call	 ?LevelSmallConvert@@YAEH@Z ; LevelSmallConvert
  0093b	0f b6 d0	 movzx	 edx, al
  0093e	c1 e2 0c	 shl	 edx, 12			; 0000000cH
  00941	83 c4 04	 add	 esp, 4
  00944	09 95 ec fe ff
	ff		 or	 DWORD PTR _levelindex$158055[ebp], edx
  0094a	ba 1f 00 00 00	 mov	 edx, 31			; 0000001fH
$LN63@JGPGetChar:

; 782  : 				}
; 783  : 
; 784  : 				if (TempInventory[5] < 0x1F)

  0094f	66 39 95 ba fe
	ff ff		 cmp	 WORD PTR _TempInventory$[ebp+10], dx
  00956	73 25		 jae	 SHORT $LN62@JGPGetChar

; 785  : 				{
; 786  : 					levelindex |= (int)LevelSmallConvert(DBI_GET_LEVEL(lpCL->dbInventory[16])) << 15;

  00958	0f b6 44 33 20	 movzx	 eax, BYTE PTR [ebx+esi+32]
  0095d	c1 e8 03	 shr	 eax, 3
  00960	83 e0 0f	 and	 eax, 15			; 0000000fH
  00963	50		 push	 eax
  00964	e8 00 00 00 00	 call	 ?LevelSmallConvert@@YAEH@Z ; LevelSmallConvert
  00969	0f b6 c8	 movzx	 ecx, al
  0096c	c1 e1 0f	 shl	 ecx, 15			; 0000000fH
  0096f	83 c4 04	 add	 esp, 4
  00972	09 8d ec fe ff
	ff		 or	 DWORD PTR _levelindex$158055[ebp], ecx
  00978	ba 1f 00 00 00	 mov	 edx, 31			; 0000001fH
$LN62@JGPGetChar:

; 787  : 				}
; 788  : 
; 789  : 				if (TempInventory[6] < 0x1F)

  0097d	66 39 95 bc fe
	ff ff		 cmp	 WORD PTR _TempInventory$[ebp+12], dx
  00984	73 25		 jae	 SHORT $LN61@JGPGetChar

; 790  : 				{
; 791  : 					levelindex |= (int)LevelSmallConvert(DBI_GET_LEVEL(lpCL->dbInventory[19])) << 18;

  00986	0f b6 54 33 23	 movzx	 edx, BYTE PTR [ebx+esi+35]
  0098b	c1 ea 03	 shr	 edx, 3
  0098e	83 e2 0f	 and	 edx, 15			; 0000000fH
  00991	52		 push	 edx
  00992	e8 00 00 00 00	 call	 ?LevelSmallConvert@@YAEH@Z ; LevelSmallConvert
  00997	0f b6 c0	 movzx	 eax, al
  0099a	c1 e0 12	 shl	 eax, 18			; 00000012H
  0099d	83 c4 04	 add	 esp, 4
  009a0	09 85 ec fe ff
	ff		 or	 DWORD PTR _levelindex$158055[ebp], eax
  009a6	ba 1f 00 00 00	 mov	 edx, 31			; 0000001fH
$LN61@JGPGetChar:

; 792  : 				}
; 793  : 
; 794  : 				pCList.CharSet[6] = ((int)levelindex >> 16) & 0xFF;

  009ab	8b 85 ec fe ff
	ff		 mov	 eax, DWORD PTR _levelindex$158055[ebp]

; 795  : 				pCList.CharSet[7] = ((int)levelindex >> 8) & 0xFF;
; 796  : 				pCList.CharSet[8] = levelindex & 0xFF;
; 797  : 
; 798  : 				if (TempInventory[2] > 0x0F)

  009b1	66 8b b5 b4 fe
	ff ff		 mov	 si, WORD PTR _TempInventory$[ebp+4]
  009b8	8b c8		 mov	 ecx, eax
  009ba	c1 f9 10	 sar	 ecx, 16			; 00000010H
  009bd	88 8d dd fe ff
	ff		 mov	 BYTE PTR _pCList$[ebp+21], cl
  009c3	8b c8		 mov	 ecx, eax
  009c5	88 85 df fe ff
	ff		 mov	 BYTE PTR _pCList$[ebp+23], al
  009cb	c1 f9 08	 sar	 ecx, 8
  009ce	b8 0f 00 00 00	 mov	 eax, 15			; 0000000fH
  009d3	88 8d de fe ff
	ff		 mov	 BYTE PTR _pCList$[ebp+22], cl
  009d9	66 3b f0	 cmp	 si, ax
  009dc	76 07		 jbe	 SHORT $LN147@JGPGetChar

; 799  : 					pCList.CharSet[9] = 0x80;

  009de	c6 85 e0 fe ff
	ff 80		 mov	 BYTE PTR _pCList$[ebp+24], 128 ; 00000080H
$LN147@JGPGetChar:

; 800  : 
; 801  : 				if (TempInventory[3] > 0x0F)

  009e5	66 39 85 b6 fe
	ff ff		 cmp	 WORD PTR _TempInventory$[ebp+6], ax
  009ec	76 07		 jbe	 SHORT $LN153@JGPGetChar

; 802  : 					pCList.CharSet[9] |= 0x40;

  009ee	80 8d e0 fe ff
	ff 40		 or	 BYTE PTR _pCList$[ebp+24], 64 ; 00000040H
$LN153@JGPGetChar:

; 803  : 
; 804  : 				if (TempInventory[4] > 0x0F)

  009f5	66 39 85 b8 fe
	ff ff		 cmp	 WORD PTR _TempInventory$[ebp+8], ax
  009fc	76 07		 jbe	 SHORT $LN155@JGPGetChar

; 805  : 					pCList.CharSet[9] |= 0x20;

  009fe	80 8d e0 fe ff
	ff 20		 or	 BYTE PTR _pCList$[ebp+24], 32 ; 00000020H
$LN155@JGPGetChar:

; 806  : 
; 807  : 				if (TempInventory[5] > 0x0F)

  00a05	66 39 85 ba fe
	ff ff		 cmp	 WORD PTR _TempInventory$[ebp+10], ax
  00a0c	76 07		 jbe	 SHORT $LN156@JGPGetChar

; 808  : 					pCList.CharSet[9] |= 0x10;

  00a0e	80 8d e0 fe ff
	ff 10		 or	 BYTE PTR _pCList$[ebp+24], 16 ; 00000010H
$LN156@JGPGetChar:

; 809  : 
; 810  : 				if (TempInventory[6] > 0x0F)

  00a15	66 8b 8d bc fe
	ff ff		 mov	 cx, WORD PTR _TempInventory$[ebp+12]
  00a1c	66 3b c8	 cmp	 cx, ax
  00a1f	76 07		 jbe	 SHORT $LN157@JGPGetChar

; 811  : 					pCList.CharSet[9] |= 0x8;

  00a21	80 8d e0 fe ff
	ff 08		 or	 BYTE PTR _pCList$[ebp+24], 8
$LN157@JGPGetChar:

; 812  : 
; 813  : 				if ((TempInventory[7] >= 3 && TempInventory[7] <= 6) || TempInventory[7] == 0x1E)

  00a28	66 83 ff 03	 cmp	 di, 3
  00a2c	72 06		 jb	 SHORT $LN53@JGPGetChar
  00a2e	66 83 ff 06	 cmp	 di, 6
  00a32	76 06		 jbe	 SHORT $LN142@JGPGetChar
$LN53@JGPGetChar:
  00a34	66 83 ff 1e	 cmp	 di, 30			; 0000001eH
  00a38	75 32		 jne	 SHORT $LN51@JGPGetChar
$LN142@JGPGetChar:

; 814  : 				{
; 815  : 					pCList.CharSet[5] |= 0x0C;

  00a3a	8a 85 af fe ff
	ff		 mov	 al, BYTE PTR _index$[ebp]
  00a40	0c 0c		 or	 al, 12			; 0000000cH
  00a42	88 85 dc fe ff
	ff		 mov	 BYTE PTR _pCList$[ebp+20], al

; 816  : 
; 817  : 					if (TempInventory[7] == 0x1E)

  00a48	66 83 ff 1e	 cmp	 di, 30			; 0000001eH
  00a4c	75 09		 jne	 SHORT $LN52@JGPGetChar

; 818  : 					{
; 819  : 						pCList.CharSet[9] |= 0x05;

  00a4e	80 8d e0 fe ff
	ff 05		 or	 BYTE PTR _pCList$[ebp+24], 5

; 820  : 					}
; 821  : 					else

  00a55	eb 15		 jmp	 SHORT $LN51@JGPGetChar
$LN52@JGPGetChar:

; 822  : 					{
; 823  : 						pCList.CharSet[9] |= (TempInventory[7] - 2) & 0x07;

  00a57	8a 85 be fe ff
	ff		 mov	 al, BYTE PTR _TempInventory$[ebp+14]
  00a5d	2c 02		 sub	 al, 2
  00a5f	24 07		 and	 al, 7
  00a61	08 85 e0 fe ff
	ff		 or	 BYTE PTR _pCList$[ebp+24], al
  00a67	ba 1f 00 00 00	 mov	 edx, 31			; 0000001fH
$LN51@JGPGetChar:

; 824  : 					}
; 825  : 				}
; 826  : 
; 827  : 				pCList.CharSet[10] = 0;
; 828  : 
; 829  : 				if ((TempInventory[8] & 0x03) != 0 && TempInventory[8] != 0x1F)

  00a6c	f6 85 c0 fe ff
	ff 03		 test	 BYTE PTR _TempInventory$[ebp+16], 3
  00a73	c6 85 e1 fe ff
	ff 00		 mov	 BYTE PTR _pCList$[ebp+25], 0
  00a7a	74 10		 je	 SHORT $LN148@JGPGetChar
  00a7c	66 39 95 c0 fe
	ff ff		 cmp	 WORD PTR _TempInventory$[ebp+16], dx
  00a83	74 07		 je	 SHORT $LN148@JGPGetChar

; 830  : 					pCList.CharSet[10] |= 1;

  00a85	c6 85 e1 fe ff
	ff 01		 mov	 BYTE PTR _pCList$[ebp+25], 1
$LN148@JGPGetChar:

; 831  : 
; 832  : 				pCList.CharSet[11] = 0;
; 833  : 
; 834  : 				if ((TempInventory[8] & 0x04) != 0 && TempInventory[8] != 0x1F)

  00a8c	66 83 bd a8 fe
	ff ff 00	 cmp	 WORD PTR tv2877[ebp], 0
  00a94	c6 85 e2 fe ff
	ff 00		 mov	 BYTE PTR _pCList$[ebp+26], 0
  00a9b	74 10		 je	 SHORT $LN49@JGPGetChar
  00a9d	66 39 95 c0 fe
	ff ff		 cmp	 WORD PTR _TempInventory$[ebp+16], dx
  00aa4	74 07		 je	 SHORT $LN49@JGPGetChar

; 835  : 					pCList.CharSet[12] |= 1;

  00aa6	80 8d e3 fe ff
	ff 01		 or	 BYTE PTR _pCList$[ebp+27], 1
$LN49@JGPGetChar:

; 836  : 
; 837  : 				if (TempInventory[2] >= 0x1F) pCList.CharSet[13] |= 0x0F;

  00aad	66 3b f2	 cmp	 si, dx
  00ab0	72 07		 jb	 SHORT $LN48@JGPGetChar
  00ab2	80 8d e4 fe ff
	ff 0f		 or	 BYTE PTR _pCList$[ebp+28], 15 ; 0000000fH
$LN48@JGPGetChar:

; 838  : 				if (TempInventory[3] >= 0x1F) pCList.CharSet[14] |= 0xF0;

  00ab9	66 39 95 b6 fe
	ff ff		 cmp	 WORD PTR _TempInventory$[ebp+6], dx
  00ac0	72 07		 jb	 SHORT $LN139@JGPGetChar
  00ac2	80 8d e5 fe ff
	ff f0		 or	 BYTE PTR _pCList$[ebp+29], 240 ; 000000f0H
$LN139@JGPGetChar:

; 839  : 				if (TempInventory[4] >= 0x1F) pCList.CharSet[14] |= 0x0F;

  00ac9	66 39 95 b8 fe
	ff ff		 cmp	 WORD PTR _TempInventory$[ebp+8], dx
  00ad0	72 07		 jb	 SHORT $LN46@JGPGetChar
  00ad2	80 8d e5 fe ff
	ff 0f		 or	 BYTE PTR _pCList$[ebp+29], 15 ; 0000000fH
$LN46@JGPGetChar:

; 840  : 				if (TempInventory[5] >= 0x1F) pCList.CharSet[15] |= 0xF0;

  00ad9	66 39 95 ba fe
	ff ff		 cmp	 WORD PTR _TempInventory$[ebp+10], dx
  00ae0	72 07		 jb	 SHORT $LN140@JGPGetChar
  00ae2	80 8d e6 fe ff
	ff f0		 or	 BYTE PTR _pCList$[ebp+30], 240 ; 000000f0H
$LN140@JGPGetChar:

; 841  : 				if (TempInventory[6] >= 0x1F) pCList.CharSet[15] |= 0x0F;

  00ae9	66 3b ca	 cmp	 cx, dx
  00aec	72 07		 jb	 SHORT $LN44@JGPGetChar
  00aee	80 8d e6 fe ff
	ff 0f		 or	 BYTE PTR _pCList$[ebp+30], 15 ; 0000000fH
$LN44@JGPGetChar:

; 842  : 
; 843  : 				pCList.CharSet[16] = 0;

  00af5	66 c7 85 e7 fe
	ff ff 00 00	 mov	 WORD PTR _pCList$[ebp+31], 0

; 844  : 				pCList.CharSet[17] = 0;
; 845  : 			}
; 846  : 			else	// Case DB 3

  00afe	e9 48 07 00 00	 jmp	 $LN1@JGPGetChar
$LN96@JGPGetChar:

; 847  : 			{
; 848  : 				if (lpCL->dbInventory[0] == (BYTE)-1 && (lpCL->dbInventory[2] & 0x80) == 0x80 && (lpCL->dbInventory[3] & 0xF0) == 0xF0)

  00b03	8a 44 33 10	 mov	 al, BYTE PTR [ebx+esi+16]
  00b07	3c ff		 cmp	 al, 255			; 000000ffH
  00b09	75 21		 jne	 SHORT $LN42@JGPGetChar
  00b0b	f6 44 33 12 80	 test	 BYTE PTR [ebx+esi+18], 128 ; 00000080H
  00b10	74 1a		 je	 SHORT $LN42@JGPGetChar
  00b12	8a 54 33 13	 mov	 dl, BYTE PTR [ebx+esi+19]
  00b16	80 e2 f0	 and	 dl, 240			; 000000f0H
  00b19	80 fa f0	 cmp	 dl, 240			; 000000f0H
  00b1c	75 0e		 jne	 SHORT $LN42@JGPGetChar

; 849  : 				{
; 850  : 					TempInventory[0] = -1;

  00b1e	b8 ff ff 00 00	 mov	 eax, 65535		; 0000ffffH
  00b23	66 89 85 b0 fe
	ff ff		 mov	 WORD PTR _TempInventory$[ebp], ax

; 851  : 				}
; 852  : 				else

  00b2a	eb 2e		 jmp	 SHORT $LN41@JGPGetChar
$LN42@JGPGetChar:

; 853  : 				{
; 854  : 					TempInventory[0] = (lpCL->dbInventory[0] + (lpCL->dbInventory[2] & 0x80) * 2) + (lpCL->dbInventory[3] & 0xF0) * 32;

  00b2c	8a 4c 33 13	 mov	 cl, BYTE PTR [ebx+esi+19]
  00b30	80 e1 f0	 and	 cl, 240			; 000000f0H
  00b33	0f b6 d1	 movzx	 edx, cl
  00b36	66 c1 e2 04	 shl	 dx, 4
  00b3a	66 8b ca	 mov	 cx, dx
  00b3d	8a 54 33 12	 mov	 dl, BYTE PTR [ebx+esi+18]
  00b41	80 e2 80	 and	 dl, 128			; 00000080H
  00b44	0f b6 d2	 movzx	 edx, dl
  00b47	66 03 ca	 add	 cx, dx
  00b4a	0f b6 c0	 movzx	 eax, al
  00b4d	66 03 c9	 add	 cx, cx
  00b50	66 03 c8	 add	 cx, ax
  00b53	66 89 8d b0 fe
	ff ff		 mov	 WORD PTR _TempInventory$[ebp], cx
$LN41@JGPGetChar:

; 855  : 				}
; 856  : 
; 857  : 				if (lpCL->dbInventory[4] == (BYTE)-1 && (lpCL->dbInventory[6] & 0x80) == 0x80 && (lpCL->dbInventory[7] & 0xF0) == 0xF0)

  00b5a	8a 44 33 14	 mov	 al, BYTE PTR [ebx+esi+20]
  00b5e	3c ff		 cmp	 al, 255			; 000000ffH
  00b60	75 21		 jne	 SHORT $LN40@JGPGetChar
  00b62	f6 44 33 16 80	 test	 BYTE PTR [ebx+esi+22], 128 ; 00000080H
  00b67	74 1a		 je	 SHORT $LN40@JGPGetChar
  00b69	8a 4c 33 17	 mov	 cl, BYTE PTR [ebx+esi+23]
  00b6d	80 e1 f0	 and	 cl, 240			; 000000f0H
  00b70	80 f9 f0	 cmp	 cl, 240			; 000000f0H
  00b73	75 0e		 jne	 SHORT $LN40@JGPGetChar

; 858  : 				{
; 859  : 					TempInventory[1] = -1;

  00b75	ba ff ff 00 00	 mov	 edx, 65535		; 0000ffffH
  00b7a	66 89 95 b2 fe
	ff ff		 mov	 WORD PTR _TempInventory$[ebp+2], dx

; 860  : 				}
; 861  : 				else

  00b81	eb 2e		 jmp	 SHORT $LN39@JGPGetChar
$LN40@JGPGetChar:

; 862  : 				{
; 863  : 					TempInventory[1] = (lpCL->dbInventory[4] + (lpCL->dbInventory[6] & 0x80) * 2) + (lpCL->dbInventory[7] & 0xF0) * 32;

  00b83	8a 4c 33 17	 mov	 cl, BYTE PTR [ebx+esi+23]
  00b87	80 e1 f0	 and	 cl, 240			; 000000f0H
  00b8a	0f b6 d1	 movzx	 edx, cl
  00b8d	66 c1 e2 04	 shl	 dx, 4
  00b91	66 8b ca	 mov	 cx, dx
  00b94	8a 54 33 16	 mov	 dl, BYTE PTR [ebx+esi+22]
  00b98	80 e2 80	 and	 dl, 128			; 00000080H
  00b9b	0f b6 d2	 movzx	 edx, dl
  00b9e	66 03 ca	 add	 cx, dx
  00ba1	0f b6 c0	 movzx	 eax, al
  00ba4	66 03 c9	 add	 cx, cx
  00ba7	66 03 c8	 add	 cx, ax
  00baa	66 89 8d b2 fe
	ff ff		 mov	 WORD PTR _TempInventory$[ebp+2], cx
$LN39@JGPGetChar:

; 864  : 				}
; 865  : 
; 866  : 				if (lpCL->dbInventory[8] == (BYTE)-1 && (lpCL->dbInventory[10] & 0x80) == 0x80 && (lpCL->dbInventory[11] & 0xF0) == 0xF0)

  00bb1	8a 44 33 18	 mov	 al, BYTE PTR [ebx+esi+24]
  00bb5	3c ff		 cmp	 al, 255			; 000000ffH
  00bb7	75 21		 jne	 SHORT $LN38@JGPGetChar
  00bb9	f6 44 33 1a 80	 test	 BYTE PTR [ebx+esi+26], 128 ; 00000080H
  00bbe	74 1a		 je	 SHORT $LN38@JGPGetChar
  00bc0	8a 4c 33 1b	 mov	 cl, BYTE PTR [ebx+esi+27]
  00bc4	80 e1 f0	 and	 cl, 240			; 000000f0H
  00bc7	80 f9 f0	 cmp	 cl, 240			; 000000f0H
  00bca	75 0e		 jne	 SHORT $LN38@JGPGetChar

; 867  : 				{
; 868  : 					TempInventory[2] = 0x1FF;

  00bcc	ba ff 01 00 00	 mov	 edx, 511		; 000001ffH
  00bd1	66 89 95 b4 fe
	ff ff		 mov	 WORD PTR _TempInventory$[ebp+4], dx

; 869  : 				}
; 870  : 				else

  00bd8	eb 38		 jmp	 SHORT $LN37@JGPGetChar
$LN38@JGPGetChar:

; 871  : 				{
; 872  : 					TempInventory[2] = ((lpCL->dbInventory[8] + (lpCL->dbInventory[10] & 0x80) * 2) + (lpCL->dbInventory[11] & 0xF0) * 32) % MAX_SUBTYPE_ITEMS;

  00bda	0f b6 4c 33 1b	 movzx	 ecx, BYTE PTR [ebx+esi+27]
  00bdf	0f b6 54 33 1a	 movzx	 edx, BYTE PTR [ebx+esi+26]
  00be4	81 e1 f0 00 00
	00		 and	 ecx, 240		; 000000f0H
  00bea	c1 e1 04	 shl	 ecx, 4
  00bed	81 e2 80 00 00
	00		 and	 edx, 128		; 00000080H
  00bf3	0f b6 c0	 movzx	 eax, al
  00bf6	03 ca		 add	 ecx, edx
  00bf8	8d 0c 48	 lea	 ecx, DWORD PTR [eax+ecx*2]
  00bfb	81 e1 ff 01 00
	80		 and	 ecx, -2147483137	; 800001ffH
  00c01	79 08		 jns	 SHORT $LN174@JGPGetChar
  00c03	49		 dec	 ecx
  00c04	81 c9 00 fe ff
	ff		 or	 ecx, -512		; fffffe00H
  00c0a	41		 inc	 ecx
$LN174@JGPGetChar:
  00c0b	66 89 8d b4 fe
	ff ff		 mov	 WORD PTR _TempInventory$[ebp+4], cx
$LN37@JGPGetChar:

; 873  : 				}
; 874  : 
; 875  : 				if (lpCL->dbInventory[12] == (BYTE)-1 && (lpCL->dbInventory[14] & 0x80) == 0x80 && (lpCL->dbInventory[15] & 0xF0) == 0xF0)

  00c12	8a 44 33 1c	 mov	 al, BYTE PTR [ebx+esi+28]
  00c16	3c ff		 cmp	 al, 255			; 000000ffH
  00c18	75 21		 jne	 SHORT $LN36@JGPGetChar
  00c1a	f6 44 33 1e 80	 test	 BYTE PTR [ebx+esi+30], 128 ; 00000080H
  00c1f	74 1a		 je	 SHORT $LN36@JGPGetChar
  00c21	8a 54 33 1f	 mov	 dl, BYTE PTR [ebx+esi+31]
  00c25	80 e2 f0	 and	 dl, 240			; 000000f0H
  00c28	80 fa f0	 cmp	 dl, 240			; 000000f0H
  00c2b	75 0e		 jne	 SHORT $LN36@JGPGetChar

; 876  : 				{
; 877  : 					TempInventory[3] = 0x1FF;

  00c2d	b8 ff 01 00 00	 mov	 eax, 511		; 000001ffH
  00c32	66 89 85 b6 fe
	ff ff		 mov	 WORD PTR _TempInventory$[ebp+6], ax

; 878  : 				}
; 879  : 				else

  00c39	eb 38		 jmp	 SHORT $LN35@JGPGetChar
$LN36@JGPGetChar:

; 880  : 				{
; 881  : 					TempInventory[3] = ((lpCL->dbInventory[12] + (lpCL->dbInventory[14] & 0x80) * 2) + (lpCL->dbInventory[15] & 0xF0) * 32) % MAX_SUBTYPE_ITEMS;

  00c3b	0f b6 4c 33 1f	 movzx	 ecx, BYTE PTR [ebx+esi+31]
  00c40	0f b6 54 33 1e	 movzx	 edx, BYTE PTR [ebx+esi+30]
  00c45	81 e1 f0 00 00
	00		 and	 ecx, 240		; 000000f0H
  00c4b	c1 e1 04	 shl	 ecx, 4
  00c4e	81 e2 80 00 00
	00		 and	 edx, 128		; 00000080H
  00c54	0f b6 c0	 movzx	 eax, al
  00c57	03 ca		 add	 ecx, edx
  00c59	8d 0c 48	 lea	 ecx, DWORD PTR [eax+ecx*2]
  00c5c	81 e1 ff 01 00
	80		 and	 ecx, -2147483137	; 800001ffH
  00c62	79 08		 jns	 SHORT $LN175@JGPGetChar
  00c64	49		 dec	 ecx
  00c65	81 c9 00 fe ff
	ff		 or	 ecx, -512		; fffffe00H
  00c6b	41		 inc	 ecx
$LN175@JGPGetChar:
  00c6c	66 89 8d b6 fe
	ff ff		 mov	 WORD PTR _TempInventory$[ebp+6], cx
$LN35@JGPGetChar:

; 882  : 				}
; 883  : 
; 884  : 				if (lpCL->dbInventory[16] == (BYTE)-1 && (lpCL->dbInventory[18] & 0x80) == 0x80 && (lpCL->dbInventory[19] & 0xF0) == 0xF0)

  00c73	8a 44 33 20	 mov	 al, BYTE PTR [ebx+esi+32]
  00c77	3c ff		 cmp	 al, 255			; 000000ffH
  00c79	75 21		 jne	 SHORT $LN34@JGPGetChar
  00c7b	f6 44 33 22 80	 test	 BYTE PTR [ebx+esi+34], 128 ; 00000080H
  00c80	74 1a		 je	 SHORT $LN34@JGPGetChar
  00c82	8a 54 33 23	 mov	 dl, BYTE PTR [ebx+esi+35]
  00c86	80 e2 f0	 and	 dl, 240			; 000000f0H
  00c89	80 fa f0	 cmp	 dl, 240			; 000000f0H
  00c8c	75 0e		 jne	 SHORT $LN34@JGPGetChar

; 885  : 				{
; 886  : 					TempInventory[4] = 0x1FF;

  00c8e	b8 ff 01 00 00	 mov	 eax, 511		; 000001ffH
  00c93	66 89 85 b8 fe
	ff ff		 mov	 WORD PTR _TempInventory$[ebp+8], ax

; 887  : 				}
; 888  : 				else

  00c9a	eb 38		 jmp	 SHORT $LN33@JGPGetChar
$LN34@JGPGetChar:

; 889  : 				{
; 890  : 					TempInventory[4] = ((lpCL->dbInventory[16] + (lpCL->dbInventory[18] & 0x80) * 2) + (lpCL->dbInventory[19] & 0xF0) * 32) % MAX_SUBTYPE_ITEMS;

  00c9c	0f b6 4c 33 23	 movzx	 ecx, BYTE PTR [ebx+esi+35]
  00ca1	0f b6 54 33 22	 movzx	 edx, BYTE PTR [ebx+esi+34]
  00ca6	81 e1 f0 00 00
	00		 and	 ecx, 240		; 000000f0H
  00cac	c1 e1 04	 shl	 ecx, 4
  00caf	81 e2 80 00 00
	00		 and	 edx, 128		; 00000080H
  00cb5	0f b6 c0	 movzx	 eax, al
  00cb8	03 ca		 add	 ecx, edx
  00cba	8d 0c 48	 lea	 ecx, DWORD PTR [eax+ecx*2]
  00cbd	81 e1 ff 01 00
	80		 and	 ecx, -2147483137	; 800001ffH
  00cc3	79 08		 jns	 SHORT $LN176@JGPGetChar
  00cc5	49		 dec	 ecx
  00cc6	81 c9 00 fe ff
	ff		 or	 ecx, -512		; fffffe00H
  00ccc	41		 inc	 ecx
$LN176@JGPGetChar:
  00ccd	66 89 8d b8 fe
	ff ff		 mov	 WORD PTR _TempInventory$[ebp+8], cx
$LN33@JGPGetChar:

; 891  : 				}
; 892  : 
; 893  : 				if (lpCL->dbInventory[20] == (BYTE)-1 && (lpCL->dbInventory[22] & 0x80) == 0x80 && (lpCL->dbInventory[23] & 0xF0) == 0xF0)

  00cd4	8a 44 33 24	 mov	 al, BYTE PTR [ebx+esi+36]
  00cd8	3c ff		 cmp	 al, 255			; 000000ffH
  00cda	75 21		 jne	 SHORT $LN32@JGPGetChar
  00cdc	f6 44 33 26 80	 test	 BYTE PTR [ebx+esi+38], 128 ; 00000080H
  00ce1	74 1a		 je	 SHORT $LN32@JGPGetChar
  00ce3	8a 54 33 27	 mov	 dl, BYTE PTR [ebx+esi+39]
  00ce7	80 e2 f0	 and	 dl, 240			; 000000f0H
  00cea	80 fa f0	 cmp	 dl, 240			; 000000f0H
  00ced	75 0e		 jne	 SHORT $LN32@JGPGetChar

; 894  : 				{
; 895  : 					TempInventory[5] = 0x1FF;

  00cef	b8 ff 01 00 00	 mov	 eax, 511		; 000001ffH
  00cf4	66 89 85 ba fe
	ff ff		 mov	 WORD PTR _TempInventory$[ebp+10], ax

; 896  : 				}
; 897  : 				else

  00cfb	eb 38		 jmp	 SHORT $LN31@JGPGetChar
$LN32@JGPGetChar:

; 898  : 				{
; 899  : 					TempInventory[5] = ((lpCL->dbInventory[20] + (lpCL->dbInventory[22] & 0x80) * 2) + (lpCL->dbInventory[23] & 0xF0) * 32) % MAX_SUBTYPE_ITEMS;

  00cfd	0f b6 4c 33 27	 movzx	 ecx, BYTE PTR [ebx+esi+39]
  00d02	0f b6 54 33 26	 movzx	 edx, BYTE PTR [ebx+esi+38]
  00d07	81 e1 f0 00 00
	00		 and	 ecx, 240		; 000000f0H
  00d0d	c1 e1 04	 shl	 ecx, 4
  00d10	81 e2 80 00 00
	00		 and	 edx, 128		; 00000080H
  00d16	0f b6 c0	 movzx	 eax, al
  00d19	03 ca		 add	 ecx, edx
  00d1b	8d 0c 48	 lea	 ecx, DWORD PTR [eax+ecx*2]
  00d1e	81 e1 ff 01 00
	80		 and	 ecx, -2147483137	; 800001ffH
  00d24	79 08		 jns	 SHORT $LN177@JGPGetChar
  00d26	49		 dec	 ecx
  00d27	81 c9 00 fe ff
	ff		 or	 ecx, -512		; fffffe00H
  00d2d	41		 inc	 ecx
$LN177@JGPGetChar:
  00d2e	66 89 8d ba fe
	ff ff		 mov	 WORD PTR _TempInventory$[ebp+10], cx
$LN31@JGPGetChar:

; 900  : 				}
; 901  : 
; 902  : 				if (lpCL->dbInventory[24] == (BYTE)-1 && (lpCL->dbInventory[26] & 0x80) == 0x80 && (lpCL->dbInventory[27] & 0xF0) == 0xF0)

  00d35	8a 44 33 28	 mov	 al, BYTE PTR [ebx+esi+40]
  00d39	3c ff		 cmp	 al, 255			; 000000ffH
  00d3b	75 21		 jne	 SHORT $LN30@JGPGetChar
  00d3d	f6 44 33 2a 80	 test	 BYTE PTR [ebx+esi+42], 128 ; 00000080H
  00d42	74 1a		 je	 SHORT $LN30@JGPGetChar
  00d44	8a 54 33 2b	 mov	 dl, BYTE PTR [ebx+esi+43]
  00d48	80 e2 f0	 and	 dl, 240			; 000000f0H
  00d4b	80 fa f0	 cmp	 dl, 240			; 000000f0H
  00d4e	75 0e		 jne	 SHORT $LN30@JGPGetChar

; 903  : 				{
; 904  : 					TempInventory[6] = 0x1FF;

  00d50	b8 ff 01 00 00	 mov	 eax, 511		; 000001ffH
  00d55	66 89 85 bc fe
	ff ff		 mov	 WORD PTR _TempInventory$[ebp+12], ax

; 905  : 				}
; 906  : 				else

  00d5c	eb 38		 jmp	 SHORT $LN29@JGPGetChar
$LN30@JGPGetChar:

; 907  : 				{
; 908  : 					TempInventory[6] = ((lpCL->dbInventory[24] + (lpCL->dbInventory[26] & 0x80) * 2) + (lpCL->dbInventory[27] & 0xF0) * 32) % MAX_SUBTYPE_ITEMS;

  00d5e	0f b6 4c 33 2b	 movzx	 ecx, BYTE PTR [ebx+esi+43]
  00d63	0f b6 54 33 2a	 movzx	 edx, BYTE PTR [ebx+esi+42]
  00d68	81 e1 f0 00 00
	00		 and	 ecx, 240		; 000000f0H
  00d6e	c1 e1 04	 shl	 ecx, 4
  00d71	81 e2 80 00 00
	00		 and	 edx, 128		; 00000080H
  00d77	0f b6 c0	 movzx	 eax, al
  00d7a	03 ca		 add	 ecx, edx
  00d7c	8d 0c 48	 lea	 ecx, DWORD PTR [eax+ecx*2]
  00d7f	81 e1 ff 01 00
	80		 and	 ecx, -2147483137	; 800001ffH
  00d85	79 08		 jns	 SHORT $LN178@JGPGetChar
  00d87	49		 dec	 ecx
  00d88	81 c9 00 fe ff
	ff		 or	 ecx, -512		; fffffe00H
  00d8e	41		 inc	 ecx
$LN178@JGPGetChar:
  00d8f	66 89 8d bc fe
	ff ff		 mov	 WORD PTR _TempInventory$[ebp+12], cx
$LN29@JGPGetChar:

; 909  : 				}
; 910  : 
; 911  : 				if (lpCL->dbInventory[28] == (BYTE)-1 && (lpCL->dbInventory[30] & 0x80) == 0x80 && (lpCL->dbInventory[31] & 0xF0) == 0xF0)

  00d96	8a 44 33 2c	 mov	 al, BYTE PTR [ebx+esi+44]
  00d9a	3c ff		 cmp	 al, 255			; 000000ffH
  00d9c	75 1a		 jne	 SHORT $LN28@JGPGetChar
  00d9e	f6 44 33 2e 80	 test	 BYTE PTR [ebx+esi+46], 128 ; 00000080H
  00da3	74 13		 je	 SHORT $LN28@JGPGetChar
  00da5	8a 54 33 2f	 mov	 dl, BYTE PTR [ebx+esi+47]
  00da9	80 e2 f0	 and	 dl, 240			; 000000f0H
  00dac	80 fa f0	 cmp	 dl, 240			; 000000f0H
  00daf	75 07		 jne	 SHORT $LN28@JGPGetChar

; 912  : 				{
; 913  : 					TempInventory[7] = 0x1FF;

  00db1	bf ff 01 00 00	 mov	 edi, 511		; 000001ffH

; 914  : 				}
; 915  : 				else

  00db6	eb 31		 jmp	 SHORT $LN179@JGPGetChar
$LN28@JGPGetChar:

; 916  : 				{
; 917  : 					TempInventory[7] = ((lpCL->dbInventory[28] + (lpCL->dbInventory[30] & 0x80) * 2) + (lpCL->dbInventory[31] & 0xF0) * 32) % MAX_SUBTYPE_ITEMS;

  00db8	0f b6 4c 33 2f	 movzx	 ecx, BYTE PTR [ebx+esi+47]
  00dbd	0f b6 54 33 2e	 movzx	 edx, BYTE PTR [ebx+esi+46]
  00dc2	81 e1 f0 00 00
	00		 and	 ecx, 240		; 000000f0H
  00dc8	c1 e1 04	 shl	 ecx, 4
  00dcb	81 e2 80 00 00
	00		 and	 edx, 128		; 00000080H
  00dd1	0f b6 c0	 movzx	 eax, al
  00dd4	03 ca		 add	 ecx, edx
  00dd6	8d 3c 48	 lea	 edi, DWORD PTR [eax+ecx*2]
  00dd9	81 e7 ff 01 00
	80		 and	 edi, -2147483137	; 800001ffH
  00ddf	79 08		 jns	 SHORT $LN179@JGPGetChar
  00de1	4f		 dec	 edi
  00de2	81 cf 00 fe ff
	ff		 or	 edi, -512		; fffffe00H
  00de8	47		 inc	 edi
$LN179@JGPGetChar:

; 918  : 				}
; 919  : 
; 920  : 				if (lpCL->dbInventory[32] == (BYTE)-1 && (lpCL->dbInventory[34] & 0x80) == 0x80 && (lpCL->dbInventory[35] & 0xF0) == 0xF0)

  00de9	8a 44 33 30	 mov	 al, BYTE PTR [ebx+esi+48]
  00ded	66 89 bd be fe
	ff ff		 mov	 WORD PTR _TempInventory$[ebp+14], di
  00df4	3c ff		 cmp	 al, 255			; 000000ffH
  00df6	75 2b		 jne	 SHORT $LN26@JGPGetChar
  00df8	f6 44 33 32 80	 test	 BYTE PTR [ebx+esi+50], 128 ; 00000080H
  00dfd	8d 4c 33 32	 lea	 ecx, DWORD PTR [ebx+esi+50]
  00e01	89 8d 9c fe ff
	ff		 mov	 DWORD PTR tv3267[ebp], ecx
  00e07	74 1a		 je	 SHORT $LN26@JGPGetChar
  00e09	8a 54 33 33	 mov	 dl, BYTE PTR [ebx+esi+51]
  00e0d	80 e2 f0	 and	 dl, 240			; 000000f0H
  00e10	80 fa f0	 cmp	 dl, 240			; 000000f0H
  00e13	75 0e		 jne	 SHORT $LN26@JGPGetChar

; 921  : 				{
; 922  : 					TempInventory[8] = 0x1FF;

  00e15	b8 ff 01 00 00	 mov	 eax, 511		; 000001ffH
  00e1a	66 89 85 c0 fe
	ff ff		 mov	 WORD PTR _TempInventory$[ebp+16], ax

; 923  : 				}
; 924  : 				else

  00e21	eb 40		 jmp	 SHORT $LN25@JGPGetChar
$LN26@JGPGetChar:

; 925  : 				{
; 926  : 					TempInventory[8] = ((lpCL->dbInventory[32] + (lpCL->dbInventory[34] & 0x80) * 2) + (lpCL->dbInventory[35] & 0xF0) * 32) % MAX_SUBTYPE_ITEMS;

  00e23	0f b6 54 33 33	 movzx	 edx, BYTE PTR [ebx+esi+51]
  00e28	8d 4c 33 32	 lea	 ecx, DWORD PTR [ebx+esi+50]
  00e2c	89 8d 9c fe ff
	ff		 mov	 DWORD PTR tv3267[ebp], ecx
  00e32	0f b6 09	 movzx	 ecx, BYTE PTR [ecx]
  00e35	81 e2 f0 00 00
	00		 and	 edx, 240		; 000000f0H
  00e3b	81 e1 80 00 00
	00		 and	 ecx, 128		; 00000080H
  00e41	c1 e2 04	 shl	 edx, 4
  00e44	0f b6 c0	 movzx	 eax, al
  00e47	03 d1		 add	 edx, ecx
  00e49	8d 0c 50	 lea	 ecx, DWORD PTR [eax+edx*2]
  00e4c	81 e1 ff 01 00
	80		 and	 ecx, -2147483137	; 800001ffH
  00e52	79 08		 jns	 SHORT $LN180@JGPGetChar
  00e54	49		 dec	 ecx
  00e55	81 c9 00 fe ff
	ff		 or	 ecx, -512		; fffffe00H
  00e5b	41		 inc	 ecx
$LN180@JGPGetChar:
  00e5c	66 89 8d c0 fe
	ff ff		 mov	 WORD PTR _TempInventory$[ebp+16], cx
$LN25@JGPGetChar:

; 927  : 				}
; 928  : 
; 929  : 				pCList.CharSet[12] |= DBI_GET_TYPE(TempInventory[0]);

  00e63	8b 95 b0 fe ff
	ff		 mov	 edx, DWORD PTR _TempInventory$[ebp]

; 930  : 				pCList.CharSet[1] = TempInventory[0] % 256;

  00e69	0f b7 85 b0 fe
	ff ff		 movzx	 eax, WORD PTR _TempInventory$[ebp]
  00e70	c1 ea 04	 shr	 edx, 4
  00e73	80 e2 f0	 and	 dl, 240			; 000000f0H
  00e76	08 95 e3 fe ff
	ff		 or	 BYTE PTR _pCList$[ebp+27], dl
  00e7c	25 ff 00 00 80	 and	 eax, -2147483393	; 800000ffH
  00e81	79 07		 jns	 SHORT $LN181@JGPGetChar
  00e83	48		 dec	 eax
  00e84	0d 00 ff ff ff	 or	 eax, -256		; ffffff00H
  00e89	40		 inc	 eax
$LN181@JGPGetChar:

; 931  : 
; 932  : 				pCList.CharSet[13] |= DBI_GET_TYPE(TempInventory[1]);

  00e8a	8b 8d b2 fe ff
	ff		 mov	 ecx, DWORD PTR _TempInventory$[ebp+2]

; 933  : 				pCList.CharSet[2] = TempInventory[1] % 256;

  00e90	0f b7 95 b2 fe
	ff ff		 movzx	 edx, WORD PTR _TempInventory$[ebp+2]
  00e97	c1 e9 04	 shr	 ecx, 4
  00e9a	88 85 d8 fe ff
	ff		 mov	 BYTE PTR _pCList$[ebp+16], al
  00ea0	8a 85 e4 fe ff
	ff		 mov	 al, BYTE PTR _pCList$[ebp+28]
  00ea6	80 e1 f0	 and	 cl, 240			; 000000f0H
  00ea9	0a c1		 or	 al, cl
  00eab	81 e2 ff 00 00
	80		 and	 edx, -2147483393	; 800000ffH
  00eb1	79 08		 jns	 SHORT $LN182@JGPGetChar
  00eb3	4a		 dec	 edx
  00eb4	81 ca 00 ff ff
	ff		 or	 edx, -256		; ffffff00H
  00eba	42		 inc	 edx
$LN182@JGPGetChar:

; 934  : 
; 935  : 				pCList.CharSet[13] |= (int)(TempInventory[2] & 0x1E0) >> 5;

  00ebb	8b 8d b4 fe ff
	ff		 mov	 ecx, DWORD PTR _TempInventory$[ebp+4]
  00ec1	c1 e9 05	 shr	 ecx, 5
  00ec4	80 e1 0f	 and	 cl, 15			; 0000000fH
  00ec7	0a c1		 or	 al, cl
  00ec9	88 85 e4 fe ff
	ff		 mov	 BYTE PTR _pCList$[ebp+28], al

; 936  : 				pCList.CharSet[9] |= (int)(TempInventory[2] & 0x10) << 3;

  00ecf	8a 85 b4 fe ff
	ff		 mov	 al, BYTE PTR _TempInventory$[ebp+4]
  00ed5	8a c8		 mov	 cl, al

; 937  : 				pCList.CharSet[3] |= (int)(TempInventory[2] & 0x0F) << 4;

  00ed7	c0 e0 04	 shl	 al, 4
  00eda	08 85 da fe ff
	ff		 or	 BYTE PTR _pCList$[ebp+18], al

; 938  : 
; 939  : 				pCList.CharSet[14] |= (int)(TempInventory[3] & 0x1E0) >> 1;
; 940  : 				pCList.CharSet[9] |= (int)(TempInventory[3] & 0x10) << 2;

  00ee0	8a 85 b6 fe ff
	ff		 mov	 al, BYTE PTR _TempInventory$[ebp+6]
  00ee6	88 95 d9 fe ff
	ff		 mov	 BYTE PTR _pCList$[ebp+17], dl
  00eec	8b 95 b6 fe ff
	ff		 mov	 edx, DWORD PTR _TempInventory$[ebp+6]
  00ef2	d1 ea		 shr	 edx, 1
  00ef4	80 e2 f0	 and	 dl, 240			; 000000f0H
  00ef7	08 95 e5 fe ff
	ff		 or	 BYTE PTR _pCList$[ebp+29], dl
  00efd	8a d0		 mov	 dl, al

; 941  : 				pCList.CharSet[3] |= (int)(TempInventory[3] & 0x0F);

  00eff	24 0f		 and	 al, 15			; 0000000fH
  00f01	08 85 da fe ff
	ff		 or	 BYTE PTR _pCList$[ebp+18], al

; 942  : 
; 943  : 				pCList.CharSet[14] |= (int)(TempInventory[4] & 0x1E0) >> 5;

  00f07	8b 85 b8 fe ff
	ff		 mov	 eax, DWORD PTR _TempInventory$[ebp+8]
  00f0d	c1 e8 05	 shr	 eax, 5
  00f10	24 0f		 and	 al, 15			; 0000000fH
  00f12	08 85 e5 fe ff
	ff		 or	 BYTE PTR _pCList$[ebp+29], al

; 944  : 				pCList.CharSet[9] |= (int)(TempInventory[4] & 0x10) << 1;

  00f18	8a 85 b8 fe ff
	ff		 mov	 al, BYTE PTR _TempInventory$[ebp+8]
  00f1e	80 e2 10	 and	 dl, 16			; 00000010H
  00f21	80 e1 f0	 and	 cl, 240			; 000000f0H
  00f24	02 d2		 add	 dl, dl
  00f26	02 c9		 add	 cl, cl
  00f28	02 d2		 add	 dl, dl
  00f2a	02 c9		 add	 cl, cl
  00f2c	02 c9		 add	 cl, cl
  00f2e	0a ca		 or	 cl, dl
  00f30	8a d0		 mov	 dl, al

; 945  : 				pCList.CharSet[4] |= (int)(TempInventory[4] & 0x0F) << 4;

  00f32	c0 e0 04	 shl	 al, 4
  00f35	08 85 db fe ff
	ff		 or	 BYTE PTR _pCList$[ebp+19], al

; 946  : 
; 947  : 				pCList.CharSet[15] |= (int)(TempInventory[5] & 0x1E0) >> 1;

  00f3b	8b 85 ba fe ff
	ff		 mov	 eax, DWORD PTR _TempInventory$[ebp+10]
  00f41	d1 e8		 shr	 eax, 1
  00f43	24 f0		 and	 al, 240			; 000000f0H
  00f45	08 85 e6 fe ff
	ff		 or	 BYTE PTR _pCList$[ebp+30], al

; 948  : 				pCList.CharSet[9] |= (int)(TempInventory[5] & 0x10);

  00f4b	8a 85 ba fe ff
	ff		 mov	 al, BYTE PTR _TempInventory$[ebp+10]
  00f51	80 e2 10	 and	 dl, 16			; 00000010H
  00f54	02 d2		 add	 dl, dl
  00f56	0a ca		 or	 cl, dl
  00f58	8a d0		 mov	 dl, al

; 949  : 				pCList.CharSet[4] |= (int)(TempInventory[5] & 0x0F);

  00f5a	24 0f		 and	 al, 15			; 0000000fH
  00f5c	08 85 db fe ff
	ff		 or	 BYTE PTR _pCList$[ebp+19], al

; 950  : 
; 951  : 				pCList.CharSet[15] |= (int)(TempInventory[6] & 0x1E0) >> 5;

  00f62	8b 85 bc fe ff
	ff		 mov	 eax, DWORD PTR _TempInventory$[ebp+12]
  00f68	c1 e8 05	 shr	 eax, 5
  00f6b	24 0f		 and	 al, 15			; 0000000fH
  00f6d	08 85 e6 fe ff
	ff		 or	 BYTE PTR _pCList$[ebp+30], al

; 952  : 				pCList.CharSet[9] |= (int)(TempInventory[6] & 0x10) >> 1;

  00f73	8a 85 bc fe ff
	ff		 mov	 al, BYTE PTR _TempInventory$[ebp+12]
  00f79	80 e2 10	 and	 dl, 16			; 00000010H
  00f7c	0a ca		 or	 cl, dl
  00f7e	8a d0		 mov	 dl, al

; 953  : 				pCList.CharSet[5] |= (int)(TempInventory[6] & 0x0F) << 4;

  00f80	c0 e0 04	 shl	 al, 4
  00f83	08 85 dc fe ff
	ff		 or	 BYTE PTR _pCList$[ebp+20], al
  00f89	d0 ea		 shr	 dl, 1
  00f8b	80 e2 08	 and	 dl, 8
  00f8e	0a ca		 or	 cl, dl

; 954  : 
; 955  : 				index = 0;
; 956  : 
; 957  : 				if (TempInventory[7] == 0x1FF)

  00f90	b8 ff 01 00 00	 mov	 eax, 511		; 000001ffH
  00f95	88 8d e0 fe ff
	ff		 mov	 BYTE PTR _pCList$[ebp+24], cl
  00f9b	66 3b f8	 cmp	 di, ax
  00f9e	75 04		 jne	 SHORT $LN24@JGPGetChar

; 958  : 				{
; 959  : 					index |= 0x0C;

  00fa0	b0 0c		 mov	 al, 12			; 0000000cH

; 960  : 				}
; 961  : 				else

  00fa2	eb 0c		 jmp	 SHORT $LN23@JGPGetChar
$LN24@JGPGetChar:

; 962  : 				{
; 963  : 					index |= (int)(TempInventory[7] & 0x03) << 2;

  00fa4	8a 85 be fe ff
	ff		 mov	 al, BYTE PTR _TempInventory$[ebp+14]
  00faa	24 03		 and	 al, 3
  00fac	02 c0		 add	 al, al
  00fae	02 c0		 add	 al, al
$LN23@JGPGetChar:

; 964  : 				}
; 965  : 
; 966  : 				if ((TempInventory[8] & 0x04) == 0)

  00fb0	8b 8d c0 fe ff
	ff		 mov	 ecx, DWORD PTR _TempInventory$[ebp+16]
  00fb6	83 e1 04	 and	 ecx, 4
  00fb9	89 8d a8 fe ff
	ff		 mov	 DWORD PTR tv2877[ebp], ecx
  00fbf	75 1b		 jne	 SHORT $LN22@JGPGetChar

; 967  : 				{
; 968  : 					if (TempInventory[8] == 0x1FF)

  00fc1	b9 ff 01 00 00	 mov	 ecx, 511		; 000001ffH
  00fc6	66 39 8d c0 fe
	ff ff		 cmp	 WORD PTR _TempInventory$[ebp+16], cx

; 969  : 					{
; 970  : 						index |= 0x03;
; 971  : 					}
; 972  : 					else

  00fcd	74 0d		 je	 SHORT $LN22@JGPGetChar

; 973  : 					{
; 974  : 						index |= (TempInventory[8]) & 0x03;

  00fcf	8a 95 c0 fe ff
	ff		 mov	 dl, BYTE PTR _TempInventory$[ebp+16]
  00fd5	80 e2 03	 and	 dl, 3
  00fd8	0a c2		 or	 al, dl

; 975  : 					}
; 976  : 				}
; 977  : 				else

  00fda	eb 02		 jmp	 SHORT $LN19@JGPGetChar
$LN22@JGPGetChar:

; 978  : 				{
; 979  : 					index |= 0x03;

  00fdc	0c 03		 or	 al, 3
$LN19@JGPGetChar:

; 980  : 				}
; 981  : 
; 982  : 				pCList.CharSet[5] |= index;

  00fde	08 85 dc fe ff
	ff		 or	 BYTE PTR _pCList$[ebp+20], al

; 983  : 
; 984  : 				int levelindex = 0;
; 985  : 
; 986  : 				if (TempInventory[0] != (WORD)-1)

  00fe4	b8 ff ff 00 00	 mov	 eax, 65535		; 0000ffffH
  00fe9	c7 85 ec fe ff
	ff 00 00 00 00	 mov	 DWORD PTR _levelindex$158140[ebp], 0
  00ff3	66 39 85 b0 fe
	ff ff		 cmp	 WORD PTR _TempInventory$[ebp], ax
  00ffa	74 1d		 je	 SHORT $LN143@JGPGetChar

; 987  : 				{
; 988  : 					levelindex = LevelSmallConvert(DBI_GET_LEVEL(lpCL->dbInventory[1]));

  00ffc	0f b6 4c 33 11	 movzx	 ecx, BYTE PTR [ebx+esi+17]
  01001	c1 e9 03	 shr	 ecx, 3
  01004	83 e1 0f	 and	 ecx, 15			; 0000000fH
  01007	51		 push	 ecx
  01008	e8 00 00 00 00	 call	 ?LevelSmallConvert@@YAEH@Z ; LevelSmallConvert
  0100d	0f b6 d0	 movzx	 edx, al
  01010	83 c4 04	 add	 esp, 4
  01013	89 95 ec fe ff
	ff		 mov	 DWORD PTR _levelindex$158140[ebp], edx
$LN143@JGPGetChar:

; 989  : 				}
; 990  : 
; 991  : 				if (TempInventory[1] != (WORD)-1)

  01019	b8 ff ff 00 00	 mov	 eax, 65535		; 0000ffffH
  0101e	66 39 85 b2 fe
	ff ff		 cmp	 WORD PTR _TempInventory$[ebp+2], ax
  01025	74 23		 je	 SHORT $LN17@JGPGetChar

; 992  : 				{
; 993  : 					levelindex |= (int)LevelSmallConvert(DBI_GET_LEVEL(lpCL->dbInventory[5])) << 3;

  01027	0f b6 4c 33 15	 movzx	 ecx, BYTE PTR [ebx+esi+21]
  0102c	c1 e9 03	 shr	 ecx, 3
  0102f	83 e1 0f	 and	 ecx, 15			; 0000000fH
  01032	51		 push	 ecx
  01033	e8 00 00 00 00	 call	 ?LevelSmallConvert@@YAEH@Z ; LevelSmallConvert
  01038	0f b6 d0	 movzx	 edx, al
  0103b	03 d2		 add	 edx, edx
  0103d	03 d2		 add	 edx, edx
  0103f	03 d2		 add	 edx, edx
  01041	83 c4 04	 add	 esp, 4
  01044	09 95 ec fe ff
	ff		 or	 DWORD PTR _levelindex$158140[ebp], edx
$LN17@JGPGetChar:

; 994  : 				}
; 995  : 
; 996  : 				if (TempInventory[2] < 0x1FF)

  0104a	b8 ff 01 00 00	 mov	 eax, 511		; 000001ffH
  0104f	66 39 85 b4 fe
	ff ff		 cmp	 WORD PTR _TempInventory$[ebp+4], ax
  01056	73 20		 jae	 SHORT $LN16@JGPGetChar

; 997  : 				{
; 998  : 					levelindex |= (int)LevelSmallConvert(DBI_GET_LEVEL(lpCL->dbInventory[9])) << 6;

  01058	0f b6 4c 33 19	 movzx	 ecx, BYTE PTR [ebx+esi+25]
  0105d	c1 e9 03	 shr	 ecx, 3
  01060	83 e1 0f	 and	 ecx, 15			; 0000000fH
  01063	51		 push	 ecx
  01064	e8 00 00 00 00	 call	 ?LevelSmallConvert@@YAEH@Z ; LevelSmallConvert
  01069	0f b6 d0	 movzx	 edx, al
  0106c	c1 e2 06	 shl	 edx, 6
  0106f	83 c4 04	 add	 esp, 4
  01072	09 95 ec fe ff
	ff		 or	 DWORD PTR _levelindex$158140[ebp], edx
$LN16@JGPGetChar:

; 999  : 				}
; 1000 : 
; 1001 : 				if (TempInventory[3] < 0x1FF)

  01078	b8 ff 01 00 00	 mov	 eax, 511		; 000001ffH
  0107d	66 39 85 b6 fe
	ff ff		 cmp	 WORD PTR _TempInventory$[ebp+6], ax
  01084	73 20		 jae	 SHORT $LN15@JGPGetChar

; 1002 : 				{
; 1003 : 					levelindex |= (int)LevelSmallConvert(DBI_GET_LEVEL(lpCL->dbInventory[13])) << 9;

  01086	0f b6 4c 33 1d	 movzx	 ecx, BYTE PTR [ebx+esi+29]
  0108b	c1 e9 03	 shr	 ecx, 3
  0108e	83 e1 0f	 and	 ecx, 15			; 0000000fH
  01091	51		 push	 ecx
  01092	e8 00 00 00 00	 call	 ?LevelSmallConvert@@YAEH@Z ; LevelSmallConvert
  01097	0f b6 d0	 movzx	 edx, al
  0109a	c1 e2 09	 shl	 edx, 9
  0109d	83 c4 04	 add	 esp, 4
  010a0	09 95 ec fe ff
	ff		 or	 DWORD PTR _levelindex$158140[ebp], edx
$LN15@JGPGetChar:

; 1004 : 				}
; 1005 : 
; 1006 : 				if (TempInventory[4] < 0x1FF)

  010a6	b8 ff 01 00 00	 mov	 eax, 511		; 000001ffH
  010ab	66 39 85 b8 fe
	ff ff		 cmp	 WORD PTR _TempInventory$[ebp+8], ax
  010b2	73 20		 jae	 SHORT $LN14@JGPGetChar

; 1007 : 				{
; 1008 : 					levelindex |= (int)LevelSmallConvert(DBI_GET_LEVEL(lpCL->dbInventory[17])) << 12;

  010b4	0f b6 4c 33 21	 movzx	 ecx, BYTE PTR [ebx+esi+33]
  010b9	c1 e9 03	 shr	 ecx, 3
  010bc	83 e1 0f	 and	 ecx, 15			; 0000000fH
  010bf	51		 push	 ecx
  010c0	e8 00 00 00 00	 call	 ?LevelSmallConvert@@YAEH@Z ; LevelSmallConvert
  010c5	0f b6 d0	 movzx	 edx, al
  010c8	c1 e2 0c	 shl	 edx, 12			; 0000000cH
  010cb	83 c4 04	 add	 esp, 4
  010ce	09 95 ec fe ff
	ff		 or	 DWORD PTR _levelindex$158140[ebp], edx
$LN14@JGPGetChar:

; 1009 : 				}
; 1010 : 
; 1011 : 				if (TempInventory[5] < 0x1FF)

  010d4	b8 ff 01 00 00	 mov	 eax, 511		; 000001ffH
  010d9	66 39 85 ba fe
	ff ff		 cmp	 WORD PTR _TempInventory$[ebp+10], ax
  010e0	73 20		 jae	 SHORT $LN13@JGPGetChar

; 1012 : 				{
; 1013 : 					levelindex |= (int)LevelSmallConvert(DBI_GET_LEVEL(lpCL->dbInventory[21])) << 15;

  010e2	0f b6 4c 33 25	 movzx	 ecx, BYTE PTR [ebx+esi+37]
  010e7	c1 e9 03	 shr	 ecx, 3
  010ea	83 e1 0f	 and	 ecx, 15			; 0000000fH
  010ed	51		 push	 ecx
  010ee	e8 00 00 00 00	 call	 ?LevelSmallConvert@@YAEH@Z ; LevelSmallConvert
  010f3	0f b6 d0	 movzx	 edx, al
  010f6	c1 e2 0f	 shl	 edx, 15			; 0000000fH
  010f9	83 c4 04	 add	 esp, 4
  010fc	09 95 ec fe ff
	ff		 or	 DWORD PTR _levelindex$158140[ebp], edx
$LN13@JGPGetChar:

; 1014 : 				}
; 1015 : 
; 1016 : 				if (TempInventory[6] < 0x1FF)

  01102	b8 ff 01 00 00	 mov	 eax, 511		; 000001ffH
  01107	66 39 85 bc fe
	ff ff		 cmp	 WORD PTR _TempInventory$[ebp+12], ax
  0110e	73 20		 jae	 SHORT $LN12@JGPGetChar

; 1017 : 				{
; 1018 : 					levelindex |= (int)LevelSmallConvert(DBI_GET_LEVEL(lpCL->dbInventory[25])) << 18;

  01110	0f b6 4c 33 29	 movzx	 ecx, BYTE PTR [ebx+esi+41]
  01115	c1 e9 03	 shr	 ecx, 3
  01118	83 e1 0f	 and	 ecx, 15			; 0000000fH
  0111b	51		 push	 ecx
  0111c	e8 00 00 00 00	 call	 ?LevelSmallConvert@@YAEH@Z ; LevelSmallConvert
  01121	0f b6 d0	 movzx	 edx, al
  01124	c1 e2 12	 shl	 edx, 18			; 00000012H
  01127	83 c4 04	 add	 esp, 4
  0112a	09 95 ec fe ff
	ff		 or	 DWORD PTR _levelindex$158140[ebp], edx
$LN12@JGPGetChar:

; 1019 : 				}
; 1020 : 
; 1021 : 				pCList.CharSet[6] = ((int)levelindex >> 0x10) & 0xFF;

  01130	8b 85 ec fe ff
	ff		 mov	 eax, DWORD PTR _levelindex$158140[ebp]
  01136	8b c8		 mov	 ecx, eax

; 1022 : 				pCList.CharSet[7] = ((int)levelindex >> 0x08) & 0xFF;

  01138	8b d0		 mov	 edx, eax
  0113a	c1 f9 10	 sar	 ecx, 16			; 00000010H
  0113d	c1 fa 08	 sar	 edx, 8
  01140	88 8d dd fe ff
	ff		 mov	 BYTE PTR _pCList$[ebp+21], cl
  01146	88 95 de fe ff
	ff		 mov	 BYTE PTR _pCList$[ebp+22], dl

; 1023 : 				pCList.CharSet[8] = ((int)levelindex) & 0xFF;

  0114c	88 85 df fe ff
	ff		 mov	 BYTE PTR _pCList$[ebp+23], al

; 1024 : 
; 1025 : 				if ((TempInventory[7] >= 3 && TempInventory[7] <= 6) || TempInventory[7] == 0x1E)

  01152	66 83 ff 03	 cmp	 di, 3
  01156	72 06		 jb	 SHORT $LN9@JGPGetChar
  01158	66 83 ff 06	 cmp	 di, 6
  0115c	76 06		 jbe	 SHORT $LN144@JGPGetChar
$LN9@JGPGetChar:
  0115e	66 83 ff 1e	 cmp	 di, 30			; 0000001eH
  01162	75 29		 jne	 SHORT $LN149@JGPGetChar
$LN144@JGPGetChar:

; 1026 : 				{
; 1027 : 					pCList.CharSet[5] |= 0x0C;

  01164	80 8d dc fe ff
	ff 0c		 or	 BYTE PTR _pCList$[ebp+20], 12 ; 0000000cH

; 1032 : 					}
; 1033 : 					else

  0116b	8a 95 be fe ff
	ff		 mov	 dl, BYTE PTR _TempInventory$[ebp+14]
  01171	66 83 ff 1e	 cmp	 di, 30			; 0000001eH
  01175	75 09		 jne	 SHORT $LN8@JGPGetChar

; 1028 : 
; 1029 : 					if (TempInventory[7] == 0x1E)
; 1030 : 					{
; 1031 : 						pCList.CharSet[9] |= 0x05;

  01177	80 8d e0 fe ff
	ff 05		 or	 BYTE PTR _pCList$[ebp+24], 5

; 1032 : 					}
; 1033 : 					else

  0117e	eb 13		 jmp	 SHORT $LN7@JGPGetChar
$LN8@JGPGetChar:

; 1034 : 					{
; 1035 : 						pCList.CharSet[9] |= (TempInventory[7] - 2) & 0x07;

  01180	8d 42 fe	 lea	 eax, DWORD PTR [edx-2]
  01183	24 07		 and	 al, 7
  01185	08 85 e0 fe ff
	ff		 or	 BYTE PTR _pCList$[ebp+24], al
  0118b	eb 06		 jmp	 SHORT $LN7@JGPGetChar
$LN149@JGPGetChar:

; 1032 : 					}
; 1033 : 					else

  0118d	8a 95 be fe ff
	ff		 mov	 dl, BYTE PTR _TempInventory$[ebp+14]
$LN7@JGPGetChar:

; 1036 : 					}
; 1037 : 				}
; 1038 : 
; 1039 : 				pCList.CharSet[10] = 0;
; 1040 : 
; 1041 : 				if ((TempInventory[8] & 0x03) != 0 && TempInventory[8] != 0x1FF)

  01193	66 8b 8d c0 fe
	ff ff		 mov	 cx, WORD PTR _TempInventory$[ebp+16]
  0119a	c6 85 e1 fe ff
	ff 00		 mov	 BYTE PTR _pCList$[ebp+25], 0
  011a1	f6 c1 03	 test	 cl, 3
  011a4	74 11		 je	 SHORT $LN6@JGPGetChar
  011a6	b8 ff 01 00 00	 mov	 eax, 511		; 000001ffH
  011ab	66 3b c8	 cmp	 cx, ax
  011ae	74 07		 je	 SHORT $LN6@JGPGetChar

; 1042 : 				{
; 1043 : 					pCList.CharSet[10] |= 0x01;

  011b0	c6 85 e1 fe ff
	ff 01		 mov	 BYTE PTR _pCList$[ebp+25], 1
$LN6@JGPGetChar:

; 1044 : 				}
; 1045 : 
; 1046 : 				pCList.CharSet[11] = 0;
; 1047 : 
; 1048 : 				if ((TempInventory[8] & 0x04) != 0 && TempInventory[8] != 0x1FF)

  011b7	66 83 bd a8 fe
	ff ff 00	 cmp	 WORD PTR tv2877[ebp], 0
  011bf	c6 85 e2 fe ff
	ff 00		 mov	 BYTE PTR _pCList$[ebp+26], 0
  011c6	74 1a		 je	 SHORT $LN151@JGPGetChar
  011c8	b8 ff 01 00 00	 mov	 eax, 511		; 000001ffH
  011cd	66 3b c8	 cmp	 cx, ax
  011d0	74 10		 je	 SHORT $LN151@JGPGetChar

; 1049 : 				{
; 1050 : 					pCList.CharSet[12] |= 0x01;

  011d2	8a 85 e3 fe ff
	ff		 mov	 al, BYTE PTR _pCList$[ebp+27]
  011d8	0c 01		 or	 al, 1
  011da	88 85 e3 fe ff
	ff		 mov	 BYTE PTR _pCList$[ebp+27], al
  011e0	eb 06		 jmp	 SHORT $LN5@JGPGetChar
$LN151@JGPGetChar:
  011e2	8a 85 e3 fe ff
	ff		 mov	 al, BYTE PTR _pCList$[ebp+27]
$LN5@JGPGetChar:

; 1051 : 				}
; 1052 : 
; 1053 : 				pCList.CharSet[16] = 0;

  011e8	66 c7 85 e7 fe
	ff ff 00 00	 mov	 WORD PTR _pCList$[ebp+31], 0

; 1054 : 				pCList.CharSet[17] = 0;
; 1055 : 
; 1056 : 				if (TempInventory[8] == 0x25 && TempInventory[8] != 0x1FF)

  011f1	66 83 f9 25	 cmp	 cx, 37			; 00000025H
  011f5	75 31		 jne	 SHORT $LN2@JGPGetChar

; 1057 : 				{
; 1058 : 					pCList.CharSet[10] &= 0xFE;
; 1059 : 					pCList.CharSet[12] &= 0xFE;
; 1060 : 					pCList.CharSet[12] |= 0x04;
; 1061 : 					BYTE btExcellentOption = lpCL->dbInventory[34] & 0x3F;

  011f7	8b 8d 9c fe ff
	ff		 mov	 ecx, DWORD PTR tv3267[ebp]
  011fd	80 a5 e1 fe ff
	ff fe		 and	 BYTE PTR _pCList$[ebp+25], 254 ; 000000feH
  01204	24 fe		 and	 al, 254			; 000000feH
  01206	0c 04		 or	 al, 4
  01208	88 85 e3 fe ff
	ff		 mov	 BYTE PTR _pCList$[ebp+27], al
  0120e	8a 01		 mov	 al, BYTE PTR [ecx]
  01210	24 3f		 and	 al, 63			; 0000003fH

; 1062 : 
; 1063 : 					if ((btExcellentOption & 1) == 1)

  01212	a8 01		 test	 al, 1
  01214	74 07		 je	 SHORT $LN3@JGPGetChar

; 1064 : 					{
; 1065 : 						pCList.CharSet[16] |= 0x01;

  01216	c6 85 e7 fe ff
	ff 01		 mov	 BYTE PTR _pCList$[ebp+31], 1
$LN3@JGPGetChar:

; 1066 : 					}
; 1067 : 
; 1068 : 					if ((btExcellentOption & 2) == 2)

  0121d	a8 02		 test	 al, 2
  0121f	74 07		 je	 SHORT $LN2@JGPGetChar

; 1069 : 					{
; 1070 : 						pCList.CharSet[16] |= 0x02;

  01221	80 8d e7 fe ff
	ff 02		 or	 BYTE PTR _pCList$[ebp+31], 2
$LN2@JGPGetChar:

; 1071 : 					}
; 1072 : 				}
; 1073 : 
; 1074 : 				if ( TempInventory[7] >= 100 && TempInventory[7] <= 130 )

  01228	8b 85 be fe ff
	ff		 mov	 eax, DWORD PTR _TempInventory$[ebp+14]
  0122e	83 c0 9c	 add	 eax, -100		; ffffff9cH
  01231	66 83 f8 1e	 cmp	 ax, 30			; 0000001eH
  01235	77 14		 ja	 SHORT $LN1@JGPGetChar

; 1075 : 				{
; 1076 : 					pCList.CharSet[5] |= CS_SET_WING1(3);

  01237	80 8d dc fe ff
	ff 0c		 or	 BYTE PTR _pCList$[ebp+20], 12 ; 0000000cH

; 1077 : 					pCList.CharSet[17] |= (BYTE)(TempInventory[7] - 100 + 1) << 2;

  0123e	80 c2 1d	 add	 dl, 29			; 0000001dH
  01241	02 d2		 add	 dl, dl
  01243	02 d2		 add	 dl, dl
  01245	88 95 e8 fe ff
	ff		 mov	 BYTE PTR _pCList$[ebp+32], dl
$LN1@JGPGetChar:

; 1078 : 				}
; 1079 : 			}
; 1080 : 
; 1081 : 			memcpy(&sendbuf[lOfs], &pCList, sizeof(pCList));

  0124b	8b 85 94 fe ff
	ff		 mov	 eax, DWORD PTR _lOfs$[ebp]

; 1082 : 			lsOfs += sizeof(SDHP_CHARLIST);

  01251	83 85 98 fe ff
	ff 42		 add	 DWORD PTR _lsOfs$[ebp], 66 ; 00000042H
  01258	8d bc 05 f0 fe
	ff ff		 lea	 edi, DWORD PTR _sendbuf$[ebp+eax]
  0125f	b9 08 00 00 00	 mov	 ecx, 8
  01264	8d b5 c8 fe ff
	ff		 lea	 esi, DWORD PTR _pCList$[ebp]
  0126a	f3 a5		 rep movsd

; 1083 : 			lOfs += sizeof(pCList);

  0126c	83 c0 22	 add	 eax, 34			; 00000022H
  0126f	89 85 94 fe ff
	ff		 mov	 DWORD PTR _lOfs$[ebp], eax
  01275	8b 85 90 fe ff
	ff		 mov	 eax, DWORD PTR _n$157950[ebp]
  0127b	40		 inc	 eax
  0127c	66 a5		 movsw
  0127e	89 85 90 fe ff
	ff		 mov	 DWORD PTR _n$157950[ebp], eax
  01284	3b 85 7c fe ff
	ff		 cmp	 eax, DWORD PTR $T160316[ebp]
  0128a	0f 8c a0 ee ff
	ff		 jl	 $LL130@JGPGetChar

; 461  : 	{
; 462  : 		for (int n = 0; n < pCLCount.Count; n++)

  01290	8b b5 80 fe ff
	ff		 mov	 esi, DWORD PTR _aIndex$[ebp]
  01296	5f		 pop	 edi
$LN128@JGPGetChar:

; 1084 : 		}
; 1085 : 	}
; 1086 : 
; 1087 : 	pCLCount.h.size = lOfs;

  01297	8b 85 94 fe ff
	ff		 mov	 eax, DWORD PTR _lOfs$[ebp]

; 1088 : 	memcpy(sendbuf, &pCLCount, sizeof(PMSG_CHARLISTCOUNT));

  0129d	66 8b 95 a4 fe
	ff ff		 mov	 dx, WORD PTR _pCLCount$[ebp+4]
  012a4	88 85 a1 fe ff
	ff		 mov	 BYTE PTR _pCLCount$[ebp+1], al
  012aa	8b 8d a0 fe ff
	ff		 mov	 ecx, DWORD PTR _pCLCount$[ebp]
  012b0	66 89 95 f4 fe
	ff ff		 mov	 WORD PTR _sendbuf$[ebp+4], dx

; 1089 : 	DataSend(aIndex, sendbuf, lOfs);

  012b7	50		 push	 eax
  012b8	8d 95 f0 fe ff
	ff		 lea	 edx, DWORD PTR _sendbuf$[ebp]
  012be	89 8d f0 fe ff
	ff		 mov	 DWORD PTR _sendbuf$[ebp], ecx
  012c4	8a 8d a6 fe ff
	ff		 mov	 cl, BYTE PTR _pCLCount$[ebp+6]
  012ca	52		 push	 edx
  012cb	56		 push	 esi
  012cc	88 8d f6 fe ff
	ff		 mov	 BYTE PTR _sendbuf$[ebp+6], cl
  012d2	e8 00 00 00 00	 call	 ?DataSend@@YAHHPAEK@Z	; DataSend

; 1090 : }

  012d7	8b 4d fc	 mov	 ecx, DWORD PTR __$ArrayPad$[ebp]
  012da	83 c4 0c	 add	 esp, 12			; 0000000cH
  012dd	5e		 pop	 esi
  012de	33 cd		 xor	 ecx, ebp
  012e0	5b		 pop	 ebx
  012e1	e8 00 00 00 00	 call	 @__security_check_cookie@4
  012e6	8b e5		 mov	 esp, ebp
  012e8	5d		 pop	 ebp
  012e9	c3		 ret	 0
?JGPGetCharList@@YAXPAE@Z ENDP				; JGPGetCharList
_TEXT	ENDS
PUBLIC	??_C@_0P@DNGOKBGI@DSProtocol?4cpp?$AA@		; `string'
PUBLIC	__$ArrayPad$
PUBLIC	?DataServerGetCharListRequest@@YAXF@Z		; DataServerGetCharListRequest
EXTRN	?gObjGetAccountId@@YAPADH@Z:PROC		; gObjGetAccountId
;	COMDAT ??_C@_0P@DNGOKBGI@DSProtocol?4cpp?$AA@
CONST	SEGMENT
??_C@_0P@DNGOKBGI@DSProtocol?4cpp?$AA@ DB 'DSProtocol.cpp', 00H ; `string'
; Function compile flags: /Ogtp
CONST	ENDS
;	COMDAT ?DataServerGetCharListRequest@@YAXF@Z
_TEXT	SEGMENT
_pMsg$ = -32						; size = 16
_TempId$ = -16						; size = 11
__$ArrayPad$ = -4					; size = 4
_aIndex$ = 8						; size = 2
?DataServerGetCharListRequest@@YAXF@Z PROC		; DataServerGetCharListRequest, COMDAT

; 1107 : {

  00000	55		 push	 ebp
  00001	8b ec		 mov	 ebp, esp
  00003	83 ec 20	 sub	 esp, 32			; 00000020H
  00006	a1 00 00 00 00	 mov	 eax, DWORD PTR ___security_cookie
  0000b	33 c5		 xor	 eax, ebp
  0000d	89 45 fc	 mov	 DWORD PTR __$ArrayPad$[ebp], eax
  00010	53		 push	 ebx
  00011	0f b7 5d 08	 movzx	 ebx, WORD PTR _aIndex$[ebp]
  00015	56		 push	 esi

; 1108 : 	SDHP_GETCHARLIST pMsg;
; 1109 : 	char TempId[11];
; 1110 : 	char* AccountId;
; 1111 : 
; 1112 : 	memset(TempId, 0, sizeof(TempId));

  00016	33 c0		 xor	 eax, eax

; 1113 : 	AccountId = gObjGetAccountId(aIndex);

  00018	0f bf f3	 movsx	 esi, bx
  0001b	56		 push	 esi
  0001c	89 45 f0	 mov	 DWORD PTR _TempId$[ebp], eax
  0001f	89 45 f4	 mov	 DWORD PTR _TempId$[ebp+4], eax
  00022	66 89 45 f8	 mov	 WORD PTR _TempId$[ebp+8], ax
  00026	88 45 fa	 mov	 BYTE PTR _TempId$[ebp+10], al
  00029	e8 00 00 00 00	 call	 ?gObjGetAccountId@@YAPADH@Z ; gObjGetAccountId
  0002e	83 c4 04	 add	 esp, 4

; 1114 : 
; 1115 : 	if ( AccountId == 0 )

  00031	85 c0		 test	 eax, eax
  00033	75 3a		 jne	 SHORT $LN2@DataServer@3

; 1116 : 	{
; 1117 : 		LogAdd(LOG_BLACK, lMsg.Get(MSGGET(1, 166)), __FILE__, __LINE__);

  00035	68 5d 04 00 00	 push	 1117			; 0000045dH
  0003a	68 00 00 00 00	 push	 OFFSET ??_C@_0P@DNGOKBGI@DSProtocol?4cpp?$AA@
  0003f	68 a6 01 00 00	 push	 422			; 000001a6H
$LN8@DataServer@3:
  00044	b9 00 00 00 00	 mov	 ecx, OFFSET ?lMsg@@3VCMsg@@A ; lMsg
  00049	e8 00 00 00 00	 call	 ?Get@CMsg@@QAEPADH@Z	; CMsg::Get
  0004e	50		 push	 eax
  0004f	6a 00		 push	 0
  00051	e8 00 00 00 00	 call	 ?LogAdd@@YAXW4eLogColor@@PADZZ ; LogAdd

; 1118 : 		CloseClient(aIndex);

  00056	56		 push	 esi
  00057	e8 00 00 00 00	 call	 ?CloseClient@@YAXH@Z	; CloseClient
  0005c	83 c4 14	 add	 esp, 20			; 00000014H
  0005f	5e		 pop	 esi
  00060	5b		 pop	 ebx

; 1137 : 	
; 1138 : }

  00061	8b 4d fc	 mov	 ecx, DWORD PTR __$ArrayPad$[ebp]
  00064	33 cd		 xor	 ecx, ebp
  00066	e8 00 00 00 00	 call	 @__security_check_cookie@4
  0006b	8b e5		 mov	 esp, ebp
  0006d	5d		 pop	 ebp
  0006e	c3		 ret	 0
$LN2@DataServer@3:

; 1119 : 		return;
; 1120 : 	}
; 1121 : 	if ( strlen(AccountId) < 1 )

  0006f	8b c8		 mov	 ecx, eax
  00071	57		 push	 edi
  00072	8d 79 01	 lea	 edi, DWORD PTR [ecx+1]
$LL7@DataServer@3:
  00075	8a 11		 mov	 dl, BYTE PTR [ecx]
  00077	41		 inc	 ecx
  00078	84 d2		 test	 dl, dl
  0007a	75 f9		 jne	 SHORT $LL7@DataServer@3
  0007c	2b cf		 sub	 ecx, edi
  0007e	5f		 pop	 edi
  0007f	83 f9 01	 cmp	 ecx, 1
  00082	73 11		 jae	 SHORT $LN1@DataServer@3

; 1122 : 	{
; 1123 : 		LogAdd(LOG_BLACK, lMsg.Get(MSGGET(1, 167)), __FILE__, __LINE__);

  00084	68 63 04 00 00	 push	 1123			; 00000463H
  00089	68 00 00 00 00	 push	 OFFSET ??_C@_0P@DNGOKBGI@DSProtocol?4cpp?$AA@
  0008e	68 a7 01 00 00	 push	 423			; 000001a7H

; 1124 : 		CloseClient(aIndex);
; 1125 : 		return;

  00093	eb af		 jmp	 SHORT $LN8@DataServer@3
$LN1@DataServer@3:

; 1126 : 	}
; 1127 : 
; 1128 : 	strcpy((char*)TempId, AccountId);

  00095	8d 55 f0	 lea	 edx, DWORD PTR _TempId$[ebp]
  00098	2b d0		 sub	 edx, eax
  0009a	8d 9b 00 00 00
	00		 npad	 6
$LL5@DataServer@3:
  000a0	8a 08		 mov	 cl, BYTE PTR [eax]
  000a2	88 0c 02	 mov	 BYTE PTR [edx+eax], cl
  000a5	40		 inc	 eax
  000a6	84 c9		 test	 cl, cl
  000a8	75 f6		 jne	 SHORT $LL5@DataServer@3

; 1129 : 
; 1130 : 	pMsg.h.c  = 0xC1;
; 1131 : 	pMsg.h.size  = sizeof(SDHP_GETCHARLIST);
; 1132 : 	pMsg.h.headcode = 0x01;
; 1133 : 	pMsg.Number = aIndex;
; 1134 : 	memcpy(pMsg.Id , TempId, sizeof(TempId)-1);

  000aa	8b 45 f0	 mov	 eax, DWORD PTR _TempId$[ebp]
  000ad	8b 4d f4	 mov	 ecx, DWORD PTR _TempId$[ebp+4]
  000b0	66 8b 55 f8	 mov	 dx, WORD PTR _TempId$[ebp+8]
  000b4	89 45 e3	 mov	 DWORD PTR _pMsg$[ebp+3], eax

; 1135 : 
; 1136 : 	cDBSMng.Send((char*)&pMsg, pMsg.h.size);

  000b7	6a 10		 push	 16			; 00000010H
  000b9	8d 45 e0	 lea	 eax, DWORD PTR _pMsg$[ebp]
  000bc	89 4d e7	 mov	 DWORD PTR _pMsg$[ebp+7], ecx
  000bf	50		 push	 eax
  000c0	b9 00 00 00 00	 mov	 ecx, OFFSET ?cDBSMng@@3VDBSockMng@@A ; cDBSMng
  000c5	66 c7 45 e0 c1
	10		 mov	 WORD PTR _pMsg$[ebp], 4289 ; 000010c1H
  000cb	c6 45 e2 01	 mov	 BYTE PTR _pMsg$[ebp+2], 1
  000cf	66 89 5d ee	 mov	 WORD PTR _pMsg$[ebp+14], bx
  000d3	66 89 55 eb	 mov	 WORD PTR _pMsg$[ebp+11], dx
  000d7	e8 00 00 00 00	 call	 ?Send@DBSockMng@@QAEHPADH@Z ; DBSockMng::Send

; 1137 : 	
; 1138 : }

  000dc	8b 4d fc	 mov	 ecx, DWORD PTR __$ArrayPad$[ebp]
  000df	5e		 pop	 esi
  000e0	33 cd		 xor	 ecx, ebp
  000e2	5b		 pop	 ebx
  000e3	e8 00 00 00 00	 call	 @__security_check_cookie@4
  000e8	8b e5		 mov	 esp, ebp
  000ea	5d		 pop	 ebp
  000eb	c3		 ret	 0
?DataServerGetCharListRequest@@YAXF@Z ENDP		; DataServerGetCharListRequest
_TEXT	ENDS
PUBLIC	__$ArrayPad$
PUBLIC	?JGCharacterCreateRequest@@YAXPAUSDHP_CREATECHARRESULT@@@Z ; JGCharacterCreateRequest
; Function compile flags: /Ogtp
;	COMDAT ?JGCharacterCreateRequest@@YAXPAUSDHP_CREATECHARRESULT@@@Z
_TEXT	SEGMENT
_pResult$ = -60						; size = 44
_szAccountID$ = -16					; size = 11
__$ArrayPad$ = -4					; size = 4
_lpMsg$ = 8						; size = 4
?JGCharacterCreateRequest@@YAXPAUSDHP_CREATECHARRESULT@@@Z PROC ; JGCharacterCreateRequest, COMDAT

; 1163 : {

  00000	55		 push	 ebp
  00001	8b ec		 mov	 ebp, esp
  00003	83 ec 3c	 sub	 esp, 60			; 0000003cH
  00006	a1 00 00 00 00	 mov	 eax, DWORD PTR ___security_cookie
  0000b	33 c5		 xor	 eax, ebp
  0000d	89 45 fc	 mov	 DWORD PTR __$ArrayPad$[ebp], eax
  00010	56		 push	 esi
  00011	8b 75 08	 mov	 esi, DWORD PTR _lpMsg$[ebp]

; 1164 : 	PMSG_CHARCREATERESULT pResult;
; 1165 : 	char szAccountID[MAX_ACCOUNT_LEN+1];
; 1166 : 	int aIndex = lpMsg->Number;
; 1167 : 
; 1168 : 	szAccountID[MAX_ACCOUNT_LEN] = 0;
; 1169 : 	memcpy(szAccountID, lpMsg->AccountId, sizeof(lpMsg->AccountId));

  00014	8b 46 06	 mov	 eax, DWORD PTR [esi+6]
  00017	8b 4e 0a	 mov	 ecx, DWORD PTR [esi+10]
  0001a	66 8b 56 0e	 mov	 dx, WORD PTR [esi+14]
  0001e	57		 push	 edi
  0001f	0f bf 7e 04	 movsx	 edi, WORD PTR [esi+4]
  00023	89 45 f0	 mov	 DWORD PTR _szAccountID$[ebp], eax

; 1170 : 
; 1171 : 	if ( gObjIsAccontConnect(aIndex, szAccountID) == FALSE )

  00026	8d 45 f0	 lea	 eax, DWORD PTR _szAccountID$[ebp]
  00029	50		 push	 eax
  0002a	57		 push	 edi
  0002b	c6 45 fa 00	 mov	 BYTE PTR _szAccountID$[ebp+10], 0
  0002f	89 4d f4	 mov	 DWORD PTR _szAccountID$[ebp+4], ecx
  00032	66 89 55 f8	 mov	 WORD PTR _szAccountID$[ebp+8], dx
  00036	e8 00 00 00 00	 call	 ?gObjIsAccontConnect@@YAHHPAD@Z ; gObjIsAccontConnect
  0003b	83 c4 08	 add	 esp, 8
  0003e	85 c0		 test	 eax, eax
  00040	75 34		 jne	 SHORT $LN2@JGCharacte

; 1172 : 	{
; 1173 : 		LogAdd(LOG_RED,  lMsg.Get(MSGGET(1, 168)), szAccountID);

  00042	8d 4d f0	 lea	 ecx, DWORD PTR _szAccountID$[ebp]
  00045	51		 push	 ecx
  00046	68 a8 01 00 00	 push	 424			; 000001a8H
  0004b	b9 00 00 00 00	 mov	 ecx, OFFSET ?lMsg@@3VCMsg@@A ; lMsg
  00050	e8 00 00 00 00	 call	 ?Get@CMsg@@QAEPADH@Z	; CMsg::Get
  00055	50		 push	 eax
  00056	6a 01		 push	 1
  00058	e8 00 00 00 00	 call	 ?LogAdd@@YAXW4eLogColor@@PADZZ ; LogAdd

; 1174 : 		CloseClient(aIndex);

  0005d	57		 push	 edi
  0005e	e8 00 00 00 00	 call	 ?CloseClient@@YAXH@Z	; CloseClient
  00063	83 c4 10	 add	 esp, 16			; 00000010H
  00066	5f		 pop	 edi
  00067	5e		 pop	 esi

; 1196 : }

  00068	8b 4d fc	 mov	 ecx, DWORD PTR __$ArrayPad$[ebp]
  0006b	33 cd		 xor	 ecx, ebp
  0006d	e8 00 00 00 00	 call	 @__security_check_cookie@4
  00072	8b e5		 mov	 esp, ebp
  00074	5d		 pop	 ebp
  00075	c3		 ret	 0
$LN2@JGCharacte:

; 1175 : 		return;
; 1176 : 	}
; 1177 : 
; 1178 : 	pResult.h.c = 0xC1;
; 1179 : 	pResult.h.size = sizeof(PMSG_CHARCREATERESULT);
; 1180 : 	pResult.h.headcode = 0xF3;
; 1181 : 	pResult.subcode = 0x01;
; 1182 : 	pResult.Result = lpMsg->Result;
; 1183 : 	pResult.pos = lpMsg->Pos;

  00076	8a 56 1a	 mov	 dl, BYTE PTR [esi+26]

; 1184 : 	pResult.Class = (lpMsg->ClassSkin >> 4 << 5) & 0xE0;
; 1185 : 	int changeup = lpMsg->ClassSkin & 0x07; 

  00079	8a 46 1b	 mov	 al, BYTE PTR [esi+27]
  0007c	8a 4e 03	 mov	 cl, BYTE PTR [esi+3]
  0007f	88 55 d3	 mov	 BYTE PTR _pResult$[ebp+15], dl

; 1186 : 	pResult.Class |= (changeup << 4) & 0x10;

  00082	8a d0		 mov	 dl, al
  00084	80 e2 01	 and	 dl, 1
  00087	02 d2		 add	 dl, dl
  00089	02 d2		 add	 dl, dl
  0008b	02 d2		 add	 dl, dl
  0008d	24 f0		 and	 al, 240			; 000000f0H
  0008f	0a d0		 or	 dl, al

; 1187 : 	pResult.Level = lpMsg->Level;

  00091	66 8b 46 34	 mov	 ax, WORD PTR [esi+52]
  00095	02 d2		 add	 dl, dl
  00097	88 55 d6	 mov	 BYTE PTR _pResult$[ebp+18], dl

; 1188 : 	memcpy(pResult.Name, lpMsg->Name, sizeof(pResult.Name));

  0009a	8b 56 10	 mov	 edx, DWORD PTR [esi+16]
  0009d	66 89 45 d4	 mov	 WORD PTR _pResult$[ebp+16], ax
  000a1	8b 46 14	 mov	 eax, DWORD PTR [esi+20]
  000a4	89 55 c9	 mov	 DWORD PTR _pResult$[ebp+5], edx
  000a7	66 8b 56 18	 mov	 dx, WORD PTR [esi+24]
  000ab	c7 45 c4 c1 2c
	f3 01		 mov	 DWORD PTR _pResult$[ebp], 32713921 ; 01f32cc1H
  000b2	88 4d c8	 mov	 BYTE PTR _pResult$[ebp+4], cl
  000b5	89 45 cd	 mov	 DWORD PTR _pResult$[ebp+9], eax
  000b8	66 89 55 d1	 mov	 WORD PTR _pResult$[ebp+13], dx

; 1189 : 
; 1190 : 	if ( pResult.Result == 1 )

  000bc	80 f9 01	 cmp	 cl, 1
  000bf	75 24		 jne	 SHORT $LN1@JGCharacte

; 1191 : 	{
; 1192 : 		memcpy(pResult.Equipment, lpMsg->Equipment, sizeof(pResult.Equipment));

  000c1	8b 46 1c	 mov	 eax, DWORD PTR [esi+28]
  000c4	8b 4e 20	 mov	 ecx, DWORD PTR [esi+32]
  000c7	8b 56 24	 mov	 edx, DWORD PTR [esi+36]
  000ca	89 45 d7	 mov	 DWORD PTR _pResult$[ebp+19], eax
  000cd	8b 46 28	 mov	 eax, DWORD PTR [esi+40]
  000d0	89 4d db	 mov	 DWORD PTR _pResult$[ebp+23], ecx
  000d3	8b 4e 2c	 mov	 ecx, DWORD PTR [esi+44]
  000d6	89 55 df	 mov	 DWORD PTR _pResult$[ebp+27], edx
  000d9	8b 56 30	 mov	 edx, DWORD PTR [esi+48]
  000dc	89 45 e3	 mov	 DWORD PTR _pResult$[ebp+31], eax
  000df	89 4d e7	 mov	 DWORD PTR _pResult$[ebp+35], ecx
  000e2	89 55 eb	 mov	 DWORD PTR _pResult$[ebp+39], edx
$LN1@JGCharacte:

; 1193 : 	}
; 1194 : 
; 1195 : 	DataSend(aIndex, (LPBYTE)&pResult, pResult.h.size);

  000e5	6a 2c		 push	 44			; 0000002cH
  000e7	8d 45 c4	 lea	 eax, DWORD PTR _pResult$[ebp]
  000ea	50		 push	 eax
  000eb	57		 push	 edi
  000ec	e8 00 00 00 00	 call	 ?DataSend@@YAHHPAEK@Z	; DataSend

; 1196 : }

  000f1	8b 4d fc	 mov	 ecx, DWORD PTR __$ArrayPad$[ebp]
  000f4	83 c4 0c	 add	 esp, 12			; 0000000cH
  000f7	5f		 pop	 edi
  000f8	33 cd		 xor	 ecx, ebp
  000fa	5e		 pop	 esi
  000fb	e8 00 00 00 00	 call	 @__security_check_cookie@4
  00100	8b e5		 mov	 esp, ebp
  00102	5d		 pop	 ebp
  00103	c3		 ret	 0
?JGCharacterCreateRequest@@YAXPAUSDHP_CREATECHARRESULT@@@Z ENDP ; JGCharacterCreateRequest
_TEXT	ENDS
PUBLIC	__$ArrayPad$
PUBLIC	?JGCharacterCreateFailSend@@YAXHPAD@Z		; JGCharacterCreateFailSend
; Function compile flags: /Ogtp
;	COMDAT ?JGCharacterCreateFailSend@@YAXHPAD@Z
_TEXT	SEGMENT
_pResult$ = -48						; size = 44
__$ArrayPad$ = -4					; size = 4
_aIndex$ = 8						; size = 4
_id$ = 12						; size = 4
?JGCharacterCreateFailSend@@YAXHPAD@Z PROC		; JGCharacterCreateFailSend, COMDAT

; 1199 : {

  00000	55		 push	 ebp
  00001	8b ec		 mov	 ebp, esp
  00003	83 ec 30	 sub	 esp, 48			; 00000030H
  00006	a1 00 00 00 00	 mov	 eax, DWORD PTR ___security_cookie
  0000b	33 c5		 xor	 eax, ebp
  0000d	89 45 fc	 mov	 DWORD PTR __$ArrayPad$[ebp], eax
  00010	8b 45 0c	 mov	 eax, DWORD PTR _id$[ebp]

; 1200 : 	PMSG_CHARCREATERESULT  pResult;
; 1201 : 
; 1202 : 	pResult.h.c = 0xC1;
; 1203 : 	pResult.h.size = sizeof (PMSG_CHARCREATERESULT);
; 1204 : 	pResult.h.headcode = 0xF3;
; 1205 : 	pResult.subcode = 0x01;
; 1206 : 	pResult.Result = false;
; 1207 : 	pResult.pos = 0;
; 1208 : 	memcpy(pResult.Name, id, sizeof(pResult.Name));

  00013	8b 50 04	 mov	 edx, DWORD PTR [eax+4]
  00016	32 c9		 xor	 cl, cl
  00018	88 4d d4	 mov	 BYTE PTR _pResult$[ebp+4], cl
  0001b	88 4d df	 mov	 BYTE PTR _pResult$[ebp+15], cl
  0001e	8b 08		 mov	 ecx, DWORD PTR [eax]
  00020	66 8b 40 08	 mov	 ax, WORD PTR [eax+8]
  00024	89 4d d5	 mov	 DWORD PTR _pResult$[ebp+5], ecx

; 1209 : 
; 1210 : 	DataSend(aIndex, (UCHAR*)&pResult, pResult.h.size);

  00027	6a 2c		 push	 44			; 0000002cH
  00029	8d 4d d0	 lea	 ecx, DWORD PTR _pResult$[ebp]
  0002c	89 55 d9	 mov	 DWORD PTR _pResult$[ebp+9], edx
  0002f	8b 55 08	 mov	 edx, DWORD PTR _aIndex$[ebp]
  00032	51		 push	 ecx
  00033	52		 push	 edx
  00034	c7 45 d0 c1 2c
	f3 01		 mov	 DWORD PTR _pResult$[ebp], 32713921 ; 01f32cc1H
  0003b	66 89 45 dd	 mov	 WORD PTR _pResult$[ebp+13], ax
  0003f	e8 00 00 00 00	 call	 ?DataSend@@YAHHPAEK@Z	; DataSend

; 1211 : }

  00044	8b 4d fc	 mov	 ecx, DWORD PTR __$ArrayPad$[ebp]
  00047	33 cd		 xor	 ecx, ebp
  00049	83 c4 0c	 add	 esp, 12			; 0000000cH
  0004c	e8 00 00 00 00	 call	 @__security_check_cookie@4
  00051	8b e5		 mov	 esp, ebp
  00053	5d		 pop	 ebp
  00054	c3		 ret	 0
?JGCharacterCreateFailSend@@YAXHPAD@Z ENDP		; JGCharacterCreateFailSend
_TEXT	ENDS
PUBLIC	__$ArrayPad$
PUBLIC	?JGCharDelRequest@@YAXPAUSDHP_CHARDELETERESULT@@@Z ; JGCharDelRequest
; Function compile flags: /Ogtp
;	COMDAT ?JGCharDelRequest@@YAXPAUSDHP_CHARDELETERESULT@@@Z
_TEXT	SEGMENT
_pResult$ = -24						; size = 5
_szAccountId$ = -16					; size = 11
__$ArrayPad$ = -4					; size = 4
_lpMsg$ = 8						; size = 4
?JGCharDelRequest@@YAXPAUSDHP_CHARDELETERESULT@@@Z PROC	; JGCharDelRequest, COMDAT

; 1214 : {

  00000	55		 push	 ebp
  00001	8b ec		 mov	 ebp, esp
  00003	83 ec 18	 sub	 esp, 24			; 00000018H
  00006	a1 00 00 00 00	 mov	 eax, DWORD PTR ___security_cookie
  0000b	33 c5		 xor	 eax, ebp
  0000d	89 45 fc	 mov	 DWORD PTR __$ArrayPad$[ebp], eax
  00010	56		 push	 esi
  00011	8b 75 08	 mov	 esi, DWORD PTR _lpMsg$[ebp]

; 1215 : 	PMSG_RESULT pResult;
; 1216 : 	char szAccountId[MAX_ACCOUNT_LEN+1];
; 1217 : 	int aIndex = lpMsg->Number;
; 1218 : 	szAccountId[MAX_ACCOUNT_LEN] = 0;
; 1219 : 	memcpy(szAccountId, lpMsg->AccountID, sizeof(lpMsg->AccountID));

  00014	8b 46 06	 mov	 eax, DWORD PTR [esi+6]
  00017	8b 4e 0a	 mov	 ecx, DWORD PTR [esi+10]
  0001a	66 8b 56 0e	 mov	 dx, WORD PTR [esi+14]
  0001e	57		 push	 edi
  0001f	0f bf 7e 04	 movsx	 edi, WORD PTR [esi+4]
  00023	89 45 f0	 mov	 DWORD PTR _szAccountId$[ebp], eax

; 1220 : 
; 1221 : 	if ( ::gObjIsAccontConnect(aIndex, szAccountId) == FALSE )

  00026	8d 45 f0	 lea	 eax, DWORD PTR _szAccountId$[ebp]
  00029	50		 push	 eax
  0002a	57		 push	 edi
  0002b	c6 45 fa 00	 mov	 BYTE PTR _szAccountId$[ebp+10], 0
  0002f	89 4d f4	 mov	 DWORD PTR _szAccountId$[ebp+4], ecx
  00032	66 89 55 f8	 mov	 WORD PTR _szAccountId$[ebp+8], dx
  00036	e8 00 00 00 00	 call	 ?gObjIsAccontConnect@@YAHHPAD@Z ; gObjIsAccontConnect
  0003b	83 c4 08	 add	 esp, 8
  0003e	85 c0		 test	 eax, eax
  00040	75 34		 jne	 SHORT $LN1@JGCharDelR

; 1222 : 	{
; 1223 : 		LogAdd(LOG_RED,  lMsg.Get(MSGGET(1, 169)), szAccountId);

  00042	8d 4d f0	 lea	 ecx, DWORD PTR _szAccountId$[ebp]
  00045	51		 push	 ecx
  00046	68 a9 01 00 00	 push	 425			; 000001a9H
  0004b	b9 00 00 00 00	 mov	 ecx, OFFSET ?lMsg@@3VCMsg@@A ; lMsg
  00050	e8 00 00 00 00	 call	 ?Get@CMsg@@QAEPADH@Z	; CMsg::Get
  00055	50		 push	 eax
  00056	6a 01		 push	 1
  00058	e8 00 00 00 00	 call	 ?LogAdd@@YAXW4eLogColor@@PADZZ ; LogAdd

; 1224 : 		CloseClient(aIndex);

  0005d	57		 push	 edi
  0005e	e8 00 00 00 00	 call	 ?CloseClient@@YAXH@Z	; CloseClient
  00063	83 c4 10	 add	 esp, 16			; 00000010H
  00066	5f		 pop	 edi
  00067	5e		 pop	 esi

; 1236 : }

  00068	8b 4d fc	 mov	 ecx, DWORD PTR __$ArrayPad$[ebp]
  0006b	33 cd		 xor	 ecx, ebp
  0006d	e8 00 00 00 00	 call	 @__security_check_cookie@4
  00072	8b e5		 mov	 esp, ebp
  00074	5d		 pop	 ebp
  00075	c3		 ret	 0
$LN1@JGCharDelR:

; 1225 : 
; 1226 : 		return;
; 1227 : 	}
; 1228 : 
; 1229 : 	pResult.h.c = 0xC1;
; 1230 : 	pResult.h.size = sizeof(PMSG_RESULT);
; 1231 : 	pResult.h.headcode = 0xF3;
; 1232 : 	pResult.subcode = 0x02;
; 1233 : 	pResult.result = lpMsg->Result;
; 1234 : 
; 1235 : 	DataSend(lpMsg->Number, (UCHAR*)&pResult, pResult.h.size);

  00076	0f bf 4e 04	 movsx	 ecx, WORD PTR [esi+4]
  0007a	8a 56 03	 mov	 dl, BYTE PTR [esi+3]
  0007d	6a 05		 push	 5
  0007f	8d 45 e8	 lea	 eax, DWORD PTR _pResult$[ebp]
  00082	50		 push	 eax
  00083	51		 push	 ecx
  00084	c7 45 e8 c1 05
	f3 02		 mov	 DWORD PTR _pResult$[ebp], 49481153 ; 02f305c1H
  0008b	88 55 ec	 mov	 BYTE PTR _pResult$[ebp+4], dl
  0008e	e8 00 00 00 00	 call	 ?DataSend@@YAHHPAEK@Z	; DataSend

; 1236 : }

  00093	8b 4d fc	 mov	 ecx, DWORD PTR __$ArrayPad$[ebp]
  00096	83 c4 0c	 add	 esp, 12			; 0000000cH
  00099	5f		 pop	 edi
  0009a	33 cd		 xor	 ecx, ebp
  0009c	5e		 pop	 esi
  0009d	e8 00 00 00 00	 call	 @__security_check_cookie@4
  000a2	8b e5		 mov	 esp, ebp
  000a4	5d		 pop	 ebp
  000a5	c3		 ret	 0
?JGCharDelRequest@@YAXPAUSDHP_CHARDELETERESULT@@@Z ENDP	; JGCharDelRequest
_TEXT	ENDS
PUBLIC	_aIndex$GSCopy$
PUBLIC	__$ArrayPad$
PUBLIC	?GCItemListSend@@YAXH@Z				; GCItemListSend
EXTRN	?ItemByteConvert@@YAXPAEVCItem@@@Z:PROC		; ItemByteConvert
EXTRN	?IsItem@CItem@@QAEHXZ:PROC			; CItem::IsItem
; Function compile flags: /Ogtp
;	COMDAT ?GCItemListSend@@YAXH@Z
_TEXT	SEGMENT
_aIndex$GSCopy$ = -2084					; size = 4
tv206 = -2080						; size = 4
_itemcount$ = -2076					; size = 4
_n$158351 = -2072					; size = 4
_pMsgILC$ = -2068					; size = 6
_lpObj$ = -2068						; size = 4
_pMsgIL$ = -2060					; size = 8
_sendBuf$ = -2052					; size = 2048
__$ArrayPad$ = -4					; size = 4
_aIndex$ = 8						; size = 4
?GCItemListSend@@YAXH@Z PROC				; GCItemListSend, COMDAT

; 1489 : {

  00000	55		 push	 ebp
  00001	8b ec		 mov	 ebp, esp
  00003	81 ec 24 08 00
	00		 sub	 esp, 2084		; 00000824H
  00009	a1 00 00 00 00	 mov	 eax, DWORD PTR ___security_cookie
  0000e	33 c5		 xor	 eax, ebp
  00010	89 45 fc	 mov	 DWORD PTR __$ArrayPad$[ebp], eax
  00013	53		 push	 ebx
  00014	56		 push	 esi
  00015	57		 push	 edi
  00016	8b 7d 08	 mov	 edi, DWORD PTR _aIndex$[ebp]

; 1490 : 	PMSG_INVENTORYLISTCOUNT pMsgILC;	// Packet Message Item List Count
; 1491 : 	PMSG_INVENTORYLIST pMsgIL;	// Packet Message Item List
; 1492 : 	int sOfs = sizeof(PMSG_INVENTORYLISTCOUNT);
; 1493 : 	int pMsgILSize = sizeof(PMSG_INVENTORYLIST);
; 1494 : 	BYTE sendBuf[2048];
; 1495 : 	LPOBJ lpObj = &gObj[aIndex];

  00019	89 bd dc f7 ff
	ff		 mov	 DWORD PTR _aIndex$GSCopy$[ebp], edi
  0001f	69 ff 64 15 00
	00		 imul	 edi, 5476		; 00001564H
  00025	81 c7 00 00 00
	00		 add	 edi, OFFSET ?gObj@@3PAUOBJECTSTRUCT@@A ; gObj

; 1496 : 	int itemcount = 0;

  0002b	33 f6		 xor	 esi, esi
  0002d	bb 06 00 00 00	 mov	 ebx, 6
  00032	89 bd ec f7 ff
	ff		 mov	 DWORD PTR _lpObj$[ebp], edi
  00038	89 b5 e4 f7 ff
	ff		 mov	 DWORD PTR _itemcount$[ebp], esi

; 1497 : 	
; 1498 : 	for ( int n=0;n<INVENTORY_SIZE;n++)

  0003e	89 b5 e8 f7 ff
	ff		 mov	 DWORD PTR _n$158351[ebp], esi

; 1511 : 			sOfs += pMsgILSize;

  00044	89 b5 e0 f7 ff
	ff		 mov	 DWORD PTR tv206[ebp], esi
  0004a	8d 9b 00 00 00
	00		 npad	 6
$LL5@GCItemList:

; 1499 : 	{
; 1500 : 		if ( lpObj->pInventory[n].IsItem() == TRUE )

  00050	8b 8f 8c 0c 00
	00		 mov	 ecx, DWORD PTR [edi+3212]
  00056	03 ce		 add	 ecx, esi
  00058	e8 00 00 00 00	 call	 ?IsItem@CItem@@QAEHXZ	; CItem::IsItem
  0005d	83 f8 01	 cmp	 eax, 1
  00060	75 6c		 jne	 SHORT $LN4@GCItemList

; 1501 : 		{
; 1502 : 			if ( lpObj->pInventory[n].m_bItemExist == false )

  00062	8b 87 8c 0c 00
	00		 mov	 eax, DWORD PTR [edi+3212]
  00068	03 c6		 add	 eax, esi
  0006a	80 78 6c 00	 cmp	 BYTE PTR [eax+108], 0
  0006e	74 5e		 je	 SHORT $LN4@GCItemList

; 1503 : 			{
; 1504 : 				continue;
; 1505 : 			}
; 1506 : 
; 1507 : 			pMsgIL.Pos = n;

  00070	8a 8d e8 f7 ff
	ff		 mov	 cl, BYTE PTR _n$158351[ebp]
  00076	88 8d f4 f7 ff
	ff		 mov	 BYTE PTR _pMsgIL$[ebp], cl

; 1508 : 			ItemByteConvert(pMsgIL.ItemInfo,lpObj->pInventory[n]);

  0007c	81 ec a8 00 00
	00		 sub	 esp, 168		; 000000a8H
  00082	8d 95 f5 f7 ff
	ff		 lea	 edx, DWORD PTR _pMsgIL$[ebp+1]
  00088	8b f0		 mov	 esi, eax
  0008a	8b fc		 mov	 edi, esp
  0008c	b9 2a 00 00 00	 mov	 ecx, 42			; 0000002aH
  00091	52		 push	 edx
  00092	f3 a5		 rep movsd
  00094	e8 00 00 00 00	 call	 ?ItemByteConvert@@YAXPAEVCItem@@@Z ; ItemByteConvert

; 1509 : 			memcpy(&sendBuf[sOfs], &pMsgIL, pMsgILSize);

  00099	8b 85 f4 f7 ff
	ff		 mov	 eax, DWORD PTR _pMsgIL$[ebp]
  0009f	8b 8d f8 f7 ff
	ff		 mov	 ecx, DWORD PTR _pMsgIL$[ebp+4]

; 1510 : 			itemcount++;

  000a5	ff 85 e4 f7 ff
	ff		 inc	 DWORD PTR _itemcount$[ebp]

; 1511 : 			sOfs += pMsgILSize;

  000ab	8b b5 e0 f7 ff
	ff		 mov	 esi, DWORD PTR tv206[ebp]
  000b1	8b bd ec f7 ff
	ff		 mov	 edi, DWORD PTR _lpObj$[ebp]
  000b7	89 84 1d fc f7
	ff ff		 mov	 DWORD PTR _sendBuf$[ebp+ebx], eax
  000be	81 c4 ac 00 00
	00		 add	 esp, 172		; 000000acH
  000c4	89 8c 1d 00 f8
	ff ff		 mov	 DWORD PTR _sendBuf$[ebp+ebx+4], ecx
  000cb	83 c3 08	 add	 ebx, 8
$LN4@GCItemList:

; 1497 : 	
; 1498 : 	for ( int n=0;n<INVENTORY_SIZE;n++)

  000ce	ff 85 e8 f7 ff
	ff		 inc	 DWORD PTR _n$158351[ebp]
  000d4	81 c6 a8 00 00
	00		 add	 esi, 168		; 000000a8H
  000da	89 b5 e0 f7 ff
	ff		 mov	 DWORD PTR tv206[ebp], esi
  000e0	81 fe e0 46 00
	00		 cmp	 esi, 18144		; 000046e0H
  000e6	0f 8c 64 ff ff
	ff		 jl	 $LL5@GCItemList

; 1512 : 		}
; 1513 : 	}
; 1514 : 
; 1515 : 	pMsgILC.h.c = 0xC4;
; 1516 : 	pMsgILC.h.headcode = 0xF3;
; 1517 : 	pMsgILC.subcode = 0x10;
; 1518 : 	pMsgILC.h.sizeH = SET_NUMBERH(sOfs);
; 1519 : 	pMsgILC.h.sizeL = SET_NUMBERL(sOfs);
; 1520 : 	pMsgILC.Count = itemcount;

  000ec	8a 85 e4 f7 ff
	ff		 mov	 al, BYTE PTR _itemcount$[ebp]
  000f2	8b d3		 mov	 edx, ebx
  000f4	c1 ea 08	 shr	 edx, 8
  000f7	88 95 ed f7 ff
	ff		 mov	 BYTE PTR _pMsgILC$[ebp+1], dl
  000fd	66 c7 85 ef f7
	ff ff f3 10	 mov	 WORD PTR _pMsgILC$[ebp+3], 4339 ; 000010f3H
  00106	88 85 f1 f7 ff
	ff		 mov	 BYTE PTR _pMsgILC$[ebp+5], al

; 1521 : 	memcpy(sendBuf, &pMsgILC, sizeof(PMSG_INVENTORYLISTCOUNT));

  0010c	66 8b 95 f0 f7
	ff ff		 mov	 dx, WORD PTR _pMsgILC$[ebp+4]
  00113	c6 85 ec f7 ff
	ff c4		 mov	 BYTE PTR _pMsgILC$[ebp], 196 ; 000000c4H
  0011a	88 9d ee f7 ff
	ff		 mov	 BYTE PTR _pMsgILC$[ebp+2], bl
  00120	8b 8d ec f7 ff
	ff		 mov	 ecx, DWORD PTR _pMsgILC$[ebp]

; 1522 : 
; 1523 : 	DataSend(aIndex, sendBuf, sOfs);

  00126	53		 push	 ebx
  00127	8d 85 fc f7 ff
	ff		 lea	 eax, DWORD PTR _sendBuf$[ebp]
  0012d	89 8d fc f7 ff
	ff		 mov	 DWORD PTR _sendBuf$[ebp], ecx
  00133	8b 8d dc f7 ff
	ff		 mov	 ecx, DWORD PTR _aIndex$GSCopy$[ebp]
  00139	50		 push	 eax
  0013a	51		 push	 ecx
  0013b	66 89 95 00 f8
	ff ff		 mov	 WORD PTR _sendBuf$[ebp+4], dx
  00142	e8 00 00 00 00	 call	 ?DataSend@@YAHHPAEK@Z	; DataSend

; 1524 : }

  00147	8b 4d fc	 mov	 ecx, DWORD PTR __$ArrayPad$[ebp]
  0014a	83 c4 0c	 add	 esp, 12			; 0000000cH
  0014d	5f		 pop	 edi
  0014e	5e		 pop	 esi
  0014f	33 cd		 xor	 ecx, ebp
  00151	5b		 pop	 ebx
  00152	e8 00 00 00 00	 call	 @__security_check_cookie@4
  00157	8b e5		 mov	 esp, ebp
  00159	5d		 pop	 ebp
  0015a	c3		 ret	 0
?GCItemListSend@@YAXH@Z ENDP				; GCItemListSend
_TEXT	ENDS
PUBLIC	__$ArrayPad$
PUBLIC	?GDGetWarehouseList@@YAXHPAD@Z			; GDGetWarehouseList
; Function compile flags: /Ogtp
;	COMDAT ?GDGetWarehouseList@@YAXHPAD@Z
_TEXT	SEGMENT
_pMsg$ = -20						; size = 16
__$ArrayPad$ = -4					; size = 4
_aIndex$ = 8						; size = 4
_AccountID$ = 12					; size = 4
?GDGetWarehouseList@@YAXHPAD@Z PROC			; GDGetWarehouseList, COMDAT

; 1664 : {

  00000	55		 push	 ebp
  00001	8b ec		 mov	 ebp, esp
  00003	83 ec 14	 sub	 esp, 20			; 00000014H
  00006	a1 00 00 00 00	 mov	 eax, DWORD PTR ___security_cookie
  0000b	33 c5		 xor	 eax, ebp
  0000d	89 45 fc	 mov	 DWORD PTR __$ArrayPad$[ebp], eax
  00010	8b 55 0c	 mov	 edx, DWORD PTR _AccountID$[ebp]

; 1665 : 	if ( strlen(AccountID) < 1 )

  00013	8b c2		 mov	 eax, edx
  00015	56		 push	 esi
  00016	8d 70 01	 lea	 esi, DWORD PTR [eax+1]
  00019	8d a4 24 00 00
	00 00		 npad	 7
$LL4@GDGetWareh:
  00020	8a 08		 mov	 cl, BYTE PTR [eax]
  00022	40		 inc	 eax
  00023	84 c9		 test	 cl, cl
  00025	75 f9		 jne	 SHORT $LL4@GDGetWareh
  00027	2b c6		 sub	 eax, esi
  00029	5e		 pop	 esi
  0002a	83 f8 01	 cmp	 eax, 1
  0002d	72 35		 jb	 SHORT $LN2@GDGetWareh

; 1666 : 	{
; 1667 : 		return;
; 1668 : 	}
; 1669 : 
; 1670 : 	SDHP_GETWAREHOUSEDB	pMsg;
; 1671 : 
; 1672 : 	pMsg.h.c = 0xC1;
; 1673 : 	pMsg.h.headcode = 0x08;
; 1674 : 	pMsg.h.size = sizeof(SDHP_GETWAREHOUSEDB);
; 1675 : 	pMsg.aIndex = aIndex;
; 1676 : 	memcpy(pMsg.AccountID, AccountID, sizeof(pMsg.AccountID));

  0002f	8b 0a		 mov	 ecx, DWORD PTR [edx]
  00031	66 8b 45 08	 mov	 ax, WORD PTR _aIndex$[ebp]
  00035	89 4d ef	 mov	 DWORD PTR _pMsg$[ebp+3], ecx
  00038	66 8b 4a 08	 mov	 cx, WORD PTR [edx+8]
  0003c	66 89 45 fa	 mov	 WORD PTR _pMsg$[ebp+14], ax
  00040	8b 42 04	 mov	 eax, DWORD PTR [edx+4]

; 1677 : 
; 1678 : 	cDBSMng.Send((char*)&pMsg, pMsg.h.size);

  00043	6a 10		 push	 16			; 00000010H
  00045	8d 55 ec	 lea	 edx, DWORD PTR _pMsg$[ebp]
  00048	66 89 4d f7	 mov	 WORD PTR _pMsg$[ebp+11], cx
  0004c	52		 push	 edx
  0004d	b9 00 00 00 00	 mov	 ecx, OFFSET ?cDBSMng@@3VDBSockMng@@A ; cDBSMng
  00052	c6 45 ec c1	 mov	 BYTE PTR _pMsg$[ebp], 193 ; 000000c1H
  00056	66 c7 45 ed 10
	08		 mov	 WORD PTR _pMsg$[ebp+1], 2064 ; 00000810H
  0005c	89 45 f3	 mov	 DWORD PTR _pMsg$[ebp+7], eax
  0005f	e8 00 00 00 00	 call	 ?Send@DBSockMng@@QAEHPADH@Z ; DBSockMng::Send
$LN2@GDGetWareh:

; 1679 : }

  00064	8b 4d fc	 mov	 ecx, DWORD PTR __$ArrayPad$[ebp]
  00067	33 cd		 xor	 ecx, ebp
  00069	e8 00 00 00 00	 call	 @__security_check_cookie@4
  0006e	8b e5		 mov	 esp, ebp
  00070	5d		 pop	 ebp
  00071	c3		 ret	 0
?GDGetWarehouseList@@YAXHPAD@Z ENDP			; GDGetWarehouseList
_TEXT	ENDS
PUBLIC	__$ArrayPad$
PUBLIC	?GDGetWarehouseNoItem@@YAXPAUSDHP_GETWAREHOUSEDB_RESULT@@@Z ; GDGetWarehouseNoItem
; Function compile flags: /Ogtp
;	COMDAT ?GDGetWarehouseNoItem@@YAXPAUSDHP_GETWAREHOUSEDB_RESULT@@@Z
_TEXT	SEGMENT
_pResult$ = -28						; size = 10
_szId$ = -16						; size = 11
__$ArrayPad$ = -4					; size = 4
_lpMsg$ = 8						; size = 4
?GDGetWarehouseNoItem@@YAXPAUSDHP_GETWAREHOUSEDB_RESULT@@@Z PROC ; GDGetWarehouseNoItem, COMDAT

; 1917 : {

  00000	55		 push	 ebp
  00001	8b ec		 mov	 ebp, esp
  00003	83 ec 1c	 sub	 esp, 28			; 0000001cH
  00006	a1 00 00 00 00	 mov	 eax, DWORD PTR ___security_cookie
  0000b	33 c5		 xor	 eax, ebp
  0000d	89 45 fc	 mov	 DWORD PTR __$ArrayPad$[ebp], eax
  00010	8b 45 08	 mov	 eax, DWORD PTR _lpMsg$[ebp]

; 1918 : 	char szId[11];
; 1919 : 	int aIndex = lpMsg->aIndex;
; 1920 : 	PMSG_TALKRESULT pResult;
; 1921 : 
; 1922 : 	szId[MAX_ACCOUNT_LEN] = 0;
; 1923 : 	memcpy(szId, lpMsg->AccountID, sizeof(lpMsg->AccountID));

  00013	8b 48 03	 mov	 ecx, DWORD PTR [eax+3]
  00016	8b 50 07	 mov	 edx, DWORD PTR [eax+7]
  00019	56		 push	 esi
  0001a	0f bf 70 0e	 movsx	 esi, WORD PTR [eax+14]
  0001e	66 8b 40 0b	 mov	 ax, WORD PTR [eax+11]
  00022	89 4d f0	 mov	 DWORD PTR _szId$[ebp], ecx

; 1924 : 
; 1925 : 	if ( !gObjIsAccontConnect(aIndex, szId) )

  00025	8d 4d f0	 lea	 ecx, DWORD PTR _szId$[ebp]
  00028	51		 push	 ecx
  00029	56		 push	 esi
  0002a	c6 45 fa 00	 mov	 BYTE PTR _szId$[ebp+10], 0
  0002e	89 55 f4	 mov	 DWORD PTR _szId$[ebp+4], edx
  00031	66 89 45 f8	 mov	 WORD PTR _szId$[ebp+8], ax
  00035	e8 00 00 00 00	 call	 ?gObjIsAccontConnect@@YAHHPAD@Z ; gObjIsAccontConnect
  0003a	83 c4 08	 add	 esp, 8
  0003d	85 c0		 test	 eax, eax
  0003f	75 2e		 jne	 SHORT $LN3@GDGetWareh@2

; 1926 : 	{
; 1927 : 		LogAdd(LOG_RED,  lMsg.Get(MSGGET(1, 175)), szId, aIndex);

  00041	56		 push	 esi
  00042	8d 55 f0	 lea	 edx, DWORD PTR _szId$[ebp]
  00045	52		 push	 edx
  00046	68 af 01 00 00	 push	 431			; 000001afH
  0004b	b9 00 00 00 00	 mov	 ecx, OFFSET ?lMsg@@3VCMsg@@A ; lMsg
  00050	e8 00 00 00 00	 call	 ?Get@CMsg@@QAEPADH@Z	; CMsg::Get
  00055	50		 push	 eax
  00056	6a 01		 push	 1
  00058	e8 00 00 00 00	 call	 ?LogAdd@@YAXW4eLogColor@@PADZZ ; LogAdd
  0005d	83 c4 10	 add	 esp, 16			; 00000010H
  00060	5e		 pop	 esi

; 1946 : 		}
; 1947 : 	}
; 1948 : 
; 1949 : 	lpObj->LoadWareHouseInfo = true;
; 1950 : 	lpObj->m_ReqWarehouseOpen = false;
; 1951 : }

  00061	8b 4d fc	 mov	 ecx, DWORD PTR __$ArrayPad$[ebp]
  00064	33 cd		 xor	 ecx, ebp
  00066	e8 00 00 00 00	 call	 @__security_check_cookie@4
  0006b	8b e5		 mov	 esp, ebp
  0006d	5d		 pop	 ebp
  0006e	c3		 ret	 0
$LN3@GDGetWareh@2:

; 1928 : 		return;
; 1929 : 	}
; 1930 : 
; 1931 : 	LPOBJ lpObj = &gObj[aIndex];

  0006f	69 f6 64 15 00
	00		 imul	 esi, 5476		; 00001564H
  00075	81 c6 00 00 00
	00		 add	 esi, OFFSET ?gObj@@3PAUOBJECTSTRUCT@@A ; gObj

; 1932 : 	
; 1933 : 	if ( lpObj->m_IfState.type == 6 )

  0007b	8b 86 84 0c 00
	00		 mov	 eax, DWORD PTR [esi+3204]
  00081	8b c8		 mov	 ecx, eax
  00083	81 e1 c0 ff 00
	00		 and	 ecx, 65472		; 0000ffc0H
  00089	81 f9 80 01 00
	00		 cmp	 ecx, 384		; 00000180H
  0008f	75 57		 jne	 SHORT $LN1@GDGetWareh@2

; 1934 : 	{
; 1935 : 		if ( lpObj->m_IfState.state == 0 )

  00091	a8 3c		 test	 al, 60			; 0000003cH
  00093	75 53		 jne	 SHORT $LN1@GDGetWareh@2

; 1936 : 		{
; 1937 : 			lpObj->m_IfState.state = 1;

  00095	83 e0 c7	 and	 eax, -57		; ffffffc7H
  00098	83 c8 04	 or	 eax, 4

; 1938 : 			lpObj->WarehouseSave = 1;
; 1939 : 			pResult.h.c = 0xC3;
; 1940 : 			pResult.h.headcode = 0x30;
; 1941 : 			pResult.h.size = sizeof(pResult);
; 1942 : 			pResult.result = 2;
; 1943 : 
; 1944 : 			DataSend(lpObj->m_Index, (LPBYTE)&pResult, pResult.h.size);

  0009b	6a 0a		 push	 10			; 0000000aH
  0009d	8d 55 e4	 lea	 edx, DWORD PTR _pResult$[ebp]
  000a0	89 86 84 0c 00
	00		 mov	 DWORD PTR [esi+3204], eax
  000a6	8b 06		 mov	 eax, DWORD PTR [esi]
  000a8	52		 push	 edx
  000a9	50		 push	 eax
  000aa	c7 86 d8 0c 00
	00 01 00 00 00	 mov	 DWORD PTR [esi+3288], 1
  000b4	c6 45 e4 c3	 mov	 BYTE PTR _pResult$[ebp], 195 ; 000000c3H
  000b8	66 c7 45 e5 0a
	30		 mov	 WORD PTR _pResult$[ebp+1], 12298 ; 0000300aH
  000be	c6 45 e7 02	 mov	 BYTE PTR _pResult$[ebp+3], 2
  000c2	e8 00 00 00 00	 call	 ?DataSend@@YAHHPAEK@Z	; DataSend
  000c7	83 c4 0c	 add	 esp, 12			; 0000000cH

; 1945 : 			LogAdd(LOG_RED,  lMsg.Get(MSGGET(1, 176)), lpObj->Name);

  000ca	8d 4e 6f	 lea	 ecx, DWORD PTR [esi+111]
  000cd	51		 push	 ecx
  000ce	68 b0 01 00 00	 push	 432			; 000001b0H
  000d3	b9 00 00 00 00	 mov	 ecx, OFFSET ?lMsg@@3VCMsg@@A ; lMsg
  000d8	e8 00 00 00 00	 call	 ?Get@CMsg@@QAEPADH@Z	; CMsg::Get
  000dd	50		 push	 eax
  000de	6a 01		 push	 1
  000e0	e8 00 00 00 00	 call	 ?LogAdd@@YAXW4eLogColor@@PADZZ ; LogAdd
  000e5	83 c4 0c	 add	 esp, 12			; 0000000cH
$LN1@GDGetWareh@2:

; 1946 : 		}
; 1947 : 	}
; 1948 : 
; 1949 : 	lpObj->LoadWareHouseInfo = true;
; 1950 : 	lpObj->m_ReqWarehouseOpen = false;
; 1951 : }

  000e8	8b 4d fc	 mov	 ecx, DWORD PTR __$ArrayPad$[ebp]
  000eb	c6 86 b8 0e 00
	00 01		 mov	 BYTE PTR [esi+3768], 1
  000f2	c6 86 58 0f 00
	00 00		 mov	 BYTE PTR [esi+3928], 0
  000f9	33 cd		 xor	 ecx, ebp
  000fb	5e		 pop	 esi
  000fc	e8 00 00 00 00	 call	 @__security_check_cookie@4
  00101	8b e5		 mov	 esp, ebp
  00103	5d		 pop	 ebp
  00104	c3		 ret	 0
?GDGetWarehouseNoItem@@YAXPAUSDHP_GETWAREHOUSEDB_RESULT@@@Z ENDP ; GDGetWarehouseNoItem
_TEXT	ENDS
PUBLIC	__$ArrayPad$
PUBLIC	?GDUserItemSave@@YAXPAUOBJECTSTRUCT@@@Z		; GDUserItemSave
EXTRN	?ItemByteConvert16@@YAXPAEQAVCItem@@H@Z:PROC	; ItemByteConvert16
; Function compile flags: /Ogtp
;	COMDAT ?GDUserItemSave@@YAXPAUOBJECTSTRUCT@@@Z
_TEXT	SEGMENT
_pMsg$ = -1748						; size = 1742
__$ArrayPad$ = -4					; size = 4
_lpObj$ = 8						; size = 4
?GDUserItemSave@@YAXPAUOBJECTSTRUCT@@@Z PROC		; GDUserItemSave, COMDAT

; 1994 : {

  00000	55		 push	 ebp
  00001	8b ec		 mov	 ebp, esp
  00003	81 ec d4 06 00
	00		 sub	 esp, 1748		; 000006d4H
  00009	a1 00 00 00 00	 mov	 eax, DWORD PTR ___security_cookie
  0000e	33 c5		 xor	 eax, ebp
  00010	89 45 fc	 mov	 DWORD PTR __$ArrayPad$[ebp], eax
  00013	8b 45 08	 mov	 eax, DWORD PTR _lpObj$[ebp]

; 1995 : 	SDHP_DBCHAR_ITEMSAVE pMsg;
; 1996 : 
; 1997 : 	pMsg.h.c = 0xC2;
; 1998 : 	pMsg.h.headcode = 0x11;
; 1999 : 	pMsg.h.sizeH = HIBYTE(sizeof(pMsg));
; 2000 : 	pMsg.h.sizeL = LOBYTE(sizeof(pMsg));
; 2001 : 	memcpy(pMsg.Name, lpObj->Name, sizeof(pMsg.Name));

  00016	8b 50 73	 mov	 edx, DWORD PTR [eax+115]
  00019	8b 48 6f	 mov	 ecx, DWORD PTR [eax+111]
  0001c	89 95 34 f9 ff
	ff		 mov	 DWORD PTR _pMsg$[ebp+8], edx

; 2002 : 	ItemByteConvert16(pMsg.dbInventory, lpObj->pInventory, INVENTORY_SIZE);

  00022	8b 90 8c 0c 00
	00		 mov	 edx, DWORD PTR [eax+3212]
  00028	89 8d 30 f9 ff
	ff		 mov	 DWORD PTR _pMsg$[ebp+4], ecx
  0002e	66 8b 48 77	 mov	 cx, WORD PTR [eax+119]
  00032	6a 6c		 push	 108			; 0000006cH
  00034	52		 push	 edx
  00035	8d 85 3a f9 ff
	ff		 lea	 eax, DWORD PTR _pMsg$[ebp+14]
  0003b	50		 push	 eax
  0003c	c7 85 2c f9 ff
	ff c2 06 ce 11	 mov	 DWORD PTR _pMsg$[ebp], 298714818 ; 11ce06c2H
  00046	66 89 8d 38 f9
	ff ff		 mov	 WORD PTR _pMsg$[ebp+12], cx
  0004d	e8 00 00 00 00	 call	 ?ItemByteConvert16@@YAXPAEQAVCItem@@H@Z ; ItemByteConvert16
  00052	83 c4 0c	 add	 esp, 12			; 0000000cH

; 2003 : 
; 2004 : 	cDBSMng.Send((PCHAR)&pMsg, sizeof(pMsg));

  00055	68 ce 06 00 00	 push	 1742			; 000006ceH
  0005a	8d 8d 2c f9 ff
	ff		 lea	 ecx, DWORD PTR _pMsg$[ebp]
  00060	51		 push	 ecx
  00061	b9 00 00 00 00	 mov	 ecx, OFFSET ?cDBSMng@@3VDBSockMng@@A ; cDBSMng
  00066	e8 00 00 00 00	 call	 ?Send@DBSockMng@@QAEHPADH@Z ; DBSockMng::Send

; 2005 : }

  0006b	8b 4d fc	 mov	 ecx, DWORD PTR __$ArrayPad$[ebp]
  0006e	33 cd		 xor	 ecx, ebp
  00070	e8 00 00 00 00	 call	 @__security_check_cookie@4
  00075	8b e5		 mov	 esp, ebp
  00077	5d		 pop	 ebp
  00078	c3		 ret	 0
?GDUserItemSave@@YAXPAUOBJECTSTRUCT@@@Z ENDP		; GDUserItemSave
_TEXT	ENDS
PUBLIC	__$ArrayPad$
PUBLIC	?GDSetWarehouseMoney@@YAXH@Z			; GDSetWarehouseMoney
; Function compile flags: /Ogtp
;	COMDAT ?GDSetWarehouseMoney@@YAXH@Z
_TEXT	SEGMENT
_pMsg$ = -24						; size = 20
__$ArrayPad$ = -4					; size = 4
_aIndex$ = 8						; size = 4
?GDSetWarehouseMoney@@YAXH@Z PROC			; GDSetWarehouseMoney, COMDAT

; 2023 : {

  00000	55		 push	 ebp
  00001	8b ec		 mov	 ebp, esp
  00003	83 ec 18	 sub	 esp, 24			; 00000018H
  00006	a1 00 00 00 00	 mov	 eax, DWORD PTR ___security_cookie
  0000b	33 c5		 xor	 eax, ebp
  0000d	89 45 fc	 mov	 DWORD PTR __$ArrayPad$[ebp], eax
  00010	8b 4d 08	 mov	 ecx, DWORD PTR _aIndex$[ebp]

; 2024 : 	SDHP_WAREHOUSEMONEY_SAVE pMsg;
; 2025 : 
; 2026 : 	memcpy(pMsg.AccountID, gObj[aIndex].AccountID, sizeof(pMsg.AccountID));

  00013	8b c1		 mov	 eax, ecx
  00015	69 c0 64 15 00
	00		 imul	 eax, 5476		; 00001564H
  0001b	8b 90 64 00 00
	00		 mov	 edx, DWORD PTR ?gObj@@3PAUOBJECTSTRUCT@@A[eax+100]
  00021	89 55 eb	 mov	 DWORD PTR _pMsg$[ebp+3], edx
  00024	8b 90 68 00 00
	00		 mov	 edx, DWORD PTR ?gObj@@3PAUOBJECTSTRUCT@@A[eax+104]

; 2027 : 	pMsg.aIndex = aIndex;

  0002a	66 89 4d f6	 mov	 WORD PTR _pMsg$[ebp+14], cx
  0002e	89 55 ef	 mov	 DWORD PTR _pMsg$[ebp+7], edx
  00031	66 8b 90 6c 00
	00 00		 mov	 dx, WORD PTR ?gObj@@3PAUOBJECTSTRUCT@@A[eax+108]

; 2028 : 	pMsg.h.c = 0xC1;
; 2029 : 	pMsg.h.headcode = 0x12;
; 2030 : 	pMsg.h.size = sizeof(pMsg);
; 2031 : 	pMsg.Money = gObj[aIndex].WarehouseMoney;

  00038	8b 80 d4 0c 00
	00		 mov	 eax, DWORD PTR ?gObj@@3PAUOBJECTSTRUCT@@A[eax+3284]

; 2032 : 
; 2033 : 	cDBSMng.Send((PCHAR)&pMsg, sizeof(pMsg));

  0003e	6a 14		 push	 20			; 00000014H
  00040	8d 4d e8	 lea	 ecx, DWORD PTR _pMsg$[ebp]
  00043	51		 push	 ecx
  00044	b9 00 00 00 00	 mov	 ecx, OFFSET ?cDBSMng@@3VDBSockMng@@A ; cDBSMng
  00049	66 89 55 f3	 mov	 WORD PTR _pMsg$[ebp+11], dx
  0004d	c6 45 e8 c1	 mov	 BYTE PTR _pMsg$[ebp], 193 ; 000000c1H
  00051	66 c7 45 e9 14
	12		 mov	 WORD PTR _pMsg$[ebp+1], 4628 ; 00001214H
  00057	89 45 f8	 mov	 DWORD PTR _pMsg$[ebp+16], eax
  0005a	e8 00 00 00 00	 call	 ?Send@DBSockMng@@QAEHPADH@Z ; DBSockMng::Send

; 2034 : }

  0005f	8b 4d fc	 mov	 ecx, DWORD PTR __$ArrayPad$[ebp]
  00062	33 cd		 xor	 ecx, ebp
  00064	e8 00 00 00 00	 call	 @__security_check_cookie@4
  00069	8b e5		 mov	 esp, ebp
  0006b	5d		 pop	 ebp
  0006c	c3		 ret	 0
?GDSetWarehouseMoney@@YAXH@Z ENDP			; GDSetWarehouseMoney
_TEXT	ENDS
PUBLIC	?GDGameServerInfoSave@@YAXXZ			; GDGameServerInfoSave
; Function compile flags: /Ogtp
;	COMDAT ?GDGameServerInfoSave@@YAXXZ
_TEXT	SEGMENT
?GDGameServerInfoSave@@YAXXZ PROC			; GDGameServerInfoSave, COMDAT

; 2038 : 	return;		// GHere goes a MACRO
; 2039 : }

  00000	c3		 ret	 0
?GDGameServerInfoSave@@YAXXZ ENDP			; GDGameServerInfoSave
_TEXT	ENDS
PUBLIC	??_C@_0GG@PDKAJKAJ@Monster?5Item?5Drop?5Request?5?$FL?$CFs?$FN?5?$FL@ ; `string'
PUBLIC	__$ArrayPad$
PUBLIC	?ItemSerialCreateSend@@YAXHEEEHEEEEEHEE@Z	; ItemSerialCreateSend
EXTRN	?ItemAttribute@@3PAUITEM_ATTRIBUTE@@A:BYTE	; ItemAttribute
EXTRN	?ItemGetDurability@@YAHHHHH@Z:PROC		; ItemGetDurability
;	COMDAT ??_C@_0GG@PDKAJKAJ@Monster?5Item?5Drop?5Request?5?$FL?$CFs?$FN?5?$FL@
CONST	SEGMENT
??_C@_0GG@PDKAJKAJ@Monster?5Item?5Drop?5Request?5?$FL?$CFs?$FN?5?$FL@ DB 'M'
	DB	'onster Item Drop Request [%s] [%d][%d][%d] : [%s][%d][%d][%d]'
	DB	'[%d] Ex:[%d,%d,%d,%d,%d,%d,%d] Set:[%d]', 00H ; `string'
; Function compile flags: /Ogtp
CONST	ENDS
;	COMDAT ?ItemSerialCreateSend@@YAXHEEEHEEEEEHEE@Z
_TEXT	SEGMENT
_pMsg$ = -36						; size = 24
_NewOption$158611 = -12					; size = 8
__$ArrayPad$ = -4					; size = 4
_aIndex$ = 8						; size = 4
_MapNumber$ = 12					; size = 1
_x$ = 16						; size = 1
_y$ = 20						; size = 1
_type$ = 24						; size = 4
_level$ = 28						; size = 1
_dur$ = 32						; size = 1
_Op1$ = 36						; size = 1
_Op2$ = 40						; size = 1
_Op3$ = 44						; size = 1
_LootIndex$ = 48					; size = 4
_NewOption$ = 52					; size = 1
_SetOption$ = 56					; size = 1
?ItemSerialCreateSend@@YAXHEEEHEEEEEHEE@Z PROC		; ItemSerialCreateSend, COMDAT

; 2067 : {

  00000	55		 push	 ebp
  00001	8b ec		 mov	 ebp, esp
  00003	83 ec 24	 sub	 esp, 36			; 00000024H
  00006	a1 00 00 00 00	 mov	 eax, DWORD PTR ___security_cookie
  0000b	33 c5		 xor	 eax, ebp
  0000d	89 45 fc	 mov	 DWORD PTR __$ArrayPad$[ebp], eax

; 2068 : 	SDHP_ITEMCREATE  pMsg;
; 2069 : 
; 2070 : 	pMsg.h.c = 0xC1;
; 2071 : 	pMsg.h.headcode = 0x52;
; 2072 : 	pMsg.h.size = sizeof(pMsg);
; 2073 : 	pMsg.MapNumber = MapNumber;

  00010	8a 45 0c	 mov	 al, BYTE PTR _MapNumber$[ebp]

; 2074 : 	pMsg.x = x;

  00013	8a 4d 10	 mov	 cl, BYTE PTR _x$[ebp]

; 2075 : 	pMsg.y = y;

  00016	8a 55 14	 mov	 dl, BYTE PTR _y$[ebp]
  00019	53		 push	 ebx

; 2076 : 	pMsg.Type = type;
; 2077 : 	pMsg.Level = level;
; 2078 : 
; 2079 : 	if (dur == 0 )

  0001a	8a 5d 38	 mov	 bl, BYTE PTR _SetOption$[ebp]
  0001d	88 45 e1	 mov	 BYTE PTR _pMsg$[ebp+5], al
  00020	8a 45 20	 mov	 al, BYTE PTR _dur$[ebp]
  00023	88 4d df	 mov	 BYTE PTR _pMsg$[ebp+3], cl
  00026	8b 4d 18	 mov	 ecx, DWORD PTR _type$[ebp]
  00029	88 55 e0	 mov	 BYTE PTR _pMsg$[ebp+4], dl
  0002c	8a 55 1c	 mov	 dl, BYTE PTR _level$[ebp]
  0002f	56		 push	 esi
  00030	8b 75 08	 mov	 esi, DWORD PTR _aIndex$[ebp]
  00033	c6 45 dc c1	 mov	 BYTE PTR _pMsg$[ebp], 193 ; 000000c1H
  00037	66 c7 45 dd 18
	52		 mov	 WORD PTR _pMsg$[ebp+1], 21016 ; 00005218H
  0003d	66 89 4d e2	 mov	 WORD PTR _pMsg$[ebp+6], cx
  00041	88 55 e4	 mov	 BYTE PTR _pMsg$[ebp+8], dl
  00044	84 c0		 test	 al, al
  00046	75 16		 jne	 SHORT $LN11@ItemSerial

; 2080 : 	{
; 2081 : 		dur = ItemGetDurability(type, level, NewOption, SetOption);

  00048	0f b6 c3	 movzx	 eax, bl
  0004b	50		 push	 eax
  0004c	0f b6 45 34	 movzx	 eax, BYTE PTR _NewOption$[ebp]
  00050	0f b6 d2	 movzx	 edx, dl
  00053	50		 push	 eax
  00054	52		 push	 edx
  00055	51		 push	 ecx
  00056	e8 00 00 00 00	 call	 ?ItemGetDurability@@YAHHHHH@Z ; ItemGetDurability
  0005b	83 c4 10	 add	 esp, 16			; 00000010H
$LN11@ItemSerial:

; 2082 : 	}
; 2083 : 
; 2084 : 	pMsg.Dur = dur;
; 2085 : 	pMsg.Op1 = Op1;
; 2086 : 	pMsg.Op2 = Op2;

  0005e	8a 4d 28	 mov	 cl, BYTE PTR _Op2$[ebp]

; 2087 : 	pMsg.Op3 = Op3;

  00061	8a 55 2c	 mov	 dl, BYTE PTR _Op3$[ebp]
  00064	88 45 e5	 mov	 BYTE PTR _pMsg$[ebp+9], al
  00067	8a 45 24	 mov	 al, BYTE PTR _Op1$[ebp]
  0006a	88 45 e6	 mov	 BYTE PTR _pMsg$[ebp+10], al

; 2088 : 	pMsg.NewOption = NewOption;

  0006d	8a 45 34	 mov	 al, BYTE PTR _NewOption$[ebp]
  00070	88 4d e7	 mov	 BYTE PTR _pMsg$[ebp+11], cl

; 2089 : 	pMsg.aIndex = aIndex;
; 2090 : 	pMsg.lootindex = LootIndex;

  00073	66 8b 4d 30	 mov	 cx, WORD PTR _LootIndex$[ebp]
  00077	88 55 e8	 mov	 BYTE PTR _pMsg$[ebp+12], dl
  0007a	88 45 e9	 mov	 BYTE PTR _pMsg$[ebp+13], al
  0007d	89 75 ec	 mov	 DWORD PTR _pMsg$[ebp+16], esi
  00080	66 89 4d f0	 mov	 WORD PTR _pMsg$[ebp+20], cx

; 2091 : 	pMsg.SetOption = SetOption;

  00084	88 5d f2	 mov	 BYTE PTR _pMsg$[ebp+22], bl

; 2092 : 
; 2093 : 	if ( OBJMAX_RANGE(aIndex) != FALSE  && gObj[aIndex].Type != OBJ_USER )

  00087	85 f6		 test	 esi, esi
  00089	0f 88 ce 00 00
	00		 js	 $LN10@ItemSerial
  0008f	33 c9		 xor	 ecx, ecx
  00091	81 fe e7 1c 00
	00		 cmp	 esi, 7399		; 00001ce7H
  00097	0f 9e c1	 setle	 cl
  0009a	85 c9		 test	 ecx, ecx
  0009c	0f 84 bb 00 00
	00		 je	 $LN10@ItemSerial
  000a2	69 f6 64 15 00
	00		 imul	 esi, 5476		; 00001564H
  000a8	b9 01 00 00 00	 mov	 ecx, 1
  000ad	66 39 8e 60 00
	00 00		 cmp	 WORD PTR ?gObj@@3PAUOBJECTSTRUCT@@A[esi+96], cx
  000b4	0f 84 a3 00 00
	00		 je	 $LN10@ItemSerial

; 2094 : 	{
; 2095 : 		BYTE NewOption[MAX_EXOPTION_SIZE];
; 2096 : 
; 2097 : 		for ( int i=0;i<MAX_EXOPTION_SIZE;i++)
; 2098 : 		{
; 2099 : 			NewOption[i] = 0;

  000ba	33 d2		 xor	 edx, edx
  000bc	89 55 f4	 mov	 DWORD PTR _NewOption$158611[ebp], edx
  000bf	89 55 f8	 mov	 DWORD PTR _NewOption$158611[ebp+4], edx

; 2100 : 		}
; 2101 : 
; 2102 : 		if ( (pMsg.NewOption & 0x20) != 0 )

  000c2	a8 20		 test	 al, 32			; 00000020H
  000c4	74 03		 je	 SHORT $LN18@ItemSerial

; 2103 : 		{
; 2104 : 			NewOption[0] = TRUE;

  000c6	88 4d f4	 mov	 BYTE PTR _NewOption$158611[ebp], cl
$LN18@ItemSerial:

; 2105 : 		}
; 2106 : 		if ( (pMsg.NewOption & 0x10) != 0 )

  000c9	a8 10		 test	 al, 16			; 00000010H
  000cb	74 03		 je	 SHORT $LN19@ItemSerial

; 2107 : 		{
; 2108 : 			NewOption[1] = TRUE;

  000cd	88 4d f5	 mov	 BYTE PTR _NewOption$158611[ebp+1], cl
$LN19@ItemSerial:

; 2109 : 		}
; 2110 : 
; 2111 : 		if ( (pMsg.NewOption & 0x8) != 0 )

  000d0	a8 08		 test	 al, 8
  000d2	74 03		 je	 SHORT $LN20@ItemSerial

; 2112 : 		{
; 2113 : 			NewOption[2] = TRUE;

  000d4	88 4d f6	 mov	 BYTE PTR _NewOption$158611[ebp+2], cl
$LN20@ItemSerial:

; 2114 : 		}
; 2115 : 		if ( (pMsg.NewOption & 0x4) != 0 )
; 2116 : 		{
; 2117 : 			NewOption[3] = TRUE;

  000d7	8a d1		 mov	 dl, cl
  000d9	a8 04		 test	 al, 4
  000db	75 03		 jne	 SHORT $LN3@ItemSerial
  000dd	8a 55 f7	 mov	 dl, BYTE PTR _NewOption$158611[ebp+3]
$LN3@ItemSerial:

; 2118 : 		}
; 2119 : 
; 2120 : 		if ( (pMsg.NewOption & 0x2) != 0 )

  000e0	a8 02		 test	 al, 2

; 2121 : 		{
; 2122 : 			NewOption[4] = TRUE;

  000e2	75 03		 jne	 SHORT $LN2@ItemSerial
  000e4	8a 4d f8	 mov	 cl, BYTE PTR _NewOption$158611[ebp+4]
$LN2@ItemSerial:

; 2123 : 		}
; 2124 : 		if ( (pMsg.NewOption & 0x1) != 0 )

  000e7	a8 01		 test	 al, 1

; 2125 : 		{
; 2126 : 			NewOption[5] = TRUE;

  000e9	b0 01		 mov	 al, 1
  000eb	75 03		 jne	 SHORT $LN1@ItemSerial
  000ed	8a 45 f9	 mov	 al, BYTE PTR _NewOption$158611[ebp+5]
$LN1@ItemSerial:
  000f0	57		 push	 edi

; 2127 : 		}
; 2128 : 
; 2129 : 		LogAdd(LOG_BLACK, "Monster Item Drop Request [%s] [%d][%d][%d] : [%s][%d][%d][%d][%d] Ex:[%d,%d,%d,%d,%d,%d,%d] Set:[%d]",
; 2130 : 			gObj[aIndex].Name, MapNumber, pMsg.x, pMsg.y, ItemAttribute[pMsg.Type].Name,
; 2131 : 			pMsg.Level, pMsg.Op1,pMsg.Op2, pMsg.Op3, NewOption[0], NewOption[1], NewOption[2],
; 2132 : 			NewOption[3], NewOption[4],	NewOption[5], NewOption[6], pMsg.SetOption);

  000f1	0f b6 fb	 movzx	 edi, bl
  000f4	57		 push	 edi
  000f5	0f b6 7d fa	 movzx	 edi, BYTE PTR _NewOption$158611[ebp+6]
  000f9	57		 push	 edi
  000fa	0f b6 c0	 movzx	 eax, al
  000fd	50		 push	 eax
  000fe	0f b6 45 f6	 movzx	 eax, BYTE PTR _NewOption$158611[ebp+2]
  00102	0f b6 c9	 movzx	 ecx, cl
  00105	51		 push	 ecx
  00106	0f b6 4d f5	 movzx	 ecx, BYTE PTR _NewOption$158611[ebp+1]
  0010a	0f b6 d2	 movzx	 edx, dl
  0010d	52		 push	 edx
  0010e	0f b6 55 f4	 movzx	 edx, BYTE PTR _NewOption$158611[ebp]
  00112	50		 push	 eax
  00113	0f b6 45 2c	 movzx	 eax, BYTE PTR _Op3$[ebp]
  00117	51		 push	 ecx
  00118	0f b6 4d 28	 movzx	 ecx, BYTE PTR _Op2$[ebp]
  0011c	52		 push	 edx
  0011d	0f b6 55 24	 movzx	 edx, BYTE PTR _Op1$[ebp]
  00121	50		 push	 eax
  00122	0f b6 45 e4	 movzx	 eax, BYTE PTR _pMsg$[ebp+8]
  00126	51		 push	 ecx
  00127	0f bf 4d e2	 movsx	 ecx, WORD PTR _pMsg$[ebp+6]
  0012b	6b c9 6c	 imul	 ecx, 108		; 0000006cH
  0012e	52		 push	 edx
  0012f	0f b6 55 e0	 movzx	 edx, BYTE PTR _pMsg$[ebp+4]
  00133	50		 push	 eax
  00134	0f b6 45 df	 movzx	 eax, BYTE PTR _pMsg$[ebp+3]
  00138	81 c1 00 00 00
	00		 add	 ecx, OFFSET ?ItemAttribute@@3PAUITEM_ATTRIBUTE@@A ; ItemAttribute
  0013e	51		 push	 ecx
  0013f	0f b6 4d 0c	 movzx	 ecx, BYTE PTR _MapNumber$[ebp]
  00143	52		 push	 edx
  00144	50		 push	 eax
  00145	51		 push	 ecx
  00146	8d 96 6f 00 00
	00		 lea	 edx, DWORD PTR ?gObj@@3PAUOBJECTSTRUCT@@A[esi+111]
  0014c	52		 push	 edx
  0014d	68 00 00 00 00	 push	 OFFSET ??_C@_0GG@PDKAJKAJ@Monster?5Item?5Drop?5Request?5?$FL?$CFs?$FN?5?$FL@
  00152	6a 00		 push	 0
  00154	e8 00 00 00 00	 call	 ?LogAdd@@YAXW4eLogColor@@PADZZ ; LogAdd
  00159	83 c4 4c	 add	 esp, 76			; 0000004cH
  0015c	5f		 pop	 edi
$LN10@ItemSerial:

; 2133 : 	}
; 2134 : 
; 2135 : 	cDBSMng.Send( (char*)&pMsg, pMsg.h.size);

  0015d	0f b6 45 dd	 movzx	 eax, BYTE PTR _pMsg$[ebp+1]
  00161	50		 push	 eax
  00162	8d 4d dc	 lea	 ecx, DWORD PTR _pMsg$[ebp]
  00165	51		 push	 ecx
  00166	b9 00 00 00 00	 mov	 ecx, OFFSET ?cDBSMng@@3VDBSockMng@@A ; cDBSMng
  0016b	e8 00 00 00 00	 call	 ?Send@DBSockMng@@QAEHPADH@Z ; DBSockMng::Send

; 2136 : }

  00170	8b 4d fc	 mov	 ecx, DWORD PTR __$ArrayPad$[ebp]
  00173	5e		 pop	 esi
  00174	33 cd		 xor	 ecx, ebp
  00176	5b		 pop	 ebx
  00177	e8 00 00 00 00	 call	 @__security_check_cookie@4
  0017c	8b e5		 mov	 esp, ebp
  0017e	5d		 pop	 ebp
  0017f	c3		 ret	 0
?ItemSerialCreateSend@@YAXHEEEHEEEEEHEE@Z ENDP		; ItemSerialCreateSend
_TEXT	ENDS
PUBLIC	__$ArrayPad$
PUBLIC	?PetItemSerialCreateSend@@YAXHEEEHEEEEEHEE@Z	; PetItemSerialCreateSend
; Function compile flags: /Ogtp
;	COMDAT ?PetItemSerialCreateSend@@YAXHEEEHEEEEEHEE@Z
_TEXT	SEGMENT
_pMsg$ = -28						; size = 24
__$ArrayPad$ = -4					; size = 4
_aIndex$ = 8						; size = 4
_MapNumber$ = 12					; size = 1
_x$ = 16						; size = 1
_y$ = 20						; size = 1
_type$ = 24						; size = 4
_level$ = 28						; size = 1
_dur$ = 32						; size = 1
_Op1$ = 36						; size = 1
_Op2$ = 40						; size = 1
_Op3$ = 44						; size = 1
_LootIndex$ = 48					; size = 4
_NewOption$ = 52					; size = 1
_SetOption$ = 56					; size = 1
?PetItemSerialCreateSend@@YAXHEEEHEEEEEHEE@Z PROC	; PetItemSerialCreateSend, COMDAT

; 2140 : {

  00000	55		 push	 ebp
  00001	8b ec		 mov	 ebp, esp
  00003	83 ec 1c	 sub	 esp, 28			; 0000001cH
  00006	a1 00 00 00 00	 mov	 eax, DWORD PTR ___security_cookie
  0000b	33 c5		 xor	 eax, ebp
  0000d	89 45 fc	 mov	 DWORD PTR __$ArrayPad$[ebp], eax

; 2141 : 	SDHP_ITEMCREATE  pMsg;
; 2142 : 
; 2143 : 	pMsg.h.c = 0xC1;
; 2144 : 	pMsg.h.headcode = 0x55;
; 2145 : 	pMsg.h.size = sizeof(pMsg);
; 2146 : 	pMsg.MapNumber = MapNumber;

  00010	8a 45 0c	 mov	 al, BYTE PTR _MapNumber$[ebp]

; 2147 : 	pMsg.x = x;

  00013	8a 4d 10	 mov	 cl, BYTE PTR _x$[ebp]

; 2148 : 	pMsg.y = y;

  00016	8a 55 14	 mov	 dl, BYTE PTR _y$[ebp]
  00019	88 45 e9	 mov	 BYTE PTR _pMsg$[ebp+5], al

; 2149 : 	pMsg.Type = type;
; 2150 : 	pMsg.Level = level;
; 2151 : 
; 2152 : 	if (dur == 0 )

  0001c	8a 45 20	 mov	 al, BYTE PTR _dur$[ebp]
  0001f	88 4d e7	 mov	 BYTE PTR _pMsg$[ebp+3], cl
  00022	8b 4d 18	 mov	 ecx, DWORD PTR _type$[ebp]
  00025	88 55 e8	 mov	 BYTE PTR _pMsg$[ebp+4], dl
  00028	8a 55 1c	 mov	 dl, BYTE PTR _level$[ebp]
  0002b	53		 push	 ebx
  0002c	8a 5d 38	 mov	 bl, BYTE PTR _SetOption$[ebp]
  0002f	c6 45 e4 c1	 mov	 BYTE PTR _pMsg$[ebp], 193 ; 000000c1H
  00033	66 c7 45 e5 18
	55		 mov	 WORD PTR _pMsg$[ebp+1], 21784 ; 00005518H
  00039	66 89 4d ea	 mov	 WORD PTR _pMsg$[ebp+6], cx
  0003d	88 55 ec	 mov	 BYTE PTR _pMsg$[ebp+8], dl
  00040	84 c0		 test	 al, al
  00042	75 16		 jne	 SHORT $LN1@PetItemSer

; 2153 : 	{
; 2154 : 		dur = ItemGetDurability(type, level, NewOption, SetOption);

  00044	0f b6 c3	 movzx	 eax, bl
  00047	50		 push	 eax
  00048	0f b6 45 34	 movzx	 eax, BYTE PTR _NewOption$[ebp]
  0004c	0f b6 d2	 movzx	 edx, dl
  0004f	50		 push	 eax
  00050	52		 push	 edx
  00051	51		 push	 ecx
  00052	e8 00 00 00 00	 call	 ?ItemGetDurability@@YAHHHHH@Z ; ItemGetDurability
  00057	83 c4 10	 add	 esp, 16			; 00000010H
$LN1@PetItemSer:

; 2155 : 	}
; 2156 : 
; 2157 : 	pMsg.Dur = dur;
; 2158 : 	pMsg.Op1 = Op1;
; 2159 : 	pMsg.Op2 = Op2;

  0005a	8a 4d 28	 mov	 cl, BYTE PTR _Op2$[ebp]

; 2160 : 	pMsg.Op3 = Op3;

  0005d	8a 55 2c	 mov	 dl, BYTE PTR _Op3$[ebp]
  00060	88 45 ed	 mov	 BYTE PTR _pMsg$[ebp+9], al
  00063	8a 45 24	 mov	 al, BYTE PTR _Op1$[ebp]
  00066	88 45 ee	 mov	 BYTE PTR _pMsg$[ebp+10], al

; 2161 : 	pMsg.NewOption = NewOption;

  00069	8a 45 34	 mov	 al, BYTE PTR _NewOption$[ebp]
  0006c	88 4d ef	 mov	 BYTE PTR _pMsg$[ebp+11], cl

; 2162 : 	pMsg.aIndex = aIndex;

  0006f	8b 4d 08	 mov	 ecx, DWORD PTR _aIndex$[ebp]
  00072	88 45 f1	 mov	 BYTE PTR _pMsg$[ebp+13], al

; 2163 : 	pMsg.lootindex = LootIndex;
; 2164 : 	pMsg.SetOption = SetOption;
; 2165 : 
; 2166 : 	cDBSMng.Send( (char*)&pMsg, pMsg.h.size);

  00075	0f b6 45 e5	 movzx	 eax, BYTE PTR _pMsg$[ebp+1]
  00079	89 4d f4	 mov	 DWORD PTR _pMsg$[ebp+16], ecx
  0007c	50		 push	 eax
  0007d	8d 4d e4	 lea	 ecx, DWORD PTR _pMsg$[ebp]
  00080	88 55 f0	 mov	 BYTE PTR _pMsg$[ebp+12], dl
  00083	66 8b 55 30	 mov	 dx, WORD PTR _LootIndex$[ebp]
  00087	51		 push	 ecx
  00088	b9 00 00 00 00	 mov	 ecx, OFFSET ?cDBSMng@@3VDBSockMng@@A ; cDBSMng
  0008d	66 89 55 f8	 mov	 WORD PTR _pMsg$[ebp+20], dx
  00091	88 5d fa	 mov	 BYTE PTR _pMsg$[ebp+22], bl
  00094	e8 00 00 00 00	 call	 ?Send@DBSockMng@@QAEHPADH@Z ; DBSockMng::Send

; 2167 : }

  00099	8b 4d fc	 mov	 ecx, DWORD PTR __$ArrayPad$[ebp]
  0009c	33 cd		 xor	 ecx, ebp
  0009e	5b		 pop	 ebx
  0009f	e8 00 00 00 00	 call	 @__security_check_cookie@4
  000a4	8b e5		 mov	 esp, ebp
  000a6	5d		 pop	 ebp
  000a7	c3		 ret	 0
?PetItemSerialCreateSend@@YAXHEEEHEEEEEHEE@Z ENDP	; PetItemSerialCreateSend
_TEXT	ENDS
PUBLIC	??_C@_0GA@EHKFCGJE@?$FL?$CFs?$FN?$FL?$CFs?$FN?5CBMix?5Item?5Create?5Item?3@ ; `string'
PUBLIC	??_C@_0BN@BDLDNMBN@error?9L2?3?5ChaosBox?5not?5used?4?$AA@ ; `string'
PUBLIC	??_C@_0CD@JBKACADO@error?9L2?3?5DarkTrainerBox?5not?5use@ ; `string'
PUBLIC	??_C@_0BC@OFCHNMFP@error?9L3?5?$FL?$CFs?$FN?$FL?$CFd?$FN?$AA@ ; `string'
PUBLIC	??_C@_0GD@LMECKDPM@Monster?5Item?5Drop?5?$FL?$CFd?$FN?$FL?$CFd?$FN?$FL?$CFd?$FN?5?3@ ; `string'
PUBLIC	??_C@_0EL@KDEJKEEJ@?$FLCashShop?$FN?5Error?5?3?5Failed?5To?5Ins@ ; `string'
PUBLIC	??_C@_0EO@DCIKCPFD@?$FLMu_2Anv_Event?$FN?5Error?5?3?5Failed?5T@ ; `string'
PUBLIC	__$ArrayPad$
PUBLIC	?ItemSerialCreateRecv@@YAXPAUSDHP_ITEMCREATERECV@@@Z ; ItemSerialCreateRecv
EXTRN	?GetName@CItem@@QAEPADXZ:PROC			; CItem::GetName
EXTRN	?ItemIsBufExOption@@YAXPAEPAVCItem@@@Z:PROC	; ItemIsBufExOption
EXTRN	?gObjChaosItemSet@@YAXHHE@Z:PROC		; gObjChaosItemSet
EXTRN	?gObjChaosBoxInsertItemPos@@YAEHVCItem@@HH@Z:PROC ; gObjChaosBoxInsertItemPos
EXTRN	?ChaosBoxInit@@YAHPAUOBJECTSTRUCT@@@Z:PROC	; ChaosBoxInit
EXTRN	?gObjIsConnectedGP@@YAHH@Z:PROC			; gObjIsConnectedGP
EXTRN	?g_BloodCastle@@3VCBloodCastle@@A:BYTE		; g_BloodCastle
EXTRN	__imp__GetTickCount@0:PROC
EXTRN	?MonsterItemDrop@MapClass@@QAEHHHMHHEEEEEHKE@Z:PROC ; MapClass::MonsterItemDrop
EXTRN	?MapC@@3PAVMapClass@@A:BYTE			; MapC
EXTRN	?gObjInventoryInsertItem@@YAEHVCItem@@@Z:PROC	; gObjInventoryInsertItem
EXTRN	?Convert@CItem@@QAEXHEEEEEEE@Z:PROC		; CItem::Convert
EXTRN	??0CItem@@QAE@XZ:PROC				; CItem::CItem
EXTRN	?GCInventoryItemOneSend@@YAXHH@Z:PROC		; GCInventoryItemOneSend
EXTRN	?gObjInventoryInsertItem@@YAEPAUOBJECTSTRUCT@@HHHHH@Z:PROC ; gObjInventoryInsertItem
EXTRN	__fltused:DWORD
;	COMDAT ??_C@_0GA@EHKFCGJE@?$FL?$CFs?$FN?$FL?$CFs?$FN?5CBMix?5Item?5Create?5Item?3@
CONST	SEGMENT
??_C@_0GA@EHKFCGJE@?$FL?$CFs?$FN?$FL?$CFs?$FN?5CBMix?5Item?5Create?5Item?3@ DB '['
	DB	'%s][%s] CBMix Item Create Item:%s [%d][%d] [%d][%d][%d][%d] E'
	DB	'x:[%d,%d,%d,%d,%d,%d,%d] Set:[%d]', 00H	; `string'
CONST	ENDS
;	COMDAT ??_C@_0BN@BDLDNMBN@error?9L2?3?5ChaosBox?5not?5used?4?$AA@
CONST	SEGMENT
??_C@_0BN@BDLDNMBN@error?9L2?3?5ChaosBox?5not?5used?4?$AA@ DB 'error-L2: '
	DB	'ChaosBox not used.', 00H			; `string'
CONST	ENDS
;	COMDAT ??_C@_0CD@JBKACADO@error?9L2?3?5DarkTrainerBox?5not?5use@
CONST	SEGMENT
??_C@_0CD@JBKACADO@error?9L2?3?5DarkTrainerBox?5not?5use@ DB 'error-L2: D'
	DB	'arkTrainerBox not used.', 00H		; `string'
CONST	ENDS
;	COMDAT ??_C@_0BC@OFCHNMFP@error?9L3?5?$FL?$CFs?$FN?$FL?$CFd?$FN?$AA@
CONST	SEGMENT
??_C@_0BC@OFCHNMFP@error?9L3?5?$FL?$CFs?$FN?$FL?$CFd?$FN?$AA@ DB 'error-L'
	DB	'3 [%s][%d]', 00H				; `string'
CONST	ENDS
;	COMDAT ??_C@_0GD@LMECKDPM@Monster?5Item?5Drop?5?$FL?$CFd?$FN?$FL?$CFd?$FN?$FL?$CFd?$FN?5?3@
CONST	SEGMENT
??_C@_0GD@LMECKDPM@Monster?5Item?5Drop?5?$FL?$CFd?$FN?$FL?$CFd?$FN?$FL?$CFd?$FN?5?3@ DB 'M'
	DB	'onster Item Drop [%d][%d][%d] : serial:%d [%s][%d][%d][%d][%d'
	DB	'] Ex:[%d,%d,%d,%d,%d,%d,%d] Set:[%d]', 00H	; `string'
CONST	ENDS
;	COMDAT ??_C@_0EL@KDEJKEEJ@?$FLCashShop?$FN?5Error?5?3?5Failed?5To?5Ins@
CONST	SEGMENT
??_C@_0EL@KDEJKEEJ@?$FLCashShop?$FN?5Error?5?3?5Failed?5To?5Ins@ DB '[Cas'
	DB	'hShop] Error : Failed To Insert Item Type:%d, TypeIndex:%d to'
	DB	' [%s][%s]', 00H				; `string'
CONST	ENDS
;	COMDAT ??_C@_0EO@DCIKCPFD@?$FLMu_2Anv_Event?$FN?5Error?5?3?5Failed?5T@
CONST	SEGMENT
??_C@_0EO@DCIKCPFD@?$FLMu_2Anv_Event?$FN?5Error?5?3?5Failed?5T@ DB '[Mu_2'
	DB	'Anv_Event] Error : Failed To Gift Item Type:%d, TypeIndex:%d '
	DB	'to [%s][%s]', 00H				; `string'
; Function compile flags: /Ogtp
CONST	ENDS
;	COMDAT ?ItemSerialCreateRecv@@YAXPAUSDHP_ITEMCREATERECV@@@Z
_TEXT	SEGMENT
tv861 = -208						; size = 4
tv811 = -208						; size = 4
tv710 = -208						; size = 4
_iItemIndex$158691 = -208				; size = 4
tv856 = -204						; size = 4
_iItemType$158690 = -204				; size = 4
_mapnumber$ = -204					; size = 4
_pCreateItem$158689 = -200				; size = 168
_NewItem$158671 = -200					; size = 168
_pMsg$158666 = -32					; size = 11
_ExOption$158674 = -20					; size = 8
_NewOption$158705 = -12					; size = 8
tv872 = -8						; size = 4
tv828 = -8						; size = 4
tv827 = -8						; size = 4
tv826 = -8						; size = 4
tv821 = -8						; size = 4
_iRetMapNumber$158698 = -8				; size = 4
__$ArrayPad$ = -4					; size = 4
_lpMsg$ = 8						; size = 4
?ItemSerialCreateRecv@@YAXPAUSDHP_ITEMCREATERECV@@@Z PROC ; ItemSerialCreateRecv, COMDAT

; 2171 : {

  00000	55		 push	 ebp
  00001	8b ec		 mov	 ebp, esp
  00003	81 ec d0 00 00
	00		 sub	 esp, 208		; 000000d0H
  00009	a1 00 00 00 00	 mov	 eax, DWORD PTR ___security_cookie
  0000e	33 c5		 xor	 eax, ebp
  00010	89 45 fc	 mov	 DWORD PTR __$ArrayPad$[ebp], eax
  00013	53		 push	 ebx
  00014	8b 5d 08	 mov	 ebx, DWORD PTR _lpMsg$[ebp]

; 2172 : 	LPOBJ lpObj;
; 2173 : 	int mapnumber = lpMsg->MapNumber;

  00017	8a 43 05	 mov	 al, BYTE PTR [ebx+5]

; 2174 : 	int aIndex = lpMsg->aIndex;
; 2175 : 	int lootindex = lpMsg->lootindex;

  0001a	0f bf 53 18	 movsx	 edx, WORD PTR [ebx+24]
  0001e	56		 push	 esi
  0001f	0f b6 f0	 movzx	 esi, al
  00022	57		 push	 edi
  00023	8b 7b 14	 mov	 edi, DWORD PTR [ebx+20]
  00026	89 b5 34 ff ff
	ff		 mov	 DWORD PTR _mapnumber$[ebp], esi
  0002c	89 bd 30 ff ff
	ff		 mov	 DWORD PTR tv710[ebp], edi

; 2176 : 
; 2177 : 	if ( mapnumber != (BYTE)-1)

  00032	81 fe ff 00 00
	00		 cmp	 esi, 255		; 000000ffH
  00038	74 17		 je	 SHORT $LN49@ItemSerial@2

; 2178 : 	{
; 2179 : 		if ( mapnumber < 0 || (mapnumber > MAX_NUMBER_MAP-1 && mapnumber < 235) )

  0003a	85 f6		 test	 esi, esi
  0003c	0f 88 7a 06 00
	00		 js	 $LN15@ItemSerial@2
  00042	8d 4e d8	 lea	 ecx, DWORD PTR [esi-40]
  00045	81 f9 c2 00 00
	00		 cmp	 ecx, 194		; 000000c2H

; 2180 : 		{
; 2181 : 			return;

  0004b	0f 86 6b 06 00
	00		 jbe	 $LN15@ItemSerial@2
$LN49@ItemSerial@2:

; 2182 : 		}
; 2183 : 	}
; 2184 : 
; 2185 : 	if ( lpMsg->MapNumber == (BYTE)-1 || lpMsg->MapNumber == (BYTE)-2 )

  00051	3c ff		 cmp	 al, 255			; 000000ffH
  00053	0f 84 d1 03 00
	00		 je	 $LN34@ItemSerial@2
  00059	3c fe		 cmp	 al, 254			; 000000feH
  0005b	0f 84 c9 03 00
	00		 je	 $LN34@ItemSerial@2

; 2255 : 		return;
; 2256 : 	}
; 2257 : 
; 2258 : 	if ( lpMsg->MapNumber == 235 )

  00061	3c eb		 cmp	 al, 235			; 000000ebH
  00063	0f 85 b5 00 00
	00		 jne	 $LN24@ItemSerial@2

; 2259 : 	{
; 2260 : 		if ( gObj[lpMsg->aIndex].Connected > PLAYER_CONNECTED )

  00069	8b cf		 mov	 ecx, edi
  0006b	69 c9 64 15 00
	00		 imul	 ecx, 5476		; 00001564H
  00071	80 b9 04 00 00
	00 01		 cmp	 BYTE PTR ?gObj@@3PAUOBJECTSTRUCT@@A[ecx+4], 1
  00078	0f 86 3e 06 00
	00		 jbe	 $LN15@ItemSerial@2

; 2261 : 		{
; 2262 : 			int iType  = ITEM_GET_TYPE(lpMsg->Type);

  0007e	0f bf 7b 0c	 movsx	 edi, WORD PTR [ebx+12]
  00082	8b c7		 mov	 eax, edi
  00084	99		 cdq
  00085	81 e2 ff 01 00
	00		 and	 edx, 511		; 000001ffH
  0008b	8d 34 02	 lea	 esi, DWORD PTR [edx+eax]
  0008e	c1 fe 09	 sar	 esi, 9

; 2263 : 			int iTypeIndex = ITEM_GET_INDEX(lpMsg->Type);

  00091	81 e7 ff 01 00
	80		 and	 edi, -2147483137	; 800001ffH
  00097	79 08		 jns	 SHORT $LN50@ItemSerial@2
  00099	4f		 dec	 edi
  0009a	81 cf 00 fe ff
	ff		 or	 edi, -512		; fffffe00H
  000a0	47		 inc	 edi
$LN50@ItemSerial@2:

; 2264 : 
; 2265 : 			BYTE iItemPos = gObjInventoryInsertItem(&gObj[lpMsg->aIndex], iType, iTypeIndex, lpMsg->Level, lpMsg->m_Number, lpMsg->Dur);

  000a1	0f b6 53 0f	 movzx	 edx, BYTE PTR [ebx+15]
  000a5	8b 43 08	 mov	 eax, DWORD PTR [ebx+8]
  000a8	52		 push	 edx
  000a9	0f b6 53 0e	 movzx	 edx, BYTE PTR [ebx+14]
  000ad	50		 push	 eax
  000ae	52		 push	 edx
  000af	57		 push	 edi
  000b0	8d 81 00 00 00
	00		 lea	 eax, DWORD PTR ?gObj@@3PAUOBJECTSTRUCT@@A[ecx]
  000b6	56		 push	 esi
  000b7	50		 push	 eax
  000b8	e8 00 00 00 00	 call	 ?gObjInventoryInsertItem@@YAEPAUOBJECTSTRUCT@@HHHHH@Z ; gObjInventoryInsertItem
  000bd	83 c4 18	 add	 esp, 24			; 00000018H

; 2266 : 
; 2267 : 			if ( iItemPos == (BYTE)-1 )

  000c0	3c ff		 cmp	 al, 255			; 000000ffH
  000c2	75 39		 jne	 SHORT $LN22@ItemSerial@2

; 2268 : 			{
; 2269 : 				LogAdd(LOG_BLACK, "[Mu_2Anv_Event] Error : Failed To Gift Item Type:%d, TypeIndex:%d to [%s][%s]",
; 2270 : 					iType, iTypeIndex, gObj[lpMsg->aIndex].AccountID, gObj[lpMsg->aIndex].Name);

  000c4	8b 5b 14	 mov	 ebx, DWORD PTR [ebx+20]
  000c7	69 db 64 15 00
	00		 imul	 ebx, 5476		; 00001564H
  000cd	8d 8b 6f 00 00
	00		 lea	 ecx, DWORD PTR ?gObj@@3PAUOBJECTSTRUCT@@A[ebx+111]
  000d3	51		 push	 ecx
  000d4	8d 93 64 00 00
	00		 lea	 edx, DWORD PTR ?gObj@@3PAUOBJECTSTRUCT@@A[ebx+100]
  000da	52		 push	 edx
  000db	57		 push	 edi
  000dc	56		 push	 esi
  000dd	68 00 00 00 00	 push	 OFFSET ??_C@_0EO@DCIKCPFD@?$FLMu_2Anv_Event?$FN?5Error?5?3?5Failed?5T@
  000e2	6a 00		 push	 0
  000e4	e8 00 00 00 00	 call	 ?LogAdd@@YAXW4eLogColor@@PADZZ ; LogAdd
  000e9	83 c4 18	 add	 esp, 24			; 00000018H

; 2382 : 		
; 2383 : 	}
; 2384 : }

  000ec	5f		 pop	 edi
  000ed	5e		 pop	 esi
  000ee	5b		 pop	 ebx
  000ef	8b 4d fc	 mov	 ecx, DWORD PTR __$ArrayPad$[ebp]
  000f2	33 cd		 xor	 ecx, ebp
  000f4	e8 00 00 00 00	 call	 @__security_check_cookie@4
  000f9	8b e5		 mov	 esp, ebp
  000fb	5d		 pop	 ebp
  000fc	c3		 ret	 0
$LN22@ItemSerial@2:

; 2271 : 				
; 2272 : 			
; 2273 : 			}
; 2274 : 			else
; 2275 : 			{
; 2276 : 				::GCInventoryItemOneSend(lpMsg->aIndex, iItemPos);

  000fd	8b 4b 14	 mov	 ecx, DWORD PTR [ebx+20]
  00100	0f b6 c0	 movzx	 eax, al
  00103	50		 push	 eax
  00104	51		 push	 ecx
  00105	e8 00 00 00 00	 call	 ?GCInventoryItemOneSend@@YAXHH@Z ; GCInventoryItemOneSend
  0010a	83 c4 08	 add	 esp, 8

; 2382 : 		
; 2383 : 	}
; 2384 : }

  0010d	5f		 pop	 edi
  0010e	5e		 pop	 esi
  0010f	5b		 pop	 ebx
  00110	8b 4d fc	 mov	 ecx, DWORD PTR __$ArrayPad$[ebp]
  00113	33 cd		 xor	 ecx, ebp
  00115	e8 00 00 00 00	 call	 @__security_check_cookie@4
  0011a	8b e5		 mov	 esp, ebp
  0011c	5d		 pop	 ebp
  0011d	c3		 ret	 0
$LN24@ItemSerial@2:

; 2277 : 			}
; 2278 : 
; 2279 : 		}
; 2280 : 	}
; 2281 : 	else if ( lpMsg->MapNumber == 236 )

  0011e	3c ec		 cmp	 al, 236			; 000000ecH
  00120	0f 85 23 01 00
	00		 jne	 $LN19@ItemSerial@2

; 2282 : 	{
; 2283 : 		if ( gObj[lpMsg->aIndex].Connected > PLAYER_CONNECTED )

  00126	69 ff 64 15 00
	00		 imul	 edi, 5476		; 00001564H
  0012c	80 bf 04 00 00
	00 01		 cmp	 BYTE PTR ?gObj@@3PAUOBJECTSTRUCT@@A[edi+4], 1
  00133	0f 86 83 05 00
	00		 jbe	 $LN15@ItemSerial@2

; 2284 : 		{
; 2285 : 			CItem pCreateItem;

  00139	8d 8d 38 ff ff
	ff		 lea	 ecx, DWORD PTR _pCreateItem$158689[ebp]
  0013f	e8 00 00 00 00	 call	 ??0CItem@@QAE@XZ	; CItem::CItem

; 2286 : 			int iItemType = ITEM_GET_TYPE(lpMsg->Type);

  00144	0f bf 4b 0c	 movsx	 ecx, WORD PTR [ebx+12]
  00148	8b c1		 mov	 eax, ecx
  0014a	99		 cdq
  0014b	81 e2 ff 01 00
	00		 and	 edx, 511		; 000001ffH
  00151	03 c2		 add	 eax, edx
  00153	c1 f8 09	 sar	 eax, 9

; 2287 : 			int iItemIndex	= ITEM_GET_INDEX(lpMsg->Type);

  00156	81 e1 ff 01 00
	80		 and	 ecx, -2147483137	; 800001ffH
  0015c	89 85 34 ff ff
	ff		 mov	 DWORD PTR _iItemType$158690[ebp], eax
  00162	79 08		 jns	 SHORT $LN51@ItemSerial@2
  00164	49		 dec	 ecx
  00165	81 c9 00 fe ff
	ff		 or	 ecx, -512		; fffffe00H
  0016b	41		 inc	 ecx
$LN51@ItemSerial@2:

; 2288 : 
; 2289 : 			pCreateItem.Convert(ITEMGET(iItemType, iItemIndex), lpMsg->Op1, lpMsg->Op2,
; 2290 : 				lpMsg->Op3, lpMsg->NewOption, lpMsg->SetOption, 0, 3);

  0016c	0f b6 53 1a	 movzx	 edx, BYTE PTR [ebx+26]
  00170	6a 03		 push	 3
  00172	6a 00		 push	 0
  00174	52		 push	 edx
  00175	0f b6 53 13	 movzx	 edx, BYTE PTR [ebx+19]
  00179	52		 push	 edx
  0017a	0f b6 53 12	 movzx	 edx, BYTE PTR [ebx+18]
  0017e	52		 push	 edx
  0017f	0f b6 53 11	 movzx	 edx, BYTE PTR [ebx+17]
  00183	52		 push	 edx
  00184	0f b6 53 10	 movzx	 edx, BYTE PTR [ebx+16]
  00188	c1 e0 09	 shl	 eax, 9
  0018b	03 c1		 add	 eax, ecx
  0018d	52		 push	 edx
  0018e	89 8d 30 ff ff
	ff		 mov	 DWORD PTR _iItemIndex$158691[ebp], ecx
  00194	50		 push	 eax
  00195	8d 8d 38 ff ff
	ff		 lea	 ecx, DWORD PTR _pCreateItem$158689[ebp]
  0019b	e8 00 00 00 00	 call	 ?Convert@CItem@@QAEXHEEEEEEE@Z ; CItem::Convert

; 2291 : 			pCreateItem.m_Level = lpMsg->Level;
; 2292 : 			pCreateItem.m_Durability = lpMsg->Dur;

  001a0	0f b6 4b 0f	 movzx	 ecx, BYTE PTR [ebx+15]
  001a4	0f b6 43 0e	 movzx	 eax, BYTE PTR [ebx+14]

; 2293 : 
; 2294 : 			BYTE btItemPos = gObjInventoryInsertItem(lpMsg->aIndex, pCreateItem);

  001a8	8b 53 14	 mov	 edx, DWORD PTR [ebx+20]
  001ab	89 4d f8	 mov	 DWORD PTR tv872[ebp], ecx
  001ae	81 ec a8 00 00
	00		 sub	 esp, 168		; 000000a8H
  001b4	db 45 f8	 fild	 DWORD PTR tv872[ebp]
  001b7	8b fc		 mov	 edi, esp
  001b9	66 89 85 40 ff
	ff ff		 mov	 WORD PTR _pCreateItem$158689[ebp+8], ax
  001c0	b9 2a 00 00 00	 mov	 ecx, 42			; 0000002aH
  001c5	d9 9d 5c ff ff
	ff		 fstp	 DWORD PTR _pCreateItem$158689[ebp+36]
  001cb	8d b5 38 ff ff
	ff		 lea	 esi, DWORD PTR _pCreateItem$158689[ebp]
  001d1	52		 push	 edx
  001d2	f3 a5		 rep movsd
  001d4	e8 00 00 00 00	 call	 ?gObjInventoryInsertItem@@YAEHVCItem@@@Z ; gObjInventoryInsertItem
  001d9	81 c4 ac 00 00
	00		 add	 esp, 172		; 000000acH

; 2295 : 
; 2296 : 			if ( btItemPos == (BYTE)-1 )

  001df	3c ff		 cmp	 al, 255			; 000000ffH
  001e1	75 45		 jne	 SHORT $LN17@ItemSerial@2

; 2297 : 			{
; 2298 : 				LogAdd(LOG_BLACK, "[CashShop] Error : Failed To Insert Item Type:%d, TypeIndex:%d to [%s][%s]",
; 2299 : 					iItemType, iItemIndex, gObj[lpMsg->aIndex].AccountID, gObj[lpMsg->aIndex].Name);

  001e3	8b 5b 14	 mov	 ebx, DWORD PTR [ebx+20]
  001e6	8b 95 30 ff ff
	ff		 mov	 edx, DWORD PTR _iItemIndex$158691[ebp]
  001ec	69 db 64 15 00
	00		 imul	 ebx, 5476		; 00001564H
  001f2	8d 83 6f 00 00
	00		 lea	 eax, DWORD PTR ?gObj@@3PAUOBJECTSTRUCT@@A[ebx+111]
  001f8	50		 push	 eax
  001f9	8b 85 34 ff ff
	ff		 mov	 eax, DWORD PTR _iItemType$158690[ebp]
  001ff	8d 8b 64 00 00
	00		 lea	 ecx, DWORD PTR ?gObj@@3PAUOBJECTSTRUCT@@A[ebx+100]
  00205	51		 push	 ecx
  00206	52		 push	 edx
  00207	50		 push	 eax
  00208	68 00 00 00 00	 push	 OFFSET ??_C@_0EL@KDEJKEEJ@?$FLCashShop?$FN?5Error?5?3?5Failed?5To?5Ins@
  0020d	6a 00		 push	 0
  0020f	e8 00 00 00 00	 call	 ?LogAdd@@YAXW4eLogColor@@PADZZ ; LogAdd
  00214	83 c4 18	 add	 esp, 24			; 00000018H

; 2382 : 		
; 2383 : 	}
; 2384 : }

  00217	5f		 pop	 edi
  00218	5e		 pop	 esi
  00219	5b		 pop	 ebx
  0021a	8b 4d fc	 mov	 ecx, DWORD PTR __$ArrayPad$[ebp]
  0021d	33 cd		 xor	 ecx, ebp
  0021f	e8 00 00 00 00	 call	 @__security_check_cookie@4
  00224	8b e5		 mov	 esp, ebp
  00226	5d		 pop	 ebp
  00227	c3		 ret	 0
$LN17@ItemSerial@2:

; 2300 : 			}
; 2301 : 			else
; 2302 : 			{
; 2303 : 				GCInventoryItemOneSend(lpMsg->aIndex, btItemPos);

  00228	8b 53 14	 mov	 edx, DWORD PTR [ebx+20]
  0022b	0f b6 c8	 movzx	 ecx, al
  0022e	51		 push	 ecx
  0022f	52		 push	 edx
  00230	e8 00 00 00 00	 call	 ?GCInventoryItemOneSend@@YAXHH@Z ; GCInventoryItemOneSend
  00235	83 c4 08	 add	 esp, 8

; 2382 : 		
; 2383 : 	}
; 2384 : }

  00238	5f		 pop	 edi
  00239	5e		 pop	 esi
  0023a	5b		 pop	 ebx
  0023b	8b 4d fc	 mov	 ecx, DWORD PTR __$ArrayPad$[ebp]
  0023e	33 cd		 xor	 ecx, ebp
  00240	e8 00 00 00 00	 call	 @__security_check_cookie@4
  00245	8b e5		 mov	 esp, ebp
  00247	5d		 pop	 ebp
  00248	c3		 ret	 0
$LN19@ItemSerial@2:

; 2304 : 			}
; 2305 : 		}
; 2306 : 	}
; 2307 : 	else
; 2308 : 	{
; 2309 : 		int iRetMapNumber = lpMsg->MapNumber;

  00249	8a 4b 05	 mov	 cl, BYTE PTR [ebx+5]
  0024c	0f b6 f9	 movzx	 edi, cl
  0024f	89 7d f8	 mov	 DWORD PTR _iRetMapNumber$158698[ebp], edi

; 2310 : 
; 2311 : 		if ( lpMsg->MapNumber >= 238 && lpMsg->MapNumber <= 244 )

  00252	80 f9 ee	 cmp	 cl, 238			; 000000eeH
  00255	72 10		 jb	 SHORT $LN14@ItemSerial@2
  00257	3c f4		 cmp	 al, 244			; 000000f4H
  00259	77 0c		 ja	 SHORT $LN14@ItemSerial@2

; 2312 : 		{
; 2313 : 			mapnumber -= 227;

  0025b	81 ee e3 00 00
	00		 sub	 esi, 227		; 000000e3H
  00261	89 b5 34 ff ff
	ff		 mov	 DWORD PTR _mapnumber$[ebp], esi
$LN14@ItemSerial@2:

; 2314 : 		}
; 2315 : 
; 2316 : 		if ( lpMsg->MapNumber >= 247 && lpMsg->MapNumber <= 253 )

  00267	3c f7		 cmp	 al, 247			; 000000f7H
  00269	72 10		 jb	 SHORT $LN13@ItemSerial@2
  0026b	3c fd		 cmp	 al, 253			; 000000fdH
  0026d	77 0c		 ja	 SHORT $LN13@ItemSerial@2

; 2317 : 		{
; 2318 : 			mapnumber -= 236;

  0026f	81 ee ec 00 00
	00		 sub	 esi, 236		; 000000ecH
  00275	89 b5 34 ff ff
	ff		 mov	 DWORD PTR _mapnumber$[ebp], esi
$LN13@ItemSerial@2:

; 2319 : 		}
; 2320 : 
; 2321 : 		int iItemCount = MapC[mapnumber].MonsterItemDrop(lpMsg->Type, lpMsg->Level, lpMsg->Dur, lpMsg->x,
; 2322 : 			lpMsg->y, lpMsg->Op1, lpMsg->Op2, lpMsg->Op3, lpMsg->NewOption, lpMsg->SetOption,
; 2323 : 			lootindex, lpMsg->m_Number, 0);

  0027b	8b 43 08	 mov	 eax, DWORD PTR [ebx+8]
  0027e	69 f6 08 07 05
	00		 imul	 esi, 329480		; 00050708H
  00284	0f b6 4b 1a	 movzx	 ecx, BYTE PTR [ebx+26]
  00288	6a 00		 push	 0
  0028a	50		 push	 eax
  0028b	0f b6 43 12	 movzx	 eax, BYTE PTR [ebx+18]
  0028f	52		 push	 edx
  00290	0f b6 53 13	 movzx	 edx, BYTE PTR [ebx+19]
  00294	51		 push	 ecx
  00295	0f b6 4b 11	 movzx	 ecx, BYTE PTR [ebx+17]
  00299	52		 push	 edx
  0029a	0f b6 53 10	 movzx	 edx, BYTE PTR [ebx+16]
  0029e	50		 push	 eax
  0029f	0f b6 43 04	 movzx	 eax, BYTE PTR [ebx+4]
  002a3	51		 push	 ecx
  002a4	0f b6 4b 03	 movzx	 ecx, BYTE PTR [ebx+3]
  002a8	52		 push	 edx
  002a9	0f b6 53 0f	 movzx	 edx, BYTE PTR [ebx+15]
  002ad	50		 push	 eax
  002ae	0f b6 43 0e	 movzx	 eax, BYTE PTR [ebx+14]
  002b2	51		 push	 ecx
  002b3	89 95 30 ff ff
	ff		 mov	 DWORD PTR tv861[ebp], edx
  002b9	51		 push	 ecx
  002ba	0f bf 4b 0c	 movsx	 ecx, WORD PTR [ebx+12]
  002be	db 85 30 ff ff
	ff		 fild	 DWORD PTR tv861[ebp]
  002c4	d9 1c 24	 fstp	 DWORD PTR [esp]
  002c7	50		 push	 eax
  002c8	51		 push	 ecx
  002c9	8d 8e 00 00 00
	00		 lea	 ecx, DWORD PTR ?MapC@@3PAVMapClass@@A[esi]
  002cf	e8 00 00 00 00	 call	 ?MonsterItemDrop@MapClass@@QAEHHHMHHEEEEEHKE@Z ; MapClass::MonsterItemDrop
  002d4	8b f8		 mov	 edi, eax

; 2324 : 
; 2325 : 		if ( iItemCount != -1 )

  002d6	83 ff ff	 cmp	 edi, -1
  002d9	0f 84 91 00 00
	00		 je	 $LN10@ItemSerial@2

; 2326 : 		{
; 2327 : 			if ( iRetMapNumber >= 238 && iRetMapNumber <= 244)

  002df	8b 55 f8	 mov	 edx, DWORD PTR _iRetMapNumber$158698[ebp]
  002e2	81 c2 12 ff ff
	ff		 add	 edx, -238		; ffffff12H
  002e8	83 fa 06	 cmp	 edx, 6
  002eb	77 3c		 ja	 SHORT $LN11@ItemSerial@2

; 2328 : 			{
; 2329 : 				MapC[mapnumber].m_cItem[iItemCount].m_Time = GetTickCount() + 300000;

  002ed	69 c0 48 04 00
	00		 imul	 eax, 1096		; 00000448H
  002f3	03 c6		 add	 eax, esi
  002f5	89 85 30 ff ff
	ff		 mov	 DWORD PTR tv811[ebp], eax
  002fb	ff 15 00 00 00
	00		 call	 DWORD PTR __imp__GetTickCount@0
  00301	8b 8d 30 ff ff
	ff		 mov	 ecx, DWORD PTR tv811[ebp]
  00307	05 e0 93 04 00	 add	 eax, 300000		; 000493e0H
  0030c	89 81 d4 00 00
	00		 mov	 DWORD PTR ?MapC@@3PAVMapClass@@A[ecx+212], eax

; 2330 : 				MapC[mapnumber].m_cItem[iItemCount].m_LootTime = GetTickCount() + 20000;

  00312	ff 15 00 00 00
	00		 call	 DWORD PTR __imp__GetTickCount@0
  00318	8b 95 30 ff ff
	ff		 mov	 edx, DWORD PTR tv811[ebp]
  0031e	05 20 4e 00 00	 add	 eax, 20000		; 00004e20H
  00323	89 82 dc 00 00
	00		 mov	 DWORD PTR ?MapC@@3PAVMapClass@@A[edx+220], eax
$LN11@ItemSerial@2:

; 2331 : 
; 2332 : 			}
; 2333 : 
; 2334 : 			if ( iRetMapNumber >= 247 && iRetMapNumber <= 253)

  00329	8b 45 f8	 mov	 eax, DWORD PTR _iRetMapNumber$158698[ebp]
  0032c	05 09 ff ff ff	 add	 eax, -247		; ffffff09H
  00331	89 45 f8	 mov	 DWORD PTR tv821[ebp], eax
  00334	83 f8 06	 cmp	 eax, 6
  00337	77 37		 ja	 SHORT $LN10@ItemSerial@2

; 2335 : 			{
; 2336 : 				MapC[mapnumber].m_cItem[iItemCount].m_Time = GetTickCount() + 900000;

  00339	69 ff 48 04 00
	00		 imul	 edi, 1096		; 00000448H
  0033f	03 f7		 add	 esi, edi
  00341	8b 3d 00 00 00
	00		 mov	 edi, DWORD PTR __imp__GetTickCount@0
  00347	ff d7		 call	 edi
  00349	05 a0 bb 0d 00	 add	 eax, 900000		; 000dbba0H
  0034e	89 86 d4 00 00
	00		 mov	 DWORD PTR ?MapC@@3PAVMapClass@@A[esi+212], eax

; 2337 : 				MapC[mapnumber].m_cItem[iItemCount].m_LootTime = GetTickCount() + 10000;

  00354	ff d7		 call	 edi
  00356	05 10 27 00 00	 add	 eax, 10000		; 00002710H
  0035b	89 86 dc 00 00
	00		 mov	 DWORD PTR ?MapC@@3PAVMapClass@@A[esi+220], eax

; 2338 : 				g_BloodCastle.m_BridgeData[iRetMapNumber-247].m_nBC_QUESTITEM_SERIAL = lpMsg->m_Number;

  00361	8b 45 f8	 mov	 eax, DWORD PTR tv821[ebp]
  00364	8b 4b 08	 mov	 ecx, DWORD PTR [ebx+8]
  00367	c1 e0 09	 shl	 eax, 9
  0036a	89 88 90 01 00
	00		 mov	 DWORD PTR ?g_BloodCastle@@3VCBloodCastle@@A[eax+400], ecx
$LN10@ItemSerial@2:

; 2339 : 			}
; 2340 : 		}
; 2341 : 
; 2342 : 		//int iItemCount;
; 2343 : 		BYTE NewOption[MAX_EXOPTION_SIZE];
; 2344 : 
; 2345 : 		for ( int i=0;i<MAX_EXOPTION_SIZE;i++)
; 2346 : 		{
; 2347 : 			NewOption[i] = FALSE;

  00370	33 c0		 xor	 eax, eax
  00372	89 45 f4	 mov	 DWORD PTR _NewOption$158705[ebp], eax
  00375	89 45 f8	 mov	 DWORD PTR _NewOption$158705[ebp+4], eax

; 2348 : 		}
; 2349 : 
; 2350 : 		if ( (lpMsg->NewOption & 0x20) != 0 )

  00378	8a 43 13	 mov	 al, BYTE PTR [ebx+19]
  0037b	a8 20		 test	 al, 32			; 00000020H
  0037d	74 04		 je	 SHORT $LN43@ItemSerial@2

; 2351 : 		{
; 2352 : 			NewOption[0] = TRUE;

  0037f	c6 45 f4 01	 mov	 BYTE PTR _NewOption$158705[ebp], 1
$LN43@ItemSerial@2:

; 2353 : 		}
; 2354 : 		if ( (lpMsg->NewOption & 0x10) != 0 )

  00383	a8 10		 test	 al, 16			; 00000010H
  00385	74 04		 je	 SHORT $LN44@ItemSerial@2

; 2355 : 		{
; 2356 : 			NewOption[1] = TRUE;

  00387	c6 45 f5 01	 mov	 BYTE PTR _NewOption$158705[ebp+1], 1
$LN44@ItemSerial@2:

; 2357 : 		}
; 2358 : 
; 2359 : 		if ( (lpMsg->NewOption & 0x8) != 0 )

  0038b	a8 08		 test	 al, 8
  0038d	74 04		 je	 SHORT $LN45@ItemSerial@2

; 2360 : 		{
; 2361 : 			NewOption[2] = TRUE;

  0038f	c6 45 f6 01	 mov	 BYTE PTR _NewOption$158705[ebp+2], 1
$LN45@ItemSerial@2:

; 2362 : 		}
; 2363 : 		if ( (lpMsg->NewOption & 0x4) != 0 )
; 2364 : 		{
; 2365 : 			NewOption[3] = TRUE;

  00393	b2 01		 mov	 dl, 1
  00395	a8 04		 test	 al, 4
  00397	75 03		 jne	 SHORT $LN3@ItemSerial@2
  00399	8a 55 f7	 mov	 dl, BYTE PTR _NewOption$158705[ebp+3]
$LN3@ItemSerial@2:

; 2366 : 		}
; 2367 : 
; 2368 : 		if ( (lpMsg->NewOption & 0x2) != 0 )
; 2369 : 		{
; 2370 : 			NewOption[4] = TRUE;

  0039c	b1 01		 mov	 cl, 1
  0039e	a8 02		 test	 al, 2
  003a0	75 03		 jne	 SHORT $LN2@ItemSerial@2
  003a2	8a 4d f8	 mov	 cl, BYTE PTR _NewOption$158705[ebp+4]
$LN2@ItemSerial@2:

; 2371 : 		}
; 2372 : 		if ( (lpMsg->NewOption & 0x1) != 0 )

  003a5	a8 01		 test	 al, 1

; 2373 : 		{
; 2374 : 			NewOption[5] = TRUE;

  003a7	b0 01		 mov	 al, 1
  003a9	75 03		 jne	 SHORT $LN1@ItemSerial@2
  003ab	8a 45 f9	 mov	 al, BYTE PTR _NewOption$158705[ebp+5]
$LN1@ItemSerial@2:

; 2375 : 		}
; 2376 : 
; 2377 : 		LogAdd(LOG_BLACK, "Monster Item Drop [%d][%d][%d] : serial:%d [%s][%d][%d][%d][%d] Ex:[%d,%d,%d,%d,%d,%d,%d] Set:[%d]",
; 2378 : 			mapnumber, lpMsg->x, lpMsg->y, lpMsg->m_Number, ItemAttribute[lpMsg->Type].Name, lpMsg->Level,
; 2379 : 			lpMsg->Op1, lpMsg->Op2, lpMsg->Op3, 
; 2380 : 			NewOption[0],NewOption[1],NewOption[2],NewOption[3],NewOption[4],NewOption[5],NewOption[6],
; 2381 : 			lpMsg->SetOption);

  003ae	0f b6 73 1a	 movzx	 esi, BYTE PTR [ebx+26]
  003b2	56		 push	 esi
  003b3	0f b6 75 fa	 movzx	 esi, BYTE PTR _NewOption$158705[ebp+6]
  003b7	56		 push	 esi
  003b8	0f b6 c0	 movzx	 eax, al
  003bb	50		 push	 eax
  003bc	0f b6 45 f6	 movzx	 eax, BYTE PTR _NewOption$158705[ebp+2]
  003c0	0f b6 c9	 movzx	 ecx, cl
  003c3	51		 push	 ecx
  003c4	0f b6 4d f5	 movzx	 ecx, BYTE PTR _NewOption$158705[ebp+1]
  003c8	0f b6 d2	 movzx	 edx, dl
  003cb	52		 push	 edx
  003cc	0f b6 55 f4	 movzx	 edx, BYTE PTR _NewOption$158705[ebp]
  003d0	50		 push	 eax
  003d1	0f b6 43 12	 movzx	 eax, BYTE PTR [ebx+18]
  003d5	51		 push	 ecx
  003d6	0f b6 4b 11	 movzx	 ecx, BYTE PTR [ebx+17]
  003da	52		 push	 edx
  003db	0f b6 53 10	 movzx	 edx, BYTE PTR [ebx+16]
  003df	50		 push	 eax
  003e0	0f b6 43 0e	 movzx	 eax, BYTE PTR [ebx+14]
  003e4	51		 push	 ecx
  003e5	0f bf 4b 0c	 movsx	 ecx, WORD PTR [ebx+12]
  003e9	6b c9 6c	 imul	 ecx, 108		; 0000006cH
  003ec	52		 push	 edx
  003ed	8b 53 08	 mov	 edx, DWORD PTR [ebx+8]
  003f0	50		 push	 eax
  003f1	0f b6 43 04	 movzx	 eax, BYTE PTR [ebx+4]
  003f5	81 c1 00 00 00
	00		 add	 ecx, OFFSET ?ItemAttribute@@3PAUITEM_ATTRIBUTE@@A ; ItemAttribute
  003fb	51		 push	 ecx
  003fc	0f b6 4b 03	 movzx	 ecx, BYTE PTR [ebx+3]
  00400	52		 push	 edx
  00401	8b 95 34 ff ff
	ff		 mov	 edx, DWORD PTR _mapnumber$[ebp]
  00407	50		 push	 eax
  00408	51		 push	 ecx
  00409	52		 push	 edx
  0040a	68 00 00 00 00	 push	 OFFSET ??_C@_0GD@LMECKDPM@Monster?5Item?5Drop?5?$FL?$CFd?$FN?$FL?$CFd?$FN?$FL?$CFd?$FN?5?3@
  0040f	6a 00		 push	 0
  00411	e8 00 00 00 00	 call	 ?LogAdd@@YAXW4eLogColor@@PADZZ ; LogAdd
  00416	83 c4 4c	 add	 esp, 76			; 0000004cH

; 2382 : 		
; 2383 : 	}
; 2384 : }

  00419	5f		 pop	 edi
  0041a	5e		 pop	 esi
  0041b	5b		 pop	 ebx
  0041c	8b 4d fc	 mov	 ecx, DWORD PTR __$ArrayPad$[ebp]
  0041f	33 cd		 xor	 ecx, ebp
  00421	e8 00 00 00 00	 call	 @__security_check_cookie@4
  00426	8b e5		 mov	 esp, ebp
  00428	5d		 pop	 ebp
  00429	c3		 ret	 0
$LN34@ItemSerial@2:

; 2186 : 	{
; 2187 : 		if ( gObjIsConnectedGP(aIndex) == FALSE )

  0042a	57		 push	 edi
  0042b	e8 00 00 00 00	 call	 ?gObjIsConnectedGP@@YAHH@Z ; gObjIsConnectedGP
  00430	83 c4 04	 add	 esp, 4
  00433	85 c0		 test	 eax, eax
  00435	75 2a		 jne	 SHORT $LN33@ItemSerial@2

; 2188 : 		{
; 2189 : 			LogAdd(LOG_RED,  "error-L3 [%s][%d]", __FILE__, __LINE__);

  00437	68 8d 08 00 00	 push	 2189			; 0000088dH
  0043c	68 00 00 00 00	 push	 OFFSET ??_C@_0P@DNGOKBGI@DSProtocol?4cpp?$AA@
  00441	68 00 00 00 00	 push	 OFFSET ??_C@_0BC@OFCHNMFP@error?9L3?5?$FL?$CFs?$FN?$FL?$CFd?$FN?$AA@
  00446	6a 01		 push	 1
  00448	e8 00 00 00 00	 call	 ?LogAdd@@YAXW4eLogColor@@PADZZ ; LogAdd
  0044d	83 c4 10	 add	 esp, 16			; 00000010H

; 2382 : 		
; 2383 : 	}
; 2384 : }

  00450	5f		 pop	 edi
  00451	5e		 pop	 esi
  00452	5b		 pop	 ebx
  00453	8b 4d fc	 mov	 ecx, DWORD PTR __$ArrayPad$[ebp]
  00456	33 cd		 xor	 ecx, ebp
  00458	e8 00 00 00 00	 call	 @__security_check_cookie@4
  0045d	8b e5		 mov	 esp, ebp
  0045f	5d		 pop	 ebp
  00460	c3		 ret	 0
$LN33@ItemSerial@2:

; 2190 : 			return;
; 2191 : 		}
; 2192 : 		
; 2193 : 		lpObj = &gObj[aIndex];

  00461	8b c7		 mov	 eax, edi
  00463	69 c0 64 15 00
	00		 imul	 eax, 5476		; 00001564H
  00469	89 85 34 ff ff
	ff		 mov	 DWORD PTR tv856[ebp], eax
  0046f	8d 88 00 00 00
	00		 lea	 ecx, DWORD PTR ?gObj@@3PAUOBJECTSTRUCT@@A[eax]

; 2194 : 
; 2195 : 		if ( lpMsg->MapNumber == (BYTE)-2 )

  00475	8a 43 05	 mov	 al, BYTE PTR [ebx+5]
  00478	3c fe		 cmp	 al, 254			; 000000feH
  0047a	75 34		 jne	 SHORT $LN32@ItemSerial@2

; 2196 : 		{
; 2197 : 			if ( lpObj->m_IfState.type != 13 )

  0047c	8b 89 84 0c 00
	00		 mov	 ecx, DWORD PTR [ecx+3204]
  00482	81 e1 c0 ff 00
	00		 and	 ecx, 65472		; 0000ffc0H
  00488	81 f9 40 03 00
	00		 cmp	 ecx, 832		; 00000340H
  0048e	74 54		 je	 SHORT $LN29@ItemSerial@2

; 2198 : 			{
; 2199 : 				LogAdd(LOG_BLACK, "error-L2: DarkTrainerBox not used.");

  00490	68 00 00 00 00	 push	 OFFSET ??_C@_0CD@JBKACADO@error?9L2?3?5DarkTrainerBox?5not?5use@
  00495	6a 00		 push	 0
  00497	e8 00 00 00 00	 call	 ?LogAdd@@YAXW4eLogColor@@PADZZ ; LogAdd
  0049c	83 c4 08	 add	 esp, 8

; 2382 : 		
; 2383 : 	}
; 2384 : }

  0049f	5f		 pop	 edi
  004a0	5e		 pop	 esi
  004a1	5b		 pop	 ebx
  004a2	8b 4d fc	 mov	 ecx, DWORD PTR __$ArrayPad$[ebp]
  004a5	33 cd		 xor	 ecx, ebp
  004a7	e8 00 00 00 00	 call	 @__security_check_cookie@4
  004ac	8b e5		 mov	 esp, ebp
  004ae	5d		 pop	 ebp
  004af	c3		 ret	 0
$LN32@ItemSerial@2:

; 2200 : 				return;
; 2201 : 			}
; 2202 : 		}
; 2203 : 		else if ( lpObj->m_IfState.type != 7 )

  004b0	8b 91 84 0c 00
	00		 mov	 edx, DWORD PTR [ecx+3204]
  004b6	81 e2 c0 ff 00
	00		 and	 edx, 65472		; 0000ffc0H
  004bc	81 fa c0 01 00
	00		 cmp	 edx, 448		; 000001c0H
  004c2	74 20		 je	 SHORT $LN29@ItemSerial@2

; 2204 : 		{
; 2205 : 			LogAdd(LOG_BLACK, "error-L2: ChaosBox not used.");

  004c4	68 00 00 00 00	 push	 OFFSET ??_C@_0BN@BDLDNMBN@error?9L2?3?5ChaosBox?5not?5used?4?$AA@
  004c9	6a 00		 push	 0
  004cb	e8 00 00 00 00	 call	 ?LogAdd@@YAXW4eLogColor@@PADZZ ; LogAdd
  004d0	83 c4 08	 add	 esp, 8

; 2382 : 		
; 2383 : 	}
; 2384 : }

  004d3	5f		 pop	 edi
  004d4	5e		 pop	 esi
  004d5	5b		 pop	 ebx
  004d6	8b 4d fc	 mov	 ecx, DWORD PTR __$ArrayPad$[ebp]
  004d9	33 cd		 xor	 ecx, ebp
  004db	e8 00 00 00 00	 call	 @__security_check_cookie@4
  004e0	8b e5		 mov	 esp, ebp
  004e2	5d		 pop	 ebp
  004e3	c3		 ret	 0
$LN29@ItemSerial@2:

; 2206 : 			return;
; 2207 : 		}
; 2208 : 		
; 2209 : 		PMSG_CHAOSMIXRESULT pMsg;
; 2210 : 
; 2211 : 		pMsg.h.c = 0xC1;
; 2212 : 		pMsg.h.headcode = 0x86;
; 2213 : 		pMsg.h.size = sizeof(PMSG_CHAOSMIXRESULT);
; 2214 : 
; 2215 : 		if ( lpMsg->MapNumber == (BYTE)-2 )

  004e4	3c fe		 cmp	 al, 254			; 000000feH
  004e6	0f 95 c0	 setne	 al
  004e9	fe c8		 dec	 al
  004eb	24 63		 and	 al, 99			; 00000063H
  004ed	fe c0		 inc	 al

; 2216 : 		{
; 2217 : 			pMsg.Result = 100;
; 2218 : 		}
; 2219 : 		else
; 2220 : 		{
; 2221 : 			pMsg.Result = 1;
; 2222 : 		}
; 2223 : 
; 2224 : 		CItem NewItem;

  004ef	8d 8d 38 ff ff
	ff		 lea	 ecx, DWORD PTR _NewItem$158671[ebp]
  004f5	c6 45 e0 c1	 mov	 BYTE PTR _pMsg$158666[ebp], 193 ; 000000c1H
  004f9	66 c7 45 e1 0b
	86		 mov	 WORD PTR _pMsg$158666[ebp+1], 34315 ; 0000860bH
  004ff	88 45 e3	 mov	 BYTE PTR _pMsg$158666[ebp+3], al
  00502	e8 00 00 00 00	 call	 ??0CItem@@QAE@XZ	; CItem::CItem

; 2225 : 
; 2226 : 		NewItem.m_Level = lpMsg->Level;

  00507	8a 43 0e	 mov	 al, BYTE PTR [ebx+14]

; 2227 : 		NewItem.m_Durability = ItemGetDurability(lpMsg->Type, lpMsg->Level, lpMsg->NewOption, lpMsg->SetOption);

  0050a	0f b6 53 1a	 movzx	 edx, BYTE PTR [ebx+26]
  0050e	0f b6 c8	 movzx	 ecx, al
  00511	52		 push	 edx
  00512	66 89 8d 40 ff
	ff ff		 mov	 WORD PTR _NewItem$158671[ebp+8], cx
  00519	0f b6 4b 13	 movzx	 ecx, BYTE PTR [ebx+19]
  0051d	0f b6 d0	 movzx	 edx, al
  00520	0f bf 43 0c	 movsx	 eax, WORD PTR [ebx+12]
  00524	51		 push	 ecx
  00525	52		 push	 edx
  00526	50		 push	 eax
  00527	e8 00 00 00 00	 call	 ?ItemGetDurability@@YAHHHHH@Z ; ItemGetDurability
  0052c	89 45 f8	 mov	 DWORD PTR tv828[ebp], eax

; 2228 : 
; 2229 : 		if ( lpMsg->Type == ITEMGET(14,7) ) // Siege Potion

  0052f	0f b7 43 0c	 movzx	 eax, WORD PTR [ebx+12]
  00533	db 45 f8	 fild	 DWORD PTR tv828[ebp]
  00536	b9 07 1c 00 00	 mov	 ecx, 7175		; 00001c07H
  0053b	83 c4 10	 add	 esp, 16			; 00000010H
  0053e	d9 9d 5c ff ff
	ff		 fstp	 DWORD PTR _NewItem$158671[ebp+36]
  00544	66 3b c1	 cmp	 ax, cx
  00547	75 10		 jne	 SHORT $LN26@ItemSerial@2

; 2230 : 		{
; 2231 : 			NewItem.m_Durability = lpMsg->Dur;

  00549	0f b6 53 0f	 movzx	 edx, BYTE PTR [ebx+15]
  0054d	89 55 f8	 mov	 DWORD PTR tv827[ebp], edx
  00550	db 45 f8	 fild	 DWORD PTR tv827[ebp]
  00553	d9 9d 5c ff ff
	ff		 fstp	 DWORD PTR _NewItem$158671[ebp+36]
$LN26@ItemSerial@2:

; 2232 : 		}
; 2233 : 
; 2234 : 		if ( lpMsg->Type == ITEMGET(13,37) )

  00559	b9 25 1a 00 00	 mov	 ecx, 6693		; 00001a25H
  0055e	66 3b c1	 cmp	 ax, cx
  00561	75 10		 jne	 SHORT $LN25@ItemSerial@2

; 2235 : 		{
; 2236 : 			NewItem.m_Durability = lpMsg->Dur;

  00563	0f b6 53 0f	 movzx	 edx, BYTE PTR [ebx+15]
  00567	89 55 f8	 mov	 DWORD PTR tv826[ebp], edx
  0056a	db 45 f8	 fild	 DWORD PTR tv826[ebp]
  0056d	d9 9d 5c ff ff
	ff		 fstp	 DWORD PTR _NewItem$158671[ebp+36]
$LN25@ItemSerial@2:

; 2237 : 		}
; 2238 : 
; 2239 : 		NewItem.Convert(lpMsg->Type,lpMsg->Op1, lpMsg->Op2, lpMsg->Op3,lpMsg->NewOption, lpMsg->SetOption,0, CURRENT_DB_VERSION);

  00573	0f b6 4b 1a	 movzx	 ecx, BYTE PTR [ebx+26]
  00577	0f b6 53 13	 movzx	 edx, BYTE PTR [ebx+19]
  0057b	6a 03		 push	 3
  0057d	6a 00		 push	 0
  0057f	51		 push	 ecx
  00580	0f b6 4b 12	 movzx	 ecx, BYTE PTR [ebx+18]
  00584	52		 push	 edx
  00585	0f b6 53 11	 movzx	 edx, BYTE PTR [ebx+17]
  00589	51		 push	 ecx
  0058a	0f b6 4b 10	 movzx	 ecx, BYTE PTR [ebx+16]
  0058e	52		 push	 edx
  0058f	0f bf d0	 movsx	 edx, ax
  00592	51		 push	 ecx
  00593	52		 push	 edx
  00594	8d 8d 38 ff ff
	ff		 lea	 ecx, DWORD PTR _NewItem$158671[ebp]
  0059a	e8 00 00 00 00	 call	 ?Convert@CItem@@QAEXHEEEEEEE@Z ; CItem::Convert

; 2240 : 		ItemByteConvert(pMsg.ItemInfo, NewItem);

  0059f	81 ec a8 00 00
	00		 sub	 esp, 168		; 000000a8H
  005a5	8d 45 e4	 lea	 eax, DWORD PTR _pMsg$158666[ebp+4]
  005a8	8b fc		 mov	 edi, esp
  005aa	b9 2a 00 00 00	 mov	 ecx, 42			; 0000002aH
  005af	8d b5 38 ff ff
	ff		 lea	 esi, DWORD PTR _NewItem$158671[ebp]
  005b5	50		 push	 eax
  005b6	f3 a5		 rep movsd
  005b8	e8 00 00 00 00	 call	 ?ItemByteConvert@@YAXPAEVCItem@@@Z ; ItemByteConvert

; 2241 : 		NewItem.m_Number = lpMsg->m_Number;
; 2242 : 		ChaosBoxInit(lpObj);

  005bd	8b 85 34 ff ff
	ff		 mov	 eax, DWORD PTR tv856[ebp]
  005c3	8b 4b 08	 mov	 ecx, DWORD PTR [ebx+8]
  005c6	8d 80 00 00 00
	00		 lea	 eax, DWORD PTR ?gObj@@3PAUOBJECTSTRUCT@@A[eax]
  005cc	50		 push	 eax
  005cd	89 8d 38 ff ff
	ff		 mov	 DWORD PTR _NewItem$158671[ebp], ecx
  005d3	e8 00 00 00 00	 call	 ?ChaosBoxInit@@YAHPAUOBJECTSTRUCT@@@Z ; ChaosBoxInit
  005d8	81 c4 b0 00 00
	00		 add	 esp, 176		; 000000b0H

; 2243 : 		gObjChaosBoxInsertItemPos(aIndex, NewItem, 0, -1);

  005de	6a ff		 push	 -1
  005e0	6a 00		 push	 0
  005e2	81 ec a8 00 00
	00		 sub	 esp, 168		; 000000a8H
  005e8	8b fc		 mov	 edi, esp
  005ea	b9 2a 00 00 00	 mov	 ecx, 42			; 0000002aH
  005ef	8d b5 38 ff ff
	ff		 lea	 esi, DWORD PTR _NewItem$158671[ebp]
  005f5	f3 a5		 rep movsd
  005f7	8b b5 30 ff ff
	ff		 mov	 esi, DWORD PTR tv710[ebp]
  005fd	56		 push	 esi
  005fe	e8 00 00 00 00	 call	 ?gObjChaosBoxInsertItemPos@@YAEHVCItem@@HH@Z ; gObjChaosBoxInsertItemPos

; 2244 : 		gObjChaosItemSet(aIndex, 0, 1);

  00603	6a 01		 push	 1
  00605	6a 00		 push	 0
  00607	56		 push	 esi
  00608	e8 00 00 00 00	 call	 ?gObjChaosItemSet@@YAXHHE@Z ; gObjChaosItemSet
  0060d	81 c4 c0 00 00
	00		 add	 esp, 192		; 000000c0H

; 2245 : 		BYTE ExOption[MAX_EXOPTION_SIZE];
; 2246 : 		ItemIsBufExOption(ExOption, &NewItem);

  00613	8d 95 38 ff ff
	ff		 lea	 edx, DWORD PTR _NewItem$158671[ebp]
  00619	52		 push	 edx
  0061a	8d 45 ec	 lea	 eax, DWORD PTR _ExOption$158674[ebp]
  0061d	50		 push	 eax
  0061e	e8 00 00 00 00	 call	 ?ItemIsBufExOption@@YAXPAEPAVCItem@@@Z ; ItemIsBufExOption

; 2247 : 
; 2248 : 		LogAdd(LOG_BLACK, "[%s][%s] CBMix Item Create Item:%s [%d][%d] [%d][%d][%d][%d] Ex:[%d,%d,%d,%d,%d,%d,%d] Set:[%d]",
; 2249 : 			lpObj->AccountID, lpObj->Name, NewItem.GetName(), lpMsg->m_Number, lpMsg->Dur, NewItem.m_Level, 
; 2250 : 			NewItem.m_Option1, NewItem.m_Option2, NewItem.m_Option3, ExOption[0], ExOption[1],
; 2251 : 			ExOption[2], ExOption[3], ExOption[4], ExOption[5], ExOption[6], lpMsg->SetOption);

  00623	0f b6 4b 1a	 movzx	 ecx, BYTE PTR [ebx+26]
  00627	0f b6 55 f2	 movzx	 edx, BYTE PTR _ExOption$158674[ebp+6]
  0062b	0f b6 45 f1	 movzx	 eax, BYTE PTR _ExOption$158674[ebp+5]
  0062f	83 c4 08	 add	 esp, 8
  00632	51		 push	 ecx
  00633	0f b6 4d f0	 movzx	 ecx, BYTE PTR _ExOption$158674[ebp+4]
  00637	52		 push	 edx
  00638	0f b6 55 ef	 movzx	 edx, BYTE PTR _ExOption$158674[ebp+3]
  0063c	50		 push	 eax
  0063d	0f b6 45 ee	 movzx	 eax, BYTE PTR _ExOption$158674[ebp+2]
  00641	51		 push	 ecx
  00642	0f b6 4d ed	 movzx	 ecx, BYTE PTR _ExOption$158674[ebp+1]
  00646	52		 push	 edx
  00647	0f b6 55 ec	 movzx	 edx, BYTE PTR _ExOption$158674[ebp]
  0064b	50		 push	 eax
  0064c	0f b6 45 b2	 movzx	 eax, BYTE PTR _NewItem$158671[ebp+122]
  00650	51		 push	 ecx
  00651	0f b6 4d b1	 movzx	 ecx, BYTE PTR _NewItem$158671[ebp+121]
  00655	52		 push	 edx
  00656	0f b6 55 b0	 movzx	 edx, BYTE PTR _NewItem$158671[ebp+120]
  0065a	50		 push	 eax
  0065b	0f bf 85 40 ff
	ff ff		 movsx	 eax, WORD PTR _NewItem$158671[ebp+8]
  00662	51		 push	 ecx
  00663	0f b6 4b 0f	 movzx	 ecx, BYTE PTR [ebx+15]
  00667	52		 push	 edx
  00668	8b 53 08	 mov	 edx, DWORD PTR [ebx+8]
  0066b	50		 push	 eax
  0066c	51		 push	 ecx
  0066d	52		 push	 edx
  0066e	8d 8d 38 ff ff
	ff		 lea	 ecx, DWORD PTR _NewItem$158671[ebp]
  00674	e8 00 00 00 00	 call	 ?GetName@CItem@@QAEPADXZ ; CItem::GetName
  00679	50		 push	 eax
  0067a	8b 85 34 ff ff
	ff		 mov	 eax, DWORD PTR tv856[ebp]
  00680	8d 80 00 00 00
	00		 lea	 eax, DWORD PTR ?gObj@@3PAUOBJECTSTRUCT@@A[eax]
  00686	8d 48 6f	 lea	 ecx, DWORD PTR [eax+111]
  00689	51		 push	 ecx
  0068a	83 c0 64	 add	 eax, 100		; 00000064H
  0068d	50		 push	 eax
  0068e	68 00 00 00 00	 push	 OFFSET ??_C@_0GA@EHKFCGJE@?$FL?$CFs?$FN?$FL?$CFs?$FN?5CBMix?5Item?5Create?5Item?3@
  00693	6a 00		 push	 0
  00695	e8 00 00 00 00	 call	 ?LogAdd@@YAXW4eLogColor@@PADZZ ; LogAdd

; 2252 : 
; 2253 : 		DataSend(aIndex, (LPBYTE)&pMsg, pMsg.h.size);

  0069a	0f b6 55 e1	 movzx	 edx, BYTE PTR _pMsg$158666[ebp+1]
  0069e	52		 push	 edx
  0069f	8d 45 e0	 lea	 eax, DWORD PTR _pMsg$158666[ebp]
  006a2	50		 push	 eax
  006a3	56		 push	 esi
  006a4	e8 00 00 00 00	 call	 ?DataSend@@YAHHPAEK@Z	; DataSend

; 2254 : 		gObj[aIndex].ChaosLock = FALSE;

  006a9	8b 8d 34 ff ff
	ff		 mov	 ecx, DWORD PTR tv856[ebp]
  006af	83 c4 58	 add	 esp, 88			; 00000058H
  006b2	c7 81 ec 0c 00
	00 00 00 00 00	 mov	 DWORD PTR ?gObj@@3PAUOBJECTSTRUCT@@A[ecx+3308], 0
$LN15@ItemSerial@2:

; 2382 : 		
; 2383 : 	}
; 2384 : }

  006bc	8b 4d fc	 mov	 ecx, DWORD PTR __$ArrayPad$[ebp]
  006bf	5f		 pop	 edi
  006c0	5e		 pop	 esi
  006c1	33 cd		 xor	 ecx, ebp
  006c3	5b		 pop	 ebx
  006c4	e8 00 00 00 00	 call	 @__security_check_cookie@4
  006c9	8b e5		 mov	 esp, ebp
  006cb	5d		 pop	 ebp
  006cc	c3		 ret	 0
?ItemSerialCreateRecv@@YAXPAUSDHP_ITEMCREATERECV@@@Z ENDP ; ItemSerialCreateRecv
_TEXT	ENDS
PUBLIC	__$ArrayPad$
PUBLIC	?ItemMovePathSave@@YAXPAD0EEEE0EEEK@Z		; ItemMovePathSave
; Function compile flags: /Ogtp
;	COMDAT ?ItemMovePathSave@@YAXPAD0EEEE0EEEK@Z
_TEXT	SEGMENT
_pMsg$ = -80						; size = 76
__$ArrayPad$ = -4					; size = 4
_ActID$ = 8						; size = 4
_Name$ = 12						; size = 4
_level$ = 16						; size = 1
_mapnumber$ = 20					; size = 1
_x$ = 24						; size = 1
_y$ = 28						; size = 1
_Item$ = 32						; size = 4
_op1$ = 36						; size = 1
_op2$ = 40						; size = 1
_op3$ = 44						; size = 1
_serial$ = 48						; size = 4
?ItemMovePathSave@@YAXPAD0EEEE0EEEK@Z PROC		; ItemMovePathSave, COMDAT

; 2409 : {

  00000	55		 push	 ebp
  00001	8b ec		 mov	 ebp, esp
  00003	83 ec 50	 sub	 esp, 80			; 00000050H
  00006	a1 00 00 00 00	 mov	 eax, DWORD PTR ___security_cookie
  0000b	33 c5		 xor	 eax, ebp
  0000d	89 45 fc	 mov	 DWORD PTR __$ArrayPad$[ebp], eax

; 2423 : 	strcpy(pMsg.ItemName, Item);

  00010	56		 push	 esi

; 2410 : 	SDHP_ITEMMOVESAVE pMsg;
; 2411 : 
; 2412 : 	pMsg.h.c = 0xC1;
; 2413 : 	pMsg.h.headcode = 0x53;
; 2414 : 	pMsg.h.size = sizeof(pMsg);
; 2415 : 	pMsg.ItemLevel = level;
; 2416 : 	pMsg.Serial = serial;

  00011	8b 55 30	 mov	 edx, DWORD PTR _serial$[ebp]
  00014	8a 4d 10	 mov	 cl, BYTE PTR _level$[ebp]
  00017	8b 45 08	 mov	 eax, DWORD PTR _ActID$[ebp]
  0001a	89 55 b4	 mov	 DWORD PTR _pMsg$[ebp+4], edx

; 2417 : 	pMsg.ItemOp1 = op1;
; 2418 : 	pMsg.ItemOp2 = op2;

  0001d	8a 55 28	 mov	 dl, BYTE PTR _op2$[ebp]
  00020	88 4d f7	 mov	 BYTE PTR _pMsg$[ebp+71], cl
  00023	8a 4d 24	 mov	 cl, BYTE PTR _op1$[ebp]
  00026	88 55 f9	 mov	 BYTE PTR _pMsg$[ebp+73], dl

; 2419 : 	pMsg.ItemOp3 = op3;
; 2420 : 	pMsg.X = x;

  00029	8a 55 18	 mov	 dl, BYTE PTR _x$[ebp]
  0002c	88 4d f8	 mov	 BYTE PTR _pMsg$[ebp+72], cl
  0002f	8a 4d 2c	 mov	 cl, BYTE PTR _op3$[ebp]
  00032	88 55 f5	 mov	 BYTE PTR _pMsg$[ebp+69], dl

; 2421 : 	pMsg.Y = y;
; 2422 : 	memcpy(pMsg.Account, ActID, sizeof(pMsg.Account));

  00035	8b 10		 mov	 edx, DWORD PTR [eax]
  00037	88 4d fa	 mov	 BYTE PTR _pMsg$[ebp+74], cl
  0003a	8a 4d 1c	 mov	 cl, BYTE PTR _y$[ebp]
  0003d	89 55 cc	 mov	 DWORD PTR _pMsg$[ebp+28], edx
  00040	66 8b 50 08	 mov	 dx, WORD PTR [eax+8]
  00044	88 4d f6	 mov	 BYTE PTR _pMsg$[ebp+70], cl
  00047	8b 48 04	 mov	 ecx, DWORD PTR [eax+4]

; 2423 : 	strcpy(pMsg.ItemName, Item);

  0004a	8b 45 20	 mov	 eax, DWORD PTR _Item$[ebp]
  0004d	66 89 55 d4	 mov	 WORD PTR _pMsg$[ebp+36], dx
  00051	8d 55 e0	 lea	 edx, DWORD PTR _pMsg$[ebp+48]
  00054	8b 75 0c	 mov	 esi, DWORD PTR _Name$[ebp]
  00057	c6 45 b0 c1	 mov	 BYTE PTR _pMsg$[ebp], 193 ; 000000c1H
  0005b	66 c7 45 b1 4c
	53		 mov	 WORD PTR _pMsg$[ebp+1], 21324 ; 0000534cH
  00061	89 4d d0	 mov	 DWORD PTR _pMsg$[ebp+32], ecx
  00064	2b d0		 sub	 edx, eax
$LL3@ItemMovePa:
  00066	8a 08		 mov	 cl, BYTE PTR [eax]
  00068	88 0c 02	 mov	 BYTE PTR [edx+eax], cl
  0006b	40		 inc	 eax
  0006c	84 c9		 test	 cl, cl
  0006e	75 f6		 jne	 SHORT $LL3@ItemMovePa

; 2424 : 	memcpy(pMsg.Name, Name, sizeof(pMsg.Name));

  00070	8b 06		 mov	 eax, DWORD PTR [esi]
  00072	8b 4e 04	 mov	 ecx, DWORD PTR [esi+4]
  00075	66 8b 56 08	 mov	 dx, WORD PTR [esi+8]
  00079	89 45 d6	 mov	 DWORD PTR _pMsg$[ebp+38], eax
  0007c	89 4d da	 mov	 DWORD PTR _pMsg$[ebp+42], ecx
  0007f	66 89 55 de	 mov	 WORD PTR _pMsg$[ebp+46], dx

; 2425 : 	strcpy(pMsg.ServerName, szServerName);

  00083	33 c0		 xor	 eax, eax
  00085	5e		 pop	 esi
  00086	eb 08 8d a4 24
	00 00 00 00 90	 npad	 10
$LL4@ItemMovePa:
  00090	8a 88 00 00 00
	00		 mov	 cl, BYTE PTR ?szServerName@@3PADA[eax]
  00096	88 4c 05 b8	 mov	 BYTE PTR _pMsg$[ebp+eax+8], cl
  0009a	40		 inc	 eax
  0009b	84 c9		 test	 cl, cl
  0009d	75 f1		 jne	 SHORT $LL4@ItemMovePa

; 2426 : 
; 2427 : 	cDBSMng.Send((PCHAR)&pMsg, pMsg.h.size);

  0009f	0f b6 45 b1	 movzx	 eax, BYTE PTR _pMsg$[ebp+1]
  000a3	50		 push	 eax
  000a4	8d 4d b0	 lea	 ecx, DWORD PTR _pMsg$[ebp]
  000a7	51		 push	 ecx
  000a8	b9 00 00 00 00	 mov	 ecx, OFFSET ?cDBSMng@@3VDBSockMng@@A ; cDBSMng
  000ad	e8 00 00 00 00	 call	 ?Send@DBSockMng@@QAEHPADH@Z ; DBSockMng::Send

; 2428 : }

  000b2	8b 4d fc	 mov	 ecx, DWORD PTR __$ArrayPad$[ebp]
  000b5	33 cd		 xor	 ecx, ebp
  000b7	e8 00 00 00 00	 call	 @__security_check_cookie@4
  000bc	8b e5		 mov	 esp, ebp
  000be	5d		 pop	 ebp
  000bf	c3		 ret	 0
?ItemMovePathSave@@YAXPAD0EEEE0EEEK@Z ENDP		; ItemMovePathSave
_TEXT	ENDS
PUBLIC	__$ArrayPad$
PUBLIC	?DGOptionDataSend@@YAXHPADPAEEEEEE@Z		; DGOptionDataSend
; Function compile flags: /Ogtp
;	COMDAT ?DGOptionDataSend@@YAXHPADPAEEEEEE@Z
_TEXT	SEGMENT
_pMsg$ = -32						; size = 28
__$ArrayPad$ = -4					; size = 4
_aIndex$ = 8						; size = 4
_szName$ = 12						; size = 4
_KeyBuffer$ = 16					; size = 4
_GO$ = 20						; size = 1
_Qk$ = 24						; size = 1
_Wk$ = 28						; size = 1
_Ek$ = 32						; size = 1
_ChatWnd$ = 36						; size = 1
?DGOptionDataSend@@YAXHPADPAEEEEEE@Z PROC		; DGOptionDataSend, COMDAT

; 2450 : {

  00000	55		 push	 ebp
  00001	8b ec		 mov	 ebp, esp
  00003	83 ec 20	 sub	 esp, 32			; 00000020H
  00006	a1 00 00 00 00	 mov	 eax, DWORD PTR ___security_cookie
  0000b	33 c5		 xor	 eax, ebp
  0000d	89 45 fc	 mov	 DWORD PTR __$ArrayPad$[ebp], eax
  00010	8b 45 0c	 mov	 eax, DWORD PTR _szName$[ebp]

; 2451 : 	SDHP_SKILLKEYDATA pMsg;
; 2452 : 
; 2453 : 	pMsg.h.c = 0xC1;
; 2454 : 	pMsg.h.headcode = 0x60;
; 2455 : 	pMsg.h.size = sizeof(pMsg);
; 2456 : 	memcpy(pMsg.Name, szName, sizeof(pMsg.Name));

  00013	8b 10		 mov	 edx, DWORD PTR [eax]
  00015	8b 4d 10	 mov	 ecx, DWORD PTR _KeyBuffer$[ebp]
  00018	89 55 e3	 mov	 DWORD PTR _pMsg$[ebp+3], edx
  0001b	8b 50 04	 mov	 edx, DWORD PTR [eax+4]
  0001e	66 8b 40 08	 mov	 ax, WORD PTR [eax+8]
  00022	89 55 e7	 mov	 DWORD PTR _pMsg$[ebp+7], edx

; 2457 : 	memcpy(pMsg.SkillKeyBuffer, KeyBuffer, sizeof(pMsg.SkillKeyBuffer));

  00025	8b 11		 mov	 edx, DWORD PTR [ecx]
  00027	66 89 45 eb	 mov	 WORD PTR _pMsg$[ebp+11], ax
  0002b	8b 41 04	 mov	 eax, DWORD PTR [ecx+4]
  0002e	66 8b 49 08	 mov	 cx, WORD PTR [ecx+8]
  00032	66 89 4d f5	 mov	 WORD PTR _pMsg$[ebp+21], cx

; 2458 : 	pMsg.GameOption = GO;
; 2459 : 	pMsg.QkeyDefine = Qk;
; 2460 : 	pMsg.WkeyDefine = Wk;

  00036	8a 4d 1c	 mov	 cl, BYTE PTR _Wk$[ebp]
  00039	89 55 ed	 mov	 DWORD PTR _pMsg$[ebp+13], edx
  0003c	8a 55 14	 mov	 dl, BYTE PTR _GO$[ebp]
  0003f	89 45 f1	 mov	 DWORD PTR _pMsg$[ebp+17], eax
  00042	8a 45 18	 mov	 al, BYTE PTR _Qk$[ebp]
  00045	88 4d f9	 mov	 BYTE PTR _pMsg$[ebp+25], cl

; 2461 : 	pMsg.EkeyDefine = Ek;
; 2462 : 	pMsg.ChatWindow = ChatWnd;
; 2463 : 
; 2464 : 	cDBSMng.Send((char*)&pMsg, pMsg.h.size);

  00048	6a 1c		 push	 28			; 0000001cH
  0004a	8d 4d e0	 lea	 ecx, DWORD PTR _pMsg$[ebp]
  0004d	88 55 f7	 mov	 BYTE PTR _pMsg$[ebp+23], dl
  00050	8a 55 20	 mov	 dl, BYTE PTR _Ek$[ebp]
  00053	88 45 f8	 mov	 BYTE PTR _pMsg$[ebp+24], al
  00056	8a 45 24	 mov	 al, BYTE PTR _ChatWnd$[ebp]
  00059	51		 push	 ecx
  0005a	b9 00 00 00 00	 mov	 ecx, OFFSET ?cDBSMng@@3VDBSockMng@@A ; cDBSMng
  0005f	c6 45 e0 c1	 mov	 BYTE PTR _pMsg$[ebp], 193 ; 000000c1H
  00063	66 c7 45 e1 1c
	60		 mov	 WORD PTR _pMsg$[ebp+1], 24604 ; 0000601cH
  00069	88 55 fa	 mov	 BYTE PTR _pMsg$[ebp+26], dl
  0006c	88 45 fb	 mov	 BYTE PTR _pMsg$[ebp+27], al
  0006f	e8 00 00 00 00	 call	 ?Send@DBSockMng@@QAEHPADH@Z ; DBSockMng::Send

; 2465 : }

  00074	8b 4d fc	 mov	 ecx, DWORD PTR __$ArrayPad$[ebp]
  00077	33 cd		 xor	 ecx, ebp
  00079	e8 00 00 00 00	 call	 @__security_check_cookie@4
  0007e	8b e5		 mov	 esp, ebp
  00080	5d		 pop	 ebp
  00081	c3		 ret	 0
?DGOptionDataSend@@YAXHPADPAEEEEEE@Z ENDP		; DGOptionDataSend
_TEXT	ENDS
PUBLIC	?DGOptionDataRecv@@YAXPAUSDHP_SKILLKEYDATA_SEND@@@Z ; DGOptionDataRecv
EXTRN	?GCSkillKeySend@@YAXHPAEEEEEE@Z:PROC		; GCSkillKeySend
; Function compile flags: /Ogtp
;	COMDAT ?DGOptionDataRecv@@YAXPAUSDHP_SKILLKEYDATA_SEND@@@Z
_TEXT	SEGMENT
_szName$ = -12						; size = 11
_lpMsg$ = 8						; size = 4
?DGOptionDataRecv@@YAXPAUSDHP_SKILLKEYDATA_SEND@@@Z PROC ; DGOptionDataRecv, COMDAT

; 2469 : {

  00000	55		 push	 ebp
  00001	8b ec		 mov	 ebp, esp
  00003	83 ec 0c	 sub	 esp, 12			; 0000000cH
  00006	56		 push	 esi

; 2470 : 	int aIndex = lpMsg->aIndex;

  00007	8b 75 08	 mov	 esi, DWORD PTR _lpMsg$[ebp]
  0000a	57		 push	 edi
  0000b	8b 7e 04	 mov	 edi, DWORD PTR [esi+4]

; 2471 : 	char szName[MAX_ACCOUNT_LEN+1];
; 2472 : 
; 2473 : 	if ( aIndex < 0 || aIndex >= OBJMAX )

  0000e	81 ff e7 1c 00
	00		 cmp	 edi, 7399		; 00001ce7H
  00014	0f 87 85 00 00
	00		 ja	 $LN2@DGOptionDa

; 2474 : 	{
; 2475 : 		return;
; 2476 : 	}
; 2477 : 
; 2478 : 	memset(szName, 0, sizeof(szName));
; 2479 : 	memcpy(szName, lpMsg->Name, sizeof(lpMsg->Name));

  0001a	8b 4e 0c	 mov	 ecx, DWORD PTR [esi+12]
  0001d	66 8b 56 10	 mov	 dx, WORD PTR [esi+16]
  00021	33 c0		 xor	 eax, eax
  00023	89 45 f4	 mov	 DWORD PTR _szName$[ebp], eax
  00026	89 45 f8	 mov	 DWORD PTR _szName$[ebp+4], eax
  00029	66 89 45 fc	 mov	 WORD PTR _szName$[ebp+8], ax
  0002d	88 45 fe	 mov	 BYTE PTR _szName$[ebp+10], al
  00030	8b 46 08	 mov	 eax, DWORD PTR [esi+8]
  00033	89 45 f4	 mov	 DWORD PTR _szName$[ebp], eax

; 2480 : 
; 2481 : 	if ( strcmp(gObj[aIndex].Name, szName) != 0 )

  00036	8b c7		 mov	 eax, edi
  00038	69 c0 64 15 00
	00		 imul	 eax, 5476		; 00001564H
  0003e	89 4d f8	 mov	 DWORD PTR _szName$[ebp+4], ecx
  00041	66 89 55 fc	 mov	 WORD PTR _szName$[ebp+8], dx
  00045	8d 4d f4	 lea	 ecx, DWORD PTR _szName$[ebp]
  00048	05 6f 00 00 00	 add	 eax, OFFSET ?gObj@@3PAUOBJECTSTRUCT@@A+111
  0004d	8d 49 00	 npad	 3
$LL6@DGOptionDa:
  00050	8a 10		 mov	 dl, BYTE PTR [eax]
  00052	3a 11		 cmp	 dl, BYTE PTR [ecx]
  00054	75 1a		 jne	 SHORT $LN7@DGOptionDa
  00056	84 d2		 test	 dl, dl
  00058	74 12		 je	 SHORT $LN8@DGOptionDa
  0005a	8a 50 01	 mov	 dl, BYTE PTR [eax+1]
  0005d	3a 51 01	 cmp	 dl, BYTE PTR [ecx+1]
  00060	75 0e		 jne	 SHORT $LN7@DGOptionDa
  00062	83 c0 02	 add	 eax, 2
  00065	83 c1 02	 add	 ecx, 2
  00068	84 d2		 test	 dl, dl
  0006a	75 e4		 jne	 SHORT $LL6@DGOptionDa
$LN8@DGOptionDa:
  0006c	33 c0		 xor	 eax, eax
  0006e	eb 05		 jmp	 SHORT $LN9@DGOptionDa
$LN7@DGOptionDa:
  00070	1b c0		 sbb	 eax, eax
  00072	83 d8 ff	 sbb	 eax, -1
$LN9@DGOptionDa:
  00075	85 c0		 test	 eax, eax
  00077	75 26		 jne	 SHORT $LN2@DGOptionDa

; 2482 : 	{
; 2483 : 		return;
; 2484 : 	}
; 2485 : 
; 2486 : 	::GCSkillKeySend(aIndex, lpMsg->SkillKeyBuffer, lpMsg->GameOption, lpMsg->QkeyDefine, lpMsg->WkeyDefine, lpMsg->EkeyDefine, lpMsg->ChatWindow);

  00079	0f b6 46 20	 movzx	 eax, BYTE PTR [esi+32]
  0007d	0f b6 4e 1f	 movzx	 ecx, BYTE PTR [esi+31]
  00081	0f b6 56 1e	 movzx	 edx, BYTE PTR [esi+30]
  00085	50		 push	 eax
  00086	0f b6 46 1d	 movzx	 eax, BYTE PTR [esi+29]
  0008a	51		 push	 ecx
  0008b	0f b6 4e 1c	 movzx	 ecx, BYTE PTR [esi+28]
  0008f	52		 push	 edx
  00090	50		 push	 eax
  00091	51		 push	 ecx
  00092	83 c6 12	 add	 esi, 18			; 00000012H
  00095	56		 push	 esi
  00096	57		 push	 edi
  00097	e8 00 00 00 00	 call	 ?GCSkillKeySend@@YAXHPAEEEEEE@Z ; GCSkillKeySend
  0009c	83 c4 1c	 add	 esp, 28			; 0000001cH
$LN2@DGOptionDa:
  0009f	5f		 pop	 edi
  000a0	5e		 pop	 esi

; 2487 : }

  000a1	8b e5		 mov	 esp, ebp
  000a3	5d		 pop	 ebp
  000a4	c3		 ret	 0
?DGOptionDataRecv@@YAXPAUSDHP_SKILLKEYDATA_SEND@@@Z ENDP ; DGOptionDataRecv
_TEXT	ENDS
PUBLIC	??_C@_0EA@PICKNLKN@Request?5to?5receive?5petitem?5infom@ ; `string'
PUBLIC	__$ArrayPad$
PUBLIC	?DGRecvPetItemInfo@@YAXPAE@Z			; DGRecvPetItemInfo
EXTRN	?gObjCalCharacter@@YAXH@Z:PROC			; gObjCalCharacter
EXTRN	?SetPetItemInfo@CItem@@QAEXHH@Z:PROC		; CItem::SetPetItemInfo
;	COMDAT ??_C@_0EA@PICKNLKN@Request?5to?5receive?5petitem?5infom@
CONST	SEGMENT
??_C@_0EA@PICKNLKN@Request?5to?5receive?5petitem?5infom@ DB 'Request to r'
	DB	'eceive petitem infomation doesn''t match the user %s', 00H ; `string'
; Function compile flags: /Ogtp
CONST	ENDS
;	COMDAT ?DGRecvPetItemInfo@@YAXPAE@Z
_TEXT	SEGMENT
_aIndex$ = -28						; size = 4
tv281 = -24						; size = 4
tv310 = -20						; size = 4
_ReCalc$158889 = -20					; size = 4
_szAccountId$ = -16					; size = 11
__$ArrayPad$ = -4					; size = 4
_lpData$ = 8						; size = 4
?DGRecvPetItemInfo@@YAXPAE@Z PROC			; DGRecvPetItemInfo, COMDAT

; 2630 : {

  00000	55		 push	 ebp
  00001	8b ec		 mov	 ebp, esp
  00003	83 ec 1c	 sub	 esp, 28			; 0000001cH
  00006	a1 00 00 00 00	 mov	 eax, DWORD PTR ___security_cookie
  0000b	33 c5		 xor	 eax, ebp
  0000d	89 45 fc	 mov	 DWORD PTR __$ArrayPad$[ebp], eax
  00010	56		 push	 esi
  00011	57		 push	 edi
  00012	8b 7d 08	 mov	 edi, DWORD PTR _lpData$[ebp]

; 2631 : 	SDHP_RECV_PETITEM_INFO* lpMsg = (SDHP_RECV_PETITEM_INFO *)lpData;
; 2632 : 	Recv_PetItem_Info* pPetItemInfo = (Recv_PetItem_Info *)((DWORD)lpData + sizeof(SDHP_RECV_PETITEM_INFO));
; 2633 : 	int aIndex = lpMsg->Number;
; 2634 : 	char szAccountId[MAX_ACCOUNT_LEN+1];
; 2635 : 	szAccountId[MAX_ACCOUNT_LEN]=0;
; 2636 : 
; 2637 : 	memcpy(szAccountId, lpMsg->AccountID, MAX_ACCOUNT_LEN);

  00015	8b 47 04	 mov	 eax, DWORD PTR [edi+4]
  00018	0f b7 77 10	 movzx	 esi, WORD PTR [edi+16]
  0001c	8b 4f 08	 mov	 ecx, DWORD PTR [edi+8]
  0001f	66 8b 57 0c	 mov	 dx, WORD PTR [edi+12]
  00023	89 45 f0	 mov	 DWORD PTR _szAccountId$[ebp], eax

; 2638 : 	
; 2639 : 	if ( !gObjIsAccontConnect(aIndex, szAccountId))

  00026	8d 45 f0	 lea	 eax, DWORD PTR _szAccountId$[ebp]
  00029	50		 push	 eax
  0002a	56		 push	 esi
  0002b	89 75 e4	 mov	 DWORD PTR _aIndex$[ebp], esi
  0002e	c6 45 fa 00	 mov	 BYTE PTR _szAccountId$[ebp+10], 0
  00032	89 4d f4	 mov	 DWORD PTR _szAccountId$[ebp+4], ecx
  00035	66 89 55 f8	 mov	 WORD PTR _szAccountId$[ebp+8], dx
  00039	e8 00 00 00 00	 call	 ?gObjIsAccontConnect@@YAHHPAD@Z ; gObjIsAccontConnect
  0003e	83 c4 08	 add	 esp, 8
  00041	85 c0		 test	 eax, eax
  00043	75 29		 jne	 SHORT $LN16@DGRecvPetI

; 2640 : 	{
; 2641 : 		LogAdd(LOG_RED,  "Request to receive petitem infomation doesn't match the user %s", szAccountId);

  00045	8d 4d f0	 lea	 ecx, DWORD PTR _szAccountId$[ebp]
  00048	51		 push	 ecx
  00049	68 00 00 00 00	 push	 OFFSET ??_C@_0EA@PICKNLKN@Request?5to?5receive?5petitem?5infom@
  0004e	6a 01		 push	 1
  00050	e8 00 00 00 00	 call	 ?LogAdd@@YAXW4eLogColor@@PADZZ ; LogAdd

; 2642 : 		CloseClient(aIndex);

  00055	56		 push	 esi
  00056	e8 00 00 00 00	 call	 ?CloseClient@@YAXH@Z	; CloseClient
  0005b	83 c4 10	 add	 esp, 16			; 00000010H
  0005e	5f		 pop	 edi
  0005f	5e		 pop	 esi

; 2682 : 				}
; 2683 : 			}
; 2684 : 		}
; 2685 : 
; 2686 : 	}
; 2687 : }

  00060	8b 4d fc	 mov	 ecx, DWORD PTR __$ArrayPad$[ebp]
  00063	33 cd		 xor	 ecx, ebp
  00065	e8 00 00 00 00	 call	 @__security_check_cookie@4
  0006a	8b e5		 mov	 esp, ebp
  0006c	5d		 pop	 ebp
  0006d	c3		 ret	 0
$LN16@DGRecvPetI:

; 2643 : 		
; 2644 : 		return;
; 2645 : 	}
; 2646 : 
; 2647 : 	if ( lpMsg->InvenType == 0 )

  0006e	8a 47 12	 mov	 al, BYTE PTR [edi+18]
  00071	53		 push	 ebx
  00072	84 c0		 test	 al, al
  00074	0f 85 a0 00 00
	00		 jne	 $LN15@DGRecvPetI

; 2648 : 	{
; 2649 : 		BOOL ReCalc = 0;

  0007a	33 db		 xor	 ebx, ebx
  0007c	89 5d ec	 mov	 DWORD PTR _ReCalc$158889[ebp], ebx

; 2650 : 
; 2651 : 		for ( int n=0;n<lpMsg->nCount;n++)

  0007f	38 5f 13	 cmp	 BYTE PTR [edi+19], bl
  00082	0f 86 fe 00 00
	00		 jbe	 $LN26@DGRecvPetI

; 2675 : 		{
; 2676 : 
; 2677 : 			if ( gObj[aIndex].pWarehouse[pPetItemInfo[n].nPos].IsItem() )

  00088	69 f6 64 15 00
	00		 imul	 esi, 5476		; 00001564H
  0008e	8d 96 8c 0c 00
	00		 lea	 edx, DWORD PTR ?gObj@@3PAUOBJECTSTRUCT@@A[esi+3212]
  00094	89 55 e8	 mov	 DWORD PTR tv281[ebp], edx
  00097	8d 77 14	 lea	 esi, DWORD PTR [edi+20]
  0009a	8d 9b 00 00 00
	00		 npad	 6
$LL25@DGRecvPetI:

; 2652 : 		{
; 2653 : 			if ( pPetItemInfo[n].nPos < INVETORY_WEAR_SIZE )

  000a0	8a 06		 mov	 al, BYTE PTR [esi]
  000a2	3c 0c		 cmp	 al, 12			; 0000000cH
  000a4	73 07		 jae	 SHORT $LN23@DGRecvPetI

; 2654 : 			{
; 2655 : 				ReCalc = 1;

  000a6	c7 45 ec 01 00
	00 00		 mov	 DWORD PTR _ReCalc$158889[ebp], 1
$LN23@DGRecvPetI:

; 2656 : 			}
; 2657 : 
; 2658 : 			if ( gObj[aIndex].pInventory[pPetItemInfo[n].nPos].IsItem() )

  000ad	0f b6 c8	 movzx	 ecx, al
  000b0	8b 45 e8	 mov	 eax, DWORD PTR tv281[ebp]
  000b3	69 c9 a8 00 00
	00		 imul	 ecx, 168		; 000000a8H
  000b9	03 08		 add	 ecx, DWORD PTR [eax]
  000bb	e8 00 00 00 00	 call	 ?IsItem@CItem@@QAEHXZ	; CItem::IsItem
  000c0	85 c0		 test	 eax, eax
  000c2	74 23		 je	 SHORT $LN13@DGRecvPetI

; 2659 : 			{
; 2660 : 				if ( gObj[aIndex].pInventory[pPetItemInfo[n].nPos].m_Number == pPetItemInfo[n].nSerial )

  000c4	0f b6 0e	 movzx	 ecx, BYTE PTR [esi]
  000c7	8b 55 e8	 mov	 edx, DWORD PTR tv281[ebp]
  000ca	69 c9 a8 00 00
	00		 imul	 ecx, 168		; 000000a8H
  000d0	03 0a		 add	 ecx, DWORD PTR [edx]
  000d2	8b 11		 mov	 edx, DWORD PTR [ecx]
  000d4	3b 56 04	 cmp	 edx, DWORD PTR [esi+4]
  000d7	75 0e		 jne	 SHORT $LN13@DGRecvPetI

; 2661 : 				{
; 2662 : 					gObj[aIndex].pInventory[pPetItemInfo[n].nPos].SetPetItemInfo(pPetItemInfo[n].Level, pPetItemInfo[n].Exp);

  000d9	8b 46 0c	 mov	 eax, DWORD PTR [esi+12]
  000dc	0f b6 56 08	 movzx	 edx, BYTE PTR [esi+8]
  000e0	50		 push	 eax
  000e1	52		 push	 edx
  000e2	e8 00 00 00 00	 call	 ?SetPetItemInfo@CItem@@QAEXHH@Z ; CItem::SetPetItemInfo
$LN13@DGRecvPetI:

; 2650 : 
; 2651 : 		for ( int n=0;n<lpMsg->nCount;n++)

  000e7	0f b6 47 13	 movzx	 eax, BYTE PTR [edi+19]
  000eb	43		 inc	 ebx
  000ec	83 c6 10	 add	 esi, 16			; 00000010H
  000ef	3b d8		 cmp	 ebx, eax
  000f1	7c ad		 jl	 SHORT $LL25@DGRecvPetI

; 2663 : 				}
; 2664 : 			}
; 2665 : 		}
; 2666 : 
; 2667 : 		if ( ReCalc != FALSE )

  000f3	83 7d ec 00	 cmp	 DWORD PTR _ReCalc$158889[ebp], 0
  000f7	0f 84 89 00 00
	00		 je	 $LN26@DGRecvPetI

; 2668 : 		{
; 2669 : 			gObjCalCharacter(aIndex);

  000fd	8b 4d e4	 mov	 ecx, DWORD PTR _aIndex$[ebp]
  00100	51		 push	 ecx
  00101	e8 00 00 00 00	 call	 ?gObjCalCharacter@@YAXH@Z ; gObjCalCharacter
  00106	83 c4 04	 add	 esp, 4
  00109	5b		 pop	 ebx
  0010a	5f		 pop	 edi
  0010b	5e		 pop	 esi

; 2682 : 				}
; 2683 : 			}
; 2684 : 		}
; 2685 : 
; 2686 : 	}
; 2687 : }

  0010c	8b 4d fc	 mov	 ecx, DWORD PTR __$ArrayPad$[ebp]
  0010f	33 cd		 xor	 ecx, ebp
  00111	e8 00 00 00 00	 call	 @__security_check_cookie@4
  00116	8b e5		 mov	 esp, ebp
  00118	5d		 pop	 ebp
  00119	c3		 ret	 0
$LN15@DGRecvPetI:

; 2670 : 		}
; 2671 : 	}
; 2672 : 	else if ( lpMsg->InvenType == 1 )

  0011a	3c 01		 cmp	 al, 1
  0011c	75 68		 jne	 SHORT $LN26@DGRecvPetI

; 2673 : 	{
; 2674 : 		for ( int n=0;n<lpMsg->nCount;n++)

  0011e	33 db		 xor	 ebx, ebx
  00120	38 5f 13	 cmp	 BYTE PTR [edi+19], bl
  00123	76 61		 jbe	 SHORT $LN26@DGRecvPetI

; 2675 : 		{
; 2676 : 
; 2677 : 			if ( gObj[aIndex].pWarehouse[pPetItemInfo[n].nPos].IsItem() )

  00125	69 f6 64 15 00
	00		 imul	 esi, 5476		; 00001564H
  0012b	8d 96 c4 0c 00
	00		 lea	 edx, DWORD PTR ?gObj@@3PAUOBJECTSTRUCT@@A[esi+3268]
  00131	89 55 ec	 mov	 DWORD PTR tv310[ebp], edx
  00134	8d 77 14	 lea	 esi, DWORD PTR [edi+20]
  00137	eb 07 8d a4 24
	00 00 00 00	 npad	 9
$LL24@DGRecvPetI:
  00140	0f b6 0e	 movzx	 ecx, BYTE PTR [esi]
  00143	8b 45 ec	 mov	 eax, DWORD PTR tv310[ebp]
  00146	69 c9 a8 00 00
	00		 imul	 ecx, 168		; 000000a8H
  0014c	03 08		 add	 ecx, DWORD PTR [eax]
  0014e	e8 00 00 00 00	 call	 ?IsItem@CItem@@QAEHXZ	; CItem::IsItem
  00153	85 c0		 test	 eax, eax
  00155	74 23		 je	 SHORT $LN4@DGRecvPetI

; 2678 : 			{
; 2679 : 				if ( gObj[aIndex].pWarehouse[pPetItemInfo[n].nPos].m_Number == pPetItemInfo[n].nSerial )

  00157	0f b6 0e	 movzx	 ecx, BYTE PTR [esi]
  0015a	8b 55 ec	 mov	 edx, DWORD PTR tv310[ebp]
  0015d	69 c9 a8 00 00
	00		 imul	 ecx, 168		; 000000a8H
  00163	03 0a		 add	 ecx, DWORD PTR [edx]
  00165	8b 11		 mov	 edx, DWORD PTR [ecx]
  00167	3b 56 04	 cmp	 edx, DWORD PTR [esi+4]
  0016a	75 0e		 jne	 SHORT $LN4@DGRecvPetI

; 2680 : 				{
; 2681 : 					gObj[aIndex].pWarehouse[pPetItemInfo[n].nPos].SetPetItemInfo(pPetItemInfo[n].Level, pPetItemInfo[n].Exp);

  0016c	8b 46 0c	 mov	 eax, DWORD PTR [esi+12]
  0016f	0f b6 56 08	 movzx	 edx, BYTE PTR [esi+8]
  00173	50		 push	 eax
  00174	52		 push	 edx
  00175	e8 00 00 00 00	 call	 ?SetPetItemInfo@CItem@@QAEXHH@Z ; CItem::SetPetItemInfo
$LN4@DGRecvPetI:

; 2673 : 	{
; 2674 : 		for ( int n=0;n<lpMsg->nCount;n++)

  0017a	0f b6 47 13	 movzx	 eax, BYTE PTR [edi+19]
  0017e	43		 inc	 ebx
  0017f	83 c6 10	 add	 esi, 16			; 00000010H
  00182	3b d8		 cmp	 ebx, eax
  00184	7c ba		 jl	 SHORT $LL24@DGRecvPetI
$LN26@DGRecvPetI:

; 2682 : 				}
; 2683 : 			}
; 2684 : 		}
; 2685 : 
; 2686 : 	}
; 2687 : }

  00186	8b 4d fc	 mov	 ecx, DWORD PTR __$ArrayPad$[ebp]
  00189	5b		 pop	 ebx
  0018a	5f		 pop	 edi
  0018b	33 cd		 xor	 ecx, ebp
  0018d	5e		 pop	 esi
  0018e	e8 00 00 00 00	 call	 @__security_check_cookie@4
  00193	8b e5		 mov	 esp, ebp
  00195	5d		 pop	 ebp
  00196	c3		 ret	 0
?DGRecvPetItemInfo@@YAXPAE@Z ENDP			; DGRecvPetItemInfo
_TEXT	ENDS
PUBLIC	?GS_DGAnsCastleTotalInfo@@YAXPAE@Z		; GS_DGAnsCastleTotalInfo
; Function compile flags: /Ogtp
;	COMDAT ?GS_DGAnsCastleTotalInfo@@YAXPAE@Z
_TEXT	SEGMENT
_lpRecv$ = 8						; size = 4
?GS_DGAnsCastleTotalInfo@@YAXPAE@Z PROC			; GS_DGAnsCastleTotalInfo, COMDAT

; 3936 : #if ( GS_CASTLE == 1 )
; 3937 : 	CSP_ANS_CASTLEDATA * lpMsg = (CSP_ANS_CASTLEDATA *)lpRecv;
; 3938 : 	if ( lpMsg == NULL )
; 3939 : 		return;
; 3940 : 
; 3941 : 	if ( lpMsg->wMapSvrNum != g_MapServerManager.GetMapSvrGroup() )
; 3942 : 		LogAdd(LOG_RED,  "[CastleSiege] PACKET-ERROR [0x80][0x00] GS_DGAnsCastleTotalInfo() - lpMsg->wMapSvrNum != g_MapServerManager.GetMapSvrGroup()");
; 3943 : #endif
; 3944 : }

  00000	c3		 ret	 0
?GS_DGAnsCastleTotalInfo@@YAXPAE@Z ENDP			; GS_DGAnsCastleTotalInfo
_TEXT	ENDS
PUBLIC	?GS_DGAnsOwnerGuildMaster@@YAXPAE@Z		; GS_DGAnsOwnerGuildMaster
; Function compile flags: /Ogtp
;	COMDAT ?GS_DGAnsOwnerGuildMaster@@YAXPAE@Z
_TEXT	SEGMENT
_lpRecv$ = 8						; size = 4
?GS_DGAnsOwnerGuildMaster@@YAXPAE@Z PROC		; GS_DGAnsOwnerGuildMaster, COMDAT

; 3961 : #if ( GS_CASTLE == 1 )
; 3962 : 	CSP_ANS_OWNERGUILDMASTER * lpMsg = (CSP_ANS_OWNERGUILDMASTER * )lpRecv;
; 3963 : 	if ( lpMsg == NULL )
; 3964 : 		return;
; 3965 : 
; 3966 : 	if ( lpMsg->wMapSvrNum != g_MapServerManager.GetMapSvrGroup() )
; 3967 : 	{
; 3968 : 		LogAdd(LOG_RED,  "[CastleSiege] PACKET-ERROR [0x80][0x00] GS_DGAnsCastleTotalInfo() - lpMsg->wMapSvrNum != g_MapServerManager.GetMapSvrGroup()");	// #error on Msg
; 3969 : 		return;
; 3970 : 	}
; 3971 : 
; 3972 : 	GCAnsCastleSiegeState(lpMsg->iIndex, lpMsg->iResult, lpMsg->szCastleOwnGuild, lpMsg->szCastleOwnGuildMaster);
; 3973 : #endif
; 3974 : }

  00000	c3		 ret	 0
?GS_DGAnsOwnerGuildMaster@@YAXPAE@Z ENDP		; GS_DGAnsOwnerGuildMaster
_TEXT	ENDS
PUBLIC	?GS_DGAnsCastleNpcBuy@@YAXPAE@Z			; GS_DGAnsCastleNpcBuy
; Function compile flags: /Ogtp
;	COMDAT ?GS_DGAnsCastleNpcBuy@@YAXPAE@Z
_TEXT	SEGMENT
_lpRecv$ = 8						; size = 4
?GS_DGAnsCastleNpcBuy@@YAXPAE@Z PROC			; GS_DGAnsCastleNpcBuy, COMDAT

; 3993 : #if ( GS_CASTLE == 1 )
; 3994 : 	CSP_ANS_NPCBUY * lpMsg = (CSP_ANS_NPCBUY * )lpRecv;
; 3995 : 	if ( lpMsg == NULL )
; 3996 : 		return;
; 3997 : 
; 3998 : 	if ( lpMsg->wMapSvrNum != g_MapServerManager.GetMapSvrGroup() )
; 3999 : 	{
; 4000 : 		LogAdd(LOG_RED,  "[CastleSiege] PACKET-ERROR [0x80][0x03] GS_DGAnsCastleNpcBuy() - lpMsg->wMapSvrNum != g_MapServerManager.GetMapSvrGroup()");
; 4001 : 		return;
; 4002 : 	}
; 4003 : 
; 4004 : 	if ( lpMsg->iResult == 1 )
; 4005 : 	{
; 4006 : 		BOOL bRET = g_CastleSiege.AddDbNPC(lpMsg->iNpcNumber, lpMsg->iNpcIndex);
; 4007 : 		if ( bRET == TRUE )
; 4008 : 		{
; 4009 : 			if ( gObjIsConnected(lpMsg->iIndex ) )
; 4010 : 			{
; 4011 : 				gObj[lpMsg->iIndex].Money -= lpMsg->iBuyCost;
; 4012 : 				if ( gObj[lpMsg->iIndex].Money < 0 )
; 4013 : 					gObj[lpMsg->iIndex].Money = 0;
; 4014 : 					
; 4015 : 				GCMoneySend(lpMsg->iIndex, gObj[lpMsg->iIndex].Money);
; 4016 : 			}
; 4017 : 
; 4018 : 			LogAdd(LOG_BLACK, "[CastleSiege] GS_DGAnsCastleNpcBuy() - CCastleSiege::AddDbNPC() OK - Npc:(CLS:%d, IDX:%d)",
; 4019 : 				lpMsg->iNpcNumber, lpMsg->iNpcIndex);
; 4020 : 		}
; 4021 : 		else
; 4022 : 		{
; 4023 : 			LogAdd(LOG_BLACK, "[CastleSiege] GS_DGAnsCastleNpcBuy() - CCastleSiege::AddDbNPC() FAILED - Npc:(CLS:%d, IDX:%d)",
; 4024 : 				lpMsg->iNpcNumber, lpMsg->iNpcIndex);
; 4025 : 		}
; 4026 : 	}
; 4027 : 	else
; 4028 : 	{
; 4029 : 		LogAdd(LOG_BLACK, "[CastleSiege] GS_DGAnsCastleNpcBuy() FAILED - Result:(%d), Npc:(CLS:%d, IDX:%d)",
; 4030 : 			lpMsg->iResult, lpMsg->iNpcNumber, lpMsg->iNpcIndex);
; 4031 : 	}
; 4032 : 
; 4033 : 	GCAnsNpcBuy(lpMsg->iIndex, lpMsg->iResult, lpMsg->iNpcNumber, lpMsg->iNpcIndex);
; 4034 : #endif
; 4035 : }

  00000	c3		 ret	 0
?GS_DGAnsCastleNpcBuy@@YAXPAE@Z ENDP			; GS_DGAnsCastleNpcBuy
_TEXT	ENDS
PUBLIC	?GS_DGAnsCastleNpcRepair@@YAXPAE@Z		; GS_DGAnsCastleNpcRepair
; Function compile flags: /Ogtp
;	COMDAT ?GS_DGAnsCastleNpcRepair@@YAXPAE@Z
_TEXT	SEGMENT
_lpRecv$ = 8						; size = 4
?GS_DGAnsCastleNpcRepair@@YAXPAE@Z PROC			; GS_DGAnsCastleNpcRepair, COMDAT

; 4053 : #if ( GS_CASTLE == 1 )
; 4054 : 	CSP_ANS_NPCREPAIR * lpMsg = (CSP_ANS_NPCREPAIR * )lpRecv;
; 4055 : 	if ( lpMsg == NULL )
; 4056 : 		return;
; 4057 : 
; 4058 : 	if ( lpMsg->wMapSvrNum != g_MapServerManager.GetMapSvrGroup() )
; 4059 : 	{
; 4060 : 		LogAdd(LOG_RED,  "[CastleSiege] PACKET-ERROR [0x80][0x04] GS_DGAnsCastleNpcRepair() - lpMsg->wMapSvrNum != g_MapServerManager.GetMapSvrGroup()");
; 4061 : 		return;
; 4062 : 	}
; 4063 : 
; 4064 : 	if ( lpMsg->iResult == 1 )
; 4065 : 	{
; 4066 : 		BOOL bRET = g_CastleSiege.RepairDbNPC(lpMsg->iNpcNumber, lpMsg->iNpcIndex, lpMsg->iNpcHp, lpMsg->iNpcMaxHp);
; 4067 : 		if ( bRET == TRUE )
; 4068 : 		{
; 4069 : 			if ( gObjIsConnected(lpMsg->iIndex ) )
; 4070 : 			{
; 4071 : 				gObj[lpMsg->iIndex].Money -= lpMsg->iRepairCost;
; 4072 : 				if ( gObj[lpMsg->iIndex].Money < 0 )
; 4073 : 					gObj[lpMsg->iIndex].Money = 0;
; 4074 : 					
; 4075 : 				GCMoneySend(lpMsg->iIndex, gObj[lpMsg->iIndex].Money);
; 4076 : 			}
; 4077 : 
; 4078 : 			LogAdd(LOG_BLACK, "[CastleSiege] GS_DGAnsCastleNpcRepair() - CCastleSiege::RepairDbNPC() OK - Npc:(CLS:%d, IDX:%d)",
; 4079 : 				lpMsg->iNpcNumber, lpMsg->iNpcIndex);
; 4080 : 		}
; 4081 : 		else
; 4082 : 		{
; 4083 : 			LogAdd(LOG_BLACK, "[CastleSiege] GS_DGAnsCastleNpcRepair() - CCastleSiege::RepairDbNPC() FAILED - Npc:(CLS:%d, IDX:%d)",
; 4084 : 				lpMsg->iNpcNumber, lpMsg->iNpcIndex);
; 4085 : 		}
; 4086 : 	}
; 4087 : 	else
; 4088 : 	{
; 4089 : 		LogAdd(LOG_BLACK, "[CastleSiege] GS_DGAnsCastleNpcRepair() FAILED - Result:(%d), Npc:(CLS:%d, IDX:%d)",
; 4090 : 			lpMsg->iResult, lpMsg->iNpcNumber, lpMsg->iNpcIndex);
; 4091 : 	}
; 4092 : 
; 4093 : 	GCAnsNpcRepair(lpMsg->iIndex, lpMsg->iResult, lpMsg->iNpcNumber, lpMsg->iNpcIndex, lpMsg->iNpcHp, lpMsg->iNpcMaxHp);
; 4094 : #endif
; 4095 : }

  00000	c3		 ret	 0
?GS_DGAnsCastleNpcRepair@@YAXPAE@Z ENDP			; GS_DGAnsCastleNpcRepair
_TEXT	ENDS
PUBLIC	?GS_DGAnsCastleNpcUpgrade@@YAXPAE@Z		; GS_DGAnsCastleNpcUpgrade
; Function compile flags: /Ogtp
;	COMDAT ?GS_DGAnsCastleNpcUpgrade@@YAXPAE@Z
_TEXT	SEGMENT
_lpRecv$ = 8						; size = 4
?GS_DGAnsCastleNpcUpgrade@@YAXPAE@Z PROC		; GS_DGAnsCastleNpcUpgrade, COMDAT

; 4113 : #if ( GS_CASTLE == 1 )
; 4114 : 	CSP_ANS_NPCUPGRADE * lpMsg = (CSP_ANS_NPCUPGRADE * )lpRecv;
; 4115 : 	if ( lpMsg == NULL )
; 4116 : 		return;
; 4117 : 
; 4118 : 	if ( lpMsg->wMapSvrNum != g_MapServerManager.GetMapSvrGroup() )
; 4119 : 	{
; 4120 : 		LogAdd(LOG_RED,  "[CastleSiege] PACKET-ERROR [0x80][0x05] GS_DGAnsCastleNpcUpgrade() - lpMsg->wMapSvrNum != g_MapServerManager.GetMapSvrGroup()");
; 4121 : 		return;
; 4122 : 	}
; 4123 : 
; 4124 : 	if ( lpMsg->iResult == 0 )
; 4125 : 	{
; 4126 : 		LogAdd(LOG_RED,  "[CastleSiege] ERROR - Castle NPC Upgrade Fail() (CLS:%d, IDX:%d, UPTYPE:%d, UPVAL:%d)",
; 4127 : 			lpMsg->iNpcNumber, lpMsg->iNpcIndex, lpMsg->iNpcUpType, lpMsg->iNpcUpValue);
; 4128 : 	}
; 4129 : 	else
; 4130 : 	{
; 4131 : 		g_CastleSiege.UpgradeDbNPC(lpMsg->iIndex, lpMsg->iNpcNumber, lpMsg->iNpcIndex, lpMsg->iNpcUpType,lpMsg->iNpcUpValue, lpMsg->iNpcUpIndex);
; 4132 : 		LogAdd(LOG_BLACK, "[CastleSiege] [0x80][0x06] GS_DGAnsTaxInfo() - Npc Upgrade OK (CLS:%d, IDX:%d, UPTYPE:%d, UPVAL:%d)",
; 4133 : 			lpMsg->iNpcNumber, lpMsg->iNpcIndex, lpMsg->iNpcUpType, lpMsg->iNpcUpValue);
; 4134 : 	}
; 4135 : 
; 4136 : 	GCAnsNpcUpgrade(lpMsg->iIndex, lpMsg->iResult, lpMsg->iNpcNumber, lpMsg->iNpcIndex, lpMsg->iNpcUpType, lpMsg->iNpcUpValue);
; 4137 : #endif
; 4138 : }

  00000	c3		 ret	 0
?GS_DGAnsCastleNpcUpgrade@@YAXPAE@Z ENDP		; GS_DGAnsCastleNpcUpgrade
_TEXT	ENDS
PUBLIC	?GS_DGAnsTaxInfo@@YAXPAE@Z			; GS_DGAnsTaxInfo
; Function compile flags: /Ogtp
;	COMDAT ?GS_DGAnsTaxInfo@@YAXPAE@Z
_TEXT	SEGMENT
_lpRecv$ = 8						; size = 4
?GS_DGAnsTaxInfo@@YAXPAE@Z PROC				; GS_DGAnsTaxInfo, COMDAT

; 4154 : #if ( GS_CASTLE == 1 )
; 4155 : 	CSP_ANS_TAXINFO * lpMsg = (CSP_ANS_TAXINFO * )lpRecv;
; 4156 : 	if ( lpMsg == NULL )
; 4157 : 		return;
; 4158 : 
; 4159 : 	if ( lpMsg->wMapSvrNum != g_MapServerManager.GetMapSvrGroup() )
; 4160 : 	{
; 4161 : 		LogAdd(LOG_RED,  "[CastleSiege] PACKET-ERROR [0x80][0x06] GS_DGAnsTaxInfo() - lpMsg->wMapSvrNum != g_MapServerManager.GetMapSvrGroup()");
; 4162 : 		return;
; 4163 : 	}
; 4164 : 
; 4165 : 	if ( lpMsg->iResult == 1 )
; 4166 : 	{
; 4167 : 		GCAnsTaxMoneyInfo(lpMsg->iIndex, lpMsg->iResult, lpMsg->iTaxRateChaos, lpMsg->iTaxRateStore, lpMsg->i64CastleMoney);
; 4168 : 		g_CastleSiege.SetCastleMoney(lpMsg->i64CastleMoney);
; 4169 : 	}
; 4170 : #endif
; 4171 : }

  00000	c3		 ret	 0
?GS_DGAnsTaxInfo@@YAXPAE@Z ENDP				; GS_DGAnsTaxInfo
_TEXT	ENDS
PUBLIC	?GS_DGAnsTaxRateChange@@YAXPAE@Z		; GS_DGAnsTaxRateChange
; Function compile flags: /Ogtp
;	COMDAT ?GS_DGAnsTaxRateChange@@YAXPAE@Z
_TEXT	SEGMENT
_lpRecv$ = 8						; size = 4
?GS_DGAnsTaxRateChange@@YAXPAE@Z PROC			; GS_DGAnsTaxRateChange, COMDAT

; 4185 : #if ( GS_CASTLE == 1 )
; 4186 : 	CSP_ANS_TAXRATECHANGE * lpMsg = (CSP_ANS_TAXRATECHANGE * )lpRecv;
; 4187 : 	if ( lpMsg == NULL )
; 4188 : 		return;
; 4189 : 
; 4190 : 	if ( lpMsg->wMapSvrNum != g_MapServerManager.GetMapSvrGroup() )
; 4191 : 	{
; 4192 : 		LogAdd(LOG_RED,  "[CastleSiege] PACKET-ERROR [0x80][0x07] GS_DGAnsTaxRateChange() - lpMsg->wMapSvrNum != g_MapServerManager.GetMapSvrGroup()");
; 4193 : 		return;
; 4194 : 	}
; 4195 : 
; 4196 : 	if ( lpMsg->iResult == 1 )
; 4197 : 	{
; 4198 : 		g_CastleSiege.SetTaxRate(lpMsg->iTaxKind, lpMsg->iTaxRate);
; 4199 : 		GCAnsTaxRateChange(lpMsg->iIndex, lpMsg->iResult, lpMsg->iTaxKind, lpMsg->iTaxRate);
; 4200 : 	}
; 4201 : #endif
; 4202 : }

  00000	c3		 ret	 0
?GS_DGAnsTaxRateChange@@YAXPAE@Z ENDP			; GS_DGAnsTaxRateChange
_TEXT	ENDS
PUBLIC	?GS_DGAnsCastleMoneyChange@@YAXPAE@Z		; GS_DGAnsCastleMoneyChange
; Function compile flags: /Ogtp
;	COMDAT ?GS_DGAnsCastleMoneyChange@@YAXPAE@Z
_TEXT	SEGMENT
_lpRecv$ = 8						; size = 4
?GS_DGAnsCastleMoneyChange@@YAXPAE@Z PROC		; GS_DGAnsCastleMoneyChange, COMDAT

; 4217 : #if ( GS_CASTLE == 1 )
; 4218 : 	CSP_ANS_MONEYCHANGE * lpMsg = (CSP_ANS_MONEYCHANGE * )lpRecv;
; 4219 : 	if ( lpMsg == NULL )
; 4220 : 		return;
; 4221 : 
; 4222 : 	if ( lpMsg->wMapSvrNum != g_MapServerManager.GetMapSvrGroup() )
; 4223 : 	{
; 4224 : 		LogAdd(LOG_RED,  "[CastleSiege] PACKET-ERROR [0x80][0x08] GS_DGAnsCastleMoneyChange() - lpMsg->wMapSvrNum != g_MapServerManager.GetMapSvrGroup()");
; 4225 : 		return;
; 4226 : 	}
; 4227 : 
; 4228 : 	if ( lpMsg->iResult == 1 )
; 4229 : 	{
; 4230 : 		if ( gObjIsConnected(lpMsg->iIndex) )
; 4231 : 		{
; 4232 : 			if ( lpMsg->iMoneyChanged < 0 )
; 4233 : 			{
; 4234 : 				gObj[lpMsg->iIndex].Money -= lpMsg->iMoneyChanged;	// #error ???
; 4235 : 				if ( gObj[lpMsg->iIndex].Money > MAX_ZEN )
; 4236 : 					gObj[lpMsg->iIndex].Money = MAX_ZEN;
; 4237 : 
; 4238 : 				GCMoneySend(lpMsg->iIndex, gObj[lpMsg->iIndex].Money);
; 4239 : 
; 4240 : 				LogAdd(LOG_BLACK, "[CastleSiege] [0x80][0x08] GS_DGAnsCastleMoneyChange() - Withdraw Request OK [%s][%s] (ReqMoney:%d, TotMoney:%I64d)",
; 4241 : 					gObj[lpMsg->iIndex].AccountID, gObj[lpMsg->iIndex].Name, lpMsg->iMoneyChanged, lpMsg->i64CastleMoney);
; 4242 : 			}
; 4243 : 		}
; 4244 : 
; 4245 : 		g_CastleSiege.SetCastleMoney(lpMsg->i64CastleMoney);
; 4246 : 	}
; 4247 : 	GCAnsMoneyDrawOut(lpMsg->iIndex, lpMsg->iResult, lpMsg->i64CastleMoney);
; 4248 : #endif
; 4249 : }

  00000	c3		 ret	 0
?GS_DGAnsCastleMoneyChange@@YAXPAE@Z ENDP		; GS_DGAnsCastleMoneyChange
_TEXT	ENDS
PUBLIC	?GS_DGAnsSiegeDateChange@@YAXPAE@Z		; GS_DGAnsSiegeDateChange
; Function compile flags: /Ogtp
;	COMDAT ?GS_DGAnsSiegeDateChange@@YAXPAE@Z
_TEXT	SEGMENT
_lpRecv$ = 8						; size = 4
?GS_DGAnsSiegeDateChange@@YAXPAE@Z PROC			; GS_DGAnsSiegeDateChange, COMDAT

; 4266 : #if ( GS_CASTLE == 1 )
; 4267 : 	CSP_ANS_SDEDCHANGE * lpMsg = (CSP_ANS_SDEDCHANGE * )lpRecv;
; 4268 : 	if ( lpMsg == NULL )
; 4269 : 		return;
; 4270 : 
; 4271 : 	if ( lpMsg->wMapSvrNum != g_MapServerManager.GetMapSvrGroup() )
; 4272 : 	{
; 4273 : 		LogAdd(LOG_RED,  "[CastleSiege] PACKET-ERROR [0x80][0x09] GS_DGAnsSiegeDateChange() - lpMsg->wMapSvrNum != g_MapServerManager.GetMapSvrGroup()");
; 4274 : 		return;
; 4275 : 	}
; 4276 : 
; 4277 : #endif
; 4278 : }

  00000	c3		 ret	 0
?GS_DGAnsSiegeDateChange@@YAXPAE@Z ENDP			; GS_DGAnsSiegeDateChange
_TEXT	ENDS
PUBLIC	?GS_DGAnsGuildMarkRegInfo@@YAXPAE@Z		; GS_DGAnsGuildMarkRegInfo
; Function compile flags: /Ogtp
;	COMDAT ?GS_DGAnsGuildMarkRegInfo@@YAXPAE@Z
_TEXT	SEGMENT
_lpRecv$ = 8						; size = 4
