; Listing generated by Microsoft (R) Optimizing Compiler Version 16.00.30319.01 

	TITLE	C:\Users\faelhs\mu-1.1\eMu - GameServer Sapphire S0\GameServer\DSProtocol.cpp
	.686P
	.XMM
	include listing.inc
	.model	flat

INCLUDELIB LIBCMT
INCLUDELIB OLDNAMES

_DATA	SEGMENT
_g_sttBLOODCASTLE_LEVEL DD 0fH
	DD	050H
	DD	0aH
	DD	03cH
	DD	051H
	DD	082H
	DD	03dH
	DD	06eH
	DD	083H
	DD	0b4H
	DD	06fH
	DD	0a0H
	DD	0b5H
	DD	0e6H
	DD	0a1H
	DD	0d2H
	DD	0e7H
	DD	0118H
	DD	0d3H
	DD	0104H
	DD	0119H
	DD	014aH
	DD	0105H
	DD	0136H
	DD	014bH
	DD	0190H
	DD	0137H
	DD	0190H
_DATA	ENDS
PUBLIC	?GetMapSvrGroup@CMapServerManager@@QAEHXZ	; CMapServerManager::GetMapSvrGroup
; Function compile flags: /Ogtp
; File c:\users\faelhs\mu-1.1\emu - gameserver sapphire s0\gameserver\mapservermanager.h
;	COMDAT ?GetMapSvrGroup@CMapServerManager@@QAEHXZ
_TEXT	SEGMENT
?GetMapSvrGroup@CMapServerManager@@QAEHXZ PROC		; CMapServerManager::GetMapSvrGroup, COMDAT
; _this$ = ecx

; 50   : 		if ( this->m_lpThisMapSvrData != NULL )

  00000	8b 81 80 af 00
	00		 mov	 eax, DWORD PTR [ecx+44928]
  00006	85 c0		 test	 eax, eax
  00008	74 05		 je	 SHORT $LN1@GetMapSvrG

; 51   : 		{
; 52   : 			return m_lpThisMapSvrData->m_btMAPSVR_GROUP;

  0000a	0f b6 40 08	 movzx	 eax, BYTE PTR [eax+8]

; 55   : 	}

  0000e	c3		 ret	 0
$LN1@GetMapSvrG:

; 53   : 		}
; 54   : 		return -1;

  0000f	83 c8 ff	 or	 eax, -1

; 55   : 	}

  00012	c3		 ret	 0
?GetMapSvrGroup@CMapServerManager@@QAEHXZ ENDP		; CMapServerManager::GetMapSvrGroup
_TEXT	ENDS
PUBLIC	?SetCastleState@CCastleSiegeSync@@QAEXH@Z	; CCastleSiegeSync::SetCastleState
; Function compile flags: /Ogtp
; File c:\users\faelhs\mu-1.1\emu - gameserver sapphire s0\gameserver\castlesiegesync.h
;	COMDAT ?SetCastleState@CCastleSiegeSync@@QAEXH@Z
_TEXT	SEGMENT
_iCastleState$ = 8					; size = 4
?SetCastleState@CCastleSiegeSync@@QAEXH@Z PROC		; CCastleSiegeSync::SetCastleState, COMDAT
; _this$ = ecx

; 30   : 	void SetCastleState(int iCastleState){this->m_iCurCastleState = iCastleState;};	// line : 56

  00000	55		 push	 ebp
  00001	8b ec		 mov	 ebp, esp
  00003	8b 45 08	 mov	 eax, DWORD PTR _iCastleState$[ebp]
  00006	89 41 04	 mov	 DWORD PTR [ecx+4], eax
  00009	5d		 pop	 ebp
  0000a	c2 04 00	 ret	 4
?SetCastleState@CCastleSiegeSync@@QAEXH@Z ENDP		; CCastleSiegeSync::SetCastleState
_TEXT	ENDS
PUBLIC	?SetTaxRateChaos@CCastleSiegeSync@@QAEXH@Z	; CCastleSiegeSync::SetTaxRateChaos
; Function compile flags: /Ogtp
;	COMDAT ?SetTaxRateChaos@CCastleSiegeSync@@QAEXH@Z
_TEXT	SEGMENT
_iTaxRate$ = 8						; size = 4
?SetTaxRateChaos@CCastleSiegeSync@@QAEXH@Z PROC		; CCastleSiegeSync::SetTaxRateChaos, COMDAT
; _this$ = ecx

; 31   : 	void SetTaxRateChaos(int iTaxRate){this->m_iCurTaxRateChaos = iTaxRate;};	// line : 59

  00000	55		 push	 ebp
  00001	8b ec		 mov	 ebp, esp
  00003	8b 45 08	 mov	 eax, DWORD PTR _iTaxRate$[ebp]
  00006	89 41 08	 mov	 DWORD PTR [ecx+8], eax
  00009	5d		 pop	 ebp
  0000a	c2 04 00	 ret	 4
?SetTaxRateChaos@CCastleSiegeSync@@QAEXH@Z ENDP		; CCastleSiegeSync::SetTaxRateChaos
_TEXT	ENDS
PUBLIC	?SetTaxRateStore@CCastleSiegeSync@@QAEXH@Z	; CCastleSiegeSync::SetTaxRateStore
; Function compile flags: /Ogtp
;	COMDAT ?SetTaxRateStore@CCastleSiegeSync@@QAEXH@Z
_TEXT	SEGMENT
_iTaxRate$ = 8						; size = 4
?SetTaxRateStore@CCastleSiegeSync@@QAEXH@Z PROC		; CCastleSiegeSync::SetTaxRateStore, COMDAT
; _this$ = ecx

; 32   : 	void SetTaxRateStore(int iTaxRate){this->m_iCurTaxRateStore = iTaxRate;};	// line : 62

  00000	55		 push	 ebp
  00001	8b ec		 mov	 ebp, esp
  00003	8b 45 08	 mov	 eax, DWORD PTR _iTaxRate$[ebp]
  00006	89 41 0c	 mov	 DWORD PTR [ecx+12], eax
  00009	5d		 pop	 ebp
  0000a	c2 04 00	 ret	 4
?SetTaxRateStore@CCastleSiegeSync@@QAEXH@Z ENDP		; CCastleSiegeSync::SetTaxRateStore
_TEXT	ENDS
PUBLIC	?SetTaxHuntZone@CCastleSiegeSync@@QAEXH@Z	; CCastleSiegeSync::SetTaxHuntZone
; Function compile flags: /Ogtp
;	COMDAT ?SetTaxHuntZone@CCastleSiegeSync@@QAEXH@Z
_TEXT	SEGMENT
_iTaxRate$ = 8						; size = 4
?SetTaxHuntZone@CCastleSiegeSync@@QAEXH@Z PROC		; CCastleSiegeSync::SetTaxHuntZone, COMDAT
; _this$ = ecx

; 33   : 	void SetTaxHuntZone(int iTaxRate){this->m_iCurTaxHuntZone = iTaxRate;};	// line : 65

  00000	55		 push	 ebp
  00001	8b ec		 mov	 ebp, esp
  00003	8b 45 08	 mov	 eax, DWORD PTR _iTaxRate$[ebp]
  00006	89 41 10	 mov	 DWORD PTR [ecx+16], eax
  00009	5d		 pop	 ebp
  0000a	c2 04 00	 ret	 4
?SetTaxHuntZone@CCastleSiegeSync@@QAEXH@Z ENDP		; CCastleSiegeSync::SetTaxHuntZone
_TEXT	ENDS
PUBLIC	?GetTributeMoney@CCastleSiegeSync@@QAEHXZ	; CCastleSiegeSync::GetTributeMoney
; Function compile flags: /Ogtp
;	COMDAT ?GetTributeMoney@CCastleSiegeSync@@QAEHXZ
_TEXT	SEGMENT
?GetTributeMoney@CCastleSiegeSync@@QAEHXZ PROC		; CCastleSiegeSync::GetTributeMoney, COMDAT
; _this$ = ecx

; 35   : 	int GetTributeMoney(){return this->m_lCastleTributeMoney;};	// line : 77

  00000	8b 41 14	 mov	 eax, DWORD PTR [ecx+20]
  00003	c3		 ret	 0
?GetTributeMoney@CCastleSiegeSync@@QAEHXZ ENDP		; CCastleSiegeSync::GetTributeMoney
_TEXT	ENDS
PUBLIC	?_ARGB@@YAKEEEE@Z				; _ARGB
; Function compile flags: /Ogtp
; File c:\users\faelhs\mu-1.1\emu - gameserver sapphire s0\gameserver\tnotice.h
;	COMDAT ?_ARGB@@YAKEEEE@Z
_TEXT	SEGMENT
_a$ = 8							; size = 1
_r$ = 12						; size = 1
_g$ = 16						; size = 1
_b$ = 20						; size = 1
?_ARGB@@YAKEEEE@Z PROC					; _ARGB, COMDAT

; 8    : __inline DWORD _ARGB(BYTE a, BYTE r, BYTE g, BYTE b){ return a*16777216 + b*65536 + g*256 + r;}; // in tnotice.h : line 8

  00000	55		 push	 ebp
  00001	8b ec		 mov	 ebp, esp
  00003	0f b6 45 08	 movzx	 eax, BYTE PTR _a$[ebp]
  00007	0f b6 4d 14	 movzx	 ecx, BYTE PTR _b$[ebp]
  0000b	0f b6 55 10	 movzx	 edx, BYTE PTR _g$[ebp]
  0000f	c1 e0 08	 shl	 eax, 8
  00012	03 c1		 add	 eax, ecx
  00014	0f b6 4d 0c	 movzx	 ecx, BYTE PTR _r$[ebp]
  00018	c1 e0 08	 shl	 eax, 8
  0001b	03 c2		 add	 eax, edx
  0001d	c1 e0 08	 shl	 eax, 8
  00020	03 c1		 add	 eax, ecx
  00022	5d		 pop	 ebp
  00023	c3		 ret	 0
?_ARGB@@YAKEEEE@Z ENDP					; _ARGB
_TEXT	ENDS
PUBLIC	??_C@_0P@GMPEKMII@Test?5Data?5Send?$AA@		; `string'
PUBLIC	??_C@_02DKCKIIND@?$CFs?$AA@			; `string'
PUBLIC	??_C@_02DPKJAMEF@?$CFd?$AA@			; `string'
PUBLIC	__$ArrayPad$
PUBLIC	?TestDSSend@@YAXXZ				; TestDSSend
EXTRN	?Send@DBSockMng@@QAEHPADH@Z:PROC		; DBSockMng::Send
EXTRN	?cDBSMng@@3VDBSockMng@@A:BYTE			; cDBSMng
EXTRN	?LogAdd@@YAXW4eLogColor@@PADZZ:PROC		; LogAdd
EXTRN	__imp__wsprintfA:PROC
EXTRN	?iCount@@3HA:DWORD				; iCount
EXTRN	___security_cookie:DWORD
EXTRN	@__security_check_cookie@4:PROC
;	COMDAT ??_C@_0P@GMPEKMII@Test?5Data?5Send?$AA@
; File c:\users\faelhs\mu-1.1\emu - gameserver sapphire s0\gameserver\dsprotocol.cpp
CONST	SEGMENT
??_C@_0P@GMPEKMII@Test?5Data?5Send?$AA@ DB 'Test Data Send', 00H ; `string'
CONST	ENDS
;	COMDAT ??_C@_02DKCKIIND@?$CFs?$AA@
CONST	SEGMENT
??_C@_02DKCKIIND@?$CFs?$AA@ DB '%s', 00H		; `string'
CONST	ENDS
;	COMDAT ??_C@_02DPKJAMEF@?$CFd?$AA@
CONST	SEGMENT
??_C@_02DPKJAMEF@?$CFd?$AA@ DB '%d', 00H		; `string'
; Function compile flags: /Ogtp
CONST	ENDS
;	COMDAT ?TestDSSend@@YAXXZ
_TEXT	SEGMENT
_pMsg$ = -2008						; size = 2004
__$ArrayPad$ = -4					; size = 4
?TestDSSend@@YAXXZ PROC					; TestDSSend, COMDAT

; 237  : {

  00000	55		 push	 ebp
  00001	8b ec		 mov	 ebp, esp
  00003	81 ec d8 07 00
	00		 sub	 esp, 2008		; 000007d8H
  00009	a1 00 00 00 00	 mov	 eax, DWORD PTR ___security_cookie
  0000e	33 c5		 xor	 eax, ebp
  00010	89 45 fc	 mov	 DWORD PTR __$ArrayPad$[ebp], eax

; 238  : 	PMSG_TEST pMsg;
; 239  : 	int size;
; 240  : 
; 241  : 	size = sizeof(PMSG_TEST);
; 242  : 	pMsg.h.c=0xC2;
; 243  : 	pMsg.h.headcode =0xFF;
; 244  : 	pMsg.h.sizeH = SET_NUMBERH(size);
; 245  : 	pMsg.h.sizeL = SET_NUMBERL(size);
; 246  : 
; 247  : 	wsprintf(pMsg.testbuf, "%d", iCount);

  00013	a1 00 00 00 00	 mov	 eax, DWORD PTR ?iCount@@3HA ; iCount
  00018	56		 push	 esi
  00019	8b 35 00 00 00
	00		 mov	 esi, DWORD PTR __imp__wsprintfA
  0001f	50		 push	 eax
  00020	8d 8d 2c f8 ff
	ff		 lea	 ecx, DWORD PTR _pMsg$[ebp+4]
  00026	68 00 00 00 00	 push	 OFFSET ??_C@_02DPKJAMEF@?$CFd?$AA@
  0002b	51		 push	 ecx
  0002c	c7 85 28 f8 ff
	ff c2 07 d4 ff	 mov	 DWORD PTR _pMsg$[ebp], -2881598 ; ffd407c2H
  00036	ff d6		 call	 esi

; 248  : 	LogAdd(LOG_BLACK, "%s", pMsg.testbuf );

  00038	8d 95 2c f8 ff
	ff		 lea	 edx, DWORD PTR _pMsg$[ebp+4]
  0003e	52		 push	 edx
  0003f	68 00 00 00 00	 push	 OFFSET ??_C@_02DKCKIIND@?$CFs?$AA@
  00044	6a 00		 push	 0
  00046	e8 00 00 00 00	 call	 ?LogAdd@@YAXW4eLogColor@@PADZZ ; LogAdd
  0004b	83 c4 18	 add	 esp, 24			; 00000018H

; 249  : 	cDBSMng.Send((char *)&pMsg, size);

  0004e	68 d4 07 00 00	 push	 2004			; 000007d4H
  00053	8d 85 28 f8 ff
	ff		 lea	 eax, DWORD PTR _pMsg$[ebp]
  00059	50		 push	 eax
  0005a	b9 00 00 00 00	 mov	 ecx, OFFSET ?cDBSMng@@3VDBSockMng@@A ; cDBSMng
  0005f	e8 00 00 00 00	 call	 ?Send@DBSockMng@@QAEHPADH@Z ; DBSockMng::Send

; 250  : 	iCount++;

  00064	a1 00 00 00 00	 mov	 eax, DWORD PTR ?iCount@@3HA ; iCount
  00069	40		 inc	 eax

; 251  : 
; 252  : 	wsprintf(pMsg.testbuf, "%d", iCount);

  0006a	50		 push	 eax
  0006b	8d 8d 2c f8 ff
	ff		 lea	 ecx, DWORD PTR _pMsg$[ebp+4]
  00071	68 00 00 00 00	 push	 OFFSET ??_C@_02DPKJAMEF@?$CFd?$AA@
  00076	51		 push	 ecx
  00077	a3 00 00 00 00	 mov	 DWORD PTR ?iCount@@3HA, eax ; iCount
  0007c	ff d6		 call	 esi

; 253  : 	LogAdd(LOG_BLACK, "%s", pMsg.testbuf);

  0007e	8d 95 2c f8 ff
	ff		 lea	 edx, DWORD PTR _pMsg$[ebp+4]
  00084	52		 push	 edx
  00085	68 00 00 00 00	 push	 OFFSET ??_C@_02DKCKIIND@?$CFs?$AA@
  0008a	6a 00		 push	 0
  0008c	e8 00 00 00 00	 call	 ?LogAdd@@YAXW4eLogColor@@PADZZ ; LogAdd
  00091	83 c4 18	 add	 esp, 24			; 00000018H

; 254  : 	cDBSMng.Send((char *)&pMsg, size);

  00094	68 d4 07 00 00	 push	 2004			; 000007d4H
  00099	8d 85 28 f8 ff
	ff		 lea	 eax, DWORD PTR _pMsg$[ebp]
  0009f	50		 push	 eax
  000a0	b9 00 00 00 00	 mov	 ecx, OFFSET ?cDBSMng@@3VDBSockMng@@A ; cDBSMng
  000a5	e8 00 00 00 00	 call	 ?Send@DBSockMng@@QAEHPADH@Z ; DBSockMng::Send

; 255  : 	iCount++;

  000aa	a1 00 00 00 00	 mov	 eax, DWORD PTR ?iCount@@3HA ; iCount
  000af	40		 inc	 eax

; 256  : 
; 257  : 	wsprintf(pMsg.testbuf, "%d", iCount);

  000b0	50		 push	 eax
  000b1	8d 8d 2c f8 ff
	ff		 lea	 ecx, DWORD PTR _pMsg$[ebp+4]
  000b7	68 00 00 00 00	 push	 OFFSET ??_C@_02DPKJAMEF@?$CFd?$AA@
  000bc	51		 push	 ecx
  000bd	a3 00 00 00 00	 mov	 DWORD PTR ?iCount@@3HA, eax ; iCount
  000c2	ff d6		 call	 esi

; 258  : 	LogAdd(LOG_BLACK, "%s", pMsg.testbuf);

  000c4	8d 95 2c f8 ff
	ff		 lea	 edx, DWORD PTR _pMsg$[ebp+4]
  000ca	52		 push	 edx
  000cb	68 00 00 00 00	 push	 OFFSET ??_C@_02DKCKIIND@?$CFs?$AA@
  000d0	6a 00		 push	 0
  000d2	e8 00 00 00 00	 call	 ?LogAdd@@YAXW4eLogColor@@PADZZ ; LogAdd
  000d7	83 c4 18	 add	 esp, 24			; 00000018H

; 259  : 	cDBSMng.Send((char *)&pMsg, size);

  000da	68 d4 07 00 00	 push	 2004			; 000007d4H
  000df	8d 85 28 f8 ff
	ff		 lea	 eax, DWORD PTR _pMsg$[ebp]
  000e5	50		 push	 eax
  000e6	b9 00 00 00 00	 mov	 ecx, OFFSET ?cDBSMng@@3VDBSockMng@@A ; cDBSMng
  000eb	e8 00 00 00 00	 call	 ?Send@DBSockMng@@QAEHPADH@Z ; DBSockMng::Send

; 260  : 	iCount++;

  000f0	a1 00 00 00 00	 mov	 eax, DWORD PTR ?iCount@@3HA ; iCount
  000f5	40		 inc	 eax

; 261  : 
; 262  : 	wsprintf(pMsg.testbuf, "%d", iCount);

  000f6	50		 push	 eax
  000f7	8d 8d 2c f8 ff
	ff		 lea	 ecx, DWORD PTR _pMsg$[ebp+4]
  000fd	68 00 00 00 00	 push	 OFFSET ??_C@_02DPKJAMEF@?$CFd?$AA@
  00102	51		 push	 ecx
  00103	a3 00 00 00 00	 mov	 DWORD PTR ?iCount@@3HA, eax ; iCount
  00108	ff d6		 call	 esi

; 263  : 	LogAdd(LOG_BLACK, "%s", pMsg.testbuf);

  0010a	8d 95 2c f8 ff
	ff		 lea	 edx, DWORD PTR _pMsg$[ebp+4]
  00110	52		 push	 edx
  00111	68 00 00 00 00	 push	 OFFSET ??_C@_02DKCKIIND@?$CFs?$AA@
  00116	6a 00		 push	 0
  00118	e8 00 00 00 00	 call	 ?LogAdd@@YAXW4eLogColor@@PADZZ ; LogAdd
  0011d	83 c4 18	 add	 esp, 24			; 00000018H

; 264  : 	cDBSMng.Send((char *)&pMsg, size);

  00120	68 d4 07 00 00	 push	 2004			; 000007d4H
  00125	8d 85 28 f8 ff
	ff		 lea	 eax, DWORD PTR _pMsg$[ebp]
  0012b	50		 push	 eax
  0012c	b9 00 00 00 00	 mov	 ecx, OFFSET ?cDBSMng@@3VDBSockMng@@A ; cDBSMng
  00131	e8 00 00 00 00	 call	 ?Send@DBSockMng@@QAEHPADH@Z ; DBSockMng::Send

; 265  : 	iCount++;

  00136	a1 00 00 00 00	 mov	 eax, DWORD PTR ?iCount@@3HA ; iCount
  0013b	40		 inc	 eax
  0013c	a3 00 00 00 00	 mov	 DWORD PTR ?iCount@@3HA, eax ; iCount

; 266  : 
; 267  : 	wsprintf(pMsg.testbuf, "%d", iCount);

  00141	50		 push	 eax
  00142	8d 8d 2c f8 ff
	ff		 lea	 ecx, DWORD PTR _pMsg$[ebp+4]
  00148	68 00 00 00 00	 push	 OFFSET ??_C@_02DPKJAMEF@?$CFd?$AA@
  0014d	51		 push	 ecx
  0014e	ff d6		 call	 esi

; 268  : 	LogAdd(LOG_BLACK, "%s", pMsg.testbuf);

  00150	8d 95 2c f8 ff
	ff		 lea	 edx, DWORD PTR _pMsg$[ebp+4]
  00156	52		 push	 edx
  00157	68 00 00 00 00	 push	 OFFSET ??_C@_02DKCKIIND@?$CFs?$AA@
  0015c	6a 00		 push	 0
  0015e	e8 00 00 00 00	 call	 ?LogAdd@@YAXW4eLogColor@@PADZZ ; LogAdd
  00163	83 c4 18	 add	 esp, 24			; 00000018H

; 269  : 	cDBSMng.Send((char *)&pMsg, size);

  00166	68 d4 07 00 00	 push	 2004			; 000007d4H
  0016b	8d 85 28 f8 ff
	ff		 lea	 eax, DWORD PTR _pMsg$[ebp]
  00171	50		 push	 eax
  00172	b9 00 00 00 00	 mov	 ecx, OFFSET ?cDBSMng@@3VDBSockMng@@A ; cDBSMng
  00177	e8 00 00 00 00	 call	 ?Send@DBSockMng@@QAEHPADH@Z ; DBSockMng::Send

; 270  : 	iCount++;

  0017c	a1 00 00 00 00	 mov	 eax, DWORD PTR ?iCount@@3HA ; iCount
  00181	40		 inc	 eax

; 271  : 
; 272  : 	wsprintf(pMsg.testbuf, "%d", iCount);

  00182	50		 push	 eax
  00183	8d 8d 2c f8 ff
	ff		 lea	 ecx, DWORD PTR _pMsg$[ebp+4]
  00189	68 00 00 00 00	 push	 OFFSET ??_C@_02DPKJAMEF@?$CFd?$AA@
  0018e	51		 push	 ecx
  0018f	a3 00 00 00 00	 mov	 DWORD PTR ?iCount@@3HA, eax ; iCount
  00194	ff d6		 call	 esi

; 273  : 	LogAdd(LOG_BLACK, "%s", pMsg.testbuf);

  00196	8d 95 2c f8 ff
	ff		 lea	 edx, DWORD PTR _pMsg$[ebp+4]
  0019c	52		 push	 edx
  0019d	68 00 00 00 00	 push	 OFFSET ??_C@_02DKCKIIND@?$CFs?$AA@
  001a2	6a 00		 push	 0
  001a4	e8 00 00 00 00	 call	 ?LogAdd@@YAXW4eLogColor@@PADZZ ; LogAdd
  001a9	83 c4 18	 add	 esp, 24			; 00000018H

; 274  : 	cDBSMng.Send((char *)&pMsg, size);

  001ac	68 d4 07 00 00	 push	 2004			; 000007d4H
  001b1	8d 85 28 f8 ff
	ff		 lea	 eax, DWORD PTR _pMsg$[ebp]
  001b7	50		 push	 eax
  001b8	b9 00 00 00 00	 mov	 ecx, OFFSET ?cDBSMng@@3VDBSockMng@@A ; cDBSMng
  001bd	e8 00 00 00 00	 call	 ?Send@DBSockMng@@QAEHPADH@Z ; DBSockMng::Send

; 275  : 	iCount++;

  001c2	a1 00 00 00 00	 mov	 eax, DWORD PTR ?iCount@@3HA ; iCount
  001c7	40		 inc	 eax

; 276  : 
; 277  : 	wsprintf(pMsg.testbuf, "%d", iCount);

  001c8	50		 push	 eax
  001c9	8d 8d 2c f8 ff
	ff		 lea	 ecx, DWORD PTR _pMsg$[ebp+4]
  001cf	68 00 00 00 00	 push	 OFFSET ??_C@_02DPKJAMEF@?$CFd?$AA@
  001d4	51		 push	 ecx
  001d5	a3 00 00 00 00	 mov	 DWORD PTR ?iCount@@3HA, eax ; iCount
  001da	ff d6		 call	 esi

; 278  : 	LogAdd(LOG_BLACK, "%s", pMsg.testbuf);

  001dc	8d 95 2c f8 ff
	ff		 lea	 edx, DWORD PTR _pMsg$[ebp+4]
  001e2	52		 push	 edx
  001e3	68 00 00 00 00	 push	 OFFSET ??_C@_02DKCKIIND@?$CFs?$AA@
  001e8	6a 00		 push	 0
  001ea	e8 00 00 00 00	 call	 ?LogAdd@@YAXW4eLogColor@@PADZZ ; LogAdd
  001ef	83 c4 18	 add	 esp, 24			; 00000018H

; 279  : 	cDBSMng.Send((char *)&pMsg, size);

  001f2	68 d4 07 00 00	 push	 2004			; 000007d4H
  001f7	8d 85 28 f8 ff
	ff		 lea	 eax, DWORD PTR _pMsg$[ebp]
  001fd	50		 push	 eax
  001fe	b9 00 00 00 00	 mov	 ecx, OFFSET ?cDBSMng@@3VDBSockMng@@A ; cDBSMng
  00203	e8 00 00 00 00	 call	 ?Send@DBSockMng@@QAEHPADH@Z ; DBSockMng::Send

; 280  : 	iCount++;

  00208	a1 00 00 00 00	 mov	 eax, DWORD PTR ?iCount@@3HA ; iCount
  0020d	40		 inc	 eax

; 281  : 
; 282  : 	wsprintf(pMsg.testbuf, "%d", iCount);

  0020e	50		 push	 eax
  0020f	8d 8d 2c f8 ff
	ff		 lea	 ecx, DWORD PTR _pMsg$[ebp+4]
  00215	68 00 00 00 00	 push	 OFFSET ??_C@_02DPKJAMEF@?$CFd?$AA@
  0021a	51		 push	 ecx
  0021b	a3 00 00 00 00	 mov	 DWORD PTR ?iCount@@3HA, eax ; iCount
  00220	ff d6		 call	 esi

; 283  : 	LogAdd(LOG_BLACK, "%s", pMsg.testbuf);

  00222	8d 95 2c f8 ff
	ff		 lea	 edx, DWORD PTR _pMsg$[ebp+4]
  00228	52		 push	 edx
  00229	68 00 00 00 00	 push	 OFFSET ??_C@_02DKCKIIND@?$CFs?$AA@
  0022e	6a 00		 push	 0
  00230	e8 00 00 00 00	 call	 ?LogAdd@@YAXW4eLogColor@@PADZZ ; LogAdd
  00235	83 c4 18	 add	 esp, 24			; 00000018H

; 284  : 	cDBSMng.Send((char *)&pMsg, size);

  00238	68 d4 07 00 00	 push	 2004			; 000007d4H
  0023d	8d 85 28 f8 ff
	ff		 lea	 eax, DWORD PTR _pMsg$[ebp]
  00243	50		 push	 eax
  00244	b9 00 00 00 00	 mov	 ecx, OFFSET ?cDBSMng@@3VDBSockMng@@A ; cDBSMng
  00249	e8 00 00 00 00	 call	 ?Send@DBSockMng@@QAEHPADH@Z ; DBSockMng::Send

; 285  : 	iCount++;

  0024e	a1 00 00 00 00	 mov	 eax, DWORD PTR ?iCount@@3HA ; iCount
  00253	40		 inc	 eax

; 286  : 
; 287  : 	wsprintf(pMsg.testbuf, "%d", iCount);

  00254	50		 push	 eax
  00255	8d 8d 2c f8 ff
	ff		 lea	 ecx, DWORD PTR _pMsg$[ebp+4]
  0025b	68 00 00 00 00	 push	 OFFSET ??_C@_02DPKJAMEF@?$CFd?$AA@
  00260	51		 push	 ecx
  00261	a3 00 00 00 00	 mov	 DWORD PTR ?iCount@@3HA, eax ; iCount
  00266	ff d6		 call	 esi

; 288  : 	LogAdd(LOG_BLACK, "%s", pMsg.testbuf);

  00268	8d 95 2c f8 ff
	ff		 lea	 edx, DWORD PTR _pMsg$[ebp+4]
  0026e	52		 push	 edx
  0026f	68 00 00 00 00	 push	 OFFSET ??_C@_02DKCKIIND@?$CFs?$AA@
  00274	6a 00		 push	 0
  00276	e8 00 00 00 00	 call	 ?LogAdd@@YAXW4eLogColor@@PADZZ ; LogAdd
  0027b	83 c4 18	 add	 esp, 24			; 00000018H

; 289  : 	cDBSMng.Send((char *)&pMsg, size);

  0027e	68 d4 07 00 00	 push	 2004			; 000007d4H
  00283	8d 85 28 f8 ff
	ff		 lea	 eax, DWORD PTR _pMsg$[ebp]
  00289	50		 push	 eax
  0028a	b9 00 00 00 00	 mov	 ecx, OFFSET ?cDBSMng@@3VDBSockMng@@A ; cDBSMng
  0028f	e8 00 00 00 00	 call	 ?Send@DBSockMng@@QAEHPADH@Z ; DBSockMng::Send

; 290  : 	iCount++;

  00294	a1 00 00 00 00	 mov	 eax, DWORD PTR ?iCount@@3HA ; iCount
  00299	40		 inc	 eax

; 291  : 
; 292  : 	wsprintf(pMsg.testbuf, "%d", iCount);

  0029a	50		 push	 eax
  0029b	8d 8d 2c f8 ff
	ff		 lea	 ecx, DWORD PTR _pMsg$[ebp+4]
  002a1	68 00 00 00 00	 push	 OFFSET ??_C@_02DPKJAMEF@?$CFd?$AA@
  002a6	51		 push	 ecx
  002a7	a3 00 00 00 00	 mov	 DWORD PTR ?iCount@@3HA, eax ; iCount
  002ac	ff d6		 call	 esi

; 293  : 	LogAdd(LOG_BLACK, "%s", pMsg.testbuf);

  002ae	8d 95 2c f8 ff
	ff		 lea	 edx, DWORD PTR _pMsg$[ebp+4]
  002b4	52		 push	 edx
  002b5	68 00 00 00 00	 push	 OFFSET ??_C@_02DKCKIIND@?$CFs?$AA@
  002ba	6a 00		 push	 0
  002bc	e8 00 00 00 00	 call	 ?LogAdd@@YAXW4eLogColor@@PADZZ ; LogAdd
  002c1	83 c4 18	 add	 esp, 24			; 00000018H

; 294  : 	cDBSMng.Send((char *)&pMsg, size);

  002c4	68 d4 07 00 00	 push	 2004			; 000007d4H
  002c9	8d 85 28 f8 ff
	ff		 lea	 eax, DWORD PTR _pMsg$[ebp]
  002cf	50		 push	 eax
  002d0	b9 00 00 00 00	 mov	 ecx, OFFSET ?cDBSMng@@3VDBSockMng@@A ; cDBSMng
  002d5	e8 00 00 00 00	 call	 ?Send@DBSockMng@@QAEHPADH@Z ; DBSockMng::Send

; 295  : 	iCount++;

  002da	a1 00 00 00 00	 mov	 eax, DWORD PTR ?iCount@@3HA ; iCount
  002df	40		 inc	 eax

; 296  : 
; 297  : 	wsprintf(pMsg.testbuf, "%d", iCount);

  002e0	50		 push	 eax
  002e1	8d 8d 2c f8 ff
	ff		 lea	 ecx, DWORD PTR _pMsg$[ebp+4]
  002e7	68 00 00 00 00	 push	 OFFSET ??_C@_02DPKJAMEF@?$CFd?$AA@
  002ec	51		 push	 ecx
  002ed	a3 00 00 00 00	 mov	 DWORD PTR ?iCount@@3HA, eax ; iCount
  002f2	ff d6		 call	 esi

; 298  : 	LogAdd(LOG_BLACK, "%s", pMsg.testbuf);

  002f4	8d 95 2c f8 ff
	ff		 lea	 edx, DWORD PTR _pMsg$[ebp+4]
  002fa	52		 push	 edx
  002fb	68 00 00 00 00	 push	 OFFSET ??_C@_02DKCKIIND@?$CFs?$AA@
  00300	6a 00		 push	 0
  00302	e8 00 00 00 00	 call	 ?LogAdd@@YAXW4eLogColor@@PADZZ ; LogAdd
  00307	83 c4 18	 add	 esp, 24			; 00000018H

; 299  : 	cDBSMng.Send((char *)&pMsg, size);

  0030a	68 d4 07 00 00	 push	 2004			; 000007d4H
  0030f	8d 85 28 f8 ff
	ff		 lea	 eax, DWORD PTR _pMsg$[ebp]
  00315	50		 push	 eax
  00316	b9 00 00 00 00	 mov	 ecx, OFFSET ?cDBSMng@@3VDBSockMng@@A ; cDBSMng
  0031b	e8 00 00 00 00	 call	 ?Send@DBSockMng@@QAEHPADH@Z ; DBSockMng::Send

; 300  : 	iCount++;

  00320	a1 00 00 00 00	 mov	 eax, DWORD PTR ?iCount@@3HA ; iCount
  00325	40		 inc	 eax

; 301  : 
; 302  : 	wsprintf(pMsg.testbuf, "%d", iCount);

  00326	50		 push	 eax
  00327	8d 8d 2c f8 ff
	ff		 lea	 ecx, DWORD PTR _pMsg$[ebp+4]
  0032d	68 00 00 00 00	 push	 OFFSET ??_C@_02DPKJAMEF@?$CFd?$AA@
  00332	51		 push	 ecx
  00333	a3 00 00 00 00	 mov	 DWORD PTR ?iCount@@3HA, eax ; iCount
  00338	ff d6		 call	 esi

; 303  : 	LogAdd(LOG_BLACK, "%s", pMsg.testbuf);

  0033a	8d 95 2c f8 ff
	ff		 lea	 edx, DWORD PTR _pMsg$[ebp+4]
  00340	52		 push	 edx
  00341	68 00 00 00 00	 push	 OFFSET ??_C@_02DKCKIIND@?$CFs?$AA@
  00346	6a 00		 push	 0
  00348	e8 00 00 00 00	 call	 ?LogAdd@@YAXW4eLogColor@@PADZZ ; LogAdd
  0034d	83 c4 18	 add	 esp, 24			; 00000018H

; 304  : 	cDBSMng.Send((char *)&pMsg, size);

  00350	68 d4 07 00 00	 push	 2004			; 000007d4H
  00355	8d 85 28 f8 ff
	ff		 lea	 eax, DWORD PTR _pMsg$[ebp]
  0035b	50		 push	 eax
  0035c	b9 00 00 00 00	 mov	 ecx, OFFSET ?cDBSMng@@3VDBSockMng@@A ; cDBSMng
  00361	e8 00 00 00 00	 call	 ?Send@DBSockMng@@QAEHPADH@Z ; DBSockMng::Send

; 305  : 	iCount++;

  00366	a1 00 00 00 00	 mov	 eax, DWORD PTR ?iCount@@3HA ; iCount
  0036b	40		 inc	 eax

; 306  : 
; 307  : 	wsprintf(pMsg.testbuf, "%d", iCount);

  0036c	50		 push	 eax
  0036d	8d 8d 2c f8 ff
	ff		 lea	 ecx, DWORD PTR _pMsg$[ebp+4]
  00373	68 00 00 00 00	 push	 OFFSET ??_C@_02DPKJAMEF@?$CFd?$AA@
  00378	51		 push	 ecx
  00379	a3 00 00 00 00	 mov	 DWORD PTR ?iCount@@3HA, eax ; iCount
  0037e	ff d6		 call	 esi

; 308  : 	LogAdd(LOG_BLACK, "%s", pMsg.testbuf);

  00380	8d 95 2c f8 ff
	ff		 lea	 edx, DWORD PTR _pMsg$[ebp+4]
  00386	52		 push	 edx
  00387	68 00 00 00 00	 push	 OFFSET ??_C@_02DKCKIIND@?$CFs?$AA@
  0038c	6a 00		 push	 0
  0038e	e8 00 00 00 00	 call	 ?LogAdd@@YAXW4eLogColor@@PADZZ ; LogAdd
  00393	83 c4 18	 add	 esp, 24			; 00000018H

; 309  : 	cDBSMng.Send((char *)&pMsg, size);

  00396	68 d4 07 00 00	 push	 2004			; 000007d4H
  0039b	8d 85 28 f8 ff
	ff		 lea	 eax, DWORD PTR _pMsg$[ebp]
  003a1	50		 push	 eax
  003a2	b9 00 00 00 00	 mov	 ecx, OFFSET ?cDBSMng@@3VDBSockMng@@A ; cDBSMng
  003a7	e8 00 00 00 00	 call	 ?Send@DBSockMng@@QAEHPADH@Z ; DBSockMng::Send

; 310  : 	iCount++;

  003ac	a1 00 00 00 00	 mov	 eax, DWORD PTR ?iCount@@3HA ; iCount
  003b1	40		 inc	 eax

; 311  : 
; 312  : 	wsprintf(pMsg.testbuf, "%d", iCount);

  003b2	50		 push	 eax
  003b3	8d 8d 2c f8 ff
	ff		 lea	 ecx, DWORD PTR _pMsg$[ebp+4]
  003b9	68 00 00 00 00	 push	 OFFSET ??_C@_02DPKJAMEF@?$CFd?$AA@
  003be	51		 push	 ecx
  003bf	a3 00 00 00 00	 mov	 DWORD PTR ?iCount@@3HA, eax ; iCount
  003c4	ff d6		 call	 esi

; 313  : 	LogAdd(LOG_BLACK, "%s", pMsg.testbuf);

  003c6	8d 95 2c f8 ff
	ff		 lea	 edx, DWORD PTR _pMsg$[ebp+4]
  003cc	52		 push	 edx
  003cd	68 00 00 00 00	 push	 OFFSET ??_C@_02DKCKIIND@?$CFs?$AA@
  003d2	6a 00		 push	 0
  003d4	e8 00 00 00 00	 call	 ?LogAdd@@YAXW4eLogColor@@PADZZ ; LogAdd
  003d9	83 c4 18	 add	 esp, 24			; 00000018H

; 314  : 	cDBSMng.Send((char *)&pMsg, size);

  003dc	68 d4 07 00 00	 push	 2004			; 000007d4H
  003e1	8d 85 28 f8 ff
	ff		 lea	 eax, DWORD PTR _pMsg$[ebp]
  003e7	50		 push	 eax
  003e8	b9 00 00 00 00	 mov	 ecx, OFFSET ?cDBSMng@@3VDBSockMng@@A ; cDBSMng
  003ed	e8 00 00 00 00	 call	 ?Send@DBSockMng@@QAEHPADH@Z ; DBSockMng::Send

; 315  : 	iCount++;

  003f2	a1 00 00 00 00	 mov	 eax, DWORD PTR ?iCount@@3HA ; iCount
  003f7	40		 inc	 eax

; 316  : 
; 317  : 	wsprintf(pMsg.testbuf, "%d", iCount);

  003f8	50		 push	 eax
  003f9	8d 8d 2c f8 ff
	ff		 lea	 ecx, DWORD PTR _pMsg$[ebp+4]
  003ff	68 00 00 00 00	 push	 OFFSET ??_C@_02DPKJAMEF@?$CFd?$AA@
  00404	51		 push	 ecx
  00405	a3 00 00 00 00	 mov	 DWORD PTR ?iCount@@3HA, eax ; iCount
  0040a	ff d6		 call	 esi

; 318  : 	LogAdd(LOG_BLACK, "%s", pMsg.testbuf);

  0040c	8d 95 2c f8 ff
	ff		 lea	 edx, DWORD PTR _pMsg$[ebp+4]
  00412	52		 push	 edx
  00413	68 00 00 00 00	 push	 OFFSET ??_C@_02DKCKIIND@?$CFs?$AA@
  00418	6a 00		 push	 0
  0041a	e8 00 00 00 00	 call	 ?LogAdd@@YAXW4eLogColor@@PADZZ ; LogAdd
  0041f	83 c4 18	 add	 esp, 24			; 00000018H

; 319  : 	cDBSMng.Send((char *)&pMsg, size);

  00422	68 d4 07 00 00	 push	 2004			; 000007d4H
  00427	8d 85 28 f8 ff
	ff		 lea	 eax, DWORD PTR _pMsg$[ebp]
  0042d	50		 push	 eax
  0042e	b9 00 00 00 00	 mov	 ecx, OFFSET ?cDBSMng@@3VDBSockMng@@A ; cDBSMng
  00433	e8 00 00 00 00	 call	 ?Send@DBSockMng@@QAEHPADH@Z ; DBSockMng::Send

; 320  : 	iCount++;

  00438	a1 00 00 00 00	 mov	 eax, DWORD PTR ?iCount@@3HA ; iCount
  0043d	40		 inc	 eax

; 321  : 
; 322  : 	wsprintf(pMsg.testbuf, "%d", iCount);

  0043e	50		 push	 eax
  0043f	8d 8d 2c f8 ff
	ff		 lea	 ecx, DWORD PTR _pMsg$[ebp+4]
  00445	68 00 00 00 00	 push	 OFFSET ??_C@_02DPKJAMEF@?$CFd?$AA@
  0044a	51		 push	 ecx
  0044b	a3 00 00 00 00	 mov	 DWORD PTR ?iCount@@3HA, eax ; iCount
  00450	ff d6		 call	 esi

; 323  : 	LogAdd(LOG_BLACK, "%s", pMsg.testbuf);

  00452	8d 95 2c f8 ff
	ff		 lea	 edx, DWORD PTR _pMsg$[ebp+4]
  00458	52		 push	 edx
  00459	68 00 00 00 00	 push	 OFFSET ??_C@_02DKCKIIND@?$CFs?$AA@
  0045e	6a 00		 push	 0
  00460	e8 00 00 00 00	 call	 ?LogAdd@@YAXW4eLogColor@@PADZZ ; LogAdd
  00465	83 c4 18	 add	 esp, 24			; 00000018H

; 324  : 	cDBSMng.Send((char *)&pMsg, size);

  00468	68 d4 07 00 00	 push	 2004			; 000007d4H
  0046d	8d 85 28 f8 ff
	ff		 lea	 eax, DWORD PTR _pMsg$[ebp]
  00473	50		 push	 eax
  00474	b9 00 00 00 00	 mov	 ecx, OFFSET ?cDBSMng@@3VDBSockMng@@A ; cDBSMng
  00479	e8 00 00 00 00	 call	 ?Send@DBSockMng@@QAEHPADH@Z ; DBSockMng::Send

; 325  : 	iCount++;

  0047e	a1 00 00 00 00	 mov	 eax, DWORD PTR ?iCount@@3HA ; iCount
  00483	40		 inc	 eax

; 326  : 
; 327  : 	wsprintf(pMsg.testbuf, "%d", iCount);

  00484	50		 push	 eax
  00485	8d 8d 2c f8 ff
	ff		 lea	 ecx, DWORD PTR _pMsg$[ebp+4]
  0048b	68 00 00 00 00	 push	 OFFSET ??_C@_02DPKJAMEF@?$CFd?$AA@
  00490	51		 push	 ecx
  00491	a3 00 00 00 00	 mov	 DWORD PTR ?iCount@@3HA, eax ; iCount
  00496	ff d6		 call	 esi

; 328  : 	LogAdd(LOG_BLACK, "%s", pMsg.testbuf);

  00498	8d 95 2c f8 ff
	ff		 lea	 edx, DWORD PTR _pMsg$[ebp+4]
  0049e	52		 push	 edx
  0049f	68 00 00 00 00	 push	 OFFSET ??_C@_02DKCKIIND@?$CFs?$AA@
  004a4	6a 00		 push	 0
  004a6	e8 00 00 00 00	 call	 ?LogAdd@@YAXW4eLogColor@@PADZZ ; LogAdd
  004ab	83 c4 18	 add	 esp, 24			; 00000018H

; 329  : 	cDBSMng.Send((char *)&pMsg, size);

  004ae	68 d4 07 00 00	 push	 2004			; 000007d4H
  004b3	8d 85 28 f8 ff
	ff		 lea	 eax, DWORD PTR _pMsg$[ebp]
  004b9	50		 push	 eax
  004ba	b9 00 00 00 00	 mov	 ecx, OFFSET ?cDBSMng@@3VDBSockMng@@A ; cDBSMng
  004bf	e8 00 00 00 00	 call	 ?Send@DBSockMng@@QAEHPADH@Z ; DBSockMng::Send

; 330  : 	iCount++;

  004c4	a1 00 00 00 00	 mov	 eax, DWORD PTR ?iCount@@3HA ; iCount
  004c9	40		 inc	 eax

; 331  : 
; 332  : 	wsprintf(pMsg.testbuf, "%d", iCount);

  004ca	50		 push	 eax
  004cb	8d 8d 2c f8 ff
	ff		 lea	 ecx, DWORD PTR _pMsg$[ebp+4]
  004d1	68 00 00 00 00	 push	 OFFSET ??_C@_02DPKJAMEF@?$CFd?$AA@
  004d6	51		 push	 ecx
  004d7	a3 00 00 00 00	 mov	 DWORD PTR ?iCount@@3HA, eax ; iCount
  004dc	ff d6		 call	 esi

; 333  : 	LogAdd(LOG_BLACK, "%s", pMsg.testbuf);

  004de	8d 95 2c f8 ff
	ff		 lea	 edx, DWORD PTR _pMsg$[ebp+4]
  004e4	52		 push	 edx
  004e5	68 00 00 00 00	 push	 OFFSET ??_C@_02DKCKIIND@?$CFs?$AA@
  004ea	6a 00		 push	 0
  004ec	e8 00 00 00 00	 call	 ?LogAdd@@YAXW4eLogColor@@PADZZ ; LogAdd
  004f1	83 c4 18	 add	 esp, 24			; 00000018H

; 334  : 	cDBSMng.Send((char *)&pMsg, size);

  004f4	68 d4 07 00 00	 push	 2004			; 000007d4H
  004f9	8d 85 28 f8 ff
	ff		 lea	 eax, DWORD PTR _pMsg$[ebp]
  004ff	50		 push	 eax
  00500	b9 00 00 00 00	 mov	 ecx, OFFSET ?cDBSMng@@3VDBSockMng@@A ; cDBSMng
  00505	e8 00 00 00 00	 call	 ?Send@DBSockMng@@QAEHPADH@Z ; DBSockMng::Send

; 335  : 	iCount++;

  0050a	a1 00 00 00 00	 mov	 eax, DWORD PTR ?iCount@@3HA ; iCount
  0050f	40		 inc	 eax

; 336  : 
; 337  : 	wsprintf(pMsg.testbuf, "%d", iCount);

  00510	50		 push	 eax
  00511	8d 8d 2c f8 ff
	ff		 lea	 ecx, DWORD PTR _pMsg$[ebp+4]
  00517	68 00 00 00 00	 push	 OFFSET ??_C@_02DPKJAMEF@?$CFd?$AA@
  0051c	51		 push	 ecx
  0051d	a3 00 00 00 00	 mov	 DWORD PTR ?iCount@@3HA, eax ; iCount
  00522	ff d6		 call	 esi

; 338  : 	LogAdd(LOG_BLACK, "%s", pMsg.testbuf);

  00524	8d 95 2c f8 ff
	ff		 lea	 edx, DWORD PTR _pMsg$[ebp+4]
  0052a	52		 push	 edx
  0052b	68 00 00 00 00	 push	 OFFSET ??_C@_02DKCKIIND@?$CFs?$AA@
  00530	6a 00		 push	 0
  00532	e8 00 00 00 00	 call	 ?LogAdd@@YAXW4eLogColor@@PADZZ ; LogAdd
  00537	83 c4 18	 add	 esp, 24			; 00000018H

; 339  : 	cDBSMng.Send((char *)&pMsg, size);

  0053a	68 d4 07 00 00	 push	 2004			; 000007d4H
  0053f	8d 85 28 f8 ff
	ff		 lea	 eax, DWORD PTR _pMsg$[ebp]
  00545	50		 push	 eax
  00546	b9 00 00 00 00	 mov	 ecx, OFFSET ?cDBSMng@@3VDBSockMng@@A ; cDBSMng
  0054b	e8 00 00 00 00	 call	 ?Send@DBSockMng@@QAEHPADH@Z ; DBSockMng::Send

; 340  : 	iCount++;

  00550	a1 00 00 00 00	 mov	 eax, DWORD PTR ?iCount@@3HA ; iCount
  00555	40		 inc	 eax

; 341  : 
; 342  : 	wsprintf(pMsg.testbuf, "%d", iCount);

  00556	50		 push	 eax
  00557	8d 8d 2c f8 ff
	ff		 lea	 ecx, DWORD PTR _pMsg$[ebp+4]
  0055d	68 00 00 00 00	 push	 OFFSET ??_C@_02DPKJAMEF@?$CFd?$AA@
  00562	51		 push	 ecx
  00563	a3 00 00 00 00	 mov	 DWORD PTR ?iCount@@3HA, eax ; iCount
  00568	ff d6		 call	 esi

; 343  : 	LogAdd(LOG_BLACK, "%s", pMsg.testbuf);

  0056a	8d 95 2c f8 ff
	ff		 lea	 edx, DWORD PTR _pMsg$[ebp+4]
  00570	52		 push	 edx
  00571	68 00 00 00 00	 push	 OFFSET ??_C@_02DKCKIIND@?$CFs?$AA@
  00576	6a 00		 push	 0
  00578	e8 00 00 00 00	 call	 ?LogAdd@@YAXW4eLogColor@@PADZZ ; LogAdd
  0057d	83 c4 18	 add	 esp, 24			; 00000018H

; 344  : 	cDBSMng.Send((char *)&pMsg, size);

  00580	68 d4 07 00 00	 push	 2004			; 000007d4H
  00585	8d 85 28 f8 ff
	ff		 lea	 eax, DWORD PTR _pMsg$[ebp]
  0058b	50		 push	 eax
  0058c	b9 00 00 00 00	 mov	 ecx, OFFSET ?cDBSMng@@3VDBSockMng@@A ; cDBSMng
  00591	e8 00 00 00 00	 call	 ?Send@DBSockMng@@QAEHPADH@Z ; DBSockMng::Send

; 345  : 	iCount++;

  00596	a1 00 00 00 00	 mov	 eax, DWORD PTR ?iCount@@3HA ; iCount
  0059b	40		 inc	 eax

; 346  : 
; 347  : 	wsprintf(pMsg.testbuf, "%d", iCount);

  0059c	50		 push	 eax
  0059d	8d 8d 2c f8 ff
	ff		 lea	 ecx, DWORD PTR _pMsg$[ebp+4]
  005a3	68 00 00 00 00	 push	 OFFSET ??_C@_02DPKJAMEF@?$CFd?$AA@
  005a8	51		 push	 ecx
  005a9	a3 00 00 00 00	 mov	 DWORD PTR ?iCount@@3HA, eax ; iCount
  005ae	ff d6		 call	 esi

; 348  : 	LogAdd(LOG_BLACK, "%s", pMsg.testbuf);

  005b0	8d 95 2c f8 ff
	ff		 lea	 edx, DWORD PTR _pMsg$[ebp+4]
  005b6	52		 push	 edx
  005b7	68 00 00 00 00	 push	 OFFSET ??_C@_02DKCKIIND@?$CFs?$AA@
  005bc	6a 00		 push	 0
  005be	e8 00 00 00 00	 call	 ?LogAdd@@YAXW4eLogColor@@PADZZ ; LogAdd
  005c3	83 c4 18	 add	 esp, 24			; 00000018H

; 349  : 	cDBSMng.Send((char *)&pMsg, size);

  005c6	68 d4 07 00 00	 push	 2004			; 000007d4H
  005cb	8d 85 28 f8 ff
	ff		 lea	 eax, DWORD PTR _pMsg$[ebp]
  005d1	50		 push	 eax
  005d2	b9 00 00 00 00	 mov	 ecx, OFFSET ?cDBSMng@@3VDBSockMng@@A ; cDBSMng
  005d7	e8 00 00 00 00	 call	 ?Send@DBSockMng@@QAEHPADH@Z ; DBSockMng::Send

; 350  : 	iCount++;

  005dc	a1 00 00 00 00	 mov	 eax, DWORD PTR ?iCount@@3HA ; iCount
  005e1	40		 inc	 eax

; 351  : 
; 352  : 	wsprintf(pMsg.testbuf, "%d", iCount);

  005e2	50		 push	 eax
  005e3	a3 00 00 00 00	 mov	 DWORD PTR ?iCount@@3HA, eax ; iCount
  005e8	68 00 00 00 00	 push	 OFFSET ??_C@_02DPKJAMEF@?$CFd?$AA@
  005ed	8d 8d 2c f8 ff
	ff		 lea	 ecx, DWORD PTR _pMsg$[ebp+4]
  005f3	51		 push	 ecx
  005f4	ff d6		 call	 esi

; 353  : 	LogAdd(LOG_BLACK, "%s", pMsg.testbuf);

  005f6	8d 95 2c f8 ff
	ff		 lea	 edx, DWORD PTR _pMsg$[ebp+4]
  005fc	52		 push	 edx
  005fd	68 00 00 00 00	 push	 OFFSET ??_C@_02DKCKIIND@?$CFs?$AA@
  00602	6a 00		 push	 0
  00604	e8 00 00 00 00	 call	 ?LogAdd@@YAXW4eLogColor@@PADZZ ; LogAdd
  00609	83 c4 18	 add	 esp, 24			; 00000018H

; 354  : 	cDBSMng.Send((char *)&pMsg, size);

  0060c	68 d4 07 00 00	 push	 2004			; 000007d4H
  00611	8d 85 28 f8 ff
	ff		 lea	 eax, DWORD PTR _pMsg$[ebp]
  00617	50		 push	 eax
  00618	b9 00 00 00 00	 mov	 ecx, OFFSET ?cDBSMng@@3VDBSockMng@@A ; cDBSMng
  0061d	e8 00 00 00 00	 call	 ?Send@DBSockMng@@QAEHPADH@Z ; DBSockMng::Send

; 355  : 	iCount++;

  00622	a1 00 00 00 00	 mov	 eax, DWORD PTR ?iCount@@3HA ; iCount
  00627	40		 inc	 eax

; 356  : 
; 357  : 	wsprintf(pMsg.testbuf, "%d", iCount);

  00628	50		 push	 eax
  00629	8d 8d 2c f8 ff
	ff		 lea	 ecx, DWORD PTR _pMsg$[ebp+4]
  0062f	68 00 00 00 00	 push	 OFFSET ??_C@_02DPKJAMEF@?$CFd?$AA@
  00634	51		 push	 ecx
  00635	a3 00 00 00 00	 mov	 DWORD PTR ?iCount@@3HA, eax ; iCount
  0063a	ff d6		 call	 esi

; 358  : 	LogAdd(LOG_BLACK, "%s", pMsg.testbuf);

  0063c	8d 95 2c f8 ff
	ff		 lea	 edx, DWORD PTR _pMsg$[ebp+4]
  00642	52		 push	 edx
  00643	68 00 00 00 00	 push	 OFFSET ??_C@_02DKCKIIND@?$CFs?$AA@
  00648	6a 00		 push	 0
  0064a	e8 00 00 00 00	 call	 ?LogAdd@@YAXW4eLogColor@@PADZZ ; LogAdd
  0064f	83 c4 18	 add	 esp, 24			; 00000018H

; 359  : 	cDBSMng.Send((char *)&pMsg, size);

  00652	68 d4 07 00 00	 push	 2004			; 000007d4H
  00657	8d 85 28 f8 ff
	ff		 lea	 eax, DWORD PTR _pMsg$[ebp]
  0065d	50		 push	 eax
  0065e	b9 00 00 00 00	 mov	 ecx, OFFSET ?cDBSMng@@3VDBSockMng@@A ; cDBSMng
  00663	e8 00 00 00 00	 call	 ?Send@DBSockMng@@QAEHPADH@Z ; DBSockMng::Send

; 360  : 	iCount++;

  00668	ff 05 00 00 00
	00		 inc	 DWORD PTR ?iCount@@3HA	; iCount

; 361  : 
; 362  : 	LogAdd(LOG_BLACK, "Test Data Send");

  0066e	68 00 00 00 00	 push	 OFFSET ??_C@_0P@GMPEKMII@Test?5Data?5Send?$AA@
  00673	6a 00		 push	 0
  00675	e8 00 00 00 00	 call	 ?LogAdd@@YAXW4eLogColor@@PADZZ ; LogAdd

; 363  : }

  0067a	8b 4d fc	 mov	 ecx, DWORD PTR __$ArrayPad$[ebp]
  0067d	83 c4 08	 add	 esp, 8
  00680	33 cd		 xor	 ecx, ebp
  00682	5e		 pop	 esi
  00683	e8 00 00 00 00	 call	 @__security_check_cookie@4
  00688	8b e5		 mov	 esp, ebp
  0068a	5d		 pop	 ebp
  0068b	c3		 ret	 0
?TestDSSend@@YAXXZ ENDP					; TestDSSend
_TEXT	ENDS
PUBLIC	__$ArrayPad$
PUBLIC	?DataServerLogin@@YAXXZ				; DataServerLogin
EXTRN	?szServerName@@3PADA:BYTE			; szServerName
EXTRN	?gGameServerCode@@3FA:WORD			; gGameServerCode
EXTRN	?GameServerPort@@3GA:WORD			; GameServerPort
; Function compile flags: /Ogtp
;	COMDAT ?DataServerLogin@@YAXXZ
_TEXT	SEGMENT
_pInfo$ = -64						; size = 58
__$ArrayPad$ = -4					; size = 4
?DataServerLogin@@YAXXZ PROC				; DataServerLogin, COMDAT

; 366  : {

  00000	55		 push	 ebp
  00001	8b ec		 mov	 ebp, esp
  00003	83 ec 40	 sub	 esp, 64			; 00000040H
  00006	a1 00 00 00 00	 mov	 eax, DWORD PTR ___security_cookie
  0000b	33 c5		 xor	 eax, ebp
  0000d	89 45 fc	 mov	 DWORD PTR __$ArrayPad$[ebp], eax

; 367  : 	SDHP_SERVERINFO pInfo;
; 368  : 
; 369  : 	pInfo.h.c =0xC1;
; 370  : 	pInfo.h.size = sizeof(SDHP_SERVERINFO);	// Size
; 371  : 	pInfo.h.headcode =0x00;
; 372  : 	pInfo.Port =(WORD)GameServerPort;

  00010	66 a1 00 00 00
	00		 mov	 ax, WORD PTR ?GameServerPort@@3GA ; GameServerPort

; 373  : 	pInfo.Type =1;
; 374  : 	pInfo.ServerCode =gGameServerCode;

  00016	66 8b 0d 00 00
	00 00		 mov	 cx, WORD PTR ?gGameServerCode@@3FA ; gGameServerCode
  0001d	66 89 45 c4	 mov	 WORD PTR _pInfo$[ebp+4], ax
  00021	c7 45 c0 c1 3a
	00 01		 mov	 DWORD PTR _pInfo$[ebp], 16792257 ; 01003ac1H
  00028	66 89 4d f8	 mov	 WORD PTR _pInfo$[ebp+56], cx

; 375  : 	strcpy( (char*)&pInfo.ServerName[0], (const char*)&szServerName[0] );

  0002c	33 c0		 xor	 eax, eax
  0002e	8b ff		 npad	 2
$LL3@DataServer:
  00030	8a 88 00 00 00
	00		 mov	 cl, BYTE PTR ?szServerName@@3PADA[eax]
  00036	88 4c 05 c6	 mov	 BYTE PTR _pInfo$[ebp+eax+6], cl
  0003a	40		 inc	 eax
  0003b	84 c9		 test	 cl, cl
  0003d	75 f1		 jne	 SHORT $LL3@DataServer

; 376  : 
; 377  : 	cDBSMng.Send((char*)&pInfo , pInfo.h.size  );	

  0003f	0f b6 55 c1	 movzx	 edx, BYTE PTR _pInfo$[ebp+1]
  00043	52		 push	 edx
  00044	8d 45 c0	 lea	 eax, DWORD PTR _pInfo$[ebp]
  00047	50		 push	 eax
  00048	b9 00 00 00 00	 mov	 ecx, OFFSET ?cDBSMng@@3VDBSockMng@@A ; cDBSMng
  0004d	e8 00 00 00 00	 call	 ?Send@DBSockMng@@QAEHPADH@Z ; DBSockMng::Send

; 378  : }

  00052	8b 4d fc	 mov	 ecx, DWORD PTR __$ArrayPad$[ebp]
  00055	33 cd		 xor	 ecx, ebp
  00057	e8 00 00 00 00	 call	 @__security_check_cookie@4
  0005c	8b e5		 mov	 esp, ebp
  0005e	5d		 pop	 ebp
  0005f	c3		 ret	 0
?DataServerLogin@@YAXXZ ENDP				; DataServerLogin
_TEXT	ENDS
PUBLIC	?DataServerLoginResult@@YAXPAUSDHP_RESULT@@@Z	; DataServerLoginResult
EXTRN	__imp__SendMessageA@16:PROC
EXTRN	?DataServerConnected@@3HA:DWORD			; DataServerConnected
EXTRN	?gServerReady@@3HA:DWORD			; gServerReady
EXTRN	?ghWnd@@3PAUHWND__@@A:DWORD			; ghWnd
EXTRN	?MsgBox@@YAXPADZZ:PROC				; MsgBox
EXTRN	?Get@CMsg@@QAEPADH@Z:PROC			; CMsg::Get
EXTRN	?lMsg@@3VCMsg@@A:BYTE				; lMsg
; Function compile flags: /Ogtp
;	COMDAT ?DataServerLoginResult@@YAXPAUSDHP_RESULT@@@Z
_TEXT	SEGMENT
_lpMsg$ = 8						; size = 4
?DataServerLoginResult@@YAXPAUSDHP_RESULT@@@Z PROC	; DataServerLoginResult, COMDAT

; 381  : {

  00000	55		 push	 ebp
  00001	8b ec		 mov	 ebp, esp

; 382  : 	if (lpMsg->Result == false )

  00003	8b 45 08	 mov	 eax, DWORD PTR _lpMsg$[ebp]
  00006	80 78 03 00	 cmp	 BYTE PTR [eax+3], 0
  0000a	75 1a		 jne	 SHORT $LN1@DataServer@2

; 383  : 	{
; 384  : 		MsgBox(lMsg.Get(MSGGET(1, 210)));	// Authentication error from authentication server

  0000c	68 d2 01 00 00	 push	 466			; 000001d2H
  00011	b9 00 00 00 00	 mov	 ecx, OFFSET ?lMsg@@3VCMsg@@A ; lMsg
  00016	e8 00 00 00 00	 call	 ?Get@CMsg@@QAEPADH@Z	; CMsg::Get
  0001b	50		 push	 eax
  0001c	e8 00 00 00 00	 call	 ?MsgBox@@YAXPADZZ	; MsgBox
  00021	83 c4 04	 add	 esp, 4

; 391  : 	
; 392  : }

  00024	5d		 pop	 ebp
  00025	c3		 ret	 0
$LN1@DataServer@2:

; 385  : 		return;
; 386  : 	}
; 387  : 	
; 388  : 	DataServerConnected = TRUE;
; 389  : 	gServerReady++;
; 390  : 	SendMessage(ghWnd, WM_START_SERVER, 0, 0); // Review the Message WM_USER +5

  00026	8b 0d 00 00 00
	00		 mov	 ecx, DWORD PTR ?ghWnd@@3PAUHWND__@@A ; ghWnd
  0002c	6a 00		 push	 0
  0002e	6a 00		 push	 0
  00030	b8 01 00 00 00	 mov	 eax, 1
  00035	01 05 00 00 00
	00		 add	 DWORD PTR ?gServerReady@@3HA, eax ; gServerReady
  0003b	68 05 04 00 00	 push	 1029			; 00000405H
  00040	51		 push	 ecx
  00041	a3 00 00 00 00	 mov	 DWORD PTR ?DataServerConnected@@3HA, eax ; DataServerConnected
  00046	ff 15 00 00 00
	00		 call	 DWORD PTR __imp__SendMessageA@16

; 391  : 	
; 392  : }

  0004c	5d		 pop	 ebp
  0004d	c3		 ret	 0
?DataServerLoginResult@@YAXPAUSDHP_RESULT@@@Z ENDP	; DataServerLoginResult
_TEXT	ENDS
PUBLIC	__$ArrayPad$
PUBLIC	?JGPGetCharList@@YAXPAE@Z			; JGPGetCharList
EXTRN	?DataSend@@YAHHPAEK@Z:PROC			; DataSend
EXTRN	?LevelSmallConvert@@YAEH@Z:PROC			; LevelSmallConvert
EXTRN	?CloseClient@@YAXH@Z:PROC			; CloseClient
EXTRN	?gObj@@3PAUOBJECTSTRUCT@@A:BYTE			; gObj
EXTRN	?gObjIsAccontConnect@@YAHHPAD@Z:PROC		; gObjIsAccontConnect
EXTRN	_memset:PROC
; Function compile flags: /Ogtp
;	COMDAT ?JGPGetCharList@@YAXPAE@Z
_TEXT	SEGMENT
$T160316 = -388						; size = 4
_aIndex$ = -384						; size = 4
tv2865 = -380						; size = 4
tv2762 = -376						; size = 4
tv2853 = -372						; size = 4
_n$157950 = -368					; size = 4
_lOfs$ = -364						; size = 4
_lsOfs$ = -360						; size = 4
tv3267 = -356						; size = 4
tv2859 = -356						; size = 4
_pCLCount$ = -352					; size = 7
tv2877 = -344						; size = 4
tv2840 = -344						; size = 4
_index$ = -337						; size = 1
_TempInventory$ = -336					; size = 24
_pCList$ = -312						; size = 34
_levelindex$158140 = -276				; size = 4
_levelindex$158055 = -276				; size = 4
_levelindex$157997 = -276				; size = 4
_sendbuf$ = -272					; size = 256
_szId$ = -16						; size = 11
__$ArrayPad$ = -4					; size = 4
_lpRecv$ = 8						; size = 4
?JGPGetCharList@@YAXPAE@Z PROC				; JGPGetCharList, COMDAT

; 424  : {

  00000	55		 push	 ebp
  00001	8b ec		 mov	 ebp, esp
  00003	81 ec 84 01 00
	00		 sub	 esp, 388		; 00000184H
  00009	a1 00 00 00 00	 mov	 eax, DWORD PTR ___security_cookie
  0000e	33 c5		 xor	 eax, ebp
  00010	89 45 fc	 mov	 DWORD PTR __$ArrayPad$[ebp], eax
  00013	53		 push	 ebx
  00014	8b 5d 08	 mov	 ebx, DWORD PTR _lpRecv$[ebp]

; 425  : 	SDHP_CHARLISTCOUNT * lpCount = (SDHP_CHARLISTCOUNT *)lpRecv;
; 426  : 	SDHP_CHARLIST * lpCL;
; 427  : 	char szId[MAX_ACCOUNT_LEN + 1];
; 428  : 	BYTE sendbuf[256];
; 429  : 	int lOfs = 0;
; 430  : 	int lsOfs = sizeof(SDHP_CHARLISTCOUNT);
; 431  : 	int aIndex = lpCount->Number;
; 432  : 	BYTE index;
; 433  : 	PMSG_CHARLISTCOUNT pCLCount;	// Packet Char List Count
; 434  : 	PMSG_CHARLIST pCList;
; 435  : 	WORD TempInventory[12];
; 436  : 
; 437  : 	pCLCount.h.c = 0xC1;
; 438  : 	pCLCount.h.headcode = 0xF3;
; 439  : 	pCLCount.subcode = 0x00;
; 440  : 	pCLCount.Count = lpCount->Count;
; 441  : 
; 442  : 	szId[MAX_ACCOUNT_LEN] = 0;
; 443  : 	memcpy(szId, lpCount->AccountId, MAX_ACCOUNT_LEN);

  00017	8b 4b 0d	 mov	 ecx, DWORD PTR [ebx+13]
  0001a	8a 43 06	 mov	 al, BYTE PTR [ebx+6]
  0001d	8b 53 11	 mov	 edx, DWORD PTR [ebx+17]
  00020	56		 push	 esi
  00021	0f bf 73 04	 movsx	 esi, WORD PTR [ebx+4]
  00025	89 4d f0	 mov	 DWORD PTR _szId$[ebp], ecx

; 444  : 
; 445  : 	if (::gObjIsAccontConnect(aIndex, szId) == FALSE)

  00028	8d 4d f0	 lea	 ecx, DWORD PTR _szId$[ebp]
  0002b	88 85 a6 fe ff
	ff		 mov	 BYTE PTR _pCLCount$[ebp+6], al
  00031	66 8b 43 15	 mov	 ax, WORD PTR [ebx+21]
  00035	51		 push	 ecx
  00036	56		 push	 esi
  00037	c7 85 98 fe ff
	ff 1c 00 00 00	 mov	 DWORD PTR _lsOfs$[ebp], 28 ; 0000001cH
  00041	89 b5 80 fe ff
	ff		 mov	 DWORD PTR _aIndex$[ebp], esi
  00047	c6 85 a0 fe ff
	ff c1		 mov	 BYTE PTR _pCLCount$[ebp], 193 ; 000000c1H
  0004e	66 c7 85 a2 fe
	ff ff f3 00	 mov	 WORD PTR _pCLCount$[ebp+2], 243 ; 000000f3H
  00057	c6 45 fa 00	 mov	 BYTE PTR _szId$[ebp+10], 0
  0005b	89 55 f4	 mov	 DWORD PTR _szId$[ebp+4], edx
  0005e	66 89 45 f8	 mov	 WORD PTR _szId$[ebp+8], ax
  00062	e8 00 00 00 00	 call	 ?gObjIsAccontConnect@@YAHHPAD@Z ; gObjIsAccontConnect
  00067	83 c4 08	 add	 esp, 8
  0006a	85 c0		 test	 eax, eax
  0006c	75 42		 jne	 SHORT $LN132@JGPGetChar

; 446  : 	{
; 447  : 		LogAdd(LOG_RED, lMsg.Get(MSGGET(1, 165)), gObj[aIndex].AccountID, szId);

  0006e	8b c6		 mov	 eax, esi
  00070	69 c0 64 15 00
	00		 imul	 eax, 5476		; 00001564H
  00076	8d 55 f0	 lea	 edx, DWORD PTR _szId$[ebp]
  00079	52		 push	 edx
  0007a	05 64 00 00 00	 add	 eax, OFFSET ?gObj@@3PAUOBJECTSTRUCT@@A+100
  0007f	50		 push	 eax
  00080	68 a5 01 00 00	 push	 421			; 000001a5H
  00085	b9 00 00 00 00	 mov	 ecx, OFFSET ?lMsg@@3VCMsg@@A ; lMsg
  0008a	e8 00 00 00 00	 call	 ?Get@CMsg@@QAEPADH@Z	; CMsg::Get
  0008f	50		 push	 eax
  00090	6a 01		 push	 1
  00092	e8 00 00 00 00	 call	 ?LogAdd@@YAXW4eLogColor@@PADZZ ; LogAdd

; 448  : 		CloseClient(aIndex);

  00097	56		 push	 esi
  00098	e8 00 00 00 00	 call	 ?CloseClient@@YAXH@Z	; CloseClient
  0009d	83 c4 14	 add	 esp, 20			; 00000014H
  000a0	5e		 pop	 esi
  000a1	5b		 pop	 ebx

; 1090 : }

  000a2	8b 4d fc	 mov	 ecx, DWORD PTR __$ArrayPad$[ebp]
  000a5	33 cd		 xor	 ecx, ebp
  000a7	e8 00 00 00 00	 call	 @__security_check_cookie@4
  000ac	8b e5		 mov	 esp, ebp
  000ae	5d		 pop	 ebp
  000af	c3		 ret	 0
$LN132@JGPGetChar:

; 449  : 
; 450  : 		return;
; 451  : 	}
; 452  : 
; 453  : 	gObj[aIndex].Magumsa = lpCount->Magumsa;

  000b0	8a 43 0c	 mov	 al, BYTE PTR [ebx+12]
  000b3	8b ce		 mov	 ecx, esi
  000b5	69 c9 64 15 00
	00		 imul	 ecx, 5476		; 00001564H

; 454  : 	pCLCount.MaxClass = gObj[aIndex].Magumsa + 2;
; 455  : 	pCLCount.MoveCnt = lpCount->MoveCnt;
; 456  : 
; 457  : 	memset(sendbuf, 0, sizeof(sendbuf));

  000bb	68 00 01 00 00	 push	 256			; 00000100H
  000c0	88 81 2c 00 00
	00		 mov	 BYTE PTR ?gObj@@3PAUOBJECTSTRUCT@@A[ecx+44], al
  000c6	89 8d 88 fe ff
	ff		 mov	 DWORD PTR tv2762[ebp], ecx
  000cc	8a 4b 18	 mov	 cl, BYTE PTR [ebx+24]
  000cf	8d 95 f0 fe ff
	ff		 lea	 edx, DWORD PTR _sendbuf$[ebp]
  000d5	04 02		 add	 al, 2
  000d7	6a 00		 push	 0
  000d9	52		 push	 edx
  000da	88 85 a4 fe ff
	ff		 mov	 BYTE PTR _pCLCount$[ebp+4], al
  000e0	88 8d a5 fe ff
	ff		 mov	 BYTE PTR _pCLCount$[ebp+5], cl
  000e6	e8 00 00 00 00	 call	 _memset
  000eb	83 c4 0c	 add	 esp, 12			; 0000000cH

; 458  : 	lOfs += sizeof(PMSG_CHARLISTCOUNT);
; 459  : 
; 460  : 	if (pCLCount.Count > 0)

  000ee	80 bd a6 fe ff
	ff 00		 cmp	 BYTE PTR _pCLCount$[ebp+6], 0
  000f5	c7 85 94 fe ff
	ff 07 00 00 00	 mov	 DWORD PTR _lOfs$[ebp], 7
  000ff	0f 86 92 11 00
	00		 jbe	 $LN128@JGPGetChar

; 461  : 	{
; 462  : 		for (int n = 0; n < pCLCount.Count; n++)

  00105	0f b6 85 a6 fe
	ff ff		 movzx	 eax, BYTE PTR _pCLCount$[ebp+6]
  0010c	c7 85 90 fe ff
	ff 00 00 00 00	 mov	 DWORD PTR _n$157950[ebp], 0
  00116	89 85 7c fe ff
	ff		 mov	 DWORD PTR $T160316[ebp], eax
  0011c	85 c0		 test	 eax, eax
  0011e	0f 8e 73 11 00
	00		 jle	 $LN128@JGPGetChar
  00124	57		 push	 edi
  00125	eb 09 8d a4 24
	00 00 00 00 8b
	ff		 npad	 11
$LL130@JGPGetChar:

; 463  : 		{
; 464  : 			memset(&pCList, 0, sizeof(pCList));
; 465  : 			lpCL = (SDHP_CHARLIST *)&lpRecv[lsOfs];
; 466  : 			pCList.Index = lpCL->Index;

  00130	8b b5 98 fe ff
	ff		 mov	 esi, DWORD PTR _lsOfs$[ebp]

; 467  : 			pCList.Level = lpCL->Level;

  00136	66 8b 4c 33 0c	 mov	 cx, WORD PTR [ebx+esi+12]

; 468  : 			pCList.CtlCode = lpCL->CtlCode;

  0013b	8a 54 33 0f	 mov	 dl, BYTE PTR [ebx+esi+15]
  0013f	33 c0		 xor	 eax, eax
  00141	89 85 d4 fe ff
	ff		 mov	 DWORD PTR _pCList$[ebp+12], eax
  00147	89 85 c8 fe ff
	ff		 mov	 DWORD PTR _pCList$[ebp], eax
  0014d	66 89 85 e8 fe
	ff ff		 mov	 WORD PTR _pCList$[ebp+32], ax
  00154	89 85 cc fe ff
	ff		 mov	 DWORD PTR _pCList$[ebp+4], eax
  0015a	89 85 d0 fe ff
	ff		 mov	 DWORD PTR _pCList$[ebp+8], eax
  00160	89 85 d8 fe ff
	ff		 mov	 DWORD PTR _pCList$[ebp+16], eax
  00166	89 85 dc fe ff
	ff		 mov	 DWORD PTR _pCList$[ebp+20], eax
  0016c	89 85 e0 fe ff
	ff		 mov	 DWORD PTR _pCList$[ebp+24], eax
  00172	89 85 e4 fe ff
	ff		 mov	 DWORD PTR _pCList$[ebp+28], eax
  00178	0f b6 04 33	 movzx	 eax, BYTE PTR [ebx+esi]
  0017c	88 85 c8 fe ff
	ff		 mov	 BYTE PTR _pCList$[ebp], al

; 469  : 			pCList.btGuildStatus = lpCL->btGuildStatus;

  00182	0f b6 44 33 41	 movzx	 eax, BYTE PTR [ebx+esi+65]
  00187	66 89 8d d4 fe
	ff ff		 mov	 WORD PTR _pCList$[ebp+12], cx

; 470  : 
; 471  : 			if (gObj[aIndex].m_cAccountItemBlock != 0)

  0018e	8b 8d 88 fe ff
	ff		 mov	 ecx, DWORD PTR tv2762[ebp]
  00194	80 b9 b0 01 00
	00 00		 cmp	 BYTE PTR ?gObj@@3PAUOBJECTSTRUCT@@A[ecx+432], 0
  0019b	88 95 d6 fe ff
	ff		 mov	 BYTE PTR _pCList$[ebp+14], dl
  001a1	88 85 e9 fe ff
	ff		 mov	 BYTE PTR _pCList$[ebp+33], al
  001a7	74 07		 je	 SHORT $LN127@JGPGetChar

; 472  : 				pCList.CtlCode |= 0x10;	// Set Block Item

  001a9	80 8d d6 fe ff
	ff 10		 or	 BYTE PTR _pCList$[ebp+14], 16 ; 00000010H
$LN127@JGPGetChar:

; 473  : 
; 474  : 			memcpy(pCList.Name, lpCL->Name, MAX_ACCOUNT_LEN);

  001b0	8b 44 33 05	 mov	 eax, DWORD PTR [ebx+esi+5]
  001b4	8b 54 33 01	 mov	 edx, DWORD PTR [ebx+esi+1]
  001b8	66 8b 4c 33 09	 mov	 cx, WORD PTR [ebx+esi+9]
  001bd	89 95 c9 fe ff
	ff		 mov	 DWORD PTR _pCList$[ebp+1], edx
  001c3	89 85 cd fe ff
	ff		 mov	 DWORD PTR _pCList$[ebp+5], eax

; 475  : 			pCList.CharSet[CS_CLASS] = CS_GET_CLASS(lpCL->Class);
; 476  : 			int changeup = CS_GET_CHANGEUP(lpCL->Class);

  001c9	8a 44 33 0e	 mov	 al, BYTE PTR [ebx+esi+14]

; 477  : 			pCList.CharSet[CS_CLASS] |= CS_SET_CHANGEUP(changeup);

  001cd	8a d0		 mov	 dl, al
  001cf	80 e2 01	 and	 dl, 1
  001d2	02 d2		 add	 dl, dl
  001d4	02 d2		 add	 dl, dl
  001d6	02 d2		 add	 dl, dl
  001d8	24 f0		 and	 al, 240			; 000000f0H
  001da	0a d0		 or	 dl, al

; 478  : 			pCList.CharSet[9] = 0;
; 479  : 
; 480  : 			if (lpCL->DbVersion == 0)

  001dc	8a 44 33 40	 mov	 al, BYTE PTR [ebx+esi+64]
  001e0	02 d2		 add	 dl, dl
  001e2	66 89 8d d1 fe
	ff ff		 mov	 WORD PTR _pCList$[ebp+9], cx
  001e9	88 95 d7 fe ff
	ff		 mov	 BYTE PTR _pCList$[ebp+15], dl
  001ef	c6 85 e0 fe ff
	ff 00		 mov	 BYTE PTR _pCList$[ebp+24], 0
  001f6	84 c0		 test	 al, al
  001f8	0f 85 09 03 00
	00		 jne	 $LN126@JGPGetChar

; 481  : 			{
; 482  : 				if (lpCL->dbInventory[0] != (BYTE)-1)

  001fe	80 7c 33 10 ff	 cmp	 BYTE PTR [ebx+esi+16], 255 ; 000000ffH
  00203	74 3d		 je	 SHORT $LN125@JGPGetChar

; 483  : 				{
; 484  : 					WORD wItemCode = lpCL->dbInventory[0] / MAX_TYPE_ITEMS * MAX_SUBTYPE_ITEMS + lpCL->dbInventory[0] % MAX_TYPE_ITEMS;

  00205	8a 44 33 10	 mov	 al, BYTE PTR [ebx+esi+16]
  00209	8a c8		 mov	 cl, al
  0020b	c0 e9 04	 shr	 cl, 4
  0020e	0f b6 d1	 movzx	 edx, cl
  00211	0f b6 c0	 movzx	 eax, al
  00214	b9 00 02 00 00	 mov	 ecx, 512		; 00000200H
  00219	66 0f af d1	 imul	 dx, cx
  0021d	25 0f 00 00 80	 and	 eax, -2147483633	; 8000000fH
  00222	79 05		 jns	 SHORT $LN158@JGPGetChar
  00224	48		 dec	 eax
  00225	83 c8 f0	 or	 eax, -16		; fffffff0H
  00228	40		 inc	 eax
$LN158@JGPGetChar:
  00229	66 03 d0	 add	 dx, ax
  0022c	0f b7 c2	 movzx	 eax, dx

; 485  : 					pCList.CharSet[1] = wItemCode;

  0022f	88 85 d8 fe ff
	ff		 mov	 BYTE PTR _pCList$[ebp+16], al

; 486  : 					pCList.CharSet[12] |= DBI_GET_TYPE(wItemCode);

  00235	c1 e8 04	 shr	 eax, 4
  00238	24 f0		 and	 al, 240			; 000000f0H
  0023a	08 85 e3 fe ff
	ff		 or	 BYTE PTR _pCList$[ebp+27], al

; 487  : 				}
; 488  : 				else

  00240	eb 0e		 jmp	 SHORT $LN124@JGPGetChar
$LN125@JGPGetChar:

; 489  : 				{
; 490  : 					pCList.CharSet[1] = -1;
; 491  : 					pCList.CharSet[12] |= 0xF0;

  00242	80 8d e3 fe ff
	ff f0		 or	 BYTE PTR _pCList$[ebp+27], 240 ; 000000f0H
  00249	c6 85 d8 fe ff
	ff ff		 mov	 BYTE PTR _pCList$[ebp+16], 255 ; 000000ffH
$LN124@JGPGetChar:

; 492  : 				}
; 493  : 
; 494  : 				if (lpCL->dbInventory[2] != (BYTE)-1)

  00250	80 7c 33 12 ff	 cmp	 BYTE PTR [ebx+esi+18], 255 ; 000000ffH
  00255	74 3d		 je	 SHORT $LN123@JGPGetChar

; 495  : 				{
; 496  : 					WORD wItemCode = lpCL->dbInventory[2] / MAX_TYPE_ITEMS * MAX_SUBTYPE_ITEMS + lpCL->dbInventory[2] % MAX_TYPE_ITEMS;

  00257	8a 44 33 12	 mov	 al, BYTE PTR [ebx+esi+18]
  0025b	8a c8		 mov	 cl, al
  0025d	c0 e9 04	 shr	 cl, 4
  00260	0f b6 d1	 movzx	 edx, cl
  00263	0f b6 c0	 movzx	 eax, al
  00266	b9 00 02 00 00	 mov	 ecx, 512		; 00000200H
  0026b	66 0f af d1	 imul	 dx, cx
  0026f	25 0f 00 00 80	 and	 eax, -2147483633	; 8000000fH
  00274	79 05		 jns	 SHORT $LN159@JGPGetChar
  00276	48		 dec	 eax
  00277	83 c8 f0	 or	 eax, -16		; fffffff0H
  0027a	40		 inc	 eax
$LN159@JGPGetChar:
  0027b	66 03 d0	 add	 dx, ax
  0027e	0f b7 c2	 movzx	 eax, dx

; 497  : 					pCList.CharSet[2] = wItemCode;

  00281	88 85 d9 fe ff
	ff		 mov	 BYTE PTR _pCList$[ebp+17], al

; 498  : 					pCList.CharSet[13] |= DBI_GET_TYPE(wItemCode);

  00287	c1 e8 04	 shr	 eax, 4
  0028a	24 f0		 and	 al, 240			; 000000f0H
  0028c	08 85 e4 fe ff
	ff		 or	 BYTE PTR _pCList$[ebp+28], al

; 499  : 				}
; 500  : 				else

  00292	eb 0e		 jmp	 SHORT $LN122@JGPGetChar
$LN123@JGPGetChar:

; 501  : 				{
; 502  : 					pCList.CharSet[2] = -1;
; 503  : 					pCList.CharSet[13] |= 0xF0;

  00294	80 8d e4 fe ff
	ff f0		 or	 BYTE PTR _pCList$[ebp+28], 240 ; 000000f0H
  0029b	c6 85 d9 fe ff
	ff ff		 mov	 BYTE PTR _pCList$[ebp+17], 255 ; 000000ffH
$LN122@JGPGetChar:

; 504  : 				}
; 505  : 
; 506  : 				if (lpCL->dbInventory[4] == (BYTE)-1)

  002a2	8d 44 33 14	 lea	 eax, DWORD PTR [ebx+esi+20]
  002a6	89 85 a8 fe ff
	ff		 mov	 DWORD PTR tv2840[ebp], eax
  002ac	8a 00		 mov	 al, BYTE PTR [eax]
  002ae	3c ff		 cmp	 al, 255			; 000000ffH
  002b0	75 04		 jne	 SHORT $LN121@JGPGetChar

; 507  : 				{
; 508  : 					index = 0xF0;

  002b2	b0 f0		 mov	 al, 240			; 000000f0H

; 509  : 				}
; 510  : 				else

  002b4	eb 05		 jmp	 SHORT $LN120@JGPGetChar
$LN121@JGPGetChar:

; 511  : 				{
; 512  : 					index = (lpCL->dbInventory[4] & 0x0F) * MAX_TYPE_ITEMS;

  002b6	24 0f		 and	 al, 15			; 0000000fH
  002b8	c0 e0 04	 shl	 al, 4
$LN120@JGPGetChar:

; 513  : 				}
; 514  : 
; 515  : 				if (lpCL->dbInventory[6] == (BYTE)-1)

  002bb	8a 4c 33 16	 mov	 cl, BYTE PTR [ebx+esi+22]
  002bf	80 f9 ff	 cmp	 cl, 255			; 000000ffH
  002c2	75 04		 jne	 SHORT $LN119@JGPGetChar

; 516  : 				{
; 517  : 					index |= 0x0F;

  002c4	0c 0f		 or	 al, 15			; 0000000fH

; 518  : 				}
; 519  : 				else

  002c6	eb 05		 jmp	 SHORT $LN118@JGPGetChar
$LN119@JGPGetChar:

; 520  : 				{
; 521  : 					index |= (lpCL->dbInventory[6] & 0x0F);

  002c8	80 e1 0f	 and	 cl, 15			; 0000000fH
  002cb	0a c1		 or	 al, cl
$LN118@JGPGetChar:

; 522  : 				}
; 523  : 
; 524  : 				pCList.CharSet[3] = index;

  002cd	88 85 da fe ff
	ff		 mov	 BYTE PTR _pCList$[ebp+18], al

; 525  : 
; 526  : 				if (lpCL->dbInventory[8] == (BYTE)-1)

  002d3	8d 44 33 18	 lea	 eax, DWORD PTR [ebx+esi+24]
  002d7	89 85 8c fe ff
	ff		 mov	 DWORD PTR tv2853[ebp], eax
  002dd	8a 00		 mov	 al, BYTE PTR [eax]
  002df	3c ff		 cmp	 al, 255			; 000000ffH
  002e1	75 04		 jne	 SHORT $LN117@JGPGetChar

; 527  : 				{
; 528  : 					index = 0xF0;

  002e3	b0 f0		 mov	 al, 240			; 000000f0H

; 529  : 				}
; 530  : 				else

  002e5	eb 05		 jmp	 SHORT $LN116@JGPGetChar
$LN117@JGPGetChar:

; 531  : 				{
; 532  : 					index = (lpCL->dbInventory[8] & 0x0F) * MAX_TYPE_ITEMS;

  002e7	24 0f		 and	 al, 15			; 0000000fH
  002e9	c0 e0 04	 shl	 al, 4
$LN116@JGPGetChar:

; 533  : 				}
; 534  : 
; 535  : 				if (lpCL->dbInventory[10] == (BYTE)-1)

  002ec	8d 4c 33 1a	 lea	 ecx, DWORD PTR [ebx+esi+26]
  002f0	89 8d 9c fe ff
	ff		 mov	 DWORD PTR tv2859[ebp], ecx
  002f6	8a 09		 mov	 cl, BYTE PTR [ecx]
  002f8	80 f9 ff	 cmp	 cl, 255			; 000000ffH
  002fb	75 04		 jne	 SHORT $LN115@JGPGetChar

; 536  : 				{
; 537  : 					index |= 0x0F;

  002fd	0c 0f		 or	 al, 15			; 0000000fH

; 538  : 				}
; 539  : 				else

  002ff	eb 05		 jmp	 SHORT $LN114@JGPGetChar
$LN115@JGPGetChar:

; 540  : 				{
; 541  : 					index |= (lpCL->dbInventory[10] & 0x0F);

  00301	80 e1 0f	 and	 cl, 15			; 0000000fH
  00304	0a c1		 or	 al, cl
$LN114@JGPGetChar:

; 542  : 				}
; 543  : 
; 544  : 				pCList.CharSet[4] = index;
; 545  : 
; 546  : 				if (lpCL->dbInventory[12] == (BYTE)-1)

  00306	8a 54 33 1c	 mov	 dl, BYTE PTR [ebx+esi+28]
  0030a	88 85 db fe ff
	ff		 mov	 BYTE PTR _pCList$[ebp+19], al
  00310	8d 44 33 1c	 lea	 eax, DWORD PTR [ebx+esi+28]
  00314	89 85 84 fe ff
	ff		 mov	 DWORD PTR tv2865[ebp], eax
  0031a	80 fa ff	 cmp	 dl, 255			; 000000ffH
  0031d	75 04		 jne	 SHORT $LN113@JGPGetChar

; 547  : 				{
; 548  : 					index = 0xF0;

  0031f	b0 f0		 mov	 al, 240			; 000000f0H

; 549  : 				}
; 550  : 				else

  00321	eb 07		 jmp	 SHORT $LN112@JGPGetChar
$LN113@JGPGetChar:

; 551  : 				{
; 552  : 					index = (lpCL->dbInventory[12] & 0x0F) * MAX_TYPE_ITEMS;

  00323	8a c2		 mov	 al, dl
  00325	24 0f		 and	 al, 15			; 0000000fH
  00327	c0 e0 04	 shl	 al, 4
$LN112@JGPGetChar:

; 553  : 				}
; 554  : 
; 555  : 				if (lpCL->dbInventory[14] == (BYTE)-1)

  0032a	8a 4c 33 1e	 mov	 cl, BYTE PTR [ebx+esi+30]
  0032e	8d 7c 33 1e	 lea	 edi, DWORD PTR [ebx+esi+30]
  00332	80 f9 ff	 cmp	 cl, 255			; 000000ffH
  00335	75 04		 jne	 SHORT $LN111@JGPGetChar

; 556  : 				{
; 557  : 					index |= 0x0C;

  00337	0c 0c		 or	 al, 12			; 0000000cH

; 558  : 				}
; 559  : 				else

  00339	eb 09		 jmp	 SHORT $LN110@JGPGetChar
$LN111@JGPGetChar:

; 560  : 				{
; 561  : 					index |= ((lpCL->dbInventory[14] & 0x03) * 4);

  0033b	80 e1 03	 and	 cl, 3
  0033e	02 c9		 add	 cl, cl
  00340	02 c9		 add	 cl, cl
  00342	0a c1		 or	 al, cl
$LN110@JGPGetChar:

; 562  : 				}
; 563  : 
; 564  : 				if (lpCL->dbInventory[16] == (BYTE)-1)

  00344	8a 4c 33 20	 mov	 cl, BYTE PTR [ebx+esi+32]
  00348	80 f9 ff	 cmp	 cl, 255			; 000000ffH
  0034b	75 04		 jne	 SHORT $LN109@JGPGetChar

; 565  : 				{
; 566  : 					index |= 0x03;

  0034d	0c 03		 or	 al, 3

; 567  : 				}
; 568  : 				else

  0034f	eb 05		 jmp	 SHORT $LN108@JGPGetChar
$LN109@JGPGetChar:

; 569  : 				{
; 570  : 					index |= (lpCL->dbInventory[16] & 0x03);

  00351	80 e1 03	 and	 cl, 3
  00354	0a c1		 or	 al, cl
$LN108@JGPGetChar:

; 571  : 				}
; 572  : 
; 573  : 				pCList.CharSet[5] = index;
; 574  : 
; 575  : 				if (lpCL->dbInventory[4] == (BYTE)-1)

  00356	8b 8d a8 fe ff
	ff		 mov	 ecx, DWORD PTR tv2840[ebp]
  0035c	80 39 ff	 cmp	 BYTE PTR [ecx], 255	; 000000ffH
  0035f	88 85 dc fe ff
	ff		 mov	 BYTE PTR _pCList$[ebp+20], al
  00365	75 07		 jne	 SHORT $LN145@JGPGetChar

; 576  : 					pCList.CharSet[9] = 0x80;

  00367	c6 85 e0 fe ff
	ff 80		 mov	 BYTE PTR _pCList$[ebp+24], 128 ; 00000080H
$LN145@JGPGetChar:

; 577  : 
; 578  : 				if (lpCL->dbInventory[6] == (BYTE)-1)

  0036e	80 7c 33 16 ff	 cmp	 BYTE PTR [ebx+esi+22], 255 ; 000000ffH
  00373	75 07		 jne	 SHORT $LN146@JGPGetChar

; 579  : 					pCList.CharSet[9] |= 0x40;

  00375	80 8d e0 fe ff
	ff 40		 or	 BYTE PTR _pCList$[ebp+24], 64 ; 00000040H
$LN146@JGPGetChar:

; 580  : 
; 581  : 				if (lpCL->dbInventory[8] == (BYTE)-1)

  0037c	8b 85 8c fe ff
	ff		 mov	 eax, DWORD PTR tv2853[ebp]
  00382	80 38 ff	 cmp	 BYTE PTR [eax], 255	; 000000ffH
  00385	75 07		 jne	 SHORT $LN152@JGPGetChar

; 582  : 					pCList.CharSet[9] |= 0x20;

  00387	80 8d e0 fe ff
	ff 20		 or	 BYTE PTR _pCList$[ebp+24], 32 ; 00000020H
$LN152@JGPGetChar:

; 583  : 
; 584  : 				if (lpCL->dbInventory[10] == (BYTE)-1)

  0038e	8b 8d 9c fe ff
	ff		 mov	 ecx, DWORD PTR tv2859[ebp]
  00394	80 39 ff	 cmp	 BYTE PTR [ecx], 255	; 000000ffH
  00397	75 07		 jne	 SHORT $LN154@JGPGetChar

; 585  : 					pCList.CharSet[9] |= 0x10;

  00399	80 8d e0 fe ff
	ff 10		 or	 BYTE PTR _pCList$[ebp+24], 16 ; 00000010H
$LN154@JGPGetChar:

; 586  : 
; 587  : 				if (lpCL->dbInventory[12] == (BYTE)-1)

  003a0	80 fa ff	 cmp	 dl, 255			; 000000ffH
  003a3	75 07		 jne	 SHORT $LN103@JGPGetChar

; 588  : 					pCList.CharSet[9] |= 0x08;

  003a5	80 8d e0 fe ff
	ff 08		 or	 BYTE PTR _pCList$[ebp+24], 8
$LN103@JGPGetChar:

; 589  : 
; 590  : 				int levelindex = LevelSmallConvert(DBI_GET_LEVEL(lpCL->dbInventory[1]));

  003ac	0f b6 54 33 11	 movzx	 edx, BYTE PTR [ebx+esi+17]
  003b1	c1 ea 03	 shr	 edx, 3
  003b4	83 e2 0f	 and	 edx, 15			; 0000000fH
  003b7	52		 push	 edx
  003b8	e8 00 00 00 00	 call	 ?LevelSmallConvert@@YAEH@Z ; LevelSmallConvert

; 591  : 				levelindex |= (int)LevelSmallConvert(DBI_GET_LEVEL(lpCL->dbInventory[3])) << 3;

  003bd	0f b6 4c 33 13	 movzx	 ecx, BYTE PTR [ebx+esi+19]
  003c2	c1 e9 03	 shr	 ecx, 3
  003c5	0f b6 c0	 movzx	 eax, al
  003c8	83 e1 0f	 and	 ecx, 15			; 0000000fH
  003cb	51		 push	 ecx
  003cc	89 85 ec fe ff
	ff		 mov	 DWORD PTR _levelindex$157997[ebp], eax
  003d2	e8 00 00 00 00	 call	 ?LevelSmallConvert@@YAEH@Z ; LevelSmallConvert
  003d7	0f b6 d0	 movzx	 edx, al

; 592  : 				levelindex |= (int)LevelSmallConvert(DBI_GET_LEVEL(lpCL->dbInventory[5])) << 6;

  003da	0f b6 44 33 15	 movzx	 eax, BYTE PTR [ebx+esi+21]
  003df	03 d2		 add	 edx, edx
  003e1	c1 e8 03	 shr	 eax, 3
  003e4	03 d2		 add	 edx, edx
  003e6	83 e0 0f	 and	 eax, 15			; 0000000fH
  003e9	03 d2		 add	 edx, edx
  003eb	09 95 ec fe ff
	ff		 or	 DWORD PTR _levelindex$157997[ebp], edx
  003f1	50		 push	 eax
  003f2	e8 00 00 00 00	 call	 ?LevelSmallConvert@@YAEH@Z ; LevelSmallConvert

; 593  : 				levelindex |= (int)LevelSmallConvert(DBI_GET_LEVEL(lpCL->dbInventory[7])) << 9;

  003f7	0f b6 54 33 17	 movzx	 edx, BYTE PTR [ebx+esi+23]
  003fc	0f b6 c8	 movzx	 ecx, al
  003ff	c1 ea 03	 shr	 edx, 3
  00402	83 e2 0f	 and	 edx, 15			; 0000000fH
  00405	c1 e1 06	 shl	 ecx, 6
  00408	09 8d ec fe ff
	ff		 or	 DWORD PTR _levelindex$157997[ebp], ecx
  0040e	52		 push	 edx
  0040f	e8 00 00 00 00	 call	 ?LevelSmallConvert@@YAEH@Z ; LevelSmallConvert

; 594  : 				levelindex |= (int)LevelSmallConvert(DBI_GET_LEVEL(lpCL->dbInventory[9])) << 12;

  00414	0f b6 4c 33 19	 movzx	 ecx, BYTE PTR [ebx+esi+25]
  00419	0f b6 c0	 movzx	 eax, al
  0041c	c1 e9 03	 shr	 ecx, 3
  0041f	83 e1 0f	 and	 ecx, 15			; 0000000fH
  00422	c1 e0 09	 shl	 eax, 9
  00425	09 85 ec fe ff
	ff		 or	 DWORD PTR _levelindex$157997[ebp], eax
  0042b	51		 push	 ecx
  0042c	e8 00 00 00 00	 call	 ?LevelSmallConvert@@YAEH@Z ; LevelSmallConvert
  00431	0f b6 d0	 movzx	 edx, al

; 595  : 				levelindex |= (int)LevelSmallConvert(DBI_GET_LEVEL(lpCL->dbInventory[11])) << 15;

  00434	0f b6 44 33 1b	 movzx	 eax, BYTE PTR [ebx+esi+27]
  00439	c1 e8 03	 shr	 eax, 3
  0043c	83 e0 0f	 and	 eax, 15			; 0000000fH
  0043f	c1 e2 0c	 shl	 edx, 12			; 0000000cH
  00442	09 95 ec fe ff
	ff		 or	 DWORD PTR _levelindex$157997[ebp], edx
  00448	50		 push	 eax
  00449	e8 00 00 00 00	 call	 ?LevelSmallConvert@@YAEH@Z ; LevelSmallConvert

; 596  : 				levelindex |= (int)LevelSmallConvert(DBI_GET_LEVEL(lpCL->dbInventory[13])) << 18;

  0044e	0f b6 54 33 1d	 movzx	 edx, BYTE PTR [ebx+esi+29]
  00453	0f b6 c8	 movzx	 ecx, al
  00456	c1 ea 03	 shr	 edx, 3
  00459	83 e2 0f	 and	 edx, 15			; 0000000fH
  0045c	c1 e1 0f	 shl	 ecx, 15			; 0000000fH
  0045f	09 8d ec fe ff
	ff		 or	 DWORD PTR _levelindex$157997[ebp], ecx
  00465	52		 push	 edx
  00466	e8 00 00 00 00	 call	 ?LevelSmallConvert@@YAEH@Z ; LevelSmallConvert
  0046b	0f b6 c8	 movzx	 ecx, al
  0046e	8b 85 ec fe ff
	ff		 mov	 eax, DWORD PTR _levelindex$157997[ebp]
  00474	c1 e1 12	 shl	 ecx, 18			; 00000012H
  00477	0b c1		 or	 eax, ecx

; 597  : 
; 598  : 				pCList.CharSet[6] = levelindex >> 16 & 0xFF;

  00479	8b d0		 mov	 edx, eax
  0047b	c1 fa 10	 sar	 edx, 16			; 00000010H
  0047e	88 95 dd fe ff
	ff		 mov	 BYTE PTR _pCList$[ebp+21], dl

; 599  : 				pCList.CharSet[7] = (levelindex >> 8) & 0xFF;
; 600  : 				pCList.CharSet[8] = (levelindex) & 0xFF;
; 601  : 				pCList.CharSet[10] = 0;
; 602  : 				pCList.CharSet[11] = 0;
; 603  : 
; 604  : 				if (lpCL->dbInventory[4] == (BYTE)-1)

  00484	8b 95 a8 fe ff
	ff		 mov	 edx, DWORD PTR tv2840[ebp]
  0048a	8b c8		 mov	 ecx, eax
  0048c	c1 f9 08	 sar	 ecx, 8
  0048f	83 c4 1c	 add	 esp, 28			; 0000001cH
  00492	80 3a ff	 cmp	 BYTE PTR [edx], 255	; 000000ffH
  00495	88 8d de fe ff
	ff		 mov	 BYTE PTR _pCList$[ebp+22], cl
  0049b	88 85 df fe ff
	ff		 mov	 BYTE PTR _pCList$[ebp+23], al
  004a1	66 c7 85 e1 fe
	ff ff 00 00	 mov	 WORD PTR _pCList$[ebp+25], 0
  004aa	75 07		 jne	 SHORT $LN102@JGPGetChar

; 605  : 					pCList.CharSet[13] |= 0x0F;

  004ac	80 8d e4 fe ff
	ff 0f		 or	 BYTE PTR _pCList$[ebp+28], 15 ; 0000000fH
$LN102@JGPGetChar:

; 606  : 
; 607  : 				if (lpCL->dbInventory[8] == (BYTE)-1)

  004b3	8b 85 8c fe ff
	ff		 mov	 eax, DWORD PTR tv2853[ebp]
  004b9	80 38 ff	 cmp	 BYTE PTR [eax], 255	; 000000ffH
  004bc	75 07		 jne	 SHORT $LN137@JGPGetChar

; 608  : 					pCList.CharSet[14] |= 0xF0;

  004be	80 8d e5 fe ff
	ff f0		 or	 BYTE PTR _pCList$[ebp+29], 240 ; 000000f0H
$LN137@JGPGetChar:

; 609  : 
; 610  : 				if (lpCL->dbInventory[10] == (BYTE)-1)

  004c5	8b 8d 9c fe ff
	ff		 mov	 ecx, DWORD PTR tv2859[ebp]
  004cb	80 39 ff	 cmp	 BYTE PTR [ecx], 255	; 000000ffH
  004ce	75 07		 jne	 SHORT $LN100@JGPGetChar

; 611  : 					pCList.CharSet[14] |= 0x0F;

  004d0	80 8d e5 fe ff
	ff 0f		 or	 BYTE PTR _pCList$[ebp+29], 15 ; 0000000fH
$LN100@JGPGetChar:

; 612  : 
; 613  : 				if (lpCL->dbInventory[12] == (BYTE)-1)

  004d7	8b 95 84 fe ff
	ff		 mov	 edx, DWORD PTR tv2865[ebp]
  004dd	80 3a ff	 cmp	 BYTE PTR [edx], 255	; 000000ffH
  004e0	75 07		 jne	 SHORT $LN138@JGPGetChar

; 614  : 					pCList.CharSet[15] |= 0xF0;

  004e2	80 8d e6 fe ff
	ff f0		 or	 BYTE PTR _pCList$[ebp+30], 240 ; 000000f0H
$LN138@JGPGetChar:

; 615  : 
; 616  : 				if (lpCL->dbInventory[14] == (BYTE)-1)

  004e9	80 3f ff	 cmp	 BYTE PTR [edi], 255	; 000000ffH
  004ec	0f 85 03 06 00
	00		 jne	 $LN44@JGPGetChar

; 617  : 					pCList.CharSet[15] |= 0x0F;

  004f2	80 8d e6 fe ff
	ff 0f		 or	 BYTE PTR _pCList$[ebp+30], 15 ; 0000000fH

; 618  : 
; 619  : 				pCList.CharSet[16] = 0;

  004f9	66 c7 85 e7 fe
	ff ff 00 00	 mov	 WORD PTR _pCList$[ebp+31], 0

; 620  : 				pCList.CharSet[17] = 0;

  00502	e9 44 0d 00 00	 jmp	 $LN1@JGPGetChar
$LN126@JGPGetChar:

; 621  : 			}
; 622  : 			else if (lpCL->DbVersion <= 2)

  00507	3c 02		 cmp	 al, 2
  00509	0f 87 f4 05 00
	00		 ja	 $LN96@JGPGetChar

; 623  : 			{
; 624  : 				if (lpCL->dbInventory[0] != (BYTE)-1)

  0050f	80 7c 33 10 ff	 cmp	 BYTE PTR [ebx+esi+16], 255 ; 000000ffH
  00514	74 29		 je	 SHORT $LN95@JGPGetChar

; 625  : 				{
; 626  : 					TempInventory[0] = (lpCL->dbInventory[0] / 32) * MAX_SUBTYPE_ITEMS + lpCL->dbInventory[0] % 32;

  00516	8a 44 33 10	 mov	 al, BYTE PTR [ebx+esi+16]
  0051a	8a c8		 mov	 cl, al
  0051c	c0 e9 05	 shr	 cl, 5
  0051f	0f b6 d1	 movzx	 edx, cl
  00522	0f b6 c0	 movzx	 eax, al
  00525	b9 00 02 00 00	 mov	 ecx, 512		; 00000200H
  0052a	66 0f af d1	 imul	 dx, cx
  0052e	25 1f 00 00 80	 and	 eax, -2147483617	; 8000001fH
  00533	79 05		 jns	 SHORT $LN160@JGPGetChar
  00535	48		 dec	 eax
  00536	83 c8 e0	 or	 eax, -32		; ffffffe0H
  00539	40		 inc	 eax
$LN160@JGPGetChar:
  0053a	66 03 d0	 add	 dx, ax

; 627  : 				}
; 628  : 				else

  0053d	eb 05		 jmp	 SHORT $LN183@JGPGetChar
$LN95@JGPGetChar:

; 629  : 				{
; 630  : 					TempInventory[0] = -1;

  0053f	ba ff ff 00 00	 mov	 edx, 65535		; 0000ffffH
$LN183@JGPGetChar:

; 631  : 				}
; 632  : 
; 633  : 				if (lpCL->dbInventory[3] != (BYTE)-1)

  00544	80 7c 33 13 ff	 cmp	 BYTE PTR [ebx+esi+19], 255 ; 000000ffH
  00549	66 89 95 b0 fe
	ff ff		 mov	 WORD PTR _TempInventory$[ebp], dx
  00550	74 29		 je	 SHORT $LN93@JGPGetChar

; 634  : 				{
; 635  : 					TempInventory[1] = (lpCL->dbInventory[3] / 32) * MAX_SUBTYPE_ITEMS + lpCL->dbInventory[3] % 32;

  00552	8a 44 33 13	 mov	 al, BYTE PTR [ebx+esi+19]
  00556	8a c8		 mov	 cl, al
  00558	c0 e9 05	 shr	 cl, 5
  0055b	0f b6 c9	 movzx	 ecx, cl
  0055e	0f b6 c0	 movzx	 eax, al
  00561	bf 00 02 00 00	 mov	 edi, 512		; 00000200H
  00566	66 0f af cf	 imul	 cx, di
  0056a	25 1f 00 00 80	 and	 eax, -2147483617	; 8000001fH
  0056f	79 05		 jns	 SHORT $LN161@JGPGetChar
  00571	48		 dec	 eax
  00572	83 c8 e0	 or	 eax, -32		; ffffffe0H
  00575	40		 inc	 eax
$LN161@JGPGetChar:
  00576	66 03 c8	 add	 cx, ax

; 636  : 				}
; 637  : 				else

  00579	eb 05		 jmp	 SHORT $LN184@JGPGetChar
$LN93@JGPGetChar:

; 638  : 				{
; 639  : 					TempInventory[1] = -1;

  0057b	b9 ff ff 00 00	 mov	 ecx, 65535		; 0000ffffH
$LN184@JGPGetChar:

; 640  : 				}
; 641  : 
; 642  : 				if (lpCL->dbInventory[6] == (BYTE)-1 && (lpCL->dbInventory[8] & 0x80) == 0x80)

  00580	8a 44 33 16	 mov	 al, BYTE PTR [ebx+esi+22]
  00584	66 89 8d b2 fe
	ff ff		 mov	 WORD PTR _TempInventory$[ebp+2], cx
  0058b	3c ff		 cmp	 al, 255			; 000000ffH
  0058d	75 0e		 jne	 SHORT $LN91@JGPGetChar
  0058f	f6 44 33 18 80	 test	 BYTE PTR [ebx+esi+24], 128 ; 00000080H
  00594	74 07		 je	 SHORT $LN91@JGPGetChar

; 643  : 				{
; 644  : 					TempInventory[2] = -1;

  00596	b8 ff ff 00 00	 mov	 eax, 65535		; 0000ffffH

; 645  : 				}
; 646  : 				else

  0059b	eb 1a		 jmp	 SHORT $LN162@JGPGetChar
$LN91@JGPGetChar:

; 647  : 				{
; 648  : 					TempInventory[2] = (lpCL->dbInventory[6] + ((lpCL->dbInventory[8] >> 7) << 8)) % 32;

  0059d	0f b6 7c 33 18	 movzx	 edi, BYTE PTR [ebx+esi+24]
  005a2	0f b6 c0	 movzx	 eax, al
  005a5	83 e7 80	 and	 edi, -128		; ffffff80H
  005a8	8d 04 78	 lea	 eax, DWORD PTR [eax+edi*2]
  005ab	25 1f 00 00 80	 and	 eax, -2147483617	; 8000001fH
  005b0	79 05		 jns	 SHORT $LN162@JGPGetChar
  005b2	48		 dec	 eax
  005b3	83 c8 e0	 or	 eax, -32		; ffffffe0H
  005b6	40		 inc	 eax
$LN162@JGPGetChar:
  005b7	66 89 85 b4 fe
	ff ff		 mov	 WORD PTR _TempInventory$[ebp+4], ax

; 649  : 				}
; 650  : 
; 651  : 				if (lpCL->dbInventory[9] == (BYTE)-1 && (lpCL->dbInventory[11] & 0x80) == 0x80)

  005be	8a 44 33 19	 mov	 al, BYTE PTR [ebx+esi+25]
  005c2	3c ff		 cmp	 al, 255			; 000000ffH
  005c4	75 0e		 jne	 SHORT $LN89@JGPGetChar
  005c6	f6 44 33 1b 80	 test	 BYTE PTR [ebx+esi+27], 128 ; 00000080H
  005cb	74 07		 je	 SHORT $LN89@JGPGetChar

; 652  : 				{
; 653  : 					TempInventory[3] = -1;

  005cd	b8 ff ff 00 00	 mov	 eax, 65535		; 0000ffffH

; 654  : 				}
; 655  : 				else

  005d2	eb 1a		 jmp	 SHORT $LN163@JGPGetChar
$LN89@JGPGetChar:

; 656  : 				{
; 657  : 					TempInventory[3] = (lpCL->dbInventory[9] + ((lpCL->dbInventory[11] >> 7) << 8)) % 32;

  005d4	0f b6 7c 33 1b	 movzx	 edi, BYTE PTR [ebx+esi+27]
  005d9	0f b6 c0	 movzx	 eax, al
  005dc	83 e7 80	 and	 edi, -128		; ffffff80H
  005df	8d 04 78	 lea	 eax, DWORD PTR [eax+edi*2]
  005e2	25 1f 00 00 80	 and	 eax, -2147483617	; 8000001fH
  005e7	79 05		 jns	 SHORT $LN163@JGPGetChar
  005e9	48		 dec	 eax
  005ea	83 c8 e0	 or	 eax, -32		; ffffffe0H
  005ed	40		 inc	 eax
$LN163@JGPGetChar:
  005ee	66 89 85 b6 fe
	ff ff		 mov	 WORD PTR _TempInventory$[ebp+6], ax

; 658  : 				}
; 659  : 
; 660  : 				if (lpCL->dbInventory[12] == (BYTE)-1 && (lpCL->dbInventory[14] & 0x80) == 0x80)

  005f5	8a 44 33 1c	 mov	 al, BYTE PTR [ebx+esi+28]
  005f9	3c ff		 cmp	 al, 255			; 000000ffH
  005fb	75 0e		 jne	 SHORT $LN87@JGPGetChar
  005fd	f6 44 33 1e 80	 test	 BYTE PTR [ebx+esi+30], 128 ; 00000080H
  00602	74 07		 je	 SHORT $LN87@JGPGetChar

; 661  : 				{
; 662  : 					TempInventory[4] = 0x1F;

  00604	b8 1f 00 00 00	 mov	 eax, 31			; 0000001fH

; 663  : 				}
; 664  : 				else

  00609	eb 1a		 jmp	 SHORT $LN164@JGPGetChar
$LN87@JGPGetChar:

; 665  : 				{
; 666  : 					TempInventory[4] = (lpCL->dbInventory[12] + ((lpCL->dbInventory[14] >> 7) << 8)) % 32;

  0060b	0f b6 7c 33 1e	 movzx	 edi, BYTE PTR [ebx+esi+30]
  00610	0f b6 c0	 movzx	 eax, al
  00613	83 e7 80	 and	 edi, -128		; ffffff80H
  00616	8d 04 78	 lea	 eax, DWORD PTR [eax+edi*2]
  00619	25 1f 00 00 80	 and	 eax, -2147483617	; 8000001fH
  0061e	79 05		 jns	 SHORT $LN164@JGPGetChar
  00620	48		 dec	 eax
  00621	83 c8 e0	 or	 eax, -32		; ffffffe0H
  00624	40		 inc	 eax
$LN164@JGPGetChar:
  00625	66 89 85 b8 fe
	ff ff		 mov	 WORD PTR _TempInventory$[ebp+8], ax

; 667  : 				}
; 668  : 
; 669  : 				if (lpCL->dbInventory[15] == (BYTE)-1 && (lpCL->dbInventory[17] & 0x80) == 0x80)

  0062c	8a 44 33 1f	 mov	 al, BYTE PTR [ebx+esi+31]
  00630	3c ff		 cmp	 al, 255			; 000000ffH
  00632	75 0e		 jne	 SHORT $LN85@JGPGetChar
  00634	f6 44 33 21 80	 test	 BYTE PTR [ebx+esi+33], 128 ; 00000080H
  00639	74 07		 je	 SHORT $LN85@JGPGetChar

; 670  : 				{
; 671  : 					TempInventory[5] = 0x1F;

  0063b	b8 1f 00 00 00	 mov	 eax, 31			; 0000001fH

; 672  : 				}
; 673  : 				else

  00640	eb 1a		 jmp	 SHORT $LN165@JGPGetChar
$LN85@JGPGetChar:

; 674  : 				{
; 675  : 					TempInventory[5] = (lpCL->dbInventory[15] + ((lpCL->dbInventory[17] >> 7) << 8)) % 32;

  00642	0f b6 7c 33 21	 movzx	 edi, BYTE PTR [ebx+esi+33]
  00647	0f b6 c0	 movzx	 eax, al
  0064a	83 e7 80	 and	 edi, -128		; ffffff80H
  0064d	8d 04 78	 lea	 eax, DWORD PTR [eax+edi*2]
  00650	25 1f 00 00 80	 and	 eax, -2147483617	; 8000001fH
  00655	79 05		 jns	 SHORT $LN165@JGPGetChar
  00657	48		 dec	 eax
  00658	83 c8 e0	 or	 eax, -32		; ffffffe0H
  0065b	40		 inc	 eax
$LN165@JGPGetChar:
  0065c	66 89 85 ba fe
	ff ff		 mov	 WORD PTR _TempInventory$[ebp+10], ax

; 676  : 				}
; 677  : 
; 678  : 				if (lpCL->dbInventory[18] == (BYTE)-1 && (lpCL->dbInventory[20] & 0x80) == 0x80)

  00663	8a 44 33 22	 mov	 al, BYTE PTR [ebx+esi+34]
  00667	3c ff		 cmp	 al, 255			; 000000ffH
  00669	75 0e		 jne	 SHORT $LN83@JGPGetChar
  0066b	f6 44 33 24 80	 test	 BYTE PTR [ebx+esi+36], 128 ; 00000080H
  00670	74 07		 je	 SHORT $LN83@JGPGetChar

; 679  : 				{
; 680  : 					TempInventory[6] = 0x1F;

  00672	b8 1f 00 00 00	 mov	 eax, 31			; 0000001fH

; 681  : 				}
; 682  : 				else

  00677	eb 1a		 jmp	 SHORT $LN166@JGPGetChar
$LN83@JGPGetChar:

; 683  : 				{
; 684  : 					TempInventory[6] = (lpCL->dbInventory[18] + ((lpCL->dbInventory[20] >> 7) << 8)) % 32;

  00679	0f b6 7c 33 24	 movzx	 edi, BYTE PTR [ebx+esi+36]
  0067e	0f b6 c0	 movzx	 eax, al
  00681	83 e7 80	 and	 edi, -128		; ffffff80H
  00684	8d 04 78	 lea	 eax, DWORD PTR [eax+edi*2]
  00687	25 1f 00 00 80	 and	 eax, -2147483617	; 8000001fH
  0068c	79 05		 jns	 SHORT $LN166@JGPGetChar
  0068e	48		 dec	 eax
  0068f	83 c8 e0	 or	 eax, -32		; ffffffe0H
  00692	40		 inc	 eax
$LN166@JGPGetChar:
  00693	66 89 85 bc fe
	ff ff		 mov	 WORD PTR _TempInventory$[ebp+12], ax

; 685  : 				}
; 686  : 
; 687  : 				if (lpCL->dbInventory[21] == (BYTE)-1 && (lpCL->dbInventory[23] & 0x80) == 0x80)

  0069a	8a 44 33 25	 mov	 al, BYTE PTR [ebx+esi+37]
  0069e	3c ff		 cmp	 al, 255			; 000000ffH
  006a0	75 0e		 jne	 SHORT $LN81@JGPGetChar
  006a2	f6 44 33 27 80	 test	 BYTE PTR [ebx+esi+39], 128 ; 00000080H
  006a7	74 07		 je	 SHORT $LN81@JGPGetChar

; 688  : 				{
; 689  : 					TempInventory[7] = 0x1F;

  006a9	bf 1f 00 00 00	 mov	 edi, 31			; 0000001fH

; 690  : 				}
; 691  : 				else

  006ae	eb 1d		 jmp	 SHORT $LN167@JGPGetChar
$LN81@JGPGetChar:

; 692  : 				{
; 693  : 					TempInventory[7] = (lpCL->dbInventory[21] + ((lpCL->dbInventory[23] >> 7) << 8)) % 32;

  006b0	0f b6 7c 33 27	 movzx	 edi, BYTE PTR [ebx+esi+39]
  006b5	83 e7 80	 and	 edi, -128		; ffffff80H
  006b8	0f b6 c0	 movzx	 eax, al
  006bb	8d 04 78	 lea	 eax, DWORD PTR [eax+edi*2]
  006be	8b f8		 mov	 edi, eax
  006c0	81 e7 1f 00 00
	80		 and	 edi, -2147483617	; 8000001fH
  006c6	79 05		 jns	 SHORT $LN167@JGPGetChar
  006c8	4f		 dec	 edi
  006c9	83 cf e0	 or	 edi, -32		; ffffffe0H
  006cc	47		 inc	 edi
$LN167@JGPGetChar:

; 694  : 				}
; 695  : 
; 696  : 				if (lpCL->dbInventory[24] == (BYTE)-1 && (lpCL->dbInventory[26] & 0x80) == 0x80)

  006cd	8a 44 33 28	 mov	 al, BYTE PTR [ebx+esi+40]
  006d1	66 89 bd be fe
	ff ff		 mov	 WORD PTR _TempInventory$[ebp+14], di
  006d8	3c ff		 cmp	 al, 255			; 000000ffH
  006da	75 15		 jne	 SHORT $LN79@JGPGetChar
  006dc	f6 44 33 2a 80	 test	 BYTE PTR [ebx+esi+42], 128 ; 00000080H
  006e1	74 0e		 je	 SHORT $LN79@JGPGetChar

; 697  : 				{
; 698  : 					TempInventory[8] = 0x1F;

  006e3	b8 1f 00 00 00	 mov	 eax, 31			; 0000001fH
  006e8	66 89 85 c0 fe
	ff ff		 mov	 WORD PTR _TempInventory$[ebp+16], ax

; 699  : 				}
; 700  : 				else

  006ef	eb 29		 jmp	 SHORT $LN78@JGPGetChar
$LN79@JGPGetChar:

; 701  : 				{
; 702  : 					TempInventory[8] = (lpCL->dbInventory[24] + ((lpCL->dbInventory[26] >> 7) << 8)) % 32;

  006f1	0f b6 54 33 2a	 movzx	 edx, BYTE PTR [ebx+esi+42]
  006f6	0f b6 c0	 movzx	 eax, al
  006f9	83 e2 80	 and	 edx, -128		; ffffff80H
  006fc	8d 14 50	 lea	 edx, DWORD PTR [eax+edx*2]
  006ff	81 e2 1f 00 00
	80		 and	 edx, -2147483617	; 8000001fH
  00705	79 05		 jns	 SHORT $LN168@JGPGetChar
  00707	4a		 dec	 edx
  00708	83 ca e0	 or	 edx, -32		; ffffffe0H
  0070b	42		 inc	 edx
$LN168@JGPGetChar:
  0070c	66 89 95 c0 fe
	ff ff		 mov	 WORD PTR _TempInventory$[ebp+16], dx
  00713	66 8b 95 b0 fe
	ff ff		 mov	 dx, WORD PTR _TempInventory$[ebp]
$LN78@JGPGetChar:

; 703  : 				}
; 704  : 
; 705  : 				if (TempInventory[0] != (WORD)-1)

  0071a	b8 ff ff 00 00	 mov	 eax, 65535		; 0000ffffH
  0071f	66 3b d0	 cmp	 dx, ax
  00722	74 1f		 je	 SHORT $LN77@JGPGetChar

; 706  : 				{
; 707  : 					pCList.CharSet[1] = TempInventory[0];
; 708  : 					pCList.CharSet[12] |= DBI_GET_TYPE(TempInventory[0]);

  00724	8b 85 b0 fe ff
	ff		 mov	 eax, DWORD PTR _TempInventory$[ebp]
  0072a	8a 95 b0 fe ff
	ff		 mov	 dl, BYTE PTR _TempInventory$[ebp]
  00730	c1 e8 04	 shr	 eax, 4
  00733	24 f0		 and	 al, 240			; 000000f0H
  00735	08 85 e3 fe ff
	ff		 or	 BYTE PTR _pCList$[ebp+27], al
  0073b	88 95 d8 fe ff
	ff		 mov	 BYTE PTR _pCList$[ebp+16], dl

; 709  : 				}
; 710  : 				else

  00741	eb 0e		 jmp	 SHORT $LN76@JGPGetChar
$LN77@JGPGetChar:

; 711  : 				{
; 712  : 					pCList.CharSet[1] = -1;
; 713  : 					pCList.CharSet[12] |= 0xF0;

  00743	80 8d e3 fe ff
	ff f0		 or	 BYTE PTR _pCList$[ebp+27], 240 ; 000000f0H
  0074a	c6 85 d8 fe ff
	ff ff		 mov	 BYTE PTR _pCList$[ebp+16], 255 ; 000000ffH
$LN76@JGPGetChar:

; 714  : 				}
; 715  : 
; 716  : 				if (TempInventory[1] != (WORD)-1)

  00751	ba ff ff 00 00	 mov	 edx, 65535		; 0000ffffH
  00756	66 3b ca	 cmp	 cx, dx
  00759	74 20		 je	 SHORT $LN75@JGPGetChar

; 717  : 				{
; 718  : 					pCList.CharSet[2] = TempInventory[1];
; 719  : 					pCList.CharSet[13] |= DBI_GET_TYPE(TempInventory[1]);

  0075b	8b 95 b2 fe ff
	ff		 mov	 edx, DWORD PTR _TempInventory$[ebp+2]
  00761	8a 85 b2 fe ff
	ff		 mov	 al, BYTE PTR _TempInventory$[ebp+2]
  00767	c1 ea 04	 shr	 edx, 4
  0076a	80 e2 f0	 and	 dl, 240			; 000000f0H
  0076d	08 95 e4 fe ff
	ff		 or	 BYTE PTR _pCList$[ebp+28], dl
  00773	88 85 d9 fe ff
	ff		 mov	 BYTE PTR _pCList$[ebp+17], al

; 720  : 				}
; 721  : 				else

  00779	eb 0e		 jmp	 SHORT $LN74@JGPGetChar
$LN75@JGPGetChar:

; 722  : 				{
; 723  : 					pCList.CharSet[2] = -1;
; 724  : 					pCList.CharSet[13] |= 0xF0;

  0077b	80 8d e4 fe ff
	ff f0		 or	 BYTE PTR _pCList$[ebp+28], 240 ; 000000f0H
  00782	c6 85 d9 fe ff
	ff ff		 mov	 BYTE PTR _pCList$[ebp+17], 255 ; 000000ffH
$LN74@JGPGetChar:

; 725  : 				}
; 726  : 
; 727  : 				pCList.CharSet[3] = TempInventory[2] % MAX_TYPE_ITEMS * MAX_TYPE_ITEMS + TempInventory[3] % MAX_TYPE_ITEMS;

  00789	0f b7 85 b4 fe
	ff ff		 movzx	 eax, WORD PTR _TempInventory$[ebp+4]
  00790	25 0f 00 00 80	 and	 eax, -2147483633	; 8000000fH
  00795	79 05		 jns	 SHORT $LN169@JGPGetChar
  00797	48		 dec	 eax
  00798	83 c8 f0	 or	 eax, -16		; fffffff0H
  0079b	40		 inc	 eax
$LN169@JGPGetChar:
  0079c	0f b7 95 b6 fe
	ff ff		 movzx	 edx, WORD PTR _TempInventory$[ebp+6]
  007a3	c0 e0 04	 shl	 al, 4
  007a6	81 e2 0f 00 00
	80		 and	 edx, -2147483633	; 8000000fH
  007ac	79 05		 jns	 SHORT $LN170@JGPGetChar
  007ae	4a		 dec	 edx
  007af	83 ca f0	 or	 edx, -16		; fffffff0H
  007b2	42		 inc	 edx
$LN170@JGPGetChar:
  007b3	02 c2		 add	 al, dl
  007b5	88 85 da fe ff
	ff		 mov	 BYTE PTR _pCList$[ebp+18], al

; 728  : 				pCList.CharSet[4] = TempInventory[4] % MAX_TYPE_ITEMS * MAX_TYPE_ITEMS + TempInventory[5] % MAX_TYPE_ITEMS;

  007bb	0f b7 85 b8 fe
	ff ff		 movzx	 eax, WORD PTR _TempInventory$[ebp+8]
  007c2	25 0f 00 00 80	 and	 eax, -2147483633	; 8000000fH
  007c7	79 05		 jns	 SHORT $LN171@JGPGetChar
  007c9	48		 dec	 eax
  007ca	83 c8 f0	 or	 eax, -16		; fffffff0H
  007cd	40		 inc	 eax
$LN171@JGPGetChar:
  007ce	0f b7 95 ba fe
	ff ff		 movzx	 edx, WORD PTR _TempInventory$[ebp+10]
  007d5	c0 e0 04	 shl	 al, 4
  007d8	81 e2 0f 00 00
	80		 and	 edx, -2147483633	; 8000000fH
  007de	79 05		 jns	 SHORT $LN172@JGPGetChar
  007e0	4a		 dec	 edx
  007e1	83 ca f0	 or	 edx, -16		; fffffff0H
  007e4	42		 inc	 edx
$LN172@JGPGetChar:
  007e5	02 c2		 add	 al, dl
  007e7	88 85 db fe ff
	ff		 mov	 BYTE PTR _pCList$[ebp+19], al

; 729  : 				index = TempInventory[6] % MAX_TYPE_ITEMS * MAX_TYPE_ITEMS;

  007ed	0f b7 85 bc fe
	ff ff		 movzx	 eax, WORD PTR _TempInventory$[ebp+12]
  007f4	25 0f 00 00 80	 and	 eax, -2147483633	; 8000000fH
  007f9	79 05		 jns	 SHORT $LN173@JGPGetChar
  007fb	48		 dec	 eax
  007fc	83 c8 f0	 or	 eax, -16		; fffffff0H
  007ff	40		 inc	 eax
$LN173@JGPGetChar:
  00800	c0 e0 04	 shl	 al, 4

; 730  : 
; 731  : 				if (TempInventory[7] == 0x1F)

  00803	66 83 ff 1f	 cmp	 di, 31			; 0000001fH
  00807	75 04		 jne	 SHORT $LN73@JGPGetChar

; 732  : 				{
; 733  : 					index |= 0x0C;

  00809	0c 0c		 or	 al, 12			; 0000000cH

; 734  : 				}
; 735  : 				else

  0080b	eb 0f		 jmp	 SHORT $LN72@JGPGetChar
$LN73@JGPGetChar:

; 736  : 				{
; 737  : 					index |= (TempInventory[7] & 0x03) * 4;

  0080d	8a 95 be fe ff
	ff		 mov	 dl, BYTE PTR _TempInventory$[ebp+14]
  00813	80 e2 03	 and	 dl, 3
  00816	02 d2		 add	 dl, dl
  00818	02 d2		 add	 dl, dl
  0081a	0a c2		 or	 al, dl
$LN72@JGPGetChar:

; 738  : 				}
; 739  : 
; 740  : 				if ((TempInventory[8] & 0x04) == 0)

  0081c	8b 95 c0 fe ff
	ff		 mov	 edx, DWORD PTR _TempInventory$[ebp+16]
  00822	83 e2 04	 and	 edx, 4
  00825	89 95 a8 fe ff
	ff		 mov	 DWORD PTR tv2877[ebp], edx
  0082b	75 17		 jne	 SHORT $LN71@JGPGetChar

; 741  : 				{
; 742  : 					if (TempInventory[8] == 0x1F)

  0082d	66 83 bd c0 fe
	ff ff 1f	 cmp	 WORD PTR _TempInventory$[ebp+16], 31 ; 0000001fH

; 743  : 					{
; 744  : 						index |= 0x03;
; 745  : 					}
; 746  : 					else

  00835	74 0d		 je	 SHORT $LN71@JGPGetChar

; 747  : 					{
; 748  : 						index |= TempInventory[8] & 0x03;

  00837	8a 95 c0 fe ff
	ff		 mov	 dl, BYTE PTR _TempInventory$[ebp+16]
  0083d	80 e2 03	 and	 dl, 3
  00840	0a c2		 or	 al, dl

; 749  : 					}
; 750  : 				}
; 751  : 				else

  00842	eb 02		 jmp	 SHORT $LN185@JGPGetChar
$LN71@JGPGetChar:

; 752  : 				{
; 753  : 					index |= 0x03;

  00844	0c 03		 or	 al, 3
$LN185@JGPGetChar:
  00846	88 85 af fe ff
	ff		 mov	 BYTE PTR _index$[ebp], al

; 754  : 				}
; 755  : 
; 756  : 				pCList.CharSet[5] = index;

  0084c	88 85 dc fe ff
	ff		 mov	 BYTE PTR _pCList$[ebp+20], al

; 757  : 				int levelindex = 0;
; 758  : 
; 759  : 				if (TempInventory[0] != (WORD)-1)

  00852	b8 ff ff 00 00	 mov	 eax, 65535		; 0000ffffH
  00857	c7 85 ec fe ff
	ff 00 00 00 00	 mov	 DWORD PTR _levelindex$158055[ebp], 0
  00861	66 39 85 b0 fe
	ff ff		 cmp	 WORD PTR _TempInventory$[ebp], ax
  00868	74 24		 je	 SHORT $LN141@JGPGetChar

; 760  : 				{
; 761  : 					levelindex = LevelSmallConvert(DBI_GET_LEVEL(lpCL->dbInventory[1]));

  0086a	0f b6 4c 33 11	 movzx	 ecx, BYTE PTR [ebx+esi+17]
  0086f	c1 e9 03	 shr	 ecx, 3
  00872	83 e1 0f	 and	 ecx, 15			; 0000000fH
  00875	51		 push	 ecx
  00876	e8 00 00 00 00	 call	 ?LevelSmallConvert@@YAEH@Z ; LevelSmallConvert
  0087b	66 8b 8d b2 fe
	ff ff		 mov	 cx, WORD PTR _TempInventory$[ebp+2]
  00882	0f b6 d0	 movzx	 edx, al
  00885	83 c4 04	 add	 esp, 4
  00888	89 95 ec fe ff
	ff		 mov	 DWORD PTR _levelindex$158055[ebp], edx
$LN141@JGPGetChar:

; 762  : 				}
; 763  : 
; 764  : 				if (TempInventory[1] != (WORD)-1)

  0088e	b8 ff ff 00 00	 mov	 eax, 65535		; 0000ffffH
  00893	ba 1f 00 00 00	 mov	 edx, 31			; 0000001fH
  00898	66 3b c8	 cmp	 cx, ax
  0089b	74 28		 je	 SHORT $LN66@JGPGetChar

; 765  : 				{
; 766  : 					levelindex |= (int)LevelSmallConvert(DBI_GET_LEVEL(lpCL->dbInventory[4])) << 3;

  0089d	0f b6 4c 33 14	 movzx	 ecx, BYTE PTR [ebx+esi+20]
  008a2	c1 e9 03	 shr	 ecx, 3
  008a5	83 e1 0f	 and	 ecx, 15			; 0000000fH
  008a8	51		 push	 ecx
  008a9	e8 00 00 00 00	 call	 ?LevelSmallConvert@@YAEH@Z ; LevelSmallConvert
  008ae	0f b6 d0	 movzx	 edx, al
  008b1	03 d2		 add	 edx, edx
  008b3	03 d2		 add	 edx, edx
  008b5	03 d2		 add	 edx, edx
  008b7	83 c4 04	 add	 esp, 4
  008ba	09 95 ec fe ff
	ff		 or	 DWORD PTR _levelindex$158055[ebp], edx
  008c0	ba 1f 00 00 00	 mov	 edx, 31			; 0000001fH
$LN66@JGPGetChar:

; 767  : 				}
; 768  : 
; 769  : 				if (TempInventory[2] < 0x1F)

  008c5	66 39 95 b4 fe
	ff ff		 cmp	 WORD PTR _TempInventory$[ebp+4], dx
  008cc	73 25		 jae	 SHORT $LN65@JGPGetChar

; 770  : 				{
; 771  : 					levelindex |= (int)LevelSmallConvert(DBI_GET_LEVEL(lpCL->dbInventory[7])) << 6;

  008ce	0f b6 44 33 17	 movzx	 eax, BYTE PTR [ebx+esi+23]
  008d3	c1 e8 03	 shr	 eax, 3
  008d6	83 e0 0f	 and	 eax, 15			; 0000000fH
  008d9	50		 push	 eax
  008da	e8 00 00 00 00	 call	 ?LevelSmallConvert@@YAEH@Z ; LevelSmallConvert
  008df	0f b6 c8	 movzx	 ecx, al
  008e2	c1 e1 06	 shl	 ecx, 6
  008e5	83 c4 04	 add	 esp, 4
  008e8	09 8d ec fe ff
	ff		 or	 DWORD PTR _levelindex$158055[ebp], ecx
  008ee	ba 1f 00 00 00	 mov	 edx, 31			; 0000001fH
$LN65@JGPGetChar:

; 772  : 				}
; 773  : 
; 774  : 				if (TempInventory[3] < 0x1F)

  008f3	66 39 95 b6 fe
	ff ff		 cmp	 WORD PTR _TempInventory$[ebp+6], dx
  008fa	73 25		 jae	 SHORT $LN64@JGPGetChar

; 775  : 				{
; 776  : 					levelindex |= (int)LevelSmallConvert(DBI_GET_LEVEL(lpCL->dbInventory[10])) << 9;

  008fc	0f b6 54 33 1a	 movzx	 edx, BYTE PTR [ebx+esi+26]
  00901	c1 ea 03	 shr	 edx, 3
  00904	83 e2 0f	 and	 edx, 15			; 0000000fH
  00907	52		 push	 edx
  00908	e8 00 00 00 00	 call	 ?LevelSmallConvert@@YAEH@Z ; LevelSmallConvert
  0090d	0f b6 c0	 movzx	 eax, al
  00910	c1 e0 09	 shl	 eax, 9
  00913	83 c4 04	 add	 esp, 4
  00916	09 85 ec fe ff
	ff		 or	 DWORD PTR _levelindex$158055[ebp], eax
  0091c	ba 1f 00 00 00	 mov	 edx, 31			; 0000001fH
$LN64@JGPGetChar:

; 777  : 				}
; 778  : 
; 779  : 				if (TempInventory[4] < 0x1F)

  00921	66 39 95 b8 fe
	ff ff		 cmp	 WORD PTR _TempInventory$[ebp+8], dx
  00928	73 25		 jae	 SHORT $LN63@JGPGetChar

; 780  : 				{
; 781  : 					levelindex |= (int)LevelSmallConvert(DBI_GET_LEVEL(lpCL->dbInventory[13])) << 12;

  0092a	0f b6 4c 33 1d	 movzx	 ecx, BYTE PTR [ebx+esi+29]
  0092f	c1 e9 03	 shr	 ecx, 3
  00932	83 e1 0f	 and	 ecx, 15			; 0000000fH
  00935	51		 push	 ecx
  00936	e8 00 00 00 00	 call	 ?LevelSmallConvert@@YAEH@Z ; LevelSmallConvert
  0093b	0f b6 d0	 movzx	 edx, al
  0093e	c1 e2 0c	 shl	 edx, 12			; 0000000cH
  00941	83 c4 04	 add	 esp, 4
  00944	09 95 ec fe ff
	ff		 or	 DWORD PTR _levelindex$158055[ebp], edx
  0094a	ba 1f 00 00 00	 mov	 edx, 31			; 0000001fH
$LN63@JGPGetChar:

; 782  : 				}
; 783  : 
; 784  : 				if (TempInventory[5] < 0x1F)

  0094f	66 39 95 ba fe
	ff ff		 cmp	 WORD PTR _TempInventory$[ebp+10], dx
  00956	73 25		 jae	 SHORT $LN62@JGPGetChar

; 785  : 				{
; 786  : 					levelindex |= (int)LevelSmallConvert(DBI_GET_LEVEL(lpCL->dbInventory[16])) << 15;

  00958	0f b6 44 33 20	 movzx	 eax, BYTE PTR [ebx+esi+32]
  0095d	c1 e8 03	 shr	 eax, 3
  00960	83 e0 0f	 and	 eax, 15			; 0000000fH
  00963	50		 push	 eax
  00964	e8 00 00 00 00	 call	 ?LevelSmallConvert@@YAEH@Z ; LevelSmallConvert
  00969	0f b6 c8	 movzx	 ecx, al
  0096c	c1 e1 0f	 shl	 ecx, 15			; 0000000fH
  0096f	83 c4 04	 add	 esp, 4
  00972	09 8d ec fe ff
	ff		 or	 DWORD PTR _levelindex$158055[ebp], ecx
  00978	ba 1f 00 00 00	 mov	 edx, 31			; 0000001fH
$LN62@JGPGetChar:

; 787  : 				}
; 788  : 
; 789  : 				if (TempInventory[6] < 0x1F)

  0097d	66 39 95 bc fe
	ff ff		 cmp	 WORD PTR _TempInventory$[ebp+12], dx
  00984	73 25		 jae	 SHORT $LN61@JGPGetChar

; 790  : 				{
; 791  : 					levelindex |= (int)LevelSmallConvert(DBI_GET_LEVEL(lpCL->dbInventory[19])) << 18;

  00986	0f b6 54 33 23	 movzx	 edx, BYTE PTR [ebx+esi+35]
  0098b	c1 ea 03	 shr	 edx, 3
  0098e	83 e2 0f	 and	 edx, 15			; 0000000fH
  00991	52		 push	 edx
  00992	e8 00 00 00 00	 call	 ?LevelSmallConvert@@YAEH@Z ; LevelSmallConvert
  00997	0f b6 c0	 movzx	 eax, al
  0099a	c1 e0 12	 shl	 eax, 18			; 00000012H
  0099d	83 c4 04	 add	 esp, 4
  009a0	09 85 ec fe ff
	ff		 or	 DWORD PTR _levelindex$158055[ebp], eax
  009a6	ba 1f 00 00 00	 mov	 edx, 31			; 0000001fH
$LN61@JGPGetChar:

; 792  : 				}
; 793  : 
; 794  : 				pCList.CharSet[6] = ((int)levelindex >> 16) & 0xFF;

  009ab	8b 85 ec fe ff
	ff		 mov	 eax, DWORD PTR _levelindex$158055[ebp]

; 795  : 				pCList.CharSet[7] = ((int)levelindex >> 8) & 0xFF;
; 796  : 				pCList.CharSet[8] = levelindex & 0xFF;
; 797  : 
; 798  : 				if (TempInventory[2] > 0x0F)

  009b1	66 8b b5 b4 fe
	ff ff		 mov	 si, WORD PTR _TempInventory$[ebp+4]
  009b8	8b c8		 mov	 ecx, eax
  009ba	c1 f9 10	 sar	 ecx, 16			; 00000010H
  009bd	88 8d dd fe ff
	ff		 mov	 BYTE PTR _pCList$[ebp+21], cl
  009c3	8b c8		 mov	 ecx, eax
  009c5	88 85 df fe ff
	ff		 mov	 BYTE PTR _pCList$[ebp+23], al
  009cb	c1 f9 08	 sar	 ecx, 8
  009ce	b8 0f 00 00 00	 mov	 eax, 15			; 0000000fH
  009d3	88 8d de fe ff
	ff		 mov	 BYTE PTR _pCList$[ebp+22], cl
  009d9	66 3b f0	 cmp	 si, ax
  009dc	76 07		 jbe	 SHORT $LN147@JGPGetChar

; 799  : 					pCList.CharSet[9] = 0x80;

  009de	c6 85 e0 fe ff
	ff 80		 mov	 BYTE PTR _pCList$[ebp+24], 128 ; 00000080H
$LN147@JGPGetChar:

; 800  : 
; 801  : 				if (TempInventory[3] > 0x0F)

  009e5	66 39 85 b6 fe
	ff ff		 cmp	 WORD PTR _TempInventory$[ebp+6], ax
  009ec	76 07		 jbe	 SHORT $LN153@JGPGetChar

; 802  : 					pCList.CharSet[9] |= 0x40;

  009ee	80 8d e0 fe ff
	ff 40		 or	 BYTE PTR _pCList$[ebp+24], 64 ; 00000040H
$LN153@JGPGetChar:

; 803  : 
; 804  : 				if (TempInventory[4] > 0x0F)

  009f5	66 39 85 b8 fe
	ff ff		 cmp	 WORD PTR _TempInventory$[ebp+8], ax
  009fc	76 07		 jbe	 SHORT $LN155@JGPGetChar

; 805  : 					pCList.CharSet[9] |= 0x20;

  009fe	80 8d e0 fe ff
	ff 20		 or	 BYTE PTR _pCList$[ebp+24], 32 ; 00000020H
$LN155@JGPGetChar:

; 806  : 
; 807  : 				if (TempInventory[5] > 0x0F)

  00a05	66 39 85 ba fe
	ff ff		 cmp	 WORD PTR _TempInventory$[ebp+10], ax
  00a0c	76 07		 jbe	 SHORT $LN156@JGPGetChar

; 808  : 					pCList.CharSet[9] |= 0x10;

  00a0e	80 8d e0 fe ff
	ff 10		 or	 BYTE PTR _pCList$[ebp+24], 16 ; 00000010H
$LN156@JGPGetChar:

; 809  : 
; 810  : 				if (TempInventory[6] > 0x0F)

  00a15	66 8b 8d bc fe
	ff ff		 mov	 cx, WORD PTR _TempInventory$[ebp+12]
  00a1c	66 3b c8	 cmp	 cx, ax
  00a1f	76 07		 jbe	 SHORT $LN157@JGPGetChar

; 811  : 					pCList.CharSet[9] |= 0x8;

  00a21	80 8d e0 fe ff
	ff 08		 or	 BYTE PTR _pCList$[ebp+24], 8
$LN157@JGPGetChar:

; 812  : 
; 813  : 				if ((TempInventory[7] >= 3 && TempInventory[7] <= 6) || TempInventory[7] == 0x1E)

  00a28	66 83 ff 03	 cmp	 di, 3
  00a2c	72 06		 jb	 SHORT $LN53@JGPGetChar
  00a2e	66 83 ff 06	 cmp	 di, 6
  00a32	76 06		 jbe	 SHORT $LN142@JGPGetChar
$LN53@JGPGetChar:
  00a34	66 83 ff 1e	 cmp	 di, 30			; 0000001eH
  00a38	75 32		 jne	 SHORT $LN51@JGPGetChar
$LN142@JGPGetChar:

; 814  : 				{
; 815  : 					pCList.CharSet[5] |= 0x0C;

  00a3a	8a 85 af fe ff
	ff		 mov	 al, BYTE PTR _index$[ebp]
  00a40	0c 0c		 or	 al, 12			; 0000000cH
  00a42	88 85 dc fe ff
	ff		 mov	 BYTE PTR _pCList$[ebp+20], al

; 816  : 
; 817  : 					if (TempInventory[7] == 0x1E)

  00a48	66 83 ff 1e	 cmp	 di, 30			; 0000001eH
  00a4c	75 09		 jne	 SHORT $LN52@JGPGetChar

; 818  : 					{
; 819  : 						pCList.CharSet[9] |= 0x05;

  00a4e	80 8d e0 fe ff
	ff 05		 or	 BYTE PTR _pCList$[ebp+24], 5

; 820  : 					}
; 821  : 					else

  00a55	eb 15		 jmp	 SHORT $LN51@JGPGetChar
$LN52@JGPGetChar:

; 822  : 					{
; 823  : 						pCList.CharSet[9] |= (TempInventory[7] - 2) & 0x07;

  00a57	8a 85 be fe ff
	ff		 mov	 al, BYTE PTR _TempInventory$[ebp+14]
  00a5d	2c 02		 sub	 al, 2
  00a5f	24 07		 and	 al, 7
  00a61	08 85 e0 fe ff
	ff		 or	 BYTE PTR _pCList$[ebp+24], al
  00a67	ba 1f 00 00 00	 mov	 edx, 31			; 0000001fH
$LN51@JGPGetChar:

; 824  : 					}
; 825  : 				}
; 826  : 
; 827  : 				pCList.CharSet[10] = 0;
; 828  : 
; 829  : 				if ((TempInventory[8] & 0x03) != 0 && TempInventory[8] != 0x1F)

  00a6c	f6 85 c0 fe ff
	ff 03		 test	 BYTE PTR _TempInventory$[ebp+16], 3
  00a73	c6 85 e1 fe ff
	ff 00		 mov	 BYTE PTR _pCList$[ebp+25], 0
  00a7a	74 10		 je	 SHORT $LN148@JGPGetChar
  00a7c	66 39 95 c0 fe
	ff ff		 cmp	 WORD PTR _TempInventory$[ebp+16], dx
  00a83	74 07		 je	 SHORT $LN148@JGPGetChar

; 830  : 					pCList.CharSet[10] |= 1;

  00a85	c6 85 e1 fe ff
	ff 01		 mov	 BYTE PTR _pCList$[ebp+25], 1
$LN148@JGPGetChar:

; 831  : 
; 832  : 				pCList.CharSet[11] = 0;
; 833  : 
; 834  : 				if ((TempInventory[8] & 0x04) != 0 && TempInventory[8] != 0x1F)

  00a8c	66 83 bd a8 fe
	ff ff 00	 cmp	 WORD PTR tv2877[ebp], 0
  00a94	c6 85 e2 fe ff
	ff 00		 mov	 BYTE PTR _pCList$[ebp+26], 0
  00a9b	74 10		 je	 SHORT $LN49@JGPGetChar
  00a9d	66 39 95 c0 fe
	ff ff		 cmp	 WORD PTR _TempInventory$[ebp+16], dx
  00aa4	74 07		 je	 SHORT $LN49@JGPGetChar

; 835  : 					pCList.CharSet[12] |= 1;

  00aa6	80 8d e3 fe ff
	ff 01		 or	 BYTE PTR _pCList$[ebp+27], 1
$LN49@JGPGetChar:

; 836  : 
; 837  : 				if (TempInventory[2] >= 0x1F) pCList.CharSet[13] |= 0x0F;

  00aad	66 3b f2	 cmp	 si, dx
  00ab0	72 07		 jb	 SHORT $LN48@JGPGetChar
  00ab2	80 8d e4 fe ff
	ff 0f		 or	 BYTE PTR _pCList$[ebp+28], 15 ; 0000000fH
$LN48@JGPGetChar:

; 838  : 				if (TempInventory[3] >= 0x1F) pCList.CharSet[14] |= 0xF0;

  00ab9	66 39 95 b6 fe
	ff ff		 cmp	 WORD PTR _TempInventory$[ebp+6], dx
  00ac0	72 07		 jb	 SHORT $LN139@JGPGetChar
  00ac2	80 8d e5 fe ff
	ff f0		 or	 BYTE PTR _pCList$[ebp+29], 240 ; 000000f0H
$LN139@JGPGetChar:

; 839  : 				if (TempInventory[4] >= 0x1F) pCList.CharSet[14] |= 0x0F;

  00ac9	66 39 95 b8 fe
	ff ff		 cmp	 WORD PTR _TempInventory$[ebp+8], dx
  00ad0	72 07		 jb	 SHORT $LN46@JGPGetChar
  00ad2	80 8d e5 fe ff
	ff 0f		 or	 BYTE PTR _pCList$[ebp+29], 15 ; 0000000fH
$LN46@JGPGetChar:

; 840  : 				if (TempInventory[5] >= 0x1F) pCList.CharSet[15] |= 0xF0;

  00ad9	66 39 95 ba fe
	ff ff		 cmp	 WORD PTR _TempInventory$[ebp+10], dx
  00ae0	72 07		 jb	 SHORT $LN140@JGPGetChar
  00ae2	80 8d e6 fe ff
	ff f0		 or	 BYTE PTR _pCList$[ebp+30], 240 ; 000000f0H
$LN140@JGPGetChar:

; 841  : 				if (TempInventory[6] >= 0x1F) pCList.CharSet[15] |= 0x0F;

  00ae9	66 3b ca	 cmp	 cx, dx
  00aec	72 07		 jb	 SHORT $LN44@JGPGetChar
  00aee	80 8d e6 fe ff
	ff 0f		 or	 BYTE PTR _pCList$[ebp+30], 15 ; 0000000fH
$LN44@JGPGetChar:

; 842  : 
; 843  : 				pCList.CharSet[16] = 0;

  00af5	66 c7 85 e7 fe
	ff ff 00 00	 mov	 WORD PTR _pCList$[ebp+31], 0

; 844  : 				pCList.CharSet[17] = 0;
; 845  : 			}
; 846  : 			else	// Case DB 3

  00afe	e9 48 07 00 00	 jmp	 $LN1@JGPGetChar
$LN96@JGPGetChar:

; 847  : 			{
; 848  : 				if (lpCL->dbInventory[0] == (BYTE)-1 && (lpCL->dbInventory[2] & 0x80) == 0x80 && (lpCL->dbInventory[3] & 0xF0) == 0xF0)

  00b03	8a 44 33 10	 mov	 al, BYTE PTR [ebx+esi+16]
  00b07	3c ff		 cmp	 al, 255			; 000000ffH
  00b09	75 21		 jne	 SHORT $LN42@JGPGetChar
  00b0b	f6 44 33 12 80	 test	 BYTE PTR [ebx+esi+18], 128 ; 00000080H
  00b10	74 1a		 je	 SHORT $LN42@JGPGetChar
  00b12	8a 54 33 13	 mov	 dl, BYTE PTR [ebx+esi+19]
  00b16	80 e2 f0	 and	 dl, 240			; 000000f0H
  00b19	80 fa f0	 cmp	 dl, 240			; 000000f0H
  00b1c	75 0e		 jne	 SHORT $LN42@JGPGetChar

; 849  : 				{
; 850  : 					TempInventory[0] = -1;

  00b1e	b8 ff ff 00 00	 mov	 eax, 65535		; 0000ffffH
  00b23	66 89 85 b0 fe
	ff ff		 mov	 WORD PTR _TempInventory$[ebp], ax

; 851  : 				}
; 852  : 				else

  00b2a	eb 2e		 jmp	 SHORT $LN41@JGPGetChar
$LN42@JGPGetChar:

; 853  : 				{
; 854  : 					TempInventory[0] = (lpCL->dbInventory[0] + (lpCL->dbInventory[2] & 0x80) * 2) + (lpCL->dbInventory[3] & 0xF0) * 32;

  00b2c	8a 4c 33 13	 mov	 cl, BYTE PTR [ebx+esi+19]
  00b30	80 e1 f0	 and	 cl, 240			; 000000f0H
  00b33	0f b6 d1	 movzx	 edx, cl
  00b36	66 c1 e2 04	 shl	 dx, 4
  00b3a	66 8b ca	 mov	 cx, dx
  00b3d	8a 54 33 12	 mov	 dl, BYTE PTR [ebx+esi+18]
  00b41	80 e2 80	 and	 dl, 128			; 00000080H
  00b44	0f b6 d2	 movzx	 edx, dl
  00b47	66 03 ca	 add	 cx, dx
  00b4a	0f b6 c0	 movzx	 eax, al
  00b4d	66 03 c9	 add	 cx, cx
  00b50	66 03 c8	 add	 cx, ax
  00b53	66 89 8d b0 fe
	ff ff		 mov	 WORD PTR _TempInventory$[ebp], cx
$LN41@JGPGetChar:

; 855  : 				}
; 856  : 
; 857  : 				if (lpCL->dbInventory[4] == (BYTE)-1 && (lpCL->dbInventory[6] & 0x80) == 0x80 && (lpCL->dbInventory[7] & 0xF0) == 0xF0)

  00b5a	8a 44 33 14	 mov	 al, BYTE PTR [ebx+esi+20]
  00b5e	3c ff		 cmp	 al, 255			; 000000ffH
  00b60	75 21		 jne	 SHORT $LN40@JGPGetChar
  00b62	f6 44 33 16 80	 test	 BYTE PTR [ebx+esi+22], 128 ; 00000080H
  00b67	74 1a		 je	 SHORT $LN40@JGPGetChar
  00b69	8a 4c 33 17	 mov	 cl, BYTE PTR [ebx+esi+23]
  00b6d	80 e1 f0	 and	 cl, 240			; 000000f0H
  00b70	80 f9 f0	 cmp	 cl, 240			; 000000f0H
  00b73	75 0e		 jne	 SHORT $LN40@JGPGetChar

; 858  : 				{
; 859  : 					TempInventory[1] = -1;

  00b75	ba ff ff 00 00	 mov	 edx, 65535		; 0000ffffH
  00b7a	66 89 95 b2 fe
	ff ff		 mov	 WORD PTR _TempInventory$[ebp+2], dx

; 860  : 				}
; 861  : 				else

  00b81	eb 2e		 jmp	 SHORT $LN39@JGPGetChar
$LN40@JGPGetChar:

; 862  : 				{
; 863  : 					TempInventory[1] = (lpCL->dbInventory[4] + (lpCL->dbInventory[6] & 0x80) * 2) + (lpCL->dbInventory[7] & 0xF0) * 32;

  00b83	8a 4c 33 17	 mov	 cl, BYTE PTR [ebx+esi+23]
  00b87	80 e1 f0	 and	 cl, 240			; 000000f0H
  00b8a	0f b6 d1	 movzx	 edx, cl
  00b8d	66 c1 e2 04	 shl	 dx, 4
  00b91	66 8b ca	 mov	 cx, dx
  00b94	8a 54 33 16	 mov	 dl, BYTE PTR [ebx+esi+22]
  00b98	80 e2 80	 and	 dl, 128			; 00000080H
  00b9b	0f b6 d2	 movzx	 edx, dl
  00b9e	66 03 ca	 add	 cx, dx
  00ba1	0f b6 c0	 movzx	 eax, al
  00ba4	66 03 c9	 add	 cx, cx
  00ba7	66 03 c8	 add	 cx, ax
  00baa	66 89 8d b2 fe
	ff ff		 mov	 WORD PTR _TempInventory$[ebp+2], cx
$LN39@JGPGetChar:

; 864  : 				}
; 865  : 
; 866  : 				if (lpCL->dbInventory[8] == (BYTE)-1 && (lpCL->dbInventory[10] & 0x80) == 0x80 && (lpCL->dbInventory[11] & 0xF0) == 0xF0)

  00bb1	8a 44 33 18	 mov	 al, BYTE PTR [ebx+esi+24]
  00bb5	3c ff		 cmp	 al, 255			; 000000ffH
  00bb7	75 21		 jne	 SHORT $LN38@JGPGetChar
  00bb9	f6 44 33 1a 80	 test	 BYTE PTR [ebx+esi+26], 128 ; 00000080H
  00bbe	74 1a		 je	 SHORT $LN38@JGPGetChar
  00bc0	8a 4c 33 1b	 mov	 cl, BYTE PTR [ebx+esi+27]
  00bc4	80 e1 f0	 and	 cl, 240			; 000000f0H
  00bc7	80 f9 f0	 cmp	 cl, 240			; 000000f0H
  00bca	75 0e		 jne	 SHORT $LN38@JGPGetChar

; 867  : 				{
; 868  : 					TempInventory[2] = 0x1FF;

  00bcc	ba ff 01 00 00	 mov	 edx, 511		; 000001ffH
  00bd1	66 89 95 b4 fe
	ff ff		 mov	 WORD PTR _TempInventory$[ebp+4], dx

; 869  : 				}
; 870  : 				else

  00bd8	eb 38		 jmp	 SHORT $LN37@JGPGetChar
$LN38@JGPGetChar:

; 871  : 				{
; 872  : 					TempInventory[2] = ((lpCL->dbInventory[8] + (lpCL->dbInventory[10] & 0x80) * 2) + (lpCL->dbInventory[11] & 0xF0) * 32) % MAX_SUBTYPE_ITEMS;

  00bda	0f b6 4c 33 1b	 movzx	 ecx, BYTE PTR [ebx+esi+27]
  00bdf	0f b6 54 33 1a	 movzx	 edx, BYTE PTR [ebx+esi+26]
  00be4	81 e1 f0 00 00
	00		 and	 ecx, 240		; 000000f0H
  00bea	c1 e1 04	 shl	 ecx, 4
  00bed	81 e2 80 00 00
	00		 and	 edx, 128		; 00000080H
  00bf3	0f b6 c0	 movzx	 eax, al
  00bf6	03 ca		 add	 ecx, edx
  00bf8	8d 0c 48	 lea	 ecx, DWORD PTR [eax+ecx*2]
  00bfb	81 e1 ff 01 00
	80		 and	 ecx, -2147483137	; 800001ffH
  00c01	79 08		 jns	 SHORT $LN174@JGPGetChar
  00c03	49		 dec	 ecx
  00c04	81 c9 00 fe ff
	ff		 or	 ecx, -512		; fffffe00H
  00c0a	41		 inc	 ecx
$LN174@JGPGetChar:
  00c0b	66 89 8d b4 fe
	ff ff		 mov	 WORD PTR _TempInventory$[ebp+4], cx
$LN37@JGPGetChar:

; 873  : 				}
; 874  : 
; 875  : 				if (lpCL->dbInventory[12] == (BYTE)-1 && (lpCL->dbInventory[14] & 0x80) == 0x80 && (lpCL->dbInventory[15] & 0xF0) == 0xF0)

  00c12	8a 44 33 1c	 mov	 al, BYTE PTR [ebx+esi+28]
  00c16	3c ff		 cmp	 al, 255			; 000000ffH
  00c18	75 21		 jne	 SHORT $LN36@JGPGetChar
  00c1a	f6 44 33 1e 80	 test	 BYTE PTR [ebx+esi+30], 128 ; 00000080H
  00c1f	74 1a		 je	 SHORT $LN36@JGPGetChar
  00c21	8a 54 33 1f	 mov	 dl, BYTE PTR [ebx+esi+31]
  00c25	80 e2 f0	 and	 dl, 240			; 000000f0H
  00c28	80 fa f0	 cmp	 dl, 240			; 000000f0H
  00c2b	75 0e		 jne	 SHORT $LN36@JGPGetChar

; 876  : 				{
; 877  : 					TempInventory[3] = 0x1FF;

  00c2d	b8 ff 01 00 00	 mov	 eax, 511		; 000001ffH
  00c32	66 89 85 b6 fe
	ff ff		 mov	 WORD PTR _TempInventory$[ebp+6], ax

; 878  : 				}
; 879  : 				else

  00c39	eb 38		 jmp	 SHORT $LN35@JGPGetChar
$LN36@JGPGetChar:

; 880  : 				{
; 881  : 					TempInventory[3] = ((lpCL->dbInventory[12] + (lpCL->dbInventory[14] & 0x80) * 2) + (lpCL->dbInventory[15] & 0xF0) * 32) % MAX_SUBTYPE_ITEMS;

  00c3b	0f b6 4c 33 1f	 movzx	 ecx, BYTE PTR [ebx+esi+31]
  00c40	0f b6 54 33 1e	 movzx	 edx, BYTE PTR [ebx+esi+30]
  00c45	81 e1 f0 00 00
	00		 and	 ecx, 240		; 000000f0H
  00c4b	c1 e1 04	 shl	 ecx, 4
  00c4e	81 e2 80 00 00
	00		 and	 edx, 128		; 00000080H
  00c54	0f b6 c0	 movzx	 eax, al
  00c57	03 ca		 add	 ecx, edx
  00c59	8d 0c 48	 lea	 ecx, DWORD PTR [eax+ecx*2]
  00c5c	81 e1 ff 01 00
	80		 and	 ecx, -2147483137	; 800001ffH
  00c62	79 08		 jns	 SHORT $LN175@JGPGetChar
  00c64	49		 dec	 ecx
  00c65	81 c9 00 fe ff
	ff		 or	 ecx, -512		; fffffe00H
  00c6b	41		 inc	 ecx
$LN175@JGPGetChar:
  00c6c	66 89 8d b6 fe
	ff ff		 mov	 WORD PTR _TempInventory$[ebp+6], cx
$LN35@JGPGetChar:

; 882  : 				}
; 883  : 
; 884  : 				if (lpCL->dbInventory[16] == (BYTE)-1 && (lpCL->dbInventory[18] & 0x80) == 0x80 && (lpCL->dbInventory[19] & 0xF0) == 0xF0)

  00c73	8a 44 33 20	 mov	 al, BYTE PTR [ebx+esi+32]
  00c77	3c ff		 cmp	 al, 255			; 000000ffH
  00c79	75 21		 jne	 SHORT $LN34@JGPGetChar
  00c7b	f6 44 33 22 80	 test	 BYTE PTR [ebx+esi+34], 128 ; 00000080H
  00c80	74 1a		 je	 SHORT $LN34@JGPGetChar
  00c82	8a 54 33 23	 mov	 dl, BYTE PTR [ebx+esi+35]
  00c86	80 e2 f0	 and	 dl, 240			; 000000f0H
  00c89	80 fa f0	 cmp	 dl, 240			; 000000f0H
  00c8c	75 0e		 jne	 SHORT $LN34@JGPGetChar

; 885  : 				{
; 886  : 					TempInventory[4] = 0x1FF;

  00c8e	b8 ff 01 00 00	 mov	 eax, 511		; 000001ffH
  00c93	66 89 85 b8 fe
	ff ff		 mov	 WORD PTR _TempInventory$[ebp+8], ax

; 887  : 				}
; 888  : 				else

  00c9a	eb 38		 jmp	 SHORT $LN33@JGPGetChar
$LN34@JGPGetChar:

; 889  : 				{
; 890  : 					TempInventory[4] = ((lpCL->dbInventory[16] + (lpCL->dbInventory[18] & 0x80) * 2) + (lpCL->dbInventory[19] & 0xF0) * 32) % MAX_SUBTYPE_ITEMS;

  00c9c	0f b6 4c 33 23	 movzx	 ecx, BYTE PTR [ebx+esi+35]
  00ca1	0f b6 54 33 22	 movzx	 edx, BYTE PTR [ebx+esi+34]
  00ca6	81 e1 f0 00 00
	00		 and	 ecx, 240		; 000000f0H
  00cac	c1 e1 04	 shl	 ecx, 4
  00caf	81 e2 80 00 00
	00		 and	 edx, 128		; 00000080H
  00cb5	0f b6 c0	 movzx	 eax, al
  00cb8	03 ca		 add	 ecx, edx
  00cba	8d 0c 48	 lea	 ecx, DWORD PTR [eax+ecx*2]
  00cbd	81 e1 ff 01 00
	80		 and	 ecx, -2147483137	; 800001ffH
  00cc3	79 08		 jns	 SHORT $LN176@JGPGetChar
  00cc5	49		 dec	 ecx
  00cc6	81 c9 00 fe ff
	ff		 or	 ecx, -512		; fffffe00H
  00ccc	41		 inc	 ecx
$LN176@JGPGetChar:
  00ccd	66 89 8d b8 fe
	ff ff		 mov	 WORD PTR _TempInventory$[ebp+8], cx
$LN33@JGPGetChar:

; 891  : 				}
; 892  : 
; 893  : 				if (lpCL->dbInventory[20] == (BYTE)-1 && (lpCL->dbInventory[22] & 0x80) == 0x80 && (lpCL->dbInventory[23] & 0xF0) == 0xF0)

  00cd4	8a 44 33 24	 mov	 al, BYTE PTR [ebx+esi+36]
  00cd8	3c ff		 cmp	 al, 255			; 000000ffH
  00cda	75 21		 jne	 SHORT $LN32@JGPGetChar
  00cdc	f6 44 33 26 80	 test	 BYTE PTR [ebx+esi+38], 128 ; 00000080H
  00ce1	74 1a		 je	 SHORT $LN32@JGPGetChar
  00ce3	8a 54 33 27	 mov	 dl, BYTE PTR [ebx+esi+39]
  00ce7	80 e2 f0	 and	 dl, 240			; 000000f0H
  00cea	80 fa f0	 cmp	 dl, 240			; 000000f0H
  00ced	75 0e		 jne	 SHORT $LN32@JGPGetChar

; 894  : 				{
; 895  : 					TempInventory[5] = 0x1FF;

  00cef	b8 ff 01 00 00	 mov	 eax, 511		; 000001ffH
  00cf4	66 89 85 ba fe
	ff ff		 mov	 WORD PTR _TempInventory$[ebp+10], ax

; 896  : 				}
; 897  : 				else

  00cfb	eb 38		 jmp	 SHORT $LN31@JGPGetChar
$LN32@JGPGetChar:

; 898  : 				{
; 899  : 					TempInventory[5] = ((lpCL->dbInventory[20] + (lpCL->dbInventory[22] & 0x80) * 2) + (lpCL->dbInventory[23] & 0xF0) * 32) % MAX_SUBTYPE_ITEMS;

  00cfd	0f b6 4c 33 27	 movzx	 ecx, BYTE PTR [ebx+esi+39]
  00d02	0f b6 54 33 26	 movzx	 edx, BYTE PTR [ebx+esi+38]
  00d07	81 e1 f0 00 00
	00		 and	 ecx, 240		; 000000f0H
  00d0d	c1 e1 04	 shl	 ecx, 4
  00d10	81 e2 80 00 00
	00		 and	 edx, 128		; 00000080H
  00d16	0f b6 c0	 movzx	 eax, al
  00d19	03 ca		 add	 ecx, edx
  00d1b	8d 0c 48	 lea	 ecx, DWORD PTR [eax+ecx*2]
  00d1e	81 e1 ff 01 00
	80		 and	 ecx, -2147483137	; 800001ffH
  00d24	79 08		 jns	 SHORT $LN177@JGPGetChar
  00d26	49		 dec	 ecx
  00d27	81 c9 00 fe ff
	ff		 or	 ecx, -512		; fffffe00H
  00d2d	41		 inc	 ecx
$LN177@JGPGetChar:
  00d2e	66 89 8d ba fe
	ff ff		 mov	 WORD PTR _TempInventory$[ebp+10], cx
$LN31@JGPGetChar:

; 900  : 				}
; 901  : 
; 902  : 				if (lpCL->dbInventory[24] == (BYTE)-1 && (lpCL->dbInventory[26] & 0x80) == 0x80 && (lpCL->dbInventory[27] & 0xF0) == 0xF0)

  00d35	8a 44 33 28	 mov	 al, BYTE PTR [ebx+esi+40]
  00d39	3c ff		 cmp	 al, 255			; 000000ffH
  00d3b	75 21		 jne	 SHORT $LN30@JGPGetChar
  00d3d	f6 44 33 2a 80	 test	 BYTE PTR [ebx+esi+42], 128 ; 00000080H
  00d42	74 1a		 je	 SHORT $LN30@JGPGetChar
  00d44	8a 54 33 2b	 mov	 dl, BYTE PTR [ebx+esi+43]
  00d48	80 e2 f0	 and	 dl, 240			; 000000f0H
  00d4b	80 fa f0	 cmp	 dl, 240			; 000000f0H
  00d4e	75 0e		 jne	 SHORT $LN30@JGPGetChar

; 903  : 				{
; 904  : 					TempInventory[6] = 0x1FF;

  00d50	b8 ff 01 00 00	 mov	 eax, 511		; 000001ffH
  00d55	66 89 85 bc fe
	ff ff		 mov	 WORD PTR _TempInventory$[ebp+12], ax

; 905  : 				}
; 906  : 				else

  00d5c	eb 38		 jmp	 SHORT $LN29@JGPGetChar
$LN30@JGPGetChar:

; 907  : 				{
; 908  : 					TempInventory[6] = ((lpCL->dbInventory[24] + (lpCL->dbInventory[26] & 0x80) * 2) + (lpCL->dbInventory[27] & 0xF0) * 32) % MAX_SUBTYPE_ITEMS;

  00d5e	0f b6 4c 33 2b	 movzx	 ecx, BYTE PTR [ebx+esi+43]
  00d63	0f b6 54 33 2a	 movzx	 edx, BYTE PTR [ebx+esi+42]
  00d68	81 e1 f0 00 00
	00		 and	 ecx, 240		; 000000f0H
  00d6e	c1 e1 04	 shl	 ecx, 4
  00d71	81 e2 80 00 00
	00		 and	 edx, 128		; 00000080H
  00d77	0f b6 c0	 movzx	 eax, al
  00d7a	03 ca		 add	 ecx, edx
  00d7c	8d 0c 48	 lea	 ecx, DWORD PTR [eax+ecx*2]
  00d7f	81 e1 ff 01 00
	80		 and	 ecx, -2147483137	; 800001ffH
  00d85	79 08		 jns	 SHORT $LN178@JGPGetChar
  00d87	49		 dec	 ecx
  00d88	81 c9 00 fe ff
	ff		 or	 ecx, -512		; fffffe00H
  00d8e	41		 inc	 ecx
$LN178@JGPGetChar:
  00d8f	66 89 8d bc fe
	ff ff		 mov	 WORD PTR _TempInventory$[ebp+12], cx
$LN29@JGPGetChar:

; 909  : 				}
; 910  : 
; 911  : 				if (lpCL->dbInventory[28] == (BYTE)-1 && (lpCL->dbInventory[30] & 0x80) == 0x80 && (lpCL->dbInventory[31] & 0xF0) == 0xF0)

  00d96	8a 44 33 2c	 mov	 al, BYTE PTR [ebx+esi+44]
  00d9a	3c ff		 cmp	 al, 255			; 000000ffH
  00d9c	75 1a		 jne	 SHORT $LN28@JGPGetChar
  00d9e	f6 44 33 2e 80	 test	 BYTE PTR [ebx+esi+46], 128 ; 00000080H
  00da3	74 13		 je	 SHORT $LN28@JGPGetChar
  00da5	8a 54 33 2f	 mov	 dl, BYTE PTR [ebx+esi+47]
  00da9	80 e2 f0	 and	 dl, 240			; 000000f0H
  00dac	80 fa f0	 cmp	 dl, 240			; 000000f0H
  00daf	75 07		 jne	 SHORT $LN28@JGPGetChar

; 912  : 				{
; 913  : 					TempInventory[7] = 0x1FF;

  00db1	bf ff 01 00 00	 mov	 edi, 511		; 000001ffH

; 914  : 				}
; 915  : 				else

  00db6	eb 31		 jmp	 SHORT $LN179@JGPGetChar
$LN28@JGPGetChar:

; 916  : 				{
; 917  : 					TempInventory[7] = ((lpCL->dbInventory[28] + (lpCL->dbInventory[30] & 0x80) * 2) + (lpCL->dbInventory[31] & 0xF0) * 32) % MAX_SUBTYPE_ITEMS;

  00db8	0f b6 4c 33 2f	 movzx	 ecx, BYTE PTR [ebx+esi+47]
  00dbd	0f b6 54 33 2e	 movzx	 edx, BYTE PTR [ebx+esi+46]
  00dc2	81 e1 f0 00 00
	00		 and	 ecx, 240		; 000000f0H
  00dc8	c1 e1 04	 shl	 ecx, 4
  00dcb	81 e2 80 00 00
	00		 and	 edx, 128		; 00000080H
  00dd1	0f b6 c0	 movzx	 eax, al
  00dd4	03 ca		 add	 ecx, edx
  00dd6	8d 3c 48	 lea	 edi, DWORD PTR [eax+ecx*2]
  00dd9	81 e7 ff 01 00
	80		 and	 edi, -2147483137	; 800001ffH
  00ddf	79 08		 jns	 SHORT $LN179@JGPGetChar
  00de1	4f		 dec	 edi
  00de2	81 cf 00 fe ff
	ff		 or	 edi, -512		; fffffe00H
  00de8	47		 inc	 edi
$LN179@JGPGetChar:

; 918  : 				}
; 919  : 
; 920  : 				if (lpCL->dbInventory[32] == (BYTE)-1 && (lpCL->dbInventory[34] & 0x80) == 0x80 && (lpCL->dbInventory[35] & 0xF0) == 0xF0)

  00de9	8a 44 33 30	 mov	 al, BYTE PTR [ebx+esi+48]
  00ded	66 89 bd be fe
	ff ff		 mov	 WORD PTR _TempInventory$[ebp+14], di
  00df4	3c ff		 cmp	 al, 255			; 000000ffH
  00df6	75 2b		 jne	 SHORT $LN26@JGPGetChar
  00df8	f6 44 33 32 80	 test	 BYTE PTR [ebx+esi+50], 128 ; 00000080H
  00dfd	8d 4c 33 32	 lea	 ecx, DWORD PTR [ebx+esi+50]
  00e01	89 8d 9c fe ff
	ff		 mov	 DWORD PTR tv3267[ebp], ecx
  00e07	74 1a		 je	 SHORT $LN26@JGPGetChar
  00e09	8a 54 33 33	 mov	 dl, BYTE PTR [ebx+esi+51]
  00e0d	80 e2 f0	 and	 dl, 240			; 000000f0H
  00e10	80 fa f0	 cmp	 dl, 240			; 000000f0H
  00e13	75 0e		 jne	 SHORT $LN26@JGPGetChar

; 921  : 				{
; 922  : 					TempInventory[8] = 0x1FF;

  00e15	b8 ff 01 00 00	 mov	 eax, 511		; 000001ffH
  00e1a	66 89 85 c0 fe
	ff ff		 mov	 WORD PTR _TempInventory$[ebp+16], ax

; 923  : 				}
; 924  : 				else

  00e21	eb 40		 jmp	 SHORT $LN25@JGPGetChar
$LN26@JGPGetChar:

; 925  : 				{
; 926  : 					TempInventory[8] = ((lpCL->dbInventory[32] + (lpCL->dbInventory[34] & 0x80) * 2) + (lpCL->dbInventory[35] & 0xF0) * 32) % MAX_SUBTYPE_ITEMS;

  00e23	0f b6 54 33 33	 movzx	 edx, BYTE PTR [ebx+esi+51]
  00e28	8d 4c 33 32	 lea	 ecx, DWORD PTR [ebx+esi+50]
  00e2c	89 8d 9c fe ff
	ff		 mov	 DWORD PTR tv3267[ebp], ecx
  00e32	0f b6 09	 movzx	 ecx, BYTE PTR [ecx]
  00e35	81 e2 f0 00 00
	00		 and	 edx, 240		; 000000f0H
  00e3b	81 e1 80 00 00
	00		 and	 ecx, 128		; 00000080H
  00e41	c1 e2 04	 shl	 edx, 4
  00e44	0f b6 c0	 movzx	 eax, al
  00e47	03 d1		 add	 edx, ecx
  00e49	8d 0c 50	 lea	 ecx, DWORD PTR [eax+edx*2]
  00e4c	81 e1 ff 01 00
	80		 and	 ecx, -2147483137	; 800001ffH
  00e52	79 08		 jns	 SHORT $LN180@JGPGetChar
  00e54	49		 dec	 ecx
  00e55	81 c9 00 fe ff
	ff		 or	 ecx, -512		; fffffe00H
  00e5b	41		 inc	 ecx
$LN180@JGPGetChar:
  00e5c	66 89 8d c0 fe
	ff ff		 mov	 WORD PTR _TempInventory$[ebp+16], cx
$LN25@JGPGetChar:

; 927  : 				}
; 928  : 
; 929  : 				pCList.CharSet[12] |= DBI_GET_TYPE(TempInventory[0]);

  00e63	8b 95 b0 fe ff
	ff		 mov	 edx, DWORD PTR _TempInventory$[ebp]

; 930  : 				pCList.CharSet[1] = TempInventory[0] % 256;

  00e69	0f b7 85 b0 fe
	ff ff		 movzx	 eax, WORD PTR _TempInventory$[ebp]
  00e70	c1 ea 04	 shr	 edx, 4
  00e73	80 e2 f0	 and	 dl, 240			; 000000f0H
  00e76	08 95 e3 fe ff
	ff		 or	 BYTE PTR _pCList$[ebp+27], dl
  00e7c	25 ff 00 00 80	 and	 eax, -2147483393	; 800000ffH
  00e81	79 07		 jns	 SHORT $LN181@JGPGetChar
  00e83	48		 dec	 eax
  00e84	0d 00 ff ff ff	 or	 eax, -256		; ffffff00H
  00e89	40		 inc	 eax
$LN181@JGPGetChar:

; 931  : 
; 932  : 				pCList.CharSet[13] |= DBI_GET_TYPE(TempInventory[1]);

  00e8a	8b 8d b2 fe ff
	ff		 mov	 ecx, DWORD PTR _TempInventory$[ebp+2]

; 933  : 				pCList.CharSet[2] = TempInventory[1] % 256;

  00e90	0f b7 95 b2 fe
	ff ff		 movzx	 edx, WORD PTR _TempInventory$[ebp+2]
  00e97	c1 e9 04	 shr	 ecx, 4
  00e9a	88 85 d8 fe ff
	ff		 mov	 BYTE PTR _pCList$[ebp+16], al
  00ea0	8a 85 e4 fe ff
	ff		 mov	 al, BYTE PTR _pCList$[ebp+28]
  00ea6	80 e1 f0	 and	 cl, 240			; 000000f0H
  00ea9	0a c1		 or	 al, cl
  00eab	81 e2 ff 00 00
	80		 and	 edx, -2147483393	; 800000ffH
  00eb1	79 08		 jns	 SHORT $LN182@JGPGetChar
  00eb3	4a		 dec	 edx
  00eb4	81 ca 00 ff ff
	ff		 or	 edx, -256		; ffffff00H
  00eba	42		 inc	 edx
$LN182@JGPGetChar:

; 934  : 
; 935  : 				pCList.CharSet[13] |= (int)(TempInventory[2] & 0x1E0) >> 5;

  00ebb	8b 8d b4 fe ff
	ff		 mov	 ecx, DWORD PTR _TempInventory$[ebp+4]
  00ec1	c1 e9 05	 shr	 ecx, 5
  00ec4	80 e1 0f	 and	 cl, 15			; 0000000fH
  00ec7	0a c1		 or	 al, cl
  00ec9	88 85 e4 fe ff
	ff		 mov	 BYTE PTR _pCList$[ebp+28], al

; 936  : 				pCList.CharSet[9] |= (int)(TempInventory[2] & 0x10) << 3;

  00ecf	8a 85 b4 fe ff
	ff		 mov	 al, BYTE PTR _TempInventory$[ebp+4]
  00ed5	8a c8		 mov	 cl, al

; 937  : 				pCList.CharSet[3] |= (int)(TempInventory[2] & 0x0F) << 4;

  00ed7	c0 e0 04	 shl	 al, 4
  00eda	08 85 da fe ff
	ff		 or	 BYTE PTR _pCList$[ebp+18], al

; 938  : 
; 939  : 				pCList.CharSet[14] |= (int)(TempInventory[3] & 0x1E0) >> 1;
; 940  : 				pCList.CharSet[9] |= (int)(TempInventory[3] & 0x10) << 2;

  00ee0	8a 85 b6 fe ff
	ff		 mov	 al, BYTE PTR _TempInventory$[ebp+6]
  00ee6	88 95 d9 fe ff
	ff		 mov	 BYTE PTR _pCList$[ebp+17], dl
  00eec	8b 95 b6 fe ff
	ff		 mov	 edx, DWORD PTR _TempInventory$[ebp+6]
  00ef2	d1 ea		 shr	 edx, 1
  00ef4	80 e2 f0	 and	 dl, 240			; 000000f0H
  00ef7	08 95 e5 fe ff
	ff		 or	 BYTE PTR _pCList$[ebp+29], dl
  00efd	8a d0		 mov	 dl, al

; 941  : 				pCList.CharSet[3] |= (int)(TempInventory[3] & 0x0F);

  00eff	24 0f		 and	 al, 15			; 0000000fH
  00f01	08 85 da fe ff
	ff		 or	 BYTE PTR _pCList$[ebp+18], al

; 942  : 
; 943  : 				pCList.CharSet[14] |= (int)(TempInventory[4] & 0x1E0) >> 5;

  00f07	8b 85 b8 fe ff
	ff		 mov	 eax, DWORD PTR _TempInventory$[ebp+8]
  00f0d	c1 e8 05	 shr	 eax, 5
  00f10	24 0f		 and	 al, 15			; 0000000fH
  00f12	08 85 e5 fe ff
	ff		 or	 BYTE PTR _pCList$[ebp+29], al

; 944  : 				pCList.CharSet[9] |= (int)(TempInventory[4] & 0x10) << 1;

  00f18	8a 85 b8 fe ff
	ff		 mov	 al, BYTE PTR _TempInventory$[ebp+8]
  00f1e	80 e2 10	 and	 dl, 16			; 00000010H
  00f21	80 e1 f0	 and	 cl, 240			; 000000f0H
  00f24	02 d2		 add	 dl, dl
  00f26	02 c9		 add	 cl, cl
  00f28	02 d2		 add	 dl, dl
  00f2a	02 c9		 add	 cl, cl
  00f2c	02 c9		 add	 cl, cl
  00f2e	0a ca		 or	 cl, dl
  00f30	8a d0		 mov	 dl, al

; 945  : 				pCList.CharSet[4] |= (int)(TempInventory[4] & 0x0F) << 4;

  00f32	c0 e0 04	 shl	 al, 4
  00f35	08 85 db fe ff
	ff		 or	 BYTE PTR _pCList$[ebp+19], al

; 946  : 
; 947  : 				pCList.CharSet[15] |= (int)(TempInventory[5] & 0x1E0) >> 1;

  00f3b	8b 85 ba fe ff
	ff		 mov	 eax, DWORD PTR _TempInventory$[ebp+10]
  00f41	d1 e8		 shr	 eax, 1
  00f43	24 f0		 and	 al, 240			; 000000f0H
  00f45	08 85 e6 fe ff
	ff		 or	 BYTE PTR _pCList$[ebp+30], al

; 948  : 				pCList.CharSet[9] |= (int)(TempInventory[5] & 0x10);

  00f4b	8a 85 ba fe ff
	ff		 mov	 al, BYTE PTR _TempInventory$[ebp+10]
  00f51	80 e2 10	 and	 dl, 16			; 00000010H
  00f54	02 d2		 add	 dl, dl
  00f56	0a ca		 or	 cl, dl
  00f58	8a d0		 mov	 dl, al

; 949  : 				pCList.CharSet[4] |= (int)(TempInventory[5] & 0x0F);

  00f5a	24 0f		 and	 al, 15			; 0000000fH
  00f5c	08 85 db fe ff
	ff		 or	 BYTE PTR _pCList$[ebp+19], al

; 950  : 
; 951  : 				pCList.CharSet[15] |= (int)(TempInventory[6] & 0x1E0) >> 5;

  00f62	8b 85 bc fe ff
	ff		 mov	 eax, DWORD PTR _TempInventory$[ebp+12]
  00f68	c1 e8 05	 shr	 eax, 5
  00f6b	24 0f		 and	 al, 15			; 0000000fH
  00f6d	08 85 e6 fe ff
	ff		 or	 BYTE PTR _pCList$[ebp+30], al

; 952  : 				pCList.CharSet[9] |= (int)(TempInventory[6] & 0x10) >> 1;

  00f73	8a 85 bc fe ff
	ff		 mov	 al, BYTE PTR _TempInventory$[ebp+12]
  00f79	80 e2 10	 and	 dl, 16			; 00000010H
  00f7c	0a ca		 or	 cl, dl
  00f7e	8a d0		 mov	 dl, al

; 953  : 				pCList.CharSet[5] |= (int)(TempInventory[6] & 0x0F) << 4;

  00f80	c0 e0 04	 shl	 al, 4
  00f83	08 85 dc fe ff
	ff		 or	 BYTE PTR _pCList$[ebp+20], al
  00f89	d0 ea		 shr	 dl, 1
  00f8b	80 e2 08	 and	 dl, 8
  00f8e	0a ca		 or	 cl, dl

; 954  : 
; 955  : 				index = 0;
; 956  : 
; 957  : 				if (TempInventory[7] == 0x1FF)

  00f90	b8 ff 01 00 00	 mov	 eax, 511		; 000001ffH
  00f95	88 8d e0 fe ff
	ff		 mov	 BYTE PTR _pCList$[ebp+24], cl
  00f9b	66 3b f8	 cmp	 di, ax
  00f9e	75 04		 jne	 SHORT $LN24@JGPGetChar

; 958  : 				{
; 959  : 					index |= 0x0C;

  00fa0	b0 0c		 mov	 al, 12			; 0000000cH

; 960  : 				}
; 961  : 				else

  00fa2	eb 0c		 jmp	 SHORT $LN23@JGPGetChar
$LN24@JGPGetChar:

; 962  : 				{
; 963  : 					index |= (int)(TempInventory[7] & 0x03) << 2;

  00fa4	8a 85 be fe ff
	ff		 mov	 al, BYTE PTR _TempInventory$[ebp+14]
  00faa	24 03		 and	 al, 3
  00fac	02 c0		 add	 al, al
  00fae	02 c0		 add	 al, al
$LN23@JGPGetChar:

; 964  : 				}
; 965  : 
; 966  : 				if ((TempInventory[8] & 0x04) == 0)

  00fb0	8b 8d c0 fe ff
	ff		 mov	 ecx, DWORD PTR _TempInventory$[ebp+16]
  00fb6	83 e1 04	 and	 ecx, 4
  00fb9	89 8d a8 fe ff
	ff		 mov	 DWORD PTR tv2877[ebp], ecx
  00fbf	75 1b		 jne	 SHORT $LN22@JGPGetChar

; 967  : 				{
; 968  : 					if (TempInventory[8] == 0x1FF)

  00fc1	b9 ff 01 00 00	 mov	 ecx, 511		; 000001ffH
  00fc6	66 39 8d c0 fe
	ff ff		 cmp	 WORD PTR _TempInventory$[ebp+16], cx

; 969  : 					{
; 970  : 						index |= 0x03;
; 971  : 					}
; 972  : 					else

  00fcd	74 0d		 je	 SHORT $LN22@JGPGetChar

; 973  : 					{
; 974  : 						index |= (TempInventory[8]) & 0x03;

  00fcf	8a 95 c0 fe ff
	ff		 mov	 dl, BYTE PTR _TempInventory$[ebp+16]
  00fd5	80 e2 03	 and	 dl, 3
  00fd8	0a c2		 or	 al, dl

; 975  : 					}
; 976  : 				}
; 977  : 				else

  00fda	eb 02		 jmp	 SHORT $LN19@JGPGetChar
$LN22@JGPGetChar:

; 978  : 				{
; 979  : 					index |= 0x03;

  00fdc	0c 03		 or	 al, 3
$LN19@JGPGetChar:

; 980  : 				}
; 981  : 
; 982  : 				pCList.CharSet[5] |= index;

  00fde	08 85 dc fe ff
	ff		 or	 BYTE PTR _pCList$[ebp+20], al

; 983  : 
; 984  : 				int levelindex = 0;
; 985  : 
; 986  : 				if (TempInventory[0] != (WORD)-1)

  00fe4	b8 ff ff 00 00	 mov	 eax, 65535		; 0000ffffH
  00fe9	c7 85 ec fe ff
	ff 00 00 00 00	 mov	 DWORD PTR _levelindex$158140[ebp], 0
  00ff3	66 39 85 b0 fe
	ff ff		 cmp	 WORD PTR _TempInventory$[ebp], ax
  00ffa	74 1d		 je	 SHORT $LN143@JGPGetChar

; 987  : 				{
; 988  : 					levelindex = LevelSmallConvert(DBI_GET_LEVEL(lpCL->dbInventory[1]));

  00ffc	0f b6 4c 33 11	 movzx	 ecx, BYTE PTR [ebx+esi+17]
  01001	c1 e9 03	 shr	 ecx, 3
  01004	83 e1 0f	 and	 ecx, 15			; 0000000fH
  01007	51		 push	 ecx
  01008	e8 00 00 00 00	 call	 ?LevelSmallConvert@@YAEH@Z ; LevelSmallConvert
  0100d	0f b6 d0	 movzx	 edx, al
  01010	83 c4 04	 add	 esp, 4
  01013	89 95 ec fe ff
	ff		 mov	 DWORD PTR _levelindex$158140[ebp], edx
$LN143@JGPGetChar:

; 989  : 				}
; 990  : 
; 991  : 				if (TempInventory[1] != (WORD)-1)

  01019	b8 ff ff 00 00	 mov	 eax, 65535		; 0000ffffH
  0101e	66 39 85 b2 fe
	ff ff		 cmp	 WORD PTR _TempInventory$[ebp+2], ax
  01025	74 23		 je	 SHORT $LN17@JGPGetChar

; 992  : 				{
; 993  : 					levelindex |= (int)LevelSmallConvert(DBI_GET_LEVEL(lpCL->dbInventory[5])) << 3;

  01027	0f b6 4c 33 15	 movzx	 ecx, BYTE PTR [ebx+esi+21]
  0102c	c1 e9 03	 shr	 ecx, 3
  0102f	83 e1 0f	 and	 ecx, 15			; 0000000fH
  01032	51		 push	 ecx
  01033	e8 00 00 00 00	 call	 ?LevelSmallConvert@@YAEH@Z ; LevelSmallConvert
  01038	0f b6 d0	 movzx	 edx, al
  0103b	03 d2		 add	 edx, edx
  0103d	03 d2		 add	 edx, edx
  0103f	03 d2		 add	 edx, edx
  01041	83 c4 04	 add	 esp, 4
  01044	09 95 ec fe ff
	ff		 or	 DWORD PTR _levelindex$158140[ebp], edx
$LN17@JGPGetChar:

; 994  : 				}
; 995  : 
; 996  : 				if (TempInventory[2] < 0x1FF)

  0104a	b8 ff 01 00 00	 mov	 eax, 511		; 000001ffH
  0104f	66 39 85 b4 fe
	ff ff		 cmp	 WORD PTR _TempInventory$[ebp+4], ax
  01056	73 20		 jae	 SHORT $LN16@JGPGetChar

; 997  : 				{
; 998  : 					levelindex |= (int)LevelSmallConvert(DBI_GET_LEVEL(lpCL->dbInventory[9])) << 6;

  01058	0f b6 4c 33 19	 movzx	 ecx, BYTE PTR [ebx+esi+25]
  0105d	c1 e9 03	 shr	 ecx, 3
  01060	83 e1 0f	 and	 ecx, 15			; 0000000fH
  01063	51		 push	 ecx
  01064	e8 00 00 00 00	 call	 ?LevelSmallConvert@@YAEH@Z ; LevelSmallConvert
  01069	0f b6 d0	 movzx	 edx, al
  0106c	c1 e2 06	 shl	 edx, 6
  0106f	83 c4 04	 add	 esp, 4
  01072	09 95 ec fe ff
	ff		 or	 DWORD PTR _levelindex$158140[ebp], edx
$LN16@JGPGetChar:

; 999  : 				}
; 1000 : 
; 1001 : 				if (TempInventory[3] < 0x1FF)

  01078	b8 ff 01 00 00	 mov	 eax, 511		; 000001ffH
  0107d	66 39 85 b6 fe
	ff ff		 cmp	 WORD PTR _TempInventory$[ebp+6], ax
  01084	73 20		 jae	 SHORT $LN15@JGPGetChar

; 1002 : 				{
; 1003 : 					levelindex |= (int)LevelSmallConvert(DBI_GET_LEVEL(lpCL->dbInventory[13])) << 9;

  01086	0f b6 4c 33 1d	 movzx	 ecx, BYTE PTR [ebx+esi+29]
  0108b	c1 e9 03	 shr	 ecx, 3
  0108e	83 e1 0f	 and	 ecx, 15			; 0000000fH
  01091	51		 push	 ecx
  01092	e8 00 00 00 00	 call	 ?LevelSmallConvert@@YAEH@Z ; LevelSmallConvert
  01097	0f b6 d0	 movzx	 edx, al
  0109a	c1 e2 09	 shl	 edx, 9
  0109d	83 c4 04	 add	 esp, 4
  010a0	09 95 ec fe ff
	ff		 or	 DWORD PTR _levelindex$158140[ebp], edx
$LN15@JGPGetChar:

; 1004 : 				}
; 1005 : 
; 1006 : 				if (TempInventory[4] < 0x1FF)

  010a6	b8 ff 01 00 00	 mov	 eax, 511		; 000001ffH
  010ab	66 39 85 b8 fe
	ff ff		 cmp	 WORD PTR _TempInventory$[ebp+8], ax
  010b2	73 20		 jae	 SHORT $LN14@JGPGetChar

; 1007 : 				{
; 1008 : 					levelindex |= (int)LevelSmallConvert(DBI_GET_LEVEL(lpCL->dbInventory[17])) << 12;

  010b4	0f b6 4c 33 21	 movzx	 ecx, BYTE PTR [ebx+esi+33]
  010b9	c1 e9 03	 shr	 ecx, 3
  010bc	83 e1 0f	 and	 ecx, 15			; 0000000fH
  010bf	51		 push	 ecx
  010c0	e8 00 00 00 00	 call	 ?LevelSmallConvert@@YAEH@Z ; LevelSmallConvert
  010c5	0f b6 d0	 movzx	 edx, al
  010c8	c1 e2 0c	 shl	 edx, 12			; 0000000cH
  010cb	83 c4 04	 add	 esp, 4
  010ce	09 95 ec fe ff
	ff		 or	 DWORD PTR _levelindex$158140[ebp], edx
$LN14@JGPGetChar:

; 1009 : 				}
; 1010 : 
; 1011 : 				if (TempInventory[5] < 0x1FF)

  010d4	b8 ff 01 00 00	 mov	 eax, 511		; 000001ffH
  010d9	66 39 85 ba fe
	ff ff		 cmp	 WORD PTR _TempInventory$[ebp+10], ax
  010e0	73 20		 jae	 SHORT $LN13@JGPGetChar

; 1012 : 				{
; 1013 : 					levelindex |= (int)LevelSmallConvert(DBI_GET_LEVEL(lpCL->dbInventory[21])) << 15;

  010e2	0f b6 4c 33 25	 movzx	 ecx, BYTE PTR [ebx+esi+37]
  010e7	c1 e9 03	 shr	 ecx, 3
  010ea	83 e1 0f	 and	 ecx, 15			; 0000000fH
  010ed	51		 push	 ecx
  010ee	e8 00 00 00 00	 call	 ?LevelSmallConvert@@YAEH@Z ; LevelSmallConvert
  010f3	0f b6 d0	 movzx	 edx, al
  010f6	c1 e2 0f	 shl	 edx, 15			; 0000000fH
  010f9	83 c4 04	 add	 esp, 4
  010fc	09 95 ec fe ff
	ff		 or	 DWORD PTR _levelindex$158140[ebp], edx
$LN13@JGPGetChar:

; 1014 : 				}
; 1015 : 
; 1016 : 				if (TempInventory[6] < 0x1FF)

  01102	b8 ff 01 00 00	 mov	 eax, 511		; 000001ffH
  01107	66 39 85 bc fe
	ff ff		 cmp	 WORD PTR _TempInventory$[ebp+12], ax
  0110e	73 20		 jae	 SHORT $LN12@JGPGetChar

; 1017 : 				{
; 1018 : 					levelindex |= (int)LevelSmallConvert(DBI_GET_LEVEL(lpCL->dbInventory[25])) << 18;

  01110	0f b6 4c 33 29	 movzx	 ecx, BYTE PTR [ebx+esi+41]
  01115	c1 e9 03	 shr	 ecx, 3
  01118	83 e1 0f	 and	 ecx, 15			; 0000000fH
  0111b	51		 push	 ecx
  0111c	e8 00 00 00 00	 call	 ?LevelSmallConvert@@YAEH@Z ; LevelSmallConvert
  01121	0f b6 d0	 movzx	 edx, al
  01124	c1 e2 12	 shl	 edx, 18			; 00000012H
  01127	83 c4 04	 add	 esp, 4
  0112a	09 95 ec fe ff
	ff		 or	 DWORD PTR _levelindex$158140[ebp], edx
$LN12@JGPGetChar:

; 1019 : 				}
; 1020 : 
; 1021 : 				pCList.CharSet[6] = ((int)levelindex >> 0x10) & 0xFF;

  01130	8b 85 ec fe ff
	ff		 mov	 eax, DWORD PTR _levelindex$158140[ebp]
  01136	8b c8		 mov	 ecx, eax

; 1022 : 				pCList.CharSet[7] = ((int)levelindex >> 0x08) & 0xFF;

  01138	8b d0		 mov	 edx, eax
  0113a	c1 f9 10	 sar	 ecx, 16			; 00000010H
  0113d	c1 fa 08	 sar	 edx, 8
  01140	88 8d dd fe ff
	ff		 mov	 BYTE PTR _pCList$[ebp+21], cl
  01146	88 95 de fe ff
	ff		 mov	 BYTE PTR _pCList$[ebp+22], dl

; 1023 : 				pCList.CharSet[8] = ((int)levelindex) & 0xFF;

  0114c	88 85 df fe ff
	ff		 mov	 BYTE PTR _pCList$[ebp+23], al

; 1024 : 
; 1025 : 				if ((TempInventory[7] >= 3 && TempInventory[7] <= 6) || TempInventory[7] == 0x1E)

  01152	66 83 ff 03	 cmp	 di, 3
  01156	72 06		 jb	 SHORT $LN9@JGPGetChar
  01158	66 83 ff 06	 cmp	 di, 6
  0115c	76 06		 jbe	 SHORT $LN144@JGPGetChar
$LN9@JGPGetChar:
  0115e	66 83 ff 1e	 cmp	 di, 30			; 0000001eH
  01162	75 29		 jne	 SHORT $LN149@JGPGetChar
$LN144@JGPGetChar:

; 1026 : 				{
; 1027 : 					pCList.CharSet[5] |= 0x0C;

  01164	80 8d dc fe ff
	ff 0c		 or	 BYTE PTR _pCList$[ebp+20], 12 ; 0000000cH

; 1032 : 					}
; 1033 : 					else

  0116b	8a 95 be fe ff
	ff		 mov	 dl, BYTE PTR _TempInventory$[ebp+14]
  01171	66 83 ff 1e	 cmp	 di, 30			; 0000001eH
  01175	75 09		 jne	 SHORT $LN8@JGPGetChar

; 1028 : 
; 1029 : 					if (TempInventory[7] == 0x1E)
; 1030 : 					{
; 1031 : 						pCList.CharSet[9] |= 0x05;

  01177	80 8d e0 fe ff
	ff 05		 or	 BYTE PTR _pCList$[ebp+24], 5

; 1032 : 					}
; 1033 : 					else

  0117e	eb 13		 jmp	 SHORT $LN7@JGPGetChar
$LN8@JGPGetChar:

; 1034 : 					{
; 1035 : 						pCList.CharSet[9] |= (TempInventory[7] - 2) & 0x07;

  01180	8d 42 fe	 lea	 eax, DWORD PTR [edx-2]
  01183	24 07		 and	 al, 7
  01185	08 85 e0 fe ff
	ff		 or	 BYTE PTR _pCList$[ebp+24], al
  0118b	eb 06		 jmp	 SHORT $LN7@JGPGetChar
$LN149@JGPGetChar:

; 1032 : 					}
; 1033 : 					else

  0118d	8a 95 be fe ff
	ff		 mov	 dl, BYTE PTR _TempInventory$[ebp+14]
$LN7@JGPGetChar:

; 1036 : 					}
; 1037 : 				}
; 1038 : 
; 1039 : 				pCList.CharSet[10] = 0;
; 1040 : 
; 1041 : 				if ((TempInventory[8] & 0x03) != 0 && TempInventory[8] != 0x1FF)

  01193	66 8b 8d c0 fe
	ff ff		 mov	 cx, WORD PTR _TempInventory$[ebp+16]
  0119a	c6 85 e1 fe ff
	ff 00		 mov	 BYTE PTR _pCList$[ebp+25], 0
  011a1	f6 c1 03	 test	 cl, 3
  011a4	74 11		 je	 SHORT $LN6@JGPGetChar
  011a6	b8 ff 01 00 00	 mov	 eax, 511		; 000001ffH
  011ab	66 3b c8	 cmp	 cx, ax
  011ae	74 07		 je	 SHORT $LN6@JGPGetChar

; 1042 : 				{
; 1043 : 					pCList.CharSet[10] |= 0x01;

  011b0	c6 85 e1 fe ff
	ff 01		 mov	 BYTE PTR _pCList$[ebp+25], 1
$LN6@JGPGetChar:

; 1044 : 				}
; 1045 : 
; 1046 : 				pCList.CharSet[11] = 0;
; 1047 : 
; 1048 : 				if ((TempInventory[8] & 0x04) != 0 && TempInventory[8] != 0x1FF)

  011b7	66 83 bd a8 fe
	ff ff 00	 cmp	 WORD PTR tv2877[ebp], 0
  011bf	c6 85 e2 fe ff
	ff 00		 mov	 BYTE PTR _pCList$[ebp+26], 0
  011c6	74 1a		 je	 SHORT $LN151@JGPGetChar
  011c8	b8 ff 01 00 00	 mov	 eax, 511		; 000001ffH
  011cd	66 3b c8	 cmp	 cx, ax
  011d0	74 10		 je	 SHORT $LN151@JGPGetChar

; 1049 : 				{
; 1050 : 					pCList.CharSet[12] |= 0x01;

  011d2	8a 85 e3 fe ff
	ff		 mov	 al, BYTE PTR _pCList$[ebp+27]
  011d8	0c 01		 or	 al, 1
  011da	88 85 e3 fe ff
	ff		 mov	 BYTE PTR _pCList$[ebp+27], al
  011e0	eb 06		 jmp	 SHORT $LN5@JGPGetChar
$LN151@JGPGetChar:
  011e2	8a 85 e3 fe ff
	ff		 mov	 al, BYTE PTR _pCList$[ebp+27]
$LN5@JGPGetChar:

; 1051 : 				}
; 1052 : 
; 1053 : 				pCList.CharSet[16] = 0;

  011e8	66 c7 85 e7 fe
	ff ff 00 00	 mov	 WORD PTR _pCList$[ebp+31], 0

; 1054 : 				pCList.CharSet[17] = 0;
; 1055 : 
; 1056 : 				if (TempInventory[8] == 0x25 && TempInventory[8] != 0x1FF)

  011f1	66 83 f9 25	 cmp	 cx, 37			; 00000025H
  011f5	75 31		 jne	 SHORT $LN2@JGPGetChar

; 1057 : 				{
; 1058 : 					pCList.CharSet[10] &= 0xFE;
; 1059 : 					pCList.CharSet[12] &= 0xFE;
; 1060 : 					pCList.CharSet[12] |= 0x04;
; 1061 : 					BYTE btExcellentOption = lpCL->dbInventory[34] & 0x3F;

  011f7	8b 8d 9c fe ff
	ff		 mov	 ecx, DWORD PTR tv3267[ebp]
  011fd	80 a5 e1 fe ff
	ff fe		 and	 BYTE PTR _pCList$[ebp+25], 254 ; 000000feH
  01204	24 fe		 and	 al, 254			; 000000feH
  01206	0c 04		 or	 al, 4
  01208	88 85 e3 fe ff
	ff		 mov	 BYTE PTR _pCList$[ebp+27], al
  0120e	8a 01		 mov	 al, BYTE PTR [ecx]
  01210	24 3f		 and	 al, 63			; 0000003fH

; 1062 : 
; 1063 : 					if ((btExcellentOption & 1) == 1)

  01212	a8 01		 test	 al, 1
  01214	74 07		 je	 SHORT $LN3@JGPGetChar

; 1064 : 					{
; 1065 : 						pCList.CharSet[16] |= 0x01;

  01216	c6 85 e7 fe ff
	ff 01		 mov	 BYTE PTR _pCList$[ebp+31], 1
$LN3@JGPGetChar:

; 1066 : 					}
; 1067 : 
; 1068 : 					if ((btExcellentOption & 2) == 2)

  0121d	a8 02		 test	 al, 2
  0121f	74 07		 je	 SHORT $LN2@JGPGetChar

; 1069 : 					{
; 1070 : 						pCList.CharSet[16] |= 0x02;

  01221	80 8d e7 fe ff
	ff 02		 or	 BYTE PTR _pCList$[ebp+31], 2
$LN2@JGPGetChar:

; 1071 : 					}
; 1072 : 				}
; 1073 : 
; 1074 : 				if ( TempInventory[7] >= 100 && TempInventory[7] <= 130 )

  01228	8b 85 be fe ff
	ff		 mov	 eax, DWORD PTR _TempInventory$[ebp+14]
  0122e	83 c0 9c	 add	 eax, -100		; ffffff9cH
  01231	66 83 f8 1e	 cmp	 ax, 30			; 0000001eH
  01235	77 14		 ja	 SHORT $LN1@JGPGetChar

; 1075 : 				{
; 1076 : 					pCList.CharSet[5] |= CS_SET_WING1(3);

  01237	80 8d dc fe ff
	ff 0c		 or	 BYTE PTR _pCList$[ebp+20], 12 ; 0000000cH

; 1077 : 					pCList.CharSet[17] |= (BYTE)(TempInventory[7] - 100 + 1) << 2;

  0123e	80 c2 1d	 add	 dl, 29			; 0000001dH
  01241	02 d2		 add	 dl, dl
  01243	02 d2		 add	 dl, dl
  01245	88 95 e8 fe ff
	ff		 mov	 BYTE PTR _pCList$[ebp+32], dl
$LN1@JGPGetChar:

; 1078 : 				}
; 1079 : 			}
; 1080 : 
; 1081 : 			memcpy(&sendbuf[lOfs], &pCList, sizeof(pCList));

  0124b	8b 85 94 fe ff
	ff		 mov	 eax, DWORD PTR _lOfs$[ebp]

; 1082 : 			lsOfs += sizeof(SDHP_CHARLIST);

  01251	83 85 98 fe ff
	ff 42		 add	 DWORD PTR _lsOfs$[ebp], 66 ; 00000042H
  01258	8d bc 05 f0 fe
	ff ff		 lea	 edi, DWORD PTR _sendbuf$[ebp+eax]
  0125f	b9 08 00 00 00	 mov	 ecx, 8
  01264	8d b5 c8 fe ff
	ff		 lea	 esi, DWORD PTR _pCList$[ebp]
  0126a	f3 a5		 rep movsd

; 1083 : 			lOfs += sizeof(pCList);

  0126c	83 c0 22	 add	 eax, 34			; 00000022H
  0126f	89 85 94 fe ff
	ff		 mov	 DWORD PTR _lOfs$[ebp], eax
  01275	8b 85 90 fe ff
	ff		 mov	 eax, DWORD PTR _n$157950[ebp]
  0127b	40		 inc	 eax
  0127c	66 a5		 movsw
  0127e	89 85 90 fe ff
	ff		 mov	 DWORD PTR _n$157950[ebp], eax
  01284	3b 85 7c fe ff
	ff		 cmp	 eax, DWORD PTR $T160316[ebp]
  0128a	0f 8c a0 ee ff
	ff		 jl	 $LL130@JGPGetChar

; 461  : 	{
; 462  : 		for (int n = 0; n < pCLCount.Count; n++)

  01290	8b b5 80 fe ff
	ff		 mov	 esi, DWORD PTR _aIndex$[ebp]
  01296	5f		 pop	 edi
$LN128@JGPGetChar:

; 1084 : 		}
; 1085 : 	}
; 1086 : 
; 1087 : 	pCLCount.h.size = lOfs;

  01297	8b 85 94 fe ff
	ff		 mov	 eax, DWORD PTR _lOfs$[ebp]

; 1088 : 	memcpy(sendbuf, &pCLCount, sizeof(PMSG_CHARLISTCOUNT));

  0129d	66 8b 95 a4 fe
	ff ff		 mov	 dx, WORD PTR _pCLCount$[ebp+4]
  012a4	88 85 a1 fe ff
	ff		 mov	 BYTE PTR _pCLCount$[ebp+1], al
  012aa	8b 8d a0 fe ff
	ff		 mov	 ecx, DWORD PTR _pCLCount$[ebp]
  012b0	66 89 95 f4 fe
	ff ff		 mov	 WORD PTR _sendbuf$[ebp+4], dx

; 1089 : 	DataSend(aIndex, sendbuf, lOfs);

  012b7	50		 push	 eax
  012b8	8d 95 f0 fe ff
	ff		 lea	 edx, DWORD PTR _sendbuf$[ebp]
  012be	89 8d f0 fe ff
	ff		 mov	 DWORD PTR _sendbuf$[ebp], ecx
  012c4	8a 8d a6 fe ff
	ff		 mov	 cl, BYTE PTR _pCLCount$[ebp+6]
  012ca	52		 push	 edx
  012cb	56		 push	 esi
  012cc	88 8d f6 fe ff
	ff		 mov	 BYTE PTR _sendbuf$[ebp+6], cl
  012d2	e8 00 00 00 00	 call	 ?DataSend@@YAHHPAEK@Z	; DataSend

; 1090 : }

  012d7	8b 4d fc	 mov	 ecx, DWORD PTR __$ArrayPad$[ebp]
  012da	83 c4 0c	 add	 esp, 12			; 0000000cH
  012dd	5e		 pop	 esi
  012de	33 cd		 xor	 ecx, ebp
  012e0	5b		 pop	 ebx
  012e1	e8 00 00 00 00	 call	 @__security_check_cookie@4
  012e6	8b e5		 mov	 esp, ebp
  012e8	5d		 pop	 ebp
  012e9	c3		 ret	 0
?JGPGetCharList@@YAXPAE@Z ENDP				; JGPGetCharList
_TEXT	ENDS
PUBLIC	??_C@_0P@DNGOKBGI@DSProtocol?4cpp?$AA@		; `string'
PUBLIC	__$ArrayPad$
PUBLIC	?DataServerGetCharListRequest@@YAXF@Z		; DataServerGetCharListRequest
EXTRN	?gObjGetAccountId@@YAPADH@Z:PROC		; gObjGetAccountId
;	COMDAT ??_C@_0P@DNGOKBGI@DSProtocol?4cpp?$AA@
CONST	SEGMENT
??_C@_0P@DNGOKBGI@DSProtocol?4cpp?$AA@ DB 'DSProtocol.cpp', 00H ; `string'
; Function compile flags: /Ogtp
CONST	ENDS
;	COMDAT ?DataServerGetCharListRequest@@YAXF@Z
_TEXT	SEGMENT
_pMsg$ = -32						; size = 16
_TempId$ = -16						; size = 11
__$ArrayPad$ = -4					; size = 4
_aIndex$ = 8						; size = 2
?DataServerGetCharListRequest@@YAXF@Z PROC		; DataServerGetCharListRequest, COMDAT

; 1107 : {

  00000	55		 push	 ebp
  00001	8b ec		 mov	 ebp, esp
  00003	83 ec 20	 sub	 esp, 32			; 00000020H
  00006	a1 00 00 00 00	 mov	 eax, DWORD PTR ___security_cookie
  0000b	33 c5		 xor	 eax, ebp
  0000d	89 45 fc	 mov	 DWORD PTR __$ArrayPad$[ebp], eax
  00010	53		 push	 ebx
  00011	0f b7 5d 08	 movzx	 ebx, WORD PTR _aIndex$[ebp]
  00015	56		 push	 esi

; 1108 : 	SDHP_GETCHARLIST pMsg;
; 1109 : 	char TempId[11];
; 1110 : 	char* AccountId;
; 1111 : 
; 1112 : 	memset(TempId, 0, sizeof(TempId));

  00016	33 c0		 xor	 eax, eax

; 1113 : 	AccountId = gObjGetAccountId(aIndex);

  00018	0f bf f3	 movsx	 esi, bx
  0001b	56		 push	 esi
  0001c	89 45 f0	 mov	 DWORD PTR _TempId$[ebp], eax
  0001f	89 45 f4	 mov	 DWORD PTR _TempId$[ebp+4], eax
  00022	66 89 45 f8	 mov	 WORD PTR _TempId$[ebp+8], ax
  00026	88 45 fa	 mov	 BYTE PTR _TempId$[ebp+10], al
  00029	e8 00 00 00 00	 call	 ?gObjGetAccountId@@YAPADH@Z ; gObjGetAccountId
  0002e	83 c4 04	 add	 esp, 4

; 1114 : 
; 1115 : 	if ( AccountId == 0 )

  00031	85 c0		 test	 eax, eax
  00033	75 3a		 jne	 SHORT $LN2@DataServer@3

; 1116 : 	{
; 1117 : 		LogAdd(LOG_BLACK, lMsg.Get(MSGGET(1, 166)), __FILE__, __LINE__);

  00035	68 5d 04 00 00	 push	 1117			; 0000045dH
  0003a	68 00 00 00 00	 push	 OFFSET ??_C@_0P@DNGOKBGI@DSProtocol?4cpp?$AA@
  0003f	68 a6 01 00 00	 push	 422			; 000001a6H
$LN8@DataServer@3:
  00044	b9 00 00 00 00	 mov	 ecx, OFFSET ?lMsg@@3VCMsg@@A ; lMsg
  00049	e8 00 00 00 00	 call	 ?Get@CMsg@@QAEPADH@Z	; CMsg::Get
  0004e	50		 push	 eax
  0004f	6a 00		 push	 0
  00051	e8 00 00 00 00	 call	 ?LogAdd@@YAXW4eLogColor@@PADZZ ; LogAdd

; 1118 : 		CloseClient(aIndex);

  00056	56		 push	 esi
  00057	e8 00 00 00 00	 call	 ?CloseClient@@YAXH@Z	; CloseClient
  0005c	83 c4 14	 add	 esp, 20			; 00000014H
  0005f	5e		 pop	 esi
  00060	5b		 pop	 ebx

; 1137 : 	
; 1138 : }

  00061	8b 4d fc	 mov	 ecx, DWORD PTR __$ArrayPad$[ebp]
  00064	33 cd		 xor	 ecx, ebp
  00066	e8 00 00 00 00	 call	 @__security_check_cookie@4
  0006b	8b e5		 mov	 esp, ebp
  0006d	5d		 pop	 ebp
  0006e	c3		 ret	 0
$LN2@DataServer@3:

; 1119 : 		return;
; 1120 : 	}
; 1121 : 	if ( strlen(AccountId) < 1 )

  0006f	8b c8		 mov	 ecx, eax
  00071	57		 push	 edi
  00072	8d 79 01	 lea	 edi, DWORD PTR [ecx+1]
$LL7@DataServer@3:
  00075	8a 11		 mov	 dl, BYTE PTR [ecx]
  00077	41		 inc	 ecx
  00078	84 d2		 test	 dl, dl
  0007a	75 f9		 jne	 SHORT $LL7@DataServer@3
  0007c	2b cf		 sub	 ecx, edi
  0007e	5f		 pop	 edi
  0007f	83 f9 01	 cmp	 ecx, 1
  00082	73 11		 jae	 SHORT $LN1@DataServer@3

; 1122 : 	{
; 1123 : 		LogAdd(LOG_BLACK, lMsg.Get(MSGGET(1, 167)), __FILE__, __LINE__);

  00084	68 63 04 00 00	 push	 1123			; 00000463H
  00089	68 00 00 00 00	 push	 OFFSET ??_C@_0P@DNGOKBGI@DSProtocol?4cpp?$AA@
  0008e	68 a7 01 00 00	 push	 423			; 000001a7H

; 1124 : 		CloseClient(aIndex);
; 1125 : 		return;

  00093	eb af		 jmp	 SHORT $LN8@DataServer@3
$LN1@DataServer@3:

; 1126 : 	}
; 1127 : 
; 1128 : 	strcpy((char*)TempId, AccountId);

  00095	8d 55 f0	 lea	 edx, DWORD PTR _TempId$[ebp]
  00098	2b d0		 sub	 edx, eax
  0009a	8d 9b 00 00 00
	00		 npad	 6
$LL5@DataServer@3:
  000a0	8a 08		 mov	 cl, BYTE PTR [eax]
  000a2	88 0c 02	 mov	 BYTE PTR [edx+eax], cl
  000a5	40		 inc	 eax
  000a6	84 c9		 test	 cl, cl
  000a8	75 f6		 jne	 SHORT $LL5@DataServer@3

; 1129 : 
; 1130 : 	pMsg.h.c  = 0xC1;
; 1131 : 	pMsg.h.size  = sizeof(SDHP_GETCHARLIST);
; 1132 : 	pMsg.h.headcode = 0x01;
; 1133 : 	pMsg.Number = aIndex;
; 1134 : 	memcpy(pMsg.Id , TempId, sizeof(TempId)-1);

  000aa	8b 45 f0	 mov	 eax, DWORD PTR _TempId$[ebp]
  000ad	8b 4d f4	 mov	 ecx, DWORD PTR _TempId$[ebp+4]
  000b0	66 8b 55 f8	 mov	 dx, WORD PTR _TempId$[ebp+8]
  000b4	89 45 e3	 mov	 DWORD PTR _pMsg$[ebp+3], eax

; 1135 : 
; 1136 : 	cDBSMng.Send((char*)&pMsg, pMsg.h.size);

  000b7	6a 10		 push	 16			; 00000010H
  000b9	8d 45 e0	 lea	 eax, DWORD PTR _pMsg$[ebp]
  000bc	89 4d e7	 mov	 DWORD PTR _pMsg$[ebp+7], ecx
  000bf	50		 push	 eax
  000c0	b9 00 00 00 00	 mov	 ecx, OFFSET ?cDBSMng@@3VDBSockMng@@A ; cDBSMng
  000c5	66 c7 45 e0 c1
	10		 mov	 WORD PTR _pMsg$[ebp], 4289 ; 000010c1H
  000cb	c6 45 e2 01	 mov	 BYTE PTR _pMsg$[ebp+2], 1
  000cf	66 89 5d ee	 mov	 WORD PTR _pMsg$[ebp+14], bx
  000d3	66 89 55 eb	 mov	 WORD PTR _pMsg$[ebp+11], dx
  000d7	e8 00 00 00 00	 call	 ?Send@DBSockMng@@QAEHPADH@Z ; DBSockMng::Send

; 1137 : 	
; 1138 : }

  000dc	8b 4d fc	 mov	 ecx, DWORD PTR __$ArrayPad$[ebp]
  000df	5e		 pop	 esi
  000e0	33 cd		 xor	 ecx, ebp
  000e2	5b		 pop	 ebx
  000e3	e8 00 00 00 00	 call	 @__security_check_cookie@4
  000e8	8b e5		 mov	 esp, ebp
  000ea	5d		 pop	 ebp
  000eb	c3		 ret	 0
?DataServerGetCharListRequest@@YAXF@Z ENDP		; DataServerGetCharListRequest
_TEXT	ENDS
PUBLIC	__$ArrayPad$
PUBLIC	?JGCharacterCreateRequest@@YAXPAUSDHP_CREATECHARRESULT@@@Z ; JGCharacterCreateRequest
; Function compile flags: /Ogtp
;	COMDAT ?JGCharacterCreateRequest@@YAXPAUSDHP_CREATECHARRESULT@@@Z
_TEXT	SEGMENT
_pResult$ = -60						; size = 44
_szAccountID$ = -16					; size = 11
__$ArrayPad$ = -4					; size = 4
_lpMsg$ = 8						; size = 4
?JGCharacterCreateRequest@@YAXPAUSDHP_CREATECHARRESULT@@@Z PROC ; JGCharacterCreateRequest, COMDAT

; 1163 : {

  00000	55		 push	 ebp
  00001	8b ec		 mov	 ebp, esp
  00003	83 ec 3c	 sub	 esp, 60			; 0000003cH
  00006	a1 00 00 00 00	 mov	 eax, DWORD PTR ___security_cookie
  0000b	33 c5		 xor	 eax, ebp
  0000d	89 45 fc	 mov	 DWORD PTR __$ArrayPad$[ebp], eax
  00010	56		 push	 esi
  00011	8b 75 08	 mov	 esi, DWORD PTR _lpMsg$[ebp]

; 1164 : 	PMSG_CHARCREATERESULT pResult;
; 1165 : 	char szAccountID[MAX_ACCOUNT_LEN+1];
; 1166 : 	int aIndex = lpMsg->Number;
; 1167 : 
; 1168 : 	szAccountID[MAX_ACCOUNT_LEN] = 0;
; 1169 : 	memcpy(szAccountID, lpMsg->AccountId, sizeof(lpMsg->AccountId));

  00014	8b 46 06	 mov	 eax, DWORD PTR [esi+6]
  00017	8b 4e 0a	 mov	 ecx, DWORD PTR [esi+10]
  0001a	66 8b 56 0e	 mov	 dx, WORD PTR [esi+14]
  0001e	57		 push	 edi
  0001f	0f bf 7e 04	 movsx	 edi, WORD PTR [esi+4]
  00023	89 45 f0	 mov	 DWORD PTR _szAccountID$[ebp], eax

; 1170 : 
; 1171 : 	if ( gObjIsAccontConnect(aIndex, szAccountID) == FALSE )

  00026	8d 45 f0	 lea	 eax, DWORD PTR _szAccountID$[ebp]
  00029	50		 push	 eax
  0002a	57		 push	 edi
  0002b	c6 45 fa 00	 mov	 BYTE PTR _szAccountID$[ebp+10], 0
  0002f	89 4d f4	 mov	 DWORD PTR _szAccountID$[ebp+4], ecx
  00032	66 89 55 f8	 mov	 WORD PTR _szAccountID$[ebp+8], dx
  00036	e8 00 00 00 00	 call	 ?gObjIsAccontConnect@@YAHHPAD@Z ; gObjIsAccontConnect
  0003b	83 c4 08	 add	 esp, 8
  0003e	85 c0		 test	 eax, eax
  00040	75 34		 jne	 SHORT $LN2@JGCharacte

; 1172 : 	{
; 1173 : 		LogAdd(LOG_RED,  lMsg.Get(MSGGET(1, 168)), szAccountID);

  00042	8d 4d f0	 lea	 ecx, DWORD PTR _szAccountID$[ebp]
  00045	51		 push	 ecx
  00046	68 a8 01 00 00	 push	 424			; 000001a8H
  0004b	b9 00 00 00 00	 mov	 ecx, OFFSET ?lMsg@@3VCMsg@@A ; lMsg
  00050	e8 00 00 00 00	 call	 ?Get@CMsg@@QAEPADH@Z	; CMsg::Get
  00055	50		 push	 eax
  00056	6a 01		 push	 1
  00058	e8 00 00 00 00	 call	 ?LogAdd@@YAXW4eLogColor@@PADZZ ; LogAdd

; 1174 : 		CloseClient(aIndex);

  0005d	57		 push	 edi
  0005e	e8 00 00 00 00	 call	 ?CloseClient@@YAXH@Z	; CloseClient
  00063	83 c4 10	 add	 esp, 16			; 00000010H
  00066	5f		 pop	 edi
  00067	5e		 pop	 esi

; 1196 : }

  00068	8b 4d fc	 mov	 ecx, DWORD PTR __$ArrayPad$[ebp]
  0006b	33 cd		 xor	 ecx, ebp
  0006d	e8 00 00 00 00	 call	 @__security_check_cookie@4
  00072	8b e5		 mov	 esp, ebp
  00074	5d		 pop	 ebp
  00075	c3		 ret	 0
$LN2@JGCharacte:

; 1175 : 		return;
; 1176 : 	}
; 1177 : 
; 1178 : 	pResult.h.c = 0xC1;
; 1179 : 	pResult.h.size = sizeof(PMSG_CHARCREATERESULT);
; 1180 : 	pResult.h.headcode = 0xF3;
; 1181 : 	pResult.subcode = 0x01;
; 1182 : 	pResult.Result = lpMsg->Result;
; 1183 : 	pResult.pos = lpMsg->Pos;

  00076	8a 56 1a	 mov	 dl, BYTE PTR [esi+26]

; 1184 : 	pResult.Class = (lpMsg->ClassSkin >> 4 << 5) & 0xE0;
; 1185 : 	int changeup = lpMsg->ClassSkin & 0x07; 

  00079	8a 46 1b	 mov	 al, BYTE PTR [esi+27]
  0007c	8a 4e 03	 mov	 cl, BYTE PTR [esi+3]
  0007f	88 55 d3	 mov	 BYTE PTR _pResult$[ebp+15], dl

; 1186 : 	pResult.Class |= (changeup << 4) & 0x10;

  00082	8a d0		 mov	 dl, al
  00084	80 e2 01	 and	 dl, 1
  00087	02 d2		 add	 dl, dl
  00089	02 d2		 add	 dl, dl
  0008b	02 d2		 add	 dl, dl
  0008d	24 f0		 and	 al, 240			; 000000f0H
  0008f	0a d0		 or	 dl, al

; 1187 : 	pResult.Level = lpMsg->Level;

  00091	66 8b 46 34	 mov	 ax, WORD PTR [esi+52]
  00095	02 d2		 add	 dl, dl
  00097	88 55 d6	 mov	 BYTE PTR _pResult$[ebp+18], dl

; 1188 : 	memcpy(pResult.Name, lpMsg->Name, sizeof(pResult.Name));

  0009a	8b 56 10	 mov	 edx, DWORD PTR [esi+16]
  0009d	66 89 45 d4	 mov	 WORD PTR _pResult$[ebp+16], ax
  000a1	8b 46 14	 mov	 eax, DWORD PTR [esi+20]
  000a4	89 55 c9	 mov	 DWORD PTR _pResult$[ebp+5], edx
  000a7	66 8b 56 18	 mov	 dx, WORD PTR [esi+24]
  000ab	c7 45 c4 c1 2c
	f3 01		 mov	 DWORD PTR _pResult$[ebp], 32713921 ; 01f32cc1H
  000b2	88 4d c8	 mov	 BYTE PTR _pResult$[ebp+4], cl
  000b5	89 45 cd	 mov	 DWORD PTR _pResult$[ebp+9], eax
  000b8	66 89 55 d1	 mov	 WORD PTR _pResult$[ebp+13], dx

; 1189 : 
; 1190 : 	if ( pResult.Result == 1 )

  000bc	80 f9 01	 cmp	 cl, 1
  000bf	75 24		 jne	 SHORT $LN1@JGCharacte

; 1191 : 	{
; 1192 : 		memcpy(pResult.Equipment, lpMsg->Equipment, sizeof(pResult.Equipment));

  000c1	8b 46 1c	 mov	 eax, DWORD PTR [esi+28]
  000c4	8b 4e 20	 mov	 ecx, DWORD PTR [esi+32]
  000c7	8b 56 24	 mov	 edx, DWORD PTR [esi+36]
  000ca	89 45 d7	 mov	 DWORD PTR _pResult$[ebp+19], eax
  000cd	8b 46 28	 mov	 eax, DWORD PTR [esi+40]
  000d0	89 4d db	 mov	 DWORD PTR _pResult$[ebp+23], ecx
  000d3	8b 4e 2c	 mov	 ecx, DWORD PTR [esi+44]
  000d6	89 55 df	 mov	 DWORD PTR _pResult$[ebp+27], edx
  000d9	8b 56 30	 mov	 edx, DWORD PTR [esi+48]
  000dc	89 45 e3	 mov	 DWORD PTR _pResult$[ebp+31], eax
  000df	89 4d e7	 mov	 DWORD PTR _pResult$[ebp+35], ecx
  000e2	89 55 eb	 mov	 DWORD PTR _pResult$[ebp+39], edx
$LN1@JGCharacte:

; 1193 : 	}
; 1194 : 
; 1195 : 	DataSend(aIndex, (LPBYTE)&pResult, pResult.h.size);

  000e5	6a 2c		 push	 44			; 0000002cH
  000e7	8d 45 c4	 lea	 eax, DWORD PTR _pResult$[ebp]
  000ea	50		 push	 eax
  000eb	57		 push	 edi
  000ec	e8 00 00 00 00	 call	 ?DataSend@@YAHHPAEK@Z	; DataSend

; 1196 : }

  000f1	8b 4d fc	 mov	 ecx, DWORD PTR __$ArrayPad$[ebp]
  000f4	83 c4 0c	 add	 esp, 12			; 0000000cH
  000f7	5f		 pop	 edi
  000f8	33 cd		 xor	 ecx, ebp
  000fa	5e		 pop	 esi
  000fb	e8 00 00 00 00	 call	 @__security_check_cookie@4
  00100	8b e5		 mov	 esp, ebp
  00102	5d		 pop	 ebp
  00103	c3		 ret	 0
?JGCharacterCreateRequest@@YAXPAUSDHP_CREATECHARRESULT@@@Z ENDP ; JGCharacterCreateRequest
_TEXT	ENDS
PUBLIC	__$ArrayPad$
PUBLIC	?JGCharacterCreateFailSend@@YAXHPAD@Z		; JGCharacterCreateFailSend
; Function compile flags: /Ogtp
;	COMDAT ?JGCharacterCreateFailSend@@YAXHPAD@Z
_TEXT	SEGMENT
_pResult$ = -48						; size = 44
__$ArrayPad$ = -4					; size = 4
_aIndex$ = 8						; size = 4
_id$ = 12						; size = 4
?JGCharacterCreateFailSend@@YAXHPAD@Z PROC		; JGCharacterCreateFailSend, COMDAT

; 1199 : {

  00000	55		 push	 ebp
  00001	8b ec		 mov	 ebp, esp
  00003	83 ec 30	 sub	 esp, 48			; 00000030H
  00006	a1 00 00 00 00	 mov	 eax, DWORD PTR ___security_cookie
  0000b	33 c5		 xor	 eax, ebp
  0000d	89 45 fc	 mov	 DWORD PTR __$ArrayPad$[ebp], eax
  00010	8b 45 0c	 mov	 eax, DWORD PTR _id$[ebp]

; 1200 : 	PMSG_CHARCREATERESULT  pResult;
; 1201 : 
; 1202 : 	pResult.h.c = 0xC1;
; 1203 : 	pResult.h.size = sizeof (PMSG_CHARCREATERESULT);
; 1204 : 	pResult.h.headcode = 0xF3;
; 1205 : 	pResult.subcode = 0x01;
; 1206 : 	pResult.Result = false;
; 1207 : 	pResult.pos = 0;
; 1208 : 	memcpy(pResult.Name, id, sizeof(pResult.Name));

  00013	8b 50 04	 mov	 edx, DWORD PTR [eax+4]
  00016	32 c9		 xor	 cl, cl
  00018	88 4d d4	 mov	 BYTE PTR _pResult$[ebp+4], cl
  0001b	88 4d df	 mov	 BYTE PTR _pResult$[ebp+15], cl
  0001e	8b 08		 mov	 ecx, DWORD PTR [eax]
  00020	66 8b 40 08	 mov	 ax, WORD PTR [eax+8]
  00024	89 4d d5	 mov	 DWORD PTR _pResult$[ebp+5], ecx

; 1209 : 
; 1210 : 	DataSend(aIndex, (UCHAR*)&pResult, pResult.h.size);

  00027	6a 2c		 push	 44			; 0000002cH
  00029	8d 4d d0	 lea	 ecx, DWORD PTR _pResult$[ebp]
  0002c	89 55 d9	 mov	 DWORD PTR _pResult$[ebp+9], edx
  0002f	8b 55 08	 mov	 edx, DWORD PTR _aIndex$[ebp]
  00032	51		 push	 ecx
  00033	52		 push	 edx
  00034	c7 45 d0 c1 2c
	f3 01		 mov	 DWORD PTR _pResult$[ebp], 32713921 ; 01f32cc1H
  0003b	66 89 45 dd	 mov	 WORD PTR _pResult$[ebp+13], ax
  0003f	e8 00 00 00 00	 call	 ?DataSend@@YAHHPAEK@Z	; DataSend

; 1211 : }

  00044	8b 4d fc	 mov	 ecx, DWORD PTR __$ArrayPad$[ebp]
  00047	33 cd		 xor	 ecx, ebp
  00049	83 c4 0c	 add	 esp, 12			; 0000000cH
  0004c	e8 00 00 00 00	 call	 @__security_check_cookie@4
  00051	8b e5		 mov	 esp, ebp
  00053	5d		 pop	 ebp
  00054	c3		 ret	 0
?JGCharacterCreateFailSend@@YAXHPAD@Z ENDP		; JGCharacterCreateFailSend
_TEXT	ENDS
PUBLIC	__$ArrayPad$
PUBLIC	?JGCharDelRequest@@YAXPAUSDHP_CHARDELETERESULT@@@Z ; JGCharDelRequest
; Function compile flags: /Ogtp
;	COMDAT ?JGCharDelRequest@@YAXPAUSDHP_CHARDELETERESULT@@@Z
_TEXT	SEGMENT
_pResult$ = -24						; size = 5
_szAccountId$ = -16					; size = 11
__$ArrayPad$ = -4					; size = 4
_lpMsg$ = 8						; size = 4
?JGCharDelRequest@@YAXPAUSDHP_CHARDELETERESULT@@@Z PROC	; JGCharDelRequest, COMDAT

; 1214 : {

  00000	55		 push	 ebp
  00001	8b ec		 mov	 ebp, esp
  00003	83 ec 18	 sub	 esp, 24			; 00000018H
  00006	a1 00 00 00 00	 mov	 eax, DWORD PTR ___security_cookie
  0000b	33 c5		 xor	 eax, ebp
  0000d	89 45 fc	 mov	 DWORD PTR __$ArrayPad$[ebp], eax
  00010	56		 push	 esi
  00011	8b 75 08	 mov	 esi, DWORD PTR _lpMsg$[ebp]

; 1215 : 	PMSG_RESULT pResult;
; 1216 : 	char szAccountId[MAX_ACCOUNT_LEN+1];
; 1217 : 	int aIndex = lpMsg->Number;
; 1218 : 	szAccountId[MAX_ACCOUNT_LEN] = 0;
; 1219 : 	memcpy(szAccountId, lpMsg->AccountID, sizeof(lpMsg->AccountID));

  00014	8b 46 06	 mov	 eax, DWORD PTR [esi+6]
  00017	8b 4e 0a	 mov	 ecx, DWORD PTR [esi+10]
  0001a	66 8b 56 0e	 mov	 dx, WORD PTR [esi+14]
  0001e	57		 push	 edi
  0001f	0f bf 7e 04	 movsx	 edi, WORD PTR [esi+4]
  00023	89 45 f0	 mov	 DWORD PTR _szAccountId$[ebp], eax

; 1220 : 
; 1221 : 	if ( ::gObjIsAccontConnect(aIndex, szAccountId) == FALSE )

  00026	8d 45 f0	 lea	 eax, DWORD PTR _szAccountId$[ebp]
  00029	50		 push	 eax
  0002a	57		 push	 edi
  0002b	c6 45 fa 00	 mov	 BYTE PTR _szAccountId$[ebp+10], 0
  0002f	89 4d f4	 mov	 DWORD PTR _szAccountId$[ebp+4], ecx
  00032	66 89 55 f8	 mov	 WORD PTR _szAccountId$[ebp+8], dx
  00036	e8 00 00 00 00	 call	 ?gObjIsAccontConnect@@YAHHPAD@Z ; gObjIsAccontConnect
  0003b	83 c4 08	 add	 esp, 8
  0003e	85 c0		 test	 eax, eax
  00040	75 34		 jne	 SHORT $LN1@JGCharDelR

; 1222 : 	{
; 1223 : 		LogAdd(LOG_RED,  lMsg.Get(MSGGET(1, 169)), szAccountId);

  00042	8d 4d f0	 lea	 ecx, DWORD PTR _szAccountId$[ebp]
  00045	51		 push	 ecx
  00046	68 a9 01 00 00	 push	 425			; 000001a9H
  0004b	b9 00 00 00 00	 mov	 ecx, OFFSET ?lMsg@@3VCMsg@@A ; lMsg
  00050	e8 00 00 00 00	 call	 ?Get@CMsg@@QAEPADH@Z	; CMsg::Get
  00055	50		 push	 eax
  00056	6a 01		 push	 1
  00058	e8 00 00 00 00	 call	 ?LogAdd@@YAXW4eLogColor@@PADZZ ; LogAdd

; 1224 : 		CloseClient(aIndex);

  0005d	57		 push	 edi
  0005e	e8 00 00 00 00	 call	 ?CloseClient@@YAXH@Z	; CloseClient
  00063	83 c4 10	 add	 esp, 16			; 00000010H
  00066	5f		 pop	 edi
  00067	5e		 pop	 esi

; 1236 : }

  00068	8b 4d fc	 mov	 ecx, DWORD PTR __$ArrayPad$[ebp]
  0006b	33 cd		 xor	 ecx, ebp
  0006d	e8 00 00 00 00	 call	 @__security_check_cookie@4
  00072	8b e5		 mov	 esp, ebp
  00074	5d		 pop	 ebp
  00075	c3		 ret	 0
$LN1@JGCharDelR:

; 1225 : 
; 1226 : 		return;
; 1227 : 	}
; 1228 : 
; 1229 : 	pResult.h.c = 0xC1;
; 1230 : 	pResult.h.size = sizeof(PMSG_RESULT);
; 1231 : 	pResult.h.headcode = 0xF3;
; 1232 : 	pResult.subcode = 0x02;
; 1233 : 	pResult.result = lpMsg->Result;
; 1234 : 
; 1235 : 	DataSend(lpMsg->Number, (UCHAR*)&pResult, pResult.h.size);

  00076	0f bf 4e 04	 movsx	 ecx, WORD PTR [esi+4]
  0007a	8a 56 03	 mov	 dl, BYTE PTR [esi+3]
  0007d	6a 05		 push	 5
  0007f	8d 45 e8	 lea	 eax, DWORD PTR _pResult$[ebp]
  00082	50		 push	 eax
  00083	51		 push	 ecx
  00084	c7 45 e8 c1 05
	f3 02		 mov	 DWORD PTR _pResult$[ebp], 49481153 ; 02f305c1H
  0008b	88 55 ec	 mov	 BYTE PTR _pResult$[ebp+4], dl
  0008e	e8 00 00 00 00	 call	 ?DataSend@@YAHHPAEK@Z	; DataSend

; 1236 : }

  00093	8b 4d fc	 mov	 ecx, DWORD PTR __$ArrayPad$[ebp]
  00096	83 c4 0c	 add	 esp, 12			; 0000000cH
  00099	5f		 pop	 edi
  0009a	33 cd		 xor	 ecx, ebp
  0009c	5e		 pop	 esi
  0009d	e8 00 00 00 00	 call	 @__security_check_cookie@4
  000a2	8b e5		 mov	 esp, ebp
  000a4	5d		 pop	 ebp
  000a5	c3		 ret	 0
?JGCharDelRequest@@YAXPAUSDHP_CHARDELETERESULT@@@Z ENDP	; JGCharDelRequest
_TEXT	ENDS
PUBLIC	_aIndex$GSCopy$
PUBLIC	__$ArrayPad$
PUBLIC	?GCItemListSend@@YAXH@Z				; GCItemListSend
EXTRN	?ItemByteConvert@@YAXPAEVCItem@@@Z:PROC		; ItemByteConvert
EXTRN	?IsItem@CItem@@QAEHXZ:PROC			; CItem::IsItem
; Function compile flags: /Ogtp
;	COMDAT ?GCItemListSend@@YAXH@Z
_TEXT	SEGMENT
_aIndex$GSCopy$ = -2084					; size = 4
tv206 = -2080						; size = 4
_itemcount$ = -2076					; size = 4
_n$158351 = -2072					; size = 4
_pMsgILC$ = -2068					; size = 6
_lpObj$ = -2068						; size = 4
_pMsgIL$ = -2060					; size = 8
_sendBuf$ = -2052					; size = 2048
__$ArrayPad$ = -4					; size = 4
_aIndex$ = 8						; size = 4
?GCItemListSend@@YAXH@Z PROC				; GCItemListSend, COMDAT

; 1489 : {

  00000	55		 push	 ebp
  00001	8b ec		 mov	 ebp, esp
  00003	81 ec 24 08 00
	00		 sub	 esp, 2084		; 00000824H
  00009	a1 00 00 00 00	 mov	 eax, DWORD PTR ___security_cookie
  0000e	33 c5		 xor	 eax, ebp
  00010	89 45 fc	 mov	 DWORD PTR __$ArrayPad$[ebp], eax
  00013	53		 push	 ebx
  00014	56		 push	 esi
  00015	57		 push	 edi
  00016	8b 7d 08	 mov	 edi, DWORD PTR _aIndex$[ebp]

; 1490 : 	PMSG_INVENTORYLISTCOUNT pMsgILC;	// Packet Message Item List Count
; 1491 : 	PMSG_INVENTORYLIST pMsgIL;	// Packet Message Item List
; 1492 : 	int sOfs = sizeof(PMSG_INVENTORYLISTCOUNT);
; 1493 : 	int pMsgILSize = sizeof(PMSG_INVENTORYLIST);
; 1494 : 	BYTE sendBuf[2048];
; 1495 : 	LPOBJ lpObj = &gObj[aIndex];

  00019	89 bd dc f7 ff
	ff		 mov	 DWORD PTR _aIndex$GSCopy$[ebp], edi
  0001f	69 ff 64 15 00
	00		 imul	 edi, 5476		; 00001564H
  00025	81 c7 00 00 00
	00		 add	 edi, OFFSET ?gObj@@3PAUOBJECTSTRUCT@@A ; gObj

; 1496 : 	int itemcount = 0;

  0002b	33 f6		 xor	 esi, esi
  0002d	bb 06 00 00 00	 mov	 ebx, 6
  00032	89 bd ec f7 ff
	ff		 mov	 DWORD PTR _lpObj$[ebp], edi
  00038	89 b5 e4 f7 ff
	ff		 mov	 DWORD PTR _itemcount$[ebp], esi

; 1497 : 	
; 1498 : 	for ( int n=0;n<INVENTORY_SIZE;n++)

  0003e	89 b5 e8 f7 ff
	ff		 mov	 DWORD PTR _n$158351[ebp], esi

; 1511 : 			sOfs += pMsgILSize;

  00044	89 b5 e0 f7 ff
	ff		 mov	 DWORD PTR tv206[ebp], esi
  0004a	8d 9b 00 00 00
	00		 npad	 6
$LL5@GCItemList:

; 1499 : 	{
; 1500 : 		if ( lpObj->pInventory[n].IsItem() == TRUE )

  00050	8b 8f 8c 0c 00
	00		 mov	 ecx, DWORD PTR [edi+3212]
  00056	03 ce		 add	 ecx, esi
  00058	e8 00 00 00 00	 call	 ?IsItem@CItem@@QAEHXZ	; CItem::IsItem
  0005d	83 f8 01	 cmp	 eax, 1
  00060	75 6c		 jne	 SHORT $LN4@GCItemList

; 1501 : 		{
; 1502 : 			if ( lpObj->pInventory[n].m_bItemExist == false )

  00062	8b 87 8c 0c 00
	00		 mov	 eax, DWORD PTR [edi+3212]
  00068	03 c6		 add	 eax, esi
  0006a	80 78 6c 00	 cmp	 BYTE PTR [eax+108], 0
  0006e	74 5e		 je	 SHORT $LN4@GCItemList

; 1503 : 			{
; 1504 : 				continue;
; 1505 : 			}
; 1506 : 
; 1507 : 			pMsgIL.Pos = n;

  00070	8a 8d e8 f7 ff
	ff		 mov	 cl, BYTE PTR _n$158351[ebp]
  00076	88 8d f4 f7 ff
	ff		 mov	 BYTE PTR _pMsgIL$[ebp], cl

; 1508 : 			ItemByteConvert(pMsgIL.ItemInfo,lpObj->pInventory[n]);

  0007c	81 ec a8 00 00
	00		 sub	 esp, 168		; 000000a8H
  00082	8d 95 f5 f7 ff
	ff		 lea	 edx, DWORD PTR _pMsgIL$[ebp+1]
  00088	8b f0		 mov	 esi, eax
  0008a	8b fc		 mov	 edi, esp
  0008c	b9 2a 00 00 00	 mov	 ecx, 42			; 0000002aH
  00091	52		 push	 edx
  00092	f3 a5		 rep movsd
  00094	e8 00 00 00 00	 call	 ?ItemByteConvert@@YAXPAEVCItem@@@Z ; ItemByteConvert

; 1509 : 			memcpy(&sendBuf[sOfs], &pMsgIL, pMsgILSize);

  00099	8b 85 f4 f7 ff
	ff		 mov	 eax, DWORD PTR _pMsgIL$[ebp]
  0009f	8b 8d f8 f7 ff
	ff		 mov	 ecx, DWORD PTR _pMsgIL$[ebp+4]

; 1510 : 			itemcount++;

  000a5	ff 85 e4 f7 ff
	ff		 inc	 DWORD PTR _itemcount$[ebp]

; 1511 : 			sOfs += pMsgILSize;

  000ab	8b b5 e0 f7 ff
	ff		 mov	 esi, DWORD PTR tv206[ebp]
  000b1	8b bd ec f7 ff
	ff		 mov	 edi, DWORD PTR _lpObj$[ebp]
  000b7	89 84 1d fc f7
	ff ff		 mov	 DWORD PTR _sendBuf$[ebp+ebx], eax
  000be	81 c4 ac 00 00
	00		 add	 esp, 172		; 000000acH
  000c4	89 8c 1d 00 f8
	ff ff		 mov	 DWORD PTR _sendBuf$[ebp+ebx+4], ecx
  000cb	83 c3 08	 add	 ebx, 8
$LN4@GCItemList:

; 1497 : 	
; 1498 : 	for ( int n=0;n<INVENTORY_SIZE;n++)

  000ce	ff 85 e8 f7 ff
	ff		 inc	 DWORD PTR _n$158351[ebp]
  000d4	81 c6 a8 00 00
	00		 add	 esi, 168		; 000000a8H
  000da	89 b5 e0 f7 ff
	ff		 mov	 DWORD PTR tv206[ebp], esi
  000e0	81 fe e0 46 00
	00		 cmp	 esi, 18144		; 000046e0H
  000e6	0f 8c 64 ff ff
	ff		 jl	 $LL5@GCItemList

; 1512 : 		}
; 1513 : 	}
; 1514 : 
; 1515 : 	pMsgILC.h.c = 0xC4;
; 1516 : 	pMsgILC.h.headcode = 0xF3;
; 1517 : 	pMsgILC.subcode = 0x10;
; 1518 : 	pMsgILC.h.sizeH = SET_NUMBERH(sOfs);
; 1519 : 	pMsgILC.h.sizeL = SET_NUMBERL(sOfs);
; 1520 : 	pMsgILC.Count = itemcount;

  000ec	8a 85 e4 f7 ff
	ff		 mov	 al, BYTE PTR _itemcount$[ebp]
  000f2	8b d3		 mov	 edx, ebx
  000f4	c1 ea 08	 shr	 edx, 8
  000f7	88 95 ed f7 ff
	ff		 mov	 BYTE PTR _pMsgILC$[ebp+1], dl
  000fd	66 c7 85 ef f7
	ff ff f3 10	 mov	 WORD PTR _pMsgILC$[ebp+3], 4339 ; 000010f3H
  00106	88 85 f1 f7 ff
	ff		 mov	 BYTE PTR _pMsgILC$[ebp+5], al

; 1521 : 	memcpy(sendBuf, &pMsgILC, sizeof(PMSG_INVENTORYLISTCOUNT));

  0010c	66 8b 95 f0 f7
	ff ff		 mov	 dx, WORD PTR _pMsgILC$[ebp+4]
  00113	c6 85 ec f7 ff
	ff c4		 mov	 BYTE PTR _pMsgILC$[ebp], 196 ; 000000c4H
  0011a	88 9d ee f7 ff
	ff		 mov	 BYTE PTR _pMsgILC$[ebp+2], bl
  00120	8b 8d ec f7 ff
	ff		 mov	 ecx, DWORD PTR _pMsgILC$[ebp]

; 1522 : 
; 1523 : 	DataSend(aIndex, sendBuf, sOfs);

  00126	53		 push	 ebx
  00127	8d 85 fc f7 ff
	ff		 lea	 eax, DWORD PTR _sendBuf$[ebp]
  0012d	89 8d fc f7 ff
	ff		 mov	 DWORD PTR _sendBuf$[ebp], ecx
  00133	8b 8d dc f7 ff
	ff		 mov	 ecx, DWORD PTR _aIndex$GSCopy$[ebp]
  00139	50		 push	 eax
  0013a	51		 push	 ecx
  0013b	66 89 95 00 f8
	ff ff		 mov	 WORD PTR _sendBuf$[ebp+4], dx
  00142	e8 00 00 00 00	 call	 ?DataSend@@YAHHPAEK@Z	; DataSend

; 1524 : }

  00147	8b 4d fc	 mov	 ecx, DWORD PTR __$ArrayPad$[ebp]
  0014a	83 c4 0c	 add	 esp, 12			; 0000000cH
  0014d	5f		 pop	 edi
  0014e	5e		 pop	 esi
  0014f	33 cd		 xor	 ecx, ebp
  00151	5b		 pop	 ebx
  00152	e8 00 00 00 00	 call	 @__security_check_cookie@4
  00157	8b e5		 mov	 esp, ebp
  00159	5d		 pop	 ebp
  0015a	c3		 ret	 0
?GCItemListSend@@YAXH@Z ENDP				; GCItemListSend
_TEXT	ENDS
PUBLIC	__$ArrayPad$
PUBLIC	?GDGetWarehouseList@@YAXHPAD@Z			; GDGetWarehouseList
; Function compile flags: /Ogtp
;	COMDAT ?GDGetWarehouseList@@YAXHPAD@Z
_TEXT	SEGMENT
_pMsg$ = -20						; size = 16
__$ArrayPad$ = -4					; size = 4
_aIndex$ = 8						; size = 4
_AccountID$ = 12					; size = 4
?GDGetWarehouseList@@YAXHPAD@Z PROC			; GDGetWarehouseList, COMDAT

; 1664 : {

  00000	55		 push	 ebp
  00001	8b ec		 mov	 ebp, esp
  00003	83 ec 14	 sub	 esp, 20			; 00000014H
  00006	a1 00 00 00 00	 mov	 eax, DWORD PTR ___security_cookie
  0000b	33 c5		 xor	 eax, ebp
  0000d	89 45 fc	 mov	 DWORD PTR __$ArrayPad$[ebp], eax
  00010	8b 55 0c	 mov	 edx, DWORD PTR _AccountID$[ebp]

; 1665 : 	if ( strlen(AccountID) < 1 )

  00013	8b c2		 mov	 eax, edx
  00015	56		 push	 esi
  00016	8d 70 01	 lea	 esi, DWORD PTR [eax+1]
  00019	8d a4 24 00 00
	00 00		 npad	 7
$LL4@GDGetWareh:
  00020	8a 08		 mov	 cl, BYTE PTR [eax]
  00022	40		 inc	 eax
  00023	84 c9		 test	 cl, cl
  00025	75 f9		 jne	 SHORT $LL4@GDGetWareh
  00027	2b c6		 sub	 eax, esi
  00029	5e		 pop	 esi
  0002a	83 f8 01	 cmp	 eax, 1
  0002d	72 35		 jb	 SHORT $LN2@GDGetWareh

; 1666 : 	{
; 1667 : 		return;
; 1668 : 	}
; 1669 : 
; 1670 : 	SDHP_GETWAREHOUSEDB	pMsg;
; 1671 : 
; 1672 : 	pMsg.h.c = 0xC1;
; 1673 : 	pMsg.h.headcode = 0x08;
; 1674 : 	pMsg.h.size = sizeof(SDHP_GETWAREHOUSEDB);
; 1675 : 	pMsg.aIndex = aIndex;
; 1676 : 	memcpy(pMsg.AccountID, AccountID, sizeof(pMsg.AccountID));

  0002f	8b 0a		 mov	 ecx, DWORD PTR [edx]
  00031	66 8b 45 08	 mov	 ax, WORD PTR _aIndex$[ebp]
  00035	89 4d ef	 mov	 DWORD PTR _pMsg$[ebp+3], ecx
  00038	66 8b 4a 08	 mov	 cx, WORD PTR [edx+8]
  0003c	66 89 45 fa	 mov	 WORD PTR _pMsg$[ebp+14], ax
  00040	8b 42 04	 mov	 eax, DWORD PTR [edx+4]

; 1677 : 
; 1678 : 	cDBSMng.Send((char*)&pMsg, pMsg.h.size);

  00043	6a 10		 push	 16			; 00000010H
  00045	8d 55 ec	 lea	 edx, DWORD PTR _pMsg$[ebp]
  00048	66 89 4d f7	 mov	 WORD PTR _pMsg$[ebp+11], cx
  0004c	52		 push	 edx
  0004d	b9 00 00 00 00	 mov	 ecx, OFFSET ?cDBSMng@@3VDBSockMng@@A ; cDBSMng
  00052	c6 45 ec c1	 mov	 BYTE PTR _pMsg$[ebp], 193 ; 000000c1H
  00056	66 c7 45 ed 10
	08		 mov	 WORD PTR _pMsg$[ebp+1], 2064 ; 00000810H
  0005c	89 45 f3	 mov	 DWORD PTR _pMsg$[ebp+7], eax
  0005f	e8 00 00 00 00	 call	 ?Send@DBSockMng@@QAEHPADH@Z ; DBSockMng::Send
$LN2@GDGetWareh:

; 1679 : }

  00064	8b 4d fc	 mov	 ecx, DWORD PTR __$ArrayPad$[ebp]
  00067	33 cd		 xor	 ecx, ebp
  00069	e8 00 00 00 00	 call	 @__security_check_cookie@4
  0006e	8b e5		 mov	 esp, ebp
  00070	5d		 pop	 ebp
  00071	c3		 ret	 0
?GDGetWarehouseList@@YAXHPAD@Z ENDP			; GDGetWarehouseList
_TEXT	ENDS
PUBLIC	__$ArrayPad$
PUBLIC	?GDGetWarehouseNoItem@@YAXPAUSDHP_GETWAREHOUSEDB_RESULT@@@Z ; GDGetWarehouseNoItem
; Function compile flags: /Ogtp
;	COMDAT ?GDGetWarehouseNoItem@@YAXPAUSDHP_GETWAREHOUSEDB_RESULT@@@Z
_TEXT	SEGMENT
_pResult$ = -28						; size = 10
_szId$ = -16						; size = 11
__$ArrayPad$ = -4					; size = 4
_lpMsg$ = 8						; size = 4
?GDGetWarehouseNoItem@@YAXPAUSDHP_GETWAREHOUSEDB_RESULT@@@Z PROC ; GDGetWarehouseNoItem, COMDAT

; 1917 : {

  00000	55		 push	 ebp
  00001	8b ec		 mov	 ebp, esp
  00003	83 ec 1c	 sub	 esp, 28			; 0000001cH
  00006	a1 00 00 00 00	 mov	 eax, DWORD PTR ___security_cookie
  0000b	33 c5		 xor	 eax, ebp
  0000d	89 45 fc	 mov	 DWORD PTR __$ArrayPad$[ebp], eax
  00010	8b 45 08	 mov	 eax, DWORD PTR _lpMsg$[ebp]

; 1918 : 	char szId[11];
; 1919 : 	int aIndex = lpMsg->aIndex;
; 1920 : 	PMSG_TALKRESULT pResult;
; 1921 : 
; 1922 : 	szId[MAX_ACCOUNT_LEN] = 0;
; 1923 : 	memcpy(szId, lpMsg->AccountID, sizeof(lpMsg->AccountID));

  00013	8b 48 03	 mov	 ecx, DWORD PTR [eax+3]
  00016	8b 50 07	 mov	 edx, DWORD PTR [eax+7]
  00019	56		 push	 esi
  0001a	0f bf 70 0e	 movsx	 esi, WORD PTR [eax+14]
  0001e	66 8b 40 0b	 mov	 ax, WORD PTR [eax+11]
  00022	89 4d f0	 mov	 DWORD PTR _szId$[ebp], ecx

; 1924 : 
; 1925 : 	if ( !gObjIsAccontConnect(aIndex, szId) )

  00025	8d 4d f0	 lea	 ecx, DWORD PTR _szId$[ebp]
  00028	51		 push	 ecx
  00029	56		 push	 esi
  0002a	c6 45 fa 00	 mov	 BYTE PTR _szId$[ebp+10], 0
  0002e	89 55 f4	 mov	 DWORD PTR _szId$[ebp+4], edx
  00031	66 89 45 f8	 mov	 WORD PTR _szId$[ebp+8], ax
  00035	e8 00 00 00 00	 call	 ?gObjIsAccontConnect@@YAHHPAD@Z ; gObjIsAccontConnect
  0003a	83 c4 08	 add	 esp, 8
  0003d	85 c0		 test	 eax, eax
  0003f	75 2e		 jne	 SHORT $LN3@GDGetWareh@2

; 1926 : 	{
; 1927 : 		LogAdd(LOG_RED,  lMsg.Get(MSGGET(1, 175)), szId, aIndex);

  00041	56		 push	 esi
  00042	8d 55 f0	 lea	 edx, DWORD PTR _szId$[ebp]
  00045	52		 push	 edx
  00046	68 af 01 00 00	 push	 431			; 000001afH
  0004b	b9 00 00 00 00	 mov	 ecx, OFFSET ?lMsg@@3VCMsg@@A ; lMsg
  00050	e8 00 00 00 00	 call	 ?Get@CMsg@@QAEPADH@Z	; CMsg::Get
  00055	50		 push	 eax
  00056	6a 01		 push	 1
  00058	e8 00 00 00 00	 call	 ?LogAdd@@YAXW4eLogColor@@PADZZ ; LogAdd
  0005d	83 c4 10	 add	 esp, 16			; 00000010H
  00060	5e		 pop	 esi

; 1946 : 		}
; 1947 : 	}
; 1948 : 
; 1949 : 	lpObj->LoadWareHouseInfo = true;
; 1950 : 	lpObj->m_ReqWarehouseOpen = false;
; 1951 : }

  00061	8b 4d fc	 mov	 ecx, DWORD PTR __$ArrayPad$[ebp]
  00064	33 cd		 xor	 ecx, ebp
  00066	e8 00 00 00 00	 call	 @__security_check_cookie@4
  0006b	8b e5		 mov	 esp, ebp
  0006d	5d		 pop	 ebp
  0006e	c3		 ret	 0
$LN3@GDGetWareh@2:

; 1928 : 		return;
; 1929 : 	}
; 1930 : 
; 1931 : 	LPOBJ lpObj = &gObj[aIndex];

  0006f	69 f6 64 15 00
	00		 imul	 esi, 5476		; 00001564H
  00075	81 c6 00 00 00
	00		 add	 esi, OFFSET ?gObj@@3PAUOBJECTSTRUCT@@A ; gObj

; 1932 : 	
; 1933 : 	if ( lpObj->m_IfState.type == 6 )

  0007b	8b 86 84 0c 00
	00		 mov	 eax, DWORD PTR [esi+3204]
  00081	8b c8		 mov	 ecx, eax
  00083	81 e1 c0 ff 00
	00		 and	 ecx, 65472		; 0000ffc0H
  00089	81 f9 80 01 00
	00		 cmp	 ecx, 384		; 00000180H
  0008f	75 57		 jne	 SHORT $LN1@GDGetWareh@2

; 1934 : 	{
; 1935 : 		if ( lpObj->m_IfState.state == 0 )

  00091	a8 3c		 test	 al, 60			; 0000003cH
  00093	75 53		 jne	 SHORT $LN1@GDGetWareh@2

; 1936 : 		{
; 1937 : 			lpObj->m_IfState.state = 1;

  00095	83 e0 c7	 and	 eax, -57		; ffffffc7H
  00098	83 c8 04	 or	 eax, 4

; 1938 : 			lpObj->WarehouseSave = 1;
; 1939 : 			pResult.h.c = 0xC3;
; 1940 : 			pResult.h.headcode = 0x30;
; 1941 : 			pResult.h.size = sizeof(pResult);
; 1942 : 			pResult.result = 2;
; 1943 : 
; 1944 : 			DataSend(lpObj->m_Index, (LPBYTE)&pResult, pResult.h.size);

  0009b	6a 0a		 push	 10			; 0000000aH
  0009d	8d 55 e4	 lea	 edx, DWORD PTR _pResult$[ebp]
  000a0	89 86 84 0c 00
	00		 mov	 DWORD PTR [esi+3204], eax
  000a6	8b 06		 mov	 eax, DWORD PTR [esi]
  000a8	52		 push	 edx
  000a9	50		 push	 eax
  000aa	c7 86 d8 0c 00
	00 01 00 00 00	 mov	 DWORD PTR [esi+3288], 1
  000b4	c6 45 e4 c3	 mov	 BYTE PTR _pResult$[ebp], 195 ; 000000c3H
  000b8	66 c7 45 e5 0a
	30		 mov	 WORD PTR _pResult$[ebp+1], 12298 ; 0000300aH
  000be	c6 45 e7 02	 mov	 BYTE PTR _pResult$[ebp+3], 2
  000c2	e8 00 00 00 00	 call	 ?DataSend@@YAHHPAEK@Z	; DataSend
  000c7	83 c4 0c	 add	 esp, 12			; 0000000cH

; 1945 : 			LogAdd(LOG_RED,  lMsg.Get(MSGGET(1, 176)), lpObj->Name);

  000ca	8d 4e 6f	 lea	 ecx, DWORD PTR [esi+111]
  000cd	51		 push	 ecx
  000ce	68 b0 01 00 00	 push	 432			; 000001b0H
  000d3	b9 00 00 00 00	 mov	 ecx, OFFSET ?lMsg@@3VCMsg@@A ; lMsg
  000d8	e8 00 00 00 00	 call	 ?Get@CMsg@@QAEPADH@Z	; CMsg::Get
  000dd	50		 push	 eax
  000de	6a 01		 push	 1
  000e0	e8 00 00 00 00	 call	 ?LogAdd@@YAXW4eLogColor@@PADZZ ; LogAdd
  000e5	83 c4 0c	 add	 esp, 12			; 0000000cH
$LN1@GDGetWareh@2:

; 1946 : 		}
; 1947 : 	}
; 1948 : 
; 1949 : 	lpObj->LoadWareHouseInfo = true;
; 1950 : 	lpObj->m_ReqWarehouseOpen = false;
; 1951 : }

  000e8	8b 4d fc	 mov	 ecx, DWORD PTR __$ArrayPad$[ebp]
  000eb	c6 86 b8 0e 00
	00 01		 mov	 BYTE PTR [esi+3768], 1
  000f2	c6 86 58 0f 00
	00 00		 mov	 BYTE PTR [esi+3928], 0
  000f9	33 cd		 xor	 ecx, ebp
  000fb	5e		 pop	 esi
  000fc	e8 00 00 00 00	 call	 @__security_check_cookie@4
  00101	8b e5		 mov	 esp, ebp
  00103	5d		 pop	 ebp
  00104	c3		 ret	 0
?GDGetWarehouseNoItem@@YAXPAUSDHP_GETWAREHOUSEDB_RESULT@@@Z ENDP ; GDGetWarehouseNoItem
_TEXT	ENDS
PUBLIC	__$ArrayPad$
PUBLIC	?GDUserItemSave@@YAXPAUOBJECTSTRUCT@@@Z		; GDUserItemSave
EXTRN	?ItemByteConvert16@@YAXPAEQAVCItem@@H@Z:PROC	; ItemByteConvert16
; Function compile flags: /Ogtp
;	COMDAT ?GDUserItemSave@@YAXPAUOBJECTSTRUCT@@@Z
_TEXT	SEGMENT
_pMsg$ = -1748						; size = 1742
__$ArrayPad$ = -4					; size = 4
_lpObj$ = 8						; size = 4
?GDUserItemSave@@YAXPAUOBJECTSTRUCT@@@Z PROC		; GDUserItemSave, COMDAT

; 1994 : {

  00000	55		 push	 ebp
  00001	8b ec		 mov	 ebp, esp
  00003	81 ec d4 06 00
	00		 sub	 esp, 1748		; 000006d4H
  00009	a1 00 00 00 00	 mov	 eax, DWORD PTR ___security_cookie
  0000e	33 c5		 xor	 eax, ebp
  00010	89 45 fc	 mov	 DWORD PTR __$ArrayPad$[ebp], eax
  00013	8b 45 08	 mov	 eax, DWORD PTR _lpObj$[ebp]

; 1995 : 	SDHP_DBCHAR_ITEMSAVE pMsg;
; 1996 : 
; 1997 : 	pMsg.h.c = 0xC2;
; 1998 : 	pMsg.h.headcode = 0x11;
; 1999 : 	pMsg.h.sizeH = HIBYTE(sizeof(pMsg));
; 2000 : 	pMsg.h.sizeL = LOBYTE(sizeof(pMsg));
; 2001 : 	memcpy(pMsg.Name, lpObj->Name, sizeof(pMsg.Name));

  00016	8b 50 73	 mov	 edx, DWORD PTR [eax+115]
  00019	8b 48 6f	 mov	 ecx, DWORD PTR [eax+111]
  0001c	89 95 34 f9 ff
	ff		 mov	 DWORD PTR _pMsg$[ebp+8], edx

; 2002 : 	ItemByteConvert16(pMsg.dbInventory, lpObj->pInventory, INVENTORY_SIZE);

  00022	8b 90 8c 0c 00
	00		 mov	 edx, DWORD PTR [eax+3212]
  00028	89 8d 30 f9 ff
	ff		 mov	 DWORD PTR _pMsg$[ebp+4], ecx
  0002e	66 8b 48 77	 mov	 cx, WORD PTR [eax+119]
  00032	6a 6c		 push	 108			; 0000006cH
  00034	52		 push	 edx
  00035	8d 85 3a f9 ff
	ff		 lea	 eax, DWORD PTR _pMsg$[ebp+14]
  0003b	50		 push	 eax
  0003c	c7 85 2c f9 ff
	ff c2 06 ce 11	 mov	 DWORD PTR _pMsg$[ebp], 298714818 ; 11ce06c2H
  00046	66 89 8d 38 f9
	ff ff		 mov	 WORD PTR _pMsg$[ebp+12], cx
  0004d	e8 00 00 00 00	 call	 ?ItemByteConvert16@@YAXPAEQAVCItem@@H@Z ; ItemByteConvert16
  00052	83 c4 0c	 add	 esp, 12			; 0000000cH

; 2003 : 
; 2004 : 	cDBSMng.Send((PCHAR)&pMsg, sizeof(pMsg));

  00055	68 ce 06 00 00	 push	 1742			; 000006ceH
  0005a	8d 8d 2c f9 ff
	ff		 lea	 ecx, DWORD PTR _pMsg$[ebp]
  00060	51		 push	 ecx
  00061	b9 00 00 00 00	 mov	 ecx, OFFSET ?cDBSMng@@3VDBSockMng@@A ; cDBSMng
  00066	e8 00 00 00 00	 call	 ?Send@DBSockMng@@QAEHPADH@Z ; DBSockMng::Send

; 2005 : }

  0006b	8b 4d fc	 mov	 ecx, DWORD PTR __$ArrayPad$[ebp]
  0006e	33 cd		 xor	 ecx, ebp
  00070	e8 00 00 00 00	 call	 @__security_check_cookie@4
  00075	8b e5		 mov	 esp, ebp
  00077	5d		 pop	 ebp
  00078	c3		 ret	 0
?GDUserItemSave@@YAXPAUOBJECTSTRUCT@@@Z ENDP		; GDUserItemSave
_TEXT	ENDS
PUBLIC	__$ArrayPad$
PUBLIC	?GDSetWarehouseMoney@@YAXH@Z			; GDSetWarehouseMoney
; Function compile flags: /Ogtp
;	COMDAT ?GDSetWarehouseMoney@@YAXH@Z
_TEXT	SEGMENT
_pMsg$ = -24						; size = 20
__$ArrayPad$ = -4					; size = 4
_aIndex$ = 8						; size = 4
?GDSetWarehouseMoney@@YAXH@Z PROC			; GDSetWarehouseMoney, COMDAT

; 2023 : {

  00000	55		 push	 ebp
  00001	8b ec		 mov	 ebp, esp
  00003	83 ec 18	 sub	 esp, 24			; 00000018H
  00006	a1 00 00 00 00	 mov	 eax, DWORD PTR ___security_cookie
  0000b	33 c5		 xor	 eax, ebp
  0000d	89 45 fc	 mov	 DWORD PTR __$ArrayPad$[ebp], eax
  00010	8b 4d 08	 mov	 ecx, DWORD PTR _aIndex$[ebp]

; 2024 : 	SDHP_WAREHOUSEMONEY_SAVE pMsg;
; 2025 : 
; 2026 : 	memcpy(pMsg.AccountID, gObj[aIndex].AccountID, sizeof(pMsg.AccountID));

  00013	8b c1		 mov	 eax, ecx
  00015	69 c0 64 15 00
	00		 imul	 eax, 5476		; 00001564H
  0001b	8b 90 64 00 00
	00		 mov	 edx, DWORD PTR ?gObj@@3PAUOBJECTSTRUCT@@A[eax+100]
  00021	89 55 eb	 mov	 DWORD PTR _pMsg$[ebp+3], edx
  00024	8b 90 68 00 00
	00		 mov	 edx, DWORD PTR ?gObj@@3PAUOBJECTSTRUCT@@A[eax+104]

; 2027 : 	pMsg.aIndex = aIndex;

  0002a	66 89 4d f6	 mov	 WORD PTR _pMsg$[ebp+14], cx
  0002e	89 55 ef	 mov	 DWORD PTR _pMsg$[ebp+7], edx
  00031	66 8b 90 6c 00
	00 00		 mov	 dx, WORD PTR ?gObj@@3PAUOBJECTSTRUCT@@A[eax+108]

; 2028 : 	pMsg.h.c = 0xC1;
; 2029 : 	pMsg.h.headcode = 0x12;
; 2030 : 	pMsg.h.size = sizeof(pMsg);
; 2031 : 	pMsg.Money = gObj[aIndex].WarehouseMoney;

  00038	8b 80 d4 0c 00
	00		 mov	 eax, DWORD PTR ?gObj@@3PAUOBJECTSTRUCT@@A[eax+3284]

; 2032 : 
; 2033 : 	cDBSMng.Send((PCHAR)&pMsg, sizeof(pMsg));

  0003e	6a 14		 push	 20			; 00000014H
  00040	8d 4d e8	 lea	 ecx, DWORD PTR _pMsg$[ebp]
  00043	51		 push	 ecx
  00044	b9 00 00 00 00	 mov	 ecx, OFFSET ?cDBSMng@@3VDBSockMng@@A ; cDBSMng
  00049	66 89 55 f3	 mov	 WORD PTR _pMsg$[ebp+11], dx
  0004d	c6 45 e8 c1	 mov	 BYTE PTR _pMsg$[ebp], 193 ; 000000c1H
  00051	66 c7 45 e9 14
	12		 mov	 WORD PTR _pMsg$[ebp+1], 4628 ; 00001214H
  00057	89 45 f8	 mov	 DWORD PTR _pMsg$[ebp+16], eax
  0005a	e8 00 00 00 00	 call	 ?Send@DBSockMng@@QAEHPADH@Z ; DBSockMng::Send

; 2034 : }

  0005f	8b 4d fc	 mov	 ecx, DWORD PTR __$ArrayPad$[ebp]
  00062	33 cd		 xor	 ecx, ebp
  00064	e8 00 00 00 00	 call	 @__security_check_cookie@4
  00069	8b e5		 mov	 esp, ebp
  0006b	5d		 pop	 ebp
  0006c	c3		 ret	 0
?GDSetWarehouseMoney@@YAXH@Z ENDP			; GDSetWarehouseMoney
_TEXT	ENDS
PUBLIC	?GDGameServerInfoSave@@YAXXZ			; GDGameServerInfoSave
; Function compile flags: /Ogtp
;	COMDAT ?GDGameServerInfoSave@@YAXXZ
_TEXT	SEGMENT
?GDGameServerInfoSave@@YAXXZ PROC			; GDGameServerInfoSave, COMDAT

; 2038 : 	return;		// GHere goes a MACRO
; 2039 : }

  00000	c3		 ret	 0
?GDGameServerInfoSave@@YAXXZ ENDP			; GDGameServerInfoSave
_TEXT	ENDS
PUBLIC	??_C@_0GG@PDKAJKAJ@Monster?5Item?5Drop?5Request?5?$FL?$CFs?$FN?5?$FL@ ; `string'
PUBLIC	__$ArrayPad$
PUBLIC	?ItemSerialCreateSend@@YAXHEEEHEEEEEHEE@Z	; ItemSerialCreateSend
EXTRN	?ItemAttribute@@3PAUITEM_ATTRIBUTE@@A:BYTE	; ItemAttribute
EXTRN	?ItemGetDurability@@YAHHHHH@Z:PROC		; ItemGetDurability
;	COMDAT ??_C@_0GG@PDKAJKAJ@Monster?5Item?5Drop?5Request?5?$FL?$CFs?$FN?5?$FL@
CONST	SEGMENT
??_C@_0GG@PDKAJKAJ@Monster?5Item?5Drop?5Request?5?$FL?$CFs?$FN?5?$FL@ DB 'M'
	DB	'onster Item Drop Request [%s] [%d][%d][%d] : [%s][%d][%d][%d]'
	DB	'[%d] Ex:[%d,%d,%d,%d,%d,%d,%d] Set:[%d]', 00H ; `string'
; Function compile flags: /Ogtp
CONST	ENDS
;	COMDAT ?ItemSerialCreateSend@@YAXHEEEHEEEEEHEE@Z
_TEXT	SEGMENT
_pMsg$ = -36						; size = 24
_NewOption$158611 = -12					; size = 8
__$ArrayPad$ = -4					; size = 4
_aIndex$ = 8						; size = 4
_MapNumber$ = 12					; size = 1
_x$ = 16						; size = 1
_y$ = 20						; size = 1
_type$ = 24						; size = 4
_level$ = 28						; size = 1
_dur$ = 32						; size = 1
_Op1$ = 36						; size = 1
_Op2$ = 40						; size = 1
_Op3$ = 44						; size = 1
_LootIndex$ = 48					; size = 4
_NewOption$ = 52					; size = 1
_SetOption$ = 56					; size = 1
?ItemSerialCreateSend@@YAXHEEEHEEEEEHEE@Z PROC		; ItemSerialCreateSend, COMDAT

; 2067 : {

  00000	55		 push	 ebp
  00001	8b ec		 mov	 ebp, esp
  00003	83 ec 24	 sub	 esp, 36			; 00000024H
  00006	a1 00 00 00 00	 mov	 eax, DWORD PTR ___security_cookie
  0000b	33 c5		 xor	 eax, ebp
  0000d	89 45 fc	 mov	 DWORD PTR __$ArrayPad$[ebp], eax

; 2068 : 	SDHP_ITEMCREATE  pMsg;
; 2069 : 
; 2070 : 	pMsg.h.c = 0xC1;
; 2071 : 	pMsg.h.headcode = 0x52;
; 2072 : 	pMsg.h.size = sizeof(pMsg);
; 2073 : 	pMsg.MapNumber = MapNumber;

  00010	8a 45 0c	 mov	 al, BYTE PTR _MapNumber$[ebp]

; 2074 : 	pMsg.x = x;

  00013	8a 4d 10	 mov	 cl, BYTE PTR _x$[ebp]

; 2075 : 	pMsg.y = y;

  00016	8a 55 14	 mov	 dl, BYTE PTR _y$[ebp]
  00019	53		 push	 ebx

; 2076 : 	pMsg.Type = type;
; 2077 : 	pMsg.Level = level;
; 2078 : 
; 2079 : 	if (dur == 0 )

  0001a	8a 5d 38	 mov	 bl, BYTE PTR _SetOption$[ebp]
  0001d	88 45 e1	 mov	 BYTE PTR _pMsg$[ebp+5], al
  00020	8a 45 20	 mov	 al, BYTE PTR _dur$[ebp]
  00023	88 4d df	 mov	 BYTE PTR _pMsg$[ebp+3], cl
  00026	8b 4d 18	 mov	 ecx, DWORD PTR _type$[ebp]
  00029	88 55 e0	 mov	 BYTE PTR _pMsg$[ebp+4], dl
  0002c	8a 55 1c	 mov	 dl, BYTE PTR _level$[ebp]
  0002f	56		 push	 esi
  00030	8b 75 08	 mov	 esi, DWORD PTR _aIndex$[ebp]
  00033	c6 45 dc c1	 mov	 BYTE PTR _pMsg$[ebp], 193 ; 000000c1H
  00037	66 c7 45 dd 18
	52		 mov	 WORD PTR _pMsg$[ebp+1], 21016 ; 00005218H
  0003d	66 89 4d e2	 mov	 WORD PTR _pMsg$[ebp+6], cx
  00041	88 55 e4	 mov	 BYTE PTR _pMsg$[ebp+8], dl
  00044	84 c0		 test	 al, al
  00046	75 16		 jne	 SHORT $LN11@ItemSerial

; 2080 : 	{
; 2081 : 		dur = ItemGetDurability(type, level, NewOption, SetOption);

  00048	0f b6 c3	 movzx	 eax, bl
  0004b	50		 push	 eax
  0004c	0f b6 45 34	 movzx	 eax, BYTE PTR _NewOption$[ebp]
  00050	0f b6 d2	 movzx	 edx, dl
  00053	50		 push	 eax
  00054	52		 push	 edx
  00055	51		 push	 ecx
  00056	e8 00 00 00 00	 call	 ?ItemGetDurability@@YAHHHHH@Z ; ItemGetDurability
  0005b	83 c4 10	 add	 esp, 16			; 00000010H
$LN11@ItemSerial:

; 2082 : 	}
; 2083 : 
; 2084 : 	pMsg.Dur = dur;
; 2085 : 	pMsg.Op1 = Op1;
; 2086 : 	pMsg.Op2 = Op2;

  0005e	8a 4d 28	 mov	 cl, BYTE PTR _Op2$[ebp]

; 2087 : 	pMsg.Op3 = Op3;

  00061	8a 55 2c	 mov	 dl, BYTE PTR _Op3$[ebp]
  00064	88 45 e5	 mov	 BYTE PTR _pMsg$[ebp+9], al
  00067	8a 45 24	 mov	 al, BYTE PTR _Op1$[ebp]
  0006a	88 45 e6	 mov	 BYTE PTR _pMsg$[ebp+10], al

; 2088 : 	pMsg.NewOption = NewOption;

  0006d	8a 45 34	 mov	 al, BYTE PTR _NewOption$[ebp]
  00070	88 4d e7	 mov	 BYTE PTR _pMsg$[ebp+11], cl

; 2089 : 	pMsg.aIndex = aIndex;
; 2090 : 	pMsg.lootindex = LootIndex;

  00073	66 8b 4d 30	 mov	 cx, WORD PTR _LootIndex$[ebp]
  00077	88 55 e8	 mov	 BYTE PTR _pMsg$[ebp+12], dl
  0007a	88 45 e9	 mov	 BYTE PTR _pMsg$[ebp+13], al
  0007d	89 75 ec	 mov	 DWORD PTR _pMsg$[ebp+16], esi
  00080	66 89 4d f0	 mov	 WORD PTR _pMsg$[ebp+20], cx

; 2091 : 	pMsg.SetOption = SetOption;

  00084	88 5d f2	 mov	 BYTE PTR _pMsg$[ebp+22], bl

; 2092 : 
; 2093 : 	if ( OBJMAX_RANGE(aIndex) != FALSE  && gObj[aIndex].Type != OBJ_USER )

  00087	85 f6		 test	 esi, esi
  00089	0f 88 ce 00 00
	00		 js	 $LN10@ItemSerial
  0008f	33 c9		 xor	 ecx, ecx
  00091	81 fe e7 1c 00
	00		 cmp	 esi, 7399		; 00001ce7H
  00097	0f 9e c1	 setle	 cl
  0009a	85 c9		 test	 ecx, ecx
  0009c	0f 84 bb 00 00
	00		 je	 $LN10@ItemSerial
  000a2	69 f6 64 15 00
	00		 imul	 esi, 5476		; 00001564H
  000a8	b9 01 00 00 00	 mov	 ecx, 1
  000ad	66 39 8e 60 00
	00 00		 cmp	 WORD PTR ?gObj@@3PAUOBJECTSTRUCT@@A[esi+96], cx
  000b4	0f 84 a3 00 00
	00		 je	 $LN10@ItemSerial

; 2094 : 	{
; 2095 : 		BYTE NewOption[MAX_EXOPTION_SIZE];
; 2096 : 
; 2097 : 		for ( int i=0;i<MAX_EXOPTION_SIZE;i++)
; 2098 : 		{
; 2099 : 			NewOption[i] = 0;

  000ba	33 d2		 xor	 edx, edx
  000bc	89 55 f4	 mov	 DWORD PTR _NewOption$158611[ebp], edx
  000bf	89 55 f8	 mov	 DWORD PTR _NewOption$158611[ebp+4], edx

; 2100 : 		}
; 2101 : 
; 2102 : 		if ( (pMsg.NewOption & 0x20) != 0 )

  000c2	a8 20		 test	 al, 32			; 00000020H
  000c4	74 03		 je	 SHORT $LN18@ItemSerial

; 2103 : 		{
; 2104 : 			NewOption[0] = TRUE;

  000c6	88 4d f4	 mov	 BYTE PTR _NewOption$158611[ebp], cl
$LN18@ItemSerial:

; 2105 : 		}
; 2106 : 		if ( (pMsg.NewOption & 0x10) != 0 )

  000c9	a8 10		 test	 al, 16			; 00000010H
  000cb	74 03		 je	 SHORT $LN19@ItemSerial

; 2107 : 		{
; 2108 : 			NewOption[1] = TRUE;

  000cd	88 4d f5	 mov	 BYTE PTR _NewOption$158611[ebp+1], cl
$LN19@ItemSerial:

; 2109 : 		}
; 2110 : 
; 2111 : 		if ( (pMsg.NewOption & 0x8) != 0 )

  000d0	a8 08		 test	 al, 8
  000d2	74 03		 je	 SHORT $LN20@ItemSerial

; 2112 : 		{
; 2113 : 			NewOption[2] = TRUE;

  000d4	88 4d f6	 mov	 BYTE PTR _NewOption$158611[ebp+2], cl
$LN20@ItemSerial:

; 2114 : 		}
; 2115 : 		if ( (pMsg.NewOption & 0x4) != 0 )
; 2116 : 		{
; 2117 : 			NewOption[3] = TRUE;

  000d7	8a d1		 mov	 dl, cl
  000d9	a8 04		 test	 al, 4
  000db	75 03		 jne	 SHORT $LN3@ItemSerial
  000dd	8a 55 f7	 mov	 dl, BYTE PTR _NewOption$158611[ebp+3]
$LN3@ItemSerial:

; 2118 : 		}
; 2119 : 
; 2120 : 		if ( (pMsg.NewOption & 0x2) != 0 )

  000e0	a8 02		 test	 al, 2

; 2121 : 		{
; 2122 : 			NewOption[4] = TRUE;

  000e2	75 03		 jne	 SHORT $LN2@ItemSerial
  000e4	8a 4d f8	 mov	 cl, BYTE PTR _NewOption$158611[ebp+4]
$LN2@ItemSerial:

; 2123 : 		}
; 2124 : 		if ( (pMsg.NewOption & 0x1) != 0 )

  000e7	a8 01		 test	 al, 1

; 2125 : 		{
; 2126 : 			NewOption[5] = TRUE;

  000e9	b0 01		 mov	 al, 1
  000eb	75 03		 jne	 SHORT $LN1@ItemSerial
  000ed	8a 45 f9	 mov	 al, BYTE PTR _NewOption$158611[ebp+5]
$LN1@ItemSerial:
  000f0	57		 push	 edi

; 2127 : 		}
; 2128 : 
; 2129 : 		LogAdd(LOG_BLACK, "Monster Item Drop Request [%s] [%d][%d][%d] : [%s][%d][%d][%d][%d] Ex:[%d,%d,%d,%d,%d,%d,%d] Set:[%d]",
; 2130 : 			gObj[aIndex].Name, MapNumber, pMsg.x, pMsg.y, ItemAttribute[pMsg.Type].Name,
; 2131 : 			pMsg.Level, pMsg.Op1,pMsg.Op2, pMsg.Op3, NewOption[0], NewOption[1], NewOption[2],
; 2132 : 			NewOption[3], NewOption[4],	NewOption[5], NewOption[6], pMsg.SetOption);

  000f1	0f b6 fb	 movzx	 edi, bl
  000f4	57		 push	 edi
  000f5	0f b6 7d fa	 movzx	 edi, BYTE PTR _NewOption$158611[ebp+6]
  000f9	57		 push	 edi
  000fa	0f b6 c0	 movzx	 eax, al
  000fd	50		 push	 eax
  000fe	0f b6 45 f6	 movzx	 eax, BYTE PTR _NewOption$158611[ebp+2]
  00102	0f b6 c9	 movzx	 ecx, cl
  00105	51		 push	 ecx
  00106	0f b6 4d f5	 movzx	 ecx, BYTE PTR _NewOption$158611[ebp+1]
  0010a	0f b6 d2	 movzx	 edx, dl
  0010d	52		 push	 edx
  0010e	0f b6 55 f4	 movzx	 edx, BYTE PTR _NewOption$158611[ebp]
  00112	50		 push	 eax
  00113	0f b6 45 2c	 movzx	 eax, BYTE PTR _Op3$[ebp]
  00117	51		 push	 ecx
  00118	0f b6 4d 28	 movzx	 ecx, BYTE PTR _Op2$[ebp]
  0011c	52		 push	 edx
  0011d	0f b6 55 24	 movzx	 edx, BYTE PTR _Op1$[ebp]
  00121	50		 push	 eax
  00122	0f b6 45 e4	 movzx	 eax, BYTE PTR _pMsg$[ebp+8]
  00126	51		 push	 ecx
  00127	0f bf 4d e2	 movsx	 ecx, WORD PTR _pMsg$[ebp+6]
  0012b	6b c9 6c	 imul	 ecx, 108		; 0000006cH
  0012e	52		 push	 edx
  0012f	0f b6 55 e0	 movzx	 edx, BYTE PTR _pMsg$[ebp+4]
  00133	50		 push	 eax
  00134	0f b6 45 df	 movzx	 eax, BYTE PTR _pMsg$[ebp+3]
  00138	81 c1 00 00 00
	00		 add	 ecx, OFFSET ?ItemAttribute@@3PAUITEM_ATTRIBUTE@@A ; ItemAttribute
  0013e	51		 push	 ecx
  0013f	0f b6 4d 0c	 movzx	 ecx, BYTE PTR _MapNumber$[ebp]
  00143	52		 push	 edx
  00144	50		 push	 eax
  00145	51		 push	 ecx
  00146	8d 96 6f 00 00
	00		 lea	 edx, DWORD PTR ?gObj@@3PAUOBJECTSTRUCT@@A[esi+111]
  0014c	52		 push	 edx
  0014d	68 00 00 00 00	 push	 OFFSET ??_C@_0GG@PDKAJKAJ@Monster?5Item?5Drop?5Request?5?$FL?$CFs?$FN?5?$FL@
  00152	6a 00		 push	 0
  00154	e8 00 00 00 00	 call	 ?LogAdd@@YAXW4eLogColor@@PADZZ ; LogAdd
  00159	83 c4 4c	 add	 esp, 76			; 0000004cH
  0015c	5f		 pop	 edi
$LN10@ItemSerial:

; 2133 : 	}
; 2134 : 
; 2135 : 	cDBSMng.Send( (char*)&pMsg, pMsg.h.size);

  0015d	0f b6 45 dd	 movzx	 eax, BYTE PTR _pMsg$[ebp+1]
  00161	50		 push	 eax
  00162	8d 4d dc	 lea	 ecx, DWORD PTR _pMsg$[ebp]
  00165	51		 push	 ecx
  00166	b9 00 00 00 00	 mov	 ecx, OFFSET ?cDBSMng@@3VDBSockMng@@A ; cDBSMng
  0016b	e8 00 00 00 00	 call	 ?Send@DBSockMng@@QAEHPADH@Z ; DBSockMng::Send

; 2136 : }

  00170	8b 4d fc	 mov	 ecx, DWORD PTR __$ArrayPad$[ebp]
  00173	5e		 pop	 esi
  00174	33 cd		 xor	 ecx, ebp
  00176	5b		 pop	 ebx
  00177	e8 00 00 00 00	 call	 @__security_check_cookie@4
  0017c	8b e5		 mov	 esp, ebp
  0017e	5d		 pop	 ebp
  0017f	c3		 ret	 0
?ItemSerialCreateSend@@YAXHEEEHEEEEEHEE@Z ENDP		; ItemSerialCreateSend
_TEXT	ENDS
PUBLIC	__$ArrayPad$
PUBLIC	?PetItemSerialCreateSend@@YAXHEEEHEEEEEHEE@Z	; PetItemSerialCreateSend
; Function compile flags: /Ogtp
;	COMDAT ?PetItemSerialCreateSend@@YAXHEEEHEEEEEHEE@Z
_TEXT	SEGMENT
_pMsg$ = -28						; size = 24
__$ArrayPad$ = -4					; size = 4
_aIndex$ = 8						; size = 4
_MapNumber$ = 12					; size = 1
_x$ = 16						; size = 1
_y$ = 20						; size = 1
_type$ = 24						; size = 4
_level$ = 28						; size = 1
_dur$ = 32						; size = 1
_Op1$ = 36						; size = 1
_Op2$ = 40						; size = 1
_Op3$ = 44						; size = 1
_LootIndex$ = 48					; size = 4
_NewOption$ = 52					; size = 1
_SetOption$ = 56					; size = 1
?PetItemSerialCreateSend@@YAXHEEEHEEEEEHEE@Z PROC	; PetItemSerialCreateSend, COMDAT

; 2140 : {

  00000	55		 push	 ebp
  00001	8b ec		 mov	 ebp, esp
  00003	83 ec 1c	 sub	 esp, 28			; 0000001cH
  00006	a1 00 00 00 00	 mov	 eax, DWORD PTR ___security_cookie
  0000b	33 c5		 xor	 eax, ebp
  0000d	89 45 fc	 mov	 DWORD PTR __$ArrayPad$[ebp], eax

; 2141 : 	SDHP_ITEMCREATE  pMsg;
; 2142 : 
; 2143 : 	pMsg.h.c = 0xC1;
; 2144 : 	pMsg.h.headcode = 0x55;
; 2145 : 	pMsg.h.size = sizeof(pMsg);
; 2146 : 	pMsg.MapNumber = MapNumber;

  00010	8a 45 0c	 mov	 al, BYTE PTR _MapNumber$[ebp]

; 2147 : 	pMsg.x = x;

  00013	8a 4d 10	 mov	 cl, BYTE PTR _x$[ebp]

; 2148 : 	pMsg.y = y;

  00016	8a 55 14	 mov	 dl, BYTE PTR _y$[ebp]
  00019	88 45 e9	 mov	 BYTE PTR _pMsg$[ebp+5], al

; 2149 : 	pMsg.Type = type;
; 2150 : 	pMsg.Level = level;
; 2151 : 
; 2152 : 	if (dur == 0 )

  0001c	8a 45 20	 mov	 al, BYTE PTR _dur$[ebp]
  0001f	88 4d e7	 mov	 BYTE PTR _pMsg$[ebp+3], cl
  00022	8b 4d 18	 mov	 ecx, DWORD PTR _type$[ebp]
  00025	88 55 e8	 mov	 BYTE PTR _pMsg$[ebp+4], dl
  00028	8a 55 1c	 mov	 dl, BYTE PTR _level$[ebp]
  0002b	53		 push	 ebx
  0002c	8a 5d 38	 mov	 bl, BYTE PTR _SetOption$[ebp]
  0002f	c6 45 e4 c1	 mov	 BYTE PTR _pMsg$[ebp], 193 ; 000000c1H
  00033	66 c7 45 e5 18
	55		 mov	 WORD PTR _pMsg$[ebp+1], 21784 ; 00005518H
  00039	66 89 4d ea	 mov	 WORD PTR _pMsg$[ebp+6], cx
  0003d	88 55 ec	 mov	 BYTE PTR _pMsg$[ebp+8], dl
  00040	84 c0		 test	 al, al
  00042	75 16		 jne	 SHORT $LN1@PetItemSer

; 2153 : 	{
; 2154 : 		dur = ItemGetDurability(type, level, NewOption, SetOption);

  00044	0f b6 c3	 movzx	 eax, bl
  00047	50		 push	 eax
  00048	0f b6 45 34	 movzx	 eax, BYTE PTR _NewOption$[ebp]
  0004c	0f b6 d2	 movzx	 edx, dl
  0004f	50		 push	 eax
  00050	52		 push	 edx
  00051	51		 push	 ecx
  00052	e8 00 00 00 00	 call	 ?ItemGetDurability@@YAHHHHH@Z ; ItemGetDurability
  00057	83 c4 10	 add	 esp, 16			; 00000010H
$LN1@PetItemSer:

; 2155 : 	}
; 2156 : 
; 2157 : 	pMsg.Dur = dur;
; 2158 : 	pMsg.Op1 = Op1;
; 2159 : 	pMsg.Op2 = Op2;

  0005a	8a 4d 28	 mov	 cl, BYTE PTR _Op2$[ebp]

; 2160 : 	pMsg.Op3 = Op3;

  0005d	8a 55 2c	 mov	 dl, BYTE PTR _Op3$[ebp]
  00060	88 45 ed	 mov	 BYTE PTR _pMsg$[ebp+9], al
  00063	8a 45 24	 mov	 al, BYTE PTR _Op1$[ebp]
  00066	88 45 ee	 mov	 BYTE PTR _pMsg$[ebp+10], al

; 2161 : 	pMsg.NewOption = NewOption;

  00069	8a 45 34	 mov	 al, BYTE PTR _NewOption$[ebp]
  0006c	88 4d ef	 mov	 BYTE PTR _pMsg$[ebp+11], cl

; 2162 : 	pMsg.aIndex = aIndex;

  0006f	8b 4d 08	 mov	 ecx, DWORD PTR _aIndex$[ebp]
  00072	88 45 f1	 mov	 BYTE PTR _pMsg$[ebp+13], al

; 2163 : 	pMsg.lootindex = LootIndex;
; 2164 : 	pMsg.SetOption = SetOption;
; 2165 : 
; 2166 : 	cDBSMng.Send( (char*)&pMsg, pMsg.h.size);

  00075	0f b6 45 e5	 movzx	 eax, BYTE PTR _pMsg$[ebp+1]
  00079	89 4d f4	 mov	 DWORD PTR _pMsg$[ebp+16], ecx
  0007c	50		 push	 eax
  0007d	8d 4d e4	 lea	 ecx, DWORD PTR _pMsg$[ebp]
  00080	88 55 f0	 mov	 BYTE PTR _pMsg$[ebp+12], dl
  00083	66 8b 55 30	 mov	 dx, WORD PTR _LootIndex$[ebp]
  00087	51		 push	 ecx
  00088	b9 00 00 00 00	 mov	 ecx, OFFSET ?cDBSMng@@3VDBSockMng@@A ; cDBSMng
  0008d	66 89 55 f8	 mov	 WORD PTR _pMsg$[ebp+20], dx
  00091	88 5d fa	 mov	 BYTE PTR _pMsg$[ebp+22], bl
  00094	e8 00 00 00 00	 call	 ?Send@DBSockMng@@QAEHPADH@Z ; DBSockMng::Send

; 2167 : }

  00099	8b 4d fc	 mov	 ecx, DWORD PTR __$ArrayPad$[ebp]
  0009c	33 cd		 xor	 ecx, ebp
  0009e	5b		 pop	 ebx
  0009f	e8 00 00 00 00	 call	 @__security_check_cookie@4
  000a4	8b e5		 mov	 esp, ebp
  000a6	5d		 pop	 ebp
  000a7	c3		 ret	 0
?PetItemSerialCreateSend@@YAXHEEEHEEEEEHEE@Z ENDP	; PetItemSerialCreateSend
_TEXT	ENDS
PUBLIC	??_C@_0GA@EHKFCGJE@?$FL?$CFs?$FN?$FL?$CFs?$FN?5CBMix?5Item?5Create?5Item?3@ ; `string'
PUBLIC	??_C@_0BN@BDLDNMBN@error?9L2?3?5ChaosBox?5not?5used?4?$AA@ ; `string'
PUBLIC	??_C@_0CD@JBKACADO@error?9L2?3?5DarkTrainerBox?5not?5use@ ; `string'
PUBLIC	??_C@_0BC@OFCHNMFP@error?9L3?5?$FL?$CFs?$FN?$FL?$CFd?$FN?$AA@ ; `string'
PUBLIC	??_C@_0GD@LMECKDPM@Monster?5Item?5Drop?5?$FL?$CFd?$FN?$FL?$CFd?$FN?$FL?$CFd?$FN?5?3@ ; `string'
PUBLIC	??_C@_0EL@KDEJKEEJ@?$FLCashShop?$FN?5Error?5?3?5Failed?5To?5Ins@ ; `string'
PUBLIC	??_C@_0EO@DCIKCPFD@?$FLMu_2Anv_Event?$FN?5Error?5?3?5Failed?5T@ ; `string'
PUBLIC	__$ArrayPad$
PUBLIC	?ItemSerialCreateRecv@@YAXPAUSDHP_ITEMCREATERECV@@@Z ; ItemSerialCreateRecv
EXTRN	?GetName@CItem@@QAEPADXZ:PROC			; CItem::GetName
EXTRN	?ItemIsBufExOption@@YAXPAEPAVCItem@@@Z:PROC	; ItemIsBufExOption
EXTRN	?gObjChaosItemSet@@YAXHHE@Z:PROC		; gObjChaosItemSet
EXTRN	?gObjChaosBoxInsertItemPos@@YAEHVCItem@@HH@Z:PROC ; gObjChaosBoxInsertItemPos
EXTRN	?ChaosBoxInit@@YAHPAUOBJECTSTRUCT@@@Z:PROC	; ChaosBoxInit
EXTRN	?gObjIsConnectedGP@@YAHH@Z:PROC			; gObjIsConnectedGP
EXTRN	?g_BloodCastle@@3VCBloodCastle@@A:BYTE		; g_BloodCastle
EXTRN	__imp__GetTickCount@0:PROC
EXTRN	?MonsterItemDrop@MapClass@@QAEHHHMHHEEEEEHKE@Z:PROC ; MapClass::MonsterItemDrop
EXTRN	?MapC@@3PAVMapClass@@A:BYTE			; MapC
EXTRN	?gObjInventoryInsertItem@@YAEHVCItem@@@Z:PROC	; gObjInventoryInsertItem
EXTRN	?Convert@CItem@@QAEXHEEEEEEE@Z:PROC		; CItem::Convert
EXTRN	??0CItem@@QAE@XZ:PROC				; CItem::CItem
EXTRN	?GCInventoryItemOneSend@@YAXHH@Z:PROC		; GCInventoryItemOneSend
EXTRN	?gObjInventoryInsertItem@@YAEPAUOBJECTSTRUCT@@HHHHH@Z:PROC ; gObjInventoryInsertItem
EXTRN	__fltused:DWORD
;	COMDAT ??_C@_0GA@EHKFCGJE@?$FL?$CFs?$FN?$FL?$CFs?$FN?5CBMix?5Item?5Create?5Item?3@
CONST	SEGMENT
??_C@_0GA@EHKFCGJE@?$FL?$CFs?$FN?$FL?$CFs?$FN?5CBMix?5Item?5Create?5Item?3@ DB '['
	DB	'%s][%s] CBMix Item Create Item:%s [%d][%d] [%d][%d][%d][%d] E'
	DB	'x:[%d,%d,%d,%d,%d,%d,%d] Set:[%d]', 00H	; `string'
CONST	ENDS
;	COMDAT ??_C@_0BN@BDLDNMBN@error?9L2?3?5ChaosBox?5not?5used?4?$AA@
CONST	SEGMENT
??_C@_0BN@BDLDNMBN@error?9L2?3?5ChaosBox?5not?5used?4?$AA@ DB 'error-L2: '
	DB	'ChaosBox not used.', 00H			; `string'
CONST	ENDS
;	COMDAT ??_C@_0CD@JBKACADO@error?9L2?3?5DarkTrainerBox?5not?5use@
CONST	SEGMENT
??_C@_0CD@JBKACADO@error?9L2?3?5DarkTrainerBox?5not?5use@ DB 'error-L2: D'
	DB	'arkTrainerBox not used.', 00H		; `string'
CONST	ENDS
;	COMDAT ??_C@_0BC@OFCHNMFP@error?9L3?5?$FL?$CFs?$FN?$FL?$CFd?$FN?$AA@
CONST	SEGMENT
??_C@_0BC@OFCHNMFP@error?9L3?5?$FL?$CFs?$FN?$FL?$CFd?$FN?$AA@ DB 'error-L'
	DB	'3 [%s][%d]', 00H				; `string'
CONST	ENDS
;	COMDAT ??_C@_0GD@LMECKDPM@Monster?5Item?5Drop?5?$FL?$CFd?$FN?$FL?$CFd?$FN?$FL?$CFd?$FN?5?3@
CONST	SEGMENT
??_C@_0GD@LMECKDPM@Monster?5Item?5Drop?5?$FL?$CFd?$FN?$FL?$CFd?$FN?$FL?$CFd?$FN?5?3@ DB 'M'
	DB	'onster Item Drop [%d][%d][%d] : serial:%d [%s][%d][%d][%d][%d'
	DB	'] Ex:[%d,%d,%d,%d,%d,%d,%d] Set:[%d]', 00H	; `string'
CONST	ENDS
;	COMDAT ??_C@_0EL@KDEJKEEJ@?$FLCashShop?$FN?5Error?5?3?5Failed?5To?5Ins@
CONST	SEGMENT
??_C@_0EL@KDEJKEEJ@?$FLCashShop?$FN?5Error?5?3?5Failed?5To?5Ins@ DB '[Cas'
	DB	'hShop] Error : Failed To Insert Item Type:%d, TypeIndex:%d to'
	DB	' [%s][%s]', 00H				; `string'
CONST	ENDS
;	COMDAT ??_C@_0EO@DCIKCPFD@?$FLMu_2Anv_Event?$FN?5Error?5?3?5Failed?5T@
CONST	SEGMENT
??_C@_0EO@DCIKCPFD@?$FLMu_2Anv_Event?$FN?5Error?5?3?5Failed?5T@ DB '[Mu_2'
	DB	'Anv_Event] Error : Failed To Gift Item Type:%d, TypeIndex:%d '
	DB	'to [%s][%s]', 00H				; `string'
; Function compile flags: /Ogtp
CONST	ENDS
;	COMDAT ?ItemSerialCreateRecv@@YAXPAUSDHP_ITEMCREATERECV@@@Z
_TEXT	SEGMENT
tv861 = -208						; size = 4
tv811 = -208						; size = 4
tv710 = -208						; size = 4
_iItemIndex$158691 = -208				; size = 4
tv856 = -204						; size = 4
_iItemType$158690 = -204				; size = 4
_mapnumber$ = -204					; size = 4
_pCreateItem$158689 = -200				; size = 168
_NewItem$158671 = -200					; size = 168
_pMsg$158666 = -32					; size = 11
_ExOption$158674 = -20					; size = 8
_NewOption$158705 = -12					; size = 8
tv872 = -8						; size = 4
tv828 = -8						; size = 4
tv827 = -8						; size = 4
tv826 = -8						; size = 4
tv821 = -8						; size = 4
_iRetMapNumber$158698 = -8				; size = 4
__$ArrayPad$ = -4					; size = 4
_lpMsg$ = 8						; size = 4
?ItemSerialCreateRecv@@YAXPAUSDHP_ITEMCREATERECV@@@Z PROC ; ItemSerialCreateRecv, COMDAT

; 2171 : {

  00000	55		 push	 ebp
  00001	8b ec		 mov	 ebp, esp
  00003	81 ec d0 00 00
	00		 sub	 esp, 208		; 000000d0H
  00009	a1 00 00 00 00	 mov	 eax, DWORD PTR ___security_cookie
  0000e	33 c5		 xor	 eax, ebp
  00010	89 45 fc	 mov	 DWORD PTR __$ArrayPad$[ebp], eax
  00013	53		 push	 ebx
  00014	8b 5d 08	 mov	 ebx, DWORD PTR _lpMsg$[ebp]

; 2172 : 	LPOBJ lpObj;
; 2173 : 	int mapnumber = lpMsg->MapNumber;

  00017	8a 43 05	 mov	 al, BYTE PTR [ebx+5]

; 2174 : 	int aIndex = lpMsg->aIndex;
; 2175 : 	int lootindex = lpMsg->lootindex;

  0001a	0f bf 53 18	 movsx	 edx, WORD PTR [ebx+24]
  0001e	56		 push	 esi
  0001f	0f b6 f0	 movzx	 esi, al
  00022	57		 push	 edi
  00023	8b 7b 14	 mov	 edi, DWORD PTR [ebx+20]
  00026	89 b5 34 ff ff
	ff		 mov	 DWORD PTR _mapnumber$[ebp], esi
  0002c	89 bd 30 ff ff
	ff		 mov	 DWORD PTR tv710[ebp], edi

; 2176 : 
; 2177 : 	if ( mapnumber != (BYTE)-1)

  00032	81 fe ff 00 00
	00		 cmp	 esi, 255		; 000000ffH
  00038	74 17		 je	 SHORT $LN49@ItemSerial@2

; 2178 : 	{
; 2179 : 		if ( mapnumber < 0 || (mapnumber > MAX_NUMBER_MAP-1 && mapnumber < 235) )

  0003a	85 f6		 test	 esi, esi
  0003c	0f 88 7a 06 00
	00		 js	 $LN15@ItemSerial@2
  00042	8d 4e d8	 lea	 ecx, DWORD PTR [esi-40]
  00045	81 f9 c2 00 00
	00		 cmp	 ecx, 194		; 000000c2H

; 2180 : 		{
; 2181 : 			return;

  0004b	0f 86 6b 06 00
	00		 jbe	 $LN15@ItemSerial@2
$LN49@ItemSerial@2:

; 2182 : 		}
; 2183 : 	}
; 2184 : 
; 2185 : 	if ( lpMsg->MapNumber == (BYTE)-1 || lpMsg->MapNumber == (BYTE)-2 )

  00051	3c ff		 cmp	 al, 255			; 000000ffH
  00053	0f 84 d1 03 00
	00		 je	 $LN34@ItemSerial@2
  00059	3c fe		 cmp	 al, 254			; 000000feH
  0005b	0f 84 c9 03 00
	00		 je	 $LN34@ItemSerial@2

; 2255 : 		return;
; 2256 : 	}
; 2257 : 
; 2258 : 	if ( lpMsg->MapNumber == 235 )

  00061	3c eb		 cmp	 al, 235			; 000000ebH
  00063	0f 85 b5 00 00
	00		 jne	 $LN24@ItemSerial@2

; 2259 : 	{
; 2260 : 		if ( gObj[lpMsg->aIndex].Connected > PLAYER_CONNECTED )

  00069	8b cf		 mov	 ecx, edi
  0006b	69 c9 64 15 00
	00		 imul	 ecx, 5476		; 00001564H
  00071	80 b9 04 00 00
	00 01		 cmp	 BYTE PTR ?gObj@@3PAUOBJECTSTRUCT@@A[ecx+4], 1
  00078	0f 86 3e 06 00
	00		 jbe	 $LN15@ItemSerial@2

; 2261 : 		{
; 2262 : 			int iType  = ITEM_GET_TYPE(lpMsg->Type);

  0007e	0f bf 7b 0c	 movsx	 edi, WORD PTR [ebx+12]
  00082	8b c7		 mov	 eax, edi
  00084	99		 cdq
  00085	81 e2 ff 01 00
	00		 and	 edx, 511		; 000001ffH
  0008b	8d 34 02	 lea	 esi, DWORD PTR [edx+eax]
  0008e	c1 fe 09	 sar	 esi, 9

; 2263 : 			int iTypeIndex = ITEM_GET_INDEX(lpMsg->Type);

  00091	81 e7 ff 01 00
	80		 and	 edi, -2147483137	; 800001ffH
  00097	79 08		 jns	 SHORT $LN50@ItemSerial@2
  00099	4f		 dec	 edi
  0009a	81 cf 00 fe ff
	ff		 or	 edi, -512		; fffffe00H
  000a0	47		 inc	 edi
$LN50@ItemSerial@2:

; 2264 : 
; 2265 : 			BYTE iItemPos = gObjInventoryInsertItem(&gObj[lpMsg->aIndex], iType, iTypeIndex, lpMsg->Level, lpMsg->m_Number, lpMsg->Dur);

  000a1	0f b6 53 0f	 movzx	 edx, BYTE PTR [ebx+15]
  000a5	8b 43 08	 mov	 eax, DWORD PTR [ebx+8]
  000a8	52		 push	 edx
  000a9	0f b6 53 0e	 movzx	 edx, BYTE PTR [ebx+14]
  000ad	50		 push	 eax
  000ae	52		 push	 edx
  000af	57		 push	 edi
  000b0	8d 81 00 00 00
	00		 lea	 eax, DWORD PTR ?gObj@@3PAUOBJECTSTRUCT@@A[ecx]
  000b6	56		 push	 esi
  000b7	50		 push	 eax
  000b8	e8 00 00 00 00	 call	 ?gObjInventoryInsertItem@@YAEPAUOBJECTSTRUCT@@HHHHH@Z ; gObjInventoryInsertItem
  000bd	83 c4 18	 add	 esp, 24			; 00000018H

; 2266 : 
; 2267 : 			if ( iItemPos == (BYTE)-1 )

  000c0	3c ff		 cmp	 al, 255			; 000000ffH
  000c2	75 39		 jne	 SHORT $LN22@ItemSerial@2

; 2268 : 			{
; 2269 : 				LogAdd(LOG_BLACK, "[Mu_2Anv_Event] Error : Failed To Gift Item Type:%d, TypeIndex:%d to [%s][%s]",
; 2270 : 					iType, iTypeIndex, gObj[lpMsg->aIndex].AccountID, gObj[lpMsg->aIndex].Name);

  000c4	8b 5b 14	 mov	 ebx, DWORD PTR [ebx+20]
  000c7	69 db 64 15 00
	00		 imul	 ebx, 5476		; 00001564H
  000cd	8d 8b 6f 00 00
	00		 lea	 ecx, DWORD PTR ?gObj@@3PAUOBJECTSTRUCT@@A[ebx+111]
  000d3	51		 push	 ecx
  000d4	8d 93 64 00 00
	00		 lea	 edx, DWORD PTR ?gObj@@3PAUOBJECTSTRUCT@@A[ebx+100]
  000da	52		 push	 edx
  000db	57		 push	 edi
  000dc	56		 push	 esi
  000dd	68 00 00 00 00	 push	 OFFSET ??_C@_0EO@DCIKCPFD@?$FLMu_2Anv_Event?$FN?5Error?5?3?5Failed?5T@
  000e2	6a 00		 push	 0
  000e4	e8 00 00 00 00	 call	 ?LogAdd@@YAXW4eLogColor@@PADZZ ; LogAdd
  000e9	83 c4 18	 add	 esp, 24			; 00000018H

; 2382 : 		
; 2383 : 	}
; 2384 : }

  000ec	5f		 pop	 edi
  000ed	5e		 pop	 esi
  000ee	5b		 pop	 ebx
  000ef	8b 4d fc	 mov	 ecx, DWORD PTR __$ArrayPad$[ebp]
  000f2	33 cd		 xor	 ecx, ebp
  000f4	e8 00 00 00 00	 call	 @__security_check_cookie@4
  000f9	8b e5		 mov	 esp, ebp
  000fb	5d		 pop	 ebp
  000fc	c3		 ret	 0
$LN22@ItemSerial@2:

; 2271 : 				
; 2272 : 			
; 2273 : 			}
; 2274 : 			else
; 2275 : 			{
; 2276 : 				::GCInventoryItemOneSend(lpMsg->aIndex, iItemPos);

  000fd	8b 4b 14	 mov	 ecx, DWORD PTR [ebx+20]
  00100	0f b6 c0	 movzx	 eax, al
  00103	50		 push	 eax
  00104	51		 push	 ecx
  00105	e8 00 00 00 00	 call	 ?GCInventoryItemOneSend@@YAXHH@Z ; GCInventoryItemOneSend
  0010a	83 c4 08	 add	 esp, 8

; 2382 : 		
; 2383 : 	}
; 2384 : }

  0010d	5f		 pop	 edi
  0010e	5e		 pop	 esi
  0010f	5b		 pop	 ebx
  00110	8b 4d fc	 mov	 ecx, DWORD PTR __$ArrayPad$[ebp]
  00113	33 cd		 xor	 ecx, ebp
  00115	e8 00 00 00 00	 call	 @__security_check_cookie@4
  0011a	8b e5		 mov	 esp, ebp
  0011c	5d		 pop	 ebp
  0011d	c3		 ret	 0
$LN24@ItemSerial@2:

; 2277 : 			}
; 2278 : 
; 2279 : 		}
; 2280 : 	}
; 2281 : 	else if ( lpMsg->MapNumber == 236 )

  0011e	3c ec		 cmp	 al, 236			; 000000ecH
  00120	0f 85 23 01 00
	00		 jne	 $LN19@ItemSerial@2

; 2282 : 	{
; 2283 : 		if ( gObj[lpMsg->aIndex].Connected > PLAYER_CONNECTED )

  00126	69 ff 64 15 00
	00		 imul	 edi, 5476		; 00001564H
  0012c	80 bf 04 00 00
	00 01		 cmp	 BYTE PTR ?gObj@@3PAUOBJECTSTRUCT@@A[edi+4], 1
  00133	0f 86 83 05 00
	00		 jbe	 $LN15@ItemSerial@2

; 2284 : 		{
; 2285 : 			CItem pCreateItem;

  00139	8d 8d 38 ff ff
	ff		 lea	 ecx, DWORD PTR _pCreateItem$158689[ebp]
  0013f	e8 00 00 00 00	 call	 ??0CItem@@QAE@XZ	; CItem::CItem

; 2286 : 			int iItemType = ITEM_GET_TYPE(lpMsg->Type);

  00144	0f bf 4b 0c	 movsx	 ecx, WORD PTR [ebx+12]
  00148	8b c1		 mov	 eax, ecx
  0014a	99		 cdq
  0014b	81 e2 ff 01 00
	00		 and	 edx, 511		; 000001ffH
  00151	03 c2		 add	 eax, edx
  00153	c1 f8 09	 sar	 eax, 9

; 2287 : 			int iItemIndex	= ITEM_GET_INDEX(lpMsg->Type);

  00156	81 e1 ff 01 00
	80		 and	 ecx, -2147483137	; 800001ffH
  0015c	89 85 34 ff ff
	ff		 mov	 DWORD PTR _iItemType$158690[ebp], eax
  00162	79 08		 jns	 SHORT $LN51@ItemSerial@2
  00164	49		 dec	 ecx
  00165	81 c9 00 fe ff
	ff		 or	 ecx, -512		; fffffe00H
  0016b	41		 inc	 ecx
$LN51@ItemSerial@2:

; 2288 : 
; 2289 : 			pCreateItem.Convert(ITEMGET(iItemType, iItemIndex), lpMsg->Op1, lpMsg->Op2,
; 2290 : 				lpMsg->Op3, lpMsg->NewOption, lpMsg->SetOption, 0, 3);

  0016c	0f b6 53 1a	 movzx	 edx, BYTE PTR [ebx+26]
  00170	6a 03		 push	 3
  00172	6a 00		 push	 0
  00174	52		 push	 edx
  00175	0f b6 53 13	 movzx	 edx, BYTE PTR [ebx+19]
  00179	52		 push	 edx
  0017a	0f b6 53 12	 movzx	 edx, BYTE PTR [ebx+18]
  0017e	52		 push	 edx
  0017f	0f b6 53 11	 movzx	 edx, BYTE PTR [ebx+17]
  00183	52		 push	 edx
  00184	0f b6 53 10	 movzx	 edx, BYTE PTR [ebx+16]
  00188	c1 e0 09	 shl	 eax, 9
  0018b	03 c1		 add	 eax, ecx
  0018d	52		 push	 edx
  0018e	89 8d 30 ff ff
	ff		 mov	 DWORD PTR _iItemIndex$158691[ebp], ecx
  00194	50		 push	 eax
  00195	8d 8d 38 ff ff
	ff		 lea	 ecx, DWORD PTR _pCreateItem$158689[ebp]
  0019b	e8 00 00 00 00	 call	 ?Convert@CItem@@QAEXHEEEEEEE@Z ; CItem::Convert

; 2291 : 			pCreateItem.m_Level = lpMsg->Level;
; 2292 : 			pCreateItem.m_Durability = lpMsg->Dur;

  001a0	0f b6 4b 0f	 movzx	 ecx, BYTE PTR [ebx+15]
  001a4	0f b6 43 0e	 movzx	 eax, BYTE PTR [ebx+14]

; 2293 : 
; 2294 : 			BYTE btItemPos = gObjInventoryInsertItem(lpMsg->aIndex, pCreateItem);

  001a8	8b 53 14	 mov	 edx, DWORD PTR [ebx+20]
  001ab	89 4d f8	 mov	 DWORD PTR tv872[ebp], ecx
  001ae	81 ec a8 00 00
	00		 sub	 esp, 168		; 000000a8H
  001b4	db 45 f8	 fild	 DWORD PTR tv872[ebp]
  001b7	8b fc		 mov	 edi, esp
  001b9	66 89 85 40 ff
	ff ff		 mov	 WORD PTR _pCreateItem$158689[ebp+8], ax
  001c0	b9 2a 00 00 00	 mov	 ecx, 42			; 0000002aH
  001c5	d9 9d 5c ff ff
	ff		 fstp	 DWORD PTR _pCreateItem$158689[ebp+36]
  001cb	8d b5 38 ff ff
	ff		 lea	 esi, DWORD PTR _pCreateItem$158689[ebp]
  001d1	52		 push	 edx
  001d2	f3 a5		 rep movsd
  001d4	e8 00 00 00 00	 call	 ?gObjInventoryInsertItem@@YAEHVCItem@@@Z ; gObjInventoryInsertItem
  001d9	81 c4 ac 00 00
	00		 add	 esp, 172		; 000000acH

; 2295 : 
; 2296 : 			if ( btItemPos == (BYTE)-1 )

  001df	3c ff		 cmp	 al, 255			; 000000ffH
  001e1	75 45		 jne	 SHORT $LN17@ItemSerial@2

; 2297 : 			{
; 2298 : 				LogAdd(LOG_BLACK, "[CashShop] Error : Failed To Insert Item Type:%d, TypeIndex:%d to [%s][%s]",
; 2299 : 					iItemType, iItemIndex, gObj[lpMsg->aIndex].AccountID, gObj[lpMsg->aIndex].Name);

  001e3	8b 5b 14	 mov	 ebx, DWORD PTR [ebx+20]
  001e6	8b 95 30 ff ff
	ff		 mov	 edx, DWORD PTR _iItemIndex$158691[ebp]
  001ec	69 db 64 15 00
	00		 imul	 ebx, 5476		; 00001564H
  001f2	8d 83 6f 00 00
	00		 lea	 eax, DWORD PTR ?gObj@@3PAUOBJECTSTRUCT@@A[ebx+111]
  001f8	50		 push	 eax
  001f9	8b 85 34 ff ff
	ff		 mov	 eax, DWORD PTR _iItemType$158690[ebp]
  001ff	8d 8b 64 00 00
	00		 lea	 ecx, DWORD PTR ?gObj@@3PAUOBJECTSTRUCT@@A[ebx+100]
  00205	51		 push	 ecx
  00206	52		 push	 edx
  00207	50		 push	 eax
  00208	68 00 00 00 00	 push	 OFFSET ??_C@_0EL@KDEJKEEJ@?$FLCashShop?$FN?5Error?5?3?5Failed?5To?5Ins@
  0020d	6a 00		 push	 0
  0020f	e8 00 00 00 00	 call	 ?LogAdd@@YAXW4eLogColor@@PADZZ ; LogAdd
  00214	83 c4 18	 add	 esp, 24			; 00000018H

; 2382 : 		
; 2383 : 	}
; 2384 : }

  00217	5f		 pop	 edi
  00218	5e		 pop	 esi
  00219	5b		 pop	 ebx
  0021a	8b 4d fc	 mov	 ecx, DWORD PTR __$ArrayPad$[ebp]
  0021d	33 cd		 xor	 ecx, ebp
  0021f	e8 00 00 00 00	 call	 @__security_check_cookie@4
  00224	8b e5		 mov	 esp, ebp
  00226	5d		 pop	 ebp
  00227	c3		 ret	 0
$LN17@ItemSerial@2:

; 2300 : 			}
; 2301 : 			else
; 2302 : 			{
; 2303 : 				GCInventoryItemOneSend(lpMsg->aIndex, btItemPos);

  00228	8b 53 14	 mov	 edx, DWORD PTR [ebx+20]
  0022b	0f b6 c8	 movzx	 ecx, al
  0022e	51		 push	 ecx
  0022f	52		 push	 edx
  00230	e8 00 00 00 00	 call	 ?GCInventoryItemOneSend@@YAXHH@Z ; GCInventoryItemOneSend
  00235	83 c4 08	 add	 esp, 8

; 2382 : 		
; 2383 : 	}
; 2384 : }

  00238	5f		 pop	 edi
  00239	5e		 pop	 esi
  0023a	5b		 pop	 ebx
  0023b	8b 4d fc	 mov	 ecx, DWORD PTR __$ArrayPad$[ebp]
  0023e	33 cd		 xor	 ecx, ebp
  00240	e8 00 00 00 00	 call	 @__security_check_cookie@4
  00245	8b e5		 mov	 esp, ebp
  00247	5d		 pop	 ebp
  00248	c3		 ret	 0
$LN19@ItemSerial@2:

; 2304 : 			}
; 2305 : 		}
; 2306 : 	}
; 2307 : 	else
; 2308 : 	{
; 2309 : 		int iRetMapNumber = lpMsg->MapNumber;

  00249	8a 4b 05	 mov	 cl, BYTE PTR [ebx+5]
  0024c	0f b6 f9	 movzx	 edi, cl
  0024f	89 7d f8	 mov	 DWORD PTR _iRetMapNumber$158698[ebp], edi

; 2310 : 
; 2311 : 		if ( lpMsg->MapNumber >= 238 && lpMsg->MapNumber <= 244 )

  00252	80 f9 ee	 cmp	 cl, 238			; 000000eeH
  00255	72 10		 jb	 SHORT $LN14@ItemSerial@2
  00257	3c f4		 cmp	 al, 244			; 000000f4H
  00259	77 0c		 ja	 SHORT $LN14@ItemSerial@2

; 2312 : 		{
; 2313 : 			mapnumber -= 227;

  0025b	81 ee e3 00 00
	00		 sub	 esi, 227		; 000000e3H
  00261	89 b5 34 ff ff
	ff		 mov	 DWORD PTR _mapnumber$[ebp], esi
$LN14@ItemSerial@2:

; 2314 : 		}
; 2315 : 
; 2316 : 		if ( lpMsg->MapNumber >= 247 && lpMsg->MapNumber <= 253 )

  00267	3c f7		 cmp	 al, 247			; 000000f7H
  00269	72 10		 jb	 SHORT $LN13@ItemSerial@2
  0026b	3c fd		 cmp	 al, 253			; 000000fdH
  0026d	77 0c		 ja	 SHORT $LN13@ItemSerial@2

; 2317 : 		{
; 2318 : 			mapnumber -= 236;

  0026f	81 ee ec 00 00
	00		 sub	 esi, 236		; 000000ecH
  00275	89 b5 34 ff ff
	ff		 mov	 DWORD PTR _mapnumber$[ebp], esi
$LN13@ItemSerial@2:

; 2319 : 		}
; 2320 : 
; 2321 : 		int iItemCount = MapC[mapnumber].MonsterItemDrop(lpMsg->Type, lpMsg->Level, lpMsg->Dur, lpMsg->x,
; 2322 : 			lpMsg->y, lpMsg->Op1, lpMsg->Op2, lpMsg->Op3, lpMsg->NewOption, lpMsg->SetOption,
; 2323 : 			lootindex, lpMsg->m_Number, 0);

  0027b	8b 43 08	 mov	 eax, DWORD PTR [ebx+8]
  0027e	69 f6 08 07 05
	00		 imul	 esi, 329480		; 00050708H
  00284	0f b6 4b 1a	 movzx	 ecx, BYTE PTR [ebx+26]
  00288	6a 00		 push	 0
  0028a	50		 push	 eax
  0028b	0f b6 43 12	 movzx	 eax, BYTE PTR [ebx+18]
  0028f	52		 push	 edx
  00290	0f b6 53 13	 movzx	 edx, BYTE PTR [ebx+19]
  00294	51		 push	 ecx
  00295	0f b6 4b 11	 movzx	 ecx, BYTE PTR [ebx+17]
  00299	52		 push	 edx
  0029a	0f b6 53 10	 movzx	 edx, BYTE PTR [ebx+16]
  0029e	50		 push	 eax
  0029f	0f b6 43 04	 movzx	 eax, BYTE PTR [ebx+4]
  002a3	51		 push	 ecx
  002a4	0f b6 4b 03	 movzx	 ecx, BYTE PTR [ebx+3]
  002a8	52		 push	 edx
  002a9	0f b6 53 0f	 movzx	 edx, BYTE PTR [ebx+15]
  002ad	50		 push	 eax
  002ae	0f b6 43 0e	 movzx	 eax, BYTE PTR [ebx+14]
  002b2	51		 push	 ecx
  002b3	89 95 30 ff ff
	ff		 mov	 DWORD PTR tv861[ebp], edx
  002b9	51		 push	 ecx
  002ba	0f bf 4b 0c	 movsx	 ecx, WORD PTR [ebx+12]
  002be	db 85 30 ff ff
	ff		 fild	 DWORD PTR tv861[ebp]
  002c4	d9 1c 24	 fstp	 DWORD PTR [esp]
  002c7	50		 push	 eax
  002c8	51		 push	 ecx
  002c9	8d 8e 00 00 00
	00		 lea	 ecx, DWORD PTR ?MapC@@3PAVMapClass@@A[esi]
  002cf	e8 00 00 00 00	 call	 ?MonsterItemDrop@MapClass@@QAEHHHMHHEEEEEHKE@Z ; MapClass::MonsterItemDrop
  002d4	8b f8		 mov	 edi, eax

; 2324 : 
; 2325 : 		if ( iItemCount != -1 )

  002d6	83 ff ff	 cmp	 edi, -1
  002d9	0f 84 91 00 00
	00		 je	 $LN10@ItemSerial@2

; 2326 : 		{
; 2327 : 			if ( iRetMapNumber >= 238 && iRetMapNumber <= 244)

  002df	8b 55 f8	 mov	 edx, DWORD PTR _iRetMapNumber$158698[ebp]
  002e2	81 c2 12 ff ff
	ff		 add	 edx, -238		; ffffff12H
  002e8	83 fa 06	 cmp	 edx, 6
  002eb	77 3c		 ja	 SHORT $LN11@ItemSerial@2

; 2328 : 			{
; 2329 : 				MapC[mapnumber].m_cItem[iItemCount].m_Time = GetTickCount() + 300000;

  002ed	69 c0 48 04 00
	00		 imul	 eax, 1096		; 00000448H
  002f3	03 c6		 add	 eax, esi
  002f5	89 85 30 ff ff
	ff		 mov	 DWORD PTR tv811[ebp], eax
  002fb	ff 15 00 00 00
	00		 call	 DWORD PTR __imp__GetTickCount@0
  00301	8b 8d 30 ff ff
	ff		 mov	 ecx, DWORD PTR tv811[ebp]
  00307	05 e0 93 04 00	 add	 eax, 300000		; 000493e0H
  0030c	89 81 d4 00 00
	00		 mov	 DWORD PTR ?MapC@@3PAVMapClass@@A[ecx+212], eax

; 2330 : 				MapC[mapnumber].m_cItem[iItemCount].m_LootTime = GetTickCount() + 20000;

  00312	ff 15 00 00 00
	00		 call	 DWORD PTR __imp__GetTickCount@0
  00318	8b 95 30 ff ff
	ff		 mov	 edx, DWORD PTR tv811[ebp]
  0031e	05 20 4e 00 00	 add	 eax, 20000		; 00004e20H
  00323	89 82 dc 00 00
	00		 mov	 DWORD PTR ?MapC@@3PAVMapClass@@A[edx+220], eax
$LN11@ItemSerial@2:

; 2331 : 
; 2332 : 			}
; 2333 : 
; 2334 : 			if ( iRetMapNumber >= 247 && iRetMapNumber <= 253)

  00329	8b 45 f8	 mov	 eax, DWORD PTR _iRetMapNumber$158698[ebp]
  0032c	05 09 ff ff ff	 add	 eax, -247		; ffffff09H
  00331	89 45 f8	 mov	 DWORD PTR tv821[ebp], eax
  00334	83 f8 06	 cmp	 eax, 6
  00337	77 37		 ja	 SHORT $LN10@ItemSerial@2

; 2335 : 			{
; 2336 : 				MapC[mapnumber].m_cItem[iItemCount].m_Time = GetTickCount() + 900000;

  00339	69 ff 48 04 00
	00		 imul	 edi, 1096		; 00000448H
  0033f	03 f7		 add	 esi, edi
  00341	8b 3d 00 00 00
	00		 mov	 edi, DWORD PTR __imp__GetTickCount@0
  00347	ff d7		 call	 edi
  00349	05 a0 bb 0d 00	 add	 eax, 900000		; 000dbba0H
  0034e	89 86 d4 00 00
	00		 mov	 DWORD PTR ?MapC@@3PAVMapClass@@A[esi+212], eax

; 2337 : 				MapC[mapnumber].m_cItem[iItemCount].m_LootTime = GetTickCount() + 10000;

  00354	ff d7		 call	 edi
  00356	05 10 27 00 00	 add	 eax, 10000		; 00002710H
  0035b	89 86 dc 00 00
	00		 mov	 DWORD PTR ?MapC@@3PAVMapClass@@A[esi+220], eax

; 2338 : 				g_BloodCastle.m_BridgeData[iRetMapNumber-247].m_nBC_QUESTITEM_SERIAL = lpMsg->m_Number;

  00361	8b 45 f8	 mov	 eax, DWORD PTR tv821[ebp]
  00364	8b 4b 08	 mov	 ecx, DWORD PTR [ebx+8]
  00367	c1 e0 09	 shl	 eax, 9
  0036a	89 88 90 01 00
	00		 mov	 DWORD PTR ?g_BloodCastle@@3VCBloodCastle@@A[eax+400], ecx
$LN10@ItemSerial@2:

; 2339 : 			}
; 2340 : 		}
; 2341 : 
; 2342 : 		//int iItemCount;
; 2343 : 		BYTE NewOption[MAX_EXOPTION_SIZE];
; 2344 : 
; 2345 : 		for ( int i=0;i<MAX_EXOPTION_SIZE;i++)
; 2346 : 		{
; 2347 : 			NewOption[i] = FALSE;

  00370	33 c0		 xor	 eax, eax
  00372	89 45 f4	 mov	 DWORD PTR _NewOption$158705[ebp], eax
  00375	89 45 f8	 mov	 DWORD PTR _NewOption$158705[ebp+4], eax

; 2348 : 		}
; 2349 : 
; 2350 : 		if ( (lpMsg->NewOption & 0x20) != 0 )

  00378	8a 43 13	 mov	 al, BYTE PTR [ebx+19]
  0037b	a8 20		 test	 al, 32			; 00000020H
  0037d	74 04		 je	 SHORT $LN43@ItemSerial@2

; 2351 : 		{
; 2352 : 			NewOption[0] = TRUE;

  0037f	c6 45 f4 01	 mov	 BYTE PTR _NewOption$158705[ebp], 1
$LN43@ItemSerial@2:

; 2353 : 		}
; 2354 : 		if ( (lpMsg->NewOption & 0x10) != 0 )

  00383	a8 10		 test	 al, 16			; 00000010H
  00385	74 04		 je	 SHORT $LN44@ItemSerial@2

; 2355 : 		{
; 2356 : 			NewOption[1] = TRUE;

  00387	c6 45 f5 01	 mov	 BYTE PTR _NewOption$158705[ebp+1], 1
$LN44@ItemSerial@2:

; 2357 : 		}
; 2358 : 
; 2359 : 		if ( (lpMsg->NewOption & 0x8) != 0 )

  0038b	a8 08		 test	 al, 8
  0038d	74 04		 je	 SHORT $LN45@ItemSerial@2

; 2360 : 		{
; 2361 : 			NewOption[2] = TRUE;

  0038f	c6 45 f6 01	 mov	 BYTE PTR _NewOption$158705[ebp+2], 1
$LN45@ItemSerial@2:

; 2362 : 		}
; 2363 : 		if ( (lpMsg->NewOption & 0x4) != 0 )
; 2364 : 		{
; 2365 : 			NewOption[3] = TRUE;

  00393	b2 01		 mov	 dl, 1
  00395	a8 04		 test	 al, 4
  00397	75 03		 jne	 SHORT $LN3@ItemSerial@2
  00399	8a 55 f7	 mov	 dl, BYTE PTR _NewOption$158705[ebp+3]
$LN3@ItemSerial@2:

; 2366 : 		}
; 2367 : 
; 2368 : 		if ( (lpMsg->NewOption & 0x2) != 0 )
; 2369 : 		{
; 2370 : 			NewOption[4] = TRUE;

  0039c	b1 01		 mov	 cl, 1
  0039e	a8 02		 test	 al, 2
  003a0	75 03		 jne	 SHORT $LN2@ItemSerial@2
  003a2	8a 4d f8	 mov	 cl, BYTE PTR _NewOption$158705[ebp+4]
$LN2@ItemSerial@2:

; 2371 : 		}
; 2372 : 		if ( (lpMsg->NewOption & 0x1) != 0 )

  003a5	a8 01		 test	 al, 1

; 2373 : 		{
; 2374 : 			NewOption[5] = TRUE;

  003a7	b0 01		 mov	 al, 1
  003a9	75 03		 jne	 SHORT $LN1@ItemSerial@2
  003ab	8a 45 f9	 mov	 al, BYTE PTR _NewOption$158705[ebp+5]
$LN1@ItemSerial@2:

; 2375 : 		}
; 2376 : 
; 2377 : 		LogAdd(LOG_BLACK, "Monster Item Drop [%d][%d][%d] : serial:%d [%s][%d][%d][%d][%d] Ex:[%d,%d,%d,%d,%d,%d,%d] Set:[%d]",
; 2378 : 			mapnumber, lpMsg->x, lpMsg->y, lpMsg->m_Number, ItemAttribute[lpMsg->Type].Name, lpMsg->Level,
; 2379 : 			lpMsg->Op1, lpMsg->Op2, lpMsg->Op3, 
; 2380 : 			NewOption[0],NewOption[1],NewOption[2],NewOption[3],NewOption[4],NewOption[5],NewOption[6],
; 2381 : 			lpMsg->SetOption);

  003ae	0f b6 73 1a	 movzx	 esi, BYTE PTR [ebx+26]
  003b2	56		 push	 esi
  003b3	0f b6 75 fa	 movzx	 esi, BYTE PTR _NewOption$158705[ebp+6]
  003b7	56		 push	 esi
  003b8	0f b6 c0	 movzx	 eax, al
  003bb	50		 push	 eax
  003bc	0f b6 45 f6	 movzx	 eax, BYTE PTR _NewOption$158705[ebp+2]
  003c0	0f b6 c9	 movzx	 ecx, cl
  003c3	51		 push	 ecx
  003c4	0f b6 4d f5	 movzx	 ecx, BYTE PTR _NewOption$158705[ebp+1]
  003c8	0f b6 d2	 movzx	 edx, dl
  003cb	52		 push	 edx
  003cc	0f b6 55 f4	 movzx	 edx, BYTE PTR _NewOption$158705[ebp]
  003d0	50		 push	 eax
  003d1	0f b6 43 12	 movzx	 eax, BYTE PTR [ebx+18]
  003d5	51		 push	 ecx
  003d6	0f b6 4b 11	 movzx	 ecx, BYTE PTR [ebx+17]
  003da	52		 push	 edx
  003db	0f b6 53 10	 movzx	 edx, BYTE PTR [ebx+16]
  003df	50		 push	 eax
  003e0	0f b6 43 0e	 movzx	 eax, BYTE PTR [ebx+14]
  003e4	51		 push	 ecx
  003e5	0f bf 4b 0c	 movsx	 ecx, WORD PTR [ebx+12]
  003e9	6b c9 6c	 imul	 ecx, 108		; 0000006cH
  003ec	52		 push	 edx
  003ed	8b 53 08	 mov	 edx, DWORD PTR [ebx+8]
  003f0	50		 push	 eax
  003f1	0f b6 43 04	 movzx	 eax, BYTE PTR [ebx+4]
  003f5	81 c1 00 00 00
	00		 add	 ecx, OFFSET ?ItemAttribute@@3PAUITEM_ATTRIBUTE@@A ; ItemAttribute
  003fb	51		 push	 ecx
  003fc	0f b6 4b 03	 movzx	 ecx, BYTE PTR [ebx+3]
  00400	52		 push	 edx
  00401	8b 95 34 ff ff
	ff		 mov	 edx, DWORD PTR _mapnumber$[ebp]
  00407	50		 push	 eax
  00408	51		 push	 ecx
  00409	52		 push	 edx
  0040a	68 00 00 00 00	 push	 OFFSET ??_C@_0GD@LMECKDPM@Monster?5Item?5Drop?5?$FL?$CFd?$FN?$FL?$CFd?$FN?$FL?$CFd?$FN?5?3@
  0040f	6a 00		 push	 0
  00411	e8 00 00 00 00	 call	 ?LogAdd@@YAXW4eLogColor@@PADZZ ; LogAdd
  00416	83 c4 4c	 add	 esp, 76			; 0000004cH

; 2382 : 		
; 2383 : 	}
; 2384 : }

  00419	5f		 pop	 edi
  0041a	5e		 pop	 esi
  0041b	5b		 pop	 ebx
  0041c	8b 4d fc	 mov	 ecx, DWORD PTR __$ArrayPad$[ebp]
  0041f	33 cd		 xor	 ecx, ebp
  00421	e8 00 00 00 00	 call	 @__security_check_cookie@4
  00426	8b e5		 mov	 esp, ebp
  00428	5d		 pop	 ebp
  00429	c3		 ret	 0
$LN34@ItemSerial@2:

; 2186 : 	{
; 2187 : 		if ( gObjIsConnectedGP(aIndex) == FALSE )

  0042a	57		 push	 edi
  0042b	e8 00 00 00 00	 call	 ?gObjIsConnectedGP@@YAHH@Z ; gObjIsConnectedGP
  00430	83 c4 04	 add	 esp, 4
  00433	85 c0		 test	 eax, eax
  00435	75 2a		 jne	 SHORT $LN33@ItemSerial@2

; 2188 : 		{
; 2189 : 			LogAdd(LOG_RED,  "error-L3 [%s][%d]", __FILE__, __LINE__);

  00437	68 8d 08 00 00	 push	 2189			; 0000088dH
  0043c	68 00 00 00 00	 push	 OFFSET ??_C@_0P@DNGOKBGI@DSProtocol?4cpp?$AA@
  00441	68 00 00 00 00	 push	 OFFSET ??_C@_0BC@OFCHNMFP@error?9L3?5?$FL?$CFs?$FN?$FL?$CFd?$FN?$AA@
  00446	6a 01		 push	 1
  00448	e8 00 00 00 00	 call	 ?LogAdd@@YAXW4eLogColor@@PADZZ ; LogAdd
  0044d	83 c4 10	 add	 esp, 16			; 00000010H

; 2382 : 		
; 2383 : 	}
; 2384 : }

  00450	5f		 pop	 edi
  00451	5e		 pop	 esi
  00452	5b		 pop	 ebx
  00453	8b 4d fc	 mov	 ecx, DWORD PTR __$ArrayPad$[ebp]
  00456	33 cd		 xor	 ecx, ebp
  00458	e8 00 00 00 00	 call	 @__security_check_cookie@4
  0045d	8b e5		 mov	 esp, ebp
  0045f	5d		 pop	 ebp
  00460	c3		 ret	 0
$LN33@ItemSerial@2:

; 2190 : 			return;
; 2191 : 		}
; 2192 : 		
; 2193 : 		lpObj = &gObj[aIndex];

  00461	8b c7		 mov	 eax, edi
  00463	69 c0 64 15 00
	00		 imul	 eax, 5476		; 00001564H
  00469	89 85 34 ff ff
	ff		 mov	 DWORD PTR tv856[ebp], eax
  0046f	8d 88 00 00 00
	00		 lea	 ecx, DWORD PTR ?gObj@@3PAUOBJECTSTRUCT@@A[eax]

; 2194 : 
; 2195 : 		if ( lpMsg->MapNumber == (BYTE)-2 )

  00475	8a 43 05	 mov	 al, BYTE PTR [ebx+5]
  00478	3c fe		 cmp	 al, 254			; 000000feH
  0047a	75 34		 jne	 SHORT $LN32@ItemSerial@2

; 2196 : 		{
; 2197 : 			if ( lpObj->m_IfState.type != 13 )

  0047c	8b 89 84 0c 00
	00		 mov	 ecx, DWORD PTR [ecx+3204]
  00482	81 e1 c0 ff 00
	00		 and	 ecx, 65472		; 0000ffc0H
  00488	81 f9 40 03 00
	00		 cmp	 ecx, 832		; 00000340H
  0048e	74 54		 je	 SHORT $LN29@ItemSerial@2

; 2198 : 			{
; 2199 : 				LogAdd(LOG_BLACK, "error-L2: DarkTrainerBox not used.");

  00490	68 00 00 00 00	 push	 OFFSET ??_C@_0CD@JBKACADO@error?9L2?3?5DarkTrainerBox?5not?5use@
  00495	6a 00		 push	 0
  00497	e8 00 00 00 00	 call	 ?LogAdd@@YAXW4eLogColor@@PADZZ ; LogAdd
  0049c	83 c4 08	 add	 esp, 8

; 2382 : 		
; 2383 : 	}
; 2384 : }

  0049f	5f		 pop	 edi
  004a0	5e		 pop	 esi
  004a1	5b		 pop	 ebx
  004a2	8b 4d fc	 mov	 ecx, DWORD PTR __$ArrayPad$[ebp]
  004a5	33 cd		 xor	 ecx, ebp
  004a7	e8 00 00 00 00	 call	 @__security_check_cookie@4
  004ac	8b e5		 mov	 esp, ebp
  004ae	5d		 pop	 ebp
  004af	c3		 ret	 0
$LN32@ItemSerial@2:

; 2200 : 				return;
; 2201 : 			}
; 2202 : 		}
; 2203 : 		else if ( lpObj->m_IfState.type != 7 )

  004b0	8b 91 84 0c 00
	00		 mov	 edx, DWORD PTR [ecx+3204]
  004b6	81 e2 c0 ff 00
	00		 and	 edx, 65472		; 0000ffc0H
  004bc	81 fa c0 01 00
	00		 cmp	 edx, 448		; 000001c0H
  004c2	74 20		 je	 SHORT $LN29@ItemSerial@2

; 2204 : 		{
; 2205 : 			LogAdd(LOG_BLACK, "error-L2: ChaosBox not used.");

  004c4	68 00 00 00 00	 push	 OFFSET ??_C@_0BN@BDLDNMBN@error?9L2?3?5ChaosBox?5not?5used?4?$AA@
  004c9	6a 00		 push	 0
  004cb	e8 00 00 00 00	 call	 ?LogAdd@@YAXW4eLogColor@@PADZZ ; LogAdd
  004d0	83 c4 08	 add	 esp, 8

; 2382 : 		
; 2383 : 	}
; 2384 : }

  004d3	5f		 pop	 edi
  004d4	5e		 pop	 esi
  004d5	5b		 pop	 ebx
  004d6	8b 4d fc	 mov	 ecx, DWORD PTR __$ArrayPad$[ebp]
  004d9	33 cd		 xor	 ecx, ebp
  004db	e8 00 00 00 00	 call	 @__security_check_cookie@4
  004e0	8b e5		 mov	 esp, ebp
  004e2	5d		 pop	 ebp
  004e3	c3		 ret	 0
$LN29@ItemSerial@2:

; 2206 : 			return;
; 2207 : 		}
; 2208 : 		
; 2209 : 		PMSG_CHAOSMIXRESULT pMsg;
; 2210 : 
; 2211 : 		pMsg.h.c = 0xC1;
; 2212 : 		pMsg.h.headcode = 0x86;
; 2213 : 		pMsg.h.size = sizeof(PMSG_CHAOSMIXRESULT);
; 2214 : 
; 2215 : 		if ( lpMsg->MapNumber == (BYTE)-2 )

  004e4	3c fe		 cmp	 al, 254			; 000000feH
  004e6	0f 95 c0	 setne	 al
  004e9	fe c8		 dec	 al
  004eb	24 63		 and	 al, 99			; 00000063H
  004ed	fe c0		 inc	 al

; 2216 : 		{
; 2217 : 			pMsg.Result = 100;
; 2218 : 		}
; 2219 : 		else
; 2220 : 		{
; 2221 : 			pMsg.Result = 1;
; 2222 : 		}
; 2223 : 
; 2224 : 		CItem NewItem;

  004ef	8d 8d 38 ff ff
	ff		 lea	 ecx, DWORD PTR _NewItem$158671[ebp]
  004f5	c6 45 e0 c1	 mov	 BYTE PTR _pMsg$158666[ebp], 193 ; 000000c1H
  004f9	66 c7 45 e1 0b
	86		 mov	 WORD PTR _pMsg$158666[ebp+1], 34315 ; 0000860bH
  004ff	88 45 e3	 mov	 BYTE PTR _pMsg$158666[ebp+3], al
  00502	e8 00 00 00 00	 call	 ??0CItem@@QAE@XZ	; CItem::CItem

; 2225 : 
; 2226 : 		NewItem.m_Level = lpMsg->Level;

  00507	8a 43 0e	 mov	 al, BYTE PTR [ebx+14]

; 2227 : 		NewItem.m_Durability = ItemGetDurability(lpMsg->Type, lpMsg->Level, lpMsg->NewOption, lpMsg->SetOption);

  0050a	0f b6 53 1a	 movzx	 edx, BYTE PTR [ebx+26]
  0050e	0f b6 c8	 movzx	 ecx, al
  00511	52		 push	 edx
  00512	66 89 8d 40 ff
	ff ff		 mov	 WORD PTR _NewItem$158671[ebp+8], cx
  00519	0f b6 4b 13	 movzx	 ecx, BYTE PTR [ebx+19]
  0051d	0f b6 d0	 movzx	 edx, al
  00520	0f bf 43 0c	 movsx	 eax, WORD PTR [ebx+12]
  00524	51		 push	 ecx
  00525	52		 push	 edx
  00526	50		 push	 eax
  00527	e8 00 00 00 00	 call	 ?ItemGetDurability@@YAHHHHH@Z ; ItemGetDurability
  0052c	89 45 f8	 mov	 DWORD PTR tv828[ebp], eax

; 2228 : 
; 2229 : 		if ( lpMsg->Type == ITEMGET(14,7) ) // Siege Potion

  0052f	0f b7 43 0c	 movzx	 eax, WORD PTR [ebx+12]
  00533	db 45 f8	 fild	 DWORD PTR tv828[ebp]
  00536	b9 07 1c 00 00	 mov	 ecx, 7175		; 00001c07H
  0053b	83 c4 10	 add	 esp, 16			; 00000010H
  0053e	d9 9d 5c ff ff
	ff		 fstp	 DWORD PTR _NewItem$158671[ebp+36]
  00544	66 3b c1	 cmp	 ax, cx
  00547	75 10		 jne	 SHORT $LN26@ItemSerial@2

; 2230 : 		{
; 2231 : 			NewItem.m_Durability = lpMsg->Dur;

  00549	0f b6 53 0f	 movzx	 edx, BYTE PTR [ebx+15]
  0054d	89 55 f8	 mov	 DWORD PTR tv827[ebp], edx
  00550	db 45 f8	 fild	 DWORD PTR tv827[ebp]
  00553	d9 9d 5c ff ff
	ff		 fstp	 DWORD PTR _NewItem$158671[ebp+36]
$LN26@ItemSerial@2:

; 2232 : 		}
; 2233 : 
; 2234 : 		if ( lpMsg->Type == ITEMGET(13,37) )

  00559	b9 25 1a 00 00	 mov	 ecx, 6693		; 00001a25H
  0055e	66 3b c1	 cmp	 ax, cx
  00561	75 10		 jne	 SHORT $LN25@ItemSerial@2

; 2235 : 		{
; 2236 : 			NewItem.m_Durability = lpMsg->Dur;

  00563	0f b6 53 0f	 movzx	 edx, BYTE PTR [ebx+15]
  00567	89 55 f8	 mov	 DWORD PTR tv826[ebp], edx
  0056a	db 45 f8	 fild	 DWORD PTR tv826[ebp]
  0056d	d9 9d 5c ff ff
	ff		 fstp	 DWORD PTR _NewItem$158671[ebp+36]
$LN25@ItemSerial@2:

; 2237 : 		}
; 2238 : 
; 2239 : 		NewItem.Convert(lpMsg->Type,lpMsg->Op1, lpMsg->Op2, lpMsg->Op3,lpMsg->NewOption, lpMsg->SetOption,0, CURRENT_DB_VERSION);

  00573	0f b6 4b 1a	 movzx	 ecx, BYTE PTR [ebx+26]
  00577	0f b6 53 13	 movzx	 edx, BYTE PTR [ebx+19]
  0057b	6a 03		 push	 3
  0057d	6a 00		 push	 0
  0057f	51		 push	 ecx
  00580	0f b6 4b 12	 movzx	 ecx, BYTE PTR [ebx+18]
  00584	52		 push	 edx
  00585	0f b6 53 11	 movzx	 edx, BYTE PTR [ebx+17]
  00589	51		 push	 ecx
  0058a	0f b6 4b 10	 movzx	 ecx, BYTE PTR [ebx+16]
  0058e	52		 push	 edx
  0058f	0f bf d0	 movsx	 edx, ax
  00592	51		 push	 ecx
  00593	52		 push	 edx
  00594	8d 8d 38 ff ff
	ff		 lea	 ecx, DWORD PTR _NewItem$158671[ebp]
  0059a	e8 00 00 00 00	 call	 ?Convert@CItem@@QAEXHEEEEEEE@Z ; CItem::Convert

; 2240 : 		ItemByteConvert(pMsg.ItemInfo, NewItem);

  0059f	81 ec a8 00 00
	00		 sub	 esp, 168		; 000000a8H
  005a5	8d 45 e4	 lea	 eax, DWORD PTR _pMsg$158666[ebp+4]
  005a8	8b fc		 mov	 edi, esp
  005aa	b9 2a 00 00 00	 mov	 ecx, 42			; 0000002aH
  005af	8d b5 38 ff ff
	ff		 lea	 esi, DWORD PTR _NewItem$158671[ebp]
  005b5	50		 push	 eax
  005b6	f3 a5		 rep movsd
  005b8	e8 00 00 00 00	 call	 ?ItemByteConvert@@YAXPAEVCItem@@@Z ; ItemByteConvert

; 2241 : 		NewItem.m_Number = lpMsg->m_Number;
; 2242 : 		ChaosBoxInit(lpObj);

  005bd	8b 85 34 ff ff
	ff		 mov	 eax, DWORD PTR tv856[ebp]
  005c3	8b 4b 08	 mov	 ecx, DWORD PTR [ebx+8]
  005c6	8d 80 00 00 00
	00		 lea	 eax, DWORD PTR ?gObj@@3PAUOBJECTSTRUCT@@A[eax]
  005cc	50		 push	 eax
  005cd	89 8d 38 ff ff
	ff		 mov	 DWORD PTR _NewItem$158671[ebp], ecx
  005d3	e8 00 00 00 00	 call	 ?ChaosBoxInit@@YAHPAUOBJECTSTRUCT@@@Z ; ChaosBoxInit
  005d8	81 c4 b0 00 00
	00		 add	 esp, 176		; 000000b0H

; 2243 : 		gObjChaosBoxInsertItemPos(aIndex, NewItem, 0, -1);

  005de	6a ff		 push	 -1
  005e0	6a 00		 push	 0
  005e2	81 ec a8 00 00
	00		 sub	 esp, 168		; 000000a8H
  005e8	8b fc		 mov	 edi, esp
  005ea	b9 2a 00 00 00	 mov	 ecx, 42			; 0000002aH
  005ef	8d b5 38 ff ff
	ff		 lea	 esi, DWORD PTR _NewItem$158671[ebp]
  005f5	f3 a5		 rep movsd
  005f7	8b b5 30 ff ff
	ff		 mov	 esi, DWORD PTR tv710[ebp]
  005fd	56		 push	 esi
  005fe	e8 00 00 00 00	 call	 ?gObjChaosBoxInsertItemPos@@YAEHVCItem@@HH@Z ; gObjChaosBoxInsertItemPos

; 2244 : 		gObjChaosItemSet(aIndex, 0, 1);

  00603	6a 01		 push	 1
  00605	6a 00		 push	 0
  00607	56		 push	 esi
  00608	e8 00 00 00 00	 call	 ?gObjChaosItemSet@@YAXHHE@Z ; gObjChaosItemSet
  0060d	81 c4 c0 00 00
	00		 add	 esp, 192		; 000000c0H

; 2245 : 		BYTE ExOption[MAX_EXOPTION_SIZE];
; 2246 : 		ItemIsBufExOption(ExOption, &NewItem);

  00613	8d 95 38 ff ff
	ff		 lea	 edx, DWORD PTR _NewItem$158671[ebp]
  00619	52		 push	 edx
  0061a	8d 45 ec	 lea	 eax, DWORD PTR _ExOption$158674[ebp]
  0061d	50		 push	 eax
  0061e	e8 00 00 00 00	 call	 ?ItemIsBufExOption@@YAXPAEPAVCItem@@@Z ; ItemIsBufExOption

; 2247 : 
; 2248 : 		LogAdd(LOG_BLACK, "[%s][%s] CBMix Item Create Item:%s [%d][%d] [%d][%d][%d][%d] Ex:[%d,%d,%d,%d,%d,%d,%d] Set:[%d]",
; 2249 : 			lpObj->AccountID, lpObj->Name, NewItem.GetName(), lpMsg->m_Number, lpMsg->Dur, NewItem.m_Level, 
; 2250 : 			NewItem.m_Option1, NewItem.m_Option2, NewItem.m_Option3, ExOption[0], ExOption[1],
; 2251 : 			ExOption[2], ExOption[3], ExOption[4], ExOption[5], ExOption[6], lpMsg->SetOption);

  00623	0f b6 4b 1a	 movzx	 ecx, BYTE PTR [ebx+26]
  00627	0f b6 55 f2	 movzx	 edx, BYTE PTR _ExOption$158674[ebp+6]
  0062b	0f b6 45 f1	 movzx	 eax, BYTE PTR _ExOption$158674[ebp+5]
  0062f	83 c4 08	 add	 esp, 8
  00632	51		 push	 ecx
  00633	0f b6 4d f0	 movzx	 ecx, BYTE PTR _ExOption$158674[ebp+4]
  00637	52		 push	 edx
  00638	0f b6 55 ef	 movzx	 edx, BYTE PTR _ExOption$158674[ebp+3]
  0063c	50		 push	 eax
  0063d	0f b6 45 ee	 movzx	 eax, BYTE PTR _ExOption$158674[ebp+2]
  00641	51		 push	 ecx
  00642	0f b6 4d ed	 movzx	 ecx, BYTE PTR _ExOption$158674[ebp+1]
  00646	52		 push	 edx
  00647	0f b6 55 ec	 movzx	 edx, BYTE PTR _ExOption$158674[ebp]
  0064b	50		 push	 eax
  0064c	0f b6 45 b2	 movzx	 eax, BYTE PTR _NewItem$158671[ebp+122]
  00650	51		 push	 ecx
  00651	0f b6 4d b1	 movzx	 ecx, BYTE PTR _NewItem$158671[ebp+121]
  00655	52		 push	 edx
  00656	0f b6 55 b0	 movzx	 edx, BYTE PTR _NewItem$158671[ebp+120]
  0065a	50		 push	 eax
  0065b	0f bf 85 40 ff
	ff ff		 movsx	 eax, WORD PTR _NewItem$158671[ebp+8]
  00662	51		 push	 ecx
  00663	0f b6 4b 0f	 movzx	 ecx, BYTE PTR [ebx+15]
  00667	52		 push	 edx
  00668	8b 53 08	 mov	 edx, DWORD PTR [ebx+8]
  0066b	50		 push	 eax
  0066c	51		 push	 ecx
  0066d	52		 push	 edx
  0066e	8d 8d 38 ff ff
	ff		 lea	 ecx, DWORD PTR _NewItem$158671[ebp]
  00674	e8 00 00 00 00	 call	 ?GetName@CItem@@QAEPADXZ ; CItem::GetName
  00679	50		 push	 eax
  0067a	8b 85 34 ff ff
	ff		 mov	 eax, DWORD PTR tv856[ebp]
  00680	8d 80 00 00 00
	00		 lea	 eax, DWORD PTR ?gObj@@3PAUOBJECTSTRUCT@@A[eax]
  00686	8d 48 6f	 lea	 ecx, DWORD PTR [eax+111]
  00689	51		 push	 ecx
  0068a	83 c0 64	 add	 eax, 100		; 00000064H
  0068d	50		 push	 eax
  0068e	68 00 00 00 00	 push	 OFFSET ??_C@_0GA@EHKFCGJE@?$FL?$CFs?$FN?$FL?$CFs?$FN?5CBMix?5Item?5Create?5Item?3@
  00693	6a 00		 push	 0
  00695	e8 00 00 00 00	 call	 ?LogAdd@@YAXW4eLogColor@@PADZZ ; LogAdd

; 2252 : 
; 2253 : 		DataSend(aIndex, (LPBYTE)&pMsg, pMsg.h.size);

  0069a	0f b6 55 e1	 movzx	 edx, BYTE PTR _pMsg$158666[ebp+1]
  0069e	52		 push	 edx
  0069f	8d 45 e0	 lea	 eax, DWORD PTR _pMsg$158666[ebp]
  006a2	50		 push	 eax
  006a3	56		 push	 esi
  006a4	e8 00 00 00 00	 call	 ?DataSend@@YAHHPAEK@Z	; DataSend

; 2254 : 		gObj[aIndex].ChaosLock = FALSE;

  006a9	8b 8d 34 ff ff
	ff		 mov	 ecx, DWORD PTR tv856[ebp]
  006af	83 c4 58	 add	 esp, 88			; 00000058H
  006b2	c7 81 ec 0c 00
	00 00 00 00 00	 mov	 DWORD PTR ?gObj@@3PAUOBJECTSTRUCT@@A[ecx+3308], 0
$LN15@ItemSerial@2:

; 2382 : 		
; 2383 : 	}
; 2384 : }

  006bc	8b 4d fc	 mov	 ecx, DWORD PTR __$ArrayPad$[ebp]
  006bf	5f		 pop	 edi
  006c0	5e		 pop	 esi
  006c1	33 cd		 xor	 ecx, ebp
  006c3	5b		 pop	 ebx
  006c4	e8 00 00 00 00	 call	 @__security_check_cookie@4
  006c9	8b e5		 mov	 esp, ebp
  006cb	5d		 pop	 ebp
  006cc	c3		 ret	 0
?ItemSerialCreateRecv@@YAXPAUSDHP_ITEMCREATERECV@@@Z ENDP ; ItemSerialCreateRecv
_TEXT	ENDS
PUBLIC	__$ArrayPad$
PUBLIC	?ItemMovePathSave@@YAXPAD0EEEE0EEEK@Z		; ItemMovePathSave
; Function compile flags: /Ogtp
;	COMDAT ?ItemMovePathSave@@YAXPAD0EEEE0EEEK@Z
_TEXT	SEGMENT
_pMsg$ = -80						; size = 76
__$ArrayPad$ = -4					; size = 4
_ActID$ = 8						; size = 4
_Name$ = 12						; size = 4
_level$ = 16						; size = 1
_mapnumber$ = 20					; size = 1
_x$ = 24						; size = 1
_y$ = 28						; size = 1
_Item$ = 32						; size = 4
_op1$ = 36						; size = 1
_op2$ = 40						; size = 1
_op3$ = 44						; size = 1
_serial$ = 48						; size = 4
?ItemMovePathSave@@YAXPAD0EEEE0EEEK@Z PROC		; ItemMovePathSave, COMDAT

; 2409 : {

  00000	55		 push	 ebp
  00001	8b ec		 mov	 ebp, esp
  00003	83 ec 50	 sub	 esp, 80			; 00000050H
  00006	a1 00 00 00 00	 mov	 eax, DWORD PTR ___security_cookie
  0000b	33 c5		 xor	 eax, ebp
  0000d	89 45 fc	 mov	 DWORD PTR __$ArrayPad$[ebp], eax

; 2423 : 	strcpy(pMsg.ItemName, Item);

  00010	56		 push	 esi

; 2410 : 	SDHP_ITEMMOVESAVE pMsg;
; 2411 : 
; 2412 : 	pMsg.h.c = 0xC1;
; 2413 : 	pMsg.h.headcode = 0x53;
; 2414 : 	pMsg.h.size = sizeof(pMsg);
; 2415 : 	pMsg.ItemLevel = level;
; 2416 : 	pMsg.Serial = serial;

  00011	8b 55 30	 mov	 edx, DWORD PTR _serial$[ebp]
  00014	8a 4d 10	 mov	 cl, BYTE PTR _level$[ebp]
  00017	8b 45 08	 mov	 eax, DWORD PTR _ActID$[ebp]
  0001a	89 55 b4	 mov	 DWORD PTR _pMsg$[ebp+4], edx

; 2417 : 	pMsg.ItemOp1 = op1;
; 2418 : 	pMsg.ItemOp2 = op2;

  0001d	8a 55 28	 mov	 dl, BYTE PTR _op2$[ebp]
  00020	88 4d f7	 mov	 BYTE PTR _pMsg$[ebp+71], cl
  00023	8a 4d 24	 mov	 cl, BYTE PTR _op1$[ebp]
  00026	88 55 f9	 mov	 BYTE PTR _pMsg$[ebp+73], dl

; 2419 : 	pMsg.ItemOp3 = op3;
; 2420 : 	pMsg.X = x;

  00029	8a 55 18	 mov	 dl, BYTE PTR _x$[ebp]
  0002c	88 4d f8	 mov	 BYTE PTR _pMsg$[ebp+72], cl
  0002f	8a 4d 2c	 mov	 cl, BYTE PTR _op3$[ebp]
  00032	88 55 f5	 mov	 BYTE PTR _pMsg$[ebp+69], dl

; 2421 : 	pMsg.Y = y;
; 2422 : 	memcpy(pMsg.Account, ActID, sizeof(pMsg.Account));

  00035	8b 10		 mov	 edx, DWORD PTR [eax]
  00037	88 4d fa	 mov	 BYTE PTR _pMsg$[ebp+74], cl
  0003a	8a 4d 1c	 mov	 cl, BYTE PTR _y$[ebp]
  0003d	89 55 cc	 mov	 DWORD PTR _pMsg$[ebp+28], edx
  00040	66 8b 50 08	 mov	 dx, WORD PTR [eax+8]
  00044	88 4d f6	 mov	 BYTE PTR _pMsg$[ebp+70], cl
  00047	8b 48 04	 mov	 ecx, DWORD PTR [eax+4]

; 2423 : 	strcpy(pMsg.ItemName, Item);

  0004a	8b 45 20	 mov	 eax, DWORD PTR _Item$[ebp]
  0004d	66 89 55 d4	 mov	 WORD PTR _pMsg$[ebp+36], dx
  00051	8d 55 e0	 lea	 edx, DWORD PTR _pMsg$[ebp+48]
  00054	8b 75 0c	 mov	 esi, DWORD PTR _Name$[ebp]
  00057	c6 45 b0 c1	 mov	 BYTE PTR _pMsg$[ebp], 193 ; 000000c1H
  0005b	66 c7 45 b1 4c
	53		 mov	 WORD PTR _pMsg$[ebp+1], 21324 ; 0000534cH
  00061	89 4d d0	 mov	 DWORD PTR _pMsg$[ebp+32], ecx
  00064	2b d0		 sub	 edx, eax
$LL3@ItemMovePa:
  00066	8a 08		 mov	 cl, BYTE PTR [eax]
  00068	88 0c 02	 mov	 BYTE PTR [edx+eax], cl
  0006b	40		 inc	 eax
  0006c	84 c9		 test	 cl, cl
  0006e	75 f6		 jne	 SHORT $LL3@ItemMovePa

; 2424 : 	memcpy(pMsg.Name, Name, sizeof(pMsg.Name));

  00070	8b 06		 mov	 eax, DWORD PTR [esi]
  00072	8b 4e 04	 mov	 ecx, DWORD PTR [esi+4]
  00075	66 8b 56 08	 mov	 dx, WORD PTR [esi+8]
  00079	89 45 d6	 mov	 DWORD PTR _pMsg$[ebp+38], eax
  0007c	89 4d da	 mov	 DWORD PTR _pMsg$[ebp+42], ecx
  0007f	66 89 55 de	 mov	 WORD PTR _pMsg$[ebp+46], dx

; 2425 : 	strcpy(pMsg.ServerName, szServerName);

  00083	33 c0		 xor	 eax, eax
  00085	5e		 pop	 esi
  00086	eb 08 8d a4 24
	00 00 00 00 90	 npad	 10
$LL4@ItemMovePa:
  00090	8a 88 00 00 00
	00		 mov	 cl, BYTE PTR ?szServerName@@3PADA[eax]
  00096	88 4c 05 b8	 mov	 BYTE PTR _pMsg$[ebp+eax+8], cl
  0009a	40		 inc	 eax
  0009b	84 c9		 test	 cl, cl
  0009d	75 f1		 jne	 SHORT $LL4@ItemMovePa

; 2426 : 
; 2427 : 	cDBSMng.Send((PCHAR)&pMsg, pMsg.h.size);

  0009f	0f b6 45 b1	 movzx	 eax, BYTE PTR _pMsg$[ebp+1]
  000a3	50		 push	 eax
  000a4	8d 4d b0	 lea	 ecx, DWORD PTR _pMsg$[ebp]
  000a7	51		 push	 ecx
  000a8	b9 00 00 00 00	 mov	 ecx, OFFSET ?cDBSMng@@3VDBSockMng@@A ; cDBSMng
  000ad	e8 00 00 00 00	 call	 ?Send@DBSockMng@@QAEHPADH@Z ; DBSockMng::Send

; 2428 : }

  000b2	8b 4d fc	 mov	 ecx, DWORD PTR __$ArrayPad$[ebp]
  000b5	33 cd		 xor	 ecx, ebp
  000b7	e8 00 00 00 00	 call	 @__security_check_cookie@4
  000bc	8b e5		 mov	 esp, ebp
  000be	5d		 pop	 ebp
  000bf	c3		 ret	 0
?ItemMovePathSave@@YAXPAD0EEEE0EEEK@Z ENDP		; ItemMovePathSave
_TEXT	ENDS
PUBLIC	__$ArrayPad$
PUBLIC	?DGOptionDataSend@@YAXHPADPAEEEEEE@Z		; DGOptionDataSend
; Function compile flags: /Ogtp
;	COMDAT ?DGOptionDataSend@@YAXHPADPAEEEEEE@Z
_TEXT	SEGMENT
_pMsg$ = -32						; size = 28
__$ArrayPad$ = -4					; size = 4
_aIndex$ = 8						; size = 4
_szName$ = 12						; size = 4
_KeyBuffer$ = 16					; size = 4
_GO$ = 20						; size = 1
_Qk$ = 24						; size = 1
_Wk$ = 28						; size = 1
_Ek$ = 32						; size = 1
_ChatWnd$ = 36						; size = 1
?DGOptionDataSend@@YAXHPADPAEEEEEE@Z PROC		; DGOptionDataSend, COMDAT

; 2450 : {

  00000	55		 push	 ebp
  00001	8b ec		 mov	 ebp, esp
  00003	83 ec 20	 sub	 esp, 32			; 00000020H
  00006	a1 00 00 00 00	 mov	 eax, DWORD PTR ___security_cookie
  0000b	33 c5		 xor	 eax, ebp
  0000d	89 45 fc	 mov	 DWORD PTR __$ArrayPad$[ebp], eax
  00010	8b 45 0c	 mov	 eax, DWORD PTR _szName$[ebp]

; 2451 : 	SDHP_SKILLKEYDATA pMsg;
; 2452 : 
; 2453 : 	pMsg.h.c = 0xC1;
; 2454 : 	pMsg.h.headcode = 0x60;
; 2455 : 	pMsg.h.size = sizeof(pMsg);
; 2456 : 	memcpy(pMsg.Name, szName, sizeof(pMsg.Name));

  00013	8b 10		 mov	 edx, DWORD PTR [eax]
  00015	8b 4d 10	 mov	 ecx, DWORD PTR _KeyBuffer$[ebp]
  00018	89 55 e3	 mov	 DWORD PTR _pMsg$[ebp+3], edx
  0001b	8b 50 04	 mov	 edx, DWORD PTR [eax+4]
  0001e	66 8b 40 08	 mov	 ax, WORD PTR [eax+8]
  00022	89 55 e7	 mov	 DWORD PTR _pMsg$[ebp+7], edx

; 2457 : 	memcpy(pMsg.SkillKeyBuffer, KeyBuffer, sizeof(pMsg.SkillKeyBuffer));

  00025	8b 11		 mov	 edx, DWORD PTR [ecx]
  00027	66 89 45 eb	 mov	 WORD PTR _pMsg$[ebp+11], ax
  0002b	8b 41 04	 mov	 eax, DWORD PTR [ecx+4]
  0002e	66 8b 49 08	 mov	 cx, WORD PTR [ecx+8]
  00032	66 89 4d f5	 mov	 WORD PTR _pMsg$[ebp+21], cx

; 2458 : 	pMsg.GameOption = GO;
; 2459 : 	pMsg.QkeyDefine = Qk;
; 2460 : 	pMsg.WkeyDefine = Wk;

  00036	8a 4d 1c	 mov	 cl, BYTE PTR _Wk$[ebp]
  00039	89 55 ed	 mov	 DWORD PTR _pMsg$[ebp+13], edx
  0003c	8a 55 14	 mov	 dl, BYTE PTR _GO$[ebp]
  0003f	89 45 f1	 mov	 DWORD PTR _pMsg$[ebp+17], eax
  00042	8a 45 18	 mov	 al, BYTE PTR _Qk$[ebp]
  00045	88 4d f9	 mov	 BYTE PTR _pMsg$[ebp+25], cl

; 2461 : 	pMsg.EkeyDefine = Ek;
; 2462 : 	pMsg.ChatWindow = ChatWnd;
; 2463 : 
; 2464 : 	cDBSMng.Send((char*)&pMsg, pMsg.h.size);

  00048	6a 1c		 push	 28			; 0000001cH
  0004a	8d 4d e0	 lea	 ecx, DWORD PTR _pMsg$[ebp]
  0004d	88 55 f7	 mov	 BYTE PTR _pMsg$[ebp+23], dl
  00050	8a 55 20	 mov	 dl, BYTE PTR _Ek$[ebp]
  00053	88 45 f8	 mov	 BYTE PTR _pMsg$[ebp+24], al
  00056	8a 45 24	 mov	 al, BYTE PTR _ChatWnd$[ebp]
  00059	51		 push	 ecx
  0005a	b9 00 00 00 00	 mov	 ecx, OFFSET ?cDBSMng@@3VDBSockMng@@A ; cDBSMng
  0005f	c6 45 e0 c1	 mov	 BYTE PTR _pMsg$[ebp], 193 ; 000000c1H
  00063	66 c7 45 e1 1c
	60		 mov	 WORD PTR _pMsg$[ebp+1], 24604 ; 0000601cH
  00069	88 55 fa	 mov	 BYTE PTR _pMsg$[ebp+26], dl
  0006c	88 45 fb	 mov	 BYTE PTR _pMsg$[ebp+27], al
  0006f	e8 00 00 00 00	 call	 ?Send@DBSockMng@@QAEHPADH@Z ; DBSockMng::Send

; 2465 : }

  00074	8b 4d fc	 mov	 ecx, DWORD PTR __$ArrayPad$[ebp]
  00077	33 cd		 xor	 ecx, ebp
  00079	e8 00 00 00 00	 call	 @__security_check_cookie@4
  0007e	8b e5		 mov	 esp, ebp
  00080	5d		 pop	 ebp
  00081	c3		 ret	 0
?DGOptionDataSend@@YAXHPADPAEEEEEE@Z ENDP		; DGOptionDataSend
_TEXT	ENDS
PUBLIC	?DGOptionDataRecv@@YAXPAUSDHP_SKILLKEYDATA_SEND@@@Z ; DGOptionDataRecv
EXTRN	?GCSkillKeySend@@YAXHPAEEEEEE@Z:PROC		; GCSkillKeySend
; Function compile flags: /Ogtp
;	COMDAT ?DGOptionDataRecv@@YAXPAUSDHP_SKILLKEYDATA_SEND@@@Z
_TEXT	SEGMENT
_szName$ = -12						; size = 11
_lpMsg$ = 8						; size = 4
?DGOptionDataRecv@@YAXPAUSDHP_SKILLKEYDATA_SEND@@@Z PROC ; DGOptionDataRecv, COMDAT

; 2469 : {

  00000	55		 push	 ebp
  00001	8b ec		 mov	 ebp, esp
  00003	83 ec 0c	 sub	 esp, 12			; 0000000cH
  00006	56		 push	 esi

; 2470 : 	int aIndex = lpMsg->aIndex;

  00007	8b 75 08	 mov	 esi, DWORD PTR _lpMsg$[ebp]
  0000a	57		 push	 edi
  0000b	8b 7e 04	 mov	 edi, DWORD PTR [esi+4]

; 2471 : 	char szName[MAX_ACCOUNT_LEN+1];
; 2472 : 
; 2473 : 	if ( aIndex < 0 || aIndex >= OBJMAX )

  0000e	81 ff e7 1c 00
	00		 cmp	 edi, 7399		; 00001ce7H
  00014	0f 87 85 00 00
	00		 ja	 $LN2@DGOptionDa

; 2474 : 	{
; 2475 : 		return;
; 2476 : 	}
; 2477 : 
; 2478 : 	memset(szName, 0, sizeof(szName));
; 2479 : 	memcpy(szName, lpMsg->Name, sizeof(lpMsg->Name));

  0001a	8b 4e 0c	 mov	 ecx, DWORD PTR [esi+12]
  0001d	66 8b 56 10	 mov	 dx, WORD PTR [esi+16]
  00021	33 c0		 xor	 eax, eax
  00023	89 45 f4	 mov	 DWORD PTR _szName$[ebp], eax
  00026	89 45 f8	 mov	 DWORD PTR _szName$[ebp+4], eax
  00029	66 89 45 fc	 mov	 WORD PTR _szName$[ebp+8], ax
  0002d	88 45 fe	 mov	 BYTE PTR _szName$[ebp+10], al
  00030	8b 46 08	 mov	 eax, DWORD PTR [esi+8]
  00033	89 45 f4	 mov	 DWORD PTR _szName$[ebp], eax

; 2480 : 
; 2481 : 	if ( strcmp(gObj[aIndex].Name, szName) != 0 )

  00036	8b c7		 mov	 eax, edi
  00038	69 c0 64 15 00
	00		 imul	 eax, 5476		; 00001564H
  0003e	89 4d f8	 mov	 DWORD PTR _szName$[ebp+4], ecx
  00041	66 89 55 fc	 mov	 WORD PTR _szName$[ebp+8], dx
  00045	8d 4d f4	 lea	 ecx, DWORD PTR _szName$[ebp]
  00048	05 6f 00 00 00	 add	 eax, OFFSET ?gObj@@3PAUOBJECTSTRUCT@@A+111
  0004d	8d 49 00	 npad	 3
$LL6@DGOptionDa:
  00050	8a 10		 mov	 dl, BYTE PTR [eax]
  00052	3a 11		 cmp	 dl, BYTE PTR [ecx]
  00054	75 1a		 jne	 SHORT $LN7@DGOptionDa
  00056	84 d2		 test	 dl, dl
  00058	74 12		 je	 SHORT $LN8@DGOptionDa
  0005a	8a 50 01	 mov	 dl, BYTE PTR [eax+1]
  0005d	3a 51 01	 cmp	 dl, BYTE PTR [ecx+1]
  00060	75 0e		 jne	 SHORT $LN7@DGOptionDa
  00062	83 c0 02	 add	 eax, 2
  00065	83 c1 02	 add	 ecx, 2
  00068	84 d2		 test	 dl, dl
  0006a	75 e4		 jne	 SHORT $LL6@DGOptionDa
$LN8@DGOptionDa:
  0006c	33 c0		 xor	 eax, eax
  0006e	eb 05		 jmp	 SHORT $LN9@DGOptionDa
$LN7@DGOptionDa:
  00070	1b c0		 sbb	 eax, eax
  00072	83 d8 ff	 sbb	 eax, -1
$LN9@DGOptionDa:
  00075	85 c0		 test	 eax, eax
  00077	75 26		 jne	 SHORT $LN2@DGOptionDa

; 2482 : 	{
; 2483 : 		return;
; 2484 : 	}
; 2485 : 
; 2486 : 	::GCSkillKeySend(aIndex, lpMsg->SkillKeyBuffer, lpMsg->GameOption, lpMsg->QkeyDefine, lpMsg->WkeyDefine, lpMsg->EkeyDefine, lpMsg->ChatWindow);

  00079	0f b6 46 20	 movzx	 eax, BYTE PTR [esi+32]
  0007d	0f b6 4e 1f	 movzx	 ecx, BYTE PTR [esi+31]
  00081	0f b6 56 1e	 movzx	 edx, BYTE PTR [esi+30]
  00085	50		 push	 eax
  00086	0f b6 46 1d	 movzx	 eax, BYTE PTR [esi+29]
  0008a	51		 push	 ecx
  0008b	0f b6 4e 1c	 movzx	 ecx, BYTE PTR [esi+28]
  0008f	52		 push	 edx
  00090	50		 push	 eax
  00091	51		 push	 ecx
  00092	83 c6 12	 add	 esi, 18			; 00000012H
  00095	56		 push	 esi
  00096	57		 push	 edi
  00097	e8 00 00 00 00	 call	 ?GCSkillKeySend@@YAXHPAEEEEEE@Z ; GCSkillKeySend
  0009c	83 c4 1c	 add	 esp, 28			; 0000001cH
$LN2@DGOptionDa:
  0009f	5f		 pop	 edi
  000a0	5e		 pop	 esi

; 2487 : }

  000a1	8b e5		 mov	 esp, ebp
  000a3	5d		 pop	 ebp
  000a4	c3		 ret	 0
?DGOptionDataRecv@@YAXPAUSDHP_SKILLKEYDATA_SEND@@@Z ENDP ; DGOptionDataRecv
_TEXT	ENDS
PUBLIC	??_C@_0EA@PICKNLKN@Request?5to?5receive?5petitem?5infom@ ; `string'
PUBLIC	__$ArrayPad$
PUBLIC	?DGRecvPetItemInfo@@YAXPAE@Z			; DGRecvPetItemInfo
EXTRN	?gObjCalCharacter@@YAXH@Z:PROC			; gObjCalCharacter
EXTRN	?SetPetItemInfo@CItem@@QAEXHH@Z:PROC		; CItem::SetPetItemInfo
;	COMDAT ??_C@_0EA@PICKNLKN@Request?5to?5receive?5petitem?5infom@
CONST	SEGMENT
??_C@_0EA@PICKNLKN@Request?5to?5receive?5petitem?5infom@ DB 'Request to r'
	DB	'eceive petitem infomation doesn''t match the user %s', 00H ; `string'
; Function compile flags: /Ogtp
CONST	ENDS
;	COMDAT ?DGRecvPetItemInfo@@YAXPAE@Z
_TEXT	SEGMENT
_aIndex$ = -28						; size = 4
tv281 = -24						; size = 4
tv310 = -20						; size = 4
_ReCalc$158889 = -20					; size = 4
_szAccountId$ = -16					; size = 11
__$ArrayPad$ = -4					; size = 4
_lpData$ = 8						; size = 4
?DGRecvPetItemInfo@@YAXPAE@Z PROC			; DGRecvPetItemInfo, COMDAT

; 2630 : {

  00000	55		 push	 ebp
  00001	8b ec		 mov	 ebp, esp
  00003	83 ec 1c	 sub	 esp, 28			; 0000001cH
  00006	a1 00 00 00 00	 mov	 eax, DWORD PTR ___security_cookie
  0000b	33 c5		 xor	 eax, ebp
  0000d	89 45 fc	 mov	 DWORD PTR __$ArrayPad$[ebp], eax
  00010	56		 push	 esi
  00011	57		 push	 edi
  00012	8b 7d 08	 mov	 edi, DWORD PTR _lpData$[ebp]

; 2631 : 	SDHP_RECV_PETITEM_INFO* lpMsg = (SDHP_RECV_PETITEM_INFO *)lpData;
; 2632 : 	Recv_PetItem_Info* pPetItemInfo = (Recv_PetItem_Info *)((DWORD)lpData + sizeof(SDHP_RECV_PETITEM_INFO));
; 2633 : 	int aIndex = lpMsg->Number;
; 2634 : 	char szAccountId[MAX_ACCOUNT_LEN+1];
; 2635 : 	szAccountId[MAX_ACCOUNT_LEN]=0;
; 2636 : 
; 2637 : 	memcpy(szAccountId, lpMsg->AccountID, MAX_ACCOUNT_LEN);

  00015	8b 47 04	 mov	 eax, DWORD PTR [edi+4]
  00018	0f b7 77 10	 movzx	 esi, WORD PTR [edi+16]
  0001c	8b 4f 08	 mov	 ecx, DWORD PTR [edi+8]
  0001f	66 8b 57 0c	 mov	 dx, WORD PTR [edi+12]
  00023	89 45 f0	 mov	 DWORD PTR _szAccountId$[ebp], eax

; 2638 : 	
; 2639 : 	if ( !gObjIsAccontConnect(aIndex, szAccountId))

  00026	8d 45 f0	 lea	 eax, DWORD PTR _szAccountId$[ebp]
  00029	50		 push	 eax
  0002a	56		 push	 esi
  0002b	89 75 e4	 mov	 DWORD PTR _aIndex$[ebp], esi
  0002e	c6 45 fa 00	 mov	 BYTE PTR _szAccountId$[ebp+10], 0
  00032	89 4d f4	 mov	 DWORD PTR _szAccountId$[ebp+4], ecx
  00035	66 89 55 f8	 mov	 WORD PTR _szAccountId$[ebp+8], dx
  00039	e8 00 00 00 00	 call	 ?gObjIsAccontConnect@@YAHHPAD@Z ; gObjIsAccontConnect
  0003e	83 c4 08	 add	 esp, 8
  00041	85 c0		 test	 eax, eax
  00043	75 29		 jne	 SHORT $LN16@DGRecvPetI

; 2640 : 	{
; 2641 : 		LogAdd(LOG_RED,  "Request to receive petitem infomation doesn't match the user %s", szAccountId);

  00045	8d 4d f0	 lea	 ecx, DWORD PTR _szAccountId$[ebp]
  00048	51		 push	 ecx
  00049	68 00 00 00 00	 push	 OFFSET ??_C@_0EA@PICKNLKN@Request?5to?5receive?5petitem?5infom@
  0004e	6a 01		 push	 1
  00050	e8 00 00 00 00	 call	 ?LogAdd@@YAXW4eLogColor@@PADZZ ; LogAdd

; 2642 : 		CloseClient(aIndex);

  00055	56		 push	 esi
  00056	e8 00 00 00 00	 call	 ?CloseClient@@YAXH@Z	; CloseClient
  0005b	83 c4 10	 add	 esp, 16			; 00000010H
  0005e	5f		 pop	 edi
  0005f	5e		 pop	 esi

; 2682 : 				}
; 2683 : 			}
; 2684 : 		}
; 2685 : 
; 2686 : 	}
; 2687 : }

  00060	8b 4d fc	 mov	 ecx, DWORD PTR __$ArrayPad$[ebp]
  00063	33 cd		 xor	 ecx, ebp
  00065	e8 00 00 00 00	 call	 @__security_check_cookie@4
  0006a	8b e5		 mov	 esp, ebp
  0006c	5d		 pop	 ebp
  0006d	c3		 ret	 0
$LN16@DGRecvPetI:

; 2643 : 		
; 2644 : 		return;
; 2645 : 	}
; 2646 : 
; 2647 : 	if ( lpMsg->InvenType == 0 )

  0006e	8a 47 12	 mov	 al, BYTE PTR [edi+18]
  00071	53		 push	 ebx
  00072	84 c0		 test	 al, al
  00074	0f 85 a0 00 00
	00		 jne	 $LN15@DGRecvPetI

; 2648 : 	{
; 2649 : 		BOOL ReCalc = 0;

  0007a	33 db		 xor	 ebx, ebx
  0007c	89 5d ec	 mov	 DWORD PTR _ReCalc$158889[ebp], ebx

; 2650 : 
; 2651 : 		for ( int n=0;n<lpMsg->nCount;n++)

  0007f	38 5f 13	 cmp	 BYTE PTR [edi+19], bl
  00082	0f 86 fe 00 00
	00		 jbe	 $LN26@DGRecvPetI

; 2675 : 		{
; 2676 : 
; 2677 : 			if ( gObj[aIndex].pWarehouse[pPetItemInfo[n].nPos].IsItem() )

  00088	69 f6 64 15 00
	00		 imul	 esi, 5476		; 00001564H
  0008e	8d 96 8c 0c 00
	00		 lea	 edx, DWORD PTR ?gObj@@3PAUOBJECTSTRUCT@@A[esi+3212]
  00094	89 55 e8	 mov	 DWORD PTR tv281[ebp], edx
  00097	8d 77 14	 lea	 esi, DWORD PTR [edi+20]
  0009a	8d 9b 00 00 00
	00		 npad	 6
$LL25@DGRecvPetI:

; 2652 : 		{
; 2653 : 			if ( pPetItemInfo[n].nPos < INVETORY_WEAR_SIZE )

  000a0	8a 06		 mov	 al, BYTE PTR [esi]
  000a2	3c 0c		 cmp	 al, 12			; 0000000cH
  000a4	73 07		 jae	 SHORT $LN23@DGRecvPetI

; 2654 : 			{
; 2655 : 				ReCalc = 1;

  000a6	c7 45 ec 01 00
	00 00		 mov	 DWORD PTR _ReCalc$158889[ebp], 1
$LN23@DGRecvPetI:

; 2656 : 			}
; 2657 : 
; 2658 : 			if ( gObj[aIndex].pInventory[pPetItemInfo[n].nPos].IsItem() )

  000ad	0f b6 c8	 movzx	 ecx, al
  000b0	8b 45 e8	 mov	 eax, DWORD PTR tv281[ebp]
  000b3	69 c9 a8 00 00
	00		 imul	 ecx, 168		; 000000a8H
  000b9	03 08		 add	 ecx, DWORD PTR [eax]
  000bb	e8 00 00 00 00	 call	 ?IsItem@CItem@@QAEHXZ	; CItem::IsItem
  000c0	85 c0		 test	 eax, eax
  000c2	74 23		 je	 SHORT $LN13@DGRecvPetI

; 2659 : 			{
; 2660 : 				if ( gObj[aIndex].pInventory[pPetItemInfo[n].nPos].m_Number == pPetItemInfo[n].nSerial )

  000c4	0f b6 0e	 movzx	 ecx, BYTE PTR [esi]
  000c7	8b 55 e8	 mov	 edx, DWORD PTR tv281[ebp]
  000ca	69 c9 a8 00 00
	00		 imul	 ecx, 168		; 000000a8H
  000d0	03 0a		 add	 ecx, DWORD PTR [edx]
  000d2	8b 11		 mov	 edx, DWORD PTR [ecx]
  000d4	3b 56 04	 cmp	 edx, DWORD PTR [esi+4]
  000d7	75 0e		 jne	 SHORT $LN13@DGRecvPetI

; 2661 : 				{
; 2662 : 					gObj[aIndex].pInventory[pPetItemInfo[n].nPos].SetPetItemInfo(pPetItemInfo[n].Level, pPetItemInfo[n].Exp);

  000d9	8b 46 0c	 mov	 eax, DWORD PTR [esi+12]
  000dc	0f b6 56 08	 movzx	 edx, BYTE PTR [esi+8]
  000e0	50		 push	 eax
  000e1	52		 push	 edx
  000e2	e8 00 00 00 00	 call	 ?SetPetItemInfo@CItem@@QAEXHH@Z ; CItem::SetPetItemInfo
$LN13@DGRecvPetI:

; 2650 : 
; 2651 : 		for ( int n=0;n<lpMsg->nCount;n++)

  000e7	0f b6 47 13	 movzx	 eax, BYTE PTR [edi+19]
  000eb	43		 inc	 ebx
  000ec	83 c6 10	 add	 esi, 16			; 00000010H
  000ef	3b d8		 cmp	 ebx, eax
  000f1	7c ad		 jl	 SHORT $LL25@DGRecvPetI

; 2663 : 				}
; 2664 : 			}
; 2665 : 		}
; 2666 : 
; 2667 : 		if ( ReCalc != FALSE )

  000f3	83 7d ec 00	 cmp	 DWORD PTR _ReCalc$158889[ebp], 0
  000f7	0f 84 89 00 00
	00		 je	 $LN26@DGRecvPetI

; 2668 : 		{
; 2669 : 			gObjCalCharacter(aIndex);

  000fd	8b 4d e4	 mov	 ecx, DWORD PTR _aIndex$[ebp]
  00100	51		 push	 ecx
  00101	e8 00 00 00 00	 call	 ?gObjCalCharacter@@YAXH@Z ; gObjCalCharacter
  00106	83 c4 04	 add	 esp, 4
  00109	5b		 pop	 ebx
  0010a	5f		 pop	 edi
  0010b	5e		 pop	 esi

; 2682 : 				}
; 2683 : 			}
; 2684 : 		}
; 2685 : 
; 2686 : 	}
; 2687 : }

  0010c	8b 4d fc	 mov	 ecx, DWORD PTR __$ArrayPad$[ebp]
  0010f	33 cd		 xor	 ecx, ebp
  00111	e8 00 00 00 00	 call	 @__security_check_cookie@4
  00116	8b e5		 mov	 esp, ebp
  00118	5d		 pop	 ebp
  00119	c3		 ret	 0
$LN15@DGRecvPetI:

; 2670 : 		}
; 2671 : 	}
; 2672 : 	else if ( lpMsg->InvenType == 1 )

  0011a	3c 01		 cmp	 al, 1
  0011c	75 68		 jne	 SHORT $LN26@DGRecvPetI

; 2673 : 	{
; 2674 : 		for ( int n=0;n<lpMsg->nCount;n++)

  0011e	33 db		 xor	 ebx, ebx
  00120	38 5f 13	 cmp	 BYTE PTR [edi+19], bl
  00123	76 61		 jbe	 SHORT $LN26@DGRecvPetI

; 2675 : 		{
; 2676 : 
; 2677 : 			if ( gObj[aIndex].pWarehouse[pPetItemInfo[n].nPos].IsItem() )

  00125	69 f6 64 15 00
	00		 imul	 esi, 5476		; 00001564H
  0012b	8d 96 c4 0c 00
	00		 lea	 edx, DWORD PTR ?gObj@@3PAUOBJECTSTRUCT@@A[esi+3268]
  00131	89 55 ec	 mov	 DWORD PTR tv310[ebp], edx
  00134	8d 77 14	 lea	 esi, DWORD PTR [edi+20]
  00137	eb 07 8d a4 24
	00 00 00 00	 npad	 9
$LL24@DGRecvPetI:
  00140	0f b6 0e	 movzx	 ecx, BYTE PTR [esi]
  00143	8b 45 ec	 mov	 eax, DWORD PTR tv310[ebp]
  00146	69 c9 a8 00 00
	00		 imul	 ecx, 168		; 000000a8H
  0014c	03 08		 add	 ecx, DWORD PTR [eax]
  0014e	e8 00 00 00 00	 call	 ?IsItem@CItem@@QAEHXZ	; CItem::IsItem
  00153	85 c0		 test	 eax, eax
  00155	74 23		 je	 SHORT $LN4@DGRecvPetI

; 2678 : 			{
; 2679 : 				if ( gObj[aIndex].pWarehouse[pPetItemInfo[n].nPos].m_Number == pPetItemInfo[n].nSerial )

  00157	0f b6 0e	 movzx	 ecx, BYTE PTR [esi]
  0015a	8b 55 ec	 mov	 edx, DWORD PTR tv310[ebp]
  0015d	69 c9 a8 00 00
	00		 imul	 ecx, 168		; 000000a8H
  00163	03 0a		 add	 ecx, DWORD PTR [edx]
  00165	8b 11		 mov	 edx, DWORD PTR [ecx]
  00167	3b 56 04	 cmp	 edx, DWORD PTR [esi+4]
  0016a	75 0e		 jne	 SHORT $LN4@DGRecvPetI

; 2680 : 				{
; 2681 : 					gObj[aIndex].pWarehouse[pPetItemInfo[n].nPos].SetPetItemInfo(pPetItemInfo[n].Level, pPetItemInfo[n].Exp);

  0016c	8b 46 0c	 mov	 eax, DWORD PTR [esi+12]
  0016f	0f b6 56 08	 movzx	 edx, BYTE PTR [esi+8]
  00173	50		 push	 eax
  00174	52		 push	 edx
  00175	e8 00 00 00 00	 call	 ?SetPetItemInfo@CItem@@QAEXHH@Z ; CItem::SetPetItemInfo
$LN4@DGRecvPetI:

; 2673 : 	{
; 2674 : 		for ( int n=0;n<lpMsg->nCount;n++)

  0017a	0f b6 47 13	 movzx	 eax, BYTE PTR [edi+19]
  0017e	43		 inc	 ebx
  0017f	83 c6 10	 add	 esi, 16			; 00000010H
  00182	3b d8		 cmp	 ebx, eax
  00184	7c ba		 jl	 SHORT $LL24@DGRecvPetI
$LN26@DGRecvPetI:

; 2682 : 				}
; 2683 : 			}
; 2684 : 		}
; 2685 : 
; 2686 : 	}
; 2687 : }

  00186	8b 4d fc	 mov	 ecx, DWORD PTR __$ArrayPad$[ebp]
  00189	5b		 pop	 ebx
  0018a	5f		 pop	 edi
  0018b	33 cd		 xor	 ecx, ebp
  0018d	5e		 pop	 esi
  0018e	e8 00 00 00 00	 call	 @__security_check_cookie@4
  00193	8b e5		 mov	 esp, ebp
  00195	5d		 pop	 ebp
  00196	c3		 ret	 0
?DGRecvPetItemInfo@@YAXPAE@Z ENDP			; DGRecvPetItemInfo
_TEXT	ENDS
PUBLIC	?GS_DGAnsCastleTotalInfo@@YAXPAE@Z		; GS_DGAnsCastleTotalInfo
; Function compile flags: /Ogtp
;	COMDAT ?GS_DGAnsCastleTotalInfo@@YAXPAE@Z
_TEXT	SEGMENT
_lpRecv$ = 8						; size = 4
?GS_DGAnsCastleTotalInfo@@YAXPAE@Z PROC			; GS_DGAnsCastleTotalInfo, COMDAT

; 3936 : #if ( GS_CASTLE == 1 )
; 3937 : 	CSP_ANS_CASTLEDATA * lpMsg = (CSP_ANS_CASTLEDATA *)lpRecv;
; 3938 : 	if ( lpMsg == NULL )
; 3939 : 		return;
; 3940 : 
; 3941 : 	if ( lpMsg->wMapSvrNum != g_MapServerManager.GetMapSvrGroup() )
; 3942 : 		LogAdd(LOG_RED,  "[CastleSiege] PACKET-ERROR [0x80][0x00] GS_DGAnsCastleTotalInfo() - lpMsg->wMapSvrNum != g_MapServerManager.GetMapSvrGroup()");
; 3943 : #endif
; 3944 : }

  00000	c3		 ret	 0
?GS_DGAnsCastleTotalInfo@@YAXPAE@Z ENDP			; GS_DGAnsCastleTotalInfo
_TEXT	ENDS
PUBLIC	?GS_DGAnsOwnerGuildMaster@@YAXPAE@Z		; GS_DGAnsOwnerGuildMaster
; Function compile flags: /Ogtp
;	COMDAT ?GS_DGAnsOwnerGuildMaster@@YAXPAE@Z
_TEXT	SEGMENT
_lpRecv$ = 8						; size = 4
?GS_DGAnsOwnerGuildMaster@@YAXPAE@Z PROC		; GS_DGAnsOwnerGuildMaster, COMDAT

; 3961 : #if ( GS_CASTLE == 1 )
; 3962 : 	CSP_ANS_OWNERGUILDMASTER * lpMsg = (CSP_ANS_OWNERGUILDMASTER * )lpRecv;
; 3963 : 	if ( lpMsg == NULL )
; 3964 : 		return;
; 3965 : 
; 3966 : 	if ( lpMsg->wMapSvrNum != g_MapServerManager.GetMapSvrGroup() )
; 3967 : 	{
; 3968 : 		LogAdd(LOG_RED,  "[CastleSiege] PACKET-ERROR [0x80][0x00] GS_DGAnsCastleTotalInfo() - lpMsg->wMapSvrNum != g_MapServerManager.GetMapSvrGroup()");	// #error on Msg
; 3969 : 		return;
; 3970 : 	}
; 3971 : 
; 3972 : 	GCAnsCastleSiegeState(lpMsg->iIndex, lpMsg->iResult, lpMsg->szCastleOwnGuild, lpMsg->szCastleOwnGuildMaster);
; 3973 : #endif
; 3974 : }

  00000	c3		 ret	 0
?GS_DGAnsOwnerGuildMaster@@YAXPAE@Z ENDP		; GS_DGAnsOwnerGuildMaster
_TEXT	ENDS
PUBLIC	?GS_DGAnsCastleNpcBuy@@YAXPAE@Z			; GS_DGAnsCastleNpcBuy
; Function compile flags: /Ogtp
;	COMDAT ?GS_DGAnsCastleNpcBuy@@YAXPAE@Z
_TEXT	SEGMENT
_lpRecv$ = 8						; size = 4
?GS_DGAnsCastleNpcBuy@@YAXPAE@Z PROC			; GS_DGAnsCastleNpcBuy, COMDAT

; 3993 : #if ( GS_CASTLE == 1 )
; 3994 : 	CSP_ANS_NPCBUY * lpMsg = (CSP_ANS_NPCBUY * )lpRecv;
; 3995 : 	if ( lpMsg == NULL )
; 3996 : 		return;
; 3997 : 
; 3998 : 	if ( lpMsg->wMapSvrNum != g_MapServerManager.GetMapSvrGroup() )
; 3999 : 	{
; 4000 : 		LogAdd(LOG_RED,  "[CastleSiege] PACKET-ERROR [0x80][0x03] GS_DGAnsCastleNpcBuy() - lpMsg->wMapSvrNum != g_MapServerManager.GetMapSvrGroup()");
; 4001 : 		return;
; 4002 : 	}
; 4003 : 
; 4004 : 	if ( lpMsg->iResult == 1 )
; 4005 : 	{
; 4006 : 		BOOL bRET = g_CastleSiege.AddDbNPC(lpMsg->iNpcNumber, lpMsg->iNpcIndex);
; 4007 : 		if ( bRET == TRUE )
; 4008 : 		{
; 4009 : 			if ( gObjIsConnected(lpMsg->iIndex ) )
; 4010 : 			{
; 4011 : 				gObj[lpMsg->iIndex].Money -= lpMsg->iBuyCost;
; 4012 : 				if ( gObj[lpMsg->iIndex].Money < 0 )
; 4013 : 					gObj[lpMsg->iIndex].Money = 0;
; 4014 : 					
; 4015 : 				GCMoneySend(lpMsg->iIndex, gObj[lpMsg->iIndex].Money);
; 4016 : 			}
; 4017 : 
; 4018 : 			LogAdd(LOG_BLACK, "[CastleSiege] GS_DGAnsCastleNpcBuy() - CCastleSiege::AddDbNPC() OK - Npc:(CLS:%d, IDX:%d)",
; 4019 : 				lpMsg->iNpcNumber, lpMsg->iNpcIndex);
; 4020 : 		}
; 4021 : 		else
; 4022 : 		{
; 4023 : 			LogAdd(LOG_BLACK, "[CastleSiege] GS_DGAnsCastleNpcBuy() - CCastleSiege::AddDbNPC() FAILED - Npc:(CLS:%d, IDX:%d)",
; 4024 : 				lpMsg->iNpcNumber, lpMsg->iNpcIndex);
; 4025 : 		}
; 4026 : 	}
; 4027 : 	else
; 4028 : 	{
; 4029 : 		LogAdd(LOG_BLACK, "[CastleSiege] GS_DGAnsCastleNpcBuy() FAILED - Result:(%d), Npc:(CLS:%d, IDX:%d)",
; 4030 : 			lpMsg->iResult, lpMsg->iNpcNumber, lpMsg->iNpcIndex);
; 4031 : 	}
; 4032 : 
; 4033 : 	GCAnsNpcBuy(lpMsg->iIndex, lpMsg->iResult, lpMsg->iNpcNumber, lpMsg->iNpcIndex);
; 4034 : #endif
; 4035 : }

  00000	c3		 ret	 0
?GS_DGAnsCastleNpcBuy@@YAXPAE@Z ENDP			; GS_DGAnsCastleNpcBuy
_TEXT	ENDS
PUBLIC	?GS_DGAnsCastleNpcRepair@@YAXPAE@Z		; GS_DGAnsCastleNpcRepair
; Function compile flags: /Ogtp
;	COMDAT ?GS_DGAnsCastleNpcRepair@@YAXPAE@Z
_TEXT	SEGMENT
_lpRecv$ = 8						; size = 4
?GS_DGAnsCastleNpcRepair@@YAXPAE@Z PROC			; GS_DGAnsCastleNpcRepair, COMDAT

; 4053 : #if ( GS_CASTLE == 1 )
; 4054 : 	CSP_ANS_NPCREPAIR * lpMsg = (CSP_ANS_NPCREPAIR * )lpRecv;
; 4055 : 	if ( lpMsg == NULL )
; 4056 : 		return;
; 4057 : 
; 4058 : 	if ( lpMsg->wMapSvrNum != g_MapServerManager.GetMapSvrGroup() )
; 4059 : 	{
; 4060 : 		LogAdd(LOG_RED,  "[CastleSiege] PACKET-ERROR [0x80][0x04] GS_DGAnsCastleNpcRepair() - lpMsg->wMapSvrNum != g_MapServerManager.GetMapSvrGroup()");
; 4061 : 		return;
; 4062 : 	}
; 4063 : 
; 4064 : 	if ( lpMsg->iResult == 1 )
; 4065 : 	{
; 4066 : 		BOOL bRET = g_CastleSiege.RepairDbNPC(lpMsg->iNpcNumber, lpMsg->iNpcIndex, lpMsg->iNpcHp, lpMsg->iNpcMaxHp);
; 4067 : 		if ( bRET == TRUE )
; 4068 : 		{
; 4069 : 			if ( gObjIsConnected(lpMsg->iIndex ) )
; 4070 : 			{
; 4071 : 				gObj[lpMsg->iIndex].Money -= lpMsg->iRepairCost;
; 4072 : 				if ( gObj[lpMsg->iIndex].Money < 0 )
; 4073 : 					gObj[lpMsg->iIndex].Money = 0;
; 4074 : 					
; 4075 : 				GCMoneySend(lpMsg->iIndex, gObj[lpMsg->iIndex].Money);
; 4076 : 			}
; 4077 : 
; 4078 : 			LogAdd(LOG_BLACK, "[CastleSiege] GS_DGAnsCastleNpcRepair() - CCastleSiege::RepairDbNPC() OK - Npc:(CLS:%d, IDX:%d)",
; 4079 : 				lpMsg->iNpcNumber, lpMsg->iNpcIndex);
; 4080 : 		}
; 4081 : 		else
; 4082 : 		{
; 4083 : 			LogAdd(LOG_BLACK, "[CastleSiege] GS_DGAnsCastleNpcRepair() - CCastleSiege::RepairDbNPC() FAILED - Npc:(CLS:%d, IDX:%d)",
; 4084 : 				lpMsg->iNpcNumber, lpMsg->iNpcIndex);
; 4085 : 		}
; 4086 : 	}
; 4087 : 	else
; 4088 : 	{
; 4089 : 		LogAdd(LOG_BLACK, "[CastleSiege] GS_DGAnsCastleNpcRepair() FAILED - Result:(%d), Npc:(CLS:%d, IDX:%d)",
; 4090 : 			lpMsg->iResult, lpMsg->iNpcNumber, lpMsg->iNpcIndex);
; 4091 : 	}
; 4092 : 
; 4093 : 	GCAnsNpcRepair(lpMsg->iIndex, lpMsg->iResult, lpMsg->iNpcNumber, lpMsg->iNpcIndex, lpMsg->iNpcHp, lpMsg->iNpcMaxHp);
; 4094 : #endif
; 4095 : }

  00000	c3		 ret	 0
?GS_DGAnsCastleNpcRepair@@YAXPAE@Z ENDP			; GS_DGAnsCastleNpcRepair
_TEXT	ENDS
PUBLIC	?GS_DGAnsCastleNpcUpgrade@@YAXPAE@Z		; GS_DGAnsCastleNpcUpgrade
; Function compile flags: /Ogtp
;	COMDAT ?GS_DGAnsCastleNpcUpgrade@@YAXPAE@Z
_TEXT	SEGMENT
_lpRecv$ = 8						; size = 4
?GS_DGAnsCastleNpcUpgrade@@YAXPAE@Z PROC		; GS_DGAnsCastleNpcUpgrade, COMDAT

; 4113 : #if ( GS_CASTLE == 1 )
; 4114 : 	CSP_ANS_NPCUPGRADE * lpMsg = (CSP_ANS_NPCUPGRADE * )lpRecv;
; 4115 : 	if ( lpMsg == NULL )
; 4116 : 		return;
; 4117 : 
; 4118 : 	if ( lpMsg->wMapSvrNum != g_MapServerManager.GetMapSvrGroup() )
; 4119 : 	{
; 4120 : 		LogAdd(LOG_RED,  "[CastleSiege] PACKET-ERROR [0x80][0x05] GS_DGAnsCastleNpcUpgrade() - lpMsg->wMapSvrNum != g_MapServerManager.GetMapSvrGroup()");
; 4121 : 		return;
; 4122 : 	}
; 4123 : 
; 4124 : 	if ( lpMsg->iResult == 0 )
; 4125 : 	{
; 4126 : 		LogAdd(LOG_RED,  "[CastleSiege] ERROR - Castle NPC Upgrade Fail() (CLS:%d, IDX:%d, UPTYPE:%d, UPVAL:%d)",
; 4127 : 			lpMsg->iNpcNumber, lpMsg->iNpcIndex, lpMsg->iNpcUpType, lpMsg->iNpcUpValue);
; 4128 : 	}
; 4129 : 	else
; 4130 : 	{
; 4131 : 		g_CastleSiege.UpgradeDbNPC(lpMsg->iIndex, lpMsg->iNpcNumber, lpMsg->iNpcIndex, lpMsg->iNpcUpType,lpMsg->iNpcUpValue, lpMsg->iNpcUpIndex);
; 4132 : 		LogAdd(LOG_BLACK, "[CastleSiege] [0x80][0x06] GS_DGAnsTaxInfo() - Npc Upgrade OK (CLS:%d, IDX:%d, UPTYPE:%d, UPVAL:%d)",
; 4133 : 			lpMsg->iNpcNumber, lpMsg->iNpcIndex, lpMsg->iNpcUpType, lpMsg->iNpcUpValue);
; 4134 : 	}
; 4135 : 
; 4136 : 	GCAnsNpcUpgrade(lpMsg->iIndex, lpMsg->iResult, lpMsg->iNpcNumber, lpMsg->iNpcIndex, lpMsg->iNpcUpType, lpMsg->iNpcUpValue);
; 4137 : #endif
; 4138 : }

  00000	c3		 ret	 0
?GS_DGAnsCastleNpcUpgrade@@YAXPAE@Z ENDP		; GS_DGAnsCastleNpcUpgrade
_TEXT	ENDS
PUBLIC	?GS_DGAnsTaxInfo@@YAXPAE@Z			; GS_DGAnsTaxInfo
; Function compile flags: /Ogtp
;	COMDAT ?GS_DGAnsTaxInfo@@YAXPAE@Z
_TEXT	SEGMENT
_lpRecv$ = 8						; size = 4
?GS_DGAnsTaxInfo@@YAXPAE@Z PROC				; GS_DGAnsTaxInfo, COMDAT

; 4154 : #if ( GS_CASTLE == 1 )
; 4155 : 	CSP_ANS_TAXINFO * lpMsg = (CSP_ANS_TAXINFO * )lpRecv;
; 4156 : 	if ( lpMsg == NULL )
; 4157 : 		return;
; 4158 : 
; 4159 : 	if ( lpMsg->wMapSvrNum != g_MapServerManager.GetMapSvrGroup() )
; 4160 : 	{
; 4161 : 		LogAdd(LOG_RED,  "[CastleSiege] PACKET-ERROR [0x80][0x06] GS_DGAnsTaxInfo() - lpMsg->wMapSvrNum != g_MapServerManager.GetMapSvrGroup()");
; 4162 : 		return;
; 4163 : 	}
; 4164 : 
; 4165 : 	if ( lpMsg->iResult == 1 )
; 4166 : 	{
; 4167 : 		GCAnsTaxMoneyInfo(lpMsg->iIndex, lpMsg->iResult, lpMsg->iTaxRateChaos, lpMsg->iTaxRateStore, lpMsg->i64CastleMoney);
; 4168 : 		g_CastleSiege.SetCastleMoney(lpMsg->i64CastleMoney);
; 4169 : 	}
; 4170 : #endif
; 4171 : }

  00000	c3		 ret	 0
?GS_DGAnsTaxInfo@@YAXPAE@Z ENDP				; GS_DGAnsTaxInfo
_TEXT	ENDS
PUBLIC	?GS_DGAnsTaxRateChange@@YAXPAE@Z		; GS_DGAnsTaxRateChange
; Function compile flags: /Ogtp
;	COMDAT ?GS_DGAnsTaxRateChange@@YAXPAE@Z
_TEXT	SEGMENT
_lpRecv$ = 8						; size = 4
?GS_DGAnsTaxRateChange@@YAXPAE@Z PROC			; GS_DGAnsTaxRateChange, COMDAT

; 4185 : #if ( GS_CASTLE == 1 )
; 4186 : 	CSP_ANS_TAXRATECHANGE * lpMsg = (CSP_ANS_TAXRATECHANGE * )lpRecv;
; 4187 : 	if ( lpMsg == NULL )
; 4188 : 		return;
; 4189 : 
; 4190 : 	if ( lpMsg->wMapSvrNum != g_MapServerManager.GetMapSvrGroup() )
; 4191 : 	{
; 4192 : 		LogAdd(LOG_RED,  "[CastleSiege] PACKET-ERROR [0x80][0x07] GS_DGAnsTaxRateChange() - lpMsg->wMapSvrNum != g_MapServerManager.GetMapSvrGroup()");
; 4193 : 		return;
; 4194 : 	}
; 4195 : 
; 4196 : 	if ( lpMsg->iResult == 1 )
; 4197 : 	{
; 4198 : 		g_CastleSiege.SetTaxRate(lpMsg->iTaxKind, lpMsg->iTaxRate);
; 4199 : 		GCAnsTaxRateChange(lpMsg->iIndex, lpMsg->iResult, lpMsg->iTaxKind, lpMsg->iTaxRate);
; 4200 : 	}
; 4201 : #endif
; 4202 : }

  00000	c3		 ret	 0
?GS_DGAnsTaxRateChange@@YAXPAE@Z ENDP			; GS_DGAnsTaxRateChange
_TEXT	ENDS
PUBLIC	?GS_DGAnsCastleMoneyChange@@YAXPAE@Z		; GS_DGAnsCastleMoneyChange
; Function compile flags: /Ogtp
;	COMDAT ?GS_DGAnsCastleMoneyChange@@YAXPAE@Z
_TEXT	SEGMENT
_lpRecv$ = 8						; size = 4
?GS_DGAnsCastleMoneyChange@@YAXPAE@Z PROC		; GS_DGAnsCastleMoneyChange, COMDAT

; 4217 : #if ( GS_CASTLE == 1 )
; 4218 : 	CSP_ANS_MONEYCHANGE * lpMsg = (CSP_ANS_MONEYCHANGE * )lpRecv;
; 4219 : 	if ( lpMsg == NULL )
; 4220 : 		return;
; 4221 : 
; 4222 : 	if ( lpMsg->wMapSvrNum != g_MapServerManager.GetMapSvrGroup() )
; 4223 : 	{
; 4224 : 		LogAdd(LOG_RED,  "[CastleSiege] PACKET-ERROR [0x80][0x08] GS_DGAnsCastleMoneyChange() - lpMsg->wMapSvrNum != g_MapServerManager.GetMapSvrGroup()");
; 4225 : 		return;
; 4226 : 	}
; 4227 : 
; 4228 : 	if ( lpMsg->iResult == 1 )
; 4229 : 	{
; 4230 : 		if ( gObjIsConnected(lpMsg->iIndex) )
; 4231 : 		{
; 4232 : 			if ( lpMsg->iMoneyChanged < 0 )
; 4233 : 			{
; 4234 : 				gObj[lpMsg->iIndex].Money -= lpMsg->iMoneyChanged;	// #error ???
; 4235 : 				if ( gObj[lpMsg->iIndex].Money > MAX_ZEN )
; 4236 : 					gObj[lpMsg->iIndex].Money = MAX_ZEN;
; 4237 : 
; 4238 : 				GCMoneySend(lpMsg->iIndex, gObj[lpMsg->iIndex].Money);
; 4239 : 
; 4240 : 				LogAdd(LOG_BLACK, "[CastleSiege] [0x80][0x08] GS_DGAnsCastleMoneyChange() - Withdraw Request OK [%s][%s] (ReqMoney:%d, TotMoney:%I64d)",
; 4241 : 					gObj[lpMsg->iIndex].AccountID, gObj[lpMsg->iIndex].Name, lpMsg->iMoneyChanged, lpMsg->i64CastleMoney);
; 4242 : 			}
; 4243 : 		}
; 4244 : 
; 4245 : 		g_CastleSiege.SetCastleMoney(lpMsg->i64CastleMoney);
; 4246 : 	}
; 4247 : 	GCAnsMoneyDrawOut(lpMsg->iIndex, lpMsg->iResult, lpMsg->i64CastleMoney);
; 4248 : #endif
; 4249 : }

  00000	c3		 ret	 0
?GS_DGAnsCastleMoneyChange@@YAXPAE@Z ENDP		; GS_DGAnsCastleMoneyChange
_TEXT	ENDS
PUBLIC	?GS_DGAnsSiegeDateChange@@YAXPAE@Z		; GS_DGAnsSiegeDateChange
; Function compile flags: /Ogtp
;	COMDAT ?GS_DGAnsSiegeDateChange@@YAXPAE@Z
_TEXT	SEGMENT
_lpRecv$ = 8						; size = 4
?GS_DGAnsSiegeDateChange@@YAXPAE@Z PROC			; GS_DGAnsSiegeDateChange, COMDAT

; 4266 : #if ( GS_CASTLE == 1 )
; 4267 : 	CSP_ANS_SDEDCHANGE * lpMsg = (CSP_ANS_SDEDCHANGE * )lpRecv;
; 4268 : 	if ( lpMsg == NULL )
; 4269 : 		return;
; 4270 : 
; 4271 : 	if ( lpMsg->wMapSvrNum != g_MapServerManager.GetMapSvrGroup() )
; 4272 : 	{
; 4273 : 		LogAdd(LOG_RED,  "[CastleSiege] PACKET-ERROR [0x80][0x09] GS_DGAnsSiegeDateChange() - lpMsg->wMapSvrNum != g_MapServerManager.GetMapSvrGroup()");
; 4274 : 		return;
; 4275 : 	}
; 4276 : 
; 4277 : #endif
; 4278 : }

  00000	c3		 ret	 0
?GS_DGAnsSiegeDateChange@@YAXPAE@Z ENDP			; GS_DGAnsSiegeDateChange
_TEXT	ENDS
PUBLIC	?GS_DGAnsGuildMarkRegInfo@@YAXPAE@Z		; GS_DGAnsGuildMarkRegInfo
; Function compile flags: /Ogtp
;	COMDAT ?GS_DGAnsGuildMarkRegInfo@@YAXPAE@Z
_TEXT	SEGMENT
_lpRecv$ = 8						; size = 4
?GS_DGAnsGuildMarkRegInfo@@YAXPAE@Z PROC		; GS_DGAnsGuildMarkRegInfo, COMDAT

; 4282 : #if ( GS_CASTLE == 1 )
; 4283 : 	CSP_ANS_GUILDREGINFO * lpMsg = (CSP_ANS_GUILDREGINFO * )lpRecv;
; 4284 : 	if ( lpMsg == NULL )
; 4285 : 		return;
; 4286 : 
; 4287 : 	if ( lpMsg->wMapSvrNum != g_MapServerManager.GetMapSvrGroup() )
; 4288 : 	{
; 4289 : 		LogAdd(LOG_RED,  "[CastleSiege] PACKET-ERROR [0x80][0x0A] GS_DGAnsGuildMarkRegInfo() - lpMsg->wMapSvrNum != g_MapServerManager.GetMapSvrGroup()");
; 4290 : 		return;
; 4291 : 	}
; 4292 : 
; 4293 : 	GCAnsGuildRegInfo(lpMsg->iIndex, lpMsg->iResult, lpMsg);
; 4294 : #endif
; 4295 : }

  00000	c3		 ret	 0
?GS_DGAnsGuildMarkRegInfo@@YAXPAE@Z ENDP		; GS_DGAnsGuildMarkRegInfo
_TEXT	ENDS
PUBLIC	?GS_DGAnsSiegeEndedChange@@YAXPAE@Z		; GS_DGAnsSiegeEndedChange
; Function compile flags: /Ogtp
;	COMDAT ?GS_DGAnsSiegeEndedChange@@YAXPAE@Z
_TEXT	SEGMENT
_lpRecv$ = 8						; size = 4
?GS_DGAnsSiegeEndedChange@@YAXPAE@Z PROC		; GS_DGAnsSiegeEndedChange, COMDAT

; 4307 : #if ( GS_CASTLE == 1 )
; 4308 : 	CSP_ANS_SIEGEENDCHANGE * lpMsg = (CSP_ANS_SIEGEENDCHANGE * )lpRecv;
; 4309 : 	if ( lpMsg == NULL )
; 4310 : 		return;
; 4311 : 
; 4312 : 	if ( lpMsg->wMapSvrNum != g_MapServerManager.GetMapSvrGroup() )
; 4313 : 	{
; 4314 : 		LogAdd(LOG_RED,  "[CastleSiege] PACKET-ERROR [0x80][0x0B] GS_DGAnsSiegeEndedChange() - lpMsg->wMapSvrNum != g_MapServerManager.GetMapSvrGroup()");
; 4315 : 		return;
; 4316 : 	}
; 4317 : #endif
; 4318 : }

  00000	c3		 ret	 0
?GS_DGAnsSiegeEndedChange@@YAXPAE@Z ENDP		; GS_DGAnsSiegeEndedChange
_TEXT	ENDS
PUBLIC	?GS_DGAnsCastleOwnerChange@@YAXPAE@Z		; GS_DGAnsCastleOwnerChange
; Function compile flags: /Ogtp
;	COMDAT ?GS_DGAnsCastleOwnerChange@@YAXPAE@Z
_TEXT	SEGMENT
_lpRecv$ = 8						; size = 4
?GS_DGAnsCastleOwnerChange@@YAXPAE@Z PROC		; GS_DGAnsCastleOwnerChange, COMDAT

; 4331 : #if ( GS_CASTLE == 1 )
; 4332 : 	CSP_ANS_CASTLEOWNERCHANGE * lpMsg = (CSP_ANS_CASTLEOWNERCHANGE * )lpRecv;
; 4333 : 	if ( lpMsg == NULL )
; 4334 : 		return;
; 4335 : 
; 4336 : 	if ( lpMsg->wMapSvrNum != g_MapServerManager.GetMapSvrGroup() )
; 4337 : 	{
; 4338 : 		LogAdd(LOG_RED,  "[CastleSiege] PACKET-ERROR [0x80][0x0C] GS_DGAnsCastleOwnerChange() - lpMsg->wMapSvrNum != g_MapServerManager.GetMapSvrGroup()");
; 4339 : 		return;
; 4340 : 	}
; 4341 : #endif
; 4342 : }

  00000	c3		 ret	 0
?GS_DGAnsCastleOwnerChange@@YAXPAE@Z ENDP		; GS_DGAnsCastleOwnerChange
_TEXT	ENDS
PUBLIC	?GS_DGAnsRegAttackGuild@@YAXPAE@Z		; GS_DGAnsRegAttackGuild
; Function compile flags: /Ogtp
;	COMDAT ?GS_DGAnsRegAttackGuild@@YAXPAE@Z
_TEXT	SEGMENT
_lpRecv$ = 8						; size = 4
?GS_DGAnsRegAttackGuild@@YAXPAE@Z PROC			; GS_DGAnsRegAttackGuild, COMDAT

; 4355 : #if ( GS_CASTLE == 1 )
; 4356 : 	CSP_ANS_REGATTACKGUILD * lpMsg = (CSP_ANS_REGATTACKGUILD * )lpRecv;
; 4357 : 	if ( lpMsg == NULL )
; 4358 : 		return;
; 4359 : 
; 4360 : 	if ( lpMsg->wMapSvrNum != g_MapServerManager.GetMapSvrGroup() )
; 4361 : 	{
; 4362 : 		LogAdd(LOG_RED,  "[CastleSiege] PACKET-ERROR [0x80][0x0D] GS_DGAnsRegAttackGuild() - lpMsg->wMapSvrNum != g_MapServerManager.GetMapSvrGroup()");
; 4363 : 		return;
; 4364 : 	}
; 4365 : 	GCAnsRegCastleSiege(lpMsg->iIndex, lpMsg->iResult, lpMsg->szEnemyGuildName);
; 4366 : #endif
; 4367 : }

  00000	c3		 ret	 0
?GS_DGAnsRegAttackGuild@@YAXPAE@Z ENDP			; GS_DGAnsRegAttackGuild
_TEXT	ENDS
PUBLIC	?GS_DGAnsRestartCastleState@@YAXPAE@Z		; GS_DGAnsRestartCastleState
; Function compile flags: /Ogtp
;	COMDAT ?GS_DGAnsRestartCastleState@@YAXPAE@Z
_TEXT	SEGMENT
_lpRecv$ = 8						; size = 4
?GS_DGAnsRestartCastleState@@YAXPAE@Z PROC		; GS_DGAnsRestartCastleState, COMDAT

; 4378 : #if ( GS_CASTLE == 1 )
; 4379 : 	CSP_ANS_CASTLESIEGEEND * lpMsg = (CSP_ANS_CASTLESIEGEEND * )lpRecv;
; 4380 : 	if ( lpMsg == NULL )
; 4381 : 		return;
; 4382 : 
; 4383 : 	if ( lpMsg->wMapSvrNum != g_MapServerManager.GetMapSvrGroup() )
; 4384 : 	{
; 4385 : 		LogAdd(LOG_RED,  "[CastleSiege] PACKET-ERROR [0x80][0x0E] GS_DGAnsRestartCastleState() - lpMsg->wMapSvrNum != g_MapServerManager.GetMapSvrGroup()");
; 4386 : 		return;
; 4387 : 	}
; 4388 : 	g_CastleSiege.ResetCastleCycle();
; 4389 : #endif
; 4390 : }

  00000	c3		 ret	 0
?GS_DGAnsRestartCastleState@@YAXPAE@Z ENDP		; GS_DGAnsRestartCastleState
_TEXT	ENDS
PUBLIC	??_C@_0IA@LNMFDGBP@?$FLCastleSiege?$FN?5PACKET?9ERROR?5?$FL0x80@ ; `string'
PUBLIC	__$ArrayPad$
PUBLIC	?GS_DGAnsMapSvrMsgMultiCast@@YAXPAE@Z		; GS_DGAnsMapSvrMsgMultiCast
EXTRN	?SendNoticeToAllUser@TNotice@@SAXPAX@Z:PROC	; TNotice::SendNoticeToAllUser
EXTRN	?SetNoticeProperty@TNotice@@SAXPAXEKEGE@Z:PROC	; TNotice::SetNoticeProperty
EXTRN	?MakeNoticeMsg@TNotice@@SAXPAXEPAD@Z:PROC	; TNotice::MakeNoticeMsg
EXTRN	?g_MapServerManager@@3VCMapServerManager@@A:BYTE ; g_MapServerManager
;	COMDAT ??_C@_0IA@LNMFDGBP@?$FLCastleSiege?$FN?5PACKET?9ERROR?5?$FL0x80@
; File c:\users\faelhs\mu-1.1\emu - gameserver sapphire s0\gameserver\tnotice.h
CONST	SEGMENT
??_C@_0IA@LNMFDGBP@?$FLCastleSiege?$FN?5PACKET?9ERROR?5?$FL0x80@ DB '[Cas'
	DB	'tleSiege] PACKET-ERROR [0x80][0x0F] GS_DGAnsMapSvrMsgMultiCas'
	DB	't() - lpMsg->wMapSvrNum != g_MapServerManager.GetMapSvrGroup('
	DB	')', 00H					; `string'
; Function compile flags: /Ogtp
; File c:\users\faelhs\mu-1.1\emu - gameserver sapphire s0\gameserver\dsprotocol.cpp
CONST	ENDS
;	COMDAT ?GS_DGAnsMapSvrMsgMultiCast@@YAXPAE@Z
_TEXT	SEGMENT
_pNotice$159838 = -420					; size = 272
_szNotice$ = -148					; size = 144
__$ArrayPad$ = -4					; size = 4
_lpRecv$ = 8						; size = 4
?GS_DGAnsMapSvrMsgMultiCast@@YAXPAE@Z PROC		; GS_DGAnsMapSvrMsgMultiCast, COMDAT

; 4410 : {

  00000	55		 push	 ebp
  00001	8b ec		 mov	 ebp, esp
  00003	81 ec a4 01 00
	00		 sub	 esp, 420		; 000001a4H
  00009	a1 00 00 00 00	 mov	 eax, DWORD PTR ___security_cookie
  0000e	33 c5		 xor	 eax, ebp
  00010	89 45 fc	 mov	 DWORD PTR __$ArrayPad$[ebp], eax
  00013	56		 push	 esi
  00014	8b 75 08	 mov	 esi, DWORD PTR _lpRecv$[ebp]

; 4411 : 	CSP_ANS_MAPSVRMULTICAST * lpMsg = (CSP_ANS_MAPSVRMULTICAST *)lpRecv;
; 4412 : 
; 4413 : 	if ( lpMsg == NULL )

  00017	85 f6		 test	 esi, esi
  00019	0f 84 b4 00 00
	00		 je	 $LN1@GS_DGAnsMa

; 4414 : 	{
; 4415 : 		return;
; 4416 : 	}
; 4417 : 
; 4418 : 	if ( lpMsg->wMapSvrNum != g_MapServerManager.GetMapSvrGroup() )

  0001f	a1 80 af 00 00	 mov	 eax, DWORD PTR ?g_MapServerManager@@3VCMapServerManager@@A+44928
  00024	85 c0		 test	 eax, eax
  00026	74 06		 je	 SHORT $LN6@GS_DGAnsMa
  00028	0f b6 40 08	 movzx	 eax, BYTE PTR [eax+8]
  0002c	eb 03		 jmp	 SHORT $LN7@GS_DGAnsMa
$LN6@GS_DGAnsMa:
  0002e	83 c8 ff	 or	 eax, -1
$LN7@GS_DGAnsMa:
  00031	0f b7 4e 04	 movzx	 ecx, WORD PTR [esi+4]
  00035	3b c8		 cmp	 ecx, eax
  00037	74 1e		 je	 SHORT $LN2@GS_DGAnsMa

; 4419 : 	{
; 4420 : 		LogAdd(LOG_RED,  "[CastleSiege] PACKET-ERROR [0x80][0x0F] GS_DGAnsMapSvrMsgMultiCast() - lpMsg->wMapSvrNum != g_MapServerManager.GetMapSvrGroup()");

  00039	68 00 00 00 00	 push	 OFFSET ??_C@_0IA@LNMFDGBP@?$FLCastleSiege?$FN?5PACKET?9ERROR?5?$FL0x80@
  0003e	6a 01		 push	 1
  00040	e8 00 00 00 00	 call	 ?LogAdd@@YAXW4eLogColor@@PADZZ ; LogAdd
  00045	83 c4 08	 add	 esp, 8
  00048	5e		 pop	 esi

; 4433 : 	}
; 4434 : }

  00049	8b 4d fc	 mov	 ecx, DWORD PTR __$ArrayPad$[ebp]
  0004c	33 cd		 xor	 ecx, ebp
  0004e	e8 00 00 00 00	 call	 @__security_check_cookie@4
  00053	8b e5		 mov	 esp, ebp
  00055	5d		 pop	 ebp
  00056	c3		 ret	 0
$LN2@GS_DGAnsMa:
  00057	57		 push	 edi

; 4421 : 		return;
; 4422 : 	}
; 4423 : 	char szNotice[144] = {0};

  00058	68 8f 00 00 00	 push	 143			; 0000008fH
  0005d	8d 95 6d ff ff
	ff		 lea	 edx, DWORD PTR _szNotice$[ebp+1]
  00063	6a 00		 push	 0
  00065	52		 push	 edx
  00066	e8 00 00 00 00	 call	 _memset
  0006b	83 c4 0c	 add	 esp, 12			; 0000000cH

; 4424 : 	memcpy(szNotice, lpMsg->szMsgText, 128);

  0006e	83 c6 06	 add	 esi, 6
  00071	b9 20 00 00 00	 mov	 ecx, 32			; 00000020H
  00076	8d bd 6c ff ff
	ff		 lea	 edi, DWORD PTR _szNotice$[ebp]

; 4425 : 
; 4426 : 	if ( strlen(szNotice) > 1 )

  0007c	8d 85 6c ff ff
	ff		 lea	 eax, DWORD PTR _szNotice$[ebp]
  00082	f3 a5		 rep movsd
  00084	8d 50 01	 lea	 edx, DWORD PTR [eax+1]
  00087	5f		 pop	 edi
$LL11@GS_DGAnsMa:
  00088	8a 08		 mov	 cl, BYTE PTR [eax]
  0008a	40		 inc	 eax
  0008b	84 c9		 test	 cl, cl
  0008d	75 f9		 jne	 SHORT $LL11@GS_DGAnsMa
  0008f	2b c2		 sub	 eax, edx
  00091	83 f8 01	 cmp	 eax, 1
  00094	76 3d		 jbe	 SHORT $LN1@GS_DGAnsMa

; 4427 : 	{
; 4428 : 		PMSG_NOTICE pNotice;
; 4429 : 
; 4430 : 		TNotice::MakeNoticeMsg((TNotice *)&pNotice, 0, szNotice);

  00096	8d 85 6c ff ff
	ff		 lea	 eax, DWORD PTR _szNotice$[ebp]
  0009c	50		 push	 eax
  0009d	8d 8d 5c fe ff
	ff		 lea	 ecx, DWORD PTR _pNotice$159838[ebp]
  000a3	6a 00		 push	 0
  000a5	51		 push	 ecx
  000a6	e8 00 00 00 00	 call	 ?MakeNoticeMsg@TNotice@@SAXPAXEPAD@Z ; TNotice::MakeNoticeMsg

; 4431 : 		TNotice::SetNoticeProperty((TNotice *)&pNotice, 0, _ARGB(255, 255, 200, 80), 1, 0, 20);

  000ab	6a 14		 push	 20			; 00000014H
  000ad	6a 00		 push	 0
  000af	6a 01		 push	 1
  000b1	68 ff c8 50 ff	 push	 -11482881		; ff50c8ffH
  000b6	8d 95 5c fe ff
	ff		 lea	 edx, DWORD PTR _pNotice$159838[ebp]
  000bc	6a 00		 push	 0
  000be	52		 push	 edx
  000bf	e8 00 00 00 00	 call	 ?SetNoticeProperty@TNotice@@SAXPAXEKEGE@Z ; TNotice::SetNoticeProperty

; 4432 : 		TNotice::SendNoticeToAllUser((TNotice *)&pNotice);

  000c4	8d 85 5c fe ff
	ff		 lea	 eax, DWORD PTR _pNotice$159838[ebp]
  000ca	50		 push	 eax
  000cb	e8 00 00 00 00	 call	 ?SendNoticeToAllUser@TNotice@@SAXPAX@Z ; TNotice::SendNoticeToAllUser
  000d0	83 c4 28	 add	 esp, 40			; 00000028H
$LN1@GS_DGAnsMa:

; 4433 : 	}
; 4434 : }

  000d3	8b 4d fc	 mov	 ecx, DWORD PTR __$ArrayPad$[ebp]
  000d6	33 cd		 xor	 ecx, ebp
  000d8	5e		 pop	 esi
  000d9	e8 00 00 00 00	 call	 @__security_check_cookie@4
  000de	8b e5		 mov	 esp, ebp
  000e0	5d		 pop	 ebp
  000e1	c3		 ret	 0
?GS_DGAnsMapSvrMsgMultiCast@@YAXPAE@Z ENDP		; GS_DGAnsMapSvrMsgMultiCast
_TEXT	ENDS
PUBLIC	?GS_DGAnsRegGuildMark@@YAXPAE@Z			; GS_DGAnsRegGuildMark
; Function compile flags: /Ogtp
;	COMDAT ?GS_DGAnsRegGuildMark@@YAXPAE@Z
_TEXT	SEGMENT
_lpRecv$ = 8						; size = 4
?GS_DGAnsRegGuildMark@@YAXPAE@Z PROC			; GS_DGAnsRegGuildMark, COMDAT

; 4439 : #if ( GS_CASTLE == 1 )
; 4440 : 	CSP_ANS_GUILDREGMARK * lpMsg = (CSP_ANS_GUILDREGMARK * )lpRecv;
; 4441 : 	if ( lpMsg == NULL )
; 4442 : 		return;
; 4443 : 
; 4444 : 	if ( lpMsg->wMapSvrNum != g_MapServerManager.GetMapSvrGroup() )
; 4445 : 	{
; 4446 : 		LogAdd(LOG_RED,  "[CastleSiege] PACKET-ERROR [0x80][0x10] GS_DGAnsRegGuildMark() - lpMsg->wMapSvrNum != g_MapServerManager.GetMapSvrGroup()");
; 4447 : 		return;
; 4448 : 	}
; 4449 : 	GCAnsRegGuildMark(lpMsg->iIndex, lpMsg->iResult, lpMsg);
; 4450 : #endif
; 4451 : }

  00000	c3		 ret	 0
?GS_DGAnsRegGuildMark@@YAXPAE@Z ENDP			; GS_DGAnsRegGuildMark
_TEXT	ENDS
PUBLIC	?GS_DGAnsGuildMarkReset@@YAXPAE@Z		; GS_DGAnsGuildMarkReset
; Function compile flags: /Ogtp
;	COMDAT ?GS_DGAnsGuildMarkReset@@YAXPAE@Z
_TEXT	SEGMENT
_lpRecv$ = 8						; size = 4
?GS_DGAnsGuildMarkReset@@YAXPAE@Z PROC			; GS_DGAnsGuildMarkReset, COMDAT

; 4464 : #if ( GS_CASTLE == 1 )
; 4465 : 	CSP_ANS_GUILDRESETMARK * lpMsg = (CSP_ANS_GUILDRESETMARK * )lpRecv;
; 4466 : 	if ( lpMsg == NULL )
; 4467 : 		return;
; 4468 : 
; 4469 : 	if ( lpMsg->wMapSvrNum != g_MapServerManager.GetMapSvrGroup() )
; 4470 : 	{
; 4471 : 		LogAdd(LOG_RED,  "[CastleSiege] PACKET-ERROR [0x80][0x11] GS_DGAnsGuildMarkReset() - lpMsg->wMapSvrNum != g_MapServerManager.GetMapSvrGroup()");
; 4472 : 		return;
; 4473 : 	}
; 4474 : #endif
; 4475 : }

  00000	c3		 ret	 0
?GS_DGAnsGuildMarkReset@@YAXPAE@Z ENDP			; GS_DGAnsGuildMarkReset
_TEXT	ENDS
PUBLIC	?GS_DGAnsGuildSetGiveUp@@YAXPAE@Z		; GS_DGAnsGuildSetGiveUp
; Function compile flags: /Ogtp
;	COMDAT ?GS_DGAnsGuildSetGiveUp@@YAXPAE@Z
_TEXT	SEGMENT
_lpRecv$ = 8						; size = 4
?GS_DGAnsGuildSetGiveUp@@YAXPAE@Z PROC			; GS_DGAnsGuildSetGiveUp, COMDAT

; 4490 : #if ( GS_CASTLE == 1 )
; 4491 : 	CSP_ANS_GUILDSETGIVEUP * lpMsg = (CSP_ANS_GUILDSETGIVEUP * )lpRecv;
; 4492 : 	if ( lpMsg == NULL )
; 4493 : 		return;
; 4494 : 
; 4495 : 	if ( lpMsg->wMapSvrNum != g_MapServerManager.GetMapSvrGroup() )
; 4496 : 	{
; 4497 : 		LogAdd(LOG_RED,  "[CastleSiege] PACKET-ERROR [0x80][0x12] GS_DGAnsGuildSetGiveUp() - lpMsg->wMapSvrNum != g_MapServerManager.GetMapSvrGroup()");
; 4498 : 		return;
; 4499 : 	}
; 4500 : 	GCAnsGiveUpCastleSiege(lpMsg->iIndex, lpMsg->iResult, lpMsg->bIsGiveUp, lpMsg->iRegMarkCount, lpMsg->szGuildName);
; 4501 : #endif
; 4502 : }

  00000	c3		 ret	 0
?GS_DGAnsGuildSetGiveUp@@YAXPAE@Z ENDP			; GS_DGAnsGuildSetGiveUp
_TEXT	ENDS
PUBLIC	?GS_DGAnsNpcRemove@@YAXPAE@Z			; GS_DGAnsNpcRemove
; Function compile flags: /Ogtp
;	COMDAT ?GS_DGAnsNpcRemove@@YAXPAE@Z
_TEXT	SEGMENT
_lpRecv$ = 8						; size = 4
?GS_DGAnsNpcRemove@@YAXPAE@Z PROC			; GS_DGAnsNpcRemove, COMDAT

; 4515 : #if ( GS_CASTLE == 1 )
; 4516 : 	CSP_ANS_NPCREMOVE * lpMsg = (CSP_ANS_NPCREMOVE * )lpRecv;
; 4517 : 	if ( lpMsg == NULL )
; 4518 : 		return;
; 4519 : 
; 4520 : 	if ( lpMsg->wMapSvrNum != g_MapServerManager.GetMapSvrGroup() )
; 4521 : 	{
; 4522 : 		LogAdd(LOG_RED,  "[CastleSiege] PACKET-ERROR [0x80][0x16] GS_DGAnsNpcRemove() - lpMsg->wMapSvrNum != g_MapServerManager.GetMapSvrGroup()");
; 4523 : 		return;
; 4524 : 	}
; 4525 : #endif
; 4526 : }

  00000	c3		 ret	 0
?GS_DGAnsNpcRemove@@YAXPAE@Z ENDP			; GS_DGAnsNpcRemove
_TEXT	ENDS
PUBLIC	?GS_DGAnsCastleStateSync@@YAXPAE@Z		; GS_DGAnsCastleStateSync
EXTRN	?SetCastleOwnerGuild@CCastleSiegeSync@@QAEXPAD@Z:PROC ; CCastleSiegeSync::SetCastleOwnerGuild
EXTRN	?g_CastleSiegeSync@@3VCCastleSiegeSync@@A:BYTE	; g_CastleSiegeSync
; Function compile flags: /Ogtp
;	COMDAT ?GS_DGAnsCastleStateSync@@YAXPAE@Z
_TEXT	SEGMENT
_lpRecv$ = 8						; size = 4
?GS_DGAnsCastleStateSync@@YAXPAE@Z PROC			; GS_DGAnsCastleStateSync, COMDAT

; 4550 : {

  00000	55		 push	 ebp
  00001	8b ec		 mov	 ebp, esp

; 4551 : 	CSP_ANS_CASTLESTATESYNC * lpMsg = (CSP_ANS_CASTLESTATESYNC *)lpRecv;
; 4552 : 
; 4553 : 	if ( lpMsg == NULL )

  00003	8b 45 08	 mov	 eax, DWORD PTR _lpRecv$[ebp]
  00006	85 c0		 test	 eax, eax
  00008	74 4d		 je	 SHORT $LN3@GS_DGAnsCa

; 4554 : 	{
; 4555 : 		return;
; 4556 : 	}
; 4557 : 
; 4558 : 	if ( lpMsg->wMapSvrNum != g_MapServerManager.GetMapSvrGroup() )

  0000a	8b 0d 80 af 00
	00		 mov	 ecx, DWORD PTR ?g_MapServerManager@@3VCMapServerManager@@A+44928
  00010	85 c9		 test	 ecx, ecx
  00012	74 06		 je	 SHORT $LN5@GS_DGAnsCa
  00014	0f b6 49 08	 movzx	 ecx, BYTE PTR [ecx+8]
  00018	eb 03		 jmp	 SHORT $LN6@GS_DGAnsCa
$LN5@GS_DGAnsCa:
  0001a	83 c9 ff	 or	 ecx, -1
$LN6@GS_DGAnsCa:
  0001d	0f b7 50 04	 movzx	 edx, WORD PTR [eax+4]
  00021	3b d1		 cmp	 edx, ecx
  00023	75 32		 jne	 SHORT $LN3@GS_DGAnsCa

; 4559 : 	{
; 4560 : 		return;
; 4561 : 	}
; 4562 : 
; 4563 : 	g_CastleSiegeSync.SetCastleState(lpMsg->iCastleState); 

  00025	8b 48 08	 mov	 ecx, DWORD PTR [eax+8]
  00028	89 0d 04 00 00
	00		 mov	 DWORD PTR ?g_CastleSiegeSync@@3VCCastleSiegeSync@@A+4, ecx

; 4564 : 	g_CastleSiegeSync.SetTaxRateChaos(lpMsg->iTaxRateChaos);

  0002e	8b 50 0c	 mov	 edx, DWORD PTR [eax+12]
  00031	89 15 08 00 00
	00		 mov	 DWORD PTR ?g_CastleSiegeSync@@3VCCastleSiegeSync@@A+8, edx

; 4565 : 	g_CastleSiegeSync.SetTaxRateStore(lpMsg->iTaxRateStore);

  00037	8b 48 10	 mov	 ecx, DWORD PTR [eax+16]
  0003a	89 0d 0c 00 00
	00		 mov	 DWORD PTR ?g_CastleSiegeSync@@3VCCastleSiegeSync@@A+12, ecx

; 4566 : 	g_CastleSiegeSync.SetTaxHuntZone(lpMsg->iTaxHuntZone);

  00040	8b 50 14	 mov	 edx, DWORD PTR [eax+20]

; 4567 : 	g_CastleSiegeSync.SetCastleOwnerGuild(lpMsg->szOwnerGuildName);

  00043	83 c0 18	 add	 eax, 24			; 00000018H
  00046	50		 push	 eax
  00047	b9 00 00 00 00	 mov	 ecx, OFFSET ?g_CastleSiegeSync@@3VCCastleSiegeSync@@A ; g_CastleSiegeSync
  0004c	89 15 10 00 00
	00		 mov	 DWORD PTR ?g_CastleSiegeSync@@3VCCastleSiegeSync@@A+16, edx
  00052	e8 00 00 00 00	 call	 ?SetCastleOwnerGuild@CCastleSiegeSync@@QAEXPAD@Z ; CCastleSiegeSync::SetCastleOwnerGuild
$LN3@GS_DGAnsCa:

; 4568 : }

  00057	5d		 pop	 ebp
  00058	c3		 ret	 0
?GS_DGAnsCastleStateSync@@YAXPAE@Z ENDP			; GS_DGAnsCastleStateSync
_TEXT	ENDS
PUBLIC	??_C@_0FA@NDMPNFNO@?$FLCastleSiege?$FN?5?$FL0x80?$FN?$FL0x18?$FN?5GS_DG@ ; `string'
PUBLIC	??_C@_0IA@HBPHMAAG@?$FLCastleSiege?$FN?5PACKET?9ERROR?5?$FL0x80@ ; `string'
PUBLIC	?GS_DGAnsCastleTributeMoney@@YAXPAE@Z		; GS_DGAnsCastleTributeMoney
EXTRN	?ResetTributeMoney@CCastleSiegeSync@@QAEXXZ:PROC ; CCastleSiegeSync::ResetTributeMoney
;	COMDAT ??_C@_0FA@NDMPNFNO@?$FLCastleSiege?$FN?5?$FL0x80?$FN?$FL0x18?$FN?5GS_DG@
; File c:\users\faelhs\mu-1.1\emu - gameserver sapphire s0\gameserver\castlesiegesync.h
CONST	SEGMENT
??_C@_0FA@NDMPNFNO@?$FLCastleSiege?$FN?5?$FL0x80?$FN?$FL0x18?$FN?5GS_DG@ DB '['
	DB	'CastleSiege] [0x80][0x18] GS_DGAnsCastleTributeMoney() - Mone'
	DB	'y Tribute OK (%d)', 00H			; `string'
CONST	ENDS
;	COMDAT ??_C@_0IA@HBPHMAAG@?$FLCastleSiege?$FN?5PACKET?9ERROR?5?$FL0x80@
CONST	SEGMENT
??_C@_0IA@HBPHMAAG@?$FLCastleSiege?$FN?5PACKET?9ERROR?5?$FL0x80@ DB '[Cas'
	DB	'tleSiege] PACKET-ERROR [0x80][0x18] GS_DGAnsCastleTributeMone'
	DB	'y() - lpMsg->wMapSvrNum != g_MapServerManager.GetMapSvrGroup('
	DB	')', 00H					; `string'
; Function compile flags: /Ogtp
; File c:\users\faelhs\mu-1.1\emu - gameserver sapphire s0\gameserver\dsprotocol.cpp
CONST	ENDS
;	COMDAT ?GS_DGAnsCastleTributeMoney@@YAXPAE@Z
_TEXT	SEGMENT
_lpRecv$ = 8						; size = 4
?GS_DGAnsCastleTributeMoney@@YAXPAE@Z PROC		; GS_DGAnsCastleTributeMoney, COMDAT

; 4587 : {

  00000	55		 push	 ebp
  00001	8b ec		 mov	 ebp, esp

; 4588 : 	CSP_ANS_CASTLETRIBUTEMONEY * lpMsg = (CSP_ANS_CASTLETRIBUTEMONEY *)lpRecv;
; 4589 : 
; 4590 : 	if ( lpMsg == NULL )

  00003	8b 4d 08	 mov	 ecx, DWORD PTR _lpRecv$[ebp]
  00006	85 c9		 test	 ecx, ecx
  00008	74 29		 je	 SHORT $LN3@GS_DGAnsCa@2

; 4591 : 	{
; 4592 : 		return;
; 4593 : 	}
; 4594 : 
; 4595 : 	if ( lpMsg->wMapSvrNum != g_MapServerManager.GetMapSvrGroup() )

  0000a	a1 80 af 00 00	 mov	 eax, DWORD PTR ?g_MapServerManager@@3VCMapServerManager@@A+44928
  0000f	85 c0		 test	 eax, eax
  00011	74 06		 je	 SHORT $LN5@GS_DGAnsCa@2
  00013	0f b6 40 08	 movzx	 eax, BYTE PTR [eax+8]
  00017	eb 03		 jmp	 SHORT $LN6@GS_DGAnsCa@2
$LN5@GS_DGAnsCa@2:
  00019	83 c8 ff	 or	 eax, -1
$LN6@GS_DGAnsCa@2:
  0001c	0f b7 49 08	 movzx	 ecx, WORD PTR [ecx+8]
  00020	3b c8		 cmp	 ecx, eax
  00022	74 11		 je	 SHORT $LN1@GS_DGAnsCa@2

; 4596 : 	{
; 4597 : 		LogAdd(LOG_RED,  "[CastleSiege] PACKET-ERROR [0x80][0x18] GS_DGAnsCastleTributeMoney() - lpMsg->wMapSvrNum != g_MapServerManager.GetMapSvrGroup()");

  00024	68 00 00 00 00	 push	 OFFSET ??_C@_0IA@HBPHMAAG@?$FLCastleSiege?$FN?5PACKET?9ERROR?5?$FL0x80@
  00029	6a 01		 push	 1
  0002b	e8 00 00 00 00	 call	 ?LogAdd@@YAXW4eLogColor@@PADZZ ; LogAdd
  00030	83 c4 08	 add	 esp, 8
$LN3@GS_DGAnsCa@2:

; 4604 : 	
; 4605 : }

  00033	5d		 pop	 ebp
  00034	c3		 ret	 0
$LN1@GS_DGAnsCa@2:

; 4598 : 		return;
; 4599 : 	}
; 4600 : 	
; 4601 : 	LogAdd(LOG_BLACK, "[CastleSiege] [0x80][0x18] GS_DGAnsCastleTributeMoney() - Money Tribute OK (%d)",
; 4602 : 		g_CastleSiegeSync.GetTributeMoney());

  00035	8b 15 14 00 00
	00		 mov	 edx, DWORD PTR ?g_CastleSiegeSync@@3VCCastleSiegeSync@@A+20
  0003b	52		 push	 edx
  0003c	68 00 00 00 00	 push	 OFFSET ??_C@_0FA@NDMPNFNO@?$FLCastleSiege?$FN?5?$FL0x80?$FN?$FL0x18?$FN?5GS_DG@
  00041	6a 00		 push	 0
  00043	e8 00 00 00 00	 call	 ?LogAdd@@YAXW4eLogColor@@PADZZ ; LogAdd
  00048	83 c4 0c	 add	 esp, 12			; 0000000cH

; 4603 : 	g_CastleSiegeSync.ResetTributeMoney();

  0004b	b9 00 00 00 00	 mov	 ecx, OFFSET ?g_CastleSiegeSync@@3VCCastleSiegeSync@@A ; g_CastleSiegeSync

; 4604 : 	
; 4605 : }

  00050	5d		 pop	 ebp

; 4603 : 	g_CastleSiegeSync.ResetTributeMoney();

  00051	e9 00 00 00 00	 jmp	 ?ResetTributeMoney@CCastleSiegeSync@@QAEXXZ ; CCastleSiegeSync::ResetTributeMoney
?GS_DGAnsCastleTributeMoney@@YAXPAE@Z ENDP		; GS_DGAnsCastleTributeMoney
_TEXT	ENDS
PUBLIC	?GS_DGAnsResetCastleTaxInfo@@YAXPAE@Z		; GS_DGAnsResetCastleTaxInfo
; Function compile flags: /Ogtp
;	COMDAT ?GS_DGAnsResetCastleTaxInfo@@YAXPAE@Z
_TEXT	SEGMENT
_lpRecv$ = 8						; size = 4
?GS_DGAnsResetCastleTaxInfo@@YAXPAE@Z PROC		; GS_DGAnsResetCastleTaxInfo, COMDAT

; 4615 : #if ( GS_CASTLE == 1 )
; 4616 : 	CSP_ANS_RESETCASTLETAXINFO * lpMsg = (CSP_ANS_RESETCASTLETAXINFO * )lpRecv;
; 4617 : 	if ( lpMsg == NULL )
; 4618 : 		return;
; 4619 : 
; 4620 : 	if ( lpMsg->wMapSvrNum != g_MapServerManager.GetMapSvrGroup() )
; 4621 : 	{
; 4622 : 		LogAdd(LOG_RED,  "[CastleSiege] PACKET-ERROR [0x80][0x19] GS_DGAnsResetCastleTaxInfo() - lpMsg->wMapSvrNum != g_MapServerManager.GetMapSvrGroup()");
; 4623 : 		return;
; 4624 : 	}
; 4625 : 
; 4626 : 	if ( lpMsg->iResult == 1 )
; 4627 : 		g_CastleSiege.ResetCastleTaxInfo();
; 4628 : #endif
; 4629 : }

  00000	c3		 ret	 0
?GS_DGAnsResetCastleTaxInfo@@YAXPAE@Z ENDP		; GS_DGAnsResetCastleTaxInfo
_TEXT	ENDS
PUBLIC	?GS_DGAnsResetSiegeGuildInfo@@YAXPAE@Z		; GS_DGAnsResetSiegeGuildInfo
; Function compile flags: /Ogtp
;	COMDAT ?GS_DGAnsResetSiegeGuildInfo@@YAXPAE@Z
_TEXT	SEGMENT
_lpRecv$ = 8						; size = 4
?GS_DGAnsResetSiegeGuildInfo@@YAXPAE@Z PROC		; GS_DGAnsResetSiegeGuildInfo, COMDAT

; 4639 : #if ( GS_CASTLE == 1 )
; 4640 : 	CSP_ANS_RESETSIEGEGUILDINFO * lpMsg = (CSP_ANS_RESETSIEGEGUILDINFO * )lpRecv;
; 4641 : 	if ( lpMsg == NULL )
; 4642 : 		return;
; 4643 : 
; 4644 : 	if ( lpMsg->wMapSvrNum != g_MapServerManager.GetMapSvrGroup() )
; 4645 : 	{
; 4646 : 		LogAdd(LOG_RED,  "[CastleSiege] PACKET-ERROR [0x80][0x1A] GS_DGAnsResetSiegeGuildInfo() - lpMsg->wMapSvrNum != g_MapServerManager.GetMapSvrGroup()");
; 4647 : 		return;
; 4648 : 	}
; 4649 : #endif
; 4650 : }

  00000	c3		 ret	 0
?GS_DGAnsResetSiegeGuildInfo@@YAXPAE@Z ENDP		; GS_DGAnsResetSiegeGuildInfo
_TEXT	ENDS
PUBLIC	?GS_DGAnsResetRegSiegeInfo@@YAXPAE@Z		; GS_DGAnsResetRegSiegeInfo
; Function compile flags: /Ogtp
;	COMDAT ?GS_DGAnsResetRegSiegeInfo@@YAXPAE@Z
_TEXT	SEGMENT
_lpRecv$ = 8						; size = 4
?GS_DGAnsResetRegSiegeInfo@@YAXPAE@Z PROC		; GS_DGAnsResetRegSiegeInfo, COMDAT

; 4661 : #if ( GS_CASTLE == 1 )
; 4662 : 	CSP_ANS_RESETREGSIEGEINFO * lpMsg = (CSP_ANS_RESETREGSIEGEINFO * )lpRecv;
; 4663 : 	if ( lpMsg == NULL )
; 4664 : 		return;
; 4665 : 
; 4666 : 	if ( lpMsg->wMapSvrNum != g_MapServerManager.GetMapSvrGroup() )
; 4667 : 	{
; 4668 : 		LogAdd(LOG_RED,  "[CastleSiege] PACKET-ERROR [0x80][0x1B] GS_DGAnsResetRegSiegeInfo() - lpMsg->wMapSvrNum != g_MapServerManager.GetMapSvrGroup()");
; 4669 : 		return;
; 4670 : 	}
; 4671 : #endif
; 4672 : }

  00000	c3		 ret	 0
?GS_DGAnsResetRegSiegeInfo@@YAXPAE@Z ENDP		; GS_DGAnsResetRegSiegeInfo
_TEXT	ENDS
PUBLIC	?GS_DGAnsCastleInitData@@YAXPAE@Z		; GS_DGAnsCastleInitData
; Function compile flags: /Ogtp
;	COMDAT ?GS_DGAnsCastleInitData@@YAXPAE@Z
_TEXT	SEGMENT
_lpRecv$ = 8						; size = 4
?GS_DGAnsCastleInitData@@YAXPAE@Z PROC			; GS_DGAnsCastleInitData, COMDAT

; 4679 : #if ( GS_CASTLE == 1 )
; 4680 : 	CSP_ANS_CSINITDATA * lpMsg = (CSP_ANS_CSINITDATA * )lpRecv;
; 4681 : 	CSP_CSINITDATA* lpMsgBody = (CSP_CSINITDATA *)(lpRecv + sizeof(CSP_ANS_CSINITDATA));
; 4682 : 
; 4683 : 	if ( lpMsg == NULL )
; 4684 : 		return;
; 4685 : 
; 4686 : 	if ( lpMsg->wMapSvrNum != g_MapServerManager.GetMapSvrGroup() )
; 4687 : 	{
; 4688 : 		LogAdd(LOG_RED,  "[CastleSiege] PACKET-ERROR [0x81] GS_DGAnsCastleInitData() - lpMsg->wMapSvrNum != g_MapServerManager.GetMapSvrGroup()");
; 4689 : 		return;
; 4690 : 	}
; 4691 : 
; 4692 : 	if ( g_CastleSiege.GetDataLoadState() != CASTLESIEGE_DATALOAD_2 )
; 4693 : 	{
; 4694 : 		LogAdd(LOG_RED,  "[CastleSiege] CASTLE SIEGE DATA SETTING FAILED [0x81] - m_iCastleDataLoadState != CASTLESIEGE_DATALOAD_2 (%d)",
; 4695 : 			g_CastleSiege.GetDataLoadState());
; 4696 : 		return;
; 4697 : 	}
; 4698 : 
; 4699 : 	g_CastleSiege.SetDataLoadState(CASTLESIEGE_DATALOAD_3);
; 4700 : 	if ( lpMsg->iResult == 0 )
; 4701 : 	{
; 4702 : 		LogAdd(LOG_RED,  "[CastleSiege] CASTLE SIEGE DATA SETTING FAILED [0x81] - lpMsg->iResult == 0");
; 4703 : 		MsgBox("[CastleSiege] CASTLE SIEGE DATA SETTING FAILED [0x81] - lpMsg->iResult == 0");
; 4704 : 		return;
; 4705 : 	}
; 4706 : 
; 4707 : 	BOOL bRET_VAL = FALSE;
; 4708 : 	bRET_VAL = g_CastleSiege.SetCastleInitData(lpMsg);
; 4709 : 
; 4710 : 	if ( bRET_VAL == FALSE )
; 4711 : 	{
; 4712 : 		LogAdd(LOG_RED,  "[CastleSiege] CASTLE SIEGE DATA SETTING FAILED [0x81] - g_CastleSiege.SetCastleInitData() == FALSE");
; 4713 : 		return;
; 4714 : 	}
; 4715 : 
; 4716 : 	bRET_VAL = g_CastleSiege.SetCastleNpcData(lpMsgBody, lpMsg->iCount);
; 4717 : 	if ( bRET_VAL == FALSE )
; 4718 : 	{
; 4719 : 		LogAdd(LOG_RED,  "[CastleSiege] CASTLE SIEGE DATA SETTING FAILED [0x81] - g_CastleSiege.SetCastleNpcData() == FALSE");
; 4720 : 		return;
; 4721 : 	}
; 4722 : 
; 4723 : 	g_CastleSiege.SetDbDataLoadOK(TRUE);
; 4724 : 	g_CastleSiege.SetDataLoadState(CASTLESIEGE_DATALOAD_4);
; 4725 : 
; 4726 : 	if ( lpMsg->iFirstCreate == 1)
; 4727 : 		g_CastleSiege.FirstCreateDbNPC();
; 4728 : 
; 4729 : 	g_CastleSiege.Init();
; 4730 : #endif
; 4731 : }

  00000	c3		 ret	 0
?GS_DGAnsCastleInitData@@YAXPAE@Z ENDP			; GS_DGAnsCastleInitData
_TEXT	ENDS
PUBLIC	?GS_DGAnsCastleNpcInfo@@YAXPAE@Z		; GS_DGAnsCastleNpcInfo
; Function compile flags: /Ogtp
;	COMDAT ?GS_DGAnsCastleNpcInfo@@YAXPAE@Z
_TEXT	SEGMENT
_lpRecv$ = 8						; size = 4
?GS_DGAnsCastleNpcInfo@@YAXPAE@Z PROC			; GS_DGAnsCastleNpcInfo, COMDAT

; 4759 : #if ( GS_CASTLE == 1 )
; 4760 : 	CSP_ANS_NPCDATA * lpMsg = (CSP_ANS_NPCDATA * )lpRecv;
; 4761 : 	CSP_NPCDATA* lpMsgBody = (CSP_NPCDATA *)(lpRecv + sizeof(CSP_ANS_NPCDATA));
; 4762 : 	if ( lpMsg == NULL )
; 4763 : 		return;
; 4764 : 
; 4765 : 	if ( lpMsg->wMapSvrNum != g_MapServerManager.GetMapSvrGroup() )
; 4766 : 	{
; 4767 : 		LogAdd(LOG_RED,  "[CastleSiege] PACKET-ERROR [0x82] GS_DGAnsCastleNpcInfo() - lpMsg->wMapSvrNum != g_MapServerManager.GetMapSvrGroup()");
; 4768 : 		return;
; 4769 : 	}
; 4770 : #endif
; 4771 : }

  00000	c3		 ret	 0
?GS_DGAnsCastleNpcInfo@@YAXPAE@Z ENDP			; GS_DGAnsCastleNpcInfo
_TEXT	ENDS
PUBLIC	?GS_DGAnsAllGuildMarkRegInfo@@YAXPAE@Z		; GS_DGAnsAllGuildMarkRegInfo
; Function compile flags: /Ogtp
;	COMDAT ?GS_DGAnsAllGuildMarkRegInfo@@YAXPAE@Z
_TEXT	SEGMENT
_lpRecv$ = 8						; size = 4
?GS_DGAnsAllGuildMarkRegInfo@@YAXPAE@Z PROC		; GS_DGAnsAllGuildMarkRegInfo, COMDAT

; 4815 : #if ( GS_CASTLE == 1 )
; 4816 : 	CSP_ANS_ALLGUILDREGINFO* lpMsg = (CSP_ANS_ALLGUILDREGINFO *)lpRecv;
; 4817 : 	CSP_GUILDREGINFO* lpMsgBody = (CSP_GUILDREGINFO *)(lpRecv + sizeof(CSP_ANS_ALLGUILDREGINFO));
; 4818 : 	if ( lpMsg == NULL )
; 4819 : 		return;
; 4820 : 
; 4821 : 	if ( lpMsg->wMapSvrNum != g_MapServerManager.GetMapSvrGroup() )
; 4822 : 	{
; 4823 : 		LogAdd(LOG_RED,  "[CastleSiege] PACKET-ERROR [0x83] GS_DGAnsAllGuildMarkRegInfo() - lpMsg->wMapSvrNum != g_MapServerManager.GetMapSvrGroup()");
; 4824 : 		return;
; 4825 : 	}
; 4826 : 
; 4827 : 	if ( !gObjIsConnected(lpMsg->iIndex))
; 4828 : 		return;
; 4829 : 
; 4830 : 	char cBUFFER[1668];
; 4831 : 	PMSG_ANS_CSREGGUILDLIST* lpMsgSend = (PMSG_ANS_CSREGGUILDLIST *)(cBUFFER);
; 4832 : 	PMSG_CSREGGUILDLIST* lpMsgSendBody = (PMSG_CSREGGUILDLIST *)(cBUFFER + sizeof(PMSG_ANS_CSREGGUILDLIST));
; 4833 : 
; 4834 : 	lpMsgSend->iCount = 0;
; 4835 : 	lpMsgSend->btResult = lpMsg->iResult;
; 4836 : 
; 4837 : 	if ( lpMsg->iResult == 1 )
; 4838 : 	{
; 4839 : 		lpMsgSend->iCount = lpMsg->iCount;
; 4840 : 		for (int i=0 ; i<lpMsg->iCount; i++)
; 4841 : 		{
; 4842 : 			lpMsgSendBody[i].btSeqNum = lpMsgBody[i].btRegRank;
; 4843 : 			lpMsgSendBody[i].btIsGiveUp = lpMsgBody[i].bIsGiveUp;
; 4844 : 			lpMsgSendBody[i].btRegMarks1 = SET_NUMBERH(SET_NUMBERHW(lpMsgBody[i].iRegMarkCount));
; 4845 : 			lpMsgSendBody[i].btRegMarks2 = SET_NUMBERL(SET_NUMBERHW(lpMsgBody[i].iRegMarkCount));
; 4846 : 			lpMsgSendBody[i].btRegMarks3 = SET_NUMBERH(SET_NUMBERLW(lpMsgBody[i].iRegMarkCount));
; 4847 : 			lpMsgSendBody[i].btRegMarks4 = SET_NUMBERL(SET_NUMBERLW(lpMsgBody[i].iRegMarkCount));
; 4848 : 			memcpy(lpMsgSendBody[i].szGuildName, lpMsgBody[i].szGuildName, MAX_GUILD_LEN);
; 4849 : 		}
; 4850 : 	}
; 4851 : 
; 4852 : 	lpMsgSend->h.set((LPBYTE)lpMsgSend, 0xB4, lpMsgSend->iCount*sizeof(PMSG_CSREGGUILDLIST)+sizeof(PMSG_ANS_CSREGGUILDLIST));
; 4853 : 	DataSend(lpMsg->iIndex, (LPBYTE)lpMsgSend, lpMsgSend->iCount*sizeof(PMSG_CSREGGUILDLIST)+sizeof(PMSG_ANS_CSREGGUILDLIST));
; 4854 : #endif
; 4855 : }

  00000	c3		 ret	 0
?GS_DGAnsAllGuildMarkRegInfo@@YAXPAE@Z ENDP		; GS_DGAnsAllGuildMarkRegInfo
_TEXT	ENDS
PUBLIC	?GS_DGAnsFirstCreateNPC@@YAXPAE@Z		; GS_DGAnsFirstCreateNPC
; Function compile flags: /Ogtp
;	COMDAT ?GS_DGAnsFirstCreateNPC@@YAXPAE@Z
_TEXT	SEGMENT
_lpRecv$ = 8						; size = 4
?GS_DGAnsFirstCreateNPC@@YAXPAE@Z PROC			; GS_DGAnsFirstCreateNPC, COMDAT

; 4866 : #if ( GS_CASTLE == 1 )
; 4867 : 	CSP_ANS_NPCSAVEDATA * lpMsg = (CSP_ANS_NPCSAVEDATA * )lpRecv;
; 4868 : 	if ( lpMsg == NULL )
; 4869 : 		return;
; 4870 : 
; 4871 : 	if ( lpMsg->wMapSvrNum != g_MapServerManager.GetMapSvrGroup() )
; 4872 : 	{
; 4873 : 		LogAdd(LOG_RED,  "[CastleSiege] PACKET-ERROR [0x84] GS_DGAnsFirstCreateNPC() - lpMsg->wMapSvrNum != g_MapServerManager.GetMapSvrGroup()");
; 4874 : 		return;
; 4875 : 	}
; 4876 : 
; 4877 : 	if ( lpMsg->iResult == 1 )
; 4878 : 	{
; 4879 : 		if ( g_CastleSiege.GetDbNpcCreated() == FALSE )
; 4880 : 		{
; 4881 : 			g_CastleSiege.CreateDbNPC();
; 4882 : 			g_CastleSiege.SetDbNpcCreated(TRUE);
; 4883 : 		}
; 4884 : 	}
; 4885 : #endif
; 4886 : }

  00000	c3		 ret	 0
?GS_DGAnsFirstCreateNPC@@YAXPAE@Z ENDP			; GS_DGAnsFirstCreateNPC
_TEXT	ENDS
PUBLIC	?GS_DGAnsCalcREgGuildList@@YAXPAE@Z		; GS_DGAnsCalcREgGuildList
; Function compile flags: /Ogtp
;	COMDAT ?GS_DGAnsCalcREgGuildList@@YAXPAE@Z
_TEXT	SEGMENT
_lpRecv$ = 8						; size = 4
?GS_DGAnsCalcREgGuildList@@YAXPAE@Z PROC		; GS_DGAnsCalcREgGuildList, COMDAT

; 4898 : #if ( GS_CASTLE == 1 )
; 4899 : 	CSP_ANS_CALCREGGUILDLIST * lpMsg = (CSP_ANS_CALCREGGUILDLIST * )lpRecv;
; 4900 : 	CSP_CALCREGGUILDLIST * lpMsgBody = (CSP_CALCREGGUILDLIST * )(lpRecv+sizeof(CSP_ANS_CALCREGGUILDLIST));
; 4901 : 	if ( lpMsg == NULL )
; 4902 : 		return;
; 4903 : 
; 4904 : 	if ( lpMsg->wMapSvrNum != g_MapServerManager.GetMapSvrGroup() )
; 4905 : 	{
; 4906 : 		LogAdd(LOG_RED,  "[CastleSiege] PACKET-ERROR [0x85] GS_DGAnsCalcREgGuildList() - lpMsg->wMapSvrNum != g_MapServerManager.GetMapSvrGroup()");
; 4907 : 		return;
; 4908 : 	}
; 4909 : 
; 4910 : 	if ( lpMsg->iResult == 1 )
; 4911 : 	{
; 4912 : 		g_CastleSiege.SetCalcRegGuildList(lpMsgBody, lpMsg->iCount);
; 4913 : 	}
; 4914 : 	else
; 4915 : 	{
; 4916 : 		LogAdd(LOG_RED,  "[CastleSiege] PACKET-ERROR [0x85] GS_DGAnsCalcREgGuildList() - lpMsg->iResult != 1 (%d)", lpMsg->iResult);
; 4917 : 	}
; 4918 : #endif
; 4919 : }

  00000	c3		 ret	 0
?GS_DGAnsCalcREgGuildList@@YAXPAE@Z ENDP		; GS_DGAnsCalcREgGuildList
_TEXT	ENDS
PUBLIC	?GS_DGAnsCsGulidUnionInfo@@YAXPAE@Z		; GS_DGAnsCsGulidUnionInfo
; Function compile flags: /Ogtp
;	COMDAT ?GS_DGAnsCsGulidUnionInfo@@YAXPAE@Z
_TEXT	SEGMENT
_lpRecv$ = 8						; size = 4
?GS_DGAnsCsGulidUnionInfo@@YAXPAE@Z PROC		; GS_DGAnsCsGulidUnionInfo, COMDAT

; 4931 : #if ( GS_CASTLE == 1 )
; 4932 : 	CSP_ANS_CSGUILDUNIONINFO * lpMsg = (CSP_ANS_CSGUILDUNIONINFO * )lpRecv;
; 4933 : 	CSP_CSGUILDUNIONINFO * lpMsgBody = (CSP_CSGUILDUNIONINFO * )(lpRecv+sizeof(CSP_ANS_CSGUILDUNIONINFO));
; 4934 : 	if ( lpMsg == NULL )
; 4935 : 		return;
; 4936 : 
; 4937 : 	if ( lpMsg->wMapSvrNum != g_MapServerManager.GetMapSvrGroup() )
; 4938 : 	{
; 4939 : 		LogAdd(LOG_RED,  "[CastleSiege] PACKET-ERROR [0x86] GS_DGAnsCsGulidUnionInfo() - lpMsg->wMapSvrNum != g_MapServerManager.GetMapSvrGroup()");
; 4940 : 		return;
; 4941 : 	}
; 4942 : 
; 4943 : 	if ( lpMsg->iResult == 1 )
; 4944 : 	{
; 4945 : 		g_CastleSiege.MakeCsTotalGuildInfo(lpMsgBody, lpMsg->iCount);
; 4946 : 	}
; 4947 : #endif
; 4948 : }

  00000	c3		 ret	 0
?GS_DGAnsCsGulidUnionInfo@@YAXPAE@Z ENDP		; GS_DGAnsCsGulidUnionInfo
_TEXT	ENDS
PUBLIC	?GS_DGAnsCsSaveTotalGuildInfo@@YAXPAE@Z		; GS_DGAnsCsSaveTotalGuildInfo
; Function compile flags: /Ogtp
;	COMDAT ?GS_DGAnsCsSaveTotalGuildInfo@@YAXPAE@Z
_TEXT	SEGMENT
_lpRecv$ = 8						; size = 4
?GS_DGAnsCsSaveTotalGuildInfo@@YAXPAE@Z PROC		; GS_DGAnsCsSaveTotalGuildInfo, COMDAT

; 4959 : #if ( GS_CASTLE == 1 )
; 4960 : 	CSP_ANS_CSSAVETOTALGUILDINFO * lpMsg = (CSP_ANS_CSSAVETOTALGUILDINFO * )lpRecv;
; 4961 : 	if ( lpMsg == NULL )
; 4962 : 		return;
; 4963 : 
; 4964 : 	if ( lpMsg->wMapSvrNum != g_MapServerManager.GetMapSvrGroup() )
; 4965 : 	{
; 4966 : 		LogAdd(LOG_RED,  "[CastleSiege] PACKET-ERROR [0x87] GS_DGAnsCsSaveTotalGuildInfo() - lpMsg->wMapSvrNum != g_MapServerManager.GetMapSvrGroup()");
; 4967 : 		return;
; 4968 : 	}
; 4969 : 
; 4970 : 	if ( lpMsg->iResult == 1 )
; 4971 : 	{
; 4972 : 		g_CastleSiege.SetIsSiegeGuildList(TRUE);
; 4973 : 	}
; 4974 : 	else
; 4975 : 	{
; 4976 : 		g_CastleSiege.SetIsSiegeGuildList(FALSE);
; 4977 : 	};
; 4978 : #endif
; 4979 : }

  00000	c3		 ret	 0
?GS_DGAnsCsSaveTotalGuildInfo@@YAXPAE@Z ENDP		; GS_DGAnsCsSaveTotalGuildInfo
_TEXT	ENDS
PUBLIC	?GS_DGAnsCsLoadTotalGuildInfo@@YAXPAE@Z		; GS_DGAnsCsLoadTotalGuildInfo
; Function compile flags: /Ogtp
;	COMDAT ?GS_DGAnsCsLoadTotalGuildInfo@@YAXPAE@Z
_TEXT	SEGMENT
_lpRecv$ = 8						; size = 4
?GS_DGAnsCsLoadTotalGuildInfo@@YAXPAE@Z PROC		; GS_DGAnsCsLoadTotalGuildInfo, COMDAT

; 4992 : #if ( GS_CASTLE == 1 )
; 4993 : 	CSP_ANS_CSLOADTOTALGUILDINFO * lpMsg = (CSP_ANS_CSLOADTOTALGUILDINFO * )lpRecv;
; 4994 : 	CSP_CSLOADTOTALGUILDINFO * lpMsgBody = (CSP_CSLOADTOTALGUILDINFO * )(lpRecv+sizeof(CSP_ANS_CSLOADTOTALGUILDINFO));
; 4995 : 	if ( lpMsg == NULL )
; 4996 : 		return;
; 4997 : 
; 4998 : 	if ( lpMsg->wMapSvrNum != g_MapServerManager.GetMapSvrGroup() )
; 4999 : 	{
; 5000 : 		LogAdd(LOG_RED,  "[CastleSiege] PACKET-ERROR [0x88] GS_DGAnsCsLoadTotalGuildInfo() - lpMsg->wMapSvrNum != g_MapServerManager.GetMapSvrGroup()");
; 5001 : 		return;
; 5002 : 	}
; 5003 : 
; 5004 : 	if ( lpMsg->iResult == 1 )
; 5005 : 	{
; 5006 : 		g_CastleSiege.SetCsTotalGuildInfo(lpMsgBody, lpMsg->iCount);
; 5007 : 	}
; 5008 : #endif
; 5009 : }

  00000	c3		 ret	 0
?GS_DGAnsCsLoadTotalGuildInfo@@YAXPAE@Z ENDP		; GS_DGAnsCsLoadTotalGuildInfo
_TEXT	ENDS
PUBLIC	?GS_DGAnsCastleNpcUpdate@@YAXPAE@Z		; GS_DGAnsCastleNpcUpdate
; Function compile flags: /Ogtp
;	COMDAT ?GS_DGAnsCastleNpcUpdate@@YAXPAE@Z
_TEXT	SEGMENT
_lpRecv$ = 8						; size = 4
?GS_DGAnsCastleNpcUpdate@@YAXPAE@Z PROC			; GS_DGAnsCastleNpcUpdate, COMDAT

; 5021 : #if ( GS_CASTLE == 1 )
; 5022 : 	CSP_ANS_NPCUPDATEDATA * lpMsg = (CSP_ANS_NPCUPDATEDATA * )lpRecv;
; 5023 : 	if ( lpMsg == NULL )
; 5024 : 		return;
; 5025 : 
; 5026 : 	if ( lpMsg->wMapSvrNum != g_MapServerManager.GetMapSvrGroup() )
; 5027 : 	{
; 5028 : 		LogAdd(LOG_RED,  "[CastleSiege] PACKET-ERROR [0x89] GS_DGAnsCastleNpcUpdate() - lpMsg->wMapSvrNum != g_MapServerManager.GetMapSvrGroup()");
; 5029 : 		return;
; 5030 : 	}
; 5031 : 
; 5032 : 	LogAdd(LOG_BLACK, "[CastleSiege] [0x89] GS_DGAnsCastleNpcUpdate() - Npc Data Update Result : '%s'", (lpMsg->iResult) ? "SUCCEED" : "FAIL");
; 5033 : #endif
; 5034 : }

  00000	c3		 ret	 0
?GS_DGAnsCastleNpcUpdate@@YAXPAE@Z ENDP			; GS_DGAnsCastleNpcUpdate
_TEXT	ENDS
PUBLIC	?set@PBMSG_HEAD@@QAEXPAEEE@Z			; PBMSG_HEAD::set
; Function compile flags: /Ogtp
; File c:\users\faelhs\mu-1.1\emu - gameserver sapphire s0\include\prodef.h
;	COMDAT ?set@PBMSG_HEAD@@QAEXPAEEE@Z
_TEXT	SEGMENT
_lpBuf$ = 8						; size = 4
_head$ = 12						; size = 1
_size$ = 16						; size = 1
?set@PBMSG_HEAD@@QAEXPAEEE@Z PROC			; PBMSG_HEAD::set, COMDAT
; _this$ = ecx

; 92   : 	{

  00000	55		 push	 ebp
  00001	8b ec		 mov	 ebp, esp

; 93   : 		lpBuf[0] = 0xC1;

  00003	8b 45 08	 mov	 eax, DWORD PTR _lpBuf$[ebp]

; 94   : 		lpBuf[1] = size;

  00006	8a 4d 10	 mov	 cl, BYTE PTR _size$[ebp]

; 95   : 		lpBuf[2] = head;

  00009	8a 55 0c	 mov	 dl, BYTE PTR _head$[ebp]
  0000c	c6 00 c1	 mov	 BYTE PTR [eax], 193	; 000000c1H
  0000f	88 48 01	 mov	 BYTE PTR [eax+1], cl
  00012	88 50 02	 mov	 BYTE PTR [eax+2], dl

; 96   : 	};	// line : 22

  00015	5d		 pop	 ebp
  00016	c2 0c 00	 ret	 12			; 0000000cH
?set@PBMSG_HEAD@@QAEXPAEEE@Z ENDP			; PBMSG_HEAD::set
_TEXT	ENDS
PUBLIC	?set@PWMSG_HEAD@@QAEXPAEEH@Z			; PWMSG_HEAD::set
; Function compile flags: /Ogtp
;	COMDAT ?set@PWMSG_HEAD@@QAEXPAEEH@Z
_TEXT	SEGMENT
_lpBuf$ = 8						; size = 4
_head$ = 12						; size = 1
_size$ = 16						; size = 4
?set@PWMSG_HEAD@@QAEXPAEEH@Z PROC			; PWMSG_HEAD::set, COMDAT
; _this$ = ecx

; 115  : 	{

  00000	55		 push	 ebp
  00001	8b ec		 mov	 ebp, esp

; 116  : 		lpBuf[0] = 0xC2;

  00003	8b 45 08	 mov	 eax, DWORD PTR _lpBuf$[ebp]

; 117  : 		lpBuf[1] = SET_NUMBERH(size);

  00006	8b 4d 10	 mov	 ecx, DWORD PTR _size$[ebp]
  00009	8b d1		 mov	 edx, ecx

; 118  : 		lpBuf[2] = SET_NUMBERL(size);

  0000b	88 48 02	 mov	 BYTE PTR [eax+2], cl

; 119  : 		lpBuf[3] = head;

  0000e	8a 4d 0c	 mov	 cl, BYTE PTR _head$[ebp]
  00011	c1 ea 08	 shr	 edx, 8
  00014	c6 00 c2	 mov	 BYTE PTR [eax], 194	; 000000c2H
  00017	88 50 01	 mov	 BYTE PTR [eax+1], dl
  0001a	88 48 03	 mov	 BYTE PTR [eax+3], cl

; 120  : 	};

  0001d	5d		 pop	 ebp
  0001e	c2 0c 00	 ret	 12			; 0000000cH
?set@PWMSG_HEAD@@QAEXPAEEH@Z ENDP			; PWMSG_HEAD::set
_TEXT	ENDS
PUBLIC	?set@PBMSG_HEAD2@@QAEXPAEEEE@Z			; PBMSG_HEAD2::set
; Function compile flags: /Ogtp
;	COMDAT ?set@PBMSG_HEAD2@@QAEXPAEEEE@Z
_TEXT	SEGMENT
_lpBuf$ = 8						; size = 4
_head$ = 12						; size = 1
_sub$ = 16						; size = 1
_size$ = 20						; size = 1
?set@PBMSG_HEAD2@@QAEXPAEEEE@Z PROC			; PBMSG_HEAD2::set, COMDAT
; _this$ = ecx

; 142  : 	{

  00000	55		 push	 ebp
  00001	8b ec		 mov	 ebp, esp

; 143  : 		lpBuf[0] = 0xC1;

  00003	8b 45 08	 mov	 eax, DWORD PTR _lpBuf$[ebp]

; 144  : 		lpBuf[1] = size;

  00006	8a 4d 14	 mov	 cl, BYTE PTR _size$[ebp]

; 145  : 		lpBuf[2] = head;

  00009	8a 55 0c	 mov	 dl, BYTE PTR _head$[ebp]
  0000c	88 48 01	 mov	 BYTE PTR [eax+1], cl

; 146  : 		lpBuf[3] = sub;

  0000f	8a 4d 10	 mov	 cl, BYTE PTR _sub$[ebp]
  00012	c6 00 c1	 mov	 BYTE PTR [eax], 193	; 000000c1H
  00015	88 50 02	 mov	 BYTE PTR [eax+2], dl
  00018	88 48 03	 mov	 BYTE PTR [eax+3], cl

; 147  : 	};

  0001b	5d		 pop	 ebp
  0001c	c2 10 00	 ret	 16			; 00000010H
?set@PBMSG_HEAD2@@QAEXPAEEEE@Z ENDP			; PBMSG_HEAD2::set
_TEXT	ENDS
PUBLIC	??_C@_0GD@LBDNOPPJ@?$FLFRUIT?5System?$FN?5Character?5Stat?5Er@ ; `string'
PUBLIC	??_C@_0EO@MMCPKNFL@?$FLFRUIT?5System?$FN?5?$FL?$CFs?$FN?$FL?$CFs?$FN?5?$CIMinusPo@ ; `string'
PUBLIC	??_C@_0EB@KJANBCDD@?$FLMapServerMng?$FN?5Request?5to?5Move?5M@ ; `string'
PUBLIC	??_C@_0EM@ICCPKMCE@?$FLMapServerMng?$FN?5Map?5Server?5Move?5F@ ; `string'
PUBLIC	??_C@_0BB@LBNJKNBE@error?9L3?5?3?5?$CFs?5?$CFd?$AA@ ; `string'
PUBLIC	??_C@_0CG@BPCBIHIK@?$KB?Z?$KB?Y?5ZEN?5MODIFY?5?$KB?Y?$KB?Z?5?$FL?$CFs?$FN?$FL?$CFs?$FN?5?$CFd@ ; `string'
PUBLIC	??_C@_0FE@JOJGEKKO@?$FLAnti?9HACK?$FN?$FLJGGetCharacterInfo?$FN?5@ ; `string'
PUBLIC	??_C@_0CL@ECFCLMFK@error?9L1?5?3?5Load?5Block?5Character?5@ ; `string'
PUBLIC	__$ArrayPad$
PUBLIC	?JGGetCharacterInfo@@YAXPAUSDHP_DBCHAR_INFORESULT@@@Z ; JGGetCharacterInfo
EXTRN	?SkillChangeUse@CObjUseSkill@@QAEHH@Z:PROC	; CObjUseSkill::SkillChangeUse
EXTRN	?gObjUseSkill@@3VCObjUseSkill@@A:BYTE		; gObjUseSkill
EXTRN	?GCMapEventStateSend@@YAXHEE@Z:PROC		; GCMapEventStateSend
EXTRN	?gAppearTamaJJang@@3HA:DWORD			; gAppearTamaJJang
EXTRN	?gTamaJJangEvent@@3HA:DWORD			; gTamaJJangEvent
EXTRN	?FriendListRequest@@YAXH@Z:PROC			; FriendListRequest
EXTRN	?DGGuildMemberInfoRequest@@YAXH@Z:PROC		; DGGuildMemberInfoRequest
EXTRN	?CGRequestQuestInfo@@YAXH@Z:PROC		; CGRequestQuestInfo
EXTRN	?GCMagicListMultiSend@@YAXPAUOBJECTSTRUCT@@E@Z:PROC ; GCMagicListMultiSend
EXTRN	?QuestInfoSave@CQuestInfo@@QAEXPAUOBJECTSTRUCT@@@Z:PROC ; CQuestInfo::QuestInfoSave
EXTRN	?g_QuestInfo@@3VCQuestInfo@@A:BYTE		; g_QuestInfo
EXTRN	?gObjGetStatPointState@@YAXHAAF000@Z:PROC	; gObjGetStatPointState
EXTRN	?GJReqMapSvrMove@@YAXHGGEE@Z:PROC		; GJReqMapSvrMove
EXTRN	?CheckMoveMapSvr@CMapServerManager@@QAEFHHF@Z:PROC ; CMapServerManager::CheckMoveMapSvr
EXTRN	?MapNumberCheck@@YAHH@Z:PROC			; MapNumberCheck
EXTRN	?gObjSetCharacter@@YAHPAEH@Z:PROC		; gObjSetCharacter
EXTRN	_strncmp:PROC
;	COMDAT ??_C@_0GD@LBDNOPPJ@?$FLFRUIT?5System?$FN?5Character?5Stat?5Er@
; File c:\users\faelhs\mu-1.1\emu - gameserver sapphire s0\gameserver\dsprotocol.cpp
CONST	SEGMENT
??_C@_0GD@LBDNOPPJ@?$FLFRUIT?5System?$FN?5Character?5Stat?5Er@ DB '[FRUIT'
	DB	' System] Character Stat Error [%s][%s] (MinusPoint:%d/PlusPoi'
	DB	'nt:%d) (MaxMinus:%d/MaxPlus:%d)', 00H	; `string'
CONST	ENDS
;	COMDAT ??_C@_0EO@MMCPKNFL@?$FLFRUIT?5System?$FN?5?$FL?$CFs?$FN?$FL?$CFs?$FN?5?$CIMinusPo@
CONST	SEGMENT
??_C@_0EO@MMCPKNFL@?$FLFRUIT?5System?$FN?5?$FL?$CFs?$FN?$FL?$CFs?$FN?5?$CIMinusPo@ DB '['
	DB	'FRUIT System] [%s][%s] (MinusPoint:%d/PlusPoint:%d) (MaxMinus'
	DB	':%d/MaxPlus:%d)', 00H			; `string'
CONST	ENDS
;	COMDAT ??_C@_0EB@KJANBCDD@?$FLMapServerMng?$FN?5Request?5to?5Move?5M@
CONST	SEGMENT
??_C@_0EB@KJANBCDD@?$FLMapServerMng?$FN?5Request?5to?5Move?5M@ DB '[MapSe'
	DB	'rverMng] Request to Move Map Server : (%d) - [%s][%s] (%d)', 00H ; `string'
CONST	ENDS
;	COMDAT ??_C@_0EM@ICCPKMCE@?$FLMapServerMng?$FN?5Map?5Server?5Move?5F@
CONST	SEGMENT
??_C@_0EM@ICCPKMCE@?$FLMapServerMng?$FN?5Map?5Server?5Move?5F@ DB '[MapSe'
	DB	'rverMng] Map Server Move Fail : CheckMoveMapSvr() == -1 [%s]['
	DB	'%s] (%d)', 00H				; `string'
CONST	ENDS
;	COMDAT ??_C@_0BB@LBNJKNBE@error?9L3?5?3?5?$CFs?5?$CFd?$AA@
CONST	SEGMENT
??_C@_0BB@LBNJKNBE@error?9L3?5?3?5?$CFs?5?$CFd?$AA@ DB 'error-L3 : %s %d', 00H ; `string'
CONST	ENDS
;	COMDAT ??_C@_0CG@BPCBIHIK@?$KB?Z?$KB?Y?5ZEN?5MODIFY?5?$KB?Y?$KB?Z?5?$FL?$CFs?$FN?$FL?$CFs?$FN?5?$CFd@
CONST	SEGMENT
??_C@_0CG@BPCBIHIK@?$KB?Z?$KB?Y?5ZEN?5MODIFY?5?$KB?Y?$KB?Z?5?$FL?$CFs?$FN?$FL?$CFs?$FN?5?$CFd@ DB 0a1H
	DB	0daH, 0a1H, 0d9H, ' ZEN MODIFY ', 0a1H, 0d9H, 0a1H, 0daH, ' [%'
	DB	's][%s] %d -> 0', 00H			; `string'
CONST	ENDS
;	COMDAT ??_C@_0FE@JOJGEKKO@?$FLAnti?9HACK?$FN?$FLJGGetCharacterInfo?$FN?5@
CONST	SEGMENT
??_C@_0FE@JOJGEKKO@?$FLAnti?9HACK?$FN?$FLJGGetCharacterInfo?$FN?5@ DB '[A'
	DB	'nti-HACK][JGGetCharacterInfo] Attempted Character-Copy by dou'
	DB	'ble logging [%s][%s]', 00H			; `string'
CONST	ENDS
;	COMDAT ??_C@_0CL@ECFCLMFK@error?9L1?5?3?5Load?5Block?5Character?5@
CONST	SEGMENT
??_C@_0CL@ECFCLMFK@error?9L1?5?3?5Load?5Block?5Character?5@ DB 'error-L1 '
	DB	': Load Block Character infomation', 00H	; `string'
; Function compile flags: /Ogtp
CONST	ENDS
;	COMDAT ?JGGetCharacterInfo@@YAXPAUSDHP_DBCHAR_INFORESULT@@@Z
_TEXT	SEGMENT
_AddPoint$ = -112					; size = 2
_MaxAddPoint$ = -108					; size = 2
_aIndex$ = -104						; size = 4
_MaxMinusPoint$ = -100					; size = 2
tv675 = -96						; size = 4
tv673 = -96						; size = 4
tv667 = -96						; size = 4
tv665 = -96						; size = 4
tv659 = -96						; size = 4
tv657 = -96						; size = 4
tv651 = -96						; size = 4
tv649 = -96						; size = 4
_wGameServerCode$158302 = -96				; size = 2
_MinusPoint$ = -92					; size = 2
tv678 = -90						; size = 2
tv670 = -90						; size = 2
tv662 = -90						; size = 2
tv654 = -90						; size = 2
_pjMsg$ = -88						; size = 60
_szAccountId$ = -28					; size = 11
_szName$ = -16						; size = 11
__$ArrayPad$ = -4					; size = 4
_lpMsg$ = 8						; size = 4
?JGGetCharacterInfo@@YAXPAUSDHP_DBCHAR_INFORESULT@@@Z PROC ; JGGetCharacterInfo, COMDAT

; 1280 : {

  00000	55		 push	 ebp
  00001	8b ec		 mov	 ebp, esp
  00003	83 ec 70	 sub	 esp, 112		; 00000070H
  00006	a1 00 00 00 00	 mov	 eax, DWORD PTR ___security_cookie
  0000b	33 c5		 xor	 eax, ebp
  0000d	89 45 fc	 mov	 DWORD PTR __$ArrayPad$[ebp], eax
  00010	53		 push	 ebx
  00011	8b 5d 08	 mov	 ebx, DWORD PTR _lpMsg$[ebp]

; 1281 : 	PMSG_CHARMAPJOINRESULT pjMsg;
; 1282 : 
; 1283 : 	char szAccountId[MAX_ACCOUNT_LEN+1];
; 1284 : 	char szName[MAX_ACCOUNT_LEN+1];
; 1285 : 	int aIndex = lpMsg->Number;
; 1286 : 
; 1287 : 	szAccountId[MAX_ACCOUNT_LEN] = 0;
; 1288 : 	memcpy(szAccountId, lpMsg->AccountID, sizeof(lpMsg->AccountID));

  00014	8b 43 08	 mov	 eax, DWORD PTR [ebx+8]
  00017	8b 4b 0c	 mov	 ecx, DWORD PTR [ebx+12]
  0001a	66 8b 53 10	 mov	 dx, WORD PTR [ebx+16]
  0001e	57		 push	 edi
  0001f	0f bf 7b 06	 movsx	 edi, WORD PTR [ebx+6]
  00023	89 45 e4	 mov	 DWORD PTR _szAccountId$[ebp], eax

; 1289 : 
; 1290 : 	if ( gObjIsAccontConnect(aIndex, szAccountId) == FALSE )

  00026	8d 45 e4	 lea	 eax, DWORD PTR _szAccountId$[ebp]
  00029	50		 push	 eax
  0002a	57		 push	 edi
  0002b	89 7d 98	 mov	 DWORD PTR _aIndex$[ebp], edi
  0002e	c6 45 ee 00	 mov	 BYTE PTR _szAccountId$[ebp+10], 0
  00032	89 4d e8	 mov	 DWORD PTR _szAccountId$[ebp+4], ecx
  00035	66 89 55 ec	 mov	 WORD PTR _szAccountId$[ebp+8], dx
  00039	e8 00 00 00 00	 call	 ?gObjIsAccontConnect@@YAHHPAD@Z ; gObjIsAccontConnect
  0003e	83 c4 08	 add	 esp, 8
  00041	85 c0		 test	 eax, eax
  00043	75 34		 jne	 SHORT $LN22@JGGetChara

; 1291 : 	{
; 1292 : 		LogAdd(LOG_RED,  lMsg.Get(MSGGET(1, 170)), szAccountId);

  00045	8d 4d e4	 lea	 ecx, DWORD PTR _szAccountId$[ebp]
  00048	51		 push	 ecx
  00049	68 aa 01 00 00	 push	 426			; 000001aaH
  0004e	b9 00 00 00 00	 mov	 ecx, OFFSET ?lMsg@@3VCMsg@@A ; lMsg
  00053	e8 00 00 00 00	 call	 ?Get@CMsg@@QAEPADH@Z	; CMsg::Get
  00058	50		 push	 eax
  00059	6a 01		 push	 1
  0005b	e8 00 00 00 00	 call	 ?LogAdd@@YAXW4eLogColor@@PADZZ ; LogAdd

; 1293 : 		CloseClient(aIndex);

  00060	57		 push	 edi
  00061	e8 00 00 00 00	 call	 ?CloseClient@@YAXH@Z	; CloseClient
  00066	83 c4 10	 add	 esp, 16			; 00000010H
  00069	5f		 pop	 edi
  0006a	5b		 pop	 ebx

; 1463 : }

  0006b	8b 4d fc	 mov	 ecx, DWORD PTR __$ArrayPad$[ebp]
  0006e	33 cd		 xor	 ecx, ebp
  00070	e8 00 00 00 00	 call	 @__security_check_cookie@4
  00075	8b e5		 mov	 esp, ebp
  00077	5d		 pop	 ebp
  00078	c3		 ret	 0
$LN22@JGGetChara:

; 1294 : 
; 1295 : 		return;
; 1296 : 	}
; 1297 : 
; 1298 : 	szName[MAX_ACCOUNT_LEN] = 0;
; 1299 : 	memcpy(szName, lpMsg->Name, MAX_ACCOUNT_LEN);
; 1300 : 
; 1301 : 	if ( lpMsg->result == false )

  00079	80 7b 04 00	 cmp	 BYTE PTR [ebx+4], 0
  0007d	8b 53 12	 mov	 edx, DWORD PTR [ebx+18]
  00080	8b 43 16	 mov	 eax, DWORD PTR [ebx+22]
  00083	66 8b 4b 1a	 mov	 cx, WORD PTR [ebx+26]
  00087	c6 45 fa 00	 mov	 BYTE PTR _szName$[ebp+10], 0
  0008b	89 55 f0	 mov	 DWORD PTR _szName$[ebp], edx
  0008e	89 45 f4	 mov	 DWORD PTR _szName$[ebp+4], eax
  00091	66 89 4d f8	 mov	 WORD PTR _szName$[ebp+8], cx
  00095	75 43		 jne	 SHORT $LN21@JGGetChara

; 1302 : 	{
; 1303 : 		LogAdd(LOG_RED,  lMsg.Get(MSGGET(1, 171)), szName, gObj[aIndex].AccountID);

  00097	8b d7		 mov	 edx, edi
  00099	69 d2 64 15 00
	00		 imul	 edx, 5476		; 00001564H
  0009f	81 c2 64 00 00
	00		 add	 edx, OFFSET ?gObj@@3PAUOBJECTSTRUCT@@A+100
  000a5	52		 push	 edx
  000a6	8d 45 f0	 lea	 eax, DWORD PTR _szName$[ebp]
  000a9	50		 push	 eax
  000aa	68 ab 01 00 00	 push	 427			; 000001abH
  000af	b9 00 00 00 00	 mov	 ecx, OFFSET ?lMsg@@3VCMsg@@A ; lMsg
  000b4	e8 00 00 00 00	 call	 ?Get@CMsg@@QAEPADH@Z	; CMsg::Get
  000b9	50		 push	 eax
$LN28@JGGetChara:
  000ba	6a 01		 push	 1
  000bc	e8 00 00 00 00	 call	 ?LogAdd@@YAXW4eLogColor@@PADZZ ; LogAdd

; 1304 : 		CloseClient(aIndex);

  000c1	57		 push	 edi
  000c2	e8 00 00 00 00	 call	 ?CloseClient@@YAXH@Z	; CloseClient
  000c7	83 c4 14	 add	 esp, 20			; 00000014H
  000ca	5f		 pop	 edi
  000cb	5b		 pop	 ebx

; 1463 : }

  000cc	8b 4d fc	 mov	 ecx, DWORD PTR __$ArrayPad$[ebp]
  000cf	33 cd		 xor	 ecx, ebp
  000d1	e8 00 00 00 00	 call	 @__security_check_cookie@4
  000d6	8b e5		 mov	 esp, ebp
  000d8	5d		 pop	 ebp
  000d9	c3		 ret	 0
$LN21@JGGetChara:

; 1305 : 
; 1306 : 		return;
; 1307 : 	}
; 1308 : 
; 1309 : 	if ( (lpMsg->CtlCode&1) != 0 )

  000da	f6 83 c4 07 00
	00 01		 test	 BYTE PTR [ebx+1988], 1
  000e1	74 1a		 je	 SHORT $LN20@JGGetChara

; 1310 : 	{
; 1311 : 		LogAdd(LOG_RED,  "error-L1 : Load Block Character infomation", szName, gObj[aIndex].AccountID);	// Deathway Fix HERE

  000e3	8b cf		 mov	 ecx, edi
  000e5	69 c9 64 15 00
	00		 imul	 ecx, 5476		; 00001564H
  000eb	81 c1 64 00 00
	00		 add	 ecx, OFFSET ?gObj@@3PAUOBJECTSTRUCT@@A+100
  000f1	51		 push	 ecx
  000f2	8d 55 f0	 lea	 edx, DWORD PTR _szName$[ebp]
  000f5	52		 push	 edx
  000f6	68 00 00 00 00	 push	 OFFSET ??_C@_0CL@ECFCLMFK@error?9L1?5?3?5Load?5Block?5Character?5@

; 1312 : 		CloseClient(aIndex);
; 1313 : 
; 1314 : 		return;

  000fb	eb bd		 jmp	 SHORT $LN28@JGGetChara
$LN20@JGGetChara:
  000fd	56		 push	 esi

; 1315 : 	}
; 1316 : 
; 1317 : 	for (int i=OBJ_STARTUSERINDEX;i<OBJMAX;i++)

  000fe	be 60 c4 16 02	 mov	 esi, OFFSET ?gObj@@3PAUOBJECTSTRUCT@@A+35046496
$LL19@JGGetChara:

; 1318 : 	{
; 1319 : 		if ( gObj[i].Connected == PLAYER_PLAYING )

  00103	80 7e a4 03	 cmp	 BYTE PTR [esi-92], 3
  00107	75 32		 jne	 SHORT $LN18@JGGetChara

; 1320 : 		{
; 1321 : 			if ( gObj[i].Type == OBJ_USER )

  00109	66 83 3e 01	 cmp	 WORD PTR [esi], 1
  0010d	75 2c		 jne	 SHORT $LN18@JGGetChara

; 1322 : 			{
; 1323 : 				if ( !strncmp(szName, gObj[i].Name, MAX_ACCOUNT_LEN) || !strncmp(szAccountId, gObj[i].AccountID, MAX_ACCOUNT_LEN))

  0010f	6a 0a		 push	 10			; 0000000aH
  00111	8d 46 0f	 lea	 eax, DWORD PTR [esi+15]
  00114	50		 push	 eax
  00115	8d 4d f0	 lea	 ecx, DWORD PTR _szName$[ebp]
  00118	51		 push	 ecx
  00119	e8 00 00 00 00	 call	 _strncmp
  0011e	83 c4 0c	 add	 esp, 12			; 0000000cH
  00121	85 c0		 test	 eax, eax
  00123	74 67		 je	 SHORT $LN13@JGGetChara
  00125	6a 0a		 push	 10			; 0000000aH
  00127	8d 56 04	 lea	 edx, DWORD PTR [esi+4]
  0012a	52		 push	 edx
  0012b	8d 45 e4	 lea	 eax, DWORD PTR _szAccountId$[ebp]
  0012e	50		 push	 eax
  0012f	e8 00 00 00 00	 call	 _strncmp
  00134	83 c4 0c	 add	 esp, 12			; 0000000cH
  00137	85 c0		 test	 eax, eax
  00139	74 51		 je	 SHORT $LN13@JGGetChara
$LN18@JGGetChara:

; 1315 : 	}
; 1316 : 
; 1317 : 	for (int i=OBJ_STARTUSERINDEX;i<OBJMAX;i++)

  0013b	81 c6 64 15 00
	00		 add	 esi, 5476		; 00001564H
  00141	81 fe 00 53 6a
	02		 cmp	 esi, OFFSET ?gObj@@3PAUOBJECTSTRUCT@@A+40522496
  00147	7c ba		 jl	 SHORT $LL19@JGGetChara

; 1328 : 					return;
; 1329 : 				}
; 1330 : 			}
; 1331 : 		}
; 1332 : 	}
; 1333 : 
; 1334 : 
; 1335 : 
; 1336 : 	if ( gObjSetCharacter( (UCHAR*)lpMsg, aIndex) == FALSE )

  00149	57		 push	 edi
  0014a	53		 push	 ebx
  0014b	e8 00 00 00 00	 call	 ?gObjSetCharacter@@YAHPAEH@Z ; gObjSetCharacter
  00150	83 c4 08	 add	 esp, 8
  00153	85 c0		 test	 eax, eax
  00155	75 6e		 jne	 SHORT $LN12@JGGetChara

; 1337 : 	{
; 1338 : 		LogAdd(LOG_RED,  lMsg.Get(MSGGET(1, 172)), szName);

  00157	8d 45 f0	 lea	 eax, DWORD PTR _szName$[ebp]
  0015a	50		 push	 eax
  0015b	68 ac 01 00 00	 push	 428			; 000001acH
  00160	b9 00 00 00 00	 mov	 ecx, OFFSET ?lMsg@@3VCMsg@@A ; lMsg
  00165	e8 00 00 00 00	 call	 ?Get@CMsg@@QAEPADH@Z	; CMsg::Get
  0016a	50		 push	 eax
  0016b	6a 01		 push	 1
  0016d	e8 00 00 00 00	 call	 ?LogAdd@@YAXW4eLogColor@@PADZZ ; LogAdd

; 1339 : 		CloseClient(aIndex);

  00172	57		 push	 edi
  00173	e8 00 00 00 00	 call	 ?CloseClient@@YAXH@Z	; CloseClient
  00178	83 c4 10	 add	 esp, 16			; 00000010H
  0017b	5e		 pop	 esi
  0017c	5f		 pop	 edi
  0017d	5b		 pop	 ebx

; 1463 : }

  0017e	8b 4d fc	 mov	 ecx, DWORD PTR __$ArrayPad$[ebp]
  00181	33 cd		 xor	 ecx, ebp
  00183	e8 00 00 00 00	 call	 @__security_check_cookie@4
  00188	8b e5		 mov	 esp, ebp
  0018a	5d		 pop	 ebp
  0018b	c3		 ret	 0
$LN13@JGGetChara:

; 1324 : 				{
; 1325 : 					LogAdd(LOG_BLACK, "[Anti-HACK][JGGetCharacterInfo] Attempted Character-Copy by double logging [%s][%s]",
; 1326 : 						szName, gObj[aIndex].AccountID);

  0018c	8b cf		 mov	 ecx, edi
  0018e	69 c9 64 15 00
	00		 imul	 ecx, 5476		; 00001564H
  00194	81 c1 64 00 00
	00		 add	 ecx, OFFSET ?gObj@@3PAUOBJECTSTRUCT@@A+100
  0019a	51		 push	 ecx
  0019b	8d 55 f0	 lea	 edx, DWORD PTR _szName$[ebp]
  0019e	52		 push	 edx
  0019f	68 00 00 00 00	 push	 OFFSET ??_C@_0FE@JOJGEKKO@?$FLAnti?9HACK?$FN?$FLJGGetCharacterInfo?$FN?5@
  001a4	6a 00		 push	 0
  001a6	e8 00 00 00 00	 call	 ?LogAdd@@YAXW4eLogColor@@PADZZ ; LogAdd

; 1327 : 					CloseClient(aIndex);

  001ab	57		 push	 edi
  001ac	e8 00 00 00 00	 call	 ?CloseClient@@YAXH@Z	; CloseClient
  001b1	83 c4 14	 add	 esp, 20			; 00000014H
  001b4	5e		 pop	 esi
  001b5	5f		 pop	 edi
  001b6	5b		 pop	 ebx

; 1463 : }

  001b7	8b 4d fc	 mov	 ecx, DWORD PTR __$ArrayPad$[ebp]
  001ba	33 cd		 xor	 ecx, ebp
  001bc	e8 00 00 00 00	 call	 @__security_check_cookie@4
  001c1	8b e5		 mov	 esp, ebp
  001c3	5d		 pop	 ebp
  001c4	c3		 ret	 0
$LN12@JGGetChara:

; 1340 : 
; 1341 : 		return;
; 1342 : 	}
; 1343 : 
; 1344 : 	LPOBJ lpObj = &gObj[aIndex];

  001c5	8b c7		 mov	 eax, edi
  001c7	69 c0 64 15 00
	00		 imul	 eax, 5476		; 00001564H

; 1345 : 
; 1346 : 	if ( gObj[aIndex].m_Index != aIndex )

  001cd	39 b8 00 00 00
	00		 cmp	 DWORD PTR ?gObj@@3PAUOBJECTSTRUCT@@A[eax], edi
  001d3	8d b0 00 00 00
	00		 lea	 esi, DWORD PTR ?gObj@@3PAUOBJECTSTRUCT@@A[eax]
  001d9	74 3b		 je	 SHORT $LN11@JGGetChara

; 1347 : 	{
; 1348 : 		LogAdd(LOG_RED,  lMsg.Get(MSGGET(1, 173)), __FILE__, __LINE__);

  001db	68 44 05 00 00	 push	 1348			; 00000544H
  001e0	68 00 00 00 00	 push	 OFFSET ??_C@_0P@DNGOKBGI@DSProtocol?4cpp?$AA@
  001e5	68 ad 01 00 00	 push	 429			; 000001adH
  001ea	b9 00 00 00 00	 mov	 ecx, OFFSET ?lMsg@@3VCMsg@@A ; lMsg
  001ef	e8 00 00 00 00	 call	 ?Get@CMsg@@QAEPADH@Z	; CMsg::Get
  001f4	50		 push	 eax
  001f5	6a 01		 push	 1
  001f7	e8 00 00 00 00	 call	 ?LogAdd@@YAXW4eLogColor@@PADZZ ; LogAdd

; 1349 : 		CloseClient(aIndex);

  001fc	57		 push	 edi
  001fd	e8 00 00 00 00	 call	 ?CloseClient@@YAXH@Z	; CloseClient
  00202	83 c4 14	 add	 esp, 20			; 00000014H
  00205	5e		 pop	 esi
  00206	5f		 pop	 edi
  00207	5b		 pop	 ebx

; 1463 : }

  00208	8b 4d fc	 mov	 ecx, DWORD PTR __$ArrayPad$[ebp]
  0020b	33 cd		 xor	 ecx, ebp
  0020d	e8 00 00 00 00	 call	 @__security_check_cookie@4
  00212	8b e5		 mov	 esp, ebp
  00214	5d		 pop	 ebp
  00215	c3		 ret	 0
$LN11@JGGetChara:

; 1350 : 
; 1351 : 		return;
; 1352 : 	}
; 1353 : 
; 1354 : 
; 1355 : 	if ( lpObj->Money < 0 )

  00216	8b 8e b0 00 00
	00		 mov	 ecx, DWORD PTR [esi+176]
  0021c	33 ff		 xor	 edi, edi
  0021e	3b cf		 cmp	 ecx, edi
  00220	7d 21		 jge	 SHORT $LN10@JGGetChara

; 1356 : 	{
; 1357 : 		LogAdd(LOG_RED,  " ZEN MODIFY  [%s][%s] %d -> 0", szName, gObj[aIndex].AccountID, lpObj->Money);

  00222	51		 push	 ecx
  00223	8d 88 64 00 00
	00		 lea	 ecx, DWORD PTR ?gObj@@3PAUOBJECTSTRUCT@@A[eax+100]
  00229	51		 push	 ecx
  0022a	8d 55 f0	 lea	 edx, DWORD PTR _szName$[ebp]
  0022d	52		 push	 edx
  0022e	68 00 00 00 00	 push	 OFFSET ??_C@_0CG@BPCBIHIK@?$KB?Z?$KB?Y?5ZEN?5MODIFY?5?$KB?Y?$KB?Z?5?$FL?$CFs?$FN?$FL?$CFs?$FN?5?$CFd@
  00233	6a 01		 push	 1
  00235	e8 00 00 00 00	 call	 ?LogAdd@@YAXW4eLogColor@@PADZZ ; LogAdd
  0023a	83 c4 14	 add	 esp, 20			; 00000014H

; 1358 : 		lpObj->Money = 0;

  0023d	89 be b0 00 00
	00		 mov	 DWORD PTR [esi+176], edi
$LN10@JGGetChara:

; 1359 : 	}
; 1360 : 
; 1361 : 	if ( lpObj->m_bMapSvrMoveReq == false )

  00243	80 be c5 14 00
	00 00		 cmp	 BYTE PTR [esi+5317], 0
  0024a	0f 85 00 01 00
	00		 jne	 $LN7@JGGetChara

; 1362 : 	{
; 1363 : 		if ( MapNumberCheck(lpObj->MapNumber) == FALSE )

  00250	0f b6 86 09 01
	00 00		 movzx	 eax, BYTE PTR [esi+265]
  00257	50		 push	 eax
  00258	e8 00 00 00 00	 call	 ?MapNumberCheck@@YAHH@Z	; MapNumberCheck
  0025d	83 c4 04	 add	 esp, 4
  00260	85 c0		 test	 eax, eax
  00262	75 32		 jne	 SHORT $LN8@JGGetChara

; 1364 : 		{
; 1365 : 			LogAdd(LOG_BLACK, "error-L3 : %s %d", __FILE__, __LINE__);

  00264	68 55 05 00 00	 push	 1365			; 00000555H
  00269	68 00 00 00 00	 push	 OFFSET ??_C@_0P@DNGOKBGI@DSProtocol?4cpp?$AA@
  0026e	68 00 00 00 00	 push	 OFFSET ??_C@_0BB@LBNJKNBE@error?9L3?5?3?5?$CFs?5?$CFd?$AA@
  00273	57		 push	 edi
  00274	e8 00 00 00 00	 call	 ?LogAdd@@YAXW4eLogColor@@PADZZ ; LogAdd

; 1366 : 			CloseClient(aIndex);

  00279	8b 4d 98	 mov	 ecx, DWORD PTR _aIndex$[ebp]
  0027c	51		 push	 ecx
  0027d	e8 00 00 00 00	 call	 ?CloseClient@@YAXH@Z	; CloseClient
  00282	83 c4 14	 add	 esp, 20			; 00000014H
  00285	5e		 pop	 esi
  00286	5f		 pop	 edi
  00287	5b		 pop	 ebx

; 1463 : }

  00288	8b 4d fc	 mov	 ecx, DWORD PTR __$ArrayPad$[ebp]
  0028b	33 cd		 xor	 ecx, ebp
  0028d	e8 00 00 00 00	 call	 @__security_check_cookie@4
  00292	8b e5		 mov	 esp, ebp
  00294	5d		 pop	 ebp
  00295	c3		 ret	 0
$LN8@JGGetChara:

; 1367 : 
; 1368 : 			return;
; 1369 : 		}
; 1370 : 
; 1371 : 		short wGameServerCode = g_MapServerManager.CheckMoveMapSvr(lpObj->m_Index, lpObj->MapNumber, lpObj->m_sPrevMapSvrCode);

  00296	0f b7 96 cc 14
	00 00		 movzx	 edx, WORD PTR [esi+5324]
  0029d	0f b6 86 09 01
	00 00		 movzx	 eax, BYTE PTR [esi+265]
  002a4	8b 0e		 mov	 ecx, DWORD PTR [esi]
  002a6	52		 push	 edx
  002a7	50		 push	 eax
  002a8	51		 push	 ecx
  002a9	b9 00 00 00 00	 mov	 ecx, OFFSET ?g_MapServerManager@@3VCMapServerManager@@A ; g_MapServerManager
  002ae	e8 00 00 00 00	 call	 ?CheckMoveMapSvr@CMapServerManager@@QAEFHHF@Z ; CMapServerManager::CheckMoveMapSvr
  002b3	0f b7 c0	 movzx	 eax, ax
  002b6	89 45 a0	 mov	 DWORD PTR _wGameServerCode$158302[ebp], eax

; 1372 : 
; 1373 : 		if ( wGameServerCode != gGameServerCode )

  002b9	66 3b 05 00 00
	00 00		 cmp	 ax, WORD PTR ?gGameServerCode@@3FA ; gGameServerCode
  002c0	0f 84 8a 00 00
	00		 je	 $LN7@JGGetChara

; 1374 : 		{
; 1375 : 			if ( wGameServerCode == -1 )

  002c6	66 83 f8 ff	 cmp	 ax, -1
  002ca	75 34		 jne	 SHORT $LN6@JGGetChara

; 1376 : 			{
; 1377 : 				LogAdd(LOG_RED, "[MapServerMng] Map Server Move Fail : CheckMoveMapSvr() == -1 [%s][%s] (%d)",
; 1378 : 					lpObj->AccountID, lpObj->Name, lpObj->m_Index);

  002cc	8b 16		 mov	 edx, DWORD PTR [esi]
  002ce	52		 push	 edx
  002cf	8d 46 6f	 lea	 eax, DWORD PTR [esi+111]
  002d2	50		 push	 eax
  002d3	83 c6 64	 add	 esi, 100		; 00000064H
  002d6	56		 push	 esi
  002d7	68 00 00 00 00	 push	 OFFSET ??_C@_0EM@ICCPKMCE@?$FLMapServerMng?$FN?5Map?5Server?5Move?5F@
  002dc	6a 01		 push	 1
  002de	e8 00 00 00 00	 call	 ?LogAdd@@YAXW4eLogColor@@PADZZ ; LogAdd

; 1379 : 				CloseClient(aIndex);

  002e3	8b 4d 98	 mov	 ecx, DWORD PTR _aIndex$[ebp]
  002e6	51		 push	 ecx
  002e7	e8 00 00 00 00	 call	 ?CloseClient@@YAXH@Z	; CloseClient
  002ec	83 c4 18	 add	 esp, 24			; 00000018H
  002ef	5e		 pop	 esi
  002f0	5f		 pop	 edi
  002f1	5b		 pop	 ebx

; 1463 : }

  002f2	8b 4d fc	 mov	 ecx, DWORD PTR __$ArrayPad$[ebp]
  002f5	33 cd		 xor	 ecx, ebp
  002f7	e8 00 00 00 00	 call	 @__security_check_cookie@4
  002fc	8b e5		 mov	 esp, ebp
  002fe	5d		 pop	 ebp
  002ff	c3		 ret	 0
$LN6@JGGetChara:

; 1380 : 				return;
; 1381 : 			}
; 1382 : 
; 1383 : 			GJReqMapSvrMove(lpObj->m_Index, wGameServerCode, lpObj->MapNumber, lpObj->X, lpObj->Y);

  00300	0f b6 96 06 01
	00 00		 movzx	 edx, BYTE PTR [esi+262]
  00307	0f b6 8e 04 01
	00 00		 movzx	 ecx, BYTE PTR [esi+260]
  0030e	52		 push	 edx
  0030f	8b 16		 mov	 edx, DWORD PTR [esi]
  00311	51		 push	 ecx
  00312	0f b6 8e 09 01
	00 00		 movzx	 ecx, BYTE PTR [esi+265]
  00319	51		 push	 ecx
  0031a	50		 push	 eax
  0031b	52		 push	 edx
  0031c	e8 00 00 00 00	 call	 ?GJReqMapSvrMove@@YAXHGGEE@Z ; GJReqMapSvrMove

; 1384 : 			LogAdd(LOG_BLACK, "[MapServerMng] Request to Move Map Server : (%d) - [%s][%s] (%d)",
; 1385 : 				wGameServerCode, lpObj->AccountID, lpObj->Name, lpObj->m_Index);

  00321	8b 06		 mov	 eax, DWORD PTR [esi]
  00323	0f bf 55 a0	 movsx	 edx, WORD PTR _wGameServerCode$158302[ebp]
  00327	50		 push	 eax
  00328	8d 4e 6f	 lea	 ecx, DWORD PTR [esi+111]
  0032b	51		 push	 ecx
  0032c	83 c6 64	 add	 esi, 100		; 00000064H
  0032f	56		 push	 esi
  00330	52		 push	 edx
  00331	68 00 00 00 00	 push	 OFFSET ??_C@_0EB@KJANBCDD@?$FLMapServerMng?$FN?5Request?5to?5Move?5M@
  00336	57		 push	 edi
  00337	e8 00 00 00 00	 call	 ?LogAdd@@YAXW4eLogColor@@PADZZ ; LogAdd
  0033c	83 c4 2c	 add	 esp, 44			; 0000002cH
  0033f	5e		 pop	 esi
  00340	5f		 pop	 edi
  00341	5b		 pop	 ebx

; 1463 : }

  00342	8b 4d fc	 mov	 ecx, DWORD PTR __$ArrayPad$[ebp]
  00345	33 cd		 xor	 ecx, ebp
  00347	e8 00 00 00 00	 call	 @__security_check_cookie@4
  0034c	8b e5		 mov	 esp, ebp
  0034e	5d		 pop	 ebp
  0034f	c3		 ret	 0
$LN7@JGGetChara:

; 1386 : 
; 1387 : 			return;
; 1388 : 		}
; 1389 : 	}
; 1390 : 
; 1391 : 	lpObj->m_bMapSvrMoveReq = false;
; 1392 : 
; 1393 : 	pjMsg.h.c = 0xC3;
; 1394 : 	pjMsg.h.headcode = 0xF3;
; 1395 : 	pjMsg.h.size = sizeof(PMSG_CHARMAPJOINRESULT);
; 1396 : 	pjMsg.subcode = 0x03;
; 1397 : 	pjMsg.MapX = lpObj->X;

  00350	0f b6 86 04 01
	00 00		 movzx	 eax, BYTE PTR [esi+260]

; 1398 : 	pjMsg.MapY = lpObj->Y;
; 1399 : 	pjMsg.MapNumber = lpObj->MapNumber;
; 1400 : 	pjMsg.Dir = lpObj->Dir;
; 1401 : 	pjMsg.Exp = lpObj->Experience;
; 1402 : 	pjMsg.NextExp = lpObj->NextExp;
; 1403 : 	pjMsg.LevelUpPoint = lpObj->LevelUpPoint;
; 1404 : 	pjMsg.Str = lpObj->Strength;
; 1405 : 	pjMsg.Dex = lpObj->Dexterity;
; 1406 : 	pjMsg.Vit = lpObj->Vitality;
; 1407 : 	pjMsg.Energy = lpObj->Energy;
; 1408 : 	pjMsg.Money = lpObj->Money;
; 1409 : 	pjMsg.PkLevel = lpObj->m_PK_Level;
; 1410 : 	pjMsg.Life = lpObj->Life;

  00357	d9 86 bc 00 00
	00		 fld	 DWORD PTR [esi+188]
  0035d	88 45 ac	 mov	 BYTE PTR _pjMsg$[ebp+4], al
  00360	d9 7d a6	 fnstcw	 WORD PTR tv678[ebp]
  00363	0f b6 86 08 01
	00 00		 movzx	 eax, BYTE PTR [esi+264]
  0036a	88 45 af	 mov	 BYTE PTR _pjMsg$[ebp+7], al
  0036d	0f b7 86 a0 00
	00 00		 movzx	 eax, WORD PTR [esi+160]
  00374	8a 8e 06 01 00
	00		 mov	 cl, BYTE PTR [esi+262]
  0037a	66 89 45 b8	 mov	 WORD PTR _pjMsg$[ebp+16], ax
  0037e	0f b7 86 b8 00
	00 00		 movzx	 eax, WORD PTR [esi+184]
  00385	66 89 45 be	 mov	 WORD PTR _pjMsg$[ebp+22], ax
  00389	0f b6 86 fd 00
	00 00		 movzx	 eax, BYTE PTR [esi+253]
  00390	88 45 d4	 mov	 BYTE PTR _pjMsg$[ebp+44], al
  00393	0f b7 45 a6	 movzx	 eax, WORD PTR tv678[ebp]
  00397	0d 00 0c 00 00	 or	 eax, 3072		; 00000c00H
  0039c	89 45 a0	 mov	 DWORD PTR tv675[ebp], eax
  0039f	0f b6 96 09 01
	00 00		 movzx	 edx, BYTE PTR [esi+265]
  003a6	d9 6d a0	 fldcw	 WORD PTR tv675[ebp]
  003a9	88 4d ad	 mov	 BYTE PTR _pjMsg$[ebp+5], cl
  003ac	8b 8e a8 00 00
	00		 mov	 ecx, DWORD PTR [esi+168]
  003b2	89 4d b0	 mov	 DWORD PTR _pjMsg$[ebp+8], ecx
  003b5	0f b7 8e b4 00
	00 00		 movzx	 ecx, WORD PTR [esi+180]
  003bc	db 5d a0	 fistp	 DWORD PTR tv673[ebp]
  003bf	66 89 4d ba	 mov	 WORD PTR _pjMsg$[ebp+18], cx
  003c3	0f b7 8e ba 00
	00 00		 movzx	 ecx, WORD PTR [esi+186]
  003ca	d9 6d a6	 fldcw	 WORD PTR tv678[ebp]
  003cd	66 89 4d c0	 mov	 WORD PTR _pjMsg$[ebp+24], cx
  003d1	0f b7 4d a0	 movzx	 ecx, WORD PTR tv673[ebp]
  003d5	88 55 ae	 mov	 BYTE PTR _pjMsg$[ebp+6], dl
  003d8	8b 96 ac 00 00
	00		 mov	 edx, DWORD PTR [esi+172]
  003de	89 55 b4	 mov	 DWORD PTR _pjMsg$[ebp+12], edx

; 1411 : 	pjMsg.MaxLife = lpObj->AddLife + lpObj->MaxLife;

  003e1	db 86 0c 01 00
	00		 fild	 DWORD PTR [esi+268]
  003e7	0f b7 96 b6 00
	00 00		 movzx	 edx, WORD PTR [esi+182]
  003ee	d9 7d a6	 fnstcw	 WORD PTR tv670[ebp]
  003f1	0f b7 45 a6	 movzx	 eax, WORD PTR tv670[ebp]
  003f5	d8 86 c0 00 00
	00		 fadd	 DWORD PTR [esi+192]
  003fb	0d 00 0c 00 00	 or	 eax, 3072		; 00000c00H
  00400	89 45 a0	 mov	 DWORD PTR tv667[ebp], eax
  00403	66 89 55 bc	 mov	 WORD PTR _pjMsg$[ebp+20], dx
  00407	8b 96 b0 00 00
	00		 mov	 edx, DWORD PTR [esi+176]
  0040d	d9 6d a0	 fldcw	 WORD PTR tv667[ebp]
  00410	89 55 d0	 mov	 DWORD PTR _pjMsg$[ebp+40], edx
  00413	66 89 4d c2	 mov	 WORD PTR _pjMsg$[ebp+26], cx
  00417	c6 86 c5 14 00
	00 00		 mov	 BYTE PTR [esi+5317], 0
  0041e	c6 45 a8 c3	 mov	 BYTE PTR _pjMsg$[ebp], 195 ; 000000c3H
  00422	66 c7 45 a9 3c
	f3		 mov	 WORD PTR _pjMsg$[ebp+1], 62268 ; 0000f33cH
  00428	db 5d a0	 fistp	 DWORD PTR tv665[ebp]
  0042b	c6 45 ab 03	 mov	 BYTE PTR _pjMsg$[ebp+3], 3
  0042f	0f b7 55 a0	 movzx	 edx, WORD PTR tv665[ebp]
  00433	66 89 55 c4	 mov	 WORD PTR _pjMsg$[ebp+28], dx

; 1412 : 	pjMsg.Mana = lpObj->Mana;
; 1413 : 	pjMsg.MaxMana = lpObj->AddMana + lpObj->MaxMana;
; 1414 : 	pjMsg.CtlCode = lpMsg->CtlCode;

  00437	0f b6 93 c4 07
	00 00		 movzx	 edx, BYTE PTR [ebx+1988]
  0043e	d9 6d a6	 fldcw	 WORD PTR tv670[ebp]
  00441	88 55 d5	 mov	 BYTE PTR _pjMsg$[ebp+45], dl

; 1415 : 	pjMsg.BP = lpObj->BP;
; 1416 : 	pjMsg.MaxBP = lpObj->MaxBP + lpObj->AddBP;
; 1417 : 	pjMsg.Leadership = lpObj->Leadership;

  00444	0f b7 96 d8 00
	00 00		 movzx	 edx, WORD PTR [esi+216]
  0044b	66 89 55 da	 mov	 WORD PTR _pjMsg$[ebp+50], dx
  0044f	d9 86 d0 00 00
	00		 fld	 DWORD PTR [esi+208]
  00455	d9 7d a6	 fnstcw	 WORD PTR tv662[ebp]
  00458	0f b7 45 a6	 movzx	 eax, WORD PTR tv662[ebp]
  0045c	0d 00 0c 00 00	 or	 eax, 3072		; 00000c00H
  00461	89 45 a0	 mov	 DWORD PTR tv659[ebp], eax
  00464	d9 6d a0	 fldcw	 WORD PTR tv659[ebp]
  00467	db 5d a0	 fistp	 DWORD PTR tv657[ebp]
  0046a	0f b7 45 a0	 movzx	 eax, WORD PTR tv657[ebp]
  0046e	66 89 45 c6	 mov	 WORD PTR _pjMsg$[ebp+30], ax
  00472	d9 6d a6	 fldcw	 WORD PTR tv662[ebp]
  00475	db 86 10 01 00
	00		 fild	 DWORD PTR [esi+272]
  0047b	d9 7d a6	 fnstcw	 WORD PTR tv654[ebp]
  0047e	0f b7 45 a6	 movzx	 eax, WORD PTR tv654[ebp]
  00482	d8 86 d4 00 00
	00		 fadd	 DWORD PTR [esi+212]
  00488	0d 00 0c 00 00	 or	 eax, 3072		; 00000c00H
  0048d	89 45 a0	 mov	 DWORD PTR tv651[ebp], eax
  00490	0f b7 86 e8 00
	00 00		 movzx	 eax, WORD PTR [esi+232]
  00497	d9 6d a0	 fldcw	 WORD PTR tv651[ebp]
  0049a	66 89 45 ca	 mov	 WORD PTR _pjMsg$[ebp+34], ax
  0049e	db 5d a0	 fistp	 DWORD PTR tv649[ebp]
  004a1	0f b7 4d a0	 movzx	 ecx, WORD PTR tv649[ebp]
  004a5	66 89 4d c8	 mov	 WORD PTR _pjMsg$[ebp+32], cx
  004a9	0f b7 8e f0 00
	00 00		 movzx	 ecx, WORD PTR [esi+240]
  004b0	d9 6d a6	 fldcw	 WORD PTR tv654[ebp]
  004b3	66 03 8e ec 00
	00 00		 add	 cx, WORD PTR [esi+236]
  004ba	66 89 4d cc	 mov	 WORD PTR _pjMsg$[ebp+36], cx

; 1418 : 
; 1419 : 	pjMsg.iUpPoint = lpObj->LevelUpPoint;

  004be	8b 86 a0 00 00
	00		 mov	 eax, DWORD PTR [esi+160]

; 1420 : 	
; 1421 : 	short AddPoint = 0;
; 1422 : 	short MaxAddPoint = 0;
; 1423 : 	short MinusPoint = 0;
; 1424 : 	short MaxMinusPoint = 0;
; 1425 : 	
; 1426 : 	gObjGetStatPointState(lpObj->m_Index, AddPoint, MaxAddPoint, MinusPoint, MaxMinusPoint);

  004c4	8d 4d 9c	 lea	 ecx, DWORD PTR _MaxMinusPoint$[ebp]
  004c7	51		 push	 ecx
  004c8	8d 55 a4	 lea	 edx, DWORD PTR _MinusPoint$[ebp]
  004cb	52		 push	 edx
  004cc	8b 16		 mov	 edx, DWORD PTR [esi]
  004ce	89 45 e0	 mov	 DWORD PTR _pjMsg$[ebp+56], eax
  004d1	8d 45 94	 lea	 eax, DWORD PTR _MaxAddPoint$[ebp]
  004d4	50		 push	 eax
  004d5	8d 4d 90	 lea	 ecx, DWORD PTR _AddPoint$[ebp]
  004d8	51		 push	 ecx
  004d9	52		 push	 edx
  004da	89 7d 90	 mov	 DWORD PTR _AddPoint$[ebp], edi
  004dd	89 7d 94	 mov	 DWORD PTR _MaxAddPoint$[ebp], edi
  004e0	89 7d a4	 mov	 DWORD PTR _MinusPoint$[ebp], edi
  004e3	89 7d 9c	 mov	 DWORD PTR _MaxMinusPoint$[ebp], edi
  004e6	e8 00 00 00 00	 call	 ?gObjGetStatPointState@@YAXHAAF000@Z ; gObjGetStatPointState

; 1427 : 	pjMsg.AddPoint = AddPoint;
; 1428 : 	pjMsg.MaxAddPoint = MaxAddPoint;

  004eb	8b 4d 94	 mov	 ecx, DWORD PTR _MaxAddPoint$[ebp]
  004ee	8b 45 90	 mov	 eax, DWORD PTR _AddPoint$[ebp]

; 1429 : 	pjMsg.wMinusPoint = MinusPoint;

  004f1	8b 55 a4	 mov	 edx, DWORD PTR _MinusPoint$[ebp]

; 1430 : 	pjMsg.wMaxMinusPoint = MaxMinusPoint;

  004f4	66 8b 7d 9c	 mov	 di, WORD PTR _MaxMinusPoint$[ebp]
  004f8	66 89 4d d8	 mov	 WORD PTR _pjMsg$[ebp+48], cx

; 1431 : 
; 1432 : 	LogAdd(LOG_BLACK, "[FRUIT System] [%s][%s] (MinusPoint:%d/PlusPoint:%d) (MaxMinus:%d/MaxPlus:%d)",
; 1433 : 		lpObj->AccountID, lpObj->Name, MinusPoint, AddPoint, MaxMinusPoint, MaxAddPoint);

  004fc	0f bf c9	 movsx	 ecx, cx
  004ff	51		 push	 ecx
  00500	0f bf 4d 9c	 movsx	 ecx, WORD PTR _MaxMinusPoint$[ebp]
  00504	51		 push	 ecx
  00505	66 89 45 d6	 mov	 WORD PTR _pjMsg$[ebp+46], ax
  00509	98		 cwde
  0050a	50		 push	 eax
  0050b	0f bf ca	 movsx	 ecx, dx
  0050e	51		 push	 ecx
  0050f	66 89 7d de	 mov	 WORD PTR _pjMsg$[ebp+54], di
  00513	8d 7e 6f	 lea	 edi, DWORD PTR [esi+111]
  00516	57		 push	 edi
  00517	8d 5e 64	 lea	 ebx, DWORD PTR [esi+100]
  0051a	53		 push	 ebx
  0051b	68 00 00 00 00	 push	 OFFSET ??_C@_0EO@MMCPKNFL@?$FLFRUIT?5System?$FN?5?$FL?$CFs?$FN?$FL?$CFs?$FN?5?$CIMinusPo@
  00520	6a 00		 push	 0
  00522	66 89 55 dc	 mov	 WORD PTR _pjMsg$[ebp+52], dx
  00526	e8 00 00 00 00	 call	 ?LogAdd@@YAXW4eLogColor@@PADZZ ; LogAdd

; 1434 : 
; 1435 : 	if ( AddPoint < 0 || AddPoint > MaxAddPoint || MinusPoint < 0 || MinusPoint > MaxMinusPoint )

  0052b	8b 45 90	 mov	 eax, DWORD PTR _AddPoint$[ebp]
  0052e	8b 4d 9c	 mov	 ecx, DWORD PTR _MaxMinusPoint$[ebp]
  00531	8b 55 94	 mov	 edx, DWORD PTR _MaxAddPoint$[ebp]
  00534	83 c4 34	 add	 esp, 52			; 00000034H
  00537	66 85 c0	 test	 ax, ax
  0053a	78 12		 js	 SHORT $LN4@JGGetChara
  0053c	66 3b c2	 cmp	 ax, dx
  0053f	7f 0d		 jg	 SHORT $LN4@JGGetChara
  00541	66 83 7d a4 00	 cmp	 WORD PTR _MinusPoint$[ebp], 0
  00546	7c 06		 jl	 SHORT $LN4@JGGetChara
  00548	66 39 4d a4	 cmp	 WORD PTR _MinusPoint$[ebp], cx
  0054c	7e 22		 jle	 SHORT $LN5@JGGetChara
$LN4@JGGetChara:

; 1436 : 	{
; 1437 : 		LogAdd(LOG_BLACK, "[FRUIT System] Character Stat Error [%s][%s] (MinusPoint:%d/PlusPoint:%d) (MaxMinus:%d/MaxPlus:%d)",
; 1438 : 			lpObj->AccountID, lpObj->Name, MinusPoint, AddPoint, MaxMinusPoint, MaxAddPoint);

  0054e	0f bf d2	 movsx	 edx, dx
  00551	52		 push	 edx
  00552	0f bf c9	 movsx	 ecx, cx
  00555	51		 push	 ecx
  00556	0f bf d0	 movsx	 edx, ax
  00559	0f bf 45 a4	 movsx	 eax, WORD PTR _MinusPoint$[ebp]
  0055d	52		 push	 edx
  0055e	50		 push	 eax
  0055f	57		 push	 edi
  00560	53		 push	 ebx
  00561	68 00 00 00 00	 push	 OFFSET ??_C@_0GD@LBDNOPPJ@?$FLFRUIT?5System?$FN?5Character?5Stat?5Er@
  00566	6a 00		 push	 0
  00568	e8 00 00 00 00	 call	 ?LogAdd@@YAXW4eLogColor@@PADZZ ; LogAdd
  0056d	83 c4 20	 add	 esp, 32			; 00000020H
$LN5@JGGetChara:

; 1439 : 	}
; 1440 : 
; 1441 : 	g_QuestInfo.QuestInfoSave(lpObj);

  00570	56		 push	 esi
  00571	b9 00 00 00 00	 mov	 ecx, OFFSET ?g_QuestInfo@@3VCQuestInfo@@A ; g_QuestInfo
  00576	e8 00 00 00 00	 call	 ?QuestInfoSave@CQuestInfo@@QAEXPAUOBJECTSTRUCT@@@Z ; CQuestInfo::QuestInfoSave

; 1442 : 	
; 1443 : 	DataSend(aIndex, (UCHAR*)&pjMsg, pjMsg.h.size);

  0057b	0f b6 4d a9	 movzx	 ecx, BYTE PTR _pjMsg$[ebp+1]
  0057f	8b 7d 98	 mov	 edi, DWORD PTR _aIndex$[ebp]
  00582	51		 push	 ecx
  00583	8d 55 a8	 lea	 edx, DWORD PTR _pjMsg$[ebp]
  00586	52		 push	 edx
  00587	57		 push	 edi
  00588	e8 00 00 00 00	 call	 ?DataSend@@YAHHPAEK@Z	; DataSend

; 1444 : 
; 1445 : 	GCItemListSend(aIndex);

  0058d	57		 push	 edi
  0058e	e8 00 00 00 00	 call	 ?GCItemListSend@@YAXH@Z	; GCItemListSend

; 1446 : 	GCMagicListMultiSend(lpObj, 0);

  00593	6a 00		 push	 0
  00595	56		 push	 esi
  00596	e8 00 00 00 00	 call	 ?GCMagicListMultiSend@@YAXPAUOBJECTSTRUCT@@E@Z ; GCMagicListMultiSend

; 1447 : 	CGRequestQuestInfo(aIndex);

  0059b	57		 push	 edi
  0059c	e8 00 00 00 00	 call	 ?CGRequestQuestInfo@@YAXH@Z ; CGRequestQuestInfo

; 1448 : 	DGGuildMemberInfoRequest(aIndex);

  005a1	57		 push	 edi
  005a2	e8 00 00 00 00	 call	 ?DGGuildMemberInfoRequest@@YAXH@Z ; DGGuildMemberInfoRequest

; 1449 : 	FriendListRequest(aIndex);

  005a7	57		 push	 edi
  005a8	e8 00 00 00 00	 call	 ?FriendListRequest@@YAXH@Z ; FriendListRequest
  005ad	83 c4 24	 add	 esp, 36			; 00000024H

; 1450 : 
; 1451 : 	if ( gTamaJJangEvent != FALSE )

  005b0	83 3d 00 00 00
	00 00		 cmp	 DWORD PTR ?gTamaJJangEvent@@3HA, 0 ; gTamaJJangEvent
  005b7	74 22		 je	 SHORT $LN1@JGGetChara

; 1452 : 	{
; 1453 : 		if ( gAppearTamaJJang != 0 )

  005b9	a1 00 00 00 00	 mov	 eax, DWORD PTR ?gAppearTamaJJang@@3HA ; gAppearTamaJJang
  005be	85 c0		 test	 eax, eax
  005c0	74 19		 je	 SHORT $LN1@JGGetChara

; 1454 : 		{
; 1455 : 			if ( lpObj->MapNumber == MAP_INDEX_LORENCIA )

  005c2	80 be 09 01 00
	00 00		 cmp	 BYTE PTR [esi+265], 0
  005c9	75 10		 jne	 SHORT $LN1@JGGetChara

; 1456 : 			{
; 1457 : 				GCMapEventStateSend(MAP_INDEX_LORENCIA, gAppearTamaJJang, 2);

  005cb	0f b6 c0	 movzx	 eax, al
  005ce	6a 02		 push	 2
  005d0	50		 push	 eax
  005d1	6a 00		 push	 0
  005d3	e8 00 00 00 00	 call	 ?GCMapEventStateSend@@YAXHEE@Z ; GCMapEventStateSend
  005d8	83 c4 0c	 add	 esp, 12			; 0000000cH
$LN1@JGGetChara:

; 1458 : 			}
; 1459 : 		}
; 1460 : 	}
; 1461 : 
; 1462 : 	gObjUseSkill.SkillChangeUse(lpObj->m_Index);

  005db	8b 0e		 mov	 ecx, DWORD PTR [esi]
  005dd	51		 push	 ecx
  005de	b9 00 00 00 00	 mov	 ecx, OFFSET ?gObjUseSkill@@3VCObjUseSkill@@A ; gObjUseSkill
  005e3	e8 00 00 00 00	 call	 ?SkillChangeUse@CObjUseSkill@@QAEHH@Z ; CObjUseSkill::SkillChangeUse

; 1463 : }

  005e8	8b 4d fc	 mov	 ecx, DWORD PTR __$ArrayPad$[ebp]
  005eb	5e		 pop	 esi
  005ec	5f		 pop	 edi
  005ed	33 cd		 xor	 ecx, ebp
  005ef	5b		 pop	 ebx
  005f0	e8 00 00 00 00	 call	 @__security_check_cookie@4
  005f5	8b e5		 mov	 esp, ebp
  005f7	5d		 pop	 ebp
  005f8	c3		 ret	 0
?JGGetCharacterInfo@@YAXPAUSDHP_DBCHAR_INFORESULT@@@Z ENDP ; JGGetCharacterInfo
_TEXT	ENDS
PUBLIC	_aIndex$GSCopy$
PUBLIC	__$ArrayPad$
PUBLIC	?gObjRequestPetItemInfo@@YAXHH@Z		; gObjRequestPetItemInfo
; Function compile flags: /Ogtp
;	COMDAT ?gObjRequestPetItemInfo@@YAXHH@Z
_TEXT	SEGMENT
_petIteminfo$ = -1072					; size = 8
_aIndex$GSCopy$ = -1064					; size = 4
_pMsg$158849 = -1060					; size = 20
_lofs$ = -1040						; size = 4
_founditemcount$ = -1036				; size = 4
_n$158841 = -1032					; size = 4
_n$158832 = -1032					; size = 4
_pbuffer$ = -1028					; size = 1024
__$ArrayPad$ = -4					; size = 4
_aIndex$ = 8						; size = 4
_inventype$ = 12					; size = 4
?gObjRequestPetItemInfo@@YAXHH@Z PROC			; gObjRequestPetItemInfo, COMDAT

; 2554 : {

  00000	55		 push	 ebp
  00001	8b ec		 mov	 ebp, esp
  00003	81 ec 30 04 00
	00		 sub	 esp, 1072		; 00000430H
  00009	a1 00 00 00 00	 mov	 eax, DWORD PTR ___security_cookie
  0000e	33 c5		 xor	 eax, ebp
  00010	89 45 fc	 mov	 DWORD PTR __$ArrayPad$[ebp], eax

; 2555 : 	LPOBJ lpObj = &gObj[aIndex];
; 2556 : 	char pbuffer[1024];
; 2557 : 	int lofs = sizeof(SDHP_REQUEST_PETITEM_INFO);
; 2558 : 	int founditemcount = 0;
; 2559 : 	Request_PetItem_Info petIteminfo;
; 2560 : 
; 2561 : 	if ( inventype == 0 )

  00013	8b 45 0c	 mov	 eax, DWORD PTR _inventype$[ebp]
  00016	53		 push	 ebx
  00017	56		 push	 esi
  00018	8b 75 08	 mov	 esi, DWORD PTR _aIndex$[ebp]
  0001b	89 b5 d8 fb ff
	ff		 mov	 DWORD PTR _aIndex$GSCopy$[ebp], esi
  00021	69 f6 64 15 00
	00		 imul	 esi, 5476		; 00001564H
  00027	33 db		 xor	 ebx, ebx
  00029	81 c6 00 00 00
	00		 add	 esi, OFFSET ?gObj@@3PAUOBJECTSTRUCT@@A ; gObj
  0002f	57		 push	 edi
  00030	c7 85 f0 fb ff
	ff 14 00 00 00	 mov	 DWORD PTR _lofs$[ebp], 20 ; 00000014H
  0003a	89 9d f4 fb ff
	ff		 mov	 DWORD PTR _founditemcount$[ebp], ebx
  00040	3b c3		 cmp	 eax, ebx
  00042	75 7f		 jne	 SHORT $LN16@gObjReques

; 2562 : 	{
; 2563 : 		for ( int n=0;n<INVENTORY_SIZE;n++)

  00044	89 9d f8 fb ff
	ff		 mov	 DWORD PTR _n$158832[ebp], ebx
  0004a	8d bd 10 fc ff
	ff		 lea	 edi, DWORD PTR _pbuffer$[ebp+20]
$LL15@gObjReques:

; 2564 : 		{
; 2565 : 			if ( lpObj->pInventory[n].IsItem() )

  00050	8b 8e 8c 0c 00
	00		 mov	 ecx, DWORD PTR [esi+3212]
  00056	03 cb		 add	 ecx, ebx
  00058	e8 00 00 00 00	 call	 ?IsItem@CItem@@QAEHXZ	; CItem::IsItem
  0005d	85 c0		 test	 eax, eax
  0005f	74 49		 je	 SHORT $LN14@gObjReques

; 2566 : 			{
; 2567 : 				if ( lpObj->pInventory[n].m_Type == ITEMGET(13,4) || lpObj->pInventory[n].m_Type == ITEMGET(13,5) )

  00061	8b 86 8c 0c 00
	00		 mov	 eax, DWORD PTR [esi+3212]
  00067	0f b7 4c 18 06	 movzx	 ecx, WORD PTR [eax+ebx+6]
  0006c	ba 04 1a 00 00	 mov	 edx, 6660		; 00001a04H
  00071	66 3b ca	 cmp	 cx, dx
  00074	74 0a		 je	 SHORT $LN10@gObjReques
  00076	ba 05 1a 00 00	 mov	 edx, 6661		; 00001a05H
  0007b	66 3b ca	 cmp	 cx, dx
  0007e	75 2a		 jne	 SHORT $LN14@gObjReques
$LN10@gObjReques:

; 2568 : 				{
; 2569 : 					founditemcount++;
; 2570 : 					petIteminfo.nPos = n;

  00080	8a 8d f8 fb ff
	ff		 mov	 cl, BYTE PTR _n$158832[ebp]

; 2571 : 					petIteminfo.nSerial = lpObj->pInventory[n].m_Number;

  00086	8b 04 18	 mov	 eax, DWORD PTR [eax+ebx]
  00089	ff 85 f4 fb ff
	ff		 inc	 DWORD PTR _founditemcount$[ebp]

; 2572 : 					memcpy(&pbuffer[lofs], &petIteminfo, sizeof(petIteminfo));
; 2573 : 					lofs +=sizeof(petIteminfo);

  0008f	83 85 f0 fb ff
	ff 08		 add	 DWORD PTR _lofs$[ebp], 8
  00096	88 8d d0 fb ff
	ff		 mov	 BYTE PTR _petIteminfo$[ebp], cl
  0009c	8b 95 d0 fb ff
	ff		 mov	 edx, DWORD PTR _petIteminfo$[ebp]
  000a2	89 17		 mov	 DWORD PTR [edi], edx
  000a4	89 47 04	 mov	 DWORD PTR [edi+4], eax
  000a7	83 c7 08	 add	 edi, 8
$LN14@gObjReques:

; 2562 : 	{
; 2563 : 		for ( int n=0;n<INVENTORY_SIZE;n++)

  000aa	ff 85 f8 fb ff
	ff		 inc	 DWORD PTR _n$158832[ebp]
  000b0	81 c3 a8 00 00
	00		 add	 ebx, 168		; 000000a8H
  000b6	81 fb e0 46 00
	00		 cmp	 ebx, 18144		; 000046e0H
  000bc	7c 92		 jl	 SHORT $LL15@gObjReques

; 2574 : 				}
; 2575 : 			}
; 2576 : 		}
; 2577 : 	}
; 2578 : 	else if ( inventype == 1 )

  000be	e9 8b 00 00 00	 jmp	 $LN5@gObjReques
$LN16@gObjReques:
  000c3	83 f8 01	 cmp	 eax, 1
  000c6	0f 85 28 01 00
	00		 jne	 $LN1@gObjReques

; 2579 : 	{
; 2580 : 		for ( int n=0;n<WAREHOUSE_SIZE;n++)

  000cc	89 9d f8 fb ff
	ff		 mov	 DWORD PTR _n$158841[ebp], ebx
  000d2	8d bd 10 fc ff
	ff		 lea	 edi, DWORD PTR _pbuffer$[ebp+20]
  000d8	eb 06 8d 9b 00
	00 00 00	 npad	 8
$LL7@gObjReques:

; 2581 : 		{
; 2582 : 			if ( lpObj->pWarehouse[n].IsItem() )

  000e0	8b 8e c4 0c 00
	00		 mov	 ecx, DWORD PTR [esi+3268]
  000e6	03 cb		 add	 ecx, ebx
  000e8	e8 00 00 00 00	 call	 ?IsItem@CItem@@QAEHXZ	; CItem::IsItem
  000ed	85 c0		 test	 eax, eax
  000ef	74 49		 je	 SHORT $LN6@gObjReques

; 2583 : 			{
; 2584 : 				if ( lpObj->pWarehouse[n].m_Type == ITEMGET(13,4) || lpObj->pWarehouse[n].m_Type == ITEMGET(13,5) )

  000f1	8b 86 c4 0c 00
	00		 mov	 eax, DWORD PTR [esi+3268]
  000f7	0f b7 4c 18 06	 movzx	 ecx, WORD PTR [eax+ebx+6]
  000fc	ba 04 1a 00 00	 mov	 edx, 6660		; 00001a04H
  00101	66 3b ca	 cmp	 cx, dx
  00104	74 0a		 je	 SHORT $LN2@gObjReques
  00106	ba 05 1a 00 00	 mov	 edx, 6661		; 00001a05H
  0010b	66 3b ca	 cmp	 cx, dx
  0010e	75 2a		 jne	 SHORT $LN6@gObjReques
$LN2@gObjReques:

; 2585 : 				{
; 2586 : 					founditemcount++;
; 2587 : 					petIteminfo.nPos = n;

  00110	8a 8d f8 fb ff
	ff		 mov	 cl, BYTE PTR _n$158841[ebp]

; 2588 : 					petIteminfo.nSerial = lpObj->pWarehouse[n].m_Number;

  00116	8b 04 18	 mov	 eax, DWORD PTR [eax+ebx]
  00119	ff 85 f4 fb ff
	ff		 inc	 DWORD PTR _founditemcount$[ebp]

; 2589 : 					memcpy(&pbuffer[lofs], &petIteminfo, sizeof(petIteminfo));
; 2590 : 					lofs +=sizeof(petIteminfo);

  0011f	83 85 f0 fb ff
	ff 08		 add	 DWORD PTR _lofs$[ebp], 8
  00126	88 8d d0 fb ff
	ff		 mov	 BYTE PTR _petIteminfo$[ebp], cl
  0012c	8b 95 d0 fb ff
	ff		 mov	 edx, DWORD PTR _petIteminfo$[ebp]
  00132	89 17		 mov	 DWORD PTR [edi], edx
  00134	89 47 04	 mov	 DWORD PTR [edi+4], eax
  00137	83 c7 08	 add	 edi, 8
$LN6@gObjReques:

; 2579 : 	{
; 2580 : 		for ( int n=0;n<WAREHOUSE_SIZE;n++)

  0013a	ff 85 f8 fb ff
	ff		 inc	 DWORD PTR _n$158841[ebp]
  00140	81 c3 a8 00 00
	00		 add	 ebx, 168		; 000000a8H
  00146	81 fb c0 4e 00
	00		 cmp	 ebx, 20160		; 00004ec0H
  0014c	7c 92		 jl	 SHORT $LL7@gObjReques
$LN5@gObjReques:

; 2591 : 				}
; 2592 : 			}
; 2593 : 		}
; 2594 : 	}
; 2595 : 	
; 2596 : 	if ( founditemcount )

  0014e	8b 95 f4 fb ff
	ff		 mov	 edx, DWORD PTR _founditemcount$[ebp]
  00154	85 d2		 test	 edx, edx
  00156	0f 84 98 00 00
	00		 je	 $LN1@gObjReques

; 2597 : 	{
; 2598 : 		SDHP_REQUEST_PETITEM_INFO pMsg;
; 2599 : 
; 2600 : 		pMsg.h.set((LPBYTE)&pMsg, 0x56, lofs + sizeof(pMsg));

  0015c	8b 85 f0 fb ff
	ff		 mov	 eax, DWORD PTR _lofs$[ebp]

; 2601 : 		memcpy(pMsg.AccountID, lpObj->AccountID, MAX_ACCOUNT_LEN);

  00162	8b 7e 68	 mov	 edi, DWORD PTR [esi+104]

; 2602 : 		pMsg.Number = aIndex;
; 2603 : 		pMsg.InvenType = inventype;

  00165	8a 5d 0c	 mov	 bl, BYTE PTR _inventype$[ebp]
  00168	83 c0 14	 add	 eax, 20			; 00000014H
  0016b	8b c8		 mov	 ecx, eax
  0016d	c1 e9 08	 shr	 ecx, 8
  00170	88 8d dd fb ff
	ff		 mov	 BYTE PTR _pMsg$158849[ebp+1], cl
  00176	8b 4e 64	 mov	 ecx, DWORD PTR [esi+100]
  00179	0f b7 76 6c	 movzx	 esi, WORD PTR [esi+108]
  0017d	66 89 b5 e8 fb
	ff ff		 mov	 WORD PTR _pMsg$158849[ebp+12], si
  00184	0f b7 b5 d8 fb
	ff ff		 movzx	 esi, WORD PTR _aIndex$GSCopy$[ebp]
  0018b	88 85 de fb ff
	ff		 mov	 BYTE PTR _pMsg$158849[ebp+2], al

; 2604 : 		pMsg.nCount = founditemcount;

  00191	88 95 ef fb ff
	ff		 mov	 BYTE PTR _pMsg$158849[ebp+19], dl

; 2605 : 		memcpy(pbuffer, &pMsg, sizeof(pMsg));

  00197	89 8d 00 fc ff
	ff		 mov	 DWORD PTR _pbuffer$[ebp+4], ecx
  0019d	8b 8d e8 fb ff
	ff		 mov	 ecx, DWORD PTR _pMsg$158849[ebp+12]
  001a3	c6 85 dc fb ff
	ff c2		 mov	 BYTE PTR _pMsg$158849[ebp], 194 ; 000000c2H
  001aa	c6 85 df fb ff
	ff 56		 mov	 BYTE PTR _pMsg$158849[ebp+3], 86 ; 00000056H
  001b1	8b 95 dc fb ff
	ff		 mov	 edx, DWORD PTR _pMsg$158849[ebp]

; 2606 : 
; 2607 : 		cDBSMng.Send((PCHAR)pbuffer, lofs+sizeof(pMsg));

  001b7	50		 push	 eax
  001b8	89 95 fc fb ff
	ff		 mov	 DWORD PTR _pbuffer$[ebp], edx
  001be	8d 85 fc fb ff
	ff		 lea	 eax, DWORD PTR _pbuffer$[ebp]
  001c4	66 89 b5 ec fb
	ff ff		 mov	 WORD PTR _pMsg$158849[ebp+16], si
  001cb	88 9d ee fb ff
	ff		 mov	 BYTE PTR _pMsg$158849[ebp+18], bl
  001d1	8b 95 ec fb ff
	ff		 mov	 edx, DWORD PTR _pMsg$158849[ebp+16]
  001d7	89 8d 08 fc ff
	ff		 mov	 DWORD PTR _pbuffer$[ebp+12], ecx
  001dd	50		 push	 eax
  001de	b9 00 00 00 00	 mov	 ecx, OFFSET ?cDBSMng@@3VDBSockMng@@A ; cDBSMng
  001e3	89 bd 04 fc ff
	ff		 mov	 DWORD PTR _pbuffer$[ebp+8], edi
  001e9	89 95 0c fc ff
	ff		 mov	 DWORD PTR _pbuffer$[ebp+16], edx
  001ef	e8 00 00 00 00	 call	 ?Send@DBSockMng@@QAEHPADH@Z ; DBSockMng::Send
$LN1@gObjReques:

; 2608 : 	}
; 2609 : }

  001f4	8b 4d fc	 mov	 ecx, DWORD PTR __$ArrayPad$[ebp]
  001f7	5f		 pop	 edi
  001f8	5e		 pop	 esi
  001f9	33 cd		 xor	 ecx, ebp
  001fb	5b		 pop	 ebx
  001fc	e8 00 00 00 00	 call	 @__security_check_cookie@4
  00201	8b e5		 mov	 esp, ebp
  00203	5d		 pop	 ebp
  00204	c3		 ret	 0
?gObjRequestPetItemInfo@@YAXHH@Z ENDP			; gObjRequestPetItemInfo
_TEXT	ENDS
PUBLIC	??_C@_0CP@HLCJJJIG@?$FL?$CFs?$FN?$FL?$CFs?$FN?$FLPW?$FN?$FL?$CFd?0?$CFs?$FNserial?3?$FL?$CFd?$FN?5L@ ; `string'
PUBLIC	??_C@_0DA@JOMECFJE@?$FL?$CFs?$FN?$FL?$CFs?$FN?$FLPI?$FN?$FL?$CFd?0?$CFs?$FN?5Serial?3?$FL?$CFd?$FN?5@ ; `string'
PUBLIC	__$ArrayPad$
PUBLIC	?gObjSavePetItemInfo@@YAXHH@Z			; gObjSavePetItemInfo
;	COMDAT ??_C@_0CP@HLCJJJIG@?$FL?$CFs?$FN?$FL?$CFs?$FN?$FLPW?$FN?$FL?$CFd?0?$CFs?$FNserial?3?$FL?$CFd?$FN?5L@
; File c:\users\faelhs\mu-1.1\emu - gameserver sapphire s0\include\prodef.h
CONST	SEGMENT
??_C@_0CP@HLCJJJIG@?$FL?$CFs?$FN?$FL?$CFs?$FN?$FLPW?$FN?$FL?$CFd?0?$CFs?$FNserial?3?$FL?$CFd?$FN?5L@ DB '['
	DB	'%s][%s][PW][%d,%s]serial:[%d] Level:%d Exp:%d', 00H ; `string'
CONST	ENDS
;	COMDAT ??_C@_0DA@JOMECFJE@?$FL?$CFs?$FN?$FL?$CFs?$FN?$FLPI?$FN?$FL?$CFd?0?$CFs?$FN?5Serial?3?$FL?$CFd?$FN?5@
CONST	SEGMENT
??_C@_0DA@JOMECFJE@?$FL?$CFs?$FN?$FL?$CFs?$FN?$FLPI?$FN?$FL?$CFd?0?$CFs?$FN?5Serial?3?$FL?$CFd?$FN?5@ DB '['
	DB	'%s][%s][PI][%d,%s] Serial:[%d] Level:%d Exp:%d', 00H ; `string'
; Function compile flags: /Ogtp
; File c:\users\faelhs\mu-1.1\emu - gameserver sapphire s0\gameserver\dsprotocol.cpp
CONST	ENDS
;	COMDAT ?gObjSavePetItemInfo@@YAXHH@Z
_TEXT	SEGMENT
_petIteminfo$ = -2088					; size = 12
tv322 = -2076						; size = 4
_lofs$ = -2072						; size = 4
_founditemcount$ = -2068				; size = 4
_n$158946 = -2064					; size = 4
_n$158935 = -2064					; size = 4
tv473 = -2060						; size = 4
tv425 = -2060						; size = 4
_pMsg$158956 = -2060					; size = 5
_szbuffer$ = -2052					; size = 2048
__$ArrayPad$ = -4					; size = 4
_aIndex$ = 8						; size = 4
_inventype$ = 12					; size = 4
?gObjSavePetItemInfo@@YAXHH@Z PROC			; gObjSavePetItemInfo, COMDAT

; 2710 : {

  00000	55		 push	 ebp
  00001	8b ec		 mov	 ebp, esp
  00003	81 ec 28 08 00
	00		 sub	 esp, 2088		; 00000828H
  00009	a1 00 00 00 00	 mov	 eax, DWORD PTR ___security_cookie
  0000e	33 c5		 xor	 eax, ebp
  00010	89 45 fc	 mov	 DWORD PTR __$ArrayPad$[ebp], eax

; 2711 : 	char szbuffer[2048];
; 2712 : 	// ---
; 2713 : 	int lofs			= sizeof(SDHP_SAVE_PETITEM_INFO);
; 2714 : 	int founditemcount	= 0;
; 2715 : 	// ---
; 2716 : 	Save_PetItem_Info petIteminfo;
; 2717 : 	// ---
; 2718 : 	if(inventype == 0)

  00013	8b 45 0c	 mov	 eax, DWORD PTR _inventype$[ebp]
  00016	53		 push	 ebx
  00017	33 c9		 xor	 ecx, ecx
  00019	56		 push	 esi
  0001a	57		 push	 edi
  0001b	8b 7d 08	 mov	 edi, DWORD PTR _aIndex$[ebp]
  0001e	c7 85 e8 f7 ff
	ff 05 00 00 00	 mov	 DWORD PTR _lofs$[ebp], 5
  00028	89 8d ec f7 ff
	ff		 mov	 DWORD PTR _founditemcount$[ebp], ecx
  0002e	3b c1		 cmp	 eax, ecx
  00030	0f 85 00 01 00
	00		 jne	 $LN18@gObjSavePe

; 2719 : 	{
; 2720 : 		for(int n = 0; n < INVENTORY_SIZE; n++)

  00036	69 ff 64 15 00
	00		 imul	 edi, 5476		; 00001564H
  0003c	33 db		 xor	 ebx, ebx
  0003e	89 8d f0 f7 ff
	ff		 mov	 DWORD PTR _n$158935[ebp], ecx
  00044	89 bd e4 f7 ff
	ff		 mov	 DWORD PTR tv322[ebp], edi
  0004a	8d b5 01 f8 ff
	ff		 lea	 esi, DWORD PTR _szbuffer$[ebp+5]
  00050	89 9d f4 f7 ff
	ff		 mov	 DWORD PTR tv425[ebp], ebx
  00056	eb 08 8d a4 24
	00 00 00 00 90	 npad	 10
$LL17@gObjSavePe:

; 2721 : 		{
; 2722 : 			if(gObj[aIndex].pInventory[n].IsItem())

  00060	8b 8f 8c 0c 00
	00		 mov	 ecx, DWORD PTR ?gObj@@3PAUOBJECTSTRUCT@@A[edi+3212]
  00066	03 cb		 add	 ecx, ebx
  00068	e8 00 00 00 00	 call	 ?IsItem@CItem@@QAEHXZ	; CItem::IsItem
  0006d	85 c0		 test	 eax, eax
  0006f	0f 84 9e 00 00
	00		 je	 $LN16@gObjSavePe

; 2723 : 			{
; 2724 : 				if(gObj[aIndex].pInventory[n].m_Type == ITEMGET(13,4) || gObj[aIndex].pInventory[n].m_Type == ITEMGET(13,5))

  00075	8b 8f 8c 0c 00
	00		 mov	 ecx, DWORD PTR ?gObj@@3PAUOBJECTSTRUCT@@A[edi+3212]
  0007b	0f b7 44 19 06	 movzx	 eax, WORD PTR [ecx+ebx+6]
  00080	03 cb		 add	 ecx, ebx
  00082	ba 04 1a 00 00	 mov	 edx, 6660		; 00001a04H
  00087	66 3b c2	 cmp	 ax, dx
  0008a	74 0a		 je	 SHORT $LN12@gObjSavePe
  0008c	ba 05 1a 00 00	 mov	 edx, 6661		; 00001a05H
  00091	66 3b c2	 cmp	 ax, dx
  00094	75 7d		 jne	 SHORT $LN16@gObjSavePe
$LN12@gObjSavePe:

; 2725 : 				{
; 2726 : 					if(gObj[aIndex].pInventory[n].m_IsLoadPetItemInfo != FALSE)

  00096	83 b9 9c 00 00
	00 00		 cmp	 DWORD PTR [ecx+156], 0
  0009d	74 74		 je	 SHORT $LN16@gObjSavePe

; 2727 : 					{
; 2728 : 						founditemcount++;
; 2729 : 						// ---
; 2730 : 						petIteminfo.nSerial		= gObj[aIndex].pInventory[n].m_Number;
; 2731 : 						petIteminfo.Level		= gObj[aIndex].pInventory[n].m_PetItem_Level;

  0009f	8a 81 a0 00 00
	00		 mov	 al, BYTE PTR [ecx+160]

; 2732 : 						petIteminfo.Exp			= gObj[aIndex].pInventory[n].m_PetItem_Exp;

  000a5	8b 99 a4 00 00
	00		 mov	 ebx, DWORD PTR [ecx+164]
  000ab	8b 39		 mov	 edi, DWORD PTR [ecx]
  000ad	ff 85 ec f7 ff
	ff		 inc	 DWORD PTR _founditemcount$[ebp]
  000b3	88 85 dc f7 ff
	ff		 mov	 BYTE PTR _petIteminfo$[ebp+4], al

; 2733 : 						// ---
; 2734 : 						LogAdd(LOG_BLACK, "[%s][%s][PI][%d,%s] Serial:[%d] Level:%d Exp:%d", 
; 2735 : 							gObj[aIndex].AccountID, 
; 2736 : 							gObj[aIndex].Name, 
; 2737 : 							n, 
; 2738 : 							gObj[aIndex].pInventory[n].GetName(),
; 2739 : 							petIteminfo.nSerial,
; 2740 : 							petIteminfo.Level, 
; 2741 : 							petIteminfo.Exp);

  000b9	0f b6 c0	 movzx	 eax, al
  000bc	53		 push	 ebx
  000bd	50		 push	 eax
  000be	57		 push	 edi
  000bf	e8 00 00 00 00	 call	 ?GetName@CItem@@QAEPADXZ ; CItem::GetName
  000c4	8b 8d f0 f7 ff
	ff		 mov	 ecx, DWORD PTR _n$158935[ebp]
  000ca	50		 push	 eax
  000cb	8b 85 e4 f7 ff
	ff		 mov	 eax, DWORD PTR tv322[ebp]
  000d1	51		 push	 ecx
  000d2	8d 90 6f 00 00
	00		 lea	 edx, DWORD PTR ?gObj@@3PAUOBJECTSTRUCT@@A[eax+111]
  000d8	52		 push	 edx
  000d9	8d 80 64 00 00
	00		 lea	 eax, DWORD PTR ?gObj@@3PAUOBJECTSTRUCT@@A[eax+100]
  000df	50		 push	 eax
  000e0	68 00 00 00 00	 push	 OFFSET ??_C@_0DA@JOMECFJE@?$FL?$CFs?$FN?$FL?$CFs?$FN?$FLPI?$FN?$FL?$CFd?0?$CFs?$FN?5Serial?3?$FL?$CFd?$FN?5@
  000e5	6a 00		 push	 0
  000e7	e8 00 00 00 00	 call	 ?LogAdd@@YAXW4eLogColor@@PADZZ ; LogAdd

; 2742 : 						// ---
; 2743 : 						memcpy(&szbuffer[lofs], &petIteminfo, sizeof(petIteminfo));

  000ec	8b 8d dc f7 ff
	ff		 mov	 ecx, DWORD PTR _petIteminfo$[ebp+4]

; 2744 : 						// ---
; 2745 : 						lofs += sizeof(petIteminfo);

  000f2	83 85 e8 f7 ff
	ff 0c		 add	 DWORD PTR _lofs$[ebp], 12 ; 0000000cH
  000f9	89 3e		 mov	 DWORD PTR [esi], edi
  000fb	8b bd e4 f7 ff
	ff		 mov	 edi, DWORD PTR tv322[ebp]
  00101	89 4e 04	 mov	 DWORD PTR [esi+4], ecx
  00104	89 5e 08	 mov	 DWORD PTR [esi+8], ebx
  00107	8b 9d f4 f7 ff
	ff		 mov	 ebx, DWORD PTR tv425[ebp]
  0010d	83 c4 24	 add	 esp, 36			; 00000024H
  00110	83 c6 0c	 add	 esi, 12			; 0000000cH
$LN16@gObjSavePe:

; 2719 : 	{
; 2720 : 		for(int n = 0; n < INVENTORY_SIZE; n++)

  00113	ff 85 f0 f7 ff
	ff		 inc	 DWORD PTR _n$158935[ebp]
  00119	81 c3 a8 00 00
	00		 add	 ebx, 168		; 000000a8H
  0011f	89 9d f4 f7 ff
	ff		 mov	 DWORD PTR tv425[ebp], ebx
  00125	81 fb e0 46 00
	00		 cmp	 ebx, 18144		; 000046e0H
  0012b	0f 8c 2f ff ff
	ff		 jl	 $LL17@gObjSavePe

; 2746 : 					}
; 2747 : 				}
; 2748 : 			}
; 2749 : 		}
; 2750 : 	}
; 2751 : 	else if(inventype == 1)

  00131	e9 fd 00 00 00	 jmp	 $LN6@gObjSavePe
$LN18@gObjSavePe:
  00136	83 f8 01	 cmp	 eax, 1
  00139	0f 85 4a 01 00
	00		 jne	 $LN1@gObjSavePe

; 2752 : 	{
; 2753 : 		for(int n = 0; n < WAREHOUSE_SIZE; n++)

  0013f	8b df		 mov	 ebx, edi
  00141	69 db 64 15 00
	00		 imul	 ebx, 5476		; 00001564H
  00147	33 ff		 xor	 edi, edi
  00149	89 8d f0 f7 ff
	ff		 mov	 DWORD PTR _n$158946[ebp], ecx
  0014f	89 9d e4 f7 ff
	ff		 mov	 DWORD PTR tv322[ebp], ebx
  00155	8d b5 01 f8 ff
	ff		 lea	 esi, DWORD PTR _szbuffer$[ebp+5]
  0015b	89 bd f4 f7 ff
	ff		 mov	 DWORD PTR tv473[ebp], edi
$LL8@gObjSavePe:

; 2754 : 		{
; 2755 : 			if(gObj[aIndex].pWarehouse[n].IsItem() )

  00161	8b 8b c4 0c 00
	00		 mov	 ecx, DWORD PTR ?gObj@@3PAUOBJECTSTRUCT@@A[ebx+3268]
  00167	03 cf		 add	 ecx, edi
  00169	e8 00 00 00 00	 call	 ?IsItem@CItem@@QAEHXZ	; CItem::IsItem
  0016e	85 c0		 test	 eax, eax
  00170	0f 84 9f 00 00
	00		 je	 $LN7@gObjSavePe

; 2756 : 			{
; 2757 : 				if(gObj[aIndex].pWarehouse[n].m_Type == ITEMGET(13,4) || gObj[aIndex].pWarehouse[n].m_Type == ITEMGET(13,5))

  00176	8b 93 c4 0c 00
	00		 mov	 edx, DWORD PTR ?gObj@@3PAUOBJECTSTRUCT@@A[ebx+3268]
  0017c	0f b7 44 17 06	 movzx	 eax, WORD PTR [edi+edx+6]
  00181	8d 0c 17	 lea	 ecx, DWORD PTR [edi+edx]
  00184	ba 04 1a 00 00	 mov	 edx, 6660		; 00001a04H
  00189	66 3b c2	 cmp	 ax, dx
  0018c	74 0a		 je	 SHORT $LN3@gObjSavePe
  0018e	ba 05 1a 00 00	 mov	 edx, 6661		; 00001a05H
  00193	66 3b c2	 cmp	 ax, dx
  00196	75 7d		 jne	 SHORT $LN7@gObjSavePe
$LN3@gObjSavePe:

; 2758 : 				{
; 2759 : 					if(gObj[aIndex].pWarehouse[n].m_IsLoadPetItemInfo != FALSE)

  00198	83 b9 9c 00 00
	00 00		 cmp	 DWORD PTR [ecx+156], 0
  0019f	74 74		 je	 SHORT $LN7@gObjSavePe

; 2760 : 					{
; 2761 : 						founditemcount++;
; 2762 : 						// ---
; 2763 : 						petIteminfo.nSerial		= gObj[aIndex].pWarehouse[n].m_Number;
; 2764 : 						petIteminfo.Level		= gObj[aIndex].pWarehouse[n].m_PetItem_Level;

  001a1	8a 81 a0 00 00
	00		 mov	 al, BYTE PTR [ecx+160]

; 2765 : 						petIteminfo.Exp			= gObj[aIndex].pWarehouse[n].m_PetItem_Exp;

  001a7	8b 99 a4 00 00
	00		 mov	 ebx, DWORD PTR [ecx+164]
  001ad	8b 39		 mov	 edi, DWORD PTR [ecx]
  001af	ff 85 ec f7 ff
	ff		 inc	 DWORD PTR _founditemcount$[ebp]
  001b5	88 85 dc f7 ff
	ff		 mov	 BYTE PTR _petIteminfo$[ebp+4], al

; 2766 : 						// ---
; 2767 : 						LogAdd(LOG_BLACK, "[%s][%s][PW][%d,%s]serial:[%d] Level:%d Exp:%d",
; 2768 : 							gObj[aIndex].AccountID, 
; 2769 : 							gObj[aIndex].Name, 
; 2770 : 							n, 
; 2771 : 							gObj[aIndex].pWarehouse[n].GetName(),
; 2772 : 							petIteminfo.nSerial,
; 2773 : 							petIteminfo.Level, 
; 2774 : 							petIteminfo.Exp);

  001bb	0f b6 c0	 movzx	 eax, al
  001be	53		 push	 ebx
  001bf	50		 push	 eax
  001c0	57		 push	 edi
  001c1	e8 00 00 00 00	 call	 ?GetName@CItem@@QAEPADXZ ; CItem::GetName
  001c6	8b 8d f0 f7 ff
	ff		 mov	 ecx, DWORD PTR _n$158946[ebp]
  001cc	50		 push	 eax
  001cd	8b 85 e4 f7 ff
	ff		 mov	 eax, DWORD PTR tv322[ebp]
  001d3	51		 push	 ecx
  001d4	8d 90 6f 00 00
	00		 lea	 edx, DWORD PTR ?gObj@@3PAUOBJECTSTRUCT@@A[eax+111]
  001da	52		 push	 edx
  001db	8d 80 64 00 00
	00		 lea	 eax, DWORD PTR ?gObj@@3PAUOBJECTSTRUCT@@A[eax+100]
  001e1	50		 push	 eax
  001e2	68 00 00 00 00	 push	 OFFSET ??_C@_0CP@HLCJJJIG@?$FL?$CFs?$FN?$FL?$CFs?$FN?$FLPW?$FN?$FL?$CFd?0?$CFs?$FNserial?3?$FL?$CFd?$FN?5L@
  001e7	6a 00		 push	 0
  001e9	e8 00 00 00 00	 call	 ?LogAdd@@YAXW4eLogColor@@PADZZ ; LogAdd

; 2775 : 						// ---
; 2776 : 						memcpy(&szbuffer[lofs], &petIteminfo, sizeof(petIteminfo));

  001ee	8b 8d dc f7 ff
	ff		 mov	 ecx, DWORD PTR _petIteminfo$[ebp+4]

; 2777 : 						// ---
; 2778 : 						lofs += sizeof(petIteminfo);

  001f4	83 85 e8 f7 ff
	ff 0c		 add	 DWORD PTR _lofs$[ebp], 12 ; 0000000cH
  001fb	89 3e		 mov	 DWORD PTR [esi], edi
  001fd	8b bd f4 f7 ff
	ff		 mov	 edi, DWORD PTR tv473[ebp]
  00203	89 4e 04	 mov	 DWORD PTR [esi+4], ecx
  00206	89 5e 08	 mov	 DWORD PTR [esi+8], ebx
  00209	8b 9d e4 f7 ff
	ff		 mov	 ebx, DWORD PTR tv322[ebp]
  0020f	83 c4 24	 add	 esp, 36			; 00000024H
  00212	83 c6 0c	 add	 esi, 12			; 0000000cH
$LN7@gObjSavePe:

; 2752 : 	{
; 2753 : 		for(int n = 0; n < WAREHOUSE_SIZE; n++)

  00215	ff 85 f0 f7 ff
	ff		 inc	 DWORD PTR _n$158946[ebp]
  0021b	81 c7 a8 00 00
	00		 add	 edi, 168		; 000000a8H
  00221	89 bd f4 f7 ff
	ff		 mov	 DWORD PTR tv473[ebp], edi
  00227	81 ff c0 4e 00
	00		 cmp	 edi, 20160		; 00004ec0H
  0022d	0f 8c 2e ff ff
	ff		 jl	 $LL8@gObjSavePe
$LN6@gObjSavePe:

; 2779 : 					}
; 2780 : 				}
; 2781 : 			}
; 2782 : 		}
; 2783 : 	}
; 2784 : 	// ---
; 2785 : 	if(founditemcount)

  00233	8b 8d ec f7 ff
	ff		 mov	 ecx, DWORD PTR _founditemcount$[ebp]
  00239	85 c9		 test	 ecx, ecx
  0023b	74 4c		 je	 SHORT $LN1@gObjSavePe

; 2786 : 	{
; 2787 : 		SDHP_SAVE_PETITEM_INFO pMsg;
; 2788 : 		// ---
; 2789 : 		pMsg.h.set((LPBYTE)&pMsg, 0x57, lofs+sizeof(pMsg));

  0023d	8b 85 e8 f7 ff
	ff		 mov	 eax, DWORD PTR _lofs$[ebp]
  00243	83 c0 05	 add	 eax, 5
  00246	8b d0		 mov	 edx, eax
  00248	c1 ea 08	 shr	 edx, 8
  0024b	88 85 f6 f7 ff
	ff		 mov	 BYTE PTR _pMsg$158956[ebp+2], al

; 2790 : 		// ---
; 2791 : 		pMsg.nCount		= founditemcount;
; 2792 : 		// ---
; 2793 : 		memcpy(szbuffer, &pMsg, sizeof(pMsg));
; 2794 : 		// ---
; 2795 : 		cDBSMng.Send(szbuffer, lofs+sizeof(pMsg));

  00251	50		 push	 eax
  00252	88 95 f5 f7 ff
	ff		 mov	 BYTE PTR _pMsg$158956[ebp+1], dl
  00258	8d 85 fc f7 ff
	ff		 lea	 eax, DWORD PTR _szbuffer$[ebp]
  0025e	c6 85 f4 f7 ff
	ff c2		 mov	 BYTE PTR _pMsg$158956[ebp], 194 ; 000000c2H
  00265	c6 85 f7 f7 ff
	ff 57		 mov	 BYTE PTR _pMsg$158956[ebp+3], 87 ; 00000057H
  0026c	8b 95 f4 f7 ff
	ff		 mov	 edx, DWORD PTR _pMsg$158956[ebp]
  00272	88 8d 00 f8 ff
	ff		 mov	 BYTE PTR _szbuffer$[ebp+4], cl
  00278	50		 push	 eax
  00279	b9 00 00 00 00	 mov	 ecx, OFFSET ?cDBSMng@@3VDBSockMng@@A ; cDBSMng
  0027e	89 95 fc f7 ff
	ff		 mov	 DWORD PTR _szbuffer$[ebp], edx
  00284	e8 00 00 00 00	 call	 ?Send@DBSockMng@@QAEHPADH@Z ; DBSockMng::Send
$LN1@gObjSavePe:

; 2796 : 	}
; 2797 : }

  00289	8b 4d fc	 mov	 ecx, DWORD PTR __$ArrayPad$[ebp]
  0028c	5f		 pop	 edi
  0028d	5e		 pop	 esi
  0028e	33 cd		 xor	 ecx, ebp
  00290	5b		 pop	 ebx
  00291	e8 00 00 00 00	 call	 @__security_check_cookie@4
  00296	8b e5		 mov	 esp, ebp
  00298	5d		 pop	 ebp
  00299	c3		 ret	 0
?gObjSavePetItemInfo@@YAXHH@Z ENDP			; gObjSavePetItemInfo
_TEXT	ENDS
PUBLIC	__$ArrayPad$
PUBLIC	?GS_GDReqCastleTotalInfo@@YAXHH@Z		; GS_GDReqCastleTotalInfo
; Function compile flags: /Ogtp
;	COMDAT ?GS_GDReqCastleTotalInfo@@YAXHH@Z
_TEXT	SEGMENT
_pMsg$ = -16						; size = 12
__$ArrayPad$ = -4					; size = 4
_iMapSvrGroup$ = 8					; size = 4
_iCastleEventCycle$ = 12				; size = 4
?GS_GDReqCastleTotalInfo@@YAXHH@Z PROC			; GS_GDReqCastleTotalInfo, COMDAT

; 2814 : {

  00000	55		 push	 ebp
  00001	8b ec		 mov	 ebp, esp
  00003	83 ec 10	 sub	 esp, 16			; 00000010H
  00006	a1 00 00 00 00	 mov	 eax, DWORD PTR ___security_cookie
  0000b	33 c5		 xor	 eax, ebp
  0000d	89 45 fc	 mov	 DWORD PTR __$ArrayPad$[ebp], eax

; 2815 : 	if ( iMapSvrGroup < 0 )

  00010	8b 45 08	 mov	 eax, DWORD PTR _iMapSvrGroup$[ebp]
  00013	85 c0		 test	 eax, eax
  00015	78 21		 js	 SHORT $LN2@GS_GDReqCa

; 2816 : 	{
; 2817 : 		return;
; 2818 : 	}
; 2819 : 
; 2820 : 	CSP_REQ_CASTLEDATA pMsg;
; 2821 : 
; 2822 : 	pMsg.h.set((LPBYTE)&pMsg, 0x80, 0x00, sizeof(CSP_REQ_CASTLEDATA));
; 2823 : 	pMsg.wMapSvrNum = iMapSvrGroup;
; 2824 : 	pMsg.iCastleEventCycle = iCastleEventCycle;
; 2825 : 
; 2826 : 	::cDBSMng.Send((char*)&pMsg, pMsg.h.size);

  00017	6a 0c		 push	 12			; 0000000cH
  00019	8d 4d f0	 lea	 ecx, DWORD PTR _pMsg$[ebp]
  0001c	66 89 45 f4	 mov	 WORD PTR _pMsg$[ebp+4], ax
  00020	8b 45 0c	 mov	 eax, DWORD PTR _iCastleEventCycle$[ebp]
  00023	51		 push	 ecx
  00024	b9 00 00 00 00	 mov	 ecx, OFFSET ?cDBSMng@@3VDBSockMng@@A ; cDBSMng
  00029	c7 45 f0 c1 0c
	80 00		 mov	 DWORD PTR _pMsg$[ebp], 8391873 ; 00800cc1H
  00030	89 45 f8	 mov	 DWORD PTR _pMsg$[ebp+8], eax
  00033	e8 00 00 00 00	 call	 ?Send@DBSockMng@@QAEHPADH@Z ; DBSockMng::Send
$LN2@GS_GDReqCa:

; 2827 : }

  00038	8b 4d fc	 mov	 ecx, DWORD PTR __$ArrayPad$[ebp]
  0003b	33 cd		 xor	 ecx, ebp
  0003d	e8 00 00 00 00	 call	 @__security_check_cookie@4
  00042	8b e5		 mov	 esp, ebp
  00044	5d		 pop	 ebp
  00045	c3		 ret	 0
?GS_GDReqCastleTotalInfo@@YAXHH@Z ENDP			; GS_GDReqCastleTotalInfo
_TEXT	ENDS
PUBLIC	__$ArrayPad$
PUBLIC	?GS_GDReqOwnerGuildMaster@@YAXHH@Z		; GS_GDReqOwnerGuildMaster
; Function compile flags: /Ogtp
;	COMDAT ?GS_GDReqOwnerGuildMaster@@YAXHH@Z
_TEXT	SEGMENT
_pMsg$ = -16						; size = 12
__$ArrayPad$ = -4					; size = 4
_iMapSvrGroup$ = 8					; size = 4
_aIndex$ = 12						; size = 4
?GS_GDReqOwnerGuildMaster@@YAXHH@Z PROC			; GS_GDReqOwnerGuildMaster, COMDAT

; 2845 : {

  00000	55		 push	 ebp
  00001	8b ec		 mov	 ebp, esp
  00003	83 ec 10	 sub	 esp, 16			; 00000010H
  00006	a1 00 00 00 00	 mov	 eax, DWORD PTR ___security_cookie
  0000b	33 c5		 xor	 eax, ebp
  0000d	89 45 fc	 mov	 DWORD PTR __$ArrayPad$[ebp], eax

; 2846 : 	if ( iMapSvrGroup < 0 )

  00010	8b 55 08	 mov	 edx, DWORD PTR _iMapSvrGroup$[ebp]
  00013	85 d2		 test	 edx, edx
  00015	78 33		 js	 SHORT $LN3@GS_GDReqOw

; 2847 : 	{
; 2848 : 		return;
; 2849 : 	}
; 2850 : 
; 2851 : 	if ( OBJMAX_RANGE(aIndex) == FALSE )

  00017	8b 45 0c	 mov	 eax, DWORD PTR _aIndex$[ebp]
  0001a	85 c0		 test	 eax, eax
  0001c	78 2c		 js	 SHORT $LN3@GS_GDReqOw
  0001e	33 c9		 xor	 ecx, ecx
  00020	3d e7 1c 00 00	 cmp	 eax, 7399		; 00001ce7H
  00025	0f 9e c1	 setle	 cl
  00028	85 c9		 test	 ecx, ecx
  0002a	74 1e		 je	 SHORT $LN3@GS_GDReqOw

; 2852 : 	{
; 2853 : 		return;
; 2854 : 	}
; 2855 : 
; 2856 : 
; 2857 : 	CSP_REQ_OWNERGUILDMASTER pMsg;
; 2858 : 
; 2859 : 	pMsg.h.set((LPBYTE)&pMsg, 0x80, 0x01, sizeof(CSP_REQ_OWNERGUILDMASTER));
; 2860 : 	pMsg.wMapSvrNum = iMapSvrGroup;
; 2861 : 	pMsg.iIndex = aIndex;

  0002c	89 45 f8	 mov	 DWORD PTR _pMsg$[ebp+8], eax

; 2862 : 
; 2863 : 	cDBSMng.Send((char*)&pMsg, pMsg.h.size);

  0002f	6a 0c		 push	 12			; 0000000cH
  00031	8d 45 f0	 lea	 eax, DWORD PTR _pMsg$[ebp]
  00034	50		 push	 eax
  00035	b9 00 00 00 00	 mov	 ecx, OFFSET ?cDBSMng@@3VDBSockMng@@A ; cDBSMng
  0003a	c7 45 f0 c1 0c
	80 01		 mov	 DWORD PTR _pMsg$[ebp], 25169089 ; 01800cc1H
  00041	66 89 55 f4	 mov	 WORD PTR _pMsg$[ebp+4], dx
  00045	e8 00 00 00 00	 call	 ?Send@DBSockMng@@QAEHPADH@Z ; DBSockMng::Send
$LN3@GS_GDReqOw:

; 2864 : }

  0004a	8b 4d fc	 mov	 ecx, DWORD PTR __$ArrayPad$[ebp]
  0004d	33 cd		 xor	 ecx, ebp
  0004f	e8 00 00 00 00	 call	 @__security_check_cookie@4
  00054	8b e5		 mov	 esp, ebp
  00056	5d		 pop	 ebp
  00057	c3		 ret	 0
?GS_GDReqOwnerGuildMaster@@YAXHH@Z ENDP			; GS_GDReqOwnerGuildMaster
_TEXT	ENDS
PUBLIC	__$ArrayPad$
PUBLIC	?GS_GDReqCastleNpcBuy@@YAXHHHHHHHHEEEH@Z	; GS_GDReqCastleNpcBuy
; Function compile flags: /Ogtp
;	COMDAT ?GS_GDReqCastleNpcBuy@@YAXHHHHHHHHEEEH@Z
_TEXT	SEGMENT
_pMsg$ = -48						; size = 44
__$ArrayPad$ = -4					; size = 4
_iMapSvrGroup$ = 8					; size = 4
_aIndex$ = 12						; size = 4
_iNpcNumber$ = 16					; size = 4
_iNpcIndex$ = 20					; size = 4
_iNpcDfLevel$ = 24					; size = 4
_iNpcRgLevel$ = 28					; size = 4
_iNpcMaxHP$ = 32					; size = 4
_iNpcHP$ = 36						; size = 4
_btNpcX$ = 40						; size = 1
_btNpcY$ = 44						; size = 1
_btNpcDIR$ = 48						; size = 1
_iBuyCost$ = 52						; size = 4
?GS_GDReqCastleNpcBuy@@YAXHHHHHHHHEEEH@Z PROC		; GS_GDReqCastleNpcBuy, COMDAT

; 2892 : {

  00000	55		 push	 ebp
  00001	8b ec		 mov	 ebp, esp
  00003	83 ec 30	 sub	 esp, 48			; 00000030H
  00006	a1 00 00 00 00	 mov	 eax, DWORD PTR ___security_cookie
  0000b	33 c5		 xor	 eax, ebp
  0000d	89 45 fc	 mov	 DWORD PTR __$ArrayPad$[ebp], eax

; 2893 : 	if ( iMapSvrGroup < 0 )

  00010	8b 55 08	 mov	 edx, DWORD PTR _iMapSvrGroup$[ebp]
  00013	85 d2		 test	 edx, edx
  00015	78 6f		 js	 SHORT $LN3@GS_GDReqCa@2

; 2894 : 	{
; 2895 : 		return;
; 2896 : 	}
; 2897 : 
; 2898 : 	if ( OBJMAX_RANGE(aIndex) == FALSE )

  00017	8b 45 0c	 mov	 eax, DWORD PTR _aIndex$[ebp]
  0001a	85 c0		 test	 eax, eax
  0001c	78 68		 js	 SHORT $LN3@GS_GDReqCa@2
  0001e	33 c9		 xor	 ecx, ecx
  00020	3d e7 1c 00 00	 cmp	 eax, 7399		; 00001ce7H
  00025	0f 9e c1	 setle	 cl
  00028	85 c9		 test	 ecx, ecx
  0002a	74 5a		 je	 SHORT $LN3@GS_GDReqCa@2

; 2899 : 	{
; 2900 : 		return;
; 2901 : 	}
; 2902 : 
; 2903 : 
; 2904 : 	CSP_REQ_NPCBUY pMsg;
; 2905 : 
; 2906 : 	pMsg.h.set((LPBYTE)&pMsg, 0x80, 0x03, sizeof(CSP_REQ_NPCBUY));
; 2907 : 	pMsg.wMapSvrNum = iMapSvrGroup;
; 2908 : 	pMsg.iIndex = aIndex;
; 2909 : 	pMsg.iNpcNumber = iNpcNumber;
; 2910 : 	pMsg.iNpcIndex = iNpcIndex;

  0002c	8b 4d 14	 mov	 ecx, DWORD PTR _iNpcIndex$[ebp]
  0002f	89 45 d8	 mov	 DWORD PTR _pMsg$[ebp+8], eax
  00032	8b 45 10	 mov	 eax, DWORD PTR _iNpcNumber$[ebp]
  00035	89 4d e0	 mov	 DWORD PTR _pMsg$[ebp+16], ecx

; 2911 : 	pMsg.iNpcDfLevel = iNpcDfLevel;
; 2912 : 	pMsg.iNpcRgLevel = iNpcRgLevel;
; 2913 : 	pMsg.iNpcMaxHp = iNpcMaxHP;

  00038	8b 4d 20	 mov	 ecx, DWORD PTR _iNpcMaxHP$[ebp]
  0003b	66 89 55 d4	 mov	 WORD PTR _pMsg$[ebp+4], dx
  0003f	8b 55 18	 mov	 edx, DWORD PTR _iNpcDfLevel$[ebp]
  00042	89 45 dc	 mov	 DWORD PTR _pMsg$[ebp+12], eax
  00045	8b 45 1c	 mov	 eax, DWORD PTR _iNpcRgLevel$[ebp]
  00048	89 4d ec	 mov	 DWORD PTR _pMsg$[ebp+28], ecx

; 2914 : 	pMsg.iNpcHp = iNpcHP;
; 2915 : 	pMsg.btNpcX = btNpcX;
; 2916 : 	pMsg.btNpcY = btNpcY;

  0004b	8a 4d 2c	 mov	 cl, BYTE PTR _btNpcY$[ebp]
  0004e	89 55 e4	 mov	 DWORD PTR _pMsg$[ebp+20], edx
  00051	8b 55 24	 mov	 edx, DWORD PTR _iNpcHP$[ebp]
  00054	89 45 e8	 mov	 DWORD PTR _pMsg$[ebp+24], eax
  00057	8a 45 28	 mov	 al, BYTE PTR _btNpcX$[ebp]
  0005a	88 4d f5	 mov	 BYTE PTR _pMsg$[ebp+37], cl

; 2917 : 	pMsg.btNpcDIR = btNpcDIR;
; 2918 : 	pMsg.iBuyCost = iBuyCost;
; 2919 : 
; 2920 : 	cDBSMng.Send((char*)&pMsg, pMsg.h.size);

  0005d	6a 2c		 push	 44			; 0000002cH
  0005f	8d 4d d0	 lea	 ecx, DWORD PTR _pMsg$[ebp]
  00062	89 55 f0	 mov	 DWORD PTR _pMsg$[ebp+32], edx
  00065	8a 55 30	 mov	 dl, BYTE PTR _btNpcDIR$[ebp]
  00068	88 45 f4	 mov	 BYTE PTR _pMsg$[ebp+36], al
  0006b	8b 45 34	 mov	 eax, DWORD PTR _iBuyCost$[ebp]
  0006e	51		 push	 ecx
  0006f	b9 00 00 00 00	 mov	 ecx, OFFSET ?cDBSMng@@3VDBSockMng@@A ; cDBSMng
  00074	c7 45 d0 c1 2c
	80 03		 mov	 DWORD PTR _pMsg$[ebp], 58731713 ; 03802cc1H
  0007b	88 55 f6	 mov	 BYTE PTR _pMsg$[ebp+38], dl
  0007e	89 45 f8	 mov	 DWORD PTR _pMsg$[ebp+40], eax
  00081	e8 00 00 00 00	 call	 ?Send@DBSockMng@@QAEHPADH@Z ; DBSockMng::Send
$LN3@GS_GDReqCa@2:

; 2921 : }

  00086	8b 4d fc	 mov	 ecx, DWORD PTR __$ArrayPad$[ebp]
  00089	33 cd		 xor	 ecx, ebp
  0008b	e8 00 00 00 00	 call	 @__security_check_cookie@4
  00090	8b e5		 mov	 esp, ebp
  00092	5d		 pop	 ebp
  00093	c3		 ret	 0
?GS_GDReqCastleNpcBuy@@YAXHHHHHHHHEEEH@Z ENDP		; GS_GDReqCastleNpcBuy
_TEXT	ENDS
PUBLIC	__$ArrayPad$
PUBLIC	?GS_GDReqCastleNpcRepair@@YAXHHHHH@Z		; GS_GDReqCastleNpcRepair
; Function compile flags: /Ogtp
;	COMDAT ?GS_GDReqCastleNpcRepair@@YAXHHHHH@Z
_TEXT	SEGMENT
_pMsg$ = -28						; size = 24
__$ArrayPad$ = -4					; size = 4
_iMapSvrGroup$ = 8					; size = 4
_aIndex$ = 12						; size = 4
_iNpcNumber$ = 16					; size = 4
_iNpcIndex$ = 20					; size = 4
_iRepairCost$ = 24					; size = 4
?GS_GDReqCastleNpcRepair@@YAXHHHHH@Z PROC		; GS_GDReqCastleNpcRepair, COMDAT

; 2944 : {

  00000	55		 push	 ebp
  00001	8b ec		 mov	 ebp, esp
  00003	83 ec 1c	 sub	 esp, 28			; 0000001cH
  00006	a1 00 00 00 00	 mov	 eax, DWORD PTR ___security_cookie
  0000b	33 c5		 xor	 eax, ebp
  0000d	89 45 fc	 mov	 DWORD PTR __$ArrayPad$[ebp], eax

; 2945 : 	if ( iMapSvrGroup < 0 )

  00010	8b 55 08	 mov	 edx, DWORD PTR _iMapSvrGroup$[ebp]
  00013	85 d2		 test	 edx, edx
  00015	78 45		 js	 SHORT $LN3@GS_GDReqCa@3

; 2946 : 	{
; 2947 : 		return;
; 2948 : 	}
; 2949 : 
; 2950 : 	if ( OBJMAX_RANGE(aIndex) == FALSE )

  00017	8b 45 0c	 mov	 eax, DWORD PTR _aIndex$[ebp]
  0001a	85 c0		 test	 eax, eax
  0001c	78 3e		 js	 SHORT $LN3@GS_GDReqCa@3
  0001e	33 c9		 xor	 ecx, ecx
  00020	3d e7 1c 00 00	 cmp	 eax, 7399		; 00001ce7H
  00025	0f 9e c1	 setle	 cl
  00028	85 c9		 test	 ecx, ecx
  0002a	74 30		 je	 SHORT $LN3@GS_GDReqCa@3

; 2951 : 	{
; 2952 : 		return;
; 2953 : 	}
; 2954 : 
; 2955 : 
; 2956 : 	CSP_REQ_NPCREPAIR pMsg;
; 2957 : 
; 2958 : 	pMsg.h.set((LPBYTE)&pMsg, 0x80, 0x04, sizeof(CSP_REQ_NPCREPAIR));
; 2959 : 	pMsg.wMapSvrNum = iMapSvrGroup;
; 2960 : 	pMsg.iIndex = aIndex;
; 2961 : 	pMsg.iNpcNumber = iNpcNumber;
; 2962 : 	pMsg.iNpcIndex = iNpcIndex;

  0002c	8b 4d 14	 mov	 ecx, DWORD PTR _iNpcIndex$[ebp]
  0002f	89 45 ec	 mov	 DWORD PTR _pMsg$[ebp+8], eax
  00032	8b 45 10	 mov	 eax, DWORD PTR _iNpcNumber$[ebp]
  00035	89 45 f0	 mov	 DWORD PTR _pMsg$[ebp+12], eax
  00038	66 89 55 e8	 mov	 WORD PTR _pMsg$[ebp+4], dx

; 2963 : 	pMsg.iRepairCost = iRepairCost;

  0003c	8b 55 18	 mov	 edx, DWORD PTR _iRepairCost$[ebp]

; 2964 : 
; 2965 : 	cDBSMng.Send((char*)&pMsg, pMsg.h.size);

  0003f	6a 18		 push	 24			; 00000018H
  00041	8d 45 e4	 lea	 eax, DWORD PTR _pMsg$[ebp]
  00044	89 4d f4	 mov	 DWORD PTR _pMsg$[ebp+16], ecx
  00047	50		 push	 eax
  00048	b9 00 00 00 00	 mov	 ecx, OFFSET ?cDBSMng@@3VDBSockMng@@A ; cDBSMng
  0004d	c7 45 e4 c1 18
	80 04		 mov	 DWORD PTR _pMsg$[ebp], 75503809 ; 048018c1H
  00054	89 55 f8	 mov	 DWORD PTR _pMsg$[ebp+20], edx
  00057	e8 00 00 00 00	 call	 ?Send@DBSockMng@@QAEHPADH@Z ; DBSockMng::Send
$LN3@GS_GDReqCa@3:

; 2966 : }

  0005c	8b 4d fc	 mov	 ecx, DWORD PTR __$ArrayPad$[ebp]
  0005f	33 cd		 xor	 ecx, ebp
  00061	e8 00 00 00 00	 call	 @__security_check_cookie@4
  00066	8b e5		 mov	 esp, ebp
  00068	5d		 pop	 ebp
  00069	c3		 ret	 0
?GS_GDReqCastleNpcRepair@@YAXHHHHH@Z ENDP		; GS_GDReqCastleNpcRepair
_TEXT	ENDS
PUBLIC	__$ArrayPad$
PUBLIC	?GS_GDReqCastleNpcUpgrade@@YAXHHHHHHH@Z		; GS_GDReqCastleNpcUpgrade
; Function compile flags: /Ogtp
;	COMDAT ?GS_GDReqCastleNpcUpgrade@@YAXHHHHHHH@Z
_TEXT	SEGMENT
_pMsg$ = -36						; size = 32
__$ArrayPad$ = -4					; size = 4
_iMapSvrGroup$ = 8					; size = 4
_aIndex$ = 12						; size = 4
_iNpcNumber$ = 16					; size = 4
_iNpcIndex$ = 20					; size = 4
_iNpcUpType$ = 24					; size = 4
_iNpcUpValue$ = 28					; size = 4
_iNpcUpIndex$ = 32					; size = 4
?GS_GDReqCastleNpcUpgrade@@YAXHHHHHHH@Z PROC		; GS_GDReqCastleNpcUpgrade, COMDAT

; 2989 : {

  00000	55		 push	 ebp
  00001	8b ec		 mov	 ebp, esp
  00003	83 ec 24	 sub	 esp, 36			; 00000024H
  00006	a1 00 00 00 00	 mov	 eax, DWORD PTR ___security_cookie
  0000b	33 c5		 xor	 eax, ebp
  0000d	89 45 fc	 mov	 DWORD PTR __$ArrayPad$[ebp], eax

; 2990 : 	if ( iMapSvrGroup < 0 )

  00010	8b 55 08	 mov	 edx, DWORD PTR _iMapSvrGroup$[ebp]
  00013	85 d2		 test	 edx, edx
  00015	78 51		 js	 SHORT $LN3@GS_GDReqCa@4

; 2991 : 	{
; 2992 : 		return;
; 2993 : 	}
; 2994 : 
; 2995 : 	if ( OBJMAX_RANGE(aIndex) == FALSE )

  00017	8b 45 0c	 mov	 eax, DWORD PTR _aIndex$[ebp]
  0001a	85 c0		 test	 eax, eax
  0001c	78 4a		 js	 SHORT $LN3@GS_GDReqCa@4
  0001e	33 c9		 xor	 ecx, ecx
  00020	3d e7 1c 00 00	 cmp	 eax, 7399		; 00001ce7H
  00025	0f 9e c1	 setle	 cl
  00028	85 c9		 test	 ecx, ecx
  0002a	74 3c		 je	 SHORT $LN3@GS_GDReqCa@4

; 2996 : 	{
; 2997 : 		return;
; 2998 : 	}
; 2999 : 
; 3000 : 
; 3001 : 	CSP_REQ_NPCUPGRADE pMsg;
; 3002 : 
; 3003 : 	pMsg.h.set((LPBYTE)&pMsg, 0x80, 0x05, sizeof(CSP_REQ_NPCUPGRADE));
; 3004 : 	pMsg.wMapSvrNum = iMapSvrGroup;
; 3005 : 	pMsg.iIndex = aIndex;
; 3006 : 	pMsg.iNpcNumber = iNpcNumber;
; 3007 : 	pMsg.iNpcIndex = iNpcIndex;

  0002c	8b 4d 14	 mov	 ecx, DWORD PTR _iNpcIndex$[ebp]
  0002f	66 89 55 e0	 mov	 WORD PTR _pMsg$[ebp+4], dx

; 3008 : 	pMsg.iNpcUpType = iNpcUpType;

  00033	8b 55 18	 mov	 edx, DWORD PTR _iNpcUpType$[ebp]
  00036	89 45 e4	 mov	 DWORD PTR _pMsg$[ebp+8], eax
  00039	8b 45 10	 mov	 eax, DWORD PTR _iNpcNumber$[ebp]
  0003c	89 4d ec	 mov	 DWORD PTR _pMsg$[ebp+16], ecx

; 3009 : 	pMsg.iNpcUpValue = iNpcUpValue;
; 3010 : 	pMsg.iNpcUpIndex = iNpcUpIndex;

  0003f	8b 4d 20	 mov	 ecx, DWORD PTR _iNpcUpIndex$[ebp]
  00042	89 55 f0	 mov	 DWORD PTR _pMsg$[ebp+20], edx
  00045	89 45 e8	 mov	 DWORD PTR _pMsg$[ebp+12], eax
  00048	8b 45 1c	 mov	 eax, DWORD PTR _iNpcUpValue$[ebp]

; 3011 : 
; 3012 : 	cDBSMng.Send((char*)&pMsg, pMsg.h.size);

  0004b	6a 20		 push	 32			; 00000020H
  0004d	8d 55 dc	 lea	 edx, DWORD PTR _pMsg$[ebp]
  00050	89 4d f8	 mov	 DWORD PTR _pMsg$[ebp+28], ecx
  00053	52		 push	 edx
  00054	b9 00 00 00 00	 mov	 ecx, OFFSET ?cDBSMng@@3VDBSockMng@@A ; cDBSMng
  00059	c7 45 dc c1 20
	80 05		 mov	 DWORD PTR _pMsg$[ebp], 92283073 ; 058020c1H
  00060	89 45 f4	 mov	 DWORD PTR _pMsg$[ebp+24], eax
  00063	e8 00 00 00 00	 call	 ?Send@DBSockMng@@QAEHPADH@Z ; DBSockMng::Send
$LN3@GS_GDReqCa@4:

; 3013 : }

  00068	8b 4d fc	 mov	 ecx, DWORD PTR __$ArrayPad$[ebp]
  0006b	33 cd		 xor	 ecx, ebp
  0006d	e8 00 00 00 00	 call	 @__security_check_cookie@4
  00072	8b e5		 mov	 esp, ebp
  00074	5d		 pop	 ebp
  00075	c3		 ret	 0
?GS_GDReqCastleNpcUpgrade@@YAXHHHHHHH@Z ENDP		; GS_GDReqCastleNpcUpgrade
_TEXT	ENDS
PUBLIC	__$ArrayPad$
PUBLIC	?GS_GDReqTaxInfo@@YAXHH@Z			; GS_GDReqTaxInfo
; Function compile flags: /Ogtp
;	COMDAT ?GS_GDReqTaxInfo@@YAXHH@Z
_TEXT	SEGMENT
_pMsg$ = -16						; size = 12
__$ArrayPad$ = -4					; size = 4
_iMapSvrGroup$ = 8					; size = 4
_aIndex$ = 12						; size = 4
?GS_GDReqTaxInfo@@YAXHH@Z PROC				; GS_GDReqTaxInfo, COMDAT

; 3032 : {

  00000	55		 push	 ebp
  00001	8b ec		 mov	 ebp, esp
  00003	83 ec 10	 sub	 esp, 16			; 00000010H
  00006	a1 00 00 00 00	 mov	 eax, DWORD PTR ___security_cookie
  0000b	33 c5		 xor	 eax, ebp
  0000d	89 45 fc	 mov	 DWORD PTR __$ArrayPad$[ebp], eax

; 3033 : 	if ( iMapSvrGroup < 0 )

  00010	8b 55 08	 mov	 edx, DWORD PTR _iMapSvrGroup$[ebp]
  00013	85 d2		 test	 edx, edx
  00015	78 33		 js	 SHORT $LN3@GS_GDReqTa

; 3034 : 	{
; 3035 : 		return;
; 3036 : 	}
; 3037 : 
; 3038 : 	if ( OBJMAX_RANGE(aIndex) == FALSE )

  00017	8b 45 0c	 mov	 eax, DWORD PTR _aIndex$[ebp]
  0001a	85 c0		 test	 eax, eax
  0001c	78 2c		 js	 SHORT $LN3@GS_GDReqTa
  0001e	33 c9		 xor	 ecx, ecx
  00020	3d e7 1c 00 00	 cmp	 eax, 7399		; 00001ce7H
  00025	0f 9e c1	 setle	 cl
  00028	85 c9		 test	 ecx, ecx
  0002a	74 1e		 je	 SHORT $LN3@GS_GDReqTa

; 3039 : 	{
; 3040 : 		return;
; 3041 : 	}
; 3042 : 
; 3043 : 
; 3044 : 	CSP_REQ_TAXINFO pMsg;
; 3045 : 
; 3046 : 	pMsg.h.set((LPBYTE)&pMsg, 0x80, 0x06, sizeof(CSP_REQ_TAXINFO));
; 3047 : 	pMsg.wMapSvrNum = iMapSvrGroup;
; 3048 : 	pMsg.iIndex = aIndex;

  0002c	89 45 f8	 mov	 DWORD PTR _pMsg$[ebp+8], eax

; 3049 : 
; 3050 : 	cDBSMng.Send((char*)&pMsg, pMsg.h.size);

  0002f	6a 0c		 push	 12			; 0000000cH
  00031	8d 45 f0	 lea	 eax, DWORD PTR _pMsg$[ebp]
  00034	50		 push	 eax
  00035	b9 00 00 00 00	 mov	 ecx, OFFSET ?cDBSMng@@3VDBSockMng@@A ; cDBSMng
  0003a	c7 45 f0 c1 0c
	80 06		 mov	 DWORD PTR _pMsg$[ebp], 109055169 ; 06800cc1H
  00041	66 89 55 f4	 mov	 WORD PTR _pMsg$[ebp+4], dx
  00045	e8 00 00 00 00	 call	 ?Send@DBSockMng@@QAEHPADH@Z ; DBSockMng::Send
$LN3@GS_GDReqTa:

; 3051 : }

  0004a	8b 4d fc	 mov	 ecx, DWORD PTR __$ArrayPad$[ebp]
  0004d	33 cd		 xor	 ecx, ebp
  0004f	e8 00 00 00 00	 call	 @__security_check_cookie@4
  00054	8b e5		 mov	 esp, ebp
  00056	5d		 pop	 ebp
  00057	c3		 ret	 0
?GS_GDReqTaxInfo@@YAXHH@Z ENDP				; GS_GDReqTaxInfo
_TEXT	ENDS
PUBLIC	__$ArrayPad$
PUBLIC	?GS_GDReqTaxRateChange@@YAXHHHH@Z		; GS_GDReqTaxRateChange
; Function compile flags: /Ogtp
;	COMDAT ?GS_GDReqTaxRateChange@@YAXHHHH@Z
_TEXT	SEGMENT
_pMsg$ = -24						; size = 20
__$ArrayPad$ = -4					; size = 4
_iMapSvrGroup$ = 8					; size = 4
_aIndex$ = 12						; size = 4
_iTaxType$ = 16						; size = 4
_iTaxRate$ = 20						; size = 4
?GS_GDReqTaxRateChange@@YAXHHHH@Z PROC			; GS_GDReqTaxRateChange, COMDAT

; 3074 : {

  00000	55		 push	 ebp
  00001	8b ec		 mov	 ebp, esp
  00003	83 ec 18	 sub	 esp, 24			; 00000018H
  00006	a1 00 00 00 00	 mov	 eax, DWORD PTR ___security_cookie
  0000b	33 c5		 xor	 eax, ebp
  0000d	89 45 fc	 mov	 DWORD PTR __$ArrayPad$[ebp], eax

; 3075 : 	if ( iMapSvrGroup < 0 )

  00010	8b 55 08	 mov	 edx, DWORD PTR _iMapSvrGroup$[ebp]
  00013	85 d2		 test	 edx, edx
  00015	78 3f		 js	 SHORT $LN3@GS_GDReqTa@2

; 3076 : 	{
; 3077 : 		return;
; 3078 : 	}
; 3079 : 
; 3080 : 	if ( OBJMAX_RANGE(aIndex) == FALSE )

  00017	8b 45 0c	 mov	 eax, DWORD PTR _aIndex$[ebp]
  0001a	85 c0		 test	 eax, eax
  0001c	78 38		 js	 SHORT $LN3@GS_GDReqTa@2
  0001e	33 c9		 xor	 ecx, ecx
  00020	3d e7 1c 00 00	 cmp	 eax, 7399		; 00001ce7H
  00025	0f 9e c1	 setle	 cl
  00028	85 c9		 test	 ecx, ecx
  0002a	74 2a		 je	 SHORT $LN3@GS_GDReqTa@2

; 3081 : 	{
; 3082 : 		return;
; 3083 : 	}
; 3084 : 
; 3085 : 
; 3086 : 	CSP_REQ_TAXRATECHANGE pMsg;
; 3087 : 
; 3088 : 	pMsg.h.set((LPBYTE)&pMsg, 0x80, 0x07, sizeof(CSP_REQ_TAXRATECHANGE));
; 3089 : 	pMsg.wMapSvrNum = iMapSvrGroup;
; 3090 : 	pMsg.iIndex = aIndex;
; 3091 : 	pMsg.iTaxRate = iTaxRate; 
; 3092 : 	pMsg.iTaxKind = iTaxType;

  0002c	8b 4d 10	 mov	 ecx, DWORD PTR _iTaxType$[ebp]
  0002f	66 89 55 ec	 mov	 WORD PTR _pMsg$[ebp+4], dx
  00033	89 45 f0	 mov	 DWORD PTR _pMsg$[ebp+8], eax
  00036	8b 45 14	 mov	 eax, DWORD PTR _iTaxRate$[ebp]

; 3093 : 	
; 3094 : 	cDBSMng.Send((char*)&pMsg, pMsg.h.size);

  00039	6a 14		 push	 20			; 00000014H
  0003b	8d 55 e8	 lea	 edx, DWORD PTR _pMsg$[ebp]
  0003e	89 4d f4	 mov	 DWORD PTR _pMsg$[ebp+12], ecx
  00041	52		 push	 edx
  00042	b9 00 00 00 00	 mov	 ecx, OFFSET ?cDBSMng@@3VDBSockMng@@A ; cDBSMng
  00047	c7 45 e8 c1 14
	80 07		 mov	 DWORD PTR _pMsg$[ebp], 125834433 ; 078014c1H
  0004e	89 45 f8	 mov	 DWORD PTR _pMsg$[ebp+16], eax
  00051	e8 00 00 00 00	 call	 ?Send@DBSockMng@@QAEHPADH@Z ; DBSockMng::Send
$LN3@GS_GDReqTa@2:

; 3095 : }

  00056	8b 4d fc	 mov	 ecx, DWORD PTR __$ArrayPad$[ebp]
  00059	33 cd		 xor	 ecx, ebp
  0005b	e8 00 00 00 00	 call	 @__security_check_cookie@4
  00060	8b e5		 mov	 esp, ebp
  00062	5d		 pop	 ebp
  00063	c3		 ret	 0
?GS_GDReqTaxRateChange@@YAXHHHH@Z ENDP			; GS_GDReqTaxRateChange
_TEXT	ENDS
PUBLIC	__$ArrayPad$
PUBLIC	?GS_GDReqCastleMoneyChange@@YAXHHH@Z		; GS_GDReqCastleMoneyChange
; Function compile flags: /Ogtp
;	COMDAT ?GS_GDReqCastleMoneyChange@@YAXHHH@Z
_TEXT	SEGMENT
_pMsg$ = -20						; size = 16
__$ArrayPad$ = -4					; size = 4
_iMapSvrGroup$ = 8					; size = 4
_aIndex$ = 12						; size = 4
_iMoneyChange$ = 16					; size = 4
?GS_GDReqCastleMoneyChange@@YAXHHH@Z PROC		; GS_GDReqCastleMoneyChange, COMDAT

; 3118 : {

  00000	55		 push	 ebp
  00001	8b ec		 mov	 ebp, esp
  00003	83 ec 14	 sub	 esp, 20			; 00000014H
  00006	a1 00 00 00 00	 mov	 eax, DWORD PTR ___security_cookie
  0000b	33 c5		 xor	 eax, ebp
  0000d	89 45 fc	 mov	 DWORD PTR __$ArrayPad$[ebp], eax

; 3119 : 	if ( iMapSvrGroup < 0 )

  00010	8b 55 08	 mov	 edx, DWORD PTR _iMapSvrGroup$[ebp]
  00013	85 d2		 test	 edx, edx
  00015	78 39		 js	 SHORT $LN3@GS_GDReqCa@5

; 3120 : 	{
; 3121 : 		return;
; 3122 : 	}
; 3123 : 
; 3124 : 	if ( OBJMAX_RANGE(aIndex) == FALSE )

  00017	8b 45 0c	 mov	 eax, DWORD PTR _aIndex$[ebp]
  0001a	85 c0		 test	 eax, eax
  0001c	78 32		 js	 SHORT $LN3@GS_GDReqCa@5
  0001e	33 c9		 xor	 ecx, ecx
  00020	3d e7 1c 00 00	 cmp	 eax, 7399		; 00001ce7H
  00025	0f 9e c1	 setle	 cl
  00028	85 c9		 test	 ecx, ecx
  0002a	74 24		 je	 SHORT $LN3@GS_GDReqCa@5

; 3125 : 	{
; 3126 : 		return;
; 3127 : 	}
; 3128 : 
; 3129 : 
; 3130 : 	CSP_REQ_MONEYCHANGE pMsg;
; 3131 : 
; 3132 : 	pMsg.h.set((LPBYTE)&pMsg, 0x80, 0x08, sizeof(CSP_REQ_MONEYCHANGE));
; 3133 : 	pMsg.wMapSvrNum = iMapSvrGroup;
; 3134 : 	pMsg.iIndex = aIndex;
; 3135 : 	pMsg.iMoneyChanged = iMoneyChange;
; 3136 : 	
; 3137 : 	cDBSMng.Send((char*)&pMsg, pMsg.h.size);

  0002c	6a 10		 push	 16			; 00000010H
  0002e	8d 4d ec	 lea	 ecx, DWORD PTR _pMsg$[ebp]
  00031	89 45 f4	 mov	 DWORD PTR _pMsg$[ebp+8], eax
  00034	8b 45 10	 mov	 eax, DWORD PTR _iMoneyChange$[ebp]
  00037	51		 push	 ecx
  00038	b9 00 00 00 00	 mov	 ecx, OFFSET ?cDBSMng@@3VDBSockMng@@A ; cDBSMng
  0003d	c7 45 ec c1 10
	80 08		 mov	 DWORD PTR _pMsg$[ebp], 142610625 ; 088010c1H
  00044	66 89 55 f0	 mov	 WORD PTR _pMsg$[ebp+4], dx
  00048	89 45 f8	 mov	 DWORD PTR _pMsg$[ebp+12], eax
  0004b	e8 00 00 00 00	 call	 ?Send@DBSockMng@@QAEHPADH@Z ; DBSockMng::Send
$LN3@GS_GDReqCa@5:

; 3138 : }

  00050	8b 4d fc	 mov	 ecx, DWORD PTR __$ArrayPad$[ebp]
  00053	33 cd		 xor	 ecx, ebp
  00055	e8 00 00 00 00	 call	 @__security_check_cookie@4
  0005a	8b e5		 mov	 esp, ebp
  0005c	5d		 pop	 ebp
  0005d	c3		 ret	 0
?GS_GDReqCastleMoneyChange@@YAXHHH@Z ENDP		; GS_GDReqCastleMoneyChange
_TEXT	ENDS
PUBLIC	__$ArrayPad$
PUBLIC	?GS_GDReqSiegeDateChange@@YAXHHGEEGEE@Z		; GS_GDReqSiegeDateChange
; Function compile flags: /Ogtp
;	COMDAT ?GS_GDReqSiegeDateChange@@YAXHHGEEGEE@Z
_TEXT	SEGMENT
_pMsg$ = -24						; size = 20
__$ArrayPad$ = -4					; size = 4
_iMapSvrGroup$ = 8					; size = 4
_aIndex$ = 12						; size = 4
_wStartYear$ = 16					; size = 2
_btStartMonth$ = 20					; size = 1
_btStartDay$ = 24					; size = 1
_wEndYear$ = 28						; size = 2
_btEndMonth$ = 32					; size = 1
_btEndDay$ = 36						; size = 1
?GS_GDReqSiegeDateChange@@YAXHHGEEGEE@Z PROC		; GS_GDReqSiegeDateChange, COMDAT

; 3166 : {

  00000	55		 push	 ebp
  00001	8b ec		 mov	 ebp, esp
  00003	83 ec 18	 sub	 esp, 24			; 00000018H
  00006	a1 00 00 00 00	 mov	 eax, DWORD PTR ___security_cookie
  0000b	33 c5		 xor	 eax, ebp
  0000d	89 45 fc	 mov	 DWORD PTR __$ArrayPad$[ebp], eax

; 3167 : 	if ( iMapSvrGroup < 0 )

  00010	8b 45 08	 mov	 eax, DWORD PTR _iMapSvrGroup$[ebp]
  00013	85 c0		 test	 eax, eax
  00015	78 49		 js	 SHORT $LN2@GS_GDReqSi

; 3168 : 	{
; 3169 : 		return;
; 3170 : 	}
; 3171 : 
; 3172 : 	CSP_REQ_SDEDCHANGE pMsg;
; 3173 : 
; 3174 : 	pMsg.h.set((LPBYTE)&pMsg, 0x80, 0x09, sizeof(CSP_REQ_SDEDCHANGE));
; 3175 : 	pMsg.wMapSvrNum = iMapSvrGroup;
; 3176 : 	pMsg.iIndex = aIndex;
; 3177 : 	pMsg.wStartYear = wStartYear;

  00017	66 8b 4d 10	 mov	 cx, WORD PTR _wStartYear$[ebp]

; 3178 : 	pMsg.btStartMonth = btStartMonth;

  0001b	8a 55 14	 mov	 dl, BYTE PTR _btStartMonth$[ebp]
  0001e	66 89 45 ec	 mov	 WORD PTR _pMsg$[ebp+4], ax
  00022	8b 45 0c	 mov	 eax, DWORD PTR _aIndex$[ebp]
  00025	66 89 4d f4	 mov	 WORD PTR _pMsg$[ebp+12], cx

; 3179 : 	pMsg.btStartDay = btStartDay;
; 3180 : 	pMsg.wEndYear = wEndYear;

  00029	66 8b 4d 1c	 mov	 cx, WORD PTR _wEndYear$[ebp]
  0002d	89 45 f0	 mov	 DWORD PTR _pMsg$[ebp+8], eax
  00030	8a 45 18	 mov	 al, BYTE PTR _btStartDay$[ebp]
  00033	66 89 4d f8	 mov	 WORD PTR _pMsg$[ebp+16], cx

; 3181 : 	pMsg.btEndMonth = btEndMonth;
; 3182 : 	pMsg.btEndDay = btEndDay;
; 3183 : 	
; 3184 : 	cDBSMng.Send((char*)&pMsg, pMsg.h.size);

  00037	6a 14		 push	 20			; 00000014H
  00039	8d 4d e8	 lea	 ecx, DWORD PTR _pMsg$[ebp]
  0003c	88 55 f6	 mov	 BYTE PTR _pMsg$[ebp+14], dl
  0003f	8a 55 20	 mov	 dl, BYTE PTR _btEndMonth$[ebp]
  00042	88 45 f7	 mov	 BYTE PTR _pMsg$[ebp+15], al
  00045	8a 45 24	 mov	 al, BYTE PTR _btEndDay$[ebp]
  00048	51		 push	 ecx
  00049	b9 00 00 00 00	 mov	 ecx, OFFSET ?cDBSMng@@3VDBSockMng@@A ; cDBSMng
  0004e	c7 45 e8 c1 14
	80 09		 mov	 DWORD PTR _pMsg$[ebp], 159388865 ; 098014c1H
  00055	88 55 fa	 mov	 BYTE PTR _pMsg$[ebp+18], dl
  00058	88 45 fb	 mov	 BYTE PTR _pMsg$[ebp+19], al
  0005b	e8 00 00 00 00	 call	 ?Send@DBSockMng@@QAEHPADH@Z ; DBSockMng::Send
$LN2@GS_GDReqSi:

; 3185 : }

  00060	8b 4d fc	 mov	 ecx, DWORD PTR __$ArrayPad$[ebp]
  00063	33 cd		 xor	 ecx, ebp
  00065	e8 00 00 00 00	 call	 @__security_check_cookie@4
  0006a	8b e5		 mov	 esp, ebp
  0006c	5d		 pop	 ebp
  0006d	c3		 ret	 0
?GS_GDReqSiegeDateChange@@YAXHHGEEGEE@Z ENDP		; GS_GDReqSiegeDateChange
_TEXT	ENDS
PUBLIC	__$ArrayPad$
PUBLIC	?GS_GDReqGuildMarkRegInfo@@YAXHH@Z		; GS_GDReqGuildMarkRegInfo
; Function compile flags: /Ogtp
;	COMDAT ?GS_GDReqGuildMarkRegInfo@@YAXHH@Z
_TEXT	SEGMENT
_pMsg$ = -24						; size = 20
__$ArrayPad$ = -4					; size = 4
_iMapSvrGroup$ = 8					; size = 4
_aIndex$ = 12						; size = 4
?GS_GDReqGuildMarkRegInfo@@YAXHH@Z PROC			; GS_GDReqGuildMarkRegInfo, COMDAT

; 3207 : {

  00000	55		 push	 ebp
  00001	8b ec		 mov	 ebp, esp
  00003	83 ec 18	 sub	 esp, 24			; 00000018H
  00006	a1 00 00 00 00	 mov	 eax, DWORD PTR ___security_cookie
  0000b	33 c5		 xor	 eax, ebp
  0000d	89 45 fc	 mov	 DWORD PTR __$ArrayPad$[ebp], eax

; 3208 : 	if ( iMapSvrGroup < 0 )

  00010	8b 55 08	 mov	 edx, DWORD PTR _iMapSvrGroup$[ebp]
  00013	8b 45 0c	 mov	 eax, DWORD PTR _aIndex$[ebp]
  00016	85 d2		 test	 edx, edx
  00018	78 48		 js	 SHORT $LN3@GS_GDReqGu

; 3209 : 	{
; 3210 : 		return;
; 3211 : 	}
; 3212 : 
; 3213 : 	if ( OBJMAX_RANGE(aIndex) == FALSE )

  0001a	85 c0		 test	 eax, eax
  0001c	78 44		 js	 SHORT $LN3@GS_GDReqGu
  0001e	33 c9		 xor	 ecx, ecx
  00020	3d e7 1c 00 00	 cmp	 eax, 7399		; 00001ce7H
  00025	0f 9e c1	 setle	 cl
  00028	85 c9		 test	 ecx, ecx
  0002a	74 36		 je	 SHORT $LN3@GS_GDReqGu

; 3214 : 	{
; 3215 : 		return;
; 3216 : 	}
; 3217 : 
; 3218 : 
; 3219 : 	CSP_REQ_GUILDREGINFO pMsg;
; 3220 : 
; 3221 : 	pMsg.h.set((LPBYTE)&pMsg, 0x80, 0x0A, sizeof(CSP_REQ_GUILDREGINFO));
; 3222 : 	pMsg.wMapSvrNum = iMapSvrGroup;
; 3223 : 	pMsg.iIndex = aIndex;

  0002c	89 45 f0	 mov	 DWORD PTR _pMsg$[ebp+8], eax

; 3224 : 	memcpy(pMsg.szGuildName, gObj[aIndex].GuildName, 8);

  0002f	69 c0 64 15 00
	00		 imul	 eax, 5476		; 00001564H
  00035	8b 88 b8 02 00
	00		 mov	 ecx, DWORD PTR ?gObj@@3PAUOBJECTSTRUCT@@A[eax+696]
  0003b	66 89 55 ec	 mov	 WORD PTR _pMsg$[ebp+4], dx
  0003f	8b 90 bc 02 00
	00		 mov	 edx, DWORD PTR ?gObj@@3PAUOBJECTSTRUCT@@A[eax+700]

; 3225 : 	
; 3226 : 	cDBSMng.Send((char*)&pMsg, pMsg.h.size);

  00045	6a 14		 push	 20			; 00000014H
  00047	8d 45 e8	 lea	 eax, DWORD PTR _pMsg$[ebp]
  0004a	89 4d f4	 mov	 DWORD PTR _pMsg$[ebp+12], ecx
  0004d	50		 push	 eax
  0004e	b9 00 00 00 00	 mov	 ecx, OFFSET ?cDBSMng@@3VDBSockMng@@A ; cDBSMng
  00053	c7 45 e8 c1 14
	80 0a		 mov	 DWORD PTR _pMsg$[ebp], 176166081 ; 0a8014c1H
  0005a	89 55 f8	 mov	 DWORD PTR _pMsg$[ebp+16], edx
  0005d	e8 00 00 00 00	 call	 ?Send@DBSockMng@@QAEHPADH@Z ; DBSockMng::Send
$LN3@GS_GDReqGu:

; 3227 : }

  00062	8b 4d fc	 mov	 ecx, DWORD PTR __$ArrayPad$[ebp]
  00065	33 cd		 xor	 ecx, ebp
  00067	e8 00 00 00 00	 call	 @__security_check_cookie@4
  0006c	8b e5		 mov	 esp, ebp
  0006e	5d		 pop	 ebp
  0006f	c3		 ret	 0
?GS_GDReqGuildMarkRegInfo@@YAXHH@Z ENDP			; GS_GDReqGuildMarkRegInfo
_TEXT	ENDS
PUBLIC	__$ArrayPad$
PUBLIC	?GS_GDReqSiegeEndedChange@@YAXHH@Z		; GS_GDReqSiegeEndedChange
; Function compile flags: /Ogtp
;	COMDAT ?GS_GDReqSiegeEndedChange@@YAXHH@Z
_TEXT	SEGMENT
_pMsg$ = -16						; size = 12
__$ArrayPad$ = -4					; size = 4
_iMapSvrGroup$ = 8					; size = 4
_bIsSiegeEnded$ = 12					; size = 4
?GS_GDReqSiegeEndedChange@@YAXHH@Z PROC			; GS_GDReqSiegeEndedChange, COMDAT

; 3247 : {

  00000	55		 push	 ebp
  00001	8b ec		 mov	 ebp, esp
  00003	83 ec 10	 sub	 esp, 16			; 00000010H
  00006	a1 00 00 00 00	 mov	 eax, DWORD PTR ___security_cookie
  0000b	33 c5		 xor	 eax, ebp
  0000d	89 45 fc	 mov	 DWORD PTR __$ArrayPad$[ebp], eax

; 3248 : 	if ( iMapSvrGroup < 0 )

  00010	8b 45 08	 mov	 eax, DWORD PTR _iMapSvrGroup$[ebp]
  00013	85 c0		 test	 eax, eax
  00015	78 21		 js	 SHORT $LN2@GS_GDReqSi@2

; 3249 : 	{
; 3250 : 		return;
; 3251 : 	}
; 3252 : 
; 3253 : 
; 3254 : 	CSP_REQ_SIEGEENDCHANGE pMsg;
; 3255 : 
; 3256 : 	pMsg.h.set((LPBYTE)&pMsg, 0x80, 0x0B, sizeof(CSP_REQ_SIEGEENDCHANGE));
; 3257 : 	pMsg.wMapSvrNum = iMapSvrGroup;
; 3258 : 	pMsg.bIsSiegeEnded = bIsSiegeEnded;
; 3259 : 	
; 3260 : 	cDBSMng.Send((char*)&pMsg, pMsg.h.size);

  00017	6a 0c		 push	 12			; 0000000cH
  00019	8d 4d f0	 lea	 ecx, DWORD PTR _pMsg$[ebp]
  0001c	66 89 45 f4	 mov	 WORD PTR _pMsg$[ebp+4], ax
  00020	8b 45 0c	 mov	 eax, DWORD PTR _bIsSiegeEnded$[ebp]
  00023	51		 push	 ecx
  00024	b9 00 00 00 00	 mov	 ecx, OFFSET ?cDBSMng@@3VDBSockMng@@A ; cDBSMng
  00029	c7 45 f0 c1 0c
	80 0b		 mov	 DWORD PTR _pMsg$[ebp], 192941249 ; 0b800cc1H
  00030	89 45 f8	 mov	 DWORD PTR _pMsg$[ebp+8], eax
  00033	e8 00 00 00 00	 call	 ?Send@DBSockMng@@QAEHPADH@Z ; DBSockMng::Send
$LN2@GS_GDReqSi@2:

; 3261 : }

  00038	8b 4d fc	 mov	 ecx, DWORD PTR __$ArrayPad$[ebp]
  0003b	33 cd		 xor	 ecx, ebp
  0003d	e8 00 00 00 00	 call	 @__security_check_cookie@4
  00042	8b e5		 mov	 esp, ebp
  00044	5d		 pop	 ebp
  00045	c3		 ret	 0
?GS_GDReqSiegeEndedChange@@YAXHH@Z ENDP			; GS_GDReqSiegeEndedChange
_TEXT	ENDS
PUBLIC	__$ArrayPad$
PUBLIC	?GS_GDReqCastleOwnerChange@@YAXHHPAD@Z		; GS_GDReqCastleOwnerChange
; Function compile flags: /Ogtp
;	COMDAT ?GS_GDReqCastleOwnerChange@@YAXHHPAD@Z
_TEXT	SEGMENT
_pMsg$ = -24						; size = 20
__$ArrayPad$ = -4					; size = 4
_iMapSvrGroup$ = 8					; size = 4
_bIsCastleOccupied$ = 12				; size = 4
_lpszGuildName$ = 16					; size = 4
?GS_GDReqCastleOwnerChange@@YAXHHPAD@Z PROC		; GS_GDReqCastleOwnerChange, COMDAT

; 3281 : {

  00000	55		 push	 ebp
  00001	8b ec		 mov	 ebp, esp
  00003	83 ec 18	 sub	 esp, 24			; 00000018H
  00006	a1 00 00 00 00	 mov	 eax, DWORD PTR ___security_cookie
  0000b	33 c5		 xor	 eax, ebp
  0000d	89 45 fc	 mov	 DWORD PTR __$ArrayPad$[ebp], eax

; 3282 : 	if ( iMapSvrGroup < 0 )

  00010	8b 4d 08	 mov	 ecx, DWORD PTR _iMapSvrGroup$[ebp]
  00013	8b 45 10	 mov	 eax, DWORD PTR _lpszGuildName$[ebp]
  00016	85 c9		 test	 ecx, ecx
  00018	78 30		 js	 SHORT $LN3@GS_GDReqCa@6

; 3283 : 	{
; 3284 : 		return;
; 3285 : 	}
; 3286 : 
; 3287 : 	if ( lpszGuildName == NULL )

  0001a	85 c0		 test	 eax, eax
  0001c	74 2c		 je	 SHORT $LN3@GS_GDReqCa@6

; 3288 : 	{
; 3289 : 		return;
; 3290 : 	}
; 3291 : 
; 3292 : 
; 3293 : 	CSP_REQ_CASTLEOWNERCHANGE pMsg;
; 3294 : 
; 3295 : 	pMsg.h.set((LPBYTE)&pMsg, 0x80, 0x0C, sizeof(CSP_REQ_CASTLEOWNERCHANGE));
; 3296 : 	pMsg.wMapSvrNum = iMapSvrGroup;
; 3297 : 	pMsg.bIsCastleOccupied = bIsCastleOccupied;
; 3298 : 	memcpy(pMsg.szOwnerGuildName, lpszGuildName, 8);

  0001e	8b 10		 mov	 edx, DWORD PTR [eax]
  00020	8b 40 04	 mov	 eax, DWORD PTR [eax+4]
  00023	66 89 4d ec	 mov	 WORD PTR _pMsg$[ebp+4], cx
  00027	8b 4d 0c	 mov	 ecx, DWORD PTR _bIsCastleOccupied$[ebp]
  0002a	89 4d f0	 mov	 DWORD PTR _pMsg$[ebp+8], ecx

; 3299 : 	
; 3300 : 	cDBSMng.Send((char*)&pMsg, pMsg.h.size);

  0002d	6a 14		 push	 20			; 00000014H
  0002f	8d 4d e8	 lea	 ecx, DWORD PTR _pMsg$[ebp]
  00032	51		 push	 ecx
  00033	b9 00 00 00 00	 mov	 ecx, OFFSET ?cDBSMng@@3VDBSockMng@@A ; cDBSMng
  00038	c7 45 e8 c1 14
	80 0c		 mov	 DWORD PTR _pMsg$[ebp], 209720513 ; 0c8014c1H
  0003f	89 55 f4	 mov	 DWORD PTR _pMsg$[ebp+12], edx
  00042	89 45 f8	 mov	 DWORD PTR _pMsg$[ebp+16], eax
  00045	e8 00 00 00 00	 call	 ?Send@DBSockMng@@QAEHPADH@Z ; DBSockMng::Send
$LN3@GS_GDReqCa@6:

; 3301 : }

  0004a	8b 4d fc	 mov	 ecx, DWORD PTR __$ArrayPad$[ebp]
  0004d	33 cd		 xor	 ecx, ebp
  0004f	e8 00 00 00 00	 call	 @__security_check_cookie@4
  00054	8b e5		 mov	 esp, ebp
  00056	5d		 pop	 ebp
  00057	c3		 ret	 0
?GS_GDReqCastleOwnerChange@@YAXHHPAD@Z ENDP		; GS_GDReqCastleOwnerChange
_TEXT	ENDS
PUBLIC	__$ArrayPad$
PUBLIC	?GS_GDReqRegAttackGuild@@YAXHH@Z		; GS_GDReqRegAttackGuild
; Function compile flags: /Ogtp
;	COMDAT ?GS_GDReqRegAttackGuild@@YAXHH@Z
_TEXT	SEGMENT
_pMsg$ = -24						; size = 20
__$ArrayPad$ = -4					; size = 4
_iMapSvrGroup$ = 8					; size = 4
_aIndex$ = 12						; size = 4
?GS_GDReqRegAttackGuild@@YAXHH@Z PROC			; GS_GDReqRegAttackGuild, COMDAT

; 3322 : {

  00000	55		 push	 ebp
  00001	8b ec		 mov	 ebp, esp
  00003	83 ec 18	 sub	 esp, 24			; 00000018H
  00006	a1 00 00 00 00	 mov	 eax, DWORD PTR ___security_cookie
  0000b	33 c5		 xor	 eax, ebp
  0000d	89 45 fc	 mov	 DWORD PTR __$ArrayPad$[ebp], eax

; 3323 : 	if ( iMapSvrGroup < 0 )

  00010	8b 55 08	 mov	 edx, DWORD PTR _iMapSvrGroup$[ebp]
  00013	8b 45 0c	 mov	 eax, DWORD PTR _aIndex$[ebp]
  00016	85 d2		 test	 edx, edx
  00018	78 48		 js	 SHORT $LN3@GS_GDReqRe

; 3324 : 	{
; 3325 : 		return;
; 3326 : 	}
; 3327 : 
; 3328 : 	if ( OBJMAX_RANGE(aIndex) == FALSE )

  0001a	85 c0		 test	 eax, eax
  0001c	78 44		 js	 SHORT $LN3@GS_GDReqRe
  0001e	33 c9		 xor	 ecx, ecx
  00020	3d e7 1c 00 00	 cmp	 eax, 7399		; 00001ce7H
  00025	0f 9e c1	 setle	 cl
  00028	85 c9		 test	 ecx, ecx
  0002a	74 36		 je	 SHORT $LN3@GS_GDReqRe

; 3329 : 	{
; 3330 : 		return;
; 3331 : 	}
; 3332 : 
; 3333 : 
; 3334 : 	CSP_REQ_REGATTACKGUILD pMsg;
; 3335 : 
; 3336 : 	pMsg.h.set((LPBYTE)&pMsg, 0x80, 0x0D, sizeof(CSP_REQ_REGATTACKGUILD));
; 3337 : 	pMsg.wMapSvrNum = iMapSvrGroup;
; 3338 : 	pMsg.iIndex = aIndex;

  0002c	89 45 f0	 mov	 DWORD PTR _pMsg$[ebp+8], eax

; 3339 : 	memcpy(pMsg.szEnemyGuildName, gObj[aIndex].GuildName, 8);

  0002f	69 c0 64 15 00
	00		 imul	 eax, 5476		; 00001564H
  00035	8b 88 b8 02 00
	00		 mov	 ecx, DWORD PTR ?gObj@@3PAUOBJECTSTRUCT@@A[eax+696]
  0003b	66 89 55 ec	 mov	 WORD PTR _pMsg$[ebp+4], dx
  0003f	8b 90 bc 02 00
	00		 mov	 edx, DWORD PTR ?gObj@@3PAUOBJECTSTRUCT@@A[eax+700]

; 3340 : 	
; 3341 : 	cDBSMng.Send((char*)&pMsg, pMsg.h.size);

  00045	6a 14		 push	 20			; 00000014H
  00047	8d 45 e8	 lea	 eax, DWORD PTR _pMsg$[ebp]
  0004a	89 4d f4	 mov	 DWORD PTR _pMsg$[ebp+12], ecx
  0004d	50		 push	 eax
  0004e	b9 00 00 00 00	 mov	 ecx, OFFSET ?cDBSMng@@3VDBSockMng@@A ; cDBSMng
  00053	c7 45 e8 c1 14
	80 0d		 mov	 DWORD PTR _pMsg$[ebp], 226497729 ; 0d8014c1H
  0005a	89 55 f8	 mov	 DWORD PTR _pMsg$[ebp+16], edx
  0005d	e8 00 00 00 00	 call	 ?Send@DBSockMng@@QAEHPADH@Z ; DBSockMng::Send
$LN3@GS_GDReqRe:

; 3342 : }

  00062	8b 4d fc	 mov	 ecx, DWORD PTR __$ArrayPad$[ebp]
  00065	33 cd		 xor	 ecx, ebp
  00067	e8 00 00 00 00	 call	 @__security_check_cookie@4
  0006c	8b e5		 mov	 esp, ebp
  0006e	5d		 pop	 ebp
  0006f	c3		 ret	 0
?GS_GDReqRegAttackGuild@@YAXHH@Z ENDP			; GS_GDReqRegAttackGuild
_TEXT	ENDS
PUBLIC	?GS_GDReqRestartCastleState@@YAXH@Z		; GS_GDReqRestartCastleState
; Function compile flags: /Ogtp
;	COMDAT ?GS_GDReqRestartCastleState@@YAXH@Z
_TEXT	SEGMENT
_pMsg$ = -8						; size = 6
_iMapSvrGroup$ = 8					; size = 4
?GS_GDReqRestartCastleState@@YAXH@Z PROC		; GS_GDReqRestartCastleState, COMDAT

; 3361 : {

  00000	55		 push	 ebp
  00001	8b ec		 mov	 ebp, esp

; 3362 : 	if ( iMapSvrGroup < 0 )

  00003	8b 45 08	 mov	 eax, DWORD PTR _iMapSvrGroup$[ebp]
  00006	83 ec 08	 sub	 esp, 8
  00009	85 c0		 test	 eax, eax
  0000b	78 1b		 js	 SHORT $LN2@GS_GDReqRe@2

; 3363 : 	{
; 3364 : 		return;
; 3365 : 	}
; 3366 : 
; 3367 : 	CSP_REQ_CASTLESIEGEEND pMsg;
; 3368 : 
; 3369 : 	pMsg.h.set((LPBYTE)&pMsg, 0x80, 0x0E, sizeof(CSP_REQ_CASTLESIEGEEND));
; 3370 : 	pMsg.wMapSvrNum = iMapSvrGroup;

  0000d	66 89 45 fc	 mov	 WORD PTR _pMsg$[ebp+4], ax

; 3371 : 	
; 3372 : 	cDBSMng.Send((char*)&pMsg, pMsg.h.size);

  00011	6a 06		 push	 6
  00013	8d 45 f8	 lea	 eax, DWORD PTR _pMsg$[ebp]
  00016	50		 push	 eax
  00017	b9 00 00 00 00	 mov	 ecx, OFFSET ?cDBSMng@@3VDBSockMng@@A ; cDBSMng
  0001c	c7 45 f8 c1 06
	80 0e		 mov	 DWORD PTR _pMsg$[ebp], 243271361 ; 0e8006c1H
  00023	e8 00 00 00 00	 call	 ?Send@DBSockMng@@QAEHPADH@Z ; DBSockMng::Send
$LN2@GS_GDReqRe@2:

; 3373 : }

  00028	8b e5		 mov	 esp, ebp
  0002a	5d		 pop	 ebp
  0002b	c3		 ret	 0
?GS_GDReqRestartCastleState@@YAXH@Z ENDP		; GS_GDReqRestartCastleState
_TEXT	ENDS
PUBLIC	__$ArrayPad$
PUBLIC	?GS_GDReqMapSvrMsgMultiCast@@YAXHPAD@Z		; GS_GDReqMapSvrMsgMultiCast
; Function compile flags: /Ogtp
;	COMDAT ?GS_GDReqMapSvrMsgMultiCast@@YAXHPAD@Z
_TEXT	SEGMENT
_pMsg$ = -140						; size = 134
__$ArrayPad$ = -4					; size = 4
_iMapSvrGroup$ = 8					; size = 4
_lpszMsgText$ = 12					; size = 4
?GS_GDReqMapSvrMsgMultiCast@@YAXHPAD@Z PROC		; GS_GDReqMapSvrMsgMultiCast, COMDAT

; 3393 : {

  00000	55		 push	 ebp
  00001	8b ec		 mov	 ebp, esp
  00003	81 ec 8c 00 00
	00		 sub	 esp, 140		; 0000008cH
  00009	a1 00 00 00 00	 mov	 eax, DWORD PTR ___security_cookie
  0000e	33 c5		 xor	 eax, ebp
  00010	89 45 fc	 mov	 DWORD PTR __$ArrayPad$[ebp], eax

; 3394 : 	if ( iMapSvrGroup < 0 )

  00013	8b 4d 08	 mov	 ecx, DWORD PTR _iMapSvrGroup$[ebp]
  00016	85 c9		 test	 ecx, ecx
  00018	78 4c		 js	 SHORT $LN3@GS_GDReqMa

; 3395 : 	{
; 3396 : 		return;
; 3397 : 	}
; 3398 : 
; 3399 : 	if ( lpszMsgText == NULL )

  0001a	8b 45 0c	 mov	 eax, DWORD PTR _lpszMsgText$[ebp]
  0001d	85 c0		 test	 eax, eax
  0001f	74 45		 je	 SHORT $LN3@GS_GDReqMa

; 3400 : 	{
; 3401 : 		return;
; 3402 : 	}
; 3403 : 
; 3404 : 
; 3405 : 	CSP_REQ_MAPSVRMULTICAST pMsg;
; 3406 : 
; 3407 : 	pMsg.h.set((LPBYTE)&pMsg, 0x80, 0x0F, sizeof(CSP_REQ_MAPSVRMULTICAST));
; 3408 : 	pMsg.wMapSvrNum = iMapSvrGroup;
; 3409 : 	strcpy(pMsg.szMsgText, lpszMsgText);

  00021	8d 95 7a ff ff
	ff		 lea	 edx, DWORD PTR _pMsg$[ebp+6]
  00027	c7 85 74 ff ff
	ff c1 86 80 0f	 mov	 DWORD PTR _pMsg$[ebp], 260081345 ; 0f8086c1H
  00031	66 89 8d 78 ff
	ff ff		 mov	 WORD PTR _pMsg$[ebp+4], cx
  00038	2b d0		 sub	 edx, eax
  0003a	8d 9b 00 00 00
	00		 npad	 6
$LL5@GS_GDReqMa:
  00040	8a 08		 mov	 cl, BYTE PTR [eax]
  00042	88 0c 02	 mov	 BYTE PTR [edx+eax], cl
  00045	40		 inc	 eax
  00046	84 c9		 test	 cl, cl
  00048	75 f6		 jne	 SHORT $LL5@GS_GDReqMa

; 3410 : 	pMsg.szMsgText[127] = 0;
; 3411 : 	
; 3412 : 	cDBSMng.Send((char*)&pMsg, pMsg.h.size);

  0004a	0f b6 85 75 ff
	ff ff		 movzx	 eax, BYTE PTR _pMsg$[ebp+1]
  00051	88 4d f9	 mov	 BYTE PTR _pMsg$[ebp+133], cl
  00054	50		 push	 eax
  00055	8d 8d 74 ff ff
	ff		 lea	 ecx, DWORD PTR _pMsg$[ebp]
  0005b	51		 push	 ecx
  0005c	b9 00 00 00 00	 mov	 ecx, OFFSET ?cDBSMng@@3VDBSockMng@@A ; cDBSMng
  00061	e8 00 00 00 00	 call	 ?Send@DBSockMng@@QAEHPADH@Z ; DBSockMng::Send
$LN3@GS_GDReqMa:

; 3413 : }

  00066	8b 4d fc	 mov	 ecx, DWORD PTR __$ArrayPad$[ebp]
  00069	33 cd		 xor	 ecx, ebp
  0006b	e8 00 00 00 00	 call	 @__security_check_cookie@4
  00070	8b e5		 mov	 esp, ebp
  00072	5d		 pop	 ebp
  00073	c3		 ret	 0
?GS_GDReqMapSvrMsgMultiCast@@YAXHPAD@Z ENDP		; GS_GDReqMapSvrMsgMultiCast
_TEXT	ENDS
PUBLIC	__$ArrayPad$
PUBLIC	?GS_GDReqRegGuildMark@@YAXHHH@Z			; GS_GDReqRegGuildMark
; Function compile flags: /Ogtp
;	COMDAT ?GS_GDReqRegGuildMark@@YAXHHH@Z
_TEXT	SEGMENT
_pMsg$ = -28						; size = 24
__$ArrayPad$ = -4					; size = 4
_iMapSvrGroup$ = 8					; size = 4
_aIndex$ = 12						; size = 4
_iItemPos$ = 16						; size = 4
?GS_GDReqRegGuildMark@@YAXHHH@Z PROC			; GS_GDReqRegGuildMark, COMDAT

; 3435 : {

  00000	55		 push	 ebp
  00001	8b ec		 mov	 ebp, esp
  00003	83 ec 1c	 sub	 esp, 28			; 0000001cH
  00006	a1 00 00 00 00	 mov	 eax, DWORD PTR ___security_cookie
  0000b	33 c5		 xor	 eax, ebp
  0000d	89 45 fc	 mov	 DWORD PTR __$ArrayPad$[ebp], eax

; 3436 : 	if ( iMapSvrGroup < 0 )

  00010	8b 55 08	 mov	 edx, DWORD PTR _iMapSvrGroup$[ebp]
  00013	8b 45 0c	 mov	 eax, DWORD PTR _aIndex$[ebp]
  00016	85 d2		 test	 edx, edx
  00018	78 4e		 js	 SHORT $LN3@GS_GDReqRe@3

; 3437 : 	{
; 3438 : 		return;
; 3439 : 	}
; 3440 : 
; 3441 : 	if ( OBJMAX_RANGE(aIndex) == FALSE )

  0001a	85 c0		 test	 eax, eax
  0001c	78 4a		 js	 SHORT $LN3@GS_GDReqRe@3
  0001e	33 c9		 xor	 ecx, ecx
  00020	3d e7 1c 00 00	 cmp	 eax, 7399		; 00001ce7H
  00025	0f 9e c1	 setle	 cl
  00028	85 c9		 test	 ecx, ecx
  0002a	74 3c		 je	 SHORT $LN3@GS_GDReqRe@3

; 3442 : 	{
; 3443 : 		return;
; 3444 : 	}
; 3445 : 
; 3446 : 
; 3447 : 	CSP_REQ_GUILDREGMARK pMsg;
; 3448 : 
; 3449 : 	pMsg.h.set((LPBYTE)&pMsg, 0x80, 0x10, sizeof(CSP_REQ_GUILDREGMARK));
; 3450 : 	pMsg.wMapSvrNum = iMapSvrGroup;
; 3451 : 	pMsg.iIndex = aIndex;
; 3452 : 	pMsg.iItemPos = iItemPos;

  0002c	8b 4d 10	 mov	 ecx, DWORD PTR _iItemPos$[ebp]
  0002f	89 45 ec	 mov	 DWORD PTR _pMsg$[ebp+8], eax

; 3453 : 	memcpy(pMsg.szGuildName, gObj[aIndex].GuildName, sizeof(pMsg.szGuildName));

  00032	69 c0 64 15 00
	00		 imul	 eax, 5476		; 00001564H
  00038	89 4d f8	 mov	 DWORD PTR _pMsg$[ebp+20], ecx
  0003b	66 89 55 e8	 mov	 WORD PTR _pMsg$[ebp+4], dx
  0003f	8b 90 b8 02 00
	00		 mov	 edx, DWORD PTR ?gObj@@3PAUOBJECTSTRUCT@@A[eax+696]
  00045	8b 80 bc 02 00
	00		 mov	 eax, DWORD PTR ?gObj@@3PAUOBJECTSTRUCT@@A[eax+700]

; 3454 : 	
; 3455 : 	cDBSMng.Send((char*)&pMsg, pMsg.h.size);

  0004b	6a 18		 push	 24			; 00000018H
  0004d	8d 4d e4	 lea	 ecx, DWORD PTR _pMsg$[ebp]
  00050	51		 push	 ecx
  00051	b9 00 00 00 00	 mov	 ecx, OFFSET ?cDBSMng@@3VDBSockMng@@A ; cDBSMng
  00056	c7 45 e4 c1 18
	80 10		 mov	 DWORD PTR _pMsg$[ebp], 276830401 ; 108018c1H
  0005d	89 55 f0	 mov	 DWORD PTR _pMsg$[ebp+12], edx
  00060	89 45 f4	 mov	 DWORD PTR _pMsg$[ebp+16], eax
  00063	e8 00 00 00 00	 call	 ?Send@DBSockMng@@QAEHPADH@Z ; DBSockMng::Send
$LN3@GS_GDReqRe@3:

; 3456 : }

  00068	8b 4d fc	 mov	 ecx, DWORD PTR __$ArrayPad$[ebp]
  0006b	33 cd		 xor	 ecx, ebp
  0006d	e8 00 00 00 00	 call	 @__security_check_cookie@4
  00072	8b e5		 mov	 esp, ebp
  00074	5d		 pop	 ebp
  00075	c3		 ret	 0
?GS_GDReqRegGuildMark@@YAXHHH@Z ENDP			; GS_GDReqRegGuildMark
_TEXT	ENDS
PUBLIC	__$ArrayPad$
PUBLIC	?GS_GDReqGuildMarkReset@@YAXHHPAD@Z		; GS_GDReqGuildMarkReset
; Function compile flags: /Ogtp
;	COMDAT ?GS_GDReqGuildMarkReset@@YAXHHPAD@Z
_TEXT	SEGMENT
_pMsg$ = -24						; size = 20
__$ArrayPad$ = -4					; size = 4
_iMapSvrGroup$ = 8					; size = 4
_aIndex$ = 12						; size = 4
_lpszGuildName$ = 16					; size = 4
?GS_GDReqGuildMarkReset@@YAXHHPAD@Z PROC		; GS_GDReqGuildMarkReset, COMDAT

; 3476 : {

  00000	55		 push	 ebp
  00001	8b ec		 mov	 ebp, esp
  00003	83 ec 18	 sub	 esp, 24			; 00000018H
  00006	a1 00 00 00 00	 mov	 eax, DWORD PTR ___security_cookie
  0000b	33 c5		 xor	 eax, ebp
  0000d	89 45 fc	 mov	 DWORD PTR __$ArrayPad$[ebp], eax
  00010	8b 45 10	 mov	 eax, DWORD PTR _lpszGuildName$[ebp]
  00013	56		 push	 esi

; 3477 : 	if ( iMapSvrGroup < 0 )

  00014	8b 75 08	 mov	 esi, DWORD PTR _iMapSvrGroup$[ebp]
  00017	85 f6		 test	 esi, esi
  00019	78 43		 js	 SHORT $LN4@GS_GDReqGu@2

; 3478 : 	{
; 3479 : 		return;
; 3480 : 	}
; 3481 : 
; 3482 : 	if ( OBJMAX_RANGE(aIndex) == FALSE )

  0001b	8b 4d 0c	 mov	 ecx, DWORD PTR _aIndex$[ebp]
  0001e	85 c9		 test	 ecx, ecx
  00020	78 3c		 js	 SHORT $LN4@GS_GDReqGu@2
  00022	33 d2		 xor	 edx, edx
  00024	81 f9 e7 1c 00
	00		 cmp	 ecx, 7399		; 00001ce7H
  0002a	0f 9e c2	 setle	 dl
  0002d	85 d2		 test	 edx, edx
  0002f	74 2d		 je	 SHORT $LN4@GS_GDReqGu@2

; 3483 : 	{
; 3484 : 		return;
; 3485 : 	}
; 3486 : 
; 3487 : 	if ( lpszGuildName == NULL )

  00031	85 c0		 test	 eax, eax
  00033	74 29		 je	 SHORT $LN4@GS_GDReqGu@2

; 3488 : 	{
; 3489 : 		return;
; 3490 : 	}
; 3491 : 
; 3492 : 	CSP_REQ_GUILDRESETMARK pMsg;
; 3493 : 
; 3494 : 	pMsg.h.set((LPBYTE)&pMsg, 0x80, 0x11, sizeof(CSP_REQ_GUILDRESETMARK));
; 3495 : 	pMsg.wMapSvrNum = iMapSvrGroup;
; 3496 : 	pMsg.iIndex = aIndex;
; 3497 : 	memcpy(pMsg.szGuildName, lpszGuildName, 8);

  00035	8b 50 04	 mov	 edx, DWORD PTR [eax+4]
  00038	89 4d f0	 mov	 DWORD PTR _pMsg$[ebp+8], ecx
  0003b	8b 08		 mov	 ecx, DWORD PTR [eax]

; 3498 : 	
; 3499 : 	cDBSMng.Send((char*)&pMsg, pMsg.h.size);

  0003d	6a 14		 push	 20			; 00000014H
  0003f	8d 45 e8	 lea	 eax, DWORD PTR _pMsg$[ebp]
  00042	89 4d f4	 mov	 DWORD PTR _pMsg$[ebp+12], ecx
  00045	50		 push	 eax
  00046	b9 00 00 00 00	 mov	 ecx, OFFSET ?cDBSMng@@3VDBSockMng@@A ; cDBSMng
  0004b	c7 45 e8 c1 14
	80 11		 mov	 DWORD PTR _pMsg$[ebp], 293606593 ; 118014c1H
  00052	66 89 75 ec	 mov	 WORD PTR _pMsg$[ebp+4], si
  00056	89 55 f8	 mov	 DWORD PTR _pMsg$[ebp+16], edx
  00059	e8 00 00 00 00	 call	 ?Send@DBSockMng@@QAEHPADH@Z ; DBSockMng::Send
$LN4@GS_GDReqGu@2:

; 3500 : }

  0005e	8b 4d fc	 mov	 ecx, DWORD PTR __$ArrayPad$[ebp]
  00061	33 cd		 xor	 ecx, ebp
  00063	5e		 pop	 esi
  00064	e8 00 00 00 00	 call	 @__security_check_cookie@4
  00069	8b e5		 mov	 esp, ebp
  0006b	5d		 pop	 ebp
  0006c	c3		 ret	 0
?GS_GDReqGuildMarkReset@@YAXHHPAD@Z ENDP		; GS_GDReqGuildMarkReset
_TEXT	ENDS
PUBLIC	__$ArrayPad$
PUBLIC	?GS_GDReqGuildSetGiveUp@@YAXHHH@Z		; GS_GDReqGuildSetGiveUp
; Function compile flags: /Ogtp
;	COMDAT ?GS_GDReqGuildSetGiveUp@@YAXHHH@Z
_TEXT	SEGMENT
_pMsg$ = -28						; size = 24
__$ArrayPad$ = -4					; size = 4
_iMapSvrGroup$ = 8					; size = 4
_aIndex$ = 12						; size = 4
_bIsGiveUp$ = 16					; size = 4
?GS_GDReqGuildSetGiveUp@@YAXHHH@Z PROC			; GS_GDReqGuildSetGiveUp, COMDAT

; 3521 : {

  00000	55		 push	 ebp
  00001	8b ec		 mov	 ebp, esp
  00003	83 ec 1c	 sub	 esp, 28			; 0000001cH
  00006	a1 00 00 00 00	 mov	 eax, DWORD PTR ___security_cookie
  0000b	33 c5		 xor	 eax, ebp
  0000d	89 45 fc	 mov	 DWORD PTR __$ArrayPad$[ebp], eax

; 3522 : 	if ( iMapSvrGroup < 0 )

  00010	8b 55 08	 mov	 edx, DWORD PTR _iMapSvrGroup$[ebp]
  00013	8b 45 0c	 mov	 eax, DWORD PTR _aIndex$[ebp]
  00016	85 d2		 test	 edx, edx
  00018	78 4e		 js	 SHORT $LN3@GS_GDReqGu@3

; 3523 : 	{
; 3524 : 		return;
; 3525 : 	}
; 3526 : 
; 3527 : 	if ( OBJMAX_RANGE(aIndex) == FALSE )

  0001a	85 c0		 test	 eax, eax
  0001c	78 4a		 js	 SHORT $LN3@GS_GDReqGu@3
  0001e	33 c9		 xor	 ecx, ecx
  00020	3d e7 1c 00 00	 cmp	 eax, 7399		; 00001ce7H
  00025	0f 9e c1	 setle	 cl
  00028	85 c9		 test	 ecx, ecx
  0002a	74 3c		 je	 SHORT $LN3@GS_GDReqGu@3

; 3528 : 	{
; 3529 : 		return;
; 3530 : 	}
; 3531 : 
; 3532 : 	CSP_REQ_GUILDSETGIVEUP pMsg;
; 3533 : 
; 3534 : 	pMsg.h.set((LPBYTE)&pMsg, 0x80, 0x12, sizeof(CSP_REQ_GUILDSETGIVEUP));
; 3535 : 	pMsg.wMapSvrNum = iMapSvrGroup;
; 3536 : 	pMsg.iIndex = aIndex;
; 3537 : 	pMsg.bIsGiveUp = bIsGiveUp;

  0002c	8b 4d 10	 mov	 ecx, DWORD PTR _bIsGiveUp$[ebp]
  0002f	89 45 ec	 mov	 DWORD PTR _pMsg$[ebp+8], eax

; 3538 : 	memcpy(pMsg.szGuildName, gObj[aIndex].GuildName, 8);

  00032	69 c0 64 15 00
	00		 imul	 eax, 5476		; 00001564H
  00038	89 4d f8	 mov	 DWORD PTR _pMsg$[ebp+20], ecx
  0003b	66 89 55 e8	 mov	 WORD PTR _pMsg$[ebp+4], dx
  0003f	8b 90 b8 02 00
	00		 mov	 edx, DWORD PTR ?gObj@@3PAUOBJECTSTRUCT@@A[eax+696]
  00045	8b 80 bc 02 00
	00		 mov	 eax, DWORD PTR ?gObj@@3PAUOBJECTSTRUCT@@A[eax+700]

; 3539 : 	
; 3540 : 	cDBSMng.Send((char*)&pMsg, pMsg.h.size);

  0004b	6a 18		 push	 24			; 00000018H
  0004d	8d 4d e4	 lea	 ecx, DWORD PTR _pMsg$[ebp]
  00050	51		 push	 ecx
  00051	b9 00 00 00 00	 mov	 ecx, OFFSET ?cDBSMng@@3VDBSockMng@@A ; cDBSMng
  00056	c7 45 e4 c1 18
	80 12		 mov	 DWORD PTR _pMsg$[ebp], 310384833 ; 128018c1H
  0005d	89 55 f0	 mov	 DWORD PTR _pMsg$[ebp+12], edx
  00060	89 45 f4	 mov	 DWORD PTR _pMsg$[ebp+16], eax
  00063	e8 00 00 00 00	 call	 ?Send@DBSockMng@@QAEHPADH@Z ; DBSockMng::Send
$LN3@GS_GDReqGu@3:

; 3541 : }

  00068	8b 4d fc	 mov	 ecx, DWORD PTR __$ArrayPad$[ebp]
  0006b	33 cd		 xor	 ecx, ebp
  0006d	e8 00 00 00 00	 call	 @__security_check_cookie@4
  00072	8b e5		 mov	 esp, ebp
  00074	5d		 pop	 ebp
  00075	c3		 ret	 0
?GS_GDReqGuildSetGiveUp@@YAXHHH@Z ENDP			; GS_GDReqGuildSetGiveUp
_TEXT	ENDS
PUBLIC	__$ArrayPad$
PUBLIC	?GS_GDReqNpcRemove@@YAXHHH@Z			; GS_GDReqNpcRemove
; Function compile flags: /Ogtp
;	COMDAT ?GS_GDReqNpcRemove@@YAXHHH@Z
_TEXT	SEGMENT
_pMsg$ = -20						; size = 16
__$ArrayPad$ = -4					; size = 4
_iMapSvrGroup$ = 8					; size = 4
_iNpcNumber$ = 12					; size = 4
_iNpcIndex$ = 16					; size = 4
?GS_GDReqNpcRemove@@YAXHHH@Z PROC			; GS_GDReqNpcRemove, COMDAT

; 3562 : {

  00000	55		 push	 ebp
  00001	8b ec		 mov	 ebp, esp
  00003	83 ec 14	 sub	 esp, 20			; 00000014H
  00006	a1 00 00 00 00	 mov	 eax, DWORD PTR ___security_cookie
  0000b	33 c5		 xor	 eax, ebp
  0000d	89 45 fc	 mov	 DWORD PTR __$ArrayPad$[ebp], eax

; 3563 : 	if ( iMapSvrGroup < 0 )

  00010	8b 45 08	 mov	 eax, DWORD PTR _iMapSvrGroup$[ebp]
  00013	85 c0		 test	 eax, eax
  00015	78 27		 js	 SHORT $LN2@GS_GDReqNp

; 3564 : 	{
; 3565 : 		return;
; 3566 : 	}
; 3567 : 
; 3568 : 	CSP_REQ_NPCREMOVE pMsg;
; 3569 : 
; 3570 : 	pMsg.h.set((LPBYTE)&pMsg, 0x80, 0x16, sizeof(CSP_REQ_NPCREMOVE));
; 3571 : 	pMsg.wMapSvrNum = iMapSvrGroup;
; 3572 : 	pMsg.iNpcNumber = iNpcNumber;
; 3573 : 	pMsg.iNpcIndex = iNpcIndex;

  00017	8b 4d 10	 mov	 ecx, DWORD PTR _iNpcIndex$[ebp]
  0001a	66 89 45 f0	 mov	 WORD PTR _pMsg$[ebp+4], ax
  0001e	8b 45 0c	 mov	 eax, DWORD PTR _iNpcNumber$[ebp]

; 3574 : 	
; 3575 : 	cDBSMng.Send((char*)&pMsg, pMsg.h.size);

  00021	6a 10		 push	 16			; 00000010H
  00023	8d 55 ec	 lea	 edx, DWORD PTR _pMsg$[ebp]
  00026	89 4d f8	 mov	 DWORD PTR _pMsg$[ebp+12], ecx
  00029	52		 push	 edx
  0002a	b9 00 00 00 00	 mov	 ecx, OFFSET ?cDBSMng@@3VDBSockMng@@A ; cDBSMng
  0002f	c7 45 ec c1 10
	80 16		 mov	 DWORD PTR _pMsg$[ebp], 377491649 ; 168010c1H
  00036	89 45 f4	 mov	 DWORD PTR _pMsg$[ebp+8], eax
  00039	e8 00 00 00 00	 call	 ?Send@DBSockMng@@QAEHPADH@Z ; DBSockMng::Send
$LN2@GS_GDReqNp:

; 3576 : }

  0003e	8b 4d fc	 mov	 ecx, DWORD PTR __$ArrayPad$[ebp]
  00041	33 cd		 xor	 ecx, ebp
  00043	e8 00 00 00 00	 call	 @__security_check_cookie@4
  00048	8b e5		 mov	 esp, ebp
  0004a	5d		 pop	 ebp
  0004b	c3		 ret	 0
?GS_GDReqNpcRemove@@YAXHHH@Z ENDP			; GS_GDReqNpcRemove
_TEXT	ENDS
PUBLIC	__$ArrayPad$
PUBLIC	?GS_GDReqCastleStateSync@@YAXHHHHHPAD@Z		; GS_GDReqCastleStateSync
; Function compile flags: /Ogtp
;	COMDAT ?GS_GDReqCastleStateSync@@YAXHHHHHPAD@Z
_TEXT	SEGMENT
_pMsg$ = -36						; size = 32
__$ArrayPad$ = -4					; size = 4
_iMapSvrGroup$ = 8					; size = 4
_iCastleState$ = 12					; size = 4
_iTaxRateChaos$ = 16					; size = 4
_iTaxRateStore$ = 20					; size = 4
_iTaxHuntZone$ = 24					; size = 4
_lpszOwnerGuild$ = 28					; size = 4
?GS_GDReqCastleStateSync@@YAXHHHHHPAD@Z PROC		; GS_GDReqCastleStateSync, COMDAT

; 3599 : {

  00000	55		 push	 ebp
  00001	8b ec		 mov	 ebp, esp
  00003	83 ec 24	 sub	 esp, 36			; 00000024H
  00006	a1 00 00 00 00	 mov	 eax, DWORD PTR ___security_cookie
  0000b	33 c5		 xor	 eax, ebp
  0000d	89 45 fc	 mov	 DWORD PTR __$ArrayPad$[ebp], eax

; 3600 : 	if ( iMapSvrGroup < 0 )

  00010	8b 4d 08	 mov	 ecx, DWORD PTR _iMapSvrGroup$[ebp]
  00013	8b 45 1c	 mov	 eax, DWORD PTR _lpszOwnerGuild$[ebp]
  00016	85 c9		 test	 ecx, ecx
  00018	78 3e		 js	 SHORT $LN2@GS_GDReqCa@7

; 3601 : 	{
; 3602 : 		return;
; 3603 : 	}
; 3604 : 
; 3605 : 	CSP_REQ_CASTLESTATESYNC pMsg;
; 3606 : 
; 3607 : 	pMsg.h.set((LPBYTE)&pMsg, 0x80, 0x17, sizeof(CSP_REQ_CASTLESTATESYNC));
; 3608 : 	pMsg.wMapSvrNum = iMapSvrGroup;
; 3609 : 	pMsg.iCastleState = iCastleState;
; 3610 : 	pMsg.iTaxRateChaos = iTaxRateChaos;

  0001a	8b 55 10	 mov	 edx, DWORD PTR _iTaxRateChaos$[ebp]
  0001d	66 89 4d e0	 mov	 WORD PTR _pMsg$[ebp+4], cx
  00021	8b 4d 0c	 mov	 ecx, DWORD PTR _iCastleState$[ebp]
  00024	89 4d e4	 mov	 DWORD PTR _pMsg$[ebp+8], ecx

; 3611 : 	pMsg.iTaxRateStore = iTaxRateStore;

  00027	8b 4d 14	 mov	 ecx, DWORD PTR _iTaxRateStore$[ebp]
  0002a	89 55 e8	 mov	 DWORD PTR _pMsg$[ebp+12], edx

; 3612 : 	pMsg.iTaxHuntZone = iTaxHuntZone;

  0002d	8b 55 18	 mov	 edx, DWORD PTR _iTaxHuntZone$[ebp]
  00030	89 4d ec	 mov	 DWORD PTR _pMsg$[ebp+16], ecx

; 3613 : 	memcpy(pMsg.szOwnerGuildName, lpszOwnerGuild, 8);

  00033	8b 08		 mov	 ecx, DWORD PTR [eax]
  00035	89 55 f0	 mov	 DWORD PTR _pMsg$[ebp+20], edx
  00038	8b 50 04	 mov	 edx, DWORD PTR [eax+4]

; 3614 : 	
; 3615 : 	cDBSMng.Send((char*)&pMsg, pMsg.h.size);

  0003b	6a 20		 push	 32			; 00000020H
  0003d	8d 45 dc	 lea	 eax, DWORD PTR _pMsg$[ebp]
  00040	89 4d f4	 mov	 DWORD PTR _pMsg$[ebp+24], ecx
  00043	50		 push	 eax
  00044	b9 00 00 00 00	 mov	 ecx, OFFSET ?cDBSMng@@3VDBSockMng@@A ; cDBSMng
  00049	c7 45 dc c1 20
	80 17		 mov	 DWORD PTR _pMsg$[ebp], 394272961 ; 178020c1H
  00050	89 55 f8	 mov	 DWORD PTR _pMsg$[ebp+28], edx
  00053	e8 00 00 00 00	 call	 ?Send@DBSockMng@@QAEHPADH@Z ; DBSockMng::Send
$LN2@GS_GDReqCa@7:

; 3616 : }

  00058	8b 4d fc	 mov	 ecx, DWORD PTR __$ArrayPad$[ebp]
  0005b	33 cd		 xor	 ecx, ebp
  0005d	e8 00 00 00 00	 call	 @__security_check_cookie@4
  00062	8b e5		 mov	 esp, ebp
  00064	5d		 pop	 ebp
  00065	c3		 ret	 0
?GS_GDReqCastleStateSync@@YAXHHHHHPAD@Z ENDP		; GS_GDReqCastleStateSync
_TEXT	ENDS
PUBLIC	__$ArrayPad$
PUBLIC	?GS_GDReqCastleTributeMoney@@YAXHH@Z		; GS_GDReqCastleTributeMoney
; Function compile flags: /Ogtp
;	COMDAT ?GS_GDReqCastleTributeMoney@@YAXHH@Z
_TEXT	SEGMENT
_pMsg$ = -16						; size = 12
__$ArrayPad$ = -4					; size = 4
_iMapSvrGroup$ = 8					; size = 4
_iCastleTributeMoney$ = 12				; size = 4
?GS_GDReqCastleTributeMoney@@YAXHH@Z PROC		; GS_GDReqCastleTributeMoney, COMDAT

; 3638 : {

  00000	55		 push	 ebp
  00001	8b ec		 mov	 ebp, esp
  00003	83 ec 10	 sub	 esp, 16			; 00000010H
  00006	a1 00 00 00 00	 mov	 eax, DWORD PTR ___security_cookie
  0000b	33 c5		 xor	 eax, ebp
  0000d	89 45 fc	 mov	 DWORD PTR __$ArrayPad$[ebp], eax

; 3639 : 	if ( iMapSvrGroup < 0 )

  00010	8b 4d 08	 mov	 ecx, DWORD PTR _iMapSvrGroup$[ebp]
  00013	85 c9		 test	 ecx, ecx
  00015	78 25		 js	 SHORT $LN3@GS_GDReqCa@8

; 3640 : 	{
; 3641 : 		return;
; 3642 : 	}
; 3643 : 
; 3644 : 	if ( iCastleTributeMoney < 0 )

  00017	8b 45 0c	 mov	 eax, DWORD PTR _iCastleTributeMoney$[ebp]
  0001a	85 c0		 test	 eax, eax
  0001c	78 1e		 js	 SHORT $LN3@GS_GDReqCa@8

; 3645 : 	{
; 3646 : 		return;
; 3647 : 	}
; 3648 : 
; 3649 : 	CSP_REQ_CASTLETRIBUTEMONEY pMsg;
; 3650 : 
; 3651 : 	pMsg.h.set((LPBYTE)&pMsg, 0x80, 0x18, sizeof(CSP_REQ_CASTLETRIBUTEMONEY));
; 3652 : 	pMsg.wMapSvrNum = iMapSvrGroup;
; 3653 : 	pMsg.iCastleTributeMoney = iCastleTributeMoney;

  0001e	89 45 f8	 mov	 DWORD PTR _pMsg$[ebp+8], eax

; 3654 : 
; 3655 : 	cDBSMng.Send((char*)&pMsg, pMsg.h.size);

  00021	6a 0c		 push	 12			; 0000000cH
  00023	8d 45 f0	 lea	 eax, DWORD PTR _pMsg$[ebp]
  00026	66 89 4d f4	 mov	 WORD PTR _pMsg$[ebp+4], cx
  0002a	50		 push	 eax
  0002b	b9 00 00 00 00	 mov	 ecx, OFFSET ?cDBSMng@@3VDBSockMng@@A ; cDBSMng
  00030	c7 45 f0 c1 0c
	80 18		 mov	 DWORD PTR _pMsg$[ebp], 411045057 ; 18800cc1H
  00037	e8 00 00 00 00	 call	 ?Send@DBSockMng@@QAEHPADH@Z ; DBSockMng::Send
$LN3@GS_GDReqCa@8:

; 3656 : }

  0003c	8b 4d fc	 mov	 ecx, DWORD PTR __$ArrayPad$[ebp]
  0003f	33 cd		 xor	 ecx, ebp
  00041	e8 00 00 00 00	 call	 @__security_check_cookie@4
  00046	8b e5		 mov	 esp, ebp
  00048	5d		 pop	 ebp
  00049	c3		 ret	 0
?GS_GDReqCastleTributeMoney@@YAXHH@Z ENDP		; GS_GDReqCastleTributeMoney
_TEXT	ENDS
PUBLIC	?GS_GDReqResetCastleTaxInfo@@YAXH@Z		; GS_GDReqResetCastleTaxInfo
; Function compile flags: /Ogtp
;	COMDAT ?GS_GDReqResetCastleTaxInfo@@YAXH@Z
_TEXT	SEGMENT
_pMsg$ = -8						; size = 6
_iMapSvrGroup$ = 8					; size = 4
?GS_GDReqResetCastleTaxInfo@@YAXH@Z PROC		; GS_GDReqResetCastleTaxInfo, COMDAT

; 3675 : {

  00000	55		 push	 ebp
  00001	8b ec		 mov	 ebp, esp

; 3676 : 	if ( iMapSvrGroup < 0 )

  00003	8b 45 08	 mov	 eax, DWORD PTR _iMapSvrGroup$[ebp]
  00006	83 ec 08	 sub	 esp, 8
  00009	85 c0		 test	 eax, eax
  0000b	78 1b		 js	 SHORT $LN2@GS_GDReqRe@4

; 3677 : 	{
; 3678 : 		return;
; 3679 : 	}
; 3680 : 
; 3681 : 	CSP_REQ_RESETCASTLETAXINFO pMsg;
; 3682 : 
; 3683 : 	pMsg.h.set((LPBYTE)&pMsg, 0x80, 0x19, sizeof(CSP_REQ_RESETCASTLETAXINFO));
; 3684 : 	pMsg.wMapSvrNum = iMapSvrGroup;

  0000d	66 89 45 fc	 mov	 WORD PTR _pMsg$[ebp+4], ax

; 3685 : 
; 3686 : 	cDBSMng.Send((char*)&pMsg, pMsg.h.size);

  00011	6a 06		 push	 6
  00013	8d 45 f8	 lea	 eax, DWORD PTR _pMsg$[ebp]
  00016	50		 push	 eax
  00017	b9 00 00 00 00	 mov	 ecx, OFFSET ?cDBSMng@@3VDBSockMng@@A ; cDBSMng
  0001c	c7 45 f8 c1 06
	80 19		 mov	 DWORD PTR _pMsg$[ebp], 427820737 ; 198006c1H
  00023	e8 00 00 00 00	 call	 ?Send@DBSockMng@@QAEHPADH@Z ; DBSockMng::Send
$LN2@GS_GDReqRe@4:

; 3687 : }

  00028	8b e5		 mov	 esp, ebp
  0002a	5d		 pop	 ebp
  0002b	c3		 ret	 0
?GS_GDReqResetCastleTaxInfo@@YAXH@Z ENDP		; GS_GDReqResetCastleTaxInfo
_TEXT	ENDS
PUBLIC	?GS_GDReqResetSiegeGuildInfo@@YAXH@Z		; GS_GDReqResetSiegeGuildInfo
; Function compile flags: /Ogtp
;	COMDAT ?GS_GDReqResetSiegeGuildInfo@@YAXH@Z
_TEXT	SEGMENT
_pMsg$ = -8						; size = 6
_iMapSvrGroup$ = 8					; size = 4
?GS_GDReqResetSiegeGuildInfo@@YAXH@Z PROC		; GS_GDReqResetSiegeGuildInfo, COMDAT

; 3705 : {

  00000	55		 push	 ebp
  00001	8b ec		 mov	 ebp, esp

; 3706 : 	if ( iMapSvrGroup < 0 )

  00003	8b 45 08	 mov	 eax, DWORD PTR _iMapSvrGroup$[ebp]
  00006	83 ec 08	 sub	 esp, 8
  00009	85 c0		 test	 eax, eax
  0000b	78 1b		 js	 SHORT $LN2@GS_GDReqRe@5

; 3707 : 	{
; 3708 : 		return;
; 3709 : 	}
; 3710 : 
; 3711 : 	CSP_REQ_RESETSIEGEGUILDINFO pMsg;
; 3712 : 
; 3713 : 	pMsg.h.set((LPBYTE)&pMsg, 0x80, 0x1A, sizeof(CSP_REQ_RESETSIEGEGUILDINFO));
; 3714 : 	pMsg.wMapSvrNum = iMapSvrGroup;

  0000d	66 89 45 fc	 mov	 WORD PTR _pMsg$[ebp+4], ax

; 3715 : 
; 3716 : 	cDBSMng.Send((char*)&pMsg, pMsg.h.size);

  00011	6a 06		 push	 6
  00013	8d 45 f8	 lea	 eax, DWORD PTR _pMsg$[ebp]
  00016	50		 push	 eax
  00017	b9 00 00 00 00	 mov	 ecx, OFFSET ?cDBSMng@@3VDBSockMng@@A ; cDBSMng
  0001c	c7 45 f8 c1 06
	80 1a		 mov	 DWORD PTR _pMsg$[ebp], 444597953 ; 1a8006c1H
  00023	e8 00 00 00 00	 call	 ?Send@DBSockMng@@QAEHPADH@Z ; DBSockMng::Send
$LN2@GS_GDReqRe@5:

; 3717 : }

  00028	8b e5		 mov	 esp, ebp
  0002a	5d		 pop	 ebp
  0002b	c3		 ret	 0
?GS_GDReqResetSiegeGuildInfo@@YAXH@Z ENDP		; GS_GDReqResetSiegeGuildInfo
_TEXT	ENDS
PUBLIC	?GS_GDReqResetRegSiegeInfo@@YAXH@Z		; GS_GDReqResetRegSiegeInfo
; Function compile flags: /Ogtp
;	COMDAT ?GS_GDReqResetRegSiegeInfo@@YAXH@Z
_TEXT	SEGMENT
_pMsg$ = -8						; size = 6
_iMapSvrGroup$ = 8					; size = 4
?GS_GDReqResetRegSiegeInfo@@YAXH@Z PROC			; GS_GDReqResetRegSiegeInfo, COMDAT

; 3737 : {

  00000	55		 push	 ebp
  00001	8b ec		 mov	 ebp, esp

; 3738 : 	if ( iMapSvrGroup < 0 )

  00003	8b 45 08	 mov	 eax, DWORD PTR _iMapSvrGroup$[ebp]
  00006	83 ec 08	 sub	 esp, 8
  00009	85 c0		 test	 eax, eax
  0000b	78 1b		 js	 SHORT $LN2@GS_GDReqRe@6

; 3739 : 	{
; 3740 : 		return;
; 3741 : 	}
; 3742 : 
; 3743 : 	CSP_REQ_RESETREGSIEGEINFO pMsg;
; 3744 : 
; 3745 : 	pMsg.h.set((LPBYTE)&pMsg, 0x80, 0x1B, sizeof(CSP_REQ_RESETREGSIEGEINFO));
; 3746 : 	pMsg.wMapSvrNum = iMapSvrGroup;

  0000d	66 89 45 fc	 mov	 WORD PTR _pMsg$[ebp+4], ax

; 3747 : 
; 3748 : 	cDBSMng.Send((char*)&pMsg, pMsg.h.size);

  00011	6a 06		 push	 6
  00013	8d 45 f8	 lea	 eax, DWORD PTR _pMsg$[ebp]
  00016	50		 push	 eax
  00017	b9 00 00 00 00	 mov	 ecx, OFFSET ?cDBSMng@@3VDBSockMng@@A ; cDBSMng
  0001c	c7 45 f8 c1 06
	80 1b		 mov	 DWORD PTR _pMsg$[ebp], 461375169 ; 1b8006c1H
  00023	e8 00 00 00 00	 call	 ?Send@DBSockMng@@QAEHPADH@Z ; DBSockMng::Send
$LN2@GS_GDReqRe@6:

; 3749 : }

  00028	8b e5		 mov	 esp, ebp
  0002a	5d		 pop	 ebp
  0002b	c3		 ret	 0
?GS_GDReqResetRegSiegeInfo@@YAXH@Z ENDP			; GS_GDReqResetRegSiegeInfo
_TEXT	ENDS
PUBLIC	__$ArrayPad$
PUBLIC	?GS_GDReqCastleInitData@@YAXHH@Z		; GS_GDReqCastleInitData
; Function compile flags: /Ogtp
;	COMDAT ?GS_GDReqCastleInitData@@YAXHH@Z
_TEXT	SEGMENT
_pMsg$ = -16						; size = 12
__$ArrayPad$ = -4					; size = 4
_iMapSvrGroup$ = 8					; size = 4
_iCastleEventCycle$ = 12				; size = 4
?GS_GDReqCastleInitData@@YAXHH@Z PROC			; GS_GDReqCastleInitData, COMDAT

; 3769 : {

  00000	55		 push	 ebp
  00001	8b ec		 mov	 ebp, esp
  00003	83 ec 10	 sub	 esp, 16			; 00000010H
  00006	a1 00 00 00 00	 mov	 eax, DWORD PTR ___security_cookie
  0000b	33 c5		 xor	 eax, ebp
  0000d	89 45 fc	 mov	 DWORD PTR __$ArrayPad$[ebp], eax

; 3770 : 	if ( iMapSvrGroup < 0 )

  00010	8b 45 08	 mov	 eax, DWORD PTR _iMapSvrGroup$[ebp]
  00013	85 c0		 test	 eax, eax
  00015	78 24		 js	 SHORT $LN2@GS_GDReqCa@9

; 3771 : 	{
; 3772 : 		return;
; 3773 : 	}
; 3774 : 
; 3775 : 	CSP_REQ_CSINITDATA pMsg;
; 3776 : 
; 3777 : 	pMsg.h.set((LPBYTE)&pMsg, 0x81, sizeof(CSP_REQ_CSINITDATA));
; 3778 : 	pMsg.wMapSvrNum = iMapSvrGroup;
; 3779 : 	pMsg.iCastleEventCycle = iCastleEventCycle;
; 3780 : 
; 3781 : 	cDBSMng.Send((char*)&pMsg, pMsg.h.size);

  00017	6a 0c		 push	 12			; 0000000cH
  00019	8d 4d f0	 lea	 ecx, DWORD PTR _pMsg$[ebp]
  0001c	66 89 45 f4	 mov	 WORD PTR _pMsg$[ebp+4], ax
  00020	8b 45 0c	 mov	 eax, DWORD PTR _iCastleEventCycle$[ebp]
  00023	51		 push	 ecx
  00024	b9 00 00 00 00	 mov	 ecx, OFFSET ?cDBSMng@@3VDBSockMng@@A ; cDBSMng
  00029	66 c7 45 f0 c1
	0c		 mov	 WORD PTR _pMsg$[ebp], 3265 ; 00000cc1H
  0002f	c6 45 f2 81	 mov	 BYTE PTR _pMsg$[ebp+2], 129 ; 00000081H
  00033	89 45 f8	 mov	 DWORD PTR _pMsg$[ebp+8], eax
  00036	e8 00 00 00 00	 call	 ?Send@DBSockMng@@QAEHPADH@Z ; DBSockMng::Send
$LN2@GS_GDReqCa@9:

; 3782 : }

  0003b	8b 4d fc	 mov	 ecx, DWORD PTR __$ArrayPad$[ebp]
  0003e	33 cd		 xor	 ecx, ebp
  00040	e8 00 00 00 00	 call	 @__security_check_cookie@4
  00045	8b e5		 mov	 esp, ebp
  00047	5d		 pop	 ebp
  00048	c3		 ret	 0
?GS_GDReqCastleInitData@@YAXHH@Z ENDP			; GS_GDReqCastleInitData
_TEXT	ENDS
PUBLIC	__$ArrayPad$
PUBLIC	?GS_GDReqCastleNpcInfo@@YAXHH@Z			; GS_GDReqCastleNpcInfo
; Function compile flags: /Ogtp
;	COMDAT ?GS_GDReqCastleNpcInfo@@YAXHH@Z
_TEXT	SEGMENT
_pMsg$ = -16						; size = 12
__$ArrayPad$ = -4					; size = 4
_iMapSvrGroup$ = 8					; size = 4
_aIndex$ = 12						; size = 4
?GS_GDReqCastleNpcInfo@@YAXHH@Z PROC			; GS_GDReqCastleNpcInfo, COMDAT

; 3803 : {

  00000	55		 push	 ebp
  00001	8b ec		 mov	 ebp, esp
  00003	83 ec 10	 sub	 esp, 16			; 00000010H
  00006	a1 00 00 00 00	 mov	 eax, DWORD PTR ___security_cookie
  0000b	33 c5		 xor	 eax, ebp
  0000d	89 45 fc	 mov	 DWORD PTR __$ArrayPad$[ebp], eax

; 3804 : 	if ( iMapSvrGroup < 0 )

  00010	8b 45 08	 mov	 eax, DWORD PTR _iMapSvrGroup$[ebp]
  00013	85 c0		 test	 eax, eax
  00015	78 24		 js	 SHORT $LN2@GS_GDReqCa@10

; 3805 : 	{
; 3806 : 		return;
; 3807 : 	}
; 3808 : 
; 3809 : 	CSP_REQ_NPCDATA pMsg;
; 3810 : 
; 3811 : 	pMsg.h.set((LPBYTE)&pMsg, 0x82, sizeof(CSP_REQ_NPCDATA));
; 3812 : 	pMsg.wMapSvrNum = iMapSvrGroup;
; 3813 : 	pMsg.iIndex = aIndex;
; 3814 : 
; 3815 : 	cDBSMng.Send((char*)&pMsg, pMsg.h.size);

  00017	6a 0c		 push	 12			; 0000000cH
  00019	8d 4d f0	 lea	 ecx, DWORD PTR _pMsg$[ebp]
  0001c	66 89 45 f4	 mov	 WORD PTR _pMsg$[ebp+4], ax
  00020	8b 45 0c	 mov	 eax, DWORD PTR _aIndex$[ebp]
  00023	51		 push	 ecx
  00024	b9 00 00 00 00	 mov	 ecx, OFFSET ?cDBSMng@@3VDBSockMng@@A ; cDBSMng
  00029	66 c7 45 f0 c1
	0c		 mov	 WORD PTR _pMsg$[ebp], 3265 ; 00000cc1H
  0002f	c6 45 f2 82	 mov	 BYTE PTR _pMsg$[ebp+2], 130 ; 00000082H
  00033	89 45 f8	 mov	 DWORD PTR _pMsg$[ebp+8], eax
  00036	e8 00 00 00 00	 call	 ?Send@DBSockMng@@QAEHPADH@Z ; DBSockMng::Send
$LN2@GS_GDReqCa@10:

; 3816 : }

  0003b	8b 4d fc	 mov	 ecx, DWORD PTR __$ArrayPad$[ebp]
  0003e	33 cd		 xor	 ecx, ebp
  00040	e8 00 00 00 00	 call	 @__security_check_cookie@4
  00045	8b e5		 mov	 esp, ebp
  00047	5d		 pop	 ebp
  00048	c3		 ret	 0
?GS_GDReqCastleNpcInfo@@YAXHH@Z ENDP			; GS_GDReqCastleNpcInfo
_TEXT	ENDS
PUBLIC	__$ArrayPad$
PUBLIC	?GS_GDReqAllGuildMarkRegInfo@@YAXHH@Z		; GS_GDReqAllGuildMarkRegInfo
; Function compile flags: /Ogtp
;	COMDAT ?GS_GDReqAllGuildMarkRegInfo@@YAXHH@Z
_TEXT	SEGMENT
_pMsg$ = -16						; size = 12
__$ArrayPad$ = -4					; size = 4
_iMapSvrGroup$ = 8					; size = 4
_aIndex$ = 12						; size = 4
?GS_GDReqAllGuildMarkRegInfo@@YAXHH@Z PROC		; GS_GDReqAllGuildMarkRegInfo, COMDAT

; 3835 : {

  00000	55		 push	 ebp
  00001	8b ec		 mov	 ebp, esp
  00003	83 ec 10	 sub	 esp, 16			; 00000010H
  00006	a1 00 00 00 00	 mov	 eax, DWORD PTR ___security_cookie
  0000b	33 c5		 xor	 eax, ebp
  0000d	89 45 fc	 mov	 DWORD PTR __$ArrayPad$[ebp], eax

; 3836 : 	if ( iMapSvrGroup < 0 )

  00010	8b 45 08	 mov	 eax, DWORD PTR _iMapSvrGroup$[ebp]
  00013	85 c0		 test	 eax, eax
  00015	78 24		 js	 SHORT $LN2@GS_GDReqAl

; 3837 : 	{
; 3838 : 		return;
; 3839 : 	}
; 3840 : 
; 3841 : 	CSP_REQ_ALLGUILDREGINFO pMsg;
; 3842 : 
; 3843 : 	pMsg.h.set((LPBYTE)&pMsg, 0x83, sizeof(CSP_REQ_ALLGUILDREGINFO));
; 3844 : 	pMsg.wMapSvrNum = iMapSvrGroup;
; 3845 : 	pMsg.iIndex = aIndex;
; 3846 : 
; 3847 : 	cDBSMng.Send((char*)&pMsg, pMsg.h.size);

  00017	6a 0c		 push	 12			; 0000000cH
  00019	8d 4d f0	 lea	 ecx, DWORD PTR _pMsg$[ebp]
  0001c	66 89 45 f4	 mov	 WORD PTR _pMsg$[ebp+4], ax
  00020	8b 45 0c	 mov	 eax, DWORD PTR _aIndex$[ebp]
  00023	51		 push	 ecx
  00024	b9 00 00 00 00	 mov	 ecx, OFFSET ?cDBSMng@@3VDBSockMng@@A ; cDBSMng
  00029	66 c7 45 f0 c1
	0c		 mov	 WORD PTR _pMsg$[ebp], 3265 ; 00000cc1H
  0002f	c6 45 f2 83	 mov	 BYTE PTR _pMsg$[ebp+2], 131 ; 00000083H
  00033	89 45 f8	 mov	 DWORD PTR _pMsg$[ebp+8], eax
  00036	e8 00 00 00 00	 call	 ?Send@DBSockMng@@QAEHPADH@Z ; DBSockMng::Send
$LN2@GS_GDReqAl:

; 3848 : }

  0003b	8b 4d fc	 mov	 ecx, DWORD PTR __$ArrayPad$[ebp]
  0003e	33 cd		 xor	 ecx, ebp
  00040	e8 00 00 00 00	 call	 @__security_check_cookie@4
  00045	8b e5		 mov	 esp, ebp
  00047	5d		 pop	 ebp
  00048	c3		 ret	 0
?GS_GDReqAllGuildMarkRegInfo@@YAXHH@Z ENDP		; GS_GDReqAllGuildMarkRegInfo
_TEXT	ENDS
PUBLIC	?GS_GDReqCalcRegGuildList@@YAXH@Z		; GS_GDReqCalcRegGuildList
; Function compile flags: /Ogtp
;	COMDAT ?GS_GDReqCalcRegGuildList@@YAXH@Z
_TEXT	SEGMENT
_pMsg$ = -8						; size = 6
_iMapSvrGroup$ = 8					; size = 4
?GS_GDReqCalcRegGuildList@@YAXH@Z PROC			; GS_GDReqCalcRegGuildList, COMDAT

; 3865 : {

  00000	55		 push	 ebp
  00001	8b ec		 mov	 ebp, esp

; 3866 : 	if ( iMapSvrGroup < 0 )

  00003	8b 45 08	 mov	 eax, DWORD PTR _iMapSvrGroup$[ebp]
  00006	83 ec 08	 sub	 esp, 8
  00009	85 c0		 test	 eax, eax
  0000b	78 1e		 js	 SHORT $LN2@GS_GDReqCa@11

; 3867 : 	{
; 3868 : 		return;
; 3869 : 	}
; 3870 : 
; 3871 : 	CSP_REQ_CALCREGGUILDLIST pMsg;
; 3872 : 
; 3873 : 	pMsg.h.set((LPBYTE)&pMsg, 0x85, sizeof(CSP_REQ_CALCREGGUILDLIST));
; 3874 : 	pMsg.wMapSvrNum = iMapSvrGroup;

  0000d	66 89 45 fc	 mov	 WORD PTR _pMsg$[ebp+4], ax

; 3875 : 
; 3876 : 	cDBSMng.Send((char*)&pMsg, pMsg.h.size);

  00011	6a 06		 push	 6
  00013	8d 45 f8	 lea	 eax, DWORD PTR _pMsg$[ebp]
  00016	50		 push	 eax
  00017	b9 00 00 00 00	 mov	 ecx, OFFSET ?cDBSMng@@3VDBSockMng@@A ; cDBSMng
  0001c	66 c7 45 f8 c1
	06		 mov	 WORD PTR _pMsg$[ebp], 1729 ; 000006c1H
  00022	c6 45 fa 85	 mov	 BYTE PTR _pMsg$[ebp+2], 133 ; 00000085H
  00026	e8 00 00 00 00	 call	 ?Send@DBSockMng@@QAEHPADH@Z ; DBSockMng::Send
$LN2@GS_GDReqCa@11:

; 3877 : }

  0002b	8b e5		 mov	 esp, ebp
  0002d	5d		 pop	 ebp
  0002e	c3		 ret	 0
?GS_GDReqCalcRegGuildList@@YAXH@Z ENDP			; GS_GDReqCalcRegGuildList
_TEXT	ENDS
PUBLIC	?GS_GDReqCsLoadTotalGuildInfo@@YAXH@Z		; GS_GDReqCsLoadTotalGuildInfo
; Function compile flags: /Ogtp
;	COMDAT ?GS_GDReqCsLoadTotalGuildInfo@@YAXH@Z
_TEXT	SEGMENT
_pMsg$ = -8						; size = 6
_iMapSvrGroup$ = 8					; size = 4
?GS_GDReqCsLoadTotalGuildInfo@@YAXH@Z PROC		; GS_GDReqCsLoadTotalGuildInfo, COMDAT

; 3895 : {

  00000	55		 push	 ebp
  00001	8b ec		 mov	 ebp, esp

; 3896 : 	if ( iMapSvrGroup < 0 )

  00003	8b 45 08	 mov	 eax, DWORD PTR _iMapSvrGroup$[ebp]
  00006	83 ec 08	 sub	 esp, 8
  00009	85 c0		 test	 eax, eax
  0000b	78 1e		 js	 SHORT $LN2@GS_GDReqCs

; 3897 : 	{
; 3898 : 		return;
; 3899 : 	}
; 3900 : 
; 3901 : 	CSP_REQ_CSLOADTOTALGUILDINFO pMsg;
; 3902 : 
; 3903 : 	pMsg.h.set((LPBYTE)&pMsg, 0x88, sizeof(CSP_REQ_CSLOADTOTALGUILDINFO));
; 3904 : 	pMsg.wMapSvrNum = iMapSvrGroup;

  0000d	66 89 45 fc	 mov	 WORD PTR _pMsg$[ebp+4], ax

; 3905 : 
; 3906 : 	cDBSMng.Send((char*)&pMsg, pMsg.h.size);

  00011	6a 06		 push	 6
  00013	8d 45 f8	 lea	 eax, DWORD PTR _pMsg$[ebp]
  00016	50		 push	 eax
  00017	b9 00 00 00 00	 mov	 ecx, OFFSET ?cDBSMng@@3VDBSockMng@@A ; cDBSMng
  0001c	66 c7 45 f8 c1
	06		 mov	 WORD PTR _pMsg$[ebp], 1729 ; 000006c1H
  00022	c6 45 fa 88	 mov	 BYTE PTR _pMsg$[ebp+2], 136 ; 00000088H
  00026	e8 00 00 00 00	 call	 ?Send@DBSockMng@@QAEHPADH@Z ; DBSockMng::Send
$LN2@GS_GDReqCs:

; 3907 : }

  0002b	8b e5		 mov	 esp, ebp
  0002d	5d		 pop	 ebp
  0002e	c3		 ret	 0
?GS_GDReqCsLoadTotalGuildInfo@@YAXH@Z ENDP		; GS_GDReqCsLoadTotalGuildInfo
_TEXT	ENDS
PUBLIC	__real@437f0000
PUBLIC	__real@406fe00000000000
PUBLIC	__real@3f800000
PUBLIC	__real@00000000
PUBLIC	_lpMsg$GSCopy$
PUBLIC	__$ArrayPad$
PUBLIC	?DGGetWarehouseList@@YAXPAUSDHP_GETWAREHOUSEDB_SAVE@@@Z ; DGGetWarehouseList
EXTRN	?GCWarehouseStateSend@@YAXHE@Z:PROC		; GCWarehouseStateSend
EXTRN	?bCanWarehouseLock@@3HA:DWORD			; bCanWarehouseLock
EXTRN	?GCUserWarehouseSend@@YAXPAUOBJECTSTRUCT@@@Z:PROC ; GCUserWarehouseSend
EXTRN	?gObjWarehouseItemSet@@YAXHHE@Z:PROC		; gObjWarehouseItemSet
EXTRN	?gObjWarehouseInsertItemPos@@YAEHVCItem@@HH@Z:PROC ; gObjWarehouseInsertItemPos
EXTRN	?IsItem@@YAHH@Z:PROC				; IsItem
EXTRN	?Clear@CItem@@QAEXXZ:PROC			; CItem::Clear
;	COMDAT __real@437f0000
CONST	SEGMENT
__real@437f0000 DD 0437f0000r			; 255
CONST	ENDS
;	COMDAT __real@406fe00000000000
CONST	SEGMENT
__real@406fe00000000000 DQ 0406fe00000000000r	; 255
CONST	ENDS
;	COMDAT __real@3f800000
CONST	SEGMENT
__real@3f800000 DD 03f800000r			; 1
CONST	ENDS
;	COMDAT __real@00000000
CONST	SEGMENT
__real@00000000 DD 000000000r			; 0
; Function compile flags: /Ogtp
CONST	ENDS
;	COMDAT ?DGGetWarehouseList@@YAXPAUSDHP_GETWAREHOUSEDB_SAVE@@@Z
_TEXT	SEGMENT
tv1458 = -236						; size = 4
_lpMsg$GSCopy$ = -232					; size = 4
tv929 = -228						; size = 4
tv1291 = -224						; size = 4
tv1289 = -220						; size = 4
_aIndex$ = -216						; size = 4
_n$158452 = -212					; size = 4
tv615 = -208						; size = 4
_dbsize$ = -204						; size = 4
_itype$ = -200						; size = 4
_item$ = -196						; size = 168
_pResult$ = -28						; size = 10
_szId$ = -16						; size = 11
__$ArrayPad$ = -4					; size = 4
_lpMsg$ = 8						; size = 4
?DGGetWarehouseList@@YAXPAUSDHP_GETWAREHOUSEDB_SAVE@@@Z PROC ; DGGetWarehouseList, COMDAT

; 1683 : {

  00000	55		 push	 ebp
  00001	8b ec		 mov	 ebp, esp
  00003	81 ec ec 00 00
	00		 sub	 esp, 236		; 000000ecH
  00009	a1 00 00 00 00	 mov	 eax, DWORD PTR ___security_cookie
  0000e	33 c5		 xor	 eax, ebp
  00010	89 45 fc	 mov	 DWORD PTR __$ArrayPad$[ebp], eax
  00013	53		 push	 ebx
  00014	56		 push	 esi
  00015	57		 push	 edi
  00016	8b 7d 08	 mov	 edi, DWORD PTR _lpMsg$[ebp]

; 1684 : 	char szId[11];
; 1685 : 	// ---
; 1686 : 	int aIndex = 0;
; 1687 : 	// ---
; 1688 : 	PMSG_TALKRESULT pResult;
; 1689 : 	// ---
; 1690 : 	szId[MAX_ACCOUNT_LEN] = 0;
; 1691 : 	// ---
; 1692 : 	memcpy(szId, lpMsg->AccountID, sizeof(lpMsg->AccountID));

  00019	8b 47 04	 mov	 eax, DWORD PTR [edi+4]

; 1693 : 	// ---
; 1694 : 	aIndex = lpMsg->aIndex;

  0001c	0f bf 77 0e	 movsx	 esi, WORD PTR [edi+14]
  00020	8b 4f 08	 mov	 ecx, DWORD PTR [edi+8]
  00023	66 8b 57 0c	 mov	 dx, WORD PTR [edi+12]
  00027	89 45 f0	 mov	 DWORD PTR _szId$[ebp], eax

; 1695 : 	// ---
; 1696 : 	if(!gObjIsAccontConnect(aIndex, szId))

  0002a	8d 45 f0	 lea	 eax, DWORD PTR _szId$[ebp]
  0002d	50		 push	 eax
  0002e	56		 push	 esi
  0002f	89 bd 18 ff ff
	ff		 mov	 DWORD PTR _lpMsg$GSCopy$[ebp], edi
  00035	c6 45 fa 00	 mov	 BYTE PTR _szId$[ebp+10], 0
  00039	89 4d f4	 mov	 DWORD PTR _szId$[ebp+4], ecx
  0003c	66 89 55 f8	 mov	 WORD PTR _szId$[ebp+8], dx
  00040	89 b5 28 ff ff
	ff		 mov	 DWORD PTR _aIndex$[ebp], esi
  00046	e8 00 00 00 00	 call	 ?gObjIsAccontConnect@@YAHHPAD@Z ; gObjIsAccontConnect
  0004b	83 c4 08	 add	 esp, 8
  0004e	85 c0		 test	 eax, eax
  00050	75 30		 jne	 SHORT $LN47@DGGetWareh

; 1697 : 	{
; 1698 : 		LogAdd(LOG_RED,  lMsg.Get(MSGGET(1, 175)), szId, aIndex);

  00052	56		 push	 esi
  00053	8d 4d f0	 lea	 ecx, DWORD PTR _szId$[ebp]
  00056	51		 push	 ecx
  00057	68 af 01 00 00	 push	 431			; 000001afH
  0005c	b9 00 00 00 00	 mov	 ecx, OFFSET ?lMsg@@3VCMsg@@A ; lMsg
  00061	e8 00 00 00 00	 call	 ?Get@CMsg@@QAEPADH@Z	; CMsg::Get
  00066	50		 push	 eax
  00067	6a 01		 push	 1
  00069	e8 00 00 00 00	 call	 ?LogAdd@@YAXW4eLogColor@@PADZZ ; LogAdd
  0006e	83 c4 10	 add	 esp, 16			; 00000010H

; 1914 : }

  00071	5f		 pop	 edi
  00072	5e		 pop	 esi
  00073	5b		 pop	 ebx
  00074	8b 4d fc	 mov	 ecx, DWORD PTR __$ArrayPad$[ebp]
  00077	33 cd		 xor	 ecx, ebp
  00079	e8 00 00 00 00	 call	 @__security_check_cookie@4
  0007e	8b e5		 mov	 esp, ebp
  00080	5d		 pop	 ebp
  00081	c3		 ret	 0
$LN47@DGGetWareh:

; 1699 : 		return;
; 1700 : 	}
; 1701 : 	// ---
; 1702 : 	LPOBJ lpObj = &gObj[aIndex];

  00082	69 f6 64 15 00
	00		 imul	 esi, 5476		; 00001564H

; 1703 : 	// ---
; 1704 : 	int itype;
; 1705 : 	// ---
; 1706 : 	int _type;
; 1707 : 	// ---
; 1708 : 	BYTE OptionData;
; 1709 : 	// ---
; 1710 : 	CItem item;

  00088	8d 8d 3c ff ff
	ff		 lea	 ecx, DWORD PTR _item$[ebp]
  0008e	89 b5 30 ff ff
	ff		 mov	 DWORD PTR tv615[ebp], esi
  00094	e8 00 00 00 00	 call	 ??0CItem@@QAE@XZ	; CItem::CItem

; 1711 : 	// ---
; 1712 : 	memset(gObj[aIndex].pWarehouseMap, (BYTE)-1, WAREHOUSE_SIZE);

  00099	8b 96 c8 0c 00
	00		 mov	 edx, DWORD PTR ?gObj@@3PAUOBJECTSTRUCT@@A[esi+3272]
  0009f	6a 78		 push	 120			; 00000078H
  000a1	68 ff 00 00 00	 push	 255			; 000000ffH
  000a6	52		 push	 edx
  000a7	e8 00 00 00 00	 call	 _memset

; 1713 : 	// ---
; 1714 : 	gObj[aIndex].WarehouseMoney		= lpMsg->Money;

  000ac	8b 47 10	 mov	 eax, DWORD PTR [edi+16]
  000af	89 86 d4 0c 00
	00		 mov	 DWORD PTR ?gObj@@3PAUOBJECTSTRUCT@@A[esi+3284], eax

; 1715 : 	gObj[aIndex].WarehousePW		= lpMsg->pw;

  000b5	66 8b 8f 96 07
	00 00		 mov	 cx, WORD PTR [edi+1942]
  000bc	66 89 8e ce 0c
	00 00		 mov	 WORD PTR ?gObj@@3PAUOBJECTSTRUCT@@A[esi+3278], cx

; 1716 : 	// ---
; 1717 : 	int dbsize = 7;
; 1718 : 	// ---
; 1719 : 	if(lpMsg->DbVersion >= 3)

  000c3	8a 87 94 07 00
	00		 mov	 al, BYTE PTR [edi+1940]
  000c9	83 c4 0c	 add	 esp, 12			; 0000000cH
  000cc	c7 85 34 ff ff
	ff 07 00 00 00	 mov	 DWORD PTR _dbsize$[ebp], 7
  000d6	3c 03		 cmp	 al, 3
  000d8	72 0c		 jb	 SHORT $LN46@DGGetWareh

; 1720 : 	{
; 1721 : 		dbsize = 16;

  000da	c7 85 34 ff ff
	ff 10 00 00 00	 mov	 DWORD PTR _dbsize$[ebp], 16 ; 00000010H
  000e4	eb 0e		 jmp	 SHORT $LN52@DGGetWareh
$LN46@DGGetWareh:

; 1722 : 	}
; 1723 : 	else if(lpMsg->DbVersion >= 1)

  000e6	3c 01		 cmp	 al, 1
  000e8	72 0a		 jb	 SHORT $LN52@DGGetWareh

; 1724 : 	{
; 1725 : 		dbsize = 10;

  000ea	c7 85 34 ff ff
	ff 0a 00 00 00	 mov	 DWORD PTR _dbsize$[ebp], 10 ; 0000000aH
$LN52@DGGetWareh:

; 1726 : 	}
; 1727 : 	// ---
; 1728 : 	for(int n = 0; n < WAREHOUSE_SIZE; n++)

  000f4	8d 57 1b	 lea	 edx, DWORD PTR [edi+27]
  000f7	33 f6		 xor	 esi, esi
  000f9	8b c2		 mov	 eax, edx
  000fb	89 b5 2c ff ff
	ff		 mov	 DWORD PTR _n$158452[ebp], esi
  00101	89 b5 1c ff ff
	ff		 mov	 DWORD PTR tv929[ebp], esi
  00107	8d 5f 14	 lea	 ebx, DWORD PTR [edi+20]
  0010a	89 95 24 ff ff
	ff		 mov	 DWORD PTR tv1289[ebp], edx
  00110	89 85 20 ff ff
	ff		 mov	 DWORD PTR tv1291[ebp], eax
  00116	eb 14		 jmp	 SHORT $LN43@DGGetWareh
  00118	eb 06 8d 9b 00
	00 00 00	 npad	 8
$LL55@DGGetWareh:
  00120	8b 95 24 ff ff
	ff		 mov	 edx, DWORD PTR tv1289[ebp]
  00126	8b 85 20 ff ff
	ff		 mov	 eax, DWORD PTR tv1291[ebp]
$LN43@DGGetWareh:

; 1729 : 	{
; 1730 : 		itype = lpMsg->dbItems[n*dbsize];

  0012c	0f b6 0b	 movzx	 ecx, BYTE PTR [ebx]

; 1731 : 		// ---
; 1732 : 		if(dbsize == 16)

  0012f	8b bd 34 ff ff
	ff		 mov	 edi, DWORD PTR _dbsize$[ebp]
  00135	89 8d 38 ff ff
	ff		 mov	 DWORD PTR _itype$[ebp], ecx
  0013b	83 ff 10	 cmp	 edi, 16			; 00000010H
  0013e	75 25		 jne	 SHORT $LN40@DGGetWareh

; 1733 : 		{
; 1734 : 			itype |= (lpMsg->dbItems[n*dbsize+9] & 0xF0) << 5;
; 1735 : 			// ---
; 1736 : 			itype |= (lpMsg->dbItems[n*dbsize+7] & 0x80) << 1;

  00140	0f b6 50 02	 movzx	 edx, BYTE PTR [eax+2]
  00144	0f b6 00	 movzx	 eax, BYTE PTR [eax]
  00147	81 e2 f0 00 00
	00		 and	 edx, 240		; 000000f0H
  0014d	c1 e2 04	 shl	 edx, 4
  00150	25 80 00 00 00	 and	 eax, 128		; 00000080H
  00155	0b d0		 or	 edx, eax
  00157	03 d2		 add	 edx, edx
  00159	0b ca		 or	 ecx, edx
  0015b	89 8d 38 ff ff
	ff		 mov	 DWORD PTR _itype$[ebp], ecx

; 1737 : 			// ---
; 1738 : 			_type = itype;

  00161	8b f9		 mov	 edi, ecx
  00163	eb 51		 jmp	 SHORT $LN36@DGGetWareh
$LN40@DGGetWareh:

; 1739 : 		}
; 1740 : 		else if(dbsize == 10)

  00165	83 ff 0a	 cmp	 edi, 10			; 0000000aH
  00168	75 2e		 jne	 SHORT $LN38@DGGetWareh

; 1741 : 		{
; 1742 : 			if(((lpMsg->dbItems[n*dbsize+7] >> 7) & 0x01))

  0016a	f6 02 80	 test	 BYTE PTR [edx], 128	; 00000080H
  0016d	74 0c		 je	 SHORT $LN37@DGGetWareh

; 1743 : 			{
; 1744 : 				itype += 256;

  0016f	81 c1 00 01 00
	00		 add	 ecx, 256		; 00000100H
  00175	89 8d 38 ff ff
	ff		 mov	 DWORD PTR _itype$[ebp], ecx
$LN37@DGGetWareh:

; 1745 : 			}
; 1746 : 			// ---
; 1747 : 			_type = (itype / 32 * MAX_SUBTYPE_ITEMS) + itype % 32;

  0017b	8b c1		 mov	 eax, ecx
  0017d	99		 cdq
  0017e	83 e2 1f	 and	 edx, 31			; 0000001fH
  00181	8d 3c 02	 lea	 edi, DWORD PTR [edx+eax]
  00184	c1 ff 05	 sar	 edi, 5
  00187	c1 e7 09	 shl	 edi, 9
  0018a	81 e1 1f 00 00
	80		 and	 ecx, -2147483617	; 8000001fH
  00190	79 22		 jns	 SHORT $LN62@DGGetWareh
  00192	49		 dec	 ecx
  00193	83 c9 e0	 or	 ecx, -32		; ffffffe0H

; 1748 : 		}
; 1749 : 		else

  00196	eb 1b		 jmp	 SHORT $LN63@DGGetWareh
$LN38@DGGetWareh:

; 1750 : 		{
; 1751 : 			_type = (itype / MAX_TYPE_ITEMS * MAX_SUBTYPE_ITEMS) + itype % 16;

  00198	8b c1		 mov	 eax, ecx
  0019a	99		 cdq
  0019b	83 e2 0f	 and	 edx, 15			; 0000000fH
  0019e	8d 3c 02	 lea	 edi, DWORD PTR [edx+eax]
  001a1	c1 ff 04	 sar	 edi, 4
  001a4	c1 e7 09	 shl	 edi, 9
  001a7	81 e1 0f 00 00
	80		 and	 ecx, -2147483633	; 8000000fH
  001ad	79 05		 jns	 SHORT $LN62@DGGetWareh
  001af	49		 dec	 ecx
  001b0	83 c9 f0	 or	 ecx, -16		; fffffff0H
$LN63@DGGetWareh:
  001b3	41		 inc	 ecx
$LN62@DGGetWareh:
  001b4	03 f9		 add	 edi, ecx
$LN36@DGGetWareh:

; 1752 : 		}
; 1753 : 		// ---
; 1754 : 		gObj[aIndex].pWarehouse[n].Clear();

  001b6	8b 8d 30 ff ff
	ff		 mov	 ecx, DWORD PTR tv615[ebp]
  001bc	8b 89 c4 0c 00
	00		 mov	 ecx, DWORD PTR ?gObj@@3PAUOBJECTSTRUCT@@A[ecx+3268]
  001c2	03 ce		 add	 ecx, esi
  001c4	e8 00 00 00 00	 call	 ?Clear@CItem@@QAEXXZ	; CItem::Clear

; 1755 : 		// ---
; 1756 : 		if(dbsize >= 16)

  001c9	8b 85 34 ff ff
	ff		 mov	 eax, DWORD PTR _dbsize$[ebp]
  001cf	83 f8 10	 cmp	 eax, 16			; 00000010H
  001d2	7c 18		 jl	 SHORT $LN35@DGGetWareh

; 1757 : 		{
; 1758 : 			if(lpMsg->dbItems[n*dbsize] == (BYTE)-1 && (lpMsg->dbItems[n*dbsize+9] & 0xF0) == 0xF0 && (lpMsg->dbItems[n*dbsize+7] & 0x80) == 0x80)

  001d4	80 3b ff	 cmp	 BYTE PTR [ebx], 255	; 000000ffH
  001d7	75 2c		 jne	 SHORT $LN53@DGGetWareh
  001d9	8a 53 09	 mov	 dl, BYTE PTR [ebx+9]
  001dc	80 e2 f0	 and	 dl, 240			; 000000f0H
  001df	80 fa f0	 cmp	 dl, 240			; 000000f0H
$LN65@DGGetWareh:
  001e2	75 21		 jne	 SHORT $LN53@DGGetWareh
  001e4	f6 43 07 80	 test	 BYTE PTR [ebx+7], 128	; 00000080H
  001e8	74 1b		 je	 SHORT $LN53@DGGetWareh

; 1759 : 			{
; 1760 : 				itype = -1;
; 1761 : 			}
; 1762 : 		}

  001ea	eb 0f		 jmp	 SHORT $LN64@DGGetWareh
$LN35@DGGetWareh:

; 1763 : 		else if(dbsize >= 10)

  001ec	83 f8 0a	 cmp	 eax, 10			; 0000000aH
  001ef	7c 05		 jl	 SHORT $LN32@DGGetWareh

; 1764 : 		{
; 1765 : 			if(lpMsg->dbItems[n*dbsize] == (BYTE)-1 && (lpMsg->dbItems[n*dbsize+7] & 0x80) == 0x80)

  001f1	80 3b ff	 cmp	 BYTE PTR [ebx], 255	; 000000ffH

; 1766 : 			{
; 1767 : 				itype = -1;
; 1768 : 			}
; 1769 : 		}
; 1770 : 		else

  001f4	eb ec		 jmp	 SHORT $LN65@DGGetWareh
$LN32@DGGetWareh:

; 1771 : 		{
; 1772 : 			if(lpMsg->dbItems[n*dbsize] == (BYTE)-1)

  001f6	80 3b ff	 cmp	 BYTE PTR [ebx], 255	; 000000ffH
  001f9	75 0a		 jne	 SHORT $LN53@DGGetWareh
$LN64@DGGetWareh:

; 1773 : 			{
; 1774 : 				itype = -1;

  001fb	c7 85 38 ff ff
	ff ff ff ff ff	 mov	 DWORD PTR _itype$[ebp], -1
$LN53@DGGetWareh:

; 1775 : 			}
; 1776 : 		}
; 1777 : 		// ---
; 1778 : 		if(IsItem(_type) == FALSE )

  00205	57		 push	 edi
  00206	e8 00 00 00 00	 call	 ?IsItem@@YAHH@Z		; IsItem
  0020b	83 c4 04	 add	 esp, 4
  0020e	85 c0		 test	 eax, eax
  00210	75 0a		 jne	 SHORT $LN56@DGGetWareh

; 1779 : 		{
; 1780 : 			itype = -1;

  00212	c7 85 38 ff ff
	ff ff ff ff ff	 mov	 DWORD PTR _itype$[ebp], -1
$LN56@DGGetWareh:

; 1781 : 		}
; 1782 : 		// ---
; 1783 : 		if(_type == ITEMGET(14,17) || _type == ITEMGET(14,18))

  0021c	81 ff 11 1c 00
	00		 cmp	 edi, 7185		; 00001c11H
  00222	74 08		 je	 SHORT $LN26@DGGetWareh
  00224	81 ff 12 1c 00
	00		 cmp	 edi, 7186		; 00001c12H
  0022a	75 0b		 jne	 SHORT $LN25@DGGetWareh
$LN26@DGGetWareh:

; 1784 : 		{
; 1785 : 			if(lpMsg->dbItems[n*dbsize+2] == 0)

  0022c	80 7b 02 00	 cmp	 BYTE PTR [ebx+2], 0
  00230	75 05		 jne	 SHORT $LN25@DGGetWareh

; 1786 : 			{
; 1787 : 				_type = -1;

  00232	83 cf ff	 or	 edi, -1

; 1788 : 			}
; 1789 : 		}
; 1790 : 		// ---
; 1791 : 		if(_type == ITEMGET(14,19))

  00235	eb 12		 jmp	 SHORT $LN57@DGGetWareh
$LN25@DGGetWareh:
  00237	81 ff 13 1c 00
	00		 cmp	 edi, 7187		; 00001c13H
  0023d	75 0a		 jne	 SHORT $LN57@DGGetWareh

; 1792 : 		{
; 1793 : 			if(lpMsg->dbItems[n*dbsize+2] == (BYTE)-1)

  0023f	80 7b 02 ff	 cmp	 BYTE PTR [ebx+2], 255	; 000000ffH

; 1794 : 			{
; 1795 : 				itype = -1;
; 1796 : 			}
; 1797 : 		}
; 1798 : 		// ---
; 1799 : 		if(itype != -1)

  00243	0f 84 5d 02 00
	00		 je	 $LN42@DGGetWareh
$LN57@DGGetWareh:
  00249	83 bd 38 ff ff
	ff ff		 cmp	 DWORD PTR _itype$[ebp], -1
  00250	0f 84 50 02 00
	00		 je	 $LN42@DGGetWareh

; 1800 : 		{
; 1801 : 			item.m_Level = DBI_GET_LEVEL(lpMsg->dbItems[n*dbsize+1]);

  00256	8a 43 01	 mov	 al, BYTE PTR [ebx+1]

; 1802 : 			// ---
; 1803 : 			if(lpMsg->DbVersion	< 2)

  00259	8b 95 18 ff ff
	ff		 mov	 edx, DWORD PTR _lpMsg$GSCopy$[ebp]
  0025f	8a c8		 mov	 cl, al
  00261	c0 e9 03	 shr	 cl, 3
  00264	80 e1 0f	 and	 cl, 15			; 0000000fH
  00267	80 ba 94 07 00
	00 02		 cmp	 BYTE PTR [edx+1940], 2
  0026e	0f b6 c9	 movzx	 ecx, cl
  00271	66 89 8d 44 ff
	ff ff		 mov	 WORD PTR _item$[ebp+8], cx
  00278	73 06		 jae	 SHORT $LN21@DGGetWareh

; 1804 : 			{
; 1805 : 				lpMsg->dbItems[n*dbsize+8] = -1;

  0027a	66 c7 43 08 ff
	ff		 mov	 WORD PTR [ebx+8], 65535	; 0000ffffH
$LN21@DGGetWareh:

; 1806 : 				lpMsg->dbItems[n*dbsize+9] = -1;
; 1807 : 			}
; 1808 : 			// ---
; 1809 : 			if(_type != ITEMGET(14,11))

  00280	81 ff 0b 1c 00
	00		 cmp	 edi, 7179		; 00001c0bH
  00286	74 0f		 je	 SHORT $LN19@DGGetWareh

; 1810 : 			{
; 1811 : 				if(item.m_Level > MAX_ITEM_LEVEL)

  00288	66 83 f9 0f	 cmp	 cx, 15			; 0000000fH
  0028c	7e 09		 jle	 SHORT $LN19@DGGetWareh

; 1812 : 				{
; 1813 : 					item.m_Level = 0;

  0028e	33 c9		 xor	 ecx, ecx
  00290	66 89 8d 44 ff
	ff ff		 mov	 WORD PTR _item$[ebp+8], cx
$LN19@DGGetWareh:

; 1814 : 				}
; 1815 : 			}
; 1816 : 			// ---
; 1817 : 			OptionData = lpMsg->dbItems[n*dbsize+1];
; 1818 : 			// ---
; 1819 : 			item.m_Option1 = (OptionData) >> 7;

  00297	8a c8		 mov	 cl, al
  00299	c0 e9 07	 shr	 cl, 7
  0029c	88 4d b4	 mov	 BYTE PTR _item$[ebp+120], cl

; 1820 : 			item.m_Option2 = DBI_GET_LUCK(OptionData);

  0029f	8a c8		 mov	 cl, al
  002a1	c0 e9 02	 shr	 cl, 2
  002a4	80 e1 01	 and	 cl, 1

; 1821 : 			item.m_Option3 = DBI_GET_OPTION(OptionData);

  002a7	24 03		 and	 al, 3

; 1822 : 			// ---
; 1823 : 			if(dbsize >= 10)

  002a9	83 bd 34 ff ff
	ff 0a		 cmp	 DWORD PTR _dbsize$[ebp], 10 ; 0000000aH
  002b0	88 4d b5	 mov	 BYTE PTR _item$[ebp+121], cl
  002b3	88 45 b6	 mov	 BYTE PTR _item$[ebp+122], al
  002b6	7c 0b		 jl	 SHORT $LN18@DGGetWareh

; 1824 : 			{
; 1825 : 				item.m_Option3 |= DBI_GET_DINO_OPTION(lpMsg->dbItems[n * dbsize + 7]);

  002b8	8a 43 07	 mov	 al, BYTE PTR [ebx+7]
  002bb	c0 e8 04	 shr	 al, 4
  002be	24 04		 and	 al, 4
  002c0	08 45 b6	 or	 BYTE PTR _item$[ebp+122], al
$LN18@DGGetWareh:

; 1826 : 			}
; 1827 : 			// ---
; 1828 : 			item.m_Durability = lpMsg->dbItems[n*dbsize+2];

  002c3	0f b6 4b 02	 movzx	 ecx, BYTE PTR [ebx+2]

; 1829 : 			// ---
; 1830 : 			if(lpMsg->DbVersion == 0)

  002c7	8a 82 94 07 00
	00		 mov	 al, BYTE PTR [edx+1940]
  002cd	89 8d 14 ff ff
	ff		 mov	 DWORD PTR tv1458[ebp], ecx
  002d3	db 85 14 ff ff
	ff		 fild	 DWORD PTR tv1458[ebp]
  002d9	d9 9d 60 ff ff
	ff		 fstp	 DWORD PTR _item$[ebp+36]
  002df	84 c0		 test	 al, al
  002e1	75 1d		 jne	 SHORT $LN17@DGGetWareh

; 1831 : 			{
; 1832 : 				item.Convert(itype, item.m_Option1, item.m_Option2, item.m_Option3, 0, 0, 0, 0);

  002e3	8b 55 b6	 mov	 edx, DWORD PTR _item$[ebp+122]
  002e6	8b 45 b5	 mov	 eax, DWORD PTR _item$[ebp+121]
  002e9	8b 4d b4	 mov	 ecx, DWORD PTR _item$[ebp+120]
  002ec	6a 00		 push	 0
  002ee	6a 00		 push	 0
  002f0	6a 00		 push	 0
  002f2	6a 00		 push	 0
  002f4	52		 push	 edx
  002f5	8b 95 38 ff ff
	ff		 mov	 edx, DWORD PTR _itype$[ebp]
  002fb	50		 push	 eax
  002fc	51		 push	 ecx
  002fd	52		 push	 edx
  002fe	eb 52		 jmp	 SHORT $LN66@DGGetWareh
$LN17@DGGetWareh:

; 1833 : 			}
; 1834 : 			else if(lpMsg->DbVersion <= 2)

  00300	3c 02		 cmp	 al, 2
  00302	77 28		 ja	 SHORT $LN15@DGGetWareh

; 1835 : 			{
; 1836 : 				item.Convert(itype, item.m_Option1, item.m_Option2, item.m_Option3, DBI_GET_NOPTION(lpMsg->dbItems[n*dbsize+DBI_NOPTION_DATA]), lpMsg->dbItems[n*dbsize+DBI_SOPTION_DATA], 0, 1);

  00304	8a 4b 07	 mov	 cl, BYTE PTR [ebx+7]
  00307	0f b6 43 08	 movzx	 eax, BYTE PTR [ebx+8]
  0030b	6a 01		 push	 1
  0030d	6a 00		 push	 0
  0030f	50		 push	 eax
  00310	8b 45 b6	 mov	 eax, DWORD PTR _item$[ebp+122]
  00313	80 e1 3f	 and	 cl, 63			; 0000003fH
  00316	0f b6 d1	 movzx	 edx, cl
  00319	8b 4d b5	 mov	 ecx, DWORD PTR _item$[ebp+121]
  0031c	52		 push	 edx
  0031d	8b 55 b4	 mov	 edx, DWORD PTR _item$[ebp+120]
  00320	50		 push	 eax
  00321	8b 85 38 ff ff
	ff		 mov	 eax, DWORD PTR _itype$[ebp]
  00327	51		 push	 ecx
  00328	52		 push	 edx
  00329	50		 push	 eax

; 1837 : 			}
; 1838 : 			else

  0032a	eb 26		 jmp	 SHORT $LN66@DGGetWareh
$LN15@DGGetWareh:

; 1839 : 			{
; 1840 : 				item.Convert(itype, item.m_Option1, item.m_Option2, item.m_Option3, DBI_GET_NOPTION(lpMsg->dbItems[n*dbsize+DBI_NOPTION_DATA]), lpMsg->dbItems[n*dbsize+DBI_SOPTION_DATA], 0, 3);

  0032c	8a 53 07	 mov	 dl, BYTE PTR [ebx+7]
  0032f	0f b6 4b 08	 movzx	 ecx, BYTE PTR [ebx+8]
  00333	6a 03		 push	 3
  00335	6a 00		 push	 0
  00337	51		 push	 ecx
  00338	8b 4d b6	 mov	 ecx, DWORD PTR _item$[ebp+122]
  0033b	80 e2 3f	 and	 dl, 63			; 0000003fH
  0033e	0f b6 c2	 movzx	 eax, dl
  00341	8b 55 b5	 mov	 edx, DWORD PTR _item$[ebp+121]
  00344	50		 push	 eax
  00345	8b 45 b4	 mov	 eax, DWORD PTR _item$[ebp+120]
  00348	51		 push	 ecx
  00349	8b 8d 38 ff ff
	ff		 mov	 ecx, DWORD PTR _itype$[ebp]
  0034f	52		 push	 edx
  00350	50		 push	 eax
  00351	51		 push	 ecx
$LN66@DGGetWareh:
  00352	8d 8d 3c ff ff
	ff		 lea	 ecx, DWORD PTR _item$[ebp]
  00358	e8 00 00 00 00	 call	 ?Convert@CItem@@QAEXHEEEEEEE@Z ; CItem::Convert

; 1841 : 			}
; 1842 : 			// ---
; 1843 : 			if( _type == ITEMGET(14,7))

  0035d	81 ff 07 1c 00
	00		 cmp	 edi, 7175		; 00001c07H
  00363	0f 84 88 00 00
	00		 je	 $LN6@DGGetWareh

; 1844 : 			{
; 1845 : 				/* */
; 1846 : 			}
; 1847 : 			else if((_type >= ITEMGET(14,0) && _type <= ITEMGET(14,8)))

  00369	8d 97 00 e4 ff
	ff		 lea	 edx, DWORD PTR [edi-7168]
  0036f	83 fa 08	 cmp	 edx, 8
  00372	77 3a		 ja	 SHORT $LN11@DGGetWareh

; 1848 : 			{
; 1849 : 				if(item.m_Durability == 0.0f)

  00374	d9 85 60 ff ff
	ff		 fld	 DWORD PTR _item$[ebp+36]
  0037a	d9 ee		 fldz
  0037c	da e9		 fucompp
  0037e	df e0		 fnstsw	 ax
  00380	f6 c4 44	 test	 ah, 68			; 00000044H
  00383	7a 08		 jp	 SHORT $LN10@DGGetWareh

; 1850 : 				{
; 1851 : 					item.m_Durability = 1.0f;

  00385	d9 e8		 fld1
  00387	d9 9d 60 ff ff
	ff		 fstp	 DWORD PTR _item$[ebp+36]
$LN10@DGGetWareh:

; 1852 : 				}
; 1853 : 				// ---
; 1854 : 				if(item.m_Durability > 255.0f)

  0038d	d9 85 60 ff ff
	ff		 fld	 DWORD PTR _item$[ebp+36]
  00393	dc 1d 00 00 00
	00		 fcomp	 QWORD PTR __real@406fe00000000000
  00399	df e0		 fnstsw	 ax
  0039b	f6 c4 41	 test	 ah, 65			; 00000041H
  0039e	75 51		 jne	 SHORT $LN6@DGGetWareh

; 1855 : 				{
; 1856 : 					item.m_Durability = 255.0f;

  003a0	d9 05 00 00 00
	00		 fld	 DWORD PTR __real@437f0000
  003a6	d9 9d 60 ff ff
	ff		 fstp	 DWORD PTR _item$[ebp+36]

; 1857 : 				}
; 1858 : 			}

  003ac	eb 43		 jmp	 SHORT $LN6@DGGetWareh
$LN11@DGGetWareh:

; 1859 : 			else if(_type != ITEMGET(13,10) && _type != ITEMGET(14,29) && _type != ITEMGET(14,21) && item.m_Level == 3)

  003ae	81 ff 0a 1a 00
	00		 cmp	 edi, 6666		; 00001a0aH
  003b4	74 3b		 je	 SHORT $LN6@DGGetWareh
  003b6	81 ff 1d 1c 00
	00		 cmp	 edi, 7197		; 00001c1dH
  003bc	74 33		 je	 SHORT $LN6@DGGetWareh
  003be	81 ff 15 1c 00
	00		 cmp	 edi, 7189		; 00001c15H
  003c4	74 2b		 je	 SHORT $LN6@DGGetWareh
  003c6	66 83 bd 44 ff
	ff ff 03	 cmp	 WORD PTR _item$[ebp+8], 3
  003ce	75 21		 jne	 SHORT $LN6@DGGetWareh

; 1860 : 			{
; 1861 : 				if(item.m_Durability > item.m_BaseDurability)

  003d0	d9 85 60 ff ff
	ff		 fld	 DWORD PTR _item$[ebp+36]
  003d6	d9 85 68 ff ff
	ff		 fld	 DWORD PTR _item$[ebp+44]
  003dc	d8 d1		 fcom	 ST(1)
  003de	df e0		 fnstsw	 ax
  003e0	dd d9		 fstp	 ST(1)
  003e2	f6 c4 05	 test	 ah, 5
  003e5	7a 08		 jp	 SHORT $LN59@DGGetWareh

; 1862 : 				{
; 1863 : 					item.m_Durability = item.m_BaseDurability;

  003e7	d9 9d 60 ff ff
	ff		 fstp	 DWORD PTR _item$[ebp+36]
  003ed	eb 02		 jmp	 SHORT $LN6@DGGetWareh
$LN59@DGGetWareh:
  003ef	dd d8		 fstp	 ST(0)
$LN6@DGGetWareh:

; 1864 : 				}
; 1865 : 			}
; 1866 : 			// ---
; 1867 : 			lpObj->pWarehouse[n].m_Option1 = item.m_Option1;

  003f1	0f b6 55 b4	 movzx	 edx, BYTE PTR _item$[ebp+120]
  003f5	8b 85 30 ff ff
	ff		 mov	 eax, DWORD PTR tv615[ebp]
  003fb	8b 88 c4 0c 00
	00		 mov	 ecx, DWORD PTR ?gObj@@3PAUOBJECTSTRUCT@@A[eax+3268]
  00401	88 54 0e 78	 mov	 BYTE PTR [esi+ecx+120], dl

; 1868 : 			lpObj->pWarehouse[n].m_Option2 = item.m_Option2;

  00405	8b 88 c4 0c 00
	00		 mov	 ecx, DWORD PTR ?gObj@@3PAUOBJECTSTRUCT@@A[eax+3268]
  0040b	0f b6 55 b5	 movzx	 edx, BYTE PTR _item$[ebp+121]
  0040f	8d 80 00 00 00
	00		 lea	 eax, DWORD PTR ?gObj@@3PAUOBJECTSTRUCT@@A[eax]
  00415	88 54 0e 79	 mov	 BYTE PTR [esi+ecx+121], dl

; 1869 : 			lpObj->pWarehouse[n].m_Option3 = item.m_Option3;

  00419	8b 80 c4 0c 00
	00		 mov	 eax, DWORD PTR [eax+3268]
  0041f	8a 4d b6	 mov	 cl, BYTE PTR _item$[ebp+122]
  00422	88 4c 06 7a	 mov	 BYTE PTR [esi+eax+122], cl

; 1870 : 			// ---
; 1871 : 			WORD hiword = MAKE_NUMBERW(lpMsg->dbItems[n*dbsize+DBI_SERIAL1], lpMsg->dbItems[n*dbsize+DBI_SERIAL2]);
; 1872 : 			WORD loword = MAKE_NUMBERW(lpMsg->dbItems[n*dbsize+DBI_SERIAL3], lpMsg->dbItems[n*dbsize+DBI_SERIAL4]);
; 1873 : 			// ---
; 1874 : 			item.m_Number = MAKE_NUMBERDW(hiword, loword);

  00426	0f b6 53 03	 movzx	 edx, BYTE PTR [ebx+3]
  0042a	0f b6 4b 04	 movzx	 ecx, BYTE PTR [ebx+4]
  0042e	66 c1 e2 08	 shl	 dx, 8
  00432	0f b7 c2	 movzx	 eax, dx
  00435	0f b6 53 05	 movzx	 edx, BYTE PTR [ebx+5]
  00439	0b c1		 or	 eax, ecx
  0043b	66 c1 e2 08	 shl	 dx, 8
  0043f	0f b7 ca	 movzx	 ecx, dx
  00442	0f b6 53 06	 movzx	 edx, BYTE PTR [ebx+6]
  00446	c1 e0 10	 shl	 eax, 16			; 00000010H
  00449	0b c1		 or	 eax, ecx
  0044b	0b c2		 or	 eax, edx
  0044d	89 85 3c ff ff
	ff		 mov	 DWORD PTR _item$[ebp], eax

; 1875 : 			// ---
; 1876 : 			gObjWarehouseInsertItemPos(lpObj->m_Index, item, n, -1);

  00453	8b 85 2c ff ff
	ff		 mov	 eax, DWORD PTR _n$158452[ebp]
  00459	6a ff		 push	 -1
  0045b	50		 push	 eax
  0045c	81 ec a8 00 00
	00		 sub	 esp, 168		; 000000a8H
  00462	8b fc		 mov	 edi, esp
  00464	b9 2a 00 00 00	 mov	 ecx, 42			; 0000002aH
  00469	8d b5 3c ff ff
	ff		 lea	 esi, DWORD PTR _item$[ebp]
  0046f	f3 a5		 rep movsd
  00471	8b b5 30 ff ff
	ff		 mov	 esi, DWORD PTR tv615[ebp]
  00477	8b 8e 00 00 00
	00		 mov	 ecx, DWORD PTR ?gObj@@3PAUOBJECTSTRUCT@@A[esi]
  0047d	8d b6 00 00 00
	00		 lea	 esi, DWORD PTR ?gObj@@3PAUOBJECTSTRUCT@@A[esi]
  00483	51		 push	 ecx
  00484	e8 00 00 00 00	 call	 ?gObjWarehouseInsertItemPos@@YAEHVCItem@@HH@Z ; gObjWarehouseInsertItemPos

; 1877 : 			gObjWarehouseItemSet(lpObj->m_Index, n, 1);

  00489	8b 95 2c ff ff
	ff		 mov	 edx, DWORD PTR _n$158452[ebp]
  0048f	8b 06		 mov	 eax, DWORD PTR [esi]
  00491	6a 01		 push	 1
  00493	52		 push	 edx
  00494	50		 push	 eax
  00495	e8 00 00 00 00	 call	 ?gObjWarehouseItemSet@@YAXHHE@Z ; gObjWarehouseItemSet
  0049a	8b b5 1c ff ff
	ff		 mov	 esi, DWORD PTR tv929[ebp]
  004a0	81 c4 c0 00 00
	00		 add	 esp, 192		; 000000c0H
$LN42@DGGetWareh:

; 1726 : 	}
; 1727 : 	// ---
; 1728 : 	for(int n = 0; n < WAREHOUSE_SIZE; n++)

  004a6	ff 85 2c ff ff
	ff		 inc	 DWORD PTR _n$158452[ebp]
  004ac	83 85 20 ff ff
	ff 10		 add	 DWORD PTR tv1291[ebp], 16 ; 00000010H
  004b3	83 85 24 ff ff
	ff 0a		 add	 DWORD PTR tv1289[ebp], 10 ; 0000000aH
  004ba	03 9d 34 ff ff
	ff		 add	 ebx, DWORD PTR _dbsize$[ebp]
  004c0	81 c6 a8 00 00
	00		 add	 esi, 168		; 000000a8H
  004c6	89 b5 1c ff ff
	ff		 mov	 DWORD PTR tv929[ebp], esi
  004cc	81 fe c0 4e 00
	00		 cmp	 esi, 20160		; 00004ec0H
  004d2	0f 8c 48 fc ff
	ff		 jl	 $LL55@DGGetWareh

; 1878 : 		}
; 1879 : 	}
; 1880 : 	// ---
; 1881 : 	pResult.h.c			= 0xC3;
; 1882 : 	pResult.h.headcode	= 0x30;
; 1883 : 	pResult.h.size		= sizeof(PMSG_TALKRESULT);
; 1884 : 	pResult.result		= 2;
; 1885 : 	// ---
; 1886 : 	DataSend(lpObj->m_Index, (LPBYTE)&pResult, pResult.h.size);

  004d8	8b bd 30 ff ff
	ff		 mov	 edi, DWORD PTR tv615[ebp]
  004de	8b 97 00 00 00
	00		 mov	 edx, DWORD PTR ?gObj@@3PAUOBJECTSTRUCT@@A[edi]
  004e4	6a 0a		 push	 10			; 0000000aH
  004e6	8d 4d e4	 lea	 ecx, DWORD PTR _pResult$[ebp]
  004e9	8d b7 00 00 00
	00		 lea	 esi, DWORD PTR ?gObj@@3PAUOBJECTSTRUCT@@A[edi]
  004ef	51		 push	 ecx
  004f0	52		 push	 edx
  004f1	c6 45 e4 c3	 mov	 BYTE PTR _pResult$[ebp], 195 ; 000000c3H
  004f5	66 c7 45 e5 0a
	30		 mov	 WORD PTR _pResult$[ebp+1], 12298 ; 0000300aH
  004fb	c6 45 e7 02	 mov	 BYTE PTR _pResult$[ebp+3], 2
  004ff	e8 00 00 00 00	 call	 ?DataSend@@YAHHPAEK@Z	; DataSend

; 1887 : 	// ---
; 1888 : 	GCUserWarehouseSend(&gObj[aIndex]);

  00504	56		 push	 esi
  00505	e8 00 00 00 00	 call	 ?GCUserWarehouseSend@@YAXPAUOBJECTSTRUCT@@@Z ; GCUserWarehouseSend
  0050a	83 c4 10	 add	 esp, 16			; 00000010H

; 1889 : 	// ---
; 1890 : 	if(bCanWarehouseLock == TRUE)

  0050d	83 3d 00 00 00
	00 01		 cmp	 DWORD PTR ?bCanWarehouseLock@@3HA, 1 ; bCanWarehouseLock
  00514	75 3a		 jne	 SHORT $LN1@DGGetWareh

; 1891 : 	{
; 1892 : 		if(gObj[aIndex].WarehousePW > 0)

  00516	66 83 bf ce 0c
	00 00 00	 cmp	 WORD PTR ?gObj@@3PAUOBJECTSTRUCT@@A[edi+3278], 0
  0051e	7e 1f		 jle	 SHORT $LN4@DGGetWareh

; 1893 : 		{
; 1894 : 			if(gObj[aIndex].WarehouseLock == 0)

  00520	80 bf d0 0c 00
	00 00		 cmp	 BYTE PTR ?gObj@@3PAUOBJECTSTRUCT@@A[edi+3280], 0
  00527	75 0b		 jne	 SHORT $LN3@DGGetWareh

; 1895 : 			{
; 1896 : 				GCWarehouseStateSend(aIndex, 12);

  00529	8b 85 28 ff ff
	ff		 mov	 eax, DWORD PTR _aIndex$[ebp]
  0052f	6a 0c		 push	 12			; 0000000cH
  00531	50		 push	 eax

; 1897 : 			}
; 1898 : 			else

  00532	eb 14		 jmp	 SHORT $LN67@DGGetWareh
$LN3@DGGetWareh:

; 1899 : 			{
; 1900 : 				GCWarehouseStateSend(aIndex, 1);

  00534	8b 8d 28 ff ff
	ff		 mov	 ecx, DWORD PTR _aIndex$[ebp]
  0053a	6a 01		 push	 1
  0053c	51		 push	 ecx

; 1901 : 			}
; 1902 : 		}
; 1903 : 		else

  0053d	eb 09		 jmp	 SHORT $LN67@DGGetWareh
$LN4@DGGetWareh:

; 1904 : 		{
; 1905 : 			GCWarehouseStateSend(aIndex, 0);

  0053f	8b 95 28 ff ff
	ff		 mov	 edx, DWORD PTR _aIndex$[ebp]
  00545	6a 00		 push	 0
  00547	52		 push	 edx
$LN67@DGGetWareh:
  00548	e8 00 00 00 00	 call	 ?GCWarehouseStateSend@@YAXHE@Z ; GCWarehouseStateSend
  0054d	83 c4 08	 add	 esp, 8
$LN1@DGGetWareh:

; 1906 : 		}
; 1907 : 	}
; 1908 : 	// ---
; 1909 : 	lpObj->LoadWareHouseInfo = true;
; 1910 : 	// ---
; 1911 : 	lpObj->m_ReqWarehouseOpen = false;
; 1912 : 	// ---
; 1913 : 	gObjRequestPetItemInfo(lpObj->m_Index, 1);

  00550	8b 06		 mov	 eax, DWORD PTR [esi]
  00552	6a 01		 push	 1
  00554	50		 push	 eax
  00555	c6 86 b8 0e 00
	00 01		 mov	 BYTE PTR [esi+3768], 1
  0055c	c6 86 58 0f 00
	00 00		 mov	 BYTE PTR [esi+3928], 0
  00563	e8 00 00 00 00	 call	 ?gObjRequestPetItemInfo@@YAXHH@Z ; gObjRequestPetItemInfo

; 1914 : }

  00568	8b 4d fc	 mov	 ecx, DWORD PTR __$ArrayPad$[ebp]
  0056b	83 c4 08	 add	 esp, 8
  0056e	5f		 pop	 edi
  0056f	5e		 pop	 esi
  00570	33 cd		 xor	 ecx, ebp
  00572	5b		 pop	 ebx
  00573	e8 00 00 00 00	 call	 @__security_check_cookie@4
  00578	8b e5		 mov	 esp, ebp
  0057a	5d		 pop	 ebp
  0057b	c3		 ret	 0
?DGGetWarehouseList@@YAXPAUSDHP_GETWAREHOUSEDB_SAVE@@@Z ENDP ; DGGetWarehouseList
_TEXT	ENDS
PUBLIC	??_C@_0CI@MIGOHDHJ@?$FL?$CFs?$FN?$FL?$CFs?$FN?5WareHouse?5Save?5Fail?5?3?5N@ ; `string'
PUBLIC	__$ArrayPad$
PUBLIC	?GDSetWarehouseList@@YAXH@Z			; GDSetWarehouseList
EXTRN	?gObjWarehouseTextSave@@YAXPAUOBJECTSTRUCT@@@Z:PROC ; gObjWarehouseTextSave
;	COMDAT ??_C@_0CI@MIGOHDHJ@?$FL?$CFs?$FN?$FL?$CFs?$FN?5WareHouse?5Save?5Fail?5?3?5N@
CONST	SEGMENT
??_C@_0CI@MIGOHDHJ@?$FL?$CFs?$FN?$FL?$CFs?$FN?5WareHouse?5Save?5Fail?5?3?5N@ DB '['
	DB	'%s][%s] WareHouse Save Fail : Not Open', 00H ; `string'
; Function compile flags: /Ogtp
CONST	ENDS
;	COMDAT ?GDSetWarehouseList@@YAXH@Z
_TEXT	SEGMENT
_pMsg$ = -1948						; size = 1944
__$ArrayPad$ = -4					; size = 4
_aIndex$ = 8						; size = 4
?GDSetWarehouseList@@YAXH@Z PROC			; GDSetWarehouseList, COMDAT

; 1954 : {

  00000	55		 push	 ebp
  00001	8b ec		 mov	 ebp, esp
  00003	81 ec 9c 07 00
	00		 sub	 esp, 1948		; 0000079cH
  00009	a1 00 00 00 00	 mov	 eax, DWORD PTR ___security_cookie
  0000e	33 c5		 xor	 eax, ebp
  00010	89 45 fc	 mov	 DWORD PTR __$ArrayPad$[ebp], eax
  00013	56		 push	 esi
  00014	57		 push	 edi
  00015	8b 7d 08	 mov	 edi, DWORD PTR _aIndex$[ebp]

; 1955 : 	SDHP_GETWAREHOUSEDB_SAVE pMsg;
; 1956 : 	
; 1957 : 	if ( gObj[aIndex].LoadWareHouseInfo == false )

  00018	8b f7		 mov	 esi, edi
  0001a	69 f6 64 15 00
	00		 imul	 esi, 5476		; 00001564H
  00020	80 be b8 0e 00
	00 00		 cmp	 BYTE PTR ?gObj@@3PAUOBJECTSTRUCT@@A[esi+3768], 0
  00027	75 2d		 jne	 SHORT $LN1@GDSetWareh

; 1958 : 	{
; 1959 : 		LogAdd(LOG_BLACK, "[%s][%s] WareHouse Save Fail : Not Open",
; 1960 : 			gObj[aIndex].AccountID, gObj[aIndex].Name);

  00029	8d 86 6f 00 00
	00		 lea	 eax, DWORD PTR ?gObj@@3PAUOBJECTSTRUCT@@A[esi+111]
  0002f	50		 push	 eax
  00030	8d 8e 64 00 00
	00		 lea	 ecx, DWORD PTR ?gObj@@3PAUOBJECTSTRUCT@@A[esi+100]
  00036	51		 push	 ecx
  00037	68 00 00 00 00	 push	 OFFSET ??_C@_0CI@MIGOHDHJ@?$FL?$CFs?$FN?$FL?$CFs?$FN?5WareHouse?5Save?5Fail?5?3?5N@
  0003c	6a 00		 push	 0
  0003e	e8 00 00 00 00	 call	 ?LogAdd@@YAXW4eLogColor@@PADZZ ; LogAdd
  00043	83 c4 10	 add	 esp, 16			; 00000010H
  00046	5f		 pop	 edi
  00047	5e		 pop	 esi

; 1978 : }

  00048	8b 4d fc	 mov	 ecx, DWORD PTR __$ArrayPad$[ebp]
  0004b	33 cd		 xor	 ecx, ebp
  0004d	e8 00 00 00 00	 call	 @__security_check_cookie@4
  00052	8b e5		 mov	 esp, ebp
  00054	5d		 pop	 ebp
  00055	c3		 ret	 0
$LN1@GDSetWareh:

; 1961 : 
; 1962 : 		return;
; 1963 : 	}
; 1964 : 
; 1965 : 	memcpy(pMsg.AccountID, gObj[aIndex].AccountID, sizeof(pMsg.AccountID));

  00056	8b 96 64 00 00
	00		 mov	 edx, DWORD PTR ?gObj@@3PAUOBJECTSTRUCT@@A[esi+100]
  0005c	66 8b 8e 6c 00
	00 00		 mov	 cx, WORD PTR ?gObj@@3PAUOBJECTSTRUCT@@A[esi+108]
  00063	8b 86 68 00 00
	00		 mov	 eax, DWORD PTR ?gObj@@3PAUOBJECTSTRUCT@@A[esi+104]
  00069	89 95 68 f8 ff
	ff		 mov	 DWORD PTR _pMsg$[ebp+4], edx

; 1966 : 	pMsg.aIndex = aIndex;
; 1967 : 	pMsg.h.c = 0xC2;
; 1968 : 	pMsg.h.headcode = 0x09;
; 1969 : 	pMsg.h.sizeH = HIBYTE(sizeof(pMsg));
; 1970 : 	pMsg.h.sizeL = LOBYTE(sizeof(pMsg));
; 1971 : 	pMsg.Money = gObj[aIndex].WarehouseMoney;

  0006f	8b 96 d4 0c 00
	00		 mov	 edx, DWORD PTR ?gObj@@3PAUOBJECTSTRUCT@@A[esi+3284]
  00075	66 89 8d 70 f8
	ff ff		 mov	 WORD PTR _pMsg$[ebp+12], cx

; 1972 : 	pMsg.pw = gObj[aIndex].WarehousePW;
; 1973 : 	ItemByteConvert16(pMsg.dbItems, gObj[aIndex].pWarehouse, WAREHOUSE_SIZE);

  0007c	8b 8e c4 0c 00
	00		 mov	 ecx, DWORD PTR ?gObj@@3PAUOBJECTSTRUCT@@A[esi+3268]
  00082	6a 78		 push	 120			; 00000078H
  00084	89 95 74 f8 ff
	ff		 mov	 DWORD PTR _pMsg$[ebp+16], edx
  0008a	89 85 6c f8 ff
	ff		 mov	 DWORD PTR _pMsg$[ebp+8], eax
  00090	66 8b 86 ce 0c
	00 00		 mov	 ax, WORD PTR ?gObj@@3PAUOBJECTSTRUCT@@A[esi+3278]
  00097	51		 push	 ecx
  00098	8d 95 78 f8 ff
	ff		 lea	 edx, DWORD PTR _pMsg$[ebp+20]
  0009e	52		 push	 edx
  0009f	66 89 bd 72 f8
	ff ff		 mov	 WORD PTR _pMsg$[ebp+14], di
  000a6	c7 85 64 f8 ff
	ff c2 07 98 09	 mov	 DWORD PTR _pMsg$[ebp], 160958402 ; 099807c2H
  000b0	66 89 45 fa	 mov	 WORD PTR _pMsg$[ebp+1942], ax
  000b4	e8 00 00 00 00	 call	 ?ItemByteConvert16@@YAXPAEQAVCItem@@H@Z ; ItemByteConvert16
  000b9	83 c4 0c	 add	 esp, 12			; 0000000cH

; 1974 : 
; 1975 : 	cDBSMng.Send((PCHAR)&pMsg, sizeof(pMsg));

  000bc	68 98 07 00 00	 push	 1944			; 00000798H
  000c1	8d 85 64 f8 ff
	ff		 lea	 eax, DWORD PTR _pMsg$[ebp]
  000c7	50		 push	 eax
  000c8	b9 00 00 00 00	 mov	 ecx, OFFSET ?cDBSMng@@3VDBSockMng@@A ; cDBSMng
  000cd	e8 00 00 00 00	 call	 ?Send@DBSockMng@@QAEHPADH@Z ; DBSockMng::Send

; 1976 : 	gObjSavePetItemInfo(aIndex, 1);

  000d2	6a 01		 push	 1
  000d4	57		 push	 edi
  000d5	e8 00 00 00 00	 call	 ?gObjSavePetItemInfo@@YAXHH@Z ; gObjSavePetItemInfo

; 1977 : 	gObjWarehouseTextSave(&gObj[aIndex]);

  000da	8d 8e 00 00 00
	00		 lea	 ecx, DWORD PTR ?gObj@@3PAUOBJECTSTRUCT@@A[esi]
  000e0	51		 push	 ecx
  000e1	e8 00 00 00 00	 call	 ?gObjWarehouseTextSave@@YAXPAUOBJECTSTRUCT@@@Z ; gObjWarehouseTextSave

; 1978 : }

  000e6	8b 4d fc	 mov	 ecx, DWORD PTR __$ArrayPad$[ebp]
  000e9	83 c4 0c	 add	 esp, 12			; 0000000cH
  000ec	5f		 pop	 edi
  000ed	33 cd		 xor	 ecx, ebp
  000ef	5e		 pop	 esi
  000f0	e8 00 00 00 00	 call	 @__security_check_cookie@4
  000f5	8b e5		 mov	 esp, ebp
  000f7	5d		 pop	 ebp
  000f8	c3		 ret	 0
?GDSetWarehouseList@@YAXH@Z ENDP			; GDSetWarehouseList
_TEXT	ENDS
PUBLIC	__real@4024000000000000
PUBLIC	??_C@_0FG@OKDBPAON@?$FLMapServerMng?$FN?$FL?$CFs?$FN?$FL?$CFs?$FN?5GJSetChar@ ; `string'
PUBLIC	??_C@_0EM@LOGFDPHA@?$FLMapServerMng?$FN?5GJSetCharacterInf@ ; `string'
PUBLIC	__$ArrayPad$
PUBLIC	?GJSetCharacterInfo@@YAXPAUOBJECTSTRUCT@@HH@Z	; GJSetCharacterInfo
EXTRN	?gObjStatTextSave@@YAXPAUOBJECTSTRUCT@@@Z:PROC	; gObjStatTextSave
EXTRN	?gObjItemTextSave@@YAXPAUOBJECTSTRUCT@@@Z:PROC	; gObjItemTextSave
EXTRN	?MagicByteConvert@@YAXPAEQAVCMagicInf@@H@Z:PROC	; MagicByteConvert
;	COMDAT __real@4024000000000000
CONST	SEGMENT
__real@4024000000000000 DQ 04024000000000000r	; 10
CONST	ENDS
;	COMDAT ??_C@_0FG@OKDBPAON@?$FLMapServerMng?$FN?$FL?$CFs?$FN?$FL?$CFs?$FN?5GJSetChar@
CONST	SEGMENT
??_C@_0FG@OKDBPAON@?$FLMapServerMng?$FN?$FL?$CFs?$FN?$FL?$CFs?$FN?5GJSetChar@ DB '['
	DB	'MapServerMng][%s][%s] GJSetCharacterInfo() - MapServerMove Ch'
	DB	'aracter Save Start (%d)', 00H		; `string'
CONST	ENDS
;	COMDAT ??_C@_0EM@LOGFDPHA@?$FLMapServerMng?$FN?5GJSetCharacterInf@
CONST	SEGMENT
??_C@_0EM@LOGFDPHA@?$FLMapServerMng?$FN?5GJSetCharacterInf@ DB '[MapServe'
	DB	'rMng] GJSetCharacterInfo() - Inventory Already Saved [%s][%s]'
	DB	' (%d)', 00H					; `string'
; Function compile flags: /Ogtp
CONST	ENDS
;	COMDAT ?GJSetCharacterInfo@@YAXPAUOBJECTSTRUCT@@HH@Z
_TEXT	SEGMENT
tv294 = -2052						; size = 4
tv405 = -2048						; size = 4
tv403 = -2048						; size = 4
tv398 = -2048						; size = 4
tv396 = -2048						; size = 4
tv391 = -2048						; size = 4
tv389 = -2048						; size = 4
tv384 = -2048						; size = 4
tv382 = -2048						; size = 4
tv408 = -2042						; size = 2
tv401 = -2042						; size = 2
tv394 = -2042						; size = 2
tv387 = -2042						; size = 2
_pCSave$ = -2040					; size = 2036
__$ArrayPad$ = -4					; size = 4
_lpObj$ = 8						; size = 4
_aIndex$ = 12						; size = 4
_bMapServerMove$ = 16					; size = 4
?GJSetCharacterInfo@@YAXPAUOBJECTSTRUCT@@HH@Z PROC	; GJSetCharacterInfo, COMDAT

; 1568 : {

  00000	55		 push	 ebp
  00001	8b ec		 mov	 ebp, esp
  00003	81 ec 04 08 00
	00		 sub	 esp, 2052		; 00000804H
  00009	a1 00 00 00 00	 mov	 eax, DWORD PTR ___security_cookie
  0000e	33 c5		 xor	 eax, ebp
  00010	89 45 fc	 mov	 DWORD PTR __$ArrayPad$[ebp], eax
  00013	53		 push	 ebx
  00014	8b 5d 08	 mov	 ebx, DWORD PTR _lpObj$[ebp]

; 1569 : 	if ( lpObj->m_bMapSvrMoveQuit == true )

  00017	80 bb c4 14 00
	00 01		 cmp	 BYTE PTR [ebx+5316], 1
  0001e	75 29		 jne	 SHORT $LN4@GJSetChara

; 1570 : 	{
; 1571 : 		LogAdd(LOG_RED, "[MapServerMng] GJSetCharacterInfo() - Inventory Already Saved [%s][%s] (%d)",
; 1572 : 			lpObj->AccountID, lpObj->Name, lpObj->m_Index);

  00020	8b 03		 mov	 eax, DWORD PTR [ebx]
  00022	50		 push	 eax
  00023	8d 4b 6f	 lea	 ecx, DWORD PTR [ebx+111]
  00026	51		 push	 ecx
  00027	83 c3 64	 add	 ebx, 100		; 00000064H
  0002a	53		 push	 ebx
  0002b	68 00 00 00 00	 push	 OFFSET ??_C@_0EM@LOGFDPHA@?$FLMapServerMng?$FN?5GJSetCharacterInf@
  00030	6a 01		 push	 1
  00032	e8 00 00 00 00	 call	 ?LogAdd@@YAXW4eLogColor@@PADZZ ; LogAdd
  00037	83 c4 14	 add	 esp, 20			; 00000014H
  0003a	5b		 pop	 ebx

; 1644 : }

  0003b	8b 4d fc	 mov	 ecx, DWORD PTR __$ArrayPad$[ebp]
  0003e	33 cd		 xor	 ecx, ebp
  00040	e8 00 00 00 00	 call	 @__security_check_cookie@4
  00045	8b e5		 mov	 esp, ebp
  00047	5d		 pop	 ebp
  00048	c3		 ret	 0
$LN4@GJSetChara:

; 1573 : 
; 1574 : 		return;
; 1575 : 	}
; 1576 : 
; 1577 : 	if ( bMapServerMove == TRUE )

  00049	83 7d 10 01	 cmp	 DWORD PTR _bMapServerMove$[ebp], 1
  0004d	75 21		 jne	 SHORT $LN3@GJSetChara

; 1578 : 	{
; 1579 : 		lpObj->m_bMapSvrMoveQuit = TRUE;
; 1580 : 
; 1581 : 		LogAdd(LOG_BLUE, "[MapServerMng][%s][%s] GJSetCharacterInfo() - MapServerMove Character Save Start (%d)",
; 1582 : 			lpObj->AccountID, lpObj->Name, lpObj->m_Index);

  0004f	8b 13		 mov	 edx, DWORD PTR [ebx]
  00051	52		 push	 edx
  00052	8d 43 6f	 lea	 eax, DWORD PTR [ebx+111]
  00055	50		 push	 eax
  00056	8d 4b 64	 lea	 ecx, DWORD PTR [ebx+100]
  00059	51		 push	 ecx
  0005a	68 00 00 00 00	 push	 OFFSET ??_C@_0FG@OKDBPAON@?$FLMapServerMng?$FN?$FL?$CFs?$FN?$FL?$CFs?$FN?5GJSetChar@
  0005f	6a 04		 push	 4
  00061	c6 83 c4 14 00
	00 01		 mov	 BYTE PTR [ebx+5316], 1
  00068	e8 00 00 00 00	 call	 ?LogAdd@@YAXW4eLogColor@@PADZZ ; LogAdd
  0006d	83 c4 14	 add	 esp, 20			; 00000014H
$LN3@GJSetChara:

; 1583 : 	}
; 1584 : 
; 1585 : 
; 1586 : 	if ( lpObj->m_IfState.use > 0 && lpObj->m_IfState.type == 6 && lpObj->m_IfState.state == 1)

  00070	8b 83 84 0c 00
	00		 mov	 eax, DWORD PTR [ebx+3204]
  00076	a8 03		 test	 al, 3
  00078	76 22		 jbe	 SHORT $LN2@GJSetChara
  0007a	8b d0		 mov	 edx, eax
  0007c	81 e2 c0 ff 00
	00		 and	 edx, 65472		; 0000ffc0H
  00082	81 fa 80 01 00
	00		 cmp	 edx, 384		; 00000180H
  00088	75 12		 jne	 SHORT $LN2@GJSetChara
  0008a	24 3c		 and	 al, 60			; 0000003cH
  0008c	3c 04		 cmp	 al, 4
  0008e	75 0c		 jne	 SHORT $LN2@GJSetChara

; 1587 : 	{
; 1588 : 		GDSetWarehouseList(aIndex);

  00090	8b 45 0c	 mov	 eax, DWORD PTR _aIndex$[ebp]
  00093	50		 push	 eax
  00094	e8 00 00 00 00	 call	 ?GDSetWarehouseList@@YAXH@Z ; GDSetWarehouseList
  00099	83 c4 04	 add	 esp, 4
$LN2@GJSetChara:

; 1589 : 	}
; 1590 : 
; 1591 : /*#if (FOREIGN_GAMESERVER==1)
; 1592 : 	if ( szAuthKey[1] != AUTHKEY1 )
; 1593 : 	{
; 1594 : 		DestroyGIocp();
; 1595 : 	}
; 1596 : #endif*/
; 1597 : 
; 1598 : 	SDHP_DBCHAR_INFOSAVE pCSave;	// Packet Character Save
; 1599 :  
; 1600 : 	pCSave.h.c = 0xC2;
; 1601 : 	pCSave.h.headcode = 0x07;
; 1602 : 	pCSave.h.sizeH = sizeof(SDHP_DBCHAR_INFOSAVE) >> 8;
; 1603 : 	pCSave.h.sizeL = sizeof(SDHP_DBCHAR_INFOSAVE) & 0xFF;
; 1604 : 	pCSave.Name[MAX_ACCOUNT_LEN] = 0;
; 1605 : 	memcpy(pCSave.Name, lpObj->Name, sizeof(pCSave.Name)-1);

  0009c	8b 4b 6f	 mov	 ecx, DWORD PTR [ebx+111]

; 1606 : 	pCSave.Class = lpObj->DbClass;
; 1607 : 	pCSave.Level = lpObj->Level;
; 1608 : 	pCSave.LevelUpPoint = lpObj->LevelUpPoint;
; 1609 : 	pCSave.Exp = lpObj->Experience;
; 1610 : 	pCSave.NextExp = lpObj->NextExp;
; 1611 : 	pCSave.Money = lpObj->Money;
; 1612 : 	pCSave.Str = lpObj->Strength;
; 1613 : 	pCSave.Dex = lpObj->Dexterity;
; 1614 : 	pCSave.Vit = lpObj->Vitality;
; 1615 : 	pCSave.Energy = lpObj->Energy;
; 1616 : 	pCSave.Life = lpObj->Life*10.0f;

  0009f	d9 83 bc 00 00
	00		 fld	 DWORD PTR [ebx+188]
  000a5	8b 53 73	 mov	 edx, DWORD PTR [ebx+115]
  000a8	dd 05 00 00 00
	00		 fld	 QWORD PTR __real@4024000000000000
  000ae	8d 43 6f	 lea	 eax, DWORD PTR [ebx+111]
  000b1	d9 bd 06 f8 ff
	ff		 fnstcw	 WORD PTR tv408[ebp]
  000b7	89 85 fc f7 ff
	ff		 mov	 DWORD PTR tv294[ebp], eax
  000bd	dc c9		 fmul	 ST(1), ST(0)
  000bf	0f b7 40 08	 movzx	 eax, WORD PTR [eax+8]
  000c3	d9 c9		 fxch	 ST(1)
  000c5	66 89 85 14 f8
	ff ff		 mov	 WORD PTR _pCSave$[ebp+12], ax
  000cc	8b 83 a0 00 00
	00		 mov	 eax, DWORD PTR [ebx+160]
  000d2	89 85 1c f8 ff
	ff		 mov	 DWORD PTR _pCSave$[ebp+20], eax
  000d8	8b 83 b0 00 00
	00		 mov	 eax, DWORD PTR [ebx+176]
  000de	89 85 28 f8 ff
	ff		 mov	 DWORD PTR _pCSave$[ebp+32], eax
  000e4	0f b7 83 b8 00
	00 00		 movzx	 eax, WORD PTR [ebx+184]
  000eb	66 89 85 30 f8
	ff ff		 mov	 WORD PTR _pCSave$[ebp+40], ax
  000f2	0f b7 85 06 f8
	ff ff		 movzx	 eax, WORD PTR tv408[ebp]
  000f9	0d 00 0c 00 00	 or	 eax, 3072		; 00000c00H
  000fe	89 85 00 f8 ff
	ff		 mov	 DWORD PTR tv405[ebp], eax
  00104	89 95 10 f8 ff
	ff		 mov	 DWORD PTR _pCSave$[ebp+8], edx
  0010a	0f b7 93 9c 00
	00 00		 movzx	 edx, WORD PTR [ebx+156]
  00111	d9 ad 00 f8 ff
	ff		 fldcw	 WORD PTR tv405[ebp]
  00117	66 89 95 18 f8
	ff ff		 mov	 WORD PTR _pCSave$[ebp+16], dx
  0011e	8b 93 ac 00 00
	00		 mov	 edx, DWORD PTR [ebx+172]
  00124	89 95 24 f8 ff
	ff		 mov	 DWORD PTR _pCSave$[ebp+28], edx
  0012a	0f b7 93 b6 00
	00 00		 movzx	 edx, WORD PTR [ebx+182]
  00131	db 9d 00 f8 ff
	ff		 fistp	 DWORD PTR tv403[ebp]
  00137	66 89 95 2e f8
	ff ff		 mov	 WORD PTR _pCSave$[ebp+38], dx
  0013e	0f b7 95 00 f8
	ff ff		 movzx	 edx, WORD PTR tv403[ebp]
  00145	d9 ad 06 f8 ff
	ff		 fldcw	 WORD PTR tv408[ebp]
  0014b	89 8d 0c f8 ff
	ff		 mov	 DWORD PTR _pCSave$[ebp+4], ecx
  00151	0f b6 8b 9a 00
	00 00		 movzx	 ecx, BYTE PTR [ebx+154]
  00158	88 8d 1a f8 ff
	ff		 mov	 BYTE PTR _pCSave$[ebp+18], cl
  0015e	8b 8b a8 00 00
	00		 mov	 ecx, DWORD PTR [ebx+168]

; 1617 : 	pCSave.MaxLife =lpObj->MaxLife*10.0f;

  00164	d9 83 c0 00 00
	00		 fld	 DWORD PTR [ebx+192]
  0016a	89 8d 20 f8 ff
	ff		 mov	 DWORD PTR _pCSave$[ebp+24], ecx
  00170	d9 bd 06 f8 ff
	ff		 fnstcw	 WORD PTR tv401[ebp]
  00176	0f b7 8b b4 00
	00 00		 movzx	 ecx, WORD PTR [ebx+180]
  0017d	d8 c9		 fmul	 ST(0), ST(1)
  0017f	0f b7 85 06 f8
	ff ff		 movzx	 eax, WORD PTR tv401[ebp]
  00186	0d 00 0c 00 00	 or	 eax, 3072		; 00000c00H
  0018b	89 85 00 f8 ff
	ff		 mov	 DWORD PTR tv398[ebp], eax
  00191	66 89 8d 2c f8
	ff ff		 mov	 WORD PTR _pCSave$[ebp+36], cx
  00198	0f b7 8b ba 00
	00 00		 movzx	 ecx, WORD PTR [ebx+186]
  0019f	d9 ad 00 f8 ff
	ff		 fldcw	 WORD PTR tv398[ebp]
  001a5	66 89 8d 32 f8
	ff ff		 mov	 WORD PTR _pCSave$[ebp+42], cx
  001ac	56		 push	 esi
  001ad	57		 push	 edi
  001ae	db 9d 00 f8 ff
	ff		 fistp	 DWORD PTR tv396[ebp]
  001b4	66 89 95 34 f8
	ff ff		 mov	 WORD PTR _pCSave$[ebp+44], dx
  001bb	0f b7 85 00 f8
	ff ff		 movzx	 eax, WORD PTR tv396[ebp]
  001c2	66 89 85 36 f8
	ff ff		 mov	 WORD PTR _pCSave$[ebp+46], ax

; 1618 : 	pCSave.Mana = lpObj->Mana*10.0f;
; 1619 : 	pCSave.MaxMana = lpObj->MaxMana*10.0f;
; 1620 : 	ItemByteConvert16((LPBYTE)pCSave.dbInventory , lpObj->pInventory, INVENTORY_SIZE);

  001c9	6a 6c		 push	 108			; 0000006cH
  001cb	d9 ad 06 f8 ff
	ff		 fldcw	 WORD PTR tv401[ebp]
  001d1	c7 85 08 f8 ff
	ff c2 07 f4 07	 mov	 DWORD PTR _pCSave$[ebp], 133433282 ; 07f407c2H
  001db	c6 85 16 f8 ff
	ff 00		 mov	 BYTE PTR _pCSave$[ebp+14], 0
  001e2	d9 83 d0 00 00
	00		 fld	 DWORD PTR [ebx+208]
  001e8	d9 bd 06 f8 ff
	ff		 fnstcw	 WORD PTR tv394[ebp]
  001ee	d8 c9		 fmul	 ST(0), ST(1)
  001f0	0f b7 85 06 f8
	ff ff		 movzx	 eax, WORD PTR tv394[ebp]
  001f7	0d 00 0c 00 00	 or	 eax, 3072		; 00000c00H
  001fc	89 85 00 f8 ff
	ff		 mov	 DWORD PTR tv391[ebp], eax
  00202	d9 ad 00 f8 ff
	ff		 fldcw	 WORD PTR tv391[ebp]
  00208	db 9d 00 f8 ff
	ff		 fistp	 DWORD PTR tv389[ebp]
  0020e	0f b7 8d 00 f8
	ff ff		 movzx	 ecx, WORD PTR tv389[ebp]
  00215	66 89 8d 38 f8
	ff ff		 mov	 WORD PTR _pCSave$[ebp+48], cx
  0021c	8d 8d 3c f8 ff
	ff		 lea	 ecx, DWORD PTR _pCSave$[ebp+52]
  00222	d9 ad 06 f8 ff
	ff		 fldcw	 WORD PTR tv394[ebp]
  00228	d8 8b d4 00 00
	00		 fmul	 DWORD PTR [ebx+212]
  0022e	d9 bd 06 f8 ff
	ff		 fnstcw	 WORD PTR tv387[ebp]
  00234	0f b7 85 06 f8
	ff ff		 movzx	 eax, WORD PTR tv387[ebp]
  0023b	0d 00 0c 00 00	 or	 eax, 3072		; 00000c00H
  00240	89 85 00 f8 ff
	ff		 mov	 DWORD PTR tv384[ebp], eax
  00246	8b 83 8c 0c 00
	00		 mov	 eax, DWORD PTR [ebx+3212]
  0024c	50		 push	 eax
  0024d	d9 ad 00 f8 ff
	ff		 fldcw	 WORD PTR tv384[ebp]
  00253	db 9d 00 f8 ff
	ff		 fistp	 DWORD PTR tv382[ebp]
  00259	0f b7 95 00 f8
	ff ff		 movzx	 edx, WORD PTR tv382[ebp]
  00260	66 89 95 3a f8
	ff ff		 mov	 WORD PTR _pCSave$[ebp+50], dx
  00267	d9 ad 06 f8 ff
	ff		 fldcw	 WORD PTR tv387[ebp]
  0026d	51		 push	 ecx
  0026e	e8 00 00 00 00	 call	 ?ItemByteConvert16@@YAXPAEQAVCItem@@H@Z ; ItemByteConvert16

; 1621 : 	MagicByteConvert(pCSave.dbMagicList, lpObj->Magic, MAGIC_SIZE);

  00273	8b 93 38 03 00
	00		 mov	 edx, DWORD PTR [ebx+824]
  00279	6a 3c		 push	 60			; 0000003cH
  0027b	52		 push	 edx
  0027c	8d 85 fc fe ff
	ff		 lea	 eax, DWORD PTR _pCSave$[ebp+1780]
  00282	50		 push	 eax
  00283	e8 00 00 00 00	 call	 ?MagicByteConvert@@YAXPAEQAVCMagicInf@@H@Z ; MagicByteConvert

; 1622 : 	pCSave.MapNumber = lpObj->MapNumber;

  00288	0f b6 8b 09 01
	00 00		 movzx	 ecx, BYTE PTR [ebx+265]

; 1623 : 	pCSave.MapX = lpObj->X;

  0028f	8a 93 04 01 00
	00		 mov	 dl, BYTE PTR [ebx+260]

; 1624 : 	pCSave.MapY = lpObj->Y;

  00295	8a 83 06 01 00
	00		 mov	 al, BYTE PTR [ebx+262]
  0029b	88 4d b0	 mov	 BYTE PTR _pCSave$[ebp+1960], cl

; 1625 : 	pCSave.Dir = lpObj->Dir;

  0029e	0f b6 8b 08 01
	00 00		 movzx	 ecx, BYTE PTR [ebx+264]
  002a5	88 55 b1	 mov	 BYTE PTR _pCSave$[ebp+1961], dl

; 1626 : 	pCSave.PkCount = lpObj->m_PK_Count;

  002a8	0f be 93 fc 00
	00 00		 movsx	 edx, BYTE PTR [ebx+252]
  002af	88 45 b2	 mov	 BYTE PTR _pCSave$[ebp+1962], al

; 1627 : 	pCSave.PkLevel = lpObj->m_PK_Level;

  002b2	0f be 83 fd 00
	00 00		 movsx	 eax, BYTE PTR [ebx+253]
  002b9	88 4d b3	 mov	 BYTE PTR _pCSave$[ebp+1963], cl

; 1628 : 	pCSave.PkTime = lpObj->m_PK_Time;

  002bc	8b 8b 00 01 00
	00		 mov	 ecx, DWORD PTR [ebx+256]
  002c2	89 4d bc	 mov	 DWORD PTR _pCSave$[ebp+1972], ecx

; 1629 : 	pCSave.Leadership = lpObj->Leadership;
; 1630 : 	pCSave.ChatLitmitTime = lpObj->ChatLimitTime;
; 1631 : 	pCSave.iFruitPoint = lpObj->iFruitPoint;

  002c5	8b 8b a4 00 00
	00		 mov	 ecx, DWORD PTR [ebx+164]
  002cb	89 55 b4	 mov	 DWORD PTR _pCSave$[ebp+1964], edx
  002ce	0f b7 93 d8 00
	00 00		 movzx	 edx, WORD PTR [ebx+216]
  002d5	89 45 b8	 mov	 DWORD PTR _pCSave$[ebp+1968], eax
  002d8	0f b7 83 dc 00
	00 00		 movzx	 eax, WORD PTR [ebx+220]
  002df	89 4d f8	 mov	 DWORD PTR _pCSave$[ebp+2032], ecx
  002e2	66 89 55 f4	 mov	 WORD PTR _pCSave$[ebp+2028], dx
  002e6	66 89 45 f6	 mov	 WORD PTR _pCSave$[ebp+2030], ax

; 1632 : 	pCSave.CharInfoSave = 0;

  002ea	c6 45 f2 00	 mov	 BYTE PTR _pCSave$[ebp+2026], 0

; 1633 : 	memcpy(pCSave.dbQuest, lpObj->m_Quest, sizeof(pCSave.dbQuest));

  002ee	8d b3 c0 0e 00
	00		 lea	 esi, DWORD PTR [ebx+3776]
  002f4	b9 0c 00 00 00	 mov	 ecx, 12			; 0000000cH
  002f9	8d 7d c0	 lea	 edi, DWORD PTR _pCSave$[ebp+1976]
  002fc	f3 a5		 rep movsd
  002fe	83 c4 18	 add	 esp, 24			; 00000018H

; 1634 : 
; 1635 : 	if ( cDBSMng.Send((char*)&pCSave, sizeof(SDHP_DBCHAR_INFOSAVE)) == FALSE )

  00301	68 f4 07 00 00	 push	 2036			; 000007f4H
  00306	8d 95 08 f8 ff
	ff		 lea	 edx, DWORD PTR _pCSave$[ebp]
  0030c	52		 push	 edx
  0030d	b9 00 00 00 00	 mov	 ecx, OFFSET ?cDBSMng@@3VDBSockMng@@A ; cDBSMng
  00312	66 a5		 movsw
  00314	e8 00 00 00 00	 call	 ?Send@DBSockMng@@QAEHPADH@Z ; DBSockMng::Send
  00319	5f		 pop	 edi
  0031a	5e		 pop	 esi
  0031b	85 c0		 test	 eax, eax
  0031d	75 30		 jne	 SHORT $LN1@GJSetChara

; 1636 : 	{
; 1637 : 		LogAdd(LOG_RED,  lMsg.Get(MSGGET(1, 174)), lpObj->Name);

  0031f	8b 85 fc f7 ff
	ff		 mov	 eax, DWORD PTR tv294[ebp]
  00325	50		 push	 eax
  00326	68 ae 01 00 00	 push	 430			; 000001aeH
  0032b	b9 00 00 00 00	 mov	 ecx, OFFSET ?lMsg@@3VCMsg@@A ; lMsg
  00330	e8 00 00 00 00	 call	 ?Get@CMsg@@QAEPADH@Z	; CMsg::Get
  00335	50		 push	 eax
  00336	6a 01		 push	 1
  00338	e8 00 00 00 00	 call	 ?LogAdd@@YAXW4eLogColor@@PADZZ ; LogAdd
  0033d	83 c4 0c	 add	 esp, 12			; 0000000cH
  00340	5b		 pop	 ebx

; 1644 : }

  00341	8b 4d fc	 mov	 ecx, DWORD PTR __$ArrayPad$[ebp]
  00344	33 cd		 xor	 ecx, ebp
  00346	e8 00 00 00 00	 call	 @__security_check_cookie@4
  0034b	8b e5		 mov	 esp, ebp
  0034d	5d		 pop	 ebp
  0034e	c3		 ret	 0
$LN1@GJSetChara:

; 1638 : 		return;
; 1639 : 	}
; 1640 : 
; 1641 : 	gObjItemTextSave(lpObj);

  0034f	53		 push	 ebx
  00350	e8 00 00 00 00	 call	 ?gObjItemTextSave@@YAXPAUOBJECTSTRUCT@@@Z ; gObjItemTextSave

; 1642 : 	gObjStatTextSave(lpObj);

  00355	53		 push	 ebx
  00356	e8 00 00 00 00	 call	 ?gObjStatTextSave@@YAXPAUOBJECTSTRUCT@@@Z ; gObjStatTextSave

; 1643 : 	gObjSavePetItemInfo(aIndex, 0);

  0035b	8b 4d 0c	 mov	 ecx, DWORD PTR _aIndex$[ebp]
  0035e	6a 00		 push	 0
  00360	51		 push	 ecx
  00361	e8 00 00 00 00	 call	 ?gObjSavePetItemInfo@@YAXHH@Z ; gObjSavePetItemInfo

; 1644 : }

  00366	8b 4d fc	 mov	 ecx, DWORD PTR __$ArrayPad$[ebp]
  00369	83 c4 10	 add	 esp, 16			; 00000010H
  0036c	33 cd		 xor	 ecx, ebp
  0036e	5b		 pop	 ebx
  0036f	e8 00 00 00 00	 call	 @__security_check_cookie@4
  00374	8b e5		 mov	 esp, ebp
  00376	5d		 pop	 ebp
  00377	c3		 ret	 0
?GJSetCharacterInfo@@YAXPAUOBJECTSTRUCT@@HH@Z ENDP	; GJSetCharacterInfo
_TEXT	ENDS
PUBLIC	??_C@_0CD@HNLEMMHH@?$LK?P?G?R?5?$LM?$KN?$LJ?v?$LH?N?5?A?$KC?$LM?S?G?X?A?V?$LN?C?$LB?b?5?$LJ?Y?$LG?x?$LE?O?$LE@ ; `string'
PUBLIC	??_C@_0BD@IBAEEAEE@?A?$KC?$LM?S?$MA?L?5?A?$LO?$LH?a?$LF?K?$LE?O?$LE?Y?4?$AA@ ; `string'
PUBLIC	??_C@_0CE@IPHEEDFH@?$FLCharTrasfer?$FN?5Success?5?$FL?$CFs?$FN?$FL?$CFs?$FN?5?$CI@ ; `string'
PUBLIC	??_C@_0DI@PPPCGFPL@?$LJ?$KO?A?$KG?5?$LJ?$NP?$LL?$PN?$LN?C?5change?$EAwebzen?4co?4kr?$LH@ ; `string'
PUBLIC	??_C@_0CB@DOBLFOAF@?$FLCharTrasfer?$FN?5Fail?5?$FL?$CFs?$FN?$FL?$CFs?$FN?5?$CI?$CFd?$CJ@ ; `string'
PUBLIC	?DGMoveOtherServer@@YAXPAUSDHP_CHARACTER_TRANSFER_RESULT@@@Z ; DGMoveOtherServer
EXTRN	?gObjCloseSet@@YAXHH@Z:PROC			; gObjCloseSet
EXTRN	?GCServerMsgStringSend@@YAXPADHE@Z:PROC		; GCServerMsgStringSend
EXTRN	?PHeadSetB@@YAXPAEEH@Z:PROC			; PHeadSetB
;	COMDAT ??_C@_0CD@HNLEMMHH@?$LK?P?G?R?5?$LM?$KN?$LJ?v?$LH?N?5?A?$KC?$LM?S?G?X?A?V?$LN?C?$LB?b?5?$LJ?Y?$LG?x?$LE?O?$LE@
CONST	SEGMENT
??_C@_0CD@HNLEMMHH@?$LK?P?G?R?5?$LM?$KN?$LJ?v?$LH?N?5?A?$KC?$LM?S?G?X?A?V?$LN?C?$LB?b?5?$LJ?Y?$LG?x?$LE?O?$LE@ DB 0baH
	DB	0d0H, 0c7H, 0d2H, ' ', 0bcH, 0adH, 0b9H, 0f6H, 0b7H, 0ceH, ' ', 0c1H
	DB	0a2H, 0bcH, 0d3H, 0c7H, 0d8H, 0c1H, 0d6H, 0bdH, 0c3H, 0b1H, 0e2H
	DB	' ', 0b9H, 0d9H, 0b6H, 0f8H, 0b4H, 0cfH, 0b4H, 0d9H, '.', 00H ; `string'
CONST	ENDS
;	COMDAT ??_C@_0BD@IBAEEAEE@?A?$KC?$LM?S?$MA?L?5?A?$LO?$LH?a?$LF?K?$LE?O?$LE?Y?4?$AA@
CONST	SEGMENT
??_C@_0BD@IBAEEAEE@?A?$KC?$LM?S?$MA?L?5?A?$LO?$LH?a?$LF?K?$LE?O?$LE?Y?4?$AA@ DB 0c1H
	DB	0a2H, 0bcH, 0d3H, 0c0H, 0ccH, ' ', 0c1H, 0beH, 0b7H, 0e1H, 0b5H
	DB	0cbH, 0b4H, 0cfH, 0b4H, 0d9H, '.', 00H	; `string'
CONST	ENDS
;	COMDAT ??_C@_0CE@IPHEEDFH@?$FLCharTrasfer?$FN?5Success?5?$FL?$CFs?$FN?$FL?$CFs?$FN?5?$CI@
CONST	SEGMENT
??_C@_0CE@IPHEEDFH@?$FLCharTrasfer?$FN?5Success?5?$FL?$CFs?$FN?$FL?$CFs?$FN?5?$CI@ DB '['
	DB	'CharTrasfer] Success [%s][%s] (%d)', 00H	; `string'
CONST	ENDS
;	COMDAT ??_C@_0DI@PPPCGFPL@?$LJ?$KO?A?$KG?5?$LJ?$NP?$LL?$PN?$LN?C?5change?$EAwebzen?4co?4kr?$LH@
CONST	SEGMENT
??_C@_0DI@PPPCGFPL@?$LJ?$KO?A?$KG?5?$LJ?$NP?$LL?$PN?$LN?C?5change?$EAwebzen?4co?4kr?$LH@ DB 0b9H
	DB	0aeH, 0c1H, 0a6H, ' ', 0b9H, 0dfH, 0bbH, 0fdH, 0bdH, 0c3H, ' c'
	DB	'hange@webzen.co.kr', 0b7H, 0ceH, ' ', 0b9H, 0aeH, 0c0H, 0c7H, 0c7H
	DB	0d8H, ' ', 0c1H, 0d6H, 0bdH, 0c3H, 0b1H, 0e2H, 0b9H, 0d9H, 0b6H
	DB	0f8H, 0b4H, 0cfH, 0b4H, 0d9H, 00H		; `string'
CONST	ENDS
;	COMDAT ??_C@_0CB@DOBLFOAF@?$FLCharTrasfer?$FN?5Fail?5?$FL?$CFs?$FN?$FL?$CFs?$FN?5?$CI?$CFd?$CJ@
CONST	SEGMENT
??_C@_0CB@DOBLFOAF@?$FLCharTrasfer?$FN?5Fail?5?$FL?$CFs?$FN?$FL?$CFs?$FN?5?$CI?$CFd?$CJ@ DB '['
	DB	'CharTrasfer] Fail [%s][%s] (%d)', 00H	; `string'
; Function compile flags: /Ogtp
CONST	ENDS
;	COMDAT ?DGMoveOtherServer@@YAXPAUSDHP_CHARACTER_TRANSFER_RESULT@@@Z
_TEXT	SEGMENT
_pResult$158792 = 8					; size = 4
_lpMsg$ = 8						; size = 4
?DGMoveOtherServer@@YAXPAUSDHP_CHARACTER_TRANSFER_RESULT@@@Z PROC ; DGMoveOtherServer, COMDAT

; 2491 : {

  00000	55		 push	 ebp
  00001	8b ec		 mov	 ebp, esp
  00003	57		 push	 edi

; 2492 : 	if ( !gObjIsConnectedGP(lpMsg->Number))

  00004	8b 7d 08	 mov	 edi, DWORD PTR _lpMsg$[ebp]
  00007	0f bf 47 0e	 movsx	 eax, WORD PTR [edi+14]
  0000b	50		 push	 eax
  0000c	e8 00 00 00 00	 call	 ?gObjIsConnectedGP@@YAHH@Z ; gObjIsConnectedGP
  00011	83 c4 04	 add	 esp, 4
  00014	85 c0		 test	 eax, eax
  00016	75 1c		 jne	 SHORT $LN2@DGMoveOthe

; 2493 : 	{
; 2494 : 		LogAdd(LOG_RED,  "error-L3 [%s][%d]", __FILE__, __LINE__);

  00018	68 be 09 00 00	 push	 2494			; 000009beH
  0001d	68 00 00 00 00	 push	 OFFSET ??_C@_0P@DNGOKBGI@DSProtocol?4cpp?$AA@
  00022	68 00 00 00 00	 push	 OFFSET ??_C@_0BC@OFCHNMFP@error?9L3?5?$FL?$CFs?$FN?$FL?$CFd?$FN?$AA@
  00027	6a 01		 push	 1
  00029	e8 00 00 00 00	 call	 ?LogAdd@@YAXW4eLogColor@@PADZZ ; LogAdd
  0002e	83 c4 10	 add	 esp, 16			; 00000010H
  00031	5f		 pop	 edi

; 2528 : }

  00032	5d		 pop	 ebp
  00033	c3		 ret	 0
$LN2@DGMoveOthe:
  00034	56		 push	 esi

; 2495 : 		return;
; 2496 : 	}
; 2497 : 
; 2498 : 	LPOBJ lpObj = &gObj[lpMsg->Number];

  00035	0f bf 77 0e	 movsx	 esi, WORD PTR [edi+14]
  00039	69 f6 64 15 00
	00		 imul	 esi, 5476		; 00001564H
  0003f	81 c6 00 00 00
	00		 add	 esi, OFFSET ?gObj@@3PAUOBJECTSTRUCT@@A ; gObj

; 2499 : 
; 2500 : 	if ( lpMsg->Result != 0 )

  00045	80 7f 10 00	 cmp	 BYTE PTR [edi+16], 0
  00049	74 5d		 je	 SHORT $LN1@DGMoveOthe

; 2501 : 	{
; 2502 : 		PMSG_DEFRESULT pResult;
; 2503 : 
; 2504 : 		PHeadSetB((LPBYTE)&pResult, 0x99, sizeof(pResult));

  0004b	6a 04		 push	 4
  0004d	8d 4d 08	 lea	 ecx, DWORD PTR _pResult$158792[ebp]
  00050	68 99 00 00 00	 push	 153			; 00000099H
  00055	51		 push	 ecx
  00056	e8 00 00 00 00	 call	 ?PHeadSetB@@YAXPAEEH@Z	; PHeadSetB

; 2505 : 		pResult.result = 1;
; 2506 : 
; 2507 : 		DataSend(lpMsg->Number, (LPBYTE)&pResult, pResult.h.size);

  0005b	0f b6 55 09	 movzx	 edx, BYTE PTR _pResult$158792[ebp+1]
  0005f	0f bf 4f 0e	 movsx	 ecx, WORD PTR [edi+14]
  00063	52		 push	 edx
  00064	8d 45 08	 lea	 eax, DWORD PTR _pResult$158792[ebp]
  00067	50		 push	 eax
  00068	51		 push	 ecx
  00069	c6 45 0b 01	 mov	 BYTE PTR _pResult$158792[ebp+3], 1
  0006d	e8 00 00 00 00	 call	 ?DataSend@@YAHHPAEK@Z	; DataSend

; 2508 : 
; 2509 : 		LogAdd(LOG_BLACK, "[CharTrasfer] Fail [%s][%s] (%d)",
; 2510 : 			lpObj->AccountID, lpObj->Name, lpMsg->Result);

  00072	0f b6 57 10	 movzx	 edx, BYTE PTR [edi+16]
  00076	52		 push	 edx
  00077	8d 46 6f	 lea	 eax, DWORD PTR [esi+111]
  0007a	50		 push	 eax
  0007b	8d 4e 64	 lea	 ecx, DWORD PTR [esi+100]
  0007e	51		 push	 ecx
  0007f	68 00 00 00 00	 push	 OFFSET ??_C@_0CB@DOBLFOAF@?$FLCharTrasfer?$FN?5Fail?5?$FL?$CFs?$FN?$FL?$CFs?$FN?5?$CI?$CFd?$CJ@
  00084	6a 00		 push	 0
  00086	e8 00 00 00 00	 call	 ?LogAdd@@YAXW4eLogColor@@PADZZ ; LogAdd

; 2511 : 		
; 2512 : 		lpObj->m_MoveOtherServer = 0;
; 2513 : 		
; 2514 : 		GCServerMsgStringSend("  change@webzen.co.kr  ",lpObj->m_Index, 1);

  0008b	8b 16		 mov	 edx, DWORD PTR [esi]
  0008d	6a 01		 push	 1
  0008f	52		 push	 edx
  00090	68 00 00 00 00	 push	 OFFSET ??_C@_0DI@PPPCGFPL@?$LJ?$KO?A?$KG?5?$LJ?$NP?$LL?$PN?$LN?C?5change?$EAwebzen?4co?4kr?$LH@
  00095	c6 86 14 0f 00
	00 00		 mov	 BYTE PTR [esi+3860], 0
  0009c	e8 00 00 00 00	 call	 ?GCServerMsgStringSend@@YAXPADHE@Z ; GCServerMsgStringSend
  000a1	83 c4 38	 add	 esp, 56			; 00000038H
  000a4	5e		 pop	 esi
  000a5	5f		 pop	 edi

; 2528 : }

  000a6	5d		 pop	 ebp
  000a7	c3		 ret	 0
$LN1@DGMoveOthe:

; 2515 : 		// Deathway translation here
; 2516 : 		return;
; 2517 : 	}
; 2518 : 
; 2519 : 	LogAdd(LOG_BLACK, "[CharTrasfer] Success [%s][%s] (%d)",
; 2520 : 		lpObj->AccountID, lpObj->Name, lpMsg->Result);

  000a8	6a 00		 push	 0
  000aa	8d 46 6f	 lea	 eax, DWORD PTR [esi+111]
  000ad	50		 push	 eax
  000ae	8d 4e 64	 lea	 ecx, DWORD PTR [esi+100]
  000b1	51		 push	 ecx
  000b2	68 00 00 00 00	 push	 OFFSET ??_C@_0CE@IPHEEDFH@?$FLCharTrasfer?$FN?5Success?5?$FL?$CFs?$FN?$FL?$CFs?$FN?5?$CI@
  000b7	6a 00		 push	 0
  000b9	e8 00 00 00 00	 call	 ?LogAdd@@YAXW4eLogColor@@PADZZ ; LogAdd

; 2521 : 
; 2522 : 	GCServerMsgStringSend(" .", lpObj->m_Index, 1);// Deathway translation here

  000be	8b 16		 mov	 edx, DWORD PTR [esi]
  000c0	6a 01		 push	 1
  000c2	52		 push	 edx
  000c3	68 00 00 00 00	 push	 OFFSET ??_C@_0BD@IBAEEAEE@?A?$KC?$LM?S?$MA?L?5?A?$LO?$LH?a?$LF?K?$LE?O?$LE?Y?4?$AA@
  000c8	e8 00 00 00 00	 call	 ?GCServerMsgStringSend@@YAXPADHE@Z ; GCServerMsgStringSend

; 2523 : 	GCServerMsgStringSend("   .", lpObj->m_Index, 1);// Deathway translation here

  000cd	8b 06		 mov	 eax, DWORD PTR [esi]
  000cf	6a 01		 push	 1
  000d1	50		 push	 eax
  000d2	68 00 00 00 00	 push	 OFFSET ??_C@_0CD@HNLEMMHH@?$LK?P?G?R?5?$LM?$KN?$LJ?v?$LH?N?5?A?$KC?$LM?S?G?X?A?V?$LN?C?$LB?b?5?$LJ?Y?$LG?x?$LE?O?$LE@
  000d7	e8 00 00 00 00	 call	 ?GCServerMsgStringSend@@YAXPADHE@Z ; GCServerMsgStringSend

; 2524 : 	GJSetCharacterInfo(lpObj, lpObj->m_Index, 0);

  000dc	8b 0e		 mov	 ecx, DWORD PTR [esi]
  000de	6a 00		 push	 0
  000e0	51		 push	 ecx
  000e1	56		 push	 esi
  000e2	e8 00 00 00 00	 call	 ?GJSetCharacterInfo@@YAXPAUOBJECTSTRUCT@@HH@Z ; GJSetCharacterInfo

; 2525 : 	lpObj->LoadWareHouseInfo = false;
; 2526 : 	gObjCloseSet(lpObj->m_Index, 2);

  000e7	8b 16		 mov	 edx, DWORD PTR [esi]
  000e9	6a 02		 push	 2
  000eb	52		 push	 edx
  000ec	c6 86 b8 0e 00
	00 00		 mov	 BYTE PTR [esi+3768], 0
  000f3	e8 00 00 00 00	 call	 ?gObjCloseSet@@YAXHH@Z	; gObjCloseSet
  000f8	83 c4 40	 add	 esp, 64			; 00000040H

; 2527 : 	lpObj->m_MoveOtherServer = 0;

  000fb	c6 86 14 0f 00
	00 00		 mov	 BYTE PTR [esi+3860], 0
  00102	5e		 pop	 esi
  00103	5f		 pop	 edi

; 2528 : }

  00104	5d		 pop	 ebp
  00105	c3		 ret	 0
?DGMoveOtherServer@@YAXPAUSDHP_CHARACTER_TRANSFER_RESULT@@@Z ENDP ; DGMoveOtherServer
_TEXT	ENDS
PUBLIC	??_C@_0CC@MBCBAID@error?9L2DataServer?5RECV?5?3?5?$CFd?5?$CI?$CFd@ ; `string'
PUBLIC	?DataServerProtocolCore@@YAXEPAEH@Z		; DataServerProtocolCore
;	COMDAT ??_C@_0CC@MBCBAID@error?9L2DataServer?5RECV?5?3?5?$CFd?5?$CI?$CFd@
CONST	SEGMENT
??_C@_0CC@MBCBAID@error?9L2DataServer?5RECV?5?3?5?$CFd?5?$CI?$CFd@ DB 'er'
	DB	'ror-L2DataServer RECV : %d (%d)', 00H	; `string'
; Function compile flags: /Ogtp
CONST	ENDS
;	COMDAT ?DataServerProtocolCore@@YAXEPAEH@Z
_TEXT	SEGMENT
_protoNum$ = 8						; size = 1
_aRecv$ = 12						; size = 4
_aLen$ = 16						; size = 4
?DataServerProtocolCore@@YAXEPAEH@Z PROC		; DataServerProtocolCore, COMDAT

; 33   : {

  00000	55		 push	 ebp
  00001	8b ec		 mov	 ebp, esp

; 34   : 
; 35   : 	#ifdef TRACE_PROTOCOL
; 36   : 		LogAddHeadHex("DATA_SERVER", aRecv, aLen);
; 37   : 	#endif
; 38   : 
; 39   : 	switch ( protoNum )

  00003	0f b6 45 08	 movzx	 eax, BYTE PTR _protoNum$[ebp]
  00007	3d ff 00 00 00	 cmp	 eax, 255		; 000000ffH
  0000c	0f 8f 11 01 00
	00		 jg	 $LN53@DataServer@4
  00012	0f 84 ee 00 00
	00		 je	 $LN1@DataServer@4
  00018	3d cf 00 00 00	 cmp	 eax, 207		; 000000cfH
  0001d	0f 87 00 01 00
	00		 ja	 $LN53@DataServer@4
  00023	0f b6 80 00 00
	00 00		 movzx	 eax, BYTE PTR $LN54@DataServer@4[eax]
  0002a	ff 24 85 00 00
	00 00		 jmp	 DWORD PTR $LN56@DataServer@4[eax*4]
$LN48@DataServer@4:

; 40   : 	{
; 41   : 		case 0x00:
; 42   : 			DataServerLoginResult((SDHP_RESULT *)aRecv);

  00031	8b 4d 0c	 mov	 ecx, DWORD PTR _aRecv$[ebp]
  00034	51		 push	 ecx
  00035	e8 00 00 00 00	 call	 ?DataServerLoginResult@@YAXPAUSDHP_RESULT@@@Z ; DataServerLoginResult
  0003a	83 c4 04	 add	 esp, 4

; 231  : 			}
; 232  : 			break;
; 233  : 	}
; 234  : }

  0003d	5d		 pop	 ebp
  0003e	c3		 ret	 0
$LN47@DataServer@4:

; 43   : 			break;
; 44   : 
; 45   : 		case 0x01:
; 46   : 			JGPGetCharList(aRecv);

  0003f	8b 55 0c	 mov	 edx, DWORD PTR _aRecv$[ebp]
  00042	52		 push	 edx
  00043	e8 00 00 00 00	 call	 ?JGPGetCharList@@YAXPAE@Z ; JGPGetCharList
  00048	83 c4 04	 add	 esp, 4

; 231  : 			}
; 232  : 			break;
; 233  : 	}
; 234  : }

  0004b	5d		 pop	 ebp
  0004c	c3		 ret	 0
$LN46@DataServer@4:

; 47   : 			break;
; 48   : 
; 49   : 		case 0x04:
; 50   : 			JGCharacterCreateRequest((SDHP_CREATECHARRESULT *)aRecv);

  0004d	8b 45 0c	 mov	 eax, DWORD PTR _aRecv$[ebp]
  00050	50		 push	 eax
  00051	e8 00 00 00 00	 call	 ?JGCharacterCreateRequest@@YAXPAUSDHP_CREATECHARRESULT@@@Z ; JGCharacterCreateRequest
  00056	83 c4 04	 add	 esp, 4

; 231  : 			}
; 232  : 			break;
; 233  : 	}
; 234  : }

  00059	5d		 pop	 ebp
  0005a	c3		 ret	 0
$LN45@DataServer@4:

; 51   : 			break;
; 52   : 
; 53   : 		case 0x05:
; 54   : 			JGCharDelRequest((SDHP_CHARDELETERESULT *)aRecv);

  0005b	8b 4d 0c	 mov	 ecx, DWORD PTR _aRecv$[ebp]
  0005e	51		 push	 ecx
  0005f	e8 00 00 00 00	 call	 ?JGCharDelRequest@@YAXPAUSDHP_CHARDELETERESULT@@@Z ; JGCharDelRequest
  00064	83 c4 04	 add	 esp, 4

; 231  : 			}
; 232  : 			break;
; 233  : 	}
; 234  : }

  00067	5d		 pop	 ebp
  00068	c3		 ret	 0
$LN44@DataServer@4:

; 55   : 			break;
; 56   : 
; 57   : 		case 0x06:
; 58   : 			JGGetCharacterInfo((SDHP_DBCHAR_INFORESULT *)aRecv);

  00069	8b 55 0c	 mov	 edx, DWORD PTR _aRecv$[ebp]
  0006c	52		 push	 edx
  0006d	e8 00 00 00 00	 call	 ?JGGetCharacterInfo@@YAXPAUSDHP_DBCHAR_INFORESULT@@@Z ; JGGetCharacterInfo
  00072	83 c4 04	 add	 esp, 4

; 231  : 			}
; 232  : 			break;
; 233  : 	}
; 234  : }

  00075	5d		 pop	 ebp
  00076	c3		 ret	 0
$LN43@DataServer@4:

; 59   : 			break;
; 60   : 
; 61   : 		case 0x08:
; 62   : 			DGGetWarehouseList((SDHP_GETWAREHOUSEDB_SAVE *)aRecv);

  00077	8b 45 0c	 mov	 eax, DWORD PTR _aRecv$[ebp]
  0007a	50		 push	 eax
  0007b	e8 00 00 00 00	 call	 ?DGGetWarehouseList@@YAXPAUSDHP_GETWAREHOUSEDB_SAVE@@@Z ; DGGetWarehouseList
  00080	83 c4 04	 add	 esp, 4

; 231  : 			}
; 232  : 			break;
; 233  : 	}
; 234  : }

  00083	5d		 pop	 ebp
  00084	c3		 ret	 0
$LN42@DataServer@4:

; 63   : 			break;
; 64   : 
; 65   : 		case 0x10:
; 66   : 			GDGetWarehouseNoItem((SDHP_GETWAREHOUSEDB_RESULT *)aRecv);

  00085	8b 4d 0c	 mov	 ecx, DWORD PTR _aRecv$[ebp]
  00088	51		 push	 ecx
  00089	e8 00 00 00 00	 call	 ?GDGetWarehouseNoItem@@YAXPAUSDHP_GETWAREHOUSEDB_RESULT@@@Z ; GDGetWarehouseNoItem
  0008e	83 c4 04	 add	 esp, 4

; 231  : 			}
; 232  : 			break;
; 233  : 	}
; 234  : }

  00091	5d		 pop	 ebp
  00092	c3		 ret	 0
$LN41@DataServer@4:

; 67   : 			break;
; 68   : 
; 69   : 		case 0x52:
; 70   : 			ItemSerialCreateRecv((SDHP_ITEMCREATERECV *)aRecv);

  00093	8b 55 0c	 mov	 edx, DWORD PTR _aRecv$[ebp]
  00096	52		 push	 edx
  00097	e8 00 00 00 00	 call	 ?ItemSerialCreateRecv@@YAXPAUSDHP_ITEMCREATERECV@@@Z ; ItemSerialCreateRecv
  0009c	83 c4 04	 add	 esp, 4

; 231  : 			}
; 232  : 			break;
; 233  : 	}
; 234  : }

  0009f	5d		 pop	 ebp
  000a0	c3		 ret	 0
$LN40@DataServer@4:

; 71   : 			break;
; 72   : 
; 73   : 		case 0x56:
; 74   : 			DGRecvPetItemInfo(aRecv);

  000a1	8b 45 0c	 mov	 eax, DWORD PTR _aRecv$[ebp]
  000a4	50		 push	 eax
  000a5	e8 00 00 00 00	 call	 ?DGRecvPetItemInfo@@YAXPAE@Z ; DGRecvPetItemInfo
  000aa	83 c4 04	 add	 esp, 4

; 231  : 			}
; 232  : 			break;
; 233  : 	}
; 234  : }

  000ad	5d		 pop	 ebp
  000ae	c3		 ret	 0
$LN39@DataServer@4:

; 75   : 			break;
; 76   : 
; 77   : 		case 0x60:
; 78   : 			DGOptionDataRecv((SDHP_SKILLKEYDATA_SEND *)aRecv);

  000af	8b 4d 0c	 mov	 ecx, DWORD PTR _aRecv$[ebp]
  000b2	51		 push	 ecx
  000b3	e8 00 00 00 00	 call	 ?DGOptionDataRecv@@YAXPAUSDHP_SKILLKEYDATA_SEND@@@Z ; DGOptionDataRecv
  000b8	83 c4 04	 add	 esp, 4

; 231  : 			}
; 232  : 			break;
; 233  : 	}
; 234  : }

  000bb	5d		 pop	 ebp
  000bc	c3		 ret	 0
$LN38@DataServer@4:

; 79   : 			break;
; 80   : 
; 81   : 		case 0x80:
; 82   : 			{
; 83   : 				PMSG_DEFAULT2 * lpDef1 = (PMSG_DEFAULT2 *)aRecv;
; 84   : 
; 85   : 				switch ( lpDef1->subcode )

  000bd	8b 4d 0c	 mov	 ecx, DWORD PTR _aRecv$[ebp]
  000c0	0f b6 41 03	 movzx	 eax, BYTE PTR [ecx+3]
  000c4	83 f8 1b	 cmp	 eax, 27			; 0000001bH
  000c7	77 5a		 ja	 SHORT $LN53@DataServer@4
  000c9	0f b6 90 00 00
	00 00		 movzx	 edx, BYTE PTR $LN55@DataServer@4[eax]
  000d0	ff 24 95 00 00
	00 00		 jmp	 DWORD PTR $LN57@DataServer@4[edx*4]
$LN21@DataServer@4:

; 86   : 				{
; 87   : 					case 0x00:
; 88   : 						GS_DGAnsCastleTotalInfo(aRecv);
; 89   : 						break;
; 90   : 
; 91   : 					case 0x01:
; 92   : 						GS_DGAnsOwnerGuildMaster(aRecv);
; 93   : 						break;
; 94   : 
; 95   : 					case 0x03:
; 96   : 						GS_DGAnsCastleNpcBuy(aRecv);
; 97   : 						break;
; 98   : 
; 99   : 					case 0x04:
; 100  : 						GS_DGAnsCastleNpcRepair(aRecv);
; 101  : 						break;
; 102  : 
; 103  : 					case 0x05:
; 104  : 						GS_DGAnsCastleNpcUpgrade(aRecv);
; 105  : 						break;
; 106  : 
; 107  : 					case 0x06:
; 108  : 						GS_DGAnsTaxInfo(aRecv);
; 109  : 						break;
; 110  : 
; 111  : 					case 0x07:
; 112  : 						GS_DGAnsTaxRateChange(aRecv);
; 113  : 						break;
; 114  : 
; 115  : 					case 0x08:
; 116  : 						GS_DGAnsCastleMoneyChange(aRecv);
; 117  : 						break;
; 118  : 
; 119  : 					case 0x09:
; 120  : 						GS_DGAnsSiegeDateChange(aRecv);
; 121  : 						break;
; 122  : 
; 123  : 					case 0x0A:
; 124  : 						GS_DGAnsGuildMarkRegInfo(aRecv);
; 125  : 						break;
; 126  : 
; 127  : 					case 0x0B:
; 128  : 						GS_DGAnsSiegeEndedChange(aRecv);
; 129  : 						break;
; 130  : 
; 131  : 					case 0x0C:
; 132  : 						GS_DGAnsCastleOwnerChange(aRecv);
; 133  : 						break;
; 134  : 
; 135  : 					case 0x0D:
; 136  : 						GS_DGAnsRegAttackGuild(aRecv);
; 137  : 						break;
; 138  : 
; 139  : 					case 0x0E:
; 140  : 						GS_DGAnsRestartCastleState(aRecv);
; 141  : 						break;
; 142  : 
; 143  : 					case 0x0F:
; 144  : 						GS_DGAnsMapSvrMsgMultiCast(aRecv);

  000d7	51		 push	 ecx
  000d8	e8 00 00 00 00	 call	 ?GS_DGAnsMapSvrMsgMultiCast@@YAXPAE@Z ; GS_DGAnsMapSvrMsgMultiCast
  000dd	83 c4 04	 add	 esp, 4

; 231  : 			}
; 232  : 			break;
; 233  : 	}
; 234  : }

  000e0	5d		 pop	 ebp
  000e1	c3		 ret	 0
$LN16@DataServer@4:

; 145  : 						break;
; 146  : 
; 147  : 					case 0x10:
; 148  : 						GS_DGAnsRegGuildMark(aRecv);
; 149  : 						break;
; 150  : 
; 151  : 					case 0x11:
; 152  : 						GS_DGAnsGuildMarkReset(aRecv);
; 153  : 						break;
; 154  : 
; 155  : 					case 0x12:
; 156  : 						GS_DGAnsGuildSetGiveUp(aRecv);
; 157  : 						break;
; 158  : 
; 159  : 					case 0x16:
; 160  : 						GS_DGAnsNpcRemove(aRecv);
; 161  : 						break;
; 162  : 
; 163  : 					case 0x17:
; 164  : 						GS_DGAnsCastleStateSync(aRecv);

  000e2	51		 push	 ecx
  000e3	e8 00 00 00 00	 call	 ?GS_DGAnsCastleStateSync@@YAXPAE@Z ; GS_DGAnsCastleStateSync
  000e8	83 c4 04	 add	 esp, 4

; 231  : 			}
; 232  : 			break;
; 233  : 	}
; 234  : }

  000eb	5d		 pop	 ebp
  000ec	c3		 ret	 0
$LN15@DataServer@4:

; 165  : 						break;
; 166  : 
; 167  : 					case 0x18:
; 168  : 						GS_DGAnsCastleTributeMoney(aRecv);

  000ed	51		 push	 ecx
  000ee	e8 00 00 00 00	 call	 ?GS_DGAnsCastleTributeMoney@@YAXPAE@Z ; GS_DGAnsCastleTributeMoney
  000f3	83 c4 04	 add	 esp, 4

; 231  : 			}
; 232  : 			break;
; 233  : 	}
; 234  : }

  000f6	5d		 pop	 ebp
  000f7	c3		 ret	 0
$LN2@DataServer@4:

; 169  : 						break;
; 170  : 
; 171  : 					case 0x19:
; 172  : 						GS_DGAnsResetCastleTaxInfo(aRecv);
; 173  : 						break;
; 174  : 
; 175  : 					case 0x1A:
; 176  : 						GS_DGAnsResetSiegeGuildInfo(aRecv);
; 177  : 						break;
; 178  : 
; 179  : 					case 0x1B:
; 180  : 						GS_DGAnsResetRegSiegeInfo(aRecv);
; 181  : 						break;
; 182  : 				}
; 183  : 			}
; 184  : 			break;
; 185  : 
; 186  : 		case 0x81:
; 187  : 			GS_DGAnsCastleInitData(aRecv);
; 188  : 			break;
; 189  : 
; 190  : 		case 0x82:
; 191  : 			GS_DGAnsCastleNpcInfo(aRecv);
; 192  : 			break;
; 193  : 
; 194  : 		case 0x83:
; 195  : 			GS_DGAnsAllGuildMarkRegInfo(aRecv);
; 196  : 			break;
; 197  : 
; 198  : 		case 0x84:
; 199  : 			GS_DGAnsFirstCreateNPC(aRecv);
; 200  : 			break;
; 201  : 
; 202  : 		case 0x85:
; 203  : 			GS_DGAnsCalcREgGuildList(aRecv);
; 204  : 			break;
; 205  : 
; 206  : 		case 0x86:
; 207  : 			GS_DGAnsCsGulidUnionInfo(aRecv);
; 208  : 			break;
; 209  : 
; 210  : 		case 0x87:
; 211  : 			GS_DGAnsCsSaveTotalGuildInfo(aRecv);
; 212  : 			break;
; 213  : 
; 214  : 		case 0x88:
; 215  : 			GS_DGAnsCsLoadTotalGuildInfo(aRecv);
; 216  : 			break;
; 217  : 
; 218  : 		case 0x89:
; 219  : 			GS_DGAnsCastleNpcUpdate(aRecv);
; 220  : 			break;
; 221  : 
; 222  : 		case 0xCF:
; 223  : 			DGMoveOtherServer((SDHP_CHARACTER_TRANSFER_RESULT *)aRecv);

  000f8	8b 45 0c	 mov	 eax, DWORD PTR _aRecv$[ebp]
  000fb	50		 push	 eax
  000fc	e8 00 00 00 00	 call	 ?DGMoveOtherServer@@YAXPAUSDHP_CHARACTER_TRANSFER_RESULT@@@Z ; DGMoveOtherServer
  00101	83 c4 04	 add	 esp, 4

; 231  : 			}
; 232  : 			break;
; 233  : 	}
; 234  : }

  00104	5d		 pop	 ebp
  00105	c3		 ret	 0
$LN1@DataServer@4:

; 224  : 			break;
; 225  : 
; 226  : 		case 0xFF:	// Test Packet
; 227  : 			{
; 228  : 				PMSG_TEST * pMsg = (PMSG_TEST *)aRecv;
; 229  : 
; 230  : 				LogAdd(LOG_RED,  "error-L2DataServer RECV : %d (%d)", aLen, pMsg->count);

  00106	8b 4d 0c	 mov	 ecx, DWORD PTR _aRecv$[ebp]
  00109	8b 91 d0 07 00
	00		 mov	 edx, DWORD PTR [ecx+2000]
  0010f	8b 45 10	 mov	 eax, DWORD PTR _aLen$[ebp]
  00112	52		 push	 edx
  00113	50		 push	 eax
  00114	68 00 00 00 00	 push	 OFFSET ??_C@_0CC@MBCBAID@error?9L2DataServer?5RECV?5?3?5?$CFd?5?$CI?$CFd@
  00119	6a 01		 push	 1
  0011b	e8 00 00 00 00	 call	 ?LogAdd@@YAXW4eLogColor@@PADZZ ; LogAdd
  00120	83 c4 10	 add	 esp, 16			; 00000010H
$LN53@DataServer@4:

; 231  : 			}
; 232  : 			break;
; 233  : 	}
; 234  : }

  00123	5d		 pop	 ebp
  00124	c3		 ret	 0
  00125	8d 49 00	 npad	 3
$LN56@DataServer@4:
  00128	00 00 00 00	 DD	 $LN48@DataServer@4
  0012c	00 00 00 00	 DD	 $LN47@DataServer@4
  00130	00 00 00 00	 DD	 $LN46@DataServer@4
  00134	00 00 00 00	 DD	 $LN45@DataServer@4
  00138	00 00 00 00	 DD	 $LN44@DataServer@4
  0013c	00 00 00 00	 DD	 $LN43@DataServer@4
  00140	00 00 00 00	 DD	 $LN42@DataServer@4
  00144	00 00 00 00	 DD	 $LN41@DataServer@4
  00148	00 00 00 00	 DD	 $LN40@DataServer@4
  0014c	00 00 00 00	 DD	 $LN39@DataServer@4
  00150	00 00 00 00	 DD	 $LN38@DataServer@4
  00154	00 00 00 00	 DD	 $LN53@DataServer@4
  00158	00 00 00 00	 DD	 $LN2@DataServer@4
  0015c	00 00 00 00	 DD	 $LN53@DataServer@4
$LN54@DataServer@4:
  00160	00		 DB	 0
  00161	01		 DB	 1
  00162	0d		 DB	 13			; 0000000dH
  00163	0d		 DB	 13			; 0000000dH
  00164	02		 DB	 2
  00165	03		 DB	 3
  00166	04		 DB	 4
  00167	0d		 DB	 13			; 0000000dH
  00168	05		 DB	 5
  00169	0d		 DB	 13			; 0000000dH
  0016a	0d		 DB	 13			; 0000000dH
  0016b	0d		 DB	 13			; 0000000dH
  0016c	0d		 DB	 13			; 0000000dH
  0016d	0d		 DB	 13			; 0000000dH
  0016e	0d		 DB	 13			; 0000000dH
  0016f	0d		 DB	 13			; 0000000dH
  00170	06		 DB	 6
  00171	0d		 DB	 13			; 0000000dH
  00172	0d		 DB	 13			; 0000000dH
  00173	0d		 DB	 13			; 0000000dH
  00174	0d		 DB	 13			; 0000000dH
  00175	0d		 DB	 13			; 0000000dH
  00176	0d		 DB	 13			; 0000000dH
  00177	0d		 DB	 13			; 0000000dH
  00178	0d		 DB	 13			; 0000000dH
  00179	0d		 DB	 13			; 0000000dH
  0017a	0d		 DB	 13			; 0000000dH
  0017b	0d		 DB	 13			; 0000000dH
  0017c	0d		 DB	 13			; 0000000dH
  0017d	0d		 DB	 13			; 0000000dH
  0017e	0d		 DB	 13			; 0000000dH
  0017f	0d		 DB	 13			; 0000000dH
  00180	0d		 DB	 13			; 0000000dH
  00181	0d		 DB	 13			; 0000000dH
  00182	0d		 DB	 13			; 0000000dH
  00183	0d		 DB	 13			; 0000000dH
  00184	0d		 DB	 13			; 0000000dH
  00185	0d		 DB	 13			; 0000000dH
  00186	0d		 DB	 13			; 0000000dH
  00187	0d		 DB	 13			; 0000000dH
  00188	0d		 DB	 13			; 0000000dH
  00189	0d		 DB	 13			; 0000000dH
  0018a	0d		 DB	 13			; 0000000dH
  0018b	0d		 DB	 13			; 0000000dH
  0018c	0d		 DB	 13			; 0000000dH
  0018d	0d		 DB	 13			; 0000000dH
  0018e	0d		 DB	 13			; 0000000dH
  0018f	0d		 DB	 13			; 0000000dH
  00190	0d		 DB	 13			; 0000000dH
  00191	0d		 DB	 13			; 0000000dH
  00192	0d		 DB	 13			; 0000000dH
  00193	0d		 DB	 13			; 0000000dH
  00194	0d		 DB	 13			; 0000000dH
  00195	0d		 DB	 13			; 0000000dH
  00196	0d		 DB	 13			; 0000000dH
  00197	0d		 DB	 13			; 0000000dH
  00198	0d		 DB	 13			; 0000000dH
  00199	0d		 DB	 13			; 0000000dH
  0019a	0d		 DB	 13			; 0000000dH
  0019b	0d		 DB	 13			; 0000000dH
  0019c	0d		 DB	 13			; 0000000dH
  0019d	0d		 DB	 13			; 0000000dH
  0019e	0d		 DB	 13			; 0000000dH
  0019f	0d		 DB	 13			; 0000000dH
  001a0	0d		 DB	 13			; 0000000dH
  001a1	0d		 DB	 13			; 0000000dH
  001a2	0d		 DB	 13			; 0000000dH
  001a3	0d		 DB	 13			; 0000000dH
  001a4	0d		 DB	 13			; 0000000dH
  001a5	0d		 DB	 13			; 0000000dH
  001a6	0d		 DB	 13			; 0000000dH
  001a7	0d		 DB	 13			; 0000000dH
  001a8	0d		 DB	 13			; 0000000dH
  001a9	0d		 DB	 13			; 0000000dH
  001aa	0d		 DB	 13			; 0000000dH
  001ab	0d		 DB	 13			; 0000000dH
  001ac	0d		 DB	 13			; 0000000dH
  001ad	0d		 DB	 13			; 0000000dH
  001ae	0d		 DB	 13			; 0000000dH
  001af	0d		 DB	 13			; 0000000dH
  001b0	0d		 DB	 13			; 0000000dH
  001b1	0d		 DB	 13			; 0000000dH
  001b2	07		 DB	 7
  001b3	0d		 DB	 13			; 0000000dH
  001b4	0d		 DB	 13			; 0000000dH
  001b5	0d		 DB	 13			; 0000000dH
  001b6	08		 DB	 8
  001b7	0d		 DB	 13			; 0000000dH
  001b8	0d		 DB	 13			; 0000000dH
  001b9	0d		 DB	 13			; 0000000dH
  001ba	0d		 DB	 13			; 0000000dH
  001bb	0d		 DB	 13			; 0000000dH
  001bc	0d		 DB	 13			; 0000000dH
  001bd	0d		 DB	 13			; 0000000dH
  001be	0d		 DB	 13			; 0000000dH
  001bf	0d		 DB	 13			; 0000000dH
  001c0	09		 DB	 9
  001c1	0d		 DB	 13			; 0000000dH
  001c2	0d		 DB	 13			; 0000000dH
  001c3	0d		 DB	 13			; 0000000dH
  001c4	0d		 DB	 13			; 0000000dH
  001c5	0d		 DB	 13			; 0000000dH
  001c6	0d		 DB	 13			; 0000000dH
  001c7	0d		 DB	 13			; 0000000dH
  001c8	0d		 DB	 13			; 0000000dH
  001c9	0d		 DB	 13			; 0000000dH
  001ca	0d		 DB	 13			; 0000000dH
  001cb	0d		 DB	 13			; 0000000dH
  001cc	0d		 DB	 13			; 0000000dH
  001cd	0d		 DB	 13			; 0000000dH
  001ce	0d		 DB	 13			; 0000000dH
  001cf	0d		 DB	 13			; 0000000dH
  001d0	0d		 DB	 13			; 0000000dH
  001d1	0d		 DB	 13			; 0000000dH
  001d2	0d		 DB	 13			; 0000000dH
  001d3	0d		 DB	 13			; 0000000dH
  001d4	0d		 DB	 13			; 0000000dH
  001d5	0d		 DB	 13			; 0000000dH
  001d6	0d		 DB	 13			; 0000000dH
  001d7	0d		 DB	 13			; 0000000dH
  001d8	0d		 DB	 13			; 0000000dH
  001d9	0d		 DB	 13			; 0000000dH
  001da	0d		 DB	 13			; 0000000dH
  001db	0d		 DB	 13			; 0000000dH
  001dc	0d		 DB	 13			; 0000000dH
  001dd	0d		 DB	 13			; 0000000dH
  001de	0d		 DB	 13			; 0000000dH
  001df	0d		 DB	 13			; 0000000dH
  001e0	0a		 DB	 10			; 0000000aH
  001e1	0b		 DB	 11			; 0000000bH
  001e2	0b		 DB	 11			; 0000000bH
  001e3	0b		 DB	 11			; 0000000bH
  001e4	0b		 DB	 11			; 0000000bH
  001e5	0b		 DB	 11			; 0000000bH
  001e6	0b		 DB	 11			; 0000000bH
  001e7	0b		 DB	 11			; 0000000bH
  001e8	0b		 DB	 11			; 0000000bH
  001e9	0b		 DB	 11			; 0000000bH
  001ea	0d		 DB	 13			; 0000000dH
  001eb	0d		 DB	 13			; 0000000dH
  001ec	0d		 DB	 13			; 0000000dH
  001ed	0d		 DB	 13			; 0000000dH
  001ee	0d		 DB	 13			; 0000000dH
  001ef	0d		 DB	 13			; 0000000dH
  001f0	0d		 DB	 13			; 0000000dH
  001f1	0d		 DB	 13			; 0000000dH
  001f2	0d		 DB	 13			; 0000000dH
  001f3	0d		 DB	 13			; 0000000dH
  001f4	0d		 DB	 13			; 0000000dH
  001f5	0d		 DB	 13			; 0000000dH
  001f6	0d		 DB	 13			; 0000000dH
  001f7	0d		 DB	 13			; 0000000dH
  001f8	0d		 DB	 13			; 0000000dH
  001f9	0d		 DB	 13			; 0000000dH
  001fa	0d		 DB	 13			; 0000000dH
  001fb	0d		 DB	 13			; 0000000dH
  001fc	0d		 DB	 13			; 0000000dH
  001fd	0d		 DB	 13			; 0000000dH
  001fe	0d		 DB	 13			; 0000000dH
  001ff	0d		 DB	 13			; 0000000dH
  00200	0d		 DB	 13			; 0000000dH
  00201	0d		 DB	 13			; 0000000dH
  00202	0d		 DB	 13			; 0000000dH
  00203	0d		 DB	 13			; 0000000dH
  00204	0d		 DB	 13			; 0000000dH
  00205	0d		 DB	 13			; 0000000dH
  00206	0d		 DB	 13			; 0000000dH
  00207	0d		 DB	 13			; 0000000dH
  00208	0d		 DB	 13			; 0000000dH
  00209	0d		 DB	 13			; 0000000dH
  0020a	0d		 DB	 13			; 0000000dH
  0020b	0d		 DB	 13			; 0000000dH
  0020c	0d		 DB	 13			; 0000000dH
  0020d	0d		 DB	 13			; 0000000dH
  0020e	0d		 DB	 13			; 0000000dH
  0020f	0d		 DB	 13			; 0000000dH
  00210	0d		 DB	 13			; 0000000dH
  00211	0d		 DB	 13			; 0000000dH
  00212	0d		 DB	 13			; 0000000dH
  00213	0d		 DB	 13			; 0000000dH
  00214	0d		 DB	 13			; 0000000dH
  00215	0d		 DB	 13			; 0000000dH
  00216	0d		 DB	 13			; 0000000dH
  00217	0d		 DB	 13			; 0000000dH
  00218	0d		 DB	 13			; 0000000dH
  00219	0d		 DB	 13			; 0000000dH
  0021a	0d		 DB	 13			; 0000000dH
  0021b	0d		 DB	 13			; 0000000dH
  0021c	0d		 DB	 13			; 0000000dH
  0021d	0d		 DB	 13			; 0000000dH
  0021e	0d		 DB	 13			; 0000000dH
  0021f	0d		 DB	 13			; 0000000dH
  00220	0d		 DB	 13			; 0000000dH
  00221	0d		 DB	 13			; 0000000dH
  00222	0d		 DB	 13			; 0000000dH
  00223	0d		 DB	 13			; 0000000dH
  00224	0d		 DB	 13			; 0000000dH
  00225	0d		 DB	 13			; 0000000dH
  00226	0d		 DB	 13			; 0000000dH
  00227	0d		 DB	 13			; 0000000dH
  00228	0d		 DB	 13			; 0000000dH
  00229	0d		 DB	 13			; 0000000dH
  0022a	0d		 DB	 13			; 0000000dH
  0022b	0d		 DB	 13			; 0000000dH
  0022c	0d		 DB	 13			; 0000000dH
  0022d	0d		 DB	 13			; 0000000dH
  0022e	0d		 DB	 13			; 0000000dH
  0022f	0c		 DB	 12			; 0000000cH
$LN57@DataServer@4:
  00230	00 00 00 00	 DD	 $LN53@DataServer@4
  00234	00 00 00 00	 DD	 $LN21@DataServer@4
  00238	00 00 00 00	 DD	 $LN16@DataServer@4
  0023c	00 00 00 00	 DD	 $LN15@DataServer@4
  00240	00 00 00 00	 DD	 $LN53@DataServer@4
$LN55@DataServer@4:
  00244	00		 DB	 0
  00245	00		 DB	 0
  00246	04		 DB	 4
  00247	00		 DB	 0
  00248	00		 DB	 0
  00249	00		 DB	 0
  0024a	00		 DB	 0
  0024b	00		 DB	 0
  0024c	00		 DB	 0
  0024d	00		 DB	 0
  0024e	00		 DB	 0
  0024f	00		 DB	 0
  00250	00		 DB	 0
  00251	00		 DB	 0
  00252	00		 DB	 0
  00253	01		 DB	 1
  00254	00		 DB	 0
  00255	00		 DB	 0
  00256	00		 DB	 0
  00257	04		 DB	 4
  00258	04		 DB	 4
  00259	04		 DB	 4
  0025a	00		 DB	 0
  0025b	02		 DB	 2
  0025c	03		 DB	 3
  0025d	00		 DB	 0
  0025e	00		 DB	 0
  0025f	00		 DB	 0
?DataServerProtocolCore@@YAXEPAEH@Z ENDP		; DataServerProtocolCore
_TEXT	ENDS
END
