; Listing generated by Microsoft (R) Optimizing Compiler Version 16.00.30319.01 

	TITLE	C:\Users\faelhs\mu-1.1\eMu - GameServer Sapphire S0\GameServer\EledoradoEvent.cpp
	.686P
	.XMM
	include listing.inc
	.model	flat

INCLUDELIB LIBCMT
INCLUDELIB OLDNAMES

PUBLIC	?SetMenualStart@CEledoradoEvent@@QAEXH@Z	; CEledoradoEvent::SetMenualStart
; Function compile flags: /Ogtp
; File c:\users\faelhs\mu-1.1\emu - gameserver sapphire s0\gameserver\eledoradoevent.h
;	COMDAT ?SetMenualStart@CEledoradoEvent@@QAEXH@Z
_TEXT	SEGMENT
_bMenualStart$ = 8					; size = 4
?SetMenualStart@CEledoradoEvent@@QAEXH@Z PROC		; CEledoradoEvent::SetMenualStart, COMDAT
; _this$ = ecx

; 28   : 	void SetMenualStart(BOOL bMenualStart){this->m_bMenualStart = bMenualStart;}	// line : 57

  00000	55		 push	 ebp
  00001	8b ec		 mov	 ebp, esp
  00003	8b 45 08	 mov	 eax, DWORD PTR _bMenualStart$[ebp]
  00006	89 41 40	 mov	 DWORD PTR [ecx+64], eax
  00009	5d		 pop	 ebp
  0000a	c2 04 00	 ret	 4
?SetMenualStart@CEledoradoEvent@@QAEXH@Z ENDP		; CEledoradoEvent::SetMenualStart
_TEXT	ENDS
PUBLIC	??_7CEledoradoEvent@@6B@			; CEledoradoEvent::`vftable'
PUBLIC	??0CEledoradoEvent@@QAE@XZ			; CEledoradoEvent::CEledoradoEvent
PUBLIC	??_R4CEledoradoEvent@@6B@			; CEledoradoEvent::`RTTI Complete Object Locator'
PUBLIC	??_R0?AVCEledoradoEvent@@@8			; CEledoradoEvent `RTTI Type Descriptor'
PUBLIC	??_R3CEledoradoEvent@@8				; CEledoradoEvent::`RTTI Class Hierarchy Descriptor'
PUBLIC	??_R2CEledoradoEvent@@8				; CEledoradoEvent::`RTTI Base Class Array'
PUBLIC	??_R1A@?0A@EA@CEledoradoEvent@@8		; CEledoradoEvent::`RTTI Base Class Descriptor at (0,-1,0,64)'
EXTRN	??_7type_info@@6B@:QWORD			; type_info::`vftable'
EXTRN	??_ECEledoradoEvent@@UAEPAXI@Z:PROC		; CEledoradoEvent::`vector deleting destructor'
;	COMDAT ??_R1A@?0A@EA@CEledoradoEvent@@8
; File c:\users\faelhs\mu-1.1\emu - gameserver sapphire s0\gameserver\eledoradoevent.cpp
rdata$r	SEGMENT
??_R1A@?0A@EA@CEledoradoEvent@@8 DD FLAT:??_R0?AVCEledoradoEvent@@@8 ; CEledoradoEvent::`RTTI Base Class Descriptor at (0,-1,0,64)'
	DD	00H
	DD	00H
	DD	0ffffffffH
	DD	00H
	DD	040H
	DD	FLAT:??_R3CEledoradoEvent@@8
rdata$r	ENDS
;	COMDAT ??_R2CEledoradoEvent@@8
rdata$r	SEGMENT
??_R2CEledoradoEvent@@8 DD FLAT:??_R1A@?0A@EA@CEledoradoEvent@@8 ; CEledoradoEvent::`RTTI Base Class Array'
rdata$r	ENDS
;	COMDAT ??_R3CEledoradoEvent@@8
rdata$r	SEGMENT
??_R3CEledoradoEvent@@8 DD 00H				; CEledoradoEvent::`RTTI Class Hierarchy Descriptor'
	DD	00H
	DD	01H
	DD	FLAT:??_R2CEledoradoEvent@@8
rdata$r	ENDS
;	COMDAT ??_R0?AVCEledoradoEvent@@@8
_DATA	SEGMENT
??_R0?AVCEledoradoEvent@@@8 DD FLAT:??_7type_info@@6B@	; CEledoradoEvent `RTTI Type Descriptor'
	DD	00H
	DB	'.?AVCEledoradoEvent@@', 00H
_DATA	ENDS
;	COMDAT ??_R4CEledoradoEvent@@6B@
rdata$r	SEGMENT
??_R4CEledoradoEvent@@6B@ DD 00H			; CEledoradoEvent::`RTTI Complete Object Locator'
	DD	00H
	DD	00H
	DD	FLAT:??_R0?AVCEledoradoEvent@@@8
	DD	FLAT:??_R3CEledoradoEvent@@8
rdata$r	ENDS
;	COMDAT ??_7CEledoradoEvent@@6B@
CONST	SEGMENT
??_7CEledoradoEvent@@6B@ DD FLAT:??_R4CEledoradoEvent@@6B@ ; CEledoradoEvent::`vftable'
	DD	FLAT:??_ECEledoradoEvent@@UAEPAXI@Z
; Function compile flags: /Ogtp
CONST	ENDS
;	COMDAT ??0CEledoradoEvent@@QAE@XZ
_TEXT	SEGMENT
??0CEledoradoEvent@@QAE@XZ PROC				; CEledoradoEvent::CEledoradoEvent, COMDAT
; _this$ = ecx

; 17   : {

  00000	8b c1		 mov	 eax, ecx

; 18   : 	this->GoldGoblenEventStartTime = 0;

  00002	33 c9		 xor	 ecx, ecx
  00004	89 48 08	 mov	 DWORD PTR [eax+8], ecx

; 19   : 	this->TitanEventStartTime = 0;

  00007	89 48 0c	 mov	 DWORD PTR [eax+12], ecx

; 20   : 	this->GoldDerconEventStartTime = 0;

  0000a	89 48 10	 mov	 DWORD PTR [eax+16], ecx

; 21   : 	this->DevilLizardKingEventStartTime = 0;

  0000d	89 48 14	 mov	 DWORD PTR [eax+20], ecx

; 22   : 	this->KanturEventStartTime = 0;

  00010	89 48 18	 mov	 DWORD PTR [eax+24], ecx

; 23   : 	this->m_BossGoldDerconMapNumber[0] = -1;

  00013	83 c9 ff	 or	 ecx, -1
  00016	c7 00 00 00 00
	00		 mov	 DWORD PTR [eax], OFFSET ??_7CEledoradoEvent@@6B@
  0001c	89 48 44	 mov	 DWORD PTR [eax+68], ecx

; 24   : 	this->m_BossGoldDerconMapNumber[1] = -1;

  0001f	89 48 48	 mov	 DWORD PTR [eax+72], ecx

; 25   : 	this->m_BossGoldDerconMapNumber[2] = -1;

  00022	89 48 4c	 mov	 DWORD PTR [eax+76], ecx

; 26   : }

  00025	c3		 ret	 0
??0CEledoradoEvent@@QAE@XZ ENDP				; CEledoradoEvent::CEledoradoEvent
_TEXT	ENDS
PUBLIC	??1CEledoradoEvent@@UAE@XZ			; CEledoradoEvent::~CEledoradoEvent
; Function compile flags: /Ogtp
;	COMDAT ??1CEledoradoEvent@@UAE@XZ
_TEXT	SEGMENT
??1CEledoradoEvent@@UAE@XZ PROC				; CEledoradoEvent::~CEledoradoEvent, COMDAT
; _this$ = ecx

; 29   : {

  00000	c7 01 00 00 00
	00		 mov	 DWORD PTR [ecx], OFFSET ??_7CEledoradoEvent@@6B@

; 30   : 	return;
; 31   : }

  00006	c3		 ret	 0
??1CEledoradoEvent@@UAE@XZ ENDP				; CEledoradoEvent::~CEledoradoEvent
_TEXT	ENDS
PUBLIC	?Init@CEledoradoEvent@@QAEXXZ			; CEledoradoEvent::Init
; Function compile flags: /Ogtp
;	COMDAT ?Init@CEledoradoEvent@@QAEXXZ
_TEXT	SEGMENT
?Init@CEledoradoEvent@@QAEXXZ PROC			; CEledoradoEvent::Init, COMDAT
; _this$ = ecx

; 35   : 	return;
; 36   : }

  00000	c3		 ret	 0
?Init@CEledoradoEvent@@QAEXXZ ENDP			; CEledoradoEvent::Init
_TEXT	ENDS
PUBLIC	?SetEventState@CEledoradoEvent@@QAEXH@Z		; CEledoradoEvent::SetEventState
; Function compile flags: /Ogtp
;	COMDAT ?SetEventState@CEledoradoEvent@@QAEXH@Z
_TEXT	SEGMENT
_State$ = 8						; size = 4
?SetEventState@CEledoradoEvent@@QAEXH@Z PROC		; CEledoradoEvent::SetEventState, COMDAT
; _this$ = ecx

; 39   : {

  00000	55		 push	 ebp
  00001	8b ec		 mov	 ebp, esp

; 40   : 	this->EventState = State;

  00003	8b 45 08	 mov	 eax, DWORD PTR _State$[ebp]
  00006	89 41 04	 mov	 DWORD PTR [ecx+4], eax

; 41   : }

  00009	5d		 pop	 ebp
  0000a	c2 04 00	 ret	 4
?SetEventState@CEledoradoEvent@@QAEXH@Z ENDP		; CEledoradoEvent::SetEventState
_TEXT	ENDS
PUBLIC	??_C@_0BM@CBOPIOL@Make?5GoldGoblen?5?3?5?$CFd?0?5?$CFd?0?$CFd?$AA@ ; `string'
PUBLIC	?RegenGoldGoblen@CEledoradoEvent@@QAEXXZ	; CEledoradoEvent::RegenGoldGoblen
EXTRN	?LogAdd@@YAXW4eLogColor@@PADZZ:PROC		; LogAdd
EXTRN	?GetBoxPosition@CMonsterSetBase@@QAEHHHHHHAAF0@Z:PROC ; CMonsterSetBase::GetBoxPosition
EXTRN	?gMSetBase@@3VCMonsterSetBase@@A:BYTE		; gMSetBase
EXTRN	_rand:PROC
EXTRN	?gObj@@3PAUOBJECTSTRUCT@@A:BYTE			; gObj
EXTRN	__fltused:DWORD
;	COMDAT ??_C@_0BM@CBOPIOL@Make?5GoldGoblen?5?3?5?$CFd?0?5?$CFd?0?$CFd?$AA@
CONST	SEGMENT
??_C@_0BM@CBOPIOL@Make?5GoldGoblen?5?3?5?$CFd?0?5?$CFd?0?$CFd?$AA@ DB 'Ma'
	DB	'ke GoldGoblen : %d, %d,%d', 00H		; `string'
; Function compile flags: /Ogtp
CONST	ENDS
;	COMDAT ?RegenGoldGoblen@CEledoradoEvent@@QAEXXZ
_TEXT	SEGMENT
_Map$ = -12						; size = 8
_MapNumber$ = -4					; size = 4
?RegenGoldGoblen@CEledoradoEvent@@QAEXXZ PROC		; CEledoradoEvent::RegenGoldGoblen, COMDAT
; _this$ = ecx

; 120  : {

  00000	55		 push	 ebp
  00001	8b ec		 mov	 ebp, esp
  00003	83 ec 0c	 sub	 esp, 12			; 0000000cH
  00006	53		 push	 ebx
  00007	56		 push	 esi
  00008	57		 push	 edi

; 121  : 	int n=0;
; 122  : 	int MapNumber;
; 123  : 	int Map[2]={0,3};

  00009	c7 45 f4 00 00
	00 00		 mov	 DWORD PTR _Map$[ebp], 0
  00010	c7 45 f8 03 00
	00 00		 mov	 DWORD PTR _Map$[ebp+4], 3
  00017	be 62 00 00 00	 mov	 esi, OFFSET ?gObj@@3PAUOBJECTSTRUCT@@A+98
  0001c	8d 64 24 00	 npad	 4
$LL6@RegenGoldG:

; 126  : 	{
; 127  : 		if ( gObj[n].Class == 78 )

  00020	66 83 7e 36 4e	 cmp	 WORD PTR [esi+54], 78	; 0000004eH
  00025	0f 85 c0 00 00
	00		 jne	 $LN5@RegenGoldG

; 128  : 		{
; 129  : 			gObj[n].Live = TRUE;

  0002b	c6 06 01	 mov	 BYTE PTR [esi], 1

; 130  : 			MapNumber = Map[rand()%2];

  0002e	e8 00 00 00 00	 call	 _rand
  00033	25 01 00 00 80	 and	 eax, -2147483647	; 80000001H
  00038	79 05		 jns	 SHORT $LN13@RegenGoldG
  0003a	48		 dec	 eax
  0003b	83 c8 fe	 or	 eax, -2			; fffffffeH
  0003e	40		 inc	 eax
$LN13@RegenGoldG:
  0003f	8b 44 85 f4	 mov	 eax, DWORD PTR _Map$[ebp+eax*4]
  00043	89 45 fc	 mov	 DWORD PTR _MapNumber$[ebp], eax

; 131  : 			gObj[n].MapNumber = MapNumber;

  00046	88 86 a7 00 00
	00		 mov	 BYTE PTR [esi+167], al

; 134  : 			{
; 135  : 
; 136  : 			}
; 137  : 
; 138  : 			gObj[n].Life = gObj[n].MaxLife;

  0004c	8d be a4 00 00
	00		 lea	 edi, DWORD PTR [esi+164]
  00052	8d 9e a2 00 00
	00		 lea	 ebx, DWORD PTR [esi+162]
  00058	eb 09		 jmp	 SHORT $LN2@RegenGoldG
  0005a	8d 9b 00 00 00
	00		 npad	 6
$LL12@RegenGoldG:
  00060	8b 45 fc	 mov	 eax, DWORD PTR _MapNumber$[ebp]
$LN2@RegenGoldG:

; 132  : 
; 133  : 			while ( gMSetBase.GetBoxPosition(MapNumber, 50, 50, 200, 200, gObj[n].X, gObj[n].Y) == 0 )

  00063	57		 push	 edi
  00064	53		 push	 ebx
  00065	68 c8 00 00 00	 push	 200			; 000000c8H
  0006a	68 c8 00 00 00	 push	 200			; 000000c8H
  0006f	6a 32		 push	 50			; 00000032H
  00071	6a 32		 push	 50			; 00000032H
  00073	50		 push	 eax
  00074	b9 00 00 00 00	 mov	 ecx, OFFSET ?gMSetBase@@3VCMonsterSetBase@@A ; gMSetBase
  00079	e8 00 00 00 00	 call	 ?GetBoxPosition@CMonsterSetBase@@QAEHHHHHHAAF0@Z ; CMonsterSetBase::GetBoxPosition
  0007e	85 c0		 test	 eax, eax
  00080	74 de		 je	 SHORT $LL12@RegenGoldG

; 139  : 			gObj[n].TX = gObj[n].X;
; 140  : 			gObj[n].TY = gObj[n].Y;
; 141  : 			gObj[n].MTX = gObj[n].X;
; 142  : 			gObj[n].MTY = gObj[n].Y;
; 143  : 			gObj[n].StartX = gObj[n].X;

  00082	0f b6 13	 movzx	 edx, BYTE PTR [ebx]
  00085	d9 46 5e	 fld	 DWORD PTR [esi+94]
  00088	0f b7 0f	 movzx	 ecx, WORD PTR [edi]
  0008b	d9 5e 5a	 fstp	 DWORD PTR [esi+90]
  0008e	0f b7 03	 movzx	 eax, WORD PTR [ebx]
  00091	88 96 b8 00 00
	00		 mov	 BYTE PTR [esi+184], dl

; 144  : 			gObj[n].StartY = gObj[n].Y;

  00097	0f b6 17	 movzx	 edx, BYTE PTR [edi]
  0009a	66 89 8e c0 00
	00 00		 mov	 WORD PTR [esi+192], cx
  000a1	66 89 8e c4 00
	00 00		 mov	 WORD PTR [esi+196], cx

; 145  : 			gObj[n].m_State = 1;
; 146  : 			gObj[n].PathCount = 0;
; 147  : 
; 148  : 			LogAdd(LOG_BLACK, "Make GoldGoblen : %d, %d,%d",
; 149  : 				MapNumber, gObj[n].X, gObj[n].Y);

  000a8	0f bf c9	 movsx	 ecx, cx
  000ab	88 96 b9 00 00
	00		 mov	 BYTE PTR [esi+185], dl
  000b1	51		 push	 ecx
  000b2	0f bf d0	 movsx	 edx, ax
  000b5	52		 push	 edx
  000b6	66 89 86 be 00
	00 00		 mov	 WORD PTR [esi+190], ax
  000bd	66 89 86 c2 00
	00 00		 mov	 WORD PTR [esi+194], ax
  000c4	8b 45 fc	 mov	 eax, DWORD PTR _MapNumber$[ebp]
  000c7	50		 push	 eax
  000c8	68 00 00 00 00	 push	 OFFSET ??_C@_0BM@CBOPIOL@Make?5GoldGoblen?5?3?5?$CFd?0?5?$CFd?0?$CFd?$AA@
  000cd	6a 00		 push	 0
  000cf	c7 86 5a 01 00
	00 01 00 00 00	 mov	 DWORD PTR [esi+346], 1
  000d9	c7 86 c6 00 00
	00 00 00 00 00	 mov	 DWORD PTR [esi+198], 0
  000e3	e8 00 00 00 00	 call	 ?LogAdd@@YAXW4eLogColor@@PADZZ ; LogAdd
  000e8	83 c4 14	 add	 esp, 20			; 00000014H
$LN5@RegenGoldG:

; 124  : 
; 125  : 	for (n=0;n<OBJ_MAXMONSTER;n++)

  000eb	81 c6 64 15 00
	00		 add	 esi, 5476		; 00001564H
  000f1	81 fe 02 a2 e4
	01		 cmp	 esi, OFFSET ?gObj@@3PAUOBJECTSTRUCT@@A+31760898
  000f7	0f 8c 23 ff ff
	ff		 jl	 $LL6@RegenGoldG
  000fd	5f		 pop	 edi
  000fe	5e		 pop	 esi
  000ff	5b		 pop	 ebx

; 150  : 		}
; 151  : 	}
; 152  : }

  00100	8b e5		 mov	 esp, ebp
  00102	5d		 pop	 ebp
  00103	c3		 ret	 0
?RegenGoldGoblen@CEledoradoEvent@@QAEXXZ ENDP		; CEledoradoEvent::RegenGoldGoblen
_TEXT	ENDS
PUBLIC	??_C@_0BM@BOFIHGJ@Make?5GoldTaitan?5?3?5?$CFd?0?5?$CFd?0?$CFd?$AA@ ; `string'
PUBLIC	?RegenTitan@CEledoradoEvent@@QAEXXZ		; CEledoradoEvent::RegenTitan
;	COMDAT ??_C@_0BM@BOFIHGJ@Make?5GoldTaitan?5?3?5?$CFd?0?5?$CFd?0?$CFd?$AA@
CONST	SEGMENT
??_C@_0BM@BOFIHGJ@Make?5GoldTaitan?5?3?5?$CFd?0?5?$CFd?0?$CFd?$AA@ DB 'Ma'
	DB	'ke GoldTaitan : %d, %d,%d', 00H		; `string'
; Function compile flags: /Ogtp
CONST	ENDS
;	COMDAT ?RegenTitan@CEledoradoEvent@@QAEXXZ
_TEXT	SEGMENT
?RegenTitan@CEledoradoEvent@@QAEXXZ PROC		; CEledoradoEvent::RegenTitan, COMDAT
; _this$ = ecx

; 155  : {

  00000	53		 push	 ebx
  00001	56		 push	 esi
  00002	57		 push	 edi
  00003	8b f9		 mov	 edi, ecx

; 156  : 	int n=0;
; 157  : 	int MapNumber;
; 158  : //	int Map[2]={0,3};
; 159  : 
; 160  : 	for (n=0;n<OBJ_MAXMONSTER;n++)

  00005	be 62 00 00 00	 mov	 esi, OFFSET ?gObj@@3PAUOBJECTSTRUCT@@A+98
  0000a	8d 9b 00 00 00
	00		 npad	 6
$LL8@RegenTitan:

; 161  : 	{
; 162  : 		if ( gObj[n].Class == 53 )	// Golden Titan

  00010	0f b7 46 36	 movzx	 eax, WORD PTR [esi+54]
  00014	83 f8 35	 cmp	 eax, 53			; 00000035H
  00017	0f 85 c7 00 00
	00		 jne	 $LN5@RegenTitan

; 163  : 		{
; 164  : 			gObj[n].Live = TRUE;

  0001d	c6 06 01	 mov	 BYTE PTR [esi], 1

; 165  : 			MapNumber = 2;
; 166  : 			gObj[n].MapNumber = MapNumber;

  00020	c6 86 a7 00 00
	00 02		 mov	 BYTE PTR [esi+167], 2

; 169  : 			{
; 170  : 
; 171  : 			}
; 172  : 
; 173  : 			this->m_BossTitanMapNumber = gObj[n].MapNumber;

  00027	8d 9e a4 00 00
	00		 lea	 ebx, DWORD PTR [esi+164]
  0002d	8d 49 00	 npad	 3
$LL4@RegenTitan:

; 167  : 
; 168  : 			while ( gMSetBase.GetBoxPosition(MapNumber, 50, 50, 200, 200, gObj[n].X, gObj[n].Y) == 0 )

  00030	53		 push	 ebx
  00031	8d 86 a2 00 00
	00		 lea	 eax, DWORD PTR [esi+162]
  00037	50		 push	 eax
  00038	68 c8 00 00 00	 push	 200			; 000000c8H
  0003d	68 c8 00 00 00	 push	 200			; 000000c8H
  00042	6a 32		 push	 50			; 00000032H
  00044	6a 32		 push	 50			; 00000032H
  00046	6a 02		 push	 2
  00048	b9 00 00 00 00	 mov	 ecx, OFFSET ?gMSetBase@@3VCMonsterSetBase@@A ; gMSetBase
  0004d	e8 00 00 00 00	 call	 ?GetBoxPosition@CMonsterSetBase@@QAEHHHHHHAAF0@Z ; CMonsterSetBase::GetBoxPosition
  00052	85 c0		 test	 eax, eax
  00054	74 da		 je	 SHORT $LL4@RegenTitan

; 169  : 			{
; 170  : 
; 171  : 			}
; 172  : 
; 173  : 			this->m_BossTitanMapNumber = gObj[n].MapNumber;

  00056	0f b6 86 a7 00
	00 00		 movzx	 eax, BYTE PTR [esi+167]
  0005d	89 47 1c	 mov	 DWORD PTR [edi+28], eax

; 174  : 			this->m_BossTitanMapX = gObj[n].X;

  00060	0f bf 8e a2 00
	00 00		 movsx	 ecx, WORD PTR [esi+162]
  00067	89 4f 20	 mov	 DWORD PTR [edi+32], ecx

; 175  : 			this->m_BossTitanMapY = gObj[n].Y;

  0006a	0f bf 13	 movsx	 edx, WORD PTR [ebx]
  0006d	89 57 24	 mov	 DWORD PTR [edi+36], edx

; 176  : 
; 177  : 			gObj[n].Life = gObj[n].MaxLife;
; 178  : 			gObj[n].TX = gObj[n].X;
; 179  : 			gObj[n].TY = gObj[n].Y;
; 180  : 			gObj[n].MTX = gObj[n].X;
; 181  : 			gObj[n].MTY = gObj[n].Y;
; 182  : 			gObj[n].StartX = gObj[n].X;

  00070	0f b6 96 a2 00
	00 00		 movzx	 edx, BYTE PTR [esi+162]
  00077	d9 46 5e	 fld	 DWORD PTR [esi+94]
  0007a	d9 5e 5a	 fstp	 DWORD PTR [esi+90]
  0007d	0f b7 0b	 movzx	 ecx, WORD PTR [ebx]
  00080	0f b7 86 a2 00
	00 00		 movzx	 eax, WORD PTR [esi+162]
  00087	88 96 b8 00 00
	00		 mov	 BYTE PTR [esi+184], dl

; 183  : 			gObj[n].StartY = gObj[n].Y;

  0008d	0f b6 13	 movzx	 edx, BYTE PTR [ebx]
  00090	66 89 8e c0 00
	00 00		 mov	 WORD PTR [esi+192], cx
  00097	66 89 8e c4 00
	00 00		 mov	 WORD PTR [esi+196], cx

; 184  : 			gObj[n].m_State = 1;
; 185  : 			gObj[n].PathCount = 0;
; 186  : 
; 187  : 			LogAdd(LOG_BLACK, "Make GoldTaitan : %d, %d,%d",
; 188  : 				MapNumber, gObj[n].X, gObj[n].Y);

  0009e	0f bf c9	 movsx	 ecx, cx
  000a1	88 96 b9 00 00
	00		 mov	 BYTE PTR [esi+185], dl
  000a7	51		 push	 ecx
  000a8	0f bf d0	 movsx	 edx, ax
  000ab	52		 push	 edx
  000ac	6a 02		 push	 2
  000ae	68 00 00 00 00	 push	 OFFSET ??_C@_0BM@BOFIHGJ@Make?5GoldTaitan?5?3?5?$CFd?0?5?$CFd?0?$CFd?$AA@
  000b3	6a 00		 push	 0
  000b5	66 89 86 be 00
	00 00		 mov	 WORD PTR [esi+190], ax
  000bc	66 89 86 c2 00
	00 00		 mov	 WORD PTR [esi+194], ax
  000c3	c7 86 5a 01 00
	00 01 00 00 00	 mov	 DWORD PTR [esi+346], 1
  000cd	c7 86 c6 00 00
	00 00 00 00 00	 mov	 DWORD PTR [esi+198], 0
  000d7	e8 00 00 00 00	 call	 ?LogAdd@@YAXW4eLogColor@@PADZZ ; LogAdd
  000dc	83 c4 14	 add	 esp, 20			; 00000014H
  000df	e9 9b 00 00 00	 jmp	 $LN7@RegenTitan
$LN5@RegenTitan:

; 189  : 		}
; 190  : 		else if ( gObj[n].Class == 54 ) // Golden Soldier

  000e4	83 f8 36	 cmp	 eax, 54			; 00000036H
  000e7	0f 85 92 00 00
	00		 jne	 $LN7@RegenTitan

; 191  : 		{
; 192  : 			gObj[n].Live = TRUE;

  000ed	c6 06 01	 mov	 BYTE PTR [esi], 1

; 193  : 			MapNumber = this->m_BossTitanMapNumber;

  000f0	8b 47 1c	 mov	 eax, DWORD PTR [edi+28]

; 194  : 			gObj[n].MapNumber = MapNumber;

  000f3	88 86 a7 00 00
	00		 mov	 BYTE PTR [esi+167], al

; 195  : 
; 196  : 			gMSetBase.GetBoxPosition(MapNumber, this->m_BossTitanMapX-4, this->m_BossTitanMapY-4,
; 197  : 				this->m_BossTitanMapX+4, this->m_BossTitanMapY+4, gObj[n].X, gObj[n].Y);

  000f9	8b 4f 24	 mov	 ecx, DWORD PTR [edi+36]
  000fc	8d 9e a4 00 00
	00		 lea	 ebx, DWORD PTR [esi+164]
  00102	53		 push	 ebx
  00103	8d 96 a2 00 00
	00		 lea	 edx, DWORD PTR [esi+162]
  00109	52		 push	 edx
  0010a	8d 51 04	 lea	 edx, DWORD PTR [ecx+4]
  0010d	52		 push	 edx
  0010e	8b 57 20	 mov	 edx, DWORD PTR [edi+32]
  00111	83 c1 fc	 add	 ecx, -4			; fffffffcH
  00114	83 c2 04	 add	 edx, 4
  00117	52		 push	 edx
  00118	51		 push	 ecx
  00119	8b 4f 20	 mov	 ecx, DWORD PTR [edi+32]
  0011c	83 c1 fc	 add	 ecx, -4			; fffffffcH
  0011f	51		 push	 ecx
  00120	50		 push	 eax
  00121	b9 00 00 00 00	 mov	 ecx, OFFSET ?gMSetBase@@3VCMonsterSetBase@@A ; gMSetBase
  00126	e8 00 00 00 00	 call	 ?GetBoxPosition@CMonsterSetBase@@QAEHHHHHHAAF0@Z ; CMonsterSetBase::GetBoxPosition

; 198  : 
; 199  : 						gObj[n].Life = gObj[n].MaxLife;

  0012b	d9 46 5e	 fld	 DWORD PTR [esi+94]

; 200  : 			gObj[n].TX = gObj[n].X;

  0012e	0f b7 86 a2 00
	00 00		 movzx	 eax, WORD PTR [esi+162]
  00135	d9 5e 5a	 fstp	 DWORD PTR [esi+90]

; 201  : 			gObj[n].TY = gObj[n].Y;

  00138	0f b7 0b	 movzx	 ecx, WORD PTR [ebx]
  0013b	66 89 86 be 00
	00 00		 mov	 WORD PTR [esi+190], ax
  00142	66 89 8e c0 00
	00 00		 mov	 WORD PTR [esi+192], cx

; 202  : 			gObj[n].MTX = gObj[n].X;

  00149	66 89 86 c2 00
	00 00		 mov	 WORD PTR [esi+194], ax

; 203  : 			gObj[n].MTY = gObj[n].Y;
; 204  : 			gObj[n].StartX = gObj[n].X;

  00150	8a 86 a2 00 00
	00		 mov	 al, BYTE PTR [esi+162]
  00156	66 89 8e c4 00
	00 00		 mov	 WORD PTR [esi+196], cx

; 205  : 			gObj[n].StartY = gObj[n].Y;

  0015d	8a 0b		 mov	 cl, BYTE PTR [ebx]
  0015f	88 86 b8 00 00
	00		 mov	 BYTE PTR [esi+184], al
  00165	88 8e b9 00 00
	00		 mov	 BYTE PTR [esi+185], cl

; 206  : 			gObj[n].m_State = 1;

  0016b	c7 86 5a 01 00
	00 01 00 00 00	 mov	 DWORD PTR [esi+346], 1

; 207  : 			gObj[n].PathCount = 0;

  00175	c7 86 c6 00 00
	00 00 00 00 00	 mov	 DWORD PTR [esi+198], 0
$LN7@RegenTitan:

; 156  : 	int n=0;
; 157  : 	int MapNumber;
; 158  : //	int Map[2]={0,3};
; 159  : 
; 160  : 	for (n=0;n<OBJ_MAXMONSTER;n++)

  0017f	81 c6 64 15 00
	00		 add	 esi, 5476		; 00001564H
  00185	81 fe 02 a2 e4
	01		 cmp	 esi, OFFSET ?gObj@@3PAUOBJECTSTRUCT@@A+31760898
  0018b	0f 8c 7f fe ff
	ff		 jl	 $LL8@RegenTitan

; 208  : 		}
; 209  : 	}
; 210  : }

  00191	5f		 pop	 edi
  00192	5e		 pop	 esi
  00193	5b		 pop	 ebx
  00194	c3		 ret	 0
?RegenTitan@CEledoradoEvent@@QAEXXZ ENDP		; CEledoradoEvent::RegenTitan
_TEXT	ENDS
PUBLIC	??_C@_0BP@HMGNFLDB@Make?5GoldLizarKing?5?3?5?$CFd?0?5?$CFd?0?$CFd?$AA@ ; `string'
PUBLIC	?RegenDevilLizardKing@CEledoradoEvent@@QAEXXZ	; CEledoradoEvent::RegenDevilLizardKing
;	COMDAT ??_C@_0BP@HMGNFLDB@Make?5GoldLizarKing?5?3?5?$CFd?0?5?$CFd?0?$CFd?$AA@
CONST	SEGMENT
??_C@_0BP@HMGNFLDB@Make?5GoldLizarKing?5?3?5?$CFd?0?5?$CFd?0?$CFd?$AA@ DB 'M'
	DB	'ake GoldLizarKing : %d, %d,%d', 00H		; `string'
; Function compile flags: /Ogtp
CONST	ENDS
;	COMDAT ?RegenDevilLizardKing@CEledoradoEvent@@QAEXXZ
_TEXT	SEGMENT
?RegenDevilLizardKing@CEledoradoEvent@@QAEXXZ PROC	; CEledoradoEvent::RegenDevilLizardKing, COMDAT
; _this$ = ecx

; 290  : {

  00000	53		 push	 ebx
  00001	56		 push	 esi
  00002	57		 push	 edi
  00003	8b f9		 mov	 edi, ecx

; 291  : 	int n=0;
; 292  : 	int MapNumber;
; 293  : //	int Map[2]={0,3};
; 294  : 
; 295  : 	for (n=0;n<OBJ_MAXMONSTER;n++)

  00005	be 62 00 00 00	 mov	 esi, OFFSET ?gObj@@3PAUOBJECTSTRUCT@@A+98
  0000a	8d 9b 00 00 00
	00		 npad	 6
$LL8@RegenDevil:

; 296  : 	{
; 297  : 		if ( gObj[n].Class == 80 )	// Devil Lizard King

  00010	0f b7 46 36	 movzx	 eax, WORD PTR [esi+54]
  00014	83 f8 50	 cmp	 eax, 80			; 00000050H
  00017	0f 85 c7 00 00
	00		 jne	 $LN5@RegenDevil

; 298  : 		{
; 299  : 			gObj[n].Live = TRUE;

  0001d	c6 06 01	 mov	 BYTE PTR [esi], 1

; 300  : 			MapNumber = 7;
; 301  : 			gObj[n].MapNumber = MapNumber;

  00020	c6 86 a7 00 00
	00 07		 mov	 BYTE PTR [esi+167], 7

; 304  : 			{
; 305  : 
; 306  : 			}
; 307  : 
; 308  : 			this->m_BossDevilLizardKingMapNumber = gObj[n].MapNumber;

  00027	8d 9e a4 00 00
	00		 lea	 ebx, DWORD PTR [esi+164]
  0002d	8d 49 00	 npad	 3
$LL4@RegenDevil:

; 302  : 
; 303  : 			while ( gMSetBase.GetBoxPosition(MapNumber, 50, 50, 200, 200, gObj[n].X, gObj[n].Y) == 0 )

  00030	53		 push	 ebx
  00031	8d 86 a2 00 00
	00		 lea	 eax, DWORD PTR [esi+162]
  00037	50		 push	 eax
  00038	68 c8 00 00 00	 push	 200			; 000000c8H
  0003d	68 c8 00 00 00	 push	 200			; 000000c8H
  00042	6a 32		 push	 50			; 00000032H
  00044	6a 32		 push	 50			; 00000032H
  00046	6a 07		 push	 7
  00048	b9 00 00 00 00	 mov	 ecx, OFFSET ?gMSetBase@@3VCMonsterSetBase@@A ; gMSetBase
  0004d	e8 00 00 00 00	 call	 ?GetBoxPosition@CMonsterSetBase@@QAEHHHHHHAAF0@Z ; CMonsterSetBase::GetBoxPosition
  00052	85 c0		 test	 eax, eax
  00054	74 da		 je	 SHORT $LL4@RegenDevil

; 304  : 			{
; 305  : 
; 306  : 			}
; 307  : 
; 308  : 			this->m_BossDevilLizardKingMapNumber = gObj[n].MapNumber;

  00056	0f b6 86 a7 00
	00 00		 movzx	 eax, BYTE PTR [esi+167]
  0005d	89 47 28	 mov	 DWORD PTR [edi+40], eax

; 309  : 			this->m_BossDevilLizardKingMapX = gObj[n].X;

  00060	0f bf 8e a2 00
	00 00		 movsx	 ecx, WORD PTR [esi+162]
  00067	89 4f 2c	 mov	 DWORD PTR [edi+44], ecx

; 310  : 			this->m_BossDevilLizardKingMapY = gObj[n].Y;

  0006a	0f bf 13	 movsx	 edx, WORD PTR [ebx]
  0006d	89 57 30	 mov	 DWORD PTR [edi+48], edx

; 311  : 
; 312  : 			gObj[n].Life = gObj[n].MaxLife;
; 313  : 			gObj[n].TX = gObj[n].X;
; 314  : 			gObj[n].TY = gObj[n].Y;
; 315  : 			gObj[n].MTX = gObj[n].X;
; 316  : 			gObj[n].MTY = gObj[n].Y;
; 317  : 			gObj[n].StartX = gObj[n].X;

  00070	0f b6 96 a2 00
	00 00		 movzx	 edx, BYTE PTR [esi+162]
  00077	d9 46 5e	 fld	 DWORD PTR [esi+94]
  0007a	d9 5e 5a	 fstp	 DWORD PTR [esi+90]
  0007d	0f b7 0b	 movzx	 ecx, WORD PTR [ebx]
  00080	0f b7 86 a2 00
	00 00		 movzx	 eax, WORD PTR [esi+162]
  00087	88 96 b8 00 00
	00		 mov	 BYTE PTR [esi+184], dl

; 318  : 			gObj[n].StartY = gObj[n].Y;

  0008d	0f b6 13	 movzx	 edx, BYTE PTR [ebx]
  00090	66 89 8e c0 00
	00 00		 mov	 WORD PTR [esi+192], cx
  00097	66 89 8e c4 00
	00 00		 mov	 WORD PTR [esi+196], cx

; 319  : 			gObj[n].m_State = 1;
; 320  : 			gObj[n].PathCount = 0;
; 321  : 
; 322  : 			LogAdd(LOG_BLACK, "Make GoldLizarKing : %d, %d,%d",
; 323  : 				MapNumber, gObj[n].X, gObj[n].Y);

  0009e	0f bf c9	 movsx	 ecx, cx
  000a1	88 96 b9 00 00
	00		 mov	 BYTE PTR [esi+185], dl
  000a7	51		 push	 ecx
  000a8	0f bf d0	 movsx	 edx, ax
  000ab	52		 push	 edx
  000ac	6a 07		 push	 7
  000ae	68 00 00 00 00	 push	 OFFSET ??_C@_0BP@HMGNFLDB@Make?5GoldLizarKing?5?3?5?$CFd?0?5?$CFd?0?$CFd?$AA@
  000b3	6a 00		 push	 0
  000b5	66 89 86 be 00
	00 00		 mov	 WORD PTR [esi+190], ax
  000bc	66 89 86 c2 00
	00 00		 mov	 WORD PTR [esi+194], ax
  000c3	c7 86 5a 01 00
	00 01 00 00 00	 mov	 DWORD PTR [esi+346], 1
  000cd	c7 86 c6 00 00
	00 00 00 00 00	 mov	 DWORD PTR [esi+198], 0
  000d7	e8 00 00 00 00	 call	 ?LogAdd@@YAXW4eLogColor@@PADZZ ; LogAdd
  000dc	83 c4 14	 add	 esp, 20			; 00000014H
  000df	e9 9b 00 00 00	 jmp	 $LN7@RegenDevil
$LN5@RegenDevil:

; 324  : 		}
; 325  : 		else if ( gObj[n].Class == 81 ) // Golden Velparie

  000e4	83 f8 51	 cmp	 eax, 81			; 00000051H
  000e7	0f 85 92 00 00
	00		 jne	 $LN7@RegenDevil

; 326  : 		{
; 327  : 			gObj[n].Live = TRUE;

  000ed	c6 06 01	 mov	 BYTE PTR [esi], 1

; 328  : 			MapNumber = this->m_BossDevilLizardKingMapNumber;

  000f0	8b 47 28	 mov	 eax, DWORD PTR [edi+40]

; 329  : 			gObj[n].MapNumber = MapNumber;

  000f3	88 86 a7 00 00
	00		 mov	 BYTE PTR [esi+167], al

; 330  : 
; 331  : 			gMSetBase.GetBoxPosition(MapNumber, this->m_BossDevilLizardKingMapX-4, this->m_BossDevilLizardKingMapY-4,
; 332  : 				this->m_BossDevilLizardKingMapX+4, this->m_BossDevilLizardKingMapY+4, gObj[n].X, gObj[n].Y);

  000f9	8b 4f 30	 mov	 ecx, DWORD PTR [edi+48]
  000fc	8d 9e a4 00 00
	00		 lea	 ebx, DWORD PTR [esi+164]
  00102	53		 push	 ebx
  00103	8d 96 a2 00 00
	00		 lea	 edx, DWORD PTR [esi+162]
  00109	52		 push	 edx
  0010a	8d 51 04	 lea	 edx, DWORD PTR [ecx+4]
  0010d	52		 push	 edx
  0010e	8b 57 2c	 mov	 edx, DWORD PTR [edi+44]
  00111	83 c1 fc	 add	 ecx, -4			; fffffffcH
  00114	83 c2 04	 add	 edx, 4
  00117	52		 push	 edx
  00118	51		 push	 ecx
  00119	8b 4f 2c	 mov	 ecx, DWORD PTR [edi+44]
  0011c	83 c1 fc	 add	 ecx, -4			; fffffffcH
  0011f	51		 push	 ecx
  00120	50		 push	 eax
  00121	b9 00 00 00 00	 mov	 ecx, OFFSET ?gMSetBase@@3VCMonsterSetBase@@A ; gMSetBase
  00126	e8 00 00 00 00	 call	 ?GetBoxPosition@CMonsterSetBase@@QAEHHHHHHAAF0@Z ; CMonsterSetBase::GetBoxPosition

; 333  : 
; 334  : 			gObj[n].Life = gObj[n].MaxLife;

  0012b	d9 46 5e	 fld	 DWORD PTR [esi+94]

; 335  : 			gObj[n].TX = gObj[n].X;

  0012e	0f b7 86 a2 00
	00 00		 movzx	 eax, WORD PTR [esi+162]
  00135	d9 5e 5a	 fstp	 DWORD PTR [esi+90]

; 336  : 			gObj[n].TY = gObj[n].Y;

  00138	0f b7 0b	 movzx	 ecx, WORD PTR [ebx]
  0013b	66 89 86 be 00
	00 00		 mov	 WORD PTR [esi+190], ax
  00142	66 89 8e c0 00
	00 00		 mov	 WORD PTR [esi+192], cx

; 337  : 			gObj[n].MTX = gObj[n].X;

  00149	66 89 86 c2 00
	00 00		 mov	 WORD PTR [esi+194], ax

; 338  : 			gObj[n].MTY = gObj[n].Y;
; 339  : 			gObj[n].StartX = gObj[n].X;

  00150	8a 86 a2 00 00
	00		 mov	 al, BYTE PTR [esi+162]
  00156	66 89 8e c4 00
	00 00		 mov	 WORD PTR [esi+196], cx

; 340  : 			gObj[n].StartY = gObj[n].Y;

  0015d	8a 0b		 mov	 cl, BYTE PTR [ebx]
  0015f	88 86 b8 00 00
	00		 mov	 BYTE PTR [esi+184], al
  00165	88 8e b9 00 00
	00		 mov	 BYTE PTR [esi+185], cl

; 341  : 			gObj[n].m_State = 1;

  0016b	c7 86 5a 01 00
	00 01 00 00 00	 mov	 DWORD PTR [esi+346], 1

; 342  : 			gObj[n].PathCount = 0;

  00175	c7 86 c6 00 00
	00 00 00 00 00	 mov	 DWORD PTR [esi+198], 0
$LN7@RegenDevil:

; 291  : 	int n=0;
; 292  : 	int MapNumber;
; 293  : //	int Map[2]={0,3};
; 294  : 
; 295  : 	for (n=0;n<OBJ_MAXMONSTER;n++)

  0017f	81 c6 64 15 00
	00		 add	 esi, 5476		; 00001564H
  00185	81 fe 02 a2 e4
	01		 cmp	 esi, OFFSET ?gObj@@3PAUOBJECTSTRUCT@@A+31760898
  0018b	0f 8c 7f fe ff
	ff		 jl	 $LL8@RegenDevil

; 343  : 		}
; 344  : 	}
; 345  : }

  00191	5f		 pop	 edi
  00192	5e		 pop	 esi
  00193	5b		 pop	 ebx
  00194	c3		 ret	 0
?RegenDevilLizardKing@CEledoradoEvent@@QAEXXZ ENDP	; CEledoradoEvent::RegenDevilLizardKing
_TEXT	ENDS
PUBLIC	??_C@_0BO@HFHPKCLG@Make?5GoldTantarus?5?3?5?$CFd?0?5?$CFd?0?$CFd?$AA@ ; `string'
PUBLIC	?RegenKantur@CEledoradoEvent@@QAEXXZ		; CEledoradoEvent::RegenKantur
;	COMDAT ??_C@_0BO@HFHPKCLG@Make?5GoldTantarus?5?3?5?$CFd?0?5?$CFd?0?$CFd?$AA@
CONST	SEGMENT
??_C@_0BO@HFHPKCLG@Make?5GoldTantarus?5?3?5?$CFd?0?5?$CFd?0?$CFd?$AA@ DB 'M'
	DB	'ake GoldTantarus : %d, %d,%d', 00H		; `string'
; Function compile flags: /Ogtp
CONST	ENDS
;	COMDAT ?RegenKantur@CEledoradoEvent@@QAEXXZ
_TEXT	SEGMENT
?RegenKantur@CEledoradoEvent@@QAEXXZ PROC		; CEledoradoEvent::RegenKantur, COMDAT
; _this$ = ecx

; 348  : {

  00000	53		 push	 ebx
  00001	56		 push	 esi
  00002	57		 push	 edi
  00003	8b f9		 mov	 edi, ecx

; 349  : 	int n=0;
; 350  : 	int MapNumber;
; 351  : //	int Map[2]={0,3};
; 352  : 
; 353  : 	for (n=0;n<OBJ_MAXMONSTER;n++)

  00005	be 28 02 00 00	 mov	 esi, OFFSET ?gObj@@3PAUOBJECTSTRUCT@@A+552
  0000a	8d 9b 00 00 00
	00		 npad	 6
$LL8@RegenKantu:

; 354  : 	{
; 355  : 		if ( gObj[n].Class == 82 )	// Gold Tantalos

  00010	0f b7 86 70 fe
	ff ff		 movzx	 eax, WORD PTR [esi-400]
  00017	83 f8 52	 cmp	 eax, 82			; 00000052H
  0001a	0f 85 d9 00 00
	00		 jne	 $LN5@RegenKantu

; 356  : 		{
; 357  : 			gObj[n].Live = TRUE;

  00020	c6 86 3a fe ff
	ff 01		 mov	 BYTE PTR [esi-454], 1

; 358  : 			MapNumber = 8;
; 359  : 			gObj[n].MapNumber = MapNumber;

  00027	c6 86 e1 fe ff
	ff 08		 mov	 BYTE PTR [esi-287], 8

; 362  : 			{
; 363  : 
; 364  : 			}
; 365  : 
; 366  : 			this->m_BossKanturMapNumber = gObj[n].MapNumber;

  0002e	8d 9e de fe ff
	ff		 lea	 ebx, DWORD PTR [esi-290]
$LL4@RegenKantu:

; 360  : 
; 361  : 			while ( gMSetBase.GetBoxPosition(MapNumber, 50, 50, 200, 200, gObj[n].X, gObj[n].Y) == 0 )

  00034	53		 push	 ebx
  00035	8d 86 dc fe ff
	ff		 lea	 eax, DWORD PTR [esi-292]
  0003b	50		 push	 eax
  0003c	68 c8 00 00 00	 push	 200			; 000000c8H
  00041	68 c8 00 00 00	 push	 200			; 000000c8H
  00046	6a 32		 push	 50			; 00000032H
  00048	6a 32		 push	 50			; 00000032H
  0004a	6a 08		 push	 8
  0004c	b9 00 00 00 00	 mov	 ecx, OFFSET ?gMSetBase@@3VCMonsterSetBase@@A ; gMSetBase
  00051	e8 00 00 00 00	 call	 ?GetBoxPosition@CMonsterSetBase@@QAEHHHHHHAAF0@Z ; CMonsterSetBase::GetBoxPosition
  00056	85 c0		 test	 eax, eax
  00058	74 da		 je	 SHORT $LL4@RegenKantu

; 362  : 			{
; 363  : 
; 364  : 			}
; 365  : 
; 366  : 			this->m_BossKanturMapNumber = gObj[n].MapNumber;

  0005a	0f b6 86 e1 fe
	ff ff		 movzx	 eax, BYTE PTR [esi-287]
  00061	89 47 34	 mov	 DWORD PTR [edi+52], eax

; 367  : 			this->m_BossKanturMapX = gObj[n].X;

  00064	0f bf 8e dc fe
	ff ff		 movsx	 ecx, WORD PTR [esi-292]
  0006b	89 4f 38	 mov	 DWORD PTR [edi+56], ecx

; 368  : 			this->m_BossKanturMapY = gObj[n].Y;

  0006e	0f bf 13	 movsx	 edx, WORD PTR [ebx]
  00071	89 57 3c	 mov	 DWORD PTR [edi+60], edx

; 369  : 
; 370  : 			gObj[n].Life = gObj[n].MaxLife;
; 371  : 			gObj[n].TX = gObj[n].X;
; 372  : 			gObj[n].TY = gObj[n].Y;
; 373  : 			gObj[n].MTX = gObj[n].X;
; 374  : 			gObj[n].MTY = gObj[n].Y;
; 375  : 			gObj[n].StartX = gObj[n].X;

  00074	0f b6 96 dc fe
	ff ff		 movzx	 edx, BYTE PTR [esi-292]
  0007b	d9 86 98 fe ff
	ff		 fld	 DWORD PTR [esi-360]
  00081	d9 9e 94 fe ff
	ff		 fstp	 DWORD PTR [esi-364]
  00087	0f b7 0b	 movzx	 ecx, WORD PTR [ebx]
  0008a	0f b7 86 dc fe
	ff ff		 movzx	 eax, WORD PTR [esi-292]
  00091	88 96 f2 fe ff
	ff		 mov	 BYTE PTR [esi-270], dl

; 376  : 			gObj[n].StartY = gObj[n].Y;

  00097	0f b6 13	 movzx	 edx, BYTE PTR [ebx]
  0009a	66 89 8e fa fe
	ff ff		 mov	 WORD PTR [esi-262], cx
  000a1	66 89 8e fe fe
	ff ff		 mov	 WORD PTR [esi-258], cx

; 377  : 			gObj[n].m_PoisonBeattackCount = 0;
; 378  : 			gObj[n].m_ColdBeattackCount = 0;
; 379  : 			gObj[n].m_ViewState = 0;
; 380  : 			gObj[n].Teleport = 0;
; 381  : 			gObj[n].m_State = 1;
; 382  : 			gObj[n].PathCount = 0;
; 383  : 
; 384  : 			LogAdd(LOG_BLACK, "Make GoldTantarus : %d, %d,%d",
; 385  : 				MapNumber, gObj[n].X, gObj[n].Y);

  000a8	0f bf c9	 movsx	 ecx, cx
  000ab	88 96 f3 fe ff
	ff		 mov	 BYTE PTR [esi-269], dl
  000b1	51		 push	 ecx
  000b2	0f bf d0	 movsx	 edx, ax
  000b5	52		 push	 edx
  000b6	6a 08		 push	 8
  000b8	68 00 00 00 00	 push	 OFFSET ??_C@_0BO@HFHPKCLG@Make?5GoldTantarus?5?3?5?$CFd?0?5?$CFd?0?$CFd?$AA@
  000bd	6a 00		 push	 0
  000bf	66 89 86 f8 fe
	ff ff		 mov	 WORD PTR [esi-264], ax
  000c6	66 89 86 fc fe
	ff ff		 mov	 WORD PTR [esi-260], ax
  000cd	66 c7 46 ff 00
	00		 mov	 WORD PTR [esi-1], 0
  000d3	c6 46 9a 00	 mov	 BYTE PTR [esi-102], 0
  000d7	c6 46 d8 00	 mov	 BYTE PTR [esi-40], 0
  000db	c7 46 94 01 00
	00 00		 mov	 DWORD PTR [esi-108], 1
  000e2	c7 86 00 ff ff
	ff 00 00 00 00	 mov	 DWORD PTR [esi-256], 0
  000ec	e8 00 00 00 00	 call	 ?LogAdd@@YAXW4eLogColor@@PADZZ ; LogAdd
  000f1	83 c4 14	 add	 esp, 20			; 00000014H
  000f4	e9 a2 00 00 00	 jmp	 $LN7@RegenKantu
$LN5@RegenKantu:

; 386  : 		}
; 387  : 		else if ( gObj[n].Class == 83 ) // Gold Iron Wheel

  000f9	83 f8 53	 cmp	 eax, 83			; 00000053H
  000fc	0f 85 99 00 00
	00		 jne	 $LN7@RegenKantu

; 388  : 		{
; 389  : 			gObj[n].Live = TRUE;

  00102	c6 86 3a fe ff
	ff 01		 mov	 BYTE PTR [esi-454], 1

; 390  : 			MapNumber = this->m_BossKanturMapNumber;

  00109	8b 47 34	 mov	 eax, DWORD PTR [edi+52]

; 391  : 			gObj[n].MapNumber = MapNumber;

  0010c	88 86 e1 fe ff
	ff		 mov	 BYTE PTR [esi-287], al

; 392  : 
; 393  : 			gMSetBase.GetBoxPosition(MapNumber, this->m_BossKanturMapX-10, this->m_BossKanturMapY-10,
; 394  : 				this->m_BossKanturMapX+10, this->m_BossKanturMapY+10, gObj[n].X, gObj[n].Y);

  00112	8b 4f 3c	 mov	 ecx, DWORD PTR [edi+60]
  00115	8d 9e de fe ff
	ff		 lea	 ebx, DWORD PTR [esi-290]
  0011b	53		 push	 ebx
  0011c	8d 96 dc fe ff
	ff		 lea	 edx, DWORD PTR [esi-292]
  00122	52		 push	 edx
  00123	8d 51 0a	 lea	 edx, DWORD PTR [ecx+10]
  00126	52		 push	 edx
  00127	8b 57 38	 mov	 edx, DWORD PTR [edi+56]
  0012a	83 c1 f6	 add	 ecx, -10		; fffffff6H
  0012d	83 c2 0a	 add	 edx, 10			; 0000000aH
  00130	52		 push	 edx
  00131	51		 push	 ecx
  00132	8b 4f 38	 mov	 ecx, DWORD PTR [edi+56]
  00135	83 c1 f6	 add	 ecx, -10		; fffffff6H
  00138	51		 push	 ecx
  00139	50		 push	 eax
  0013a	b9 00 00 00 00	 mov	 ecx, OFFSET ?gMSetBase@@3VCMonsterSetBase@@A ; gMSetBase
  0013f	e8 00 00 00 00	 call	 ?GetBoxPosition@CMonsterSetBase@@QAEHHHHHHAAF0@Z ; CMonsterSetBase::GetBoxPosition

; 395  : 
; 396  : 			gObj[n].Life = gObj[n].MaxLife;

  00144	d9 86 98 fe ff
	ff		 fld	 DWORD PTR [esi-360]

; 397  : 			gObj[n].TX = gObj[n].X;

  0014a	0f b7 86 dc fe
	ff ff		 movzx	 eax, WORD PTR [esi-292]
  00151	d9 9e 94 fe ff
	ff		 fstp	 DWORD PTR [esi-364]

; 398  : 			gObj[n].TY = gObj[n].Y;

  00157	0f b7 0b	 movzx	 ecx, WORD PTR [ebx]
  0015a	66 89 86 f8 fe
	ff ff		 mov	 WORD PTR [esi-264], ax
  00161	66 89 8e fa fe
	ff ff		 mov	 WORD PTR [esi-262], cx

; 399  : 			gObj[n].MTX = gObj[n].X;

  00168	66 89 86 fc fe
	ff ff		 mov	 WORD PTR [esi-260], ax

; 400  : 			gObj[n].MTY = gObj[n].Y;
; 401  : 			gObj[n].StartX = gObj[n].X;

  0016f	8a 86 dc fe ff
	ff		 mov	 al, BYTE PTR [esi-292]
  00175	66 89 8e fe fe
	ff ff		 mov	 WORD PTR [esi-258], cx

; 402  : 			gObj[n].StartY = gObj[n].Y;

  0017c	8a 0b		 mov	 cl, BYTE PTR [ebx]
  0017e	88 86 f2 fe ff
	ff		 mov	 BYTE PTR [esi-270], al
  00184	88 8e f3 fe ff
	ff		 mov	 BYTE PTR [esi-269], cl

; 403  : 			gObj[n].m_State = 1;

  0018a	c7 46 94 01 00
	00 00		 mov	 DWORD PTR [esi-108], 1

; 404  : 			gObj[n].PathCount = 0;

  00191	c7 86 00 ff ff
	ff 00 00 00 00	 mov	 DWORD PTR [esi-256], 0
$LN7@RegenKantu:

; 349  : 	int n=0;
; 350  : 	int MapNumber;
; 351  : //	int Map[2]={0,3};
; 352  : 
; 353  : 	for (n=0;n<OBJ_MAXMONSTER;n++)

  0019b	81 c6 64 15 00
	00		 add	 esi, 5476		; 00001564H
  001a1	81 fe c8 a3 e4
	01		 cmp	 esi, OFFSET ?gObj@@3PAUOBJECTSTRUCT@@A+31761352
  001a7	0f 8c 63 fe ff
	ff		 jl	 $LL8@RegenKantu

; 405  : 		}
; 406  : 	}
; 407  : }

  001ad	5f		 pop	 edi
  001ae	5e		 pop	 esi
  001af	5b		 pop	 ebx
  001b0	c3		 ret	 0
?RegenKantur@CEledoradoEvent@@QAEXXZ ENDP		; CEledoradoEvent::RegenKantur
_TEXT	ENDS
PUBLIC	?CheckGoldDercon@CEledoradoEvent@@QAEXH@Z	; CEledoradoEvent::CheckGoldDercon
EXTRN	?GCMapEventStateSend@@YAXHEE@Z:PROC		; GCMapEventStateSend
; Function compile flags: /Ogtp
;	COMDAT ?CheckGoldDercon@CEledoradoEvent@@QAEXH@Z
_TEXT	SEGMENT
_MapNumber$ = 8						; size = 4
?CheckGoldDercon@CEledoradoEvent@@QAEXH@Z PROC		; CEledoradoEvent::CheckGoldDercon, COMDAT
; _this$ = ecx

; 410  : {

  00000	55		 push	 ebp
  00001	8b ec		 mov	 ebp, esp

; 411  : 	if ( this->EventState == 0 )

  00003	83 79 04 00	 cmp	 DWORD PTR [ecx+4], 0
  00007	74 7c		 je	 SHORT $LN1@CheckGoldD

; 412  : 		return;
; 413  : 
; 414  : 	BOOL EventOn = FALSE;
; 415  : 	int EventClearMapNumber = -1;
; 416  : 
; 417  : 	for ( int i=0;i<3;i++)
; 418  : 	{
; 419  : 		if ( this->m_BossGoldDerconMapNumber[i] != -1 )

  00009	8b 41 44	 mov	 eax, DWORD PTR [ecx+68]
  0000c	56		 push	 esi
  0000d	83 ca ff	 or	 edx, -1
  00010	33 f6		 xor	 esi, esi
  00012	57		 push	 edi
  00013	8b 7d 08	 mov	 edi, DWORD PTR _MapNumber$[ebp]
  00016	3b c2		 cmp	 eax, edx
  00018	74 0b		 je	 SHORT $LN8@CheckGoldD

; 420  : 		{
; 421  : 			if ( this->m_BossGoldDerconMapNumber[i] == MapNumber )

  0001a	3b c7		 cmp	 eax, edi
  0001c	75 05		 jne	 SHORT $LN5@CheckGoldD

; 422  : 			{
; 423  : 				EventOn = TRUE;

  0001e	8d 72 02	 lea	 esi, DWORD PTR [edx+2]

; 424  : 			}
; 425  : 			else

  00021	eb 02		 jmp	 SHORT $LN8@CheckGoldD
$LN5@CheckGoldD:

; 426  : 			{
; 427  : 				EventClearMapNumber = this->m_BossGoldDerconMapNumber[i];

  00023	8b d0		 mov	 edx, eax
$LN8@CheckGoldD:

; 412  : 		return;
; 413  : 
; 414  : 	BOOL EventOn = FALSE;
; 415  : 	int EventClearMapNumber = -1;
; 416  : 
; 417  : 	for ( int i=0;i<3;i++)
; 418  : 	{
; 419  : 		if ( this->m_BossGoldDerconMapNumber[i] != -1 )

  00025	8b 41 48	 mov	 eax, DWORD PTR [ecx+72]
  00028	83 f8 ff	 cmp	 eax, -1
  0002b	74 0d		 je	 SHORT $LN21@CheckGoldD

; 420  : 		{
; 421  : 			if ( this->m_BossGoldDerconMapNumber[i] == MapNumber )

  0002d	3b c7		 cmp	 eax, edi
  0002f	75 07		 jne	 SHORT $LN20@CheckGoldD

; 422  : 			{
; 423  : 				EventOn = TRUE;

  00031	be 01 00 00 00	 mov	 esi, 1

; 424  : 			}
; 425  : 			else

  00036	eb 02		 jmp	 SHORT $LN21@CheckGoldD
$LN20@CheckGoldD:

; 426  : 			{
; 427  : 				EventClearMapNumber = this->m_BossGoldDerconMapNumber[i];

  00038	8b d0		 mov	 edx, eax
$LN21@CheckGoldD:

; 412  : 		return;
; 413  : 
; 414  : 	BOOL EventOn = FALSE;
; 415  : 	int EventClearMapNumber = -1;
; 416  : 
; 417  : 	for ( int i=0;i<3;i++)
; 418  : 	{
; 419  : 		if ( this->m_BossGoldDerconMapNumber[i] != -1 )

  0003a	8b 49 4c	 mov	 ecx, DWORD PTR [ecx+76]
  0003d	83 f9 ff	 cmp	 ecx, -1
  00040	74 0d		 je	 SHORT $LN24@CheckGoldD

; 420  : 		{
; 421  : 			if ( this->m_BossGoldDerconMapNumber[i] == MapNumber )

  00042	3b cf		 cmp	 ecx, edi
  00044	75 07		 jne	 SHORT $LN23@CheckGoldD

; 422  : 			{
; 423  : 				EventOn = TRUE;

  00046	be 01 00 00 00	 mov	 esi, 1

; 424  : 			}
; 425  : 			else

  0004b	eb 02		 jmp	 SHORT $LN24@CheckGoldD
$LN23@CheckGoldD:

; 426  : 			{
; 427  : 				EventClearMapNumber = this->m_BossGoldDerconMapNumber[i];

  0004d	8b d1		 mov	 edx, ecx
$LN24@CheckGoldD:

; 428  : 			}
; 429  : 		}
; 430  : 	}
; 431  : 
; 432  : 	if ( EventClearMapNumber != -1 )

  0004f	83 fa ff	 cmp	 edx, -1
  00052	74 0d		 je	 SHORT $LN3@CheckGoldD

; 433  : 	{
; 434  : 		GCMapEventStateSend(EventClearMapNumber, 0, 3);

  00054	6a 03		 push	 3
  00056	6a 00		 push	 0
  00058	52		 push	 edx
  00059	e8 00 00 00 00	 call	 ?GCMapEventStateSend@@YAXHEE@Z ; GCMapEventStateSend
  0005e	83 c4 0c	 add	 esp, 12			; 0000000cH
$LN3@CheckGoldD:

; 435  : 	}
; 436  : 
; 437  : 	if ( EventOn != FALSE )
; 438  : 	{
; 439  : 		GCMapEventStateSend(MapNumber, 1, 3);

  00061	6a 03		 push	 3
  00063	85 f6		 test	 esi, esi
  00065	74 11		 je	 SHORT $LN2@CheckGoldD
  00067	6a 01		 push	 1

; 440  : 	}
; 441  : 	else
; 442  : 	{
; 443  : 		GCMapEventStateSend(MapNumber, 0, 3);

  00069	57		 push	 edi
  0006a	e8 00 00 00 00	 call	 ?GCMapEventStateSend@@YAXHEE@Z ; GCMapEventStateSend
  0006f	83 c4 0c	 add	 esp, 12			; 0000000cH
  00072	5f		 pop	 edi
  00073	5e		 pop	 esi

; 444  : 	}
; 445  : }

  00074	5d		 pop	 ebp
  00075	c2 04 00	 ret	 4
$LN2@CheckGoldD:

; 440  : 	}
; 441  : 	else
; 442  : 	{
; 443  : 		GCMapEventStateSend(MapNumber, 0, 3);

  00078	6a 00		 push	 0
  0007a	57		 push	 edi
  0007b	e8 00 00 00 00	 call	 ?GCMapEventStateSend@@YAXHEE@Z ; GCMapEventStateSend
  00080	83 c4 0c	 add	 esp, 12			; 0000000cH
  00083	5f		 pop	 edi
  00084	5e		 pop	 esi
$LN1@CheckGoldD:

; 444  : 	}
; 445  : }

  00085	5d		 pop	 ebp
  00086	c2 04 00	 ret	 4
?CheckGoldDercon@CEledoradoEvent@@QAEXH@Z ENDP		; CEledoradoEvent::CheckGoldDercon
_TEXT	ENDS
PUBLIC	?End_Menual@CEledoradoEvent@@QAEXXZ		; CEledoradoEvent::End_Menual
; Function compile flags: /Ogtp
;	COMDAT ?End_Menual@CEledoradoEvent@@QAEXXZ
_TEXT	SEGMENT
?End_Menual@CEledoradoEvent@@QAEXXZ PROC		; CEledoradoEvent::End_Menual, COMDAT
; _this$ = ecx

; 473  : 	this->SetMenualStart(FALSE);

  00000	c7 41 40 00 00
	00 00		 mov	 DWORD PTR [ecx+64], 0

; 474  : }

  00007	c3		 ret	 0
?End_Menual@CEledoradoEvent@@QAEXXZ ENDP		; CEledoradoEvent::End_Menual
_TEXT	ENDS
EXTRN	__localtime64:PROC
; Function compile flags: /Ogtp
; File c:\program files (x86)\microsoft visual studio 10.0\vc\include\time.inl
;	COMDAT _localtime
_TEXT	SEGMENT
_localtime PROC						; COMDAT
; __Time$ = eax

; 114  : #pragma warning( push )
; 115  : #pragma warning( disable : 4996 )
; 116  :     return _localtime64(_Time);

  00000	50		 push	 eax
  00001	e8 00 00 00 00	 call	 __localtime64
  00006	83 c4 04	 add	 esp, 4

; 117  : #pragma warning( pop )
; 118  : }

  00009	c3		 ret	 0
_localtime ENDP
_TEXT	ENDS
EXTRN	__time64:PROC
; Function compile flags: /Ogtp
;	COMDAT _time
_TEXT	SEGMENT
_time	PROC						; COMDAT
; __Time$ = eax

; 133  :     return _time64(_Time);

  00000	50		 push	 eax
  00001	e8 00 00 00 00	 call	 __time64
  00006	83 c4 04	 add	 esp, 4

; 134  : }

  00009	c3		 ret	 0
_time	ENDP
_TEXT	ENDS
EXTRN	??3@YAXPAX@Z:PROC				; operator delete
; Function compile flags: /Ogtp
;	COMDAT ??_GCEledoradoEvent@@UAEPAXI@Z
_TEXT	SEGMENT
___flags$ = 8						; size = 4
??_GCEledoradoEvent@@UAEPAXI@Z PROC			; CEledoradoEvent::`scalar deleting destructor', COMDAT
; _this$ = ecx
  00000	55		 push	 ebp
  00001	8b ec		 mov	 ebp, esp
  00003	56		 push	 esi
  00004	8b f1		 mov	 esi, ecx
  00006	e8 00 00 00 00	 call	 ??1CEledoradoEvent@@UAE@XZ ; CEledoradoEvent::~CEledoradoEvent
  0000b	f6 45 08 01	 test	 BYTE PTR ___flags$[ebp], 1
  0000f	74 09		 je	 SHORT $LN4@scalar
  00011	56		 push	 esi
  00012	e8 00 00 00 00	 call	 ??3@YAXPAX@Z		; operator delete
  00017	83 c4 04	 add	 esp, 4
$LN4@scalar:
  0001a	8b c6		 mov	 eax, esi
  0001c	5e		 pop	 esi
  0001d	5d		 pop	 ebp
  0001e	c2 04 00	 ret	 4
??_GCEledoradoEvent@@UAEPAXI@Z ENDP			; CEledoradoEvent::`scalar deleting destructor'
_TEXT	ENDS
PUBLIC	??_C@_0BM@ENHJDIJM@Make?5GoldDercon?5?3?5?$CFd?0?5?$CFd?0?$CFd?$AA@ ; `string'
PUBLIC	_this$GSCopy$
PUBLIC	__$ArrayPad$
PUBLIC	?RegenGoldDercon@CEledoradoEvent@@QAEXXZ	; CEledoradoEvent::RegenGoldDercon
EXTRN	?Get@CMsg@@QAEPADH@Z:PROC			; CMsg::Get
EXTRN	?lMsg@@3VCMsg@@A:BYTE				; lMsg
EXTRN	___security_cookie:DWORD
EXTRN	@__security_check_cookie@4:PROC
;	COMDAT ??_C@_0BM@ENHJDIJM@Make?5GoldDercon?5?3?5?$CFd?0?5?$CFd?0?$CFd?$AA@
; File c:\users\faelhs\mu-1.1\emu - gameserver sapphire s0\gameserver\eledoradoevent.cpp
CONST	SEGMENT
??_C@_0BM@ENHJDIJM@Make?5GoldDercon?5?3?5?$CFd?0?5?$CFd?0?$CFd?$AA@ DB 'M'
	DB	'ake GoldDercon : %d, %d,%d', 00H		; `string'
; Function compile flags: /Ogtp
CONST	ENDS
;	COMDAT ?RegenGoldDercon@CEledoradoEvent@@QAEXXZ
_TEXT	SEGMENT
_this$GSCopy$ = -292					; size = 4
_count$ = -288						; size = 4
tv533 = -284						; size = 4
_SelMap$ = -280						; size = 4
_MapNumber$ = -276					; size = 4
_Map$ = -272						; size = 12
_szTemp$153557 = -260					; size = 256
__$ArrayPad$ = -4					; size = 4
?RegenGoldDercon@CEledoradoEvent@@QAEXXZ PROC		; CEledoradoEvent::RegenGoldDercon, COMDAT
; _this$ = ecx

; 214  : {

  00000	55		 push	 ebp
  00001	8b ec		 mov	 ebp, esp
  00003	81 ec 24 01 00
	00		 sub	 esp, 292		; 00000124H
  00009	a1 00 00 00 00	 mov	 eax, DWORD PTR ___security_cookie
  0000e	33 c5		 xor	 eax, ebp
  00010	89 45 fc	 mov	 DWORD PTR __$ArrayPad$[ebp], eax
  00013	53		 push	 ebx
  00014	56		 push	 esi
  00015	57		 push	 edi

; 215  : 	int n=0;
; 216  : 	int MapNumber=-1;

  00016	83 cf ff	 or	 edi, -1

; 217  : 	int Map[3]={0,3,2};

  00019	33 c0		 xor	 eax, eax
  0001b	8b f1		 mov	 esi, ecx

; 218  : 	int SelMap = -1;
; 219  : 	int count = 0;
; 220  : 
; 221  : 	this->CheckGoldDercon(MapNumber);	// #error??? MapNumber hasn't been setted

  0001d	57		 push	 edi
  0001e	89 b5 dc fe ff
	ff		 mov	 DWORD PTR _this$GSCopy$[ebp], esi
  00024	89 bd ec fe ff
	ff		 mov	 DWORD PTR _MapNumber$[ebp], edi
  0002a	89 85 f0 fe ff
	ff		 mov	 DWORD PTR _Map$[ebp], eax
  00030	c7 85 f4 fe ff
	ff 03 00 00 00	 mov	 DWORD PTR _Map$[ebp+4], 3
  0003a	c7 85 f8 fe ff
	ff 02 00 00 00	 mov	 DWORD PTR _Map$[ebp+8], 2
  00044	89 bd e8 fe ff
	ff		 mov	 DWORD PTR _SelMap$[ebp], edi
  0004a	89 85 e0 fe ff
	ff		 mov	 DWORD PTR _count$[ebp], eax
  00050	e8 00 00 00 00	 call	 ?CheckGoldDercon@CEledoradoEvent@@QAEXH@Z ; CEledoradoEvent::CheckGoldDercon

; 277  : 			}
; 278  : 
; 279  : 			this->m_BossGoldDerconMapNumber[count] = MapNumber;

  00055	8d 46 44	 lea	 eax, DWORD PTR [esi+68]
  00058	bb 62 00 00 00	 mov	 ebx, OFFSET ?gObj@@3PAUOBJECTSTRUCT@@A+98
  0005d	89 85 e4 fe ff
	ff		 mov	 DWORD PTR tv533[ebp], eax
$LL14@RegenGoldD:

; 224  : 	{
; 225  : 		if ( gObj[n].Class == 79 )	// Gold Dercon

  00063	66 83 7b 36 4f	 cmp	 WORD PTR [ebx+54], 79	; 0000004fH
  00068	0f 85 07 02 00
	00		 jne	 $LN13@RegenGoldD

; 226  : 		{
; 227  : 			gObj[n].Live = TRUE;

  0006e	c6 03 01	 mov	 BYTE PTR [ebx], 1

; 228  : 
; 229  : 			if ( SelMap == -1 )	

  00071	83 ff ff	 cmp	 edi, -1
  00074	75 1c		 jne	 SHORT $LN10@RegenGoldD

; 230  : 			{
; 231  : 				MapNumber = Map[rand()%3];

  00076	e8 00 00 00 00	 call	 _rand
  0007b	99		 cdq
  0007c	b9 03 00 00 00	 mov	 ecx, 3
  00081	f7 f9		 idiv	 ecx
  00083	8b 94 95 f0 fe
	ff ff		 mov	 edx, DWORD PTR _Map$[ebp+edx*4]
  0008a	89 95 ec fe ff
	ff		 mov	 DWORD PTR _MapNumber$[ebp], edx

; 232  : 			}
; 233  : 			else

  00090	eb 06		 jmp	 SHORT $LN9@RegenGoldD
$LN10@RegenGoldD:

; 234  : 			{
; 235  : 				MapNumber = SelMap;

  00092	89 bd ec fe ff
	ff		 mov	 DWORD PTR _MapNumber$[ebp], edi
$LN9@RegenGoldD:

; 236  : 			}
; 237  : 
; 238  : 			gObj[n].MapNumber = MapNumber;

  00098	8a 85 ec fe ff
	ff		 mov	 al, BYTE PTR _MapNumber$[ebp]
  0009e	88 83 a7 00 00
	00		 mov	 BYTE PTR [ebx+167], al

; 241  : 			{
; 242  : 
; 243  : 			}
; 244  : 
; 245  : 			gObj[n].Life = gObj[n].MaxLife;

  000a4	8d bb a4 00 00
	00		 lea	 edi, DWORD PTR [ebx+164]
  000aa	8d b3 a2 00 00
	00		 lea	 esi, DWORD PTR [ebx+162]
$LL8@RegenGoldD:

; 239  : 
; 240  : 			while ( gMSetBase.GetBoxPosition(MapNumber, 80, 80, 170, 170, gObj[n].X, gObj[n].Y) == 0 )

  000b0	8b 8d ec fe ff
	ff		 mov	 ecx, DWORD PTR _MapNumber$[ebp]
  000b6	57		 push	 edi
  000b7	56		 push	 esi
  000b8	68 aa 00 00 00	 push	 170			; 000000aaH
  000bd	68 aa 00 00 00	 push	 170			; 000000aaH
  000c2	6a 50		 push	 80			; 00000050H
  000c4	6a 50		 push	 80			; 00000050H
  000c6	51		 push	 ecx
  000c7	b9 00 00 00 00	 mov	 ecx, OFFSET ?gMSetBase@@3VCMonsterSetBase@@A ; gMSetBase
  000cc	e8 00 00 00 00	 call	 ?GetBoxPosition@CMonsterSetBase@@QAEHHHHHHAAF0@Z ; CMonsterSetBase::GetBoxPosition
  000d1	85 c0		 test	 eax, eax
  000d3	74 db		 je	 SHORT $LL8@RegenGoldD

; 246  : 			gObj[n].TX = gObj[n].X;

  000d5	0f b7 06	 movzx	 eax, WORD PTR [esi]
  000d8	d9 43 5e	 fld	 DWORD PTR [ebx+94]

; 247  : 			gObj[n].TY = gObj[n].Y;

  000db	0f b7 37	 movzx	 esi, WORD PTR [edi]
  000de	d9 5b 5a	 fstp	 DWORD PTR [ebx+90]

; 248  : 			gObj[n].MTX = gObj[n].X;
; 249  : 			gObj[n].MTY = gObj[n].Y;
; 250  : 			gObj[n].StartX = gObj[n].X;

  000e1	8a 93 a2 00 00
	00		 mov	 dl, BYTE PTR [ebx+162]

; 251  : 			gObj[n].StartY = gObj[n].Y;

  000e7	8a 0f		 mov	 cl, BYTE PTR [edi]
  000e9	88 93 b8 00 00
	00		 mov	 BYTE PTR [ebx+184], dl

; 252  : 			gObj[n].m_State = 1;
; 253  : 			gObj[n].PathCount = 0;
; 254  : 
; 255  : 			LogAdd(LOG_BLACK, "Make GoldDercon : %d, %d,%d",
; 256  : 				MapNumber, gObj[n].X, gObj[n].Y);

  000ef	0f bf d6	 movsx	 edx, si
  000f2	66 89 83 be 00
	00 00		 mov	 WORD PTR [ebx+190], ax
  000f9	66 89 83 c2 00
	00 00		 mov	 WORD PTR [ebx+194], ax
  00100	52		 push	 edx
  00101	98		 cwde
  00102	50		 push	 eax
  00103	88 8b b9 00 00
	00		 mov	 BYTE PTR [ebx+185], cl
  00109	8b 8d ec fe ff
	ff		 mov	 ecx, DWORD PTR _MapNumber$[ebp]
  0010f	51		 push	 ecx
  00110	68 00 00 00 00	 push	 OFFSET ??_C@_0BM@ENHJDIJM@Make?5GoldDercon?5?3?5?$CFd?0?5?$CFd?0?$CFd?$AA@
  00115	6a 00		 push	 0
  00117	66 89 b3 c0 00
	00 00		 mov	 WORD PTR [ebx+192], si
  0011e	66 89 b3 c4 00
	00 00		 mov	 WORD PTR [ebx+196], si
  00125	c7 83 5a 01 00
	00 01 00 00 00	 mov	 DWORD PTR [ebx+346], 1
  0012f	c7 83 c6 00 00
	00 00 00 00 00	 mov	 DWORD PTR [ebx+198], 0
  00139	e8 00 00 00 00	 call	 ?LogAdd@@YAXW4eLogColor@@PADZZ ; LogAdd
  0013e	83 c4 14	 add	 esp, 20			; 00000014H

; 257  : 
; 258  : 			if ( SelMap == -1 )

  00141	83 bd e8 fe ff
	ff ff		 cmp	 DWORD PTR _SelMap$[ebp], -1
  00148	0f 85 ef 00 00
	00		 jne	 $LN6@RegenGoldD

; 259  : 			{
; 260  : 				char szTemp[256];
; 261  : 				strcpy(szTemp, " ");
; 262  : 
; 263  : 				switch ( MapNumber )

  0014e	8b 85 ec fe ff
	ff		 mov	 eax, DWORD PTR _MapNumber$[ebp]
  00154	83 e8 00	 sub	 eax, 0
  00157	ba 20 00 00 00	 mov	 edx, 32			; 00000020H
  0015c	66 89 95 fc fe
	ff ff		 mov	 WORD PTR _szTemp$153557[ebp], dx
  00163	74 65		 je	 SHORT $LN3@RegenGoldD
  00165	83 e8 02	 sub	 eax, 2
  00168	74 32		 je	 SHORT $LN2@RegenGoldD
  0016a	48		 dec	 eax
  0016b	0f 85 95 00 00
	00		 jne	 $LN4@RegenGoldD

; 271  : 					case 3:
; 272  : 						strcat(szTemp, lMsg.Get(MSGGET(7, 211)));

  00171	68 d3 07 00 00	 push	 2003			; 000007d3H
  00176	b9 00 00 00 00	 mov	 ecx, OFFSET ?lMsg@@3VCMsg@@A ; lMsg
  0017b	e8 00 00 00 00	 call	 ?Get@CMsg@@QAEPADH@Z	; CMsg::Get
  00180	8b f0		 mov	 esi, eax
$LL20@RegenGoldD:
  00182	8a 08		 mov	 cl, BYTE PTR [eax]
  00184	40		 inc	 eax
  00185	84 c9		 test	 cl, cl
  00187	75 f9		 jne	 SHORT $LL20@RegenGoldD
  00189	8d bd fc fe ff
	ff		 lea	 edi, DWORD PTR _szTemp$153557[ebp]
  0018f	2b c6		 sub	 eax, esi
  00191	4f		 dec	 edi
$LL21@RegenGoldD:
  00192	8a 4f 01	 mov	 cl, BYTE PTR [edi+1]
  00195	47		 inc	 edi
  00196	84 c9		 test	 cl, cl
  00198	75 f8		 jne	 SHORT $LL21@RegenGoldD

; 273  : 						break;

  0019a	eb 5c		 jmp	 SHORT $LN29@RegenGoldD
$LN2@RegenGoldD:

; 267  : 						break;
; 268  : 					case 2:
; 269  : 						strcat(szTemp, lMsg.Get(MSGGET(7, 210)));

  0019c	68 d2 07 00 00	 push	 2002			; 000007d2H
  001a1	b9 00 00 00 00	 mov	 ecx, OFFSET ?lMsg@@3VCMsg@@A ; lMsg
  001a6	e8 00 00 00 00	 call	 ?Get@CMsg@@QAEPADH@Z	; CMsg::Get
  001ab	8b f0		 mov	 esi, eax
  001ad	8d 49 00	 npad	 3
$LL22@RegenGoldD:
  001b0	8a 08		 mov	 cl, BYTE PTR [eax]
  001b2	40		 inc	 eax
  001b3	84 c9		 test	 cl, cl
  001b5	75 f9		 jne	 SHORT $LL22@RegenGoldD
  001b7	8d bd fc fe ff
	ff		 lea	 edi, DWORD PTR _szTemp$153557[ebp]
  001bd	2b c6		 sub	 eax, esi
  001bf	4f		 dec	 edi
$LL23@RegenGoldD:
  001c0	8a 4f 01	 mov	 cl, BYTE PTR [edi+1]
  001c3	47		 inc	 edi
  001c4	84 c9		 test	 cl, cl
  001c6	75 f8		 jne	 SHORT $LL23@RegenGoldD

; 270  : 						break;

  001c8	eb 2e		 jmp	 SHORT $LN29@RegenGoldD
$LN3@RegenGoldD:

; 264  : 				{
; 265  : 					case 0:
; 266  : 						strcat(szTemp, lMsg.Get(MSGGET(7, 208)));

  001ca	68 d0 07 00 00	 push	 2000			; 000007d0H
  001cf	b9 00 00 00 00	 mov	 ecx, OFFSET ?lMsg@@3VCMsg@@A ; lMsg
  001d4	e8 00 00 00 00	 call	 ?Get@CMsg@@QAEPADH@Z	; CMsg::Get
  001d9	8b f0		 mov	 esi, eax
  001db	eb 03 8d 49 00	 npad	 5
$LL24@RegenGoldD:
  001e0	8a 08		 mov	 cl, BYTE PTR [eax]
  001e2	40		 inc	 eax
  001e3	84 c9		 test	 cl, cl
  001e5	75 f9		 jne	 SHORT $LL24@RegenGoldD
  001e7	8d bd fc fe ff
	ff		 lea	 edi, DWORD PTR _szTemp$153557[ebp]
  001ed	2b c6		 sub	 eax, esi
  001ef	4f		 dec	 edi
$LL25@RegenGoldD:
  001f0	8a 4f 01	 mov	 cl, BYTE PTR [edi+1]
  001f3	47		 inc	 edi
  001f4	84 c9		 test	 cl, cl
  001f6	75 f8		 jne	 SHORT $LL25@RegenGoldD
$LN29@RegenGoldD:
  001f8	8b c8		 mov	 ecx, eax
  001fa	c1 e9 02	 shr	 ecx, 2
  001fd	f3 a5		 rep movsd
  001ff	8b c8		 mov	 ecx, eax
  00201	83 e1 03	 and	 ecx, 3
  00204	f3 a4		 rep movsb
$LN4@RegenGoldD:

; 274  : 				}
; 275  : 
; 276  : 				strcat(szTemp, lMsg.Get(MSGGET(4, 134)));

  00206	68 86 04 00 00	 push	 1158			; 00000486H
  0020b	b9 00 00 00 00	 mov	 ecx, OFFSET ?lMsg@@3VCMsg@@A ; lMsg
  00210	e8 00 00 00 00	 call	 ?Get@CMsg@@QAEPADH@Z	; CMsg::Get
  00215	8b f0		 mov	 esi, eax
$LL26@RegenGoldD:
  00217	8a 08		 mov	 cl, BYTE PTR [eax]
  00219	40		 inc	 eax
  0021a	84 c9		 test	 cl, cl
  0021c	75 f9		 jne	 SHORT $LL26@RegenGoldD
  0021e	8d bd fc fe ff
	ff		 lea	 edi, DWORD PTR _szTemp$153557[ebp]
  00224	2b c6		 sub	 eax, esi
  00226	4f		 dec	 edi
$LL27@RegenGoldD:
  00227	8a 4f 01	 mov	 cl, BYTE PTR [edi+1]
  0022a	47		 inc	 edi
  0022b	84 c9		 test	 cl, cl
  0022d	75 f8		 jne	 SHORT $LL27@RegenGoldD
  0022f	8b c8		 mov	 ecx, eax
  00231	c1 e9 02	 shr	 ecx, 2
  00234	f3 a5		 rep movsd
  00236	8b c8		 mov	 ecx, eax
  00238	83 e1 03	 and	 ecx, 3
  0023b	f3 a4		 rep movsb
$LN6@RegenGoldD:

; 277  : 			}
; 278  : 
; 279  : 			this->m_BossGoldDerconMapNumber[count] = MapNumber;

  0023d	8b 95 ec fe ff
	ff		 mov	 edx, DWORD PTR _MapNumber$[ebp]
  00243	8b 85 e4 fe ff
	ff		 mov	 eax, DWORD PTR tv533[ebp]

; 280  : 			gObj[n].m_BossGoldDerconMapNumber = count;	// #error change count by MapNumber

  00249	8b 8d e0 fe ff
	ff		 mov	 ecx, DWORD PTR _count$[ebp]

; 281  : 			count++;
; 282  : 			SelMap = MapNumber;

  0024f	8b b5 dc fe ff
	ff		 mov	 esi, DWORD PTR _this$GSCopy$[ebp]
  00255	89 10		 mov	 DWORD PTR [eax], edx
  00257	88 8b be 0e 00
	00		 mov	 BYTE PTR [ebx+3774], cl
  0025d	41		 inc	 ecx
  0025e	83 c0 04	 add	 eax, 4
  00261	89 8d e0 fe ff
	ff		 mov	 DWORD PTR _count$[ebp], ecx
  00267	89 85 e4 fe ff
	ff		 mov	 DWORD PTR tv533[ebp], eax
  0026d	89 95 e8 fe ff
	ff		 mov	 DWORD PTR _SelMap$[ebp], edx
  00273	8b fa		 mov	 edi, edx
$LN13@RegenGoldD:

; 222  : 
; 223  : 	for (n=0;n<OBJ_MAXMONSTER;n++)

  00275	81 c3 64 15 00
	00		 add	 ebx, 5476		; 00001564H
  0027b	81 fb 02 a2 e4
	01		 cmp	 ebx, OFFSET ?gObj@@3PAUOBJECTSTRUCT@@A+31760898
  00281	0f 8c dc fd ff
	ff		 jl	 $LL14@RegenGoldD

; 283  : 		}
; 284  : 	}
; 285  : 
; 286  : 	this->CheckGoldDercon(MapNumber);

  00287	8b 85 ec fe ff
	ff		 mov	 eax, DWORD PTR _MapNumber$[ebp]
  0028d	50		 push	 eax
  0028e	8b ce		 mov	 ecx, esi
  00290	e8 00 00 00 00	 call	 ?CheckGoldDercon@CEledoradoEvent@@QAEXH@Z ; CEledoradoEvent::CheckGoldDercon

; 287  : }

  00295	8b 4d fc	 mov	 ecx, DWORD PTR __$ArrayPad$[ebp]
  00298	5f		 pop	 edi
  00299	5e		 pop	 esi
  0029a	33 cd		 xor	 ecx, ebp
  0029c	5b		 pop	 ebx
  0029d	e8 00 00 00 00	 call	 @__security_check_cookie@4
  002a2	8b e5		 mov	 esp, ebp
  002a4	5d		 pop	 ebp
  002a5	c3		 ret	 0
?RegenGoldDercon@CEledoradoEvent@@QAEXXZ ENDP		; CEledoradoEvent::RegenGoldDercon
_TEXT	ENDS
PUBLIC	??_C@_0DF@GIAPPI@?$KB?$NL?$KB?$NM?$FLEvent?5Management?$FN?5?$FLStart?$FN?5E@ ; `string'
PUBLIC	?Start_Menual@CEledoradoEvent@@QAEXXZ		; CEledoradoEvent::Start_Menual
EXTRN	__imp__GetTickCount@0:PROC
;	COMDAT ??_C@_0DF@GIAPPI@?$KB?$NL?$KB?$NM?$FLEvent?5Management?$FN?5?$FLStart?$FN?5E@
; File c:\users\faelhs\mu-1.1\emu - gameserver sapphire s0\gameserver\eledoradoevent.h
CONST	SEGMENT
??_C@_0DF@GIAPPI@?$KB?$NL?$KB?$NM?$FLEvent?5Management?$FN?5?$FLStart?$FN?5E@ DB 0a1H
	DB	0dbH, 0a1H, 0dcH, '[Event Management] [Start] EledoradoEvent E'
	DB	'vent!', 00H					; `string'
; Function compile flags: /Ogtp
; File c:\users\faelhs\mu-1.1\emu - gameserver sapphire s0\gameserver\eledoradoevent.cpp
CONST	ENDS
;	COMDAT ?Start_Menual@CEledoradoEvent@@QAEXXZ
_TEXT	SEGMENT
?Start_Menual@CEledoradoEvent@@QAEXXZ PROC		; CEledoradoEvent::Start_Menual, COMDAT
; _this$ = ecx

; 448  : {

  00000	56		 push	 esi
  00001	57		 push	 edi
  00002	8b f1		 mov	 esi, ecx

; 449  : 	this->SetMenualStart(TRUE);
; 450  : 
; 451  : 	LogAdd(LOG_BLACK, "[Event Management] [Start] EledoradoEvent Event!");

  00004	68 00 00 00 00	 push	 OFFSET ??_C@_0DF@GIAPPI@?$KB?$NL?$KB?$NM?$FLEvent?5Management?$FN?5?$FLStart?$FN?5E@
  00009	6a 00		 push	 0
  0000b	c7 46 40 01 00
	00 00		 mov	 DWORD PTR [esi+64], 1
  00012	e8 00 00 00 00	 call	 ?LogAdd@@YAXW4eLogColor@@PADZZ ; LogAdd
  00017	83 c4 08	 add	 esp, 8

; 452  : 
; 453  : 	DWORD TickCount = GetTickCount();

  0001a	ff 15 00 00 00
	00		 call	 DWORD PTR __imp__GetTickCount@0
  00020	8b f8		 mov	 edi, eax

; 454  : 
; 455  : 	this->GoldGoblenEventStartTime = TickCount;
; 456  : 	this->RegenGoldGoblen();

  00022	8b ce		 mov	 ecx, esi
  00024	89 7e 08	 mov	 DWORD PTR [esi+8], edi
  00027	e8 00 00 00 00	 call	 ?RegenGoldGoblen@CEledoradoEvent@@QAEXXZ ; CEledoradoEvent::RegenGoldGoblen

; 457  : 
; 458  : 	this->TitanEventStartTime = TickCount;
; 459  : 	this->RegenTitan();

  0002c	8b ce		 mov	 ecx, esi
  0002e	89 7e 0c	 mov	 DWORD PTR [esi+12], edi
  00031	e8 00 00 00 00	 call	 ?RegenTitan@CEledoradoEvent@@QAEXXZ ; CEledoradoEvent::RegenTitan

; 460  : 
; 461  : 	this->GoldDerconEventStartTime = TickCount;
; 462  : 	this->RegenGoldDercon();

  00036	8b ce		 mov	 ecx, esi
  00038	89 7e 10	 mov	 DWORD PTR [esi+16], edi
  0003b	e8 00 00 00 00	 call	 ?RegenGoldDercon@CEledoradoEvent@@QAEXXZ ; CEledoradoEvent::RegenGoldDercon

; 463  : 
; 464  : 	this->DevilLizardKingEventStartTime = TickCount;
; 465  : 	this->RegenDevilLizardKing();

  00040	8b ce		 mov	 ecx, esi
  00042	89 7e 14	 mov	 DWORD PTR [esi+20], edi
  00045	e8 00 00 00 00	 call	 ?RegenDevilLizardKing@CEledoradoEvent@@QAEXXZ ; CEledoradoEvent::RegenDevilLizardKing

; 466  : 
; 467  : 	this->KanturEventStartTime = TickCount;

  0004a	89 7e 18	 mov	 DWORD PTR [esi+24], edi
  0004d	5f		 pop	 edi

; 468  : 	this->RegenKantur();

  0004e	8b ce		 mov	 ecx, esi
  00050	5e		 pop	 esi
  00051	e9 00 00 00 00	 jmp	 ?RegenKantur@CEledoradoEvent@@QAEXXZ ; CEledoradoEvent::RegenKantur
?Start_Menual@CEledoradoEvent@@QAEXXZ ENDP		; CEledoradoEvent::Start_Menual
_TEXT	ENDS
PUBLIC	?Run@CEledoradoEvent@@QAEXXZ			; CEledoradoEvent::Run
EXTRN	?gEledoradoDevilTantarosRegenTime@@3KA:DWORD	; gEledoradoDevilTantarosRegenTime
EXTRN	?gEledoradoDevilLizardKingRegenTime@@3KA:DWORD	; gEledoradoDevilLizardKingRegenTime
EXTRN	?gEledoradoGoldDerconRegenTime@@3KA:DWORD	; gEledoradoGoldDerconRegenTime
EXTRN	?gEledoradoTitanRegenTime@@3KA:DWORD		; gEledoradoTitanRegenTime
EXTRN	?gEledoradoGoldGoblenRegenTime@@3KA:DWORD	; gEledoradoGoldGoblenRegenTime
; Function compile flags: /Ogtp
;	COMDAT ?Run@CEledoradoEvent@@QAEXXZ
_TEXT	SEGMENT
_ltime$153499 = -8					; size = 8
?Run@CEledoradoEvent@@QAEXXZ PROC			; CEledoradoEvent::Run, COMDAT
; _this$ = ecx

; 44   : {

  00000	55		 push	 ebp
  00001	8b ec		 mov	 ebp, esp
  00003	83 ec 08	 sub	 esp, 8
  00006	56		 push	 esi
  00007	8b f1		 mov	 esi, ecx

; 45   : 	if ( this->m_bMenualStart != FALSE )

  00009	83 7e 40 00	 cmp	 DWORD PTR [esi+64], 0
  0000d	0f 85 1d 01 00
	00		 jne	 $LN1@Run

; 46   : 	{
; 47   : 		return;
; 48   : 	}
; 49   : 
; 50   : 	if ( this->EventState == 0 )

  00013	83 7e 04 00	 cmp	 DWORD PTR [esi+4], 0
  00017	0f 84 13 01 00
	00		 je	 $LN1@Run

; 51   : 	{
; 52   : 		return;
; 53   : 	}
; 54   : 
; 55   : 	if ( this->GoldGoblenEventStartTime == 0 )

  0001d	83 7e 08 00	 cmp	 DWORD PTR [esi+8], 0
  00021	57		 push	 edi
  00022	75 6a		 jne	 SHORT $LN8@Run

; 56   : 	{
; 57   : 		tm * today;
; 58   : 		time_t ltime;
; 59   : 
; 60   : 		time(&ltime);

  00024	8d 45 f8	 lea	 eax, DWORD PTR _ltime$153499[ebp]
  00027	50		 push	 eax
  00028	e8 00 00 00 00	 call	 __time64

; 61   : 		today = localtime(&ltime);

  0002d	8d 4d f8	 lea	 ecx, DWORD PTR _ltime$153499[ebp]
  00030	51		 push	 ecx
  00031	e8 00 00 00 00	 call	 __localtime64

; 62   : 
; 63   : 		if ( today->tm_min >= 30 && today->tm_min  <= 35 )

  00036	8b 40 04	 mov	 eax, DWORD PTR [eax+4]
  00039	83 c4 08	 add	 esp, 8
  0003c	83 f8 1e	 cmp	 eax, 30			; 0000001eH
  0003f	0f 8c ea 00 00
	00		 jl	 $LN17@Run
  00045	83 f8 23	 cmp	 eax, 35			; 00000023H
  00048	0f 8f e1 00 00
	00		 jg	 $LN17@Run

; 64   : 		{
; 65   : 			int Time = GetTickCount();

  0004e	ff 15 00 00 00
	00		 call	 DWORD PTR __imp__GetTickCount@0
  00054	8b f8		 mov	 edi, eax

; 66   : 
; 67   : 			this->GoldGoblenEventStartTime = Time;
; 68   : 			this->RegenGoldGoblen();

  00056	8b ce		 mov	 ecx, esi
  00058	89 7e 08	 mov	 DWORD PTR [esi+8], edi
  0005b	e8 00 00 00 00	 call	 ?RegenGoldGoblen@CEledoradoEvent@@QAEXXZ ; CEledoradoEvent::RegenGoldGoblen

; 69   : 
; 70   : 			this->TitanEventStartTime = Time;
; 71   : 			this->RegenTitan();

  00060	8b ce		 mov	 ecx, esi
  00062	89 7e 0c	 mov	 DWORD PTR [esi+12], edi
  00065	e8 00 00 00 00	 call	 ?RegenTitan@CEledoradoEvent@@QAEXXZ ; CEledoradoEvent::RegenTitan

; 72   : 
; 73   : 			this->GoldDerconEventStartTime = Time;
; 74   : 			this->RegenGoldDercon();

  0006a	8b ce		 mov	 ecx, esi
  0006c	89 7e 10	 mov	 DWORD PTR [esi+16], edi
  0006f	e8 00 00 00 00	 call	 ?RegenGoldDercon@CEledoradoEvent@@QAEXXZ ; CEledoradoEvent::RegenGoldDercon

; 75   : 
; 76   : 			this->DevilLizardKingEventStartTime = Time;
; 77   : 			this->RegenDevilLizardKing();

  00074	8b ce		 mov	 ecx, esi
  00076	89 7e 14	 mov	 DWORD PTR [esi+20], edi
  00079	e8 00 00 00 00	 call	 ?RegenDevilLizardKing@CEledoradoEvent@@QAEXXZ ; CEledoradoEvent::RegenDevilLizardKing

; 112  : 		{
; 113  : 			this->KanturEventStartTime = Time;
; 114  : 			this->RegenKantur();

  0007e	8b ce		 mov	 ecx, esi
  00080	89 7e 18	 mov	 DWORD PTR [esi+24], edi
  00083	e8 00 00 00 00	 call	 ?RegenKantur@CEledoradoEvent@@QAEXXZ ; CEledoradoEvent::RegenKantur
  00088	5f		 pop	 edi
  00089	5e		 pop	 esi

; 115  : 		}
; 116  : 	}
; 117  : }

  0008a	8b e5		 mov	 esp, ebp
  0008c	5d		 pop	 ebp
  0008d	c3		 ret	 0
$LN8@Run:

; 78   : 
; 79   : 			this->KanturEventStartTime = Time;
; 80   : 			this->RegenKantur();
; 81   : 		}
; 82   : 	}
; 83   : 	else
; 84   : 	{
; 85   : 		DWORD Time = GetTickCount();

  0008e	ff 15 00 00 00
	00		 call	 DWORD PTR __imp__GetTickCount@0
  00094	8b f8		 mov	 edi, eax

; 86   : 
; 87   : 		if ( ( Time - this->GoldGoblenEventStartTime ) > gEledoradoGoldGoblenRegenTime * 60000 )

  00096	a1 00 00 00 00	 mov	 eax, DWORD PTR ?gEledoradoGoldGoblenRegenTime@@3KA ; gEledoradoGoldGoblenRegenTime
  0009b	69 c0 60 ea 00
	00		 imul	 eax, 60000		; 0000ea60H
  000a1	8b d7		 mov	 edx, edi
  000a3	2b 56 08	 sub	 edx, DWORD PTR [esi+8]
  000a6	3b d0		 cmp	 edx, eax
  000a8	76 0a		 jbe	 SHORT $LN5@Run

; 88   : 		{
; 89   : 			this->GoldGoblenEventStartTime = Time;
; 90   : 			this->RegenGoldGoblen();

  000aa	8b ce		 mov	 ecx, esi
  000ac	89 7e 08	 mov	 DWORD PTR [esi+8], edi
  000af	e8 00 00 00 00	 call	 ?RegenGoldGoblen@CEledoradoEvent@@QAEXXZ ; CEledoradoEvent::RegenGoldGoblen
$LN5@Run:

; 91   : 		}
; 92   : 
; 93   : 		if ( ( Time - this->TitanEventStartTime ) > gEledoradoTitanRegenTime * 60000 )

  000b4	8b 15 00 00 00
	00		 mov	 edx, DWORD PTR ?gEledoradoTitanRegenTime@@3KA ; gEledoradoTitanRegenTime
  000ba	69 d2 60 ea 00
	00		 imul	 edx, 60000		; 0000ea60H
  000c0	8b cf		 mov	 ecx, edi
  000c2	2b 4e 0c	 sub	 ecx, DWORD PTR [esi+12]
  000c5	3b ca		 cmp	 ecx, edx
  000c7	76 0a		 jbe	 SHORT $LN4@Run

; 94   : 		{
; 95   : 			this->TitanEventStartTime = Time;
; 96   : 			this->RegenTitan();

  000c9	8b ce		 mov	 ecx, esi
  000cb	89 7e 0c	 mov	 DWORD PTR [esi+12], edi
  000ce	e8 00 00 00 00	 call	 ?RegenTitan@CEledoradoEvent@@QAEXXZ ; CEledoradoEvent::RegenTitan
$LN4@Run:

; 97   : 		}
; 98   : 
; 99   : 		if ( ( Time - this->GoldDerconEventStartTime ) > gEledoradoGoldDerconRegenTime * 60000 )

  000d3	8b 0d 00 00 00
	00		 mov	 ecx, DWORD PTR ?gEledoradoGoldDerconRegenTime@@3KA ; gEledoradoGoldDerconRegenTime
  000d9	69 c9 60 ea 00
	00		 imul	 ecx, 60000		; 0000ea60H
  000df	8b c7		 mov	 eax, edi
  000e1	2b 46 10	 sub	 eax, DWORD PTR [esi+16]
  000e4	3b c1		 cmp	 eax, ecx
  000e6	76 0a		 jbe	 SHORT $LN3@Run

; 100  : 		{
; 101  : 			this->GoldDerconEventStartTime = Time;
; 102  : 			this->RegenGoldDercon();

  000e8	8b ce		 mov	 ecx, esi
  000ea	89 7e 10	 mov	 DWORD PTR [esi+16], edi
  000ed	e8 00 00 00 00	 call	 ?RegenGoldDercon@CEledoradoEvent@@QAEXXZ ; CEledoradoEvent::RegenGoldDercon
$LN3@Run:

; 103  : 		}
; 104  : 
; 105  : 		if ( ( Time - this->DevilLizardKingEventStartTime ) > gEledoradoDevilLizardKingRegenTime * 60000 )

  000f2	a1 00 00 00 00	 mov	 eax, DWORD PTR ?gEledoradoDevilLizardKingRegenTime@@3KA ; gEledoradoDevilLizardKingRegenTime
  000f7	69 c0 60 ea 00
	00		 imul	 eax, 60000		; 0000ea60H
  000fd	8b d7		 mov	 edx, edi
  000ff	2b 56 14	 sub	 edx, DWORD PTR [esi+20]
  00102	3b d0		 cmp	 edx, eax
  00104	76 0a		 jbe	 SHORT $LN2@Run

; 106  : 		{
; 107  : 			this->DevilLizardKingEventStartTime = Time;
; 108  : 			this->RegenDevilLizardKing();

  00106	8b ce		 mov	 ecx, esi
  00108	89 7e 14	 mov	 DWORD PTR [esi+20], edi
  0010b	e8 00 00 00 00	 call	 ?RegenDevilLizardKing@CEledoradoEvent@@QAEXXZ ; CEledoradoEvent::RegenDevilLizardKing
$LN2@Run:

; 109  : 		}
; 110  : 
; 111  : 		if ( ( Time - this->KanturEventStartTime ) > gEledoradoDevilTantarosRegenTime * 60000 )

  00110	8b 15 00 00 00
	00		 mov	 edx, DWORD PTR ?gEledoradoDevilTantarosRegenTime@@3KA ; gEledoradoDevilTantarosRegenTime
  00116	69 d2 60 ea 00
	00		 imul	 edx, 60000		; 0000ea60H
  0011c	8b cf		 mov	 ecx, edi
  0011e	2b 4e 18	 sub	 ecx, DWORD PTR [esi+24]
  00121	3b ca		 cmp	 ecx, edx
  00123	76 0a		 jbe	 SHORT $LN17@Run

; 112  : 		{
; 113  : 			this->KanturEventStartTime = Time;
; 114  : 			this->RegenKantur();

  00125	8b ce		 mov	 ecx, esi
  00127	89 7e 18	 mov	 DWORD PTR [esi+24], edi
  0012a	e8 00 00 00 00	 call	 ?RegenKantur@CEledoradoEvent@@QAEXXZ ; CEledoradoEvent::RegenKantur
$LN17@Run:
  0012f	5f		 pop	 edi
$LN1@Run:
  00130	5e		 pop	 esi

; 115  : 		}
; 116  : 	}
; 117  : }

  00131	8b e5		 mov	 esp, ebp
  00133	5d		 pop	 ebp
  00134	c3		 ret	 0
?Run@CEledoradoEvent@@QAEXXZ ENDP			; CEledoradoEvent::Run
_TEXT	ENDS
EXTRN	_atexit:PROC
; Function compile flags: /Ogtp
;	COMDAT ??__EgEledoradoEvent@@YAXXZ
text$yc	SEGMENT
??__EgEledoradoEvent@@YAXXZ PROC			; `dynamic initializer for 'gEledoradoEvent'', COMDAT

; 14   : CEledoradoEvent gEledoradoEvent;

  00000	b9 00 00 00 00	 mov	 ecx, OFFSET ?gEledoradoEvent@@3VCEledoradoEvent@@A ; gEledoradoEvent
  00005	e8 00 00 00 00	 call	 ??0CEledoradoEvent@@QAE@XZ ; CEledoradoEvent::CEledoradoEvent
  0000a	68 00 00 00 00	 push	 OFFSET ??__FgEledoradoEvent@@YAXXZ ; `dynamic atexit destructor for 'gEledoradoEvent''
  0000f	e8 00 00 00 00	 call	 _atexit
  00014	59		 pop	 ecx
  00015	c3		 ret	 0
??__EgEledoradoEvent@@YAXXZ ENDP			; `dynamic initializer for 'gEledoradoEvent''
; Function compile flags: /Ogtp
text$yc	ENDS
;	COMDAT ??__FgEledoradoEvent@@YAXXZ
text$yd	SEGMENT
??__FgEledoradoEvent@@YAXXZ PROC			; `dynamic atexit destructor for 'gEledoradoEvent'', COMDAT
  00000	b9 00 00 00 00	 mov	 ecx, OFFSET ?gEledoradoEvent@@3VCEledoradoEvent@@A ; gEledoradoEvent
  00005	e9 00 00 00 00	 jmp	 ??1CEledoradoEvent@@UAE@XZ ; CEledoradoEvent::~CEledoradoEvent
??__FgEledoradoEvent@@YAXXZ ENDP			; `dynamic atexit destructor for 'gEledoradoEvent''
text$yd	ENDS
PUBLIC	?gEledoradoEvent@@3VCEledoradoEvent@@A		; gEledoradoEvent
_BSS	SEGMENT
?gEledoradoEvent@@3VCEledoradoEvent@@A DB 050H DUP (?)	; gEledoradoEvent
_BSS	ENDS
CRT$XCU	SEGMENT
_gEledoradoEvent$initializer$ DD FLAT:??__EgEledoradoEvent@@YAXXZ
CRT$XCU	ENDS
END
