; Listing generated by Microsoft (R) Optimizing Compiler Version 16.00.30319.01 

	TITLE	C:\Users\faelhs\mu-1.1\eMu - GameServer Sapphire S0\GameServer\Event.cpp
	.686P
	.XMM
	include listing.inc
	.model	flat

INCLUDELIB LIBCMT
INCLUDELIB OLDNAMES

PUBLIC	?pEventObj@@3PAUOBJECTSTRUCT@@A			; pEventObj
PUBLIC	?g_sz2ANV_GIFT_NAME@@3PAY0EA@DA			; g_sz2ANV_GIFT_NAME
PUBLIC	?g_bRingEventItemTextLoad@@3HA			; g_bRingEventItemTextLoad
_BSS	SEGMENT
?pEventObj@@3PAUOBJECTSTRUCT@@A DD 01H DUP (?)		; pEventObj
?g_sz2ANV_GIFT_NAME@@3PAY0EA@DA DB 0c80H DUP (?)	; g_sz2ANV_GIFT_NAME
?g_bRingEventItemTextLoad@@3HA DD 01H DUP (?)		; g_bRingEventItemTextLoad
_BSS	ENDS
CONST	SEGMENT
_g_szRingEventOfflineGift DB '100', 0b5H, 0b7H, ' ', 0b9H, 0c2H, 0b9H, 0ddH
	DB	0c1H, 0f6H, 00H
	ORG $+19
	DB	'10', 0b5H, 0b7H, ' ', 0b9H, 0c2H, 0b9H, 0ddH, 0c1H, 0f6H
	DB	00H
	ORG $+20
	DB	'5', 0b5H, 0b7H, ' ', 0b9H, 0c2H, 0b9H, 0ddH, 0c1H, 0f6H, 00H
	ORG $+21
	DB	'2', 0b5H, 0b7H, ' ', 0b9H, 0c2H, 0b9H, 0ddH, 0c1H, 0f6H, 00H
	ORG $+21
CONST	ENDS
PUBLIC	??_C@_0CB@JKOKDAGE@Can?5not?5connect?5EventChip?5Server@ ; `string'
PUBLIC	?DataSendEventChip@@YAXPADH@Z			; DataSendEventChip
EXTRN	?DataSend@wsJoinServerCli@@QAEHPADH@Z:PROC	; wsJoinServerCli::DataSend
EXTRN	?LogAdd@@YAXW4eLogColor@@PADZZ:PROC		; LogAdd
EXTRN	?GMEventChipServerConnect@@YAHPADK@Z:PROC	; GMEventChipServerConnect
EXTRN	?gEventChipServerIp@@3PADA:BYTE			; gEventChipServerIp
EXTRN	?CreateSocket@MyWinsockBase@@QAEHPAUHWND__@@@Z:PROC ; MyWinsockBase::CreateSocket
EXTRN	?ghWnd@@3PAUHWND__@@A:DWORD			; ghWnd
EXTRN	?Close@MyWinsockBase@@QAEHXZ:PROC		; MyWinsockBase::Close
EXTRN	?wsEvenChipServerCli@@3VwsJoinServerCli@@A:BYTE	; wsEvenChipServerCli
EXTRN	?EventChipServerConnect@@3HA:DWORD		; EventChipServerConnect
EXTRN	?IsEventChipServerConnected@@3HA:DWORD		; IsEventChipServerConnected
;	COMDAT ??_C@_0CB@JKOKDAGE@Can?5not?5connect?5EventChip?5Server@
; File c:\users\faelhs\mu-1.1\emu - gameserver sapphire s0\gameserver\event.cpp
CONST	SEGMENT
??_C@_0CB@JKOKDAGE@Can?5not?5connect?5EventChip?5Server@ DB 'Can not conn'
	DB	'ect EventChip Server', 00H			; `string'
; Function compile flags: /Ogtp
CONST	ENDS
;	COMDAT ?DataSendEventChip@@YAXPADH@Z
_TEXT	SEGMENT
_pMsg$ = 8						; size = 4
_size$ = 12						; size = 4
?DataSendEventChip@@YAXPADH@Z PROC			; DataSendEventChip, COMDAT

; 67   : {

  00000	55		 push	 ebp
  00001	8b ec		 mov	 ebp, esp

; 68   : 	if ( IsEventChipServerConnected == FALSE && ::EventChipServerConnect != FALSE )

  00003	83 3d 00 00 00
	00 00		 cmp	 DWORD PTR ?IsEventChipServerConnected@@3HA, 0 ; IsEventChipServerConnected
  0000a	75 58		 jne	 SHORT $LN6@DataSendEv
  0000c	83 3d 00 00 00
	00 00		 cmp	 DWORD PTR ?EventChipServerConnect@@3HA, 0 ; EventChipServerConnect
  00013	74 6a		 je	 SHORT $LN1@DataSendEv

; 69   : 	{
; 70   : 		wsEvenChipServerCli.Close();

  00015	b9 04 00 00 00	 mov	 ecx, OFFSET ?wsEvenChipServerCli@@3VwsJoinServerCli@@A+4
  0001a	e8 00 00 00 00	 call	 ?Close@MyWinsockBase@@QAEHXZ ; MyWinsockBase::Close

; 71   : 		wsEvenChipServerCli.CreateSocket(ghWnd);

  0001f	a1 00 00 00 00	 mov	 eax, DWORD PTR ?ghWnd@@3PAUHWND__@@A ; ghWnd
  00024	50		 push	 eax
  00025	b9 04 00 00 00	 mov	 ecx, OFFSET ?wsEvenChipServerCli@@3VwsJoinServerCli@@A+4
  0002a	e8 00 00 00 00	 call	 ?CreateSocket@MyWinsockBase@@QAEHPAUHWND__@@@Z ; MyWinsockBase::CreateSocket

; 72   : 		if ( GMEventChipServerConnect(::gEventChipServerIp, WM_GM_EVENTCHIP_CLIENT_MSG_PROC) == FALSE )

  0002f	68 0d 04 00 00	 push	 1037			; 0000040dH
  00034	68 00 00 00 00	 push	 OFFSET ?gEventChipServerIp@@3PADA ; gEventChipServerIp
  00039	e8 00 00 00 00	 call	 ?GMEventChipServerConnect@@YAHPADK@Z ; GMEventChipServerConnect
  0003e	83 c4 08	 add	 esp, 8
  00041	85 c0		 test	 eax, eax
  00043	75 15		 jne	 SHORT $LN2@DataSendEv

; 73   : 		{
; 74   : 			IsEventChipServerConnected = FALSE;
; 75   : 			LogAdd(LOG_BLACK, "Can not connect EventChip Server");

  00045	68 00 00 00 00	 push	 OFFSET ??_C@_0CB@JKOKDAGE@Can?5not?5connect?5EventChip?5Server@
  0004a	50		 push	 eax
  0004b	a3 00 00 00 00	 mov	 DWORD PTR ?IsEventChipServerConnected@@3HA, eax ; IsEventChipServerConnected
  00050	e8 00 00 00 00	 call	 ?LogAdd@@YAXW4eLogColor@@PADZZ ; LogAdd
  00055	83 c4 08	 add	 esp, 8

; 87   : 	}
; 88   : }

  00058	5d		 pop	 ebp
  00059	c3		 ret	 0
$LN2@DataSendEv:

; 76   : 
; 77   : 			return;
; 78   : 		}
; 79   : 
; 80   : 		::IsEventChipServerConnected = TRUE;

  0005a	c7 05 00 00 00
	00 01 00 00 00	 mov	 DWORD PTR ?IsEventChipServerConnected@@3HA, 1 ; IsEventChipServerConnected
$LN6@DataSendEv:

; 81   : 
; 82   : 	}
; 83   : 
; 84   : 	if ( ::IsEventChipServerConnected != FALSE && ::EventChipServerConnect != FALSE )

  00064	83 3d 00 00 00
	00 00		 cmp	 DWORD PTR ?EventChipServerConnect@@3HA, 0 ; EventChipServerConnect
  0006b	74 12		 je	 SHORT $LN1@DataSendEv

; 85   : 	{
; 86   : 		::wsEvenChipServerCli.DataSend((char *)pMsg, size);

  0006d	8b 4d 0c	 mov	 ecx, DWORD PTR _size$[ebp]
  00070	8b 55 08	 mov	 edx, DWORD PTR _pMsg$[ebp]
  00073	51		 push	 ecx
  00074	52		 push	 edx
  00075	b9 00 00 00 00	 mov	 ecx, OFFSET ?wsEvenChipServerCli@@3VwsJoinServerCli@@A ; wsEvenChipServerCli
  0007a	e8 00 00 00 00	 call	 ?DataSend@wsJoinServerCli@@QAEHPADH@Z ; wsJoinServerCli::DataSend
$LN1@DataSendEv:

; 87   : 	}
; 88   : }

  0007f	5d		 pop	 ebp
  00080	c3		 ret	 0
?DataSendEventChip@@YAXPADH@Z ENDP			; DataSendEventChip
_TEXT	ENDS
PUBLIC	?StarOfXMasOpenEven@@YAXPAUOBJECTSTRUCT@@@Z	; StarOfXMasOpenEven
EXTRN	?DropItem@CItemBagEx@@QAEHH@Z:PROC		; CItemBagEx::DropItem
EXTRN	?StarOfXMasItemBag@@3PAVCItemBagEx@@A:DWORD	; StarOfXMasItemBag
; Function compile flags: /Ogtp
;	COMDAT ?StarOfXMasOpenEven@@YAXPAUOBJECTSTRUCT@@@Z
_TEXT	SEGMENT
_lpObj$ = 8						; size = 4
?StarOfXMasOpenEven@@YAXPAUOBJECTSTRUCT@@@Z PROC	; StarOfXMasOpenEven, COMDAT

; 771  : {

  00000	55		 push	 ebp
  00001	8b ec		 mov	 ebp, esp

; 772  : 	StarOfXMasItemBag->DropItem(lpObj->m_Index);

  00003	8b 45 08	 mov	 eax, DWORD PTR _lpObj$[ebp]
  00006	8b 08		 mov	 ecx, DWORD PTR [eax]
  00008	51		 push	 ecx
  00009	8b 0d 00 00 00
	00		 mov	 ecx, DWORD PTR ?StarOfXMasItemBag@@3PAVCItemBagEx@@A ; StarOfXMasItemBag
  0000f	e8 00 00 00 00	 call	 ?DropItem@CItemBagEx@@QAEHH@Z ; CItemBagEx::DropItem

; 773  : }

  00014	5d		 pop	 ebp
  00015	c3		 ret	 0
?StarOfXMasOpenEven@@YAXPAUOBJECTSTRUCT@@@Z ENDP	; StarOfXMasOpenEven
_TEXT	ENDS
PUBLIC	??_C@_0EF@GOCIBGLO@?$FLHidden?5TreasureBox?5Event?$FN?5?$FL?$CFs?$FN?$FL@ ; `string'
PUBLIC	??_C@_0IE@EJGNIEKI@?$FLHidden?5TreasureBox?5Event?$FN?5?$FL?$CFs?$FN?$FL@ ; `string'
PUBLIC	??_C@_0EC@IBKHHAK@?$FLHidden?5TreasureBox?5Event?$FN?5?$FL?$CFs?$FN?$FL@ ; `string'
PUBLIC	__$ArrayPad$
PUBLIC	?HiddenTreasureBoxItemBoxOpen@@YAXPAUOBJECTSTRUCT@@@Z ; HiddenTreasureBoxItemBoxOpen
EXTRN	?ItemAttribute@@3PAUITEM_ATTRIBUTE@@A:BYTE	; ItemAttribute
EXTRN	?ItemIsBufExOption@@YAXPAEPAVCItem@@@Z:PROC	; ItemIsBufExOption
EXTRN	?ItemSerialCreateSend@@YAXHEEEHEEEEEHEE@Z:PROC	; ItemSerialCreateSend
EXTRN	?NewOptionRand@@YAEH@Z:PROC			; NewOptionRand
EXTRN	_rand:PROC
EXTRN	?GetMinLevel@CItemBagEx@@QAEEH@Z:PROC		; CItemBagEx::GetMinLevel
EXTRN	?MoneyItemDrop@MapClass@@QAEHHHH@Z:PROC		; MapClass::MoneyItemDrop
EXTRN	?MapC@@3PAVMapClass@@A:BYTE			; MapC
EXTRN	?PickItem@CItemBagEx@@QAEHAAVCItem@@AAH@Z:PROC	; CItemBagEx::PickItem
EXTRN	?HiddenTreasureBoxItemBag@@3PAVCItemBagEx@@A:DWORD ; HiddenTreasureBoxItemBag
EXTRN	??0CItem@@QAE@XZ:PROC				; CItem::CItem
EXTRN	___security_cookie:DWORD
EXTRN	@__security_check_cookie@4:PROC
;	COMDAT ??_C@_0EF@GOCIBGLO@?$FLHidden?5TreasureBox?5Event?$FN?5?$FL?$CFs?$FN?$FL@
CONST	SEGMENT
??_C@_0EF@GOCIBGLO@?$FLHidden?5TreasureBox?5Event?$FN?5?$FL?$CFs?$FN?$FL@ DB '['
	DB	'Hidden TreasureBox Event] [%s][%s] Event ZenDrop : %d : (%d)('
	DB	'%d/%d)', 00H				; `string'
CONST	ENDS
;	COMDAT ??_C@_0IE@EJGNIEKI@?$FLHidden?5TreasureBox?5Event?$FN?5?$FL?$CFs?$FN?$FL@
CONST	SEGMENT
??_C@_0IE@EJGNIEKI@?$FLHidden?5TreasureBox?5Event?$FN?5?$FL?$CFs?$FN?$FL@ DB '['
	DB	'Hidden TreasureBox Event] [%s][%s] Event ItemDrop : (%d)(%d/%'
	DB	'd) Item:(%s)%d Level:%d op1:%d op2:%d op3:%d exop:[%d,%d,%d,%'
	DB	'd,%d,%d]', 00H				; `string'
CONST	ENDS
;	COMDAT ??_C@_0EC@IBKHHAK@?$FLHidden?5TreasureBox?5Event?$FN?5?$FL?$CFs?$FN?$FL@
CONST	SEGMENT
??_C@_0EC@IBKHHAK@?$FLHidden?5TreasureBox?5Event?$FN?5?$FL?$CFs?$FN?$FL@ DB '['
	DB	'Hidden TreasureBox Event] [%s][%s] Item Pick Failed - Data Er'
	DB	'ror', 00H					; `string'
; Function compile flags: /Ogtp
CONST	ENDS
;	COMDAT ?HiddenTreasureBoxItemBoxOpen@@YAXPAUOBJECTSTRUCT@@@Z
_TEXT	SEGMENT
_nItemIndex$ = -192					; size = 4
tv262 = -188						; size = 4
tv260 = -188						; size = 4
tv288 = -182						; size = 2
_objTempItem$ = -180					; size = 168
_NewOption$155618 = -12					; size = 8
__$ArrayPad$ = -4					; size = 4
_lpObj$ = 8						; size = 4
?HiddenTreasureBoxItemBoxOpen@@YAXPAUOBJECTSTRUCT@@@Z PROC ; HiddenTreasureBoxItemBoxOpen, COMDAT

; 1028 : {

  00000	55		 push	 ebp
  00001	8b ec		 mov	 ebp, esp
  00003	81 ec c0 00 00
	00		 sub	 esp, 192		; 000000c0H
  00009	a1 00 00 00 00	 mov	 eax, DWORD PTR ___security_cookie
  0000e	33 c5		 xor	 eax, ebp
  00010	89 45 fc	 mov	 DWORD PTR __$ArrayPad$[ebp], eax
  00013	56		 push	 esi
  00014	8b 75 08	 mov	 esi, DWORD PTR _lpObj$[ebp]

; 1029 : 	CItem objTempItem;

  00017	8d 8d 4c ff ff
	ff		 lea	 ecx, DWORD PTR _objTempItem$[ebp]
  0001d	e8 00 00 00 00	 call	 ??0CItem@@QAE@XZ	; CItem::CItem

; 1030 : 	int nItemIndex;
; 1031 : 
; 1032 : 	if ( HiddenTreasureBoxItemBag->PickItem(objTempItem, nItemIndex) == FALSE )

  00022	8d 85 40 ff ff
	ff		 lea	 eax, DWORD PTR _nItemIndex$[ebp]
  00028	50		 push	 eax
  00029	8d 8d 4c ff ff
	ff		 lea	 ecx, DWORD PTR _objTempItem$[ebp]
  0002f	51		 push	 ecx
  00030	8b 0d 00 00 00
	00		 mov	 ecx, DWORD PTR ?HiddenTreasureBoxItemBag@@3PAVCItemBagEx@@A ; HiddenTreasureBoxItemBag
  00036	e8 00 00 00 00	 call	 ?PickItem@CItemBagEx@@QAEHAAVCItem@@AAH@Z ; CItemBagEx::PickItem
  0003b	85 c0		 test	 eax, eax
  0003d	75 53		 jne	 SHORT $LN9@HiddenTrea

; 1033 : 	{
; 1034 : 		LogAdd(LOG_BLACK, "[Hidden TreasureBox Event] [%s][%s] Item Pick Failed - Data Error",
; 1035 : 			lpObj->AccountID, lpObj->Name);

  0003f	8d 56 6f	 lea	 edx, DWORD PTR [esi+111]
  00042	52		 push	 edx
  00043	8d 46 64	 lea	 eax, DWORD PTR [esi+100]
  00046	50		 push	 eax
  00047	68 00 00 00 00	 push	 OFFSET ??_C@_0EC@IBKHHAK@?$FLHidden?5TreasureBox?5Event?$FN?5?$FL?$CFs?$FN?$FL@
  0004c	6a 00		 push	 0
  0004e	e8 00 00 00 00	 call	 ?LogAdd@@YAXW4eLogColor@@PADZZ ; LogAdd

; 1036 : 
; 1037 : 		MapC[lpObj->MapNumber].MoneyItemDrop(200000, lpObj->X, lpObj->Y);

  00053	0f bf 8e 06 01
	00 00		 movsx	 ecx, WORD PTR [esi+262]
  0005a	0f bf 96 04 01
	00 00		 movsx	 edx, WORD PTR [esi+260]
  00061	83 c4 10	 add	 esp, 16			; 00000010H
  00064	51		 push	 ecx
  00065	0f b6 8e 09 01
	00 00		 movzx	 ecx, BYTE PTR [esi+265]
  0006c	69 c9 08 07 05
	00		 imul	 ecx, 329480		; 00050708H
  00072	52		 push	 edx
  00073	68 40 0d 03 00	 push	 200000			; 00030d40H
  00078	81 c1 00 00 00
	00		 add	 ecx, OFFSET ?MapC@@3PAVMapClass@@A ; MapC
  0007e	e8 00 00 00 00	 call	 ?MoneyItemDrop@MapClass@@QAEHHHH@Z ; MapClass::MoneyItemDrop
  00083	5e		 pop	 esi

; 1086 : 	}
; 1087 : }

  00084	8b 4d fc	 mov	 ecx, DWORD PTR __$ArrayPad$[ebp]
  00087	33 cd		 xor	 ecx, ebp
  00089	e8 00 00 00 00	 call	 @__security_check_cookie@4
  0008e	8b e5		 mov	 esp, ebp
  00090	5d		 pop	 ebp
  00091	c3		 ret	 0
$LN9@HiddenTrea:

; 1038 : 		return;
; 1039 : 	}
; 1040 : 
; 1041 : 	int iItemSuccessRate = HiddenTreasureBoxItemBag->GetMinLevel(nItemIndex);

  00092	8b 85 40 ff ff
	ff		 mov	 eax, DWORD PTR _nItemIndex$[ebp]
  00098	8b 0d 00 00 00
	00		 mov	 ecx, DWORD PTR ?HiddenTreasureBoxItemBag@@3PAVCItemBagEx@@A ; HiddenTreasureBoxItemBag
  0009e	57		 push	 edi
  0009f	50		 push	 eax
  000a0	e8 00 00 00 00	 call	 ?GetMinLevel@CItemBagEx@@QAEEH@Z ; CItemBagEx::GetMinLevel
  000a5	0f b6 f8	 movzx	 edi, al

; 1042 : 
; 1043 : 	if ( (rand()%100) < iItemSuccessRate )

  000a8	e8 00 00 00 00	 call	 _rand
  000ad	99		 cdq
  000ae	b9 64 00 00 00	 mov	 ecx, 100		; 00000064H
  000b3	f7 f9		 idiv	 ecx
  000b5	3b d7		 cmp	 edx, edi
  000b7	5f		 pop	 edi
  000b8	0f 8d 9c 01 00
	00		 jge	 $LN8@HiddenTrea

; 1044 : 	{
; 1045 : 		objTempItem.m_Level = 0;

  000be	33 d2		 xor	 edx, edx
  000c0	66 89 95 54 ff
	ff ff		 mov	 WORD PTR _objTempItem$[ebp+8], dx

; 1046 : 
; 1047 : 		if ( objTempItem.m_Option1 )

  000c7	38 55 c4	 cmp	 BYTE PTR _objTempItem$[ebp+120], dl
  000ca	74 14		 je	 SHORT $LN7@HiddenTrea

; 1048 : 			objTempItem.m_Option1 = rand()%2;

  000cc	e8 00 00 00 00	 call	 _rand
  000d1	25 01 00 00 80	 and	 eax, -2147483647	; 80000001H
  000d6	79 05		 jns	 SHORT $LN12@HiddenTrea
  000d8	48		 dec	 eax
  000d9	83 c8 fe	 or	 eax, -2			; fffffffeH
  000dc	40		 inc	 eax
$LN12@HiddenTrea:
  000dd	88 45 c4	 mov	 BYTE PTR _objTempItem$[ebp+120], al
$LN7@HiddenTrea:

; 1049 : 
; 1050 : 		if ( objTempItem.m_Option2 )

  000e0	80 7d c5 00	 cmp	 BYTE PTR _objTempItem$[ebp+121], 0
  000e4	74 14		 je	 SHORT $LN6@HiddenTrea

; 1051 : 			objTempItem.m_Option2 = rand()%2;

  000e6	e8 00 00 00 00	 call	 _rand
  000eb	25 01 00 00 80	 and	 eax, -2147483647	; 80000001H
  000f0	79 05		 jns	 SHORT $LN13@HiddenTrea
  000f2	48		 dec	 eax
  000f3	83 c8 fe	 or	 eax, -2			; fffffffeH
  000f6	40		 inc	 eax
$LN13@HiddenTrea:
  000f7	88 45 c5	 mov	 BYTE PTR _objTempItem$[ebp+121], al
$LN6@HiddenTrea:

; 1052 : 
; 1053 : 		if ( objTempItem.m_Option3 )

  000fa	80 7d c6 00	 cmp	 BYTE PTR _objTempItem$[ebp+122], 0
  000fe	74 28		 je	 SHORT $LN3@HiddenTrea

; 1054 : 			if ( (rand()%5) <1 )

  00100	e8 00 00 00 00	 call	 _rand
  00105	99		 cdq
  00106	b9 05 00 00 00	 mov	 ecx, 5
  0010b	f7 f9		 idiv	 ecx
  0010d	83 fa 01	 cmp	 edx, 1
  00110	7d 06		 jge	 SHORT $LN4@HiddenTrea

; 1055 : 				objTempItem.m_Option3 = 3;

  00112	c6 45 c6 03	 mov	 BYTE PTR _objTempItem$[ebp+122], 3

; 1056 : 			else

  00116	eb 10		 jmp	 SHORT $LN3@HiddenTrea
$LN4@HiddenTrea:

; 1057 : 				objTempItem.m_Option3 = rand()%3;

  00118	e8 00 00 00 00	 call	 _rand
  0011d	99		 cdq
  0011e	b9 03 00 00 00	 mov	 ecx, 3
  00123	f7 f9		 idiv	 ecx
  00125	88 55 c6	 mov	 BYTE PTR _objTempItem$[ebp+122], dl
$LN3@HiddenTrea:

; 1058 : 
; 1059 : 		if ( objTempItem.m_NewOption )

  00128	80 7d c7 00	 cmp	 BYTE PTR _objTempItem$[ebp+123], 0
  0012c	74 19		 je	 SHORT $LN2@HiddenTrea

; 1060 : 		{
; 1061 : 			objTempItem.m_NewOption = NewOptionRand(objTempItem.m_Level);

  0012e	0f bf 95 54 ff
	ff ff		 movsx	 edx, WORD PTR _objTempItem$[ebp+8]
  00135	52		 push	 edx
  00136	e8 00 00 00 00	 call	 ?NewOptionRand@@YAEH@Z	; NewOptionRand
  0013b	83 c4 04	 add	 esp, 4
  0013e	88 45 c7	 mov	 BYTE PTR _objTempItem$[ebp+123], al

; 1062 : 			objTempItem.m_Option1 = 1;

  00141	66 c7 45 c4 01
	00		 mov	 WORD PTR _objTempItem$[ebp+120], 1
$LN2@HiddenTrea:

; 1063 : 			objTempItem.m_Option2 = 0;
; 1064 : 		}
; 1065 : 
; 1066 : 
; 1067 : 		ItemSerialCreateSend(lpObj->m_Index, lpObj->MapNumber, lpObj->X, lpObj->Y, objTempItem.m_Type, objTempItem.m_Level, objTempItem.m_Durability,
; 1068 : 			objTempItem.m_Option1, objTempItem.m_Option2, objTempItem.m_Option3, lpObj->m_Index, objTempItem.m_NewOption, 0);

  00147	8b 45 c7	 mov	 eax, DWORD PTR _objTempItem$[ebp+123]
  0014a	d9 85 70 ff ff
	ff		 fld	 DWORD PTR _objTempItem$[ebp+36]
  00150	8b 0e		 mov	 ecx, DWORD PTR [esi]
  00152	d9 bd 4a ff ff
	ff		 fnstcw	 WORD PTR tv288[ebp]
  00158	8b 55 c6	 mov	 edx, DWORD PTR _objTempItem$[ebp+122]
  0015b	6a 00		 push	 0
  0015d	50		 push	 eax
  0015e	8b 45 c5	 mov	 eax, DWORD PTR _objTempItem$[ebp+121]
  00161	51		 push	 ecx
  00162	52		 push	 edx
  00163	8b 55 c4	 mov	 edx, DWORD PTR _objTempItem$[ebp+120]
  00166	50		 push	 eax
  00167	0f b7 85 4a ff
	ff ff		 movzx	 eax, WORD PTR tv288[ebp]
  0016e	0d 00 0c 00 00	 or	 eax, 3072		; 00000c00H
  00173	89 85 44 ff ff
	ff		 mov	 DWORD PTR tv262[ebp], eax
  00179	52		 push	 edx
  0017a	d9 ad 44 ff ff
	ff		 fldcw	 WORD PTR tv262[ebp]
  00180	db 9d 44 ff ff
	ff		 fistp	 DWORD PTR tv260[ebp]
  00186	8a 85 44 ff ff
	ff		 mov	 al, BYTE PTR tv260[ebp]
  0018c	0f b6 d0	 movzx	 edx, al
  0018f	8b 85 54 ff ff
	ff		 mov	 eax, DWORD PTR _objTempItem$[ebp+8]
  00195	d9 ad 4a ff ff
	ff		 fldcw	 WORD PTR tv288[ebp]
  0019b	52		 push	 edx
  0019c	0f bf 95 52 ff
	ff ff		 movsx	 edx, WORD PTR _objTempItem$[ebp+6]
  001a3	50		 push	 eax
  001a4	0f b6 86 06 01
	00 00		 movzx	 eax, BYTE PTR [esi+262]
  001ab	52		 push	 edx
  001ac	0f b6 96 04 01
	00 00		 movzx	 edx, BYTE PTR [esi+260]
  001b3	50		 push	 eax
  001b4	0f b6 86 09 01
	00 00		 movzx	 eax, BYTE PTR [esi+265]
  001bb	52		 push	 edx
  001bc	50		 push	 eax
  001bd	51		 push	 ecx
  001be	e8 00 00 00 00	 call	 ?ItemSerialCreateSend@@YAXHEEEHEEEEEHEE@Z ; ItemSerialCreateSend

; 1069 : 
; 1070 : 		BYTE NewOption[MAX_EXOPTION_SIZE];
; 1071 : 		ItemIsBufExOption(NewOption, &objTempItem);

  001c3	8d 8d 4c ff ff
	ff		 lea	 ecx, DWORD PTR _objTempItem$[ebp]
  001c9	51		 push	 ecx
  001ca	8d 55 f4	 lea	 edx, DWORD PTR _NewOption$155618[ebp]
  001cd	52		 push	 edx
  001ce	e8 00 00 00 00	 call	 ?ItemIsBufExOption@@YAXPAEPAVCItem@@@Z ; ItemIsBufExOption

; 1072 : 
; 1073 : 		LogAdd(LOG_BLACK, "[Hidden TreasureBox Event] [%s][%s] Event ItemDrop : (%d)(%d/%d) Item:(%s)%d Level:%d op1:%d op2:%d op3:%d exop:[%d,%d,%d,%d,%d,%d]",
; 1074 : 			lpObj->AccountID, lpObj->Name, lpObj->MapNumber, lpObj->X, lpObj->Y,
; 1075 : 			ItemAttribute[objTempItem.m_Type].Name, objTempItem.m_Type,
; 1076 : 			objTempItem.m_Level, objTempItem.m_Option1, objTempItem.m_Option2,
; 1077 : 			objTempItem.m_Option3, NewOption[0], NewOption[1], NewOption[2], NewOption[3], NewOption[4], NewOption[5]);

  001d3	0f b6 4d f9	 movzx	 ecx, BYTE PTR _NewOption$155618[ebp+5]
  001d7	0f b6 55 f8	 movzx	 edx, BYTE PTR _NewOption$155618[ebp+4]
  001db	51		 push	 ecx
  001dc	0f b6 4d f7	 movzx	 ecx, BYTE PTR _NewOption$155618[ebp+3]
  001e0	52		 push	 edx
  001e1	0f b6 55 f6	 movzx	 edx, BYTE PTR _NewOption$155618[ebp+2]
  001e5	51		 push	 ecx
  001e6	0f b6 4d f5	 movzx	 ecx, BYTE PTR _NewOption$155618[ebp+1]
  001ea	0f bf 85 52 ff
	ff ff		 movsx	 eax, WORD PTR _objTempItem$[ebp+6]
  001f1	52		 push	 edx
  001f2	0f b6 55 f4	 movzx	 edx, BYTE PTR _NewOption$155618[ebp]
  001f6	51		 push	 ecx
  001f7	0f b6 4d c6	 movzx	 ecx, BYTE PTR _objTempItem$[ebp+122]
  001fb	52		 push	 edx
  001fc	0f b6 55 c5	 movzx	 edx, BYTE PTR _objTempItem$[ebp+121]
  00200	51		 push	 ecx
  00201	0f b6 4d c4	 movzx	 ecx, BYTE PTR _objTempItem$[ebp+120]
  00205	52		 push	 edx
  00206	0f bf 95 54 ff
	ff ff		 movsx	 edx, WORD PTR _objTempItem$[ebp+8]
  0020d	51		 push	 ecx
  0020e	0f bf 8e 04 01
	00 00		 movsx	 ecx, WORD PTR [esi+260]
  00215	52		 push	 edx
  00216	0f b6 96 09 01
	00 00		 movzx	 edx, BYTE PTR [esi+265]
  0021d	50		 push	 eax
  0021e	6b c0 6c	 imul	 eax, 108		; 0000006cH
  00221	05 00 00 00 00	 add	 eax, OFFSET ?ItemAttribute@@3PAUITEM_ATTRIBUTE@@A ; ItemAttribute
  00226	50		 push	 eax
  00227	0f bf 86 06 01
	00 00		 movsx	 eax, WORD PTR [esi+262]
  0022e	50		 push	 eax
  0022f	51		 push	 ecx
  00230	52		 push	 edx
  00231	8d 46 6f	 lea	 eax, DWORD PTR [esi+111]
  00234	50		 push	 eax
  00235	83 c6 64	 add	 esi, 100		; 00000064H
  00238	56		 push	 esi
  00239	68 00 00 00 00	 push	 OFFSET ??_C@_0IE@EJGNIEKI@?$FLHidden?5TreasureBox?5Event?$FN?5?$FL?$CFs?$FN?$FL@
  0023e	6a 00		 push	 0
  00240	e8 00 00 00 00	 call	 ?LogAdd@@YAXW4eLogColor@@PADZZ ; LogAdd
  00245	81 c4 88 00 00
	00		 add	 esp, 136		; 00000088H
  0024b	5e		 pop	 esi

; 1086 : 	}
; 1087 : }

  0024c	8b 4d fc	 mov	 ecx, DWORD PTR __$ArrayPad$[ebp]
  0024f	33 cd		 xor	 ecx, ebp
  00251	e8 00 00 00 00	 call	 @__security_check_cookie@4
  00256	8b e5		 mov	 esp, ebp
  00258	5d		 pop	 ebp
  00259	c3		 ret	 0
$LN8@HiddenTrea:

; 1078 : 	}
; 1079 : 	else
; 1080 : 	{
; 1081 : 		int money = 200000;
; 1082 : 		MapC[lpObj->MapNumber].MoneyItemDrop(money, lpObj->X, lpObj->Y);

  0025a	0f bf 8e 06 01
	00 00		 movsx	 ecx, WORD PTR [esi+262]
  00261	0f bf 96 04 01
	00 00		 movsx	 edx, WORD PTR [esi+260]
  00268	51		 push	 ecx
  00269	0f b6 8e 09 01
	00 00		 movzx	 ecx, BYTE PTR [esi+265]
  00270	69 c9 08 07 05
	00		 imul	 ecx, 329480		; 00050708H
  00276	52		 push	 edx
  00277	68 40 0d 03 00	 push	 200000			; 00030d40H
  0027c	81 c1 00 00 00
	00		 add	 ecx, OFFSET ?MapC@@3PAVMapClass@@A ; MapC
  00282	e8 00 00 00 00	 call	 ?MoneyItemDrop@MapClass@@QAEHHHH@Z ; MapClass::MoneyItemDrop

; 1083 : 
; 1084 : 		LogAdd(LOG_BLACK, "[Hidden TreasureBox Event] [%s][%s] Event ZenDrop : %d : (%d)(%d/%d)",
; 1085 : 			lpObj->AccountID, lpObj->Name, money, lpObj->MapNumber, lpObj->X, lpObj->Y);

  00287	0f bf 86 06 01
	00 00		 movsx	 eax, WORD PTR [esi+262]
  0028e	0f bf 8e 04 01
	00 00		 movsx	 ecx, WORD PTR [esi+260]
  00295	0f b6 96 09 01
	00 00		 movzx	 edx, BYTE PTR [esi+265]
  0029c	50		 push	 eax
  0029d	51		 push	 ecx
  0029e	52		 push	 edx
  0029f	68 40 0d 03 00	 push	 200000			; 00030d40H
  002a4	8d 46 6f	 lea	 eax, DWORD PTR [esi+111]
  002a7	50		 push	 eax
  002a8	83 c6 64	 add	 esi, 100		; 00000064H
  002ab	56		 push	 esi
  002ac	68 00 00 00 00	 push	 OFFSET ??_C@_0EF@GOCIBGLO@?$FLHidden?5TreasureBox?5Event?$FN?5?$FL?$CFs?$FN?$FL@
  002b1	6a 00		 push	 0
  002b3	e8 00 00 00 00	 call	 ?LogAdd@@YAXW4eLogColor@@PADZZ ; LogAdd

; 1086 : 	}
; 1087 : }

  002b8	8b 4d fc	 mov	 ecx, DWORD PTR __$ArrayPad$[ebp]
  002bb	83 c4 20	 add	 esp, 32			; 00000020H
  002be	33 cd		 xor	 ecx, ebp
  002c0	5e		 pop	 esi
  002c1	e8 00 00 00 00	 call	 @__security_check_cookie@4
  002c6	8b e5		 mov	 esp, ebp
  002c8	5d		 pop	 ebp
  002c9	c3		 ret	 0
?HiddenTreasureBoxItemBoxOpen@@YAXPAUOBJECTSTRUCT@@@Z ENDP ; HiddenTreasureBoxItemBoxOpen
_TEXT	ENDS
PUBLIC	?KundunEventItemBoxOpen@@YAXPAUOBJECTSTRUCT@@EEE@Z ; KundunEventItemBoxOpen
EXTRN	?DropKundunEventItem@CItemBagEx@@QAEHHEEE@Z:PROC ; CItemBagEx::DropKundunEventItem
EXTRN	?KundunEventItemBag@@3PAVCItemBagEx@@A:DWORD	; KundunEventItemBag
; Function compile flags: /Ogtp
;	COMDAT ?KundunEventItemBoxOpen@@YAXPAUOBJECTSTRUCT@@EEE@Z
_TEXT	SEGMENT
_lpObj$ = 8						; size = 4
_btMapNumber$ = 12					; size = 1
_cX$ = 16						; size = 1
_cY$ = 20						; size = 1
?KundunEventItemBoxOpen@@YAXPAUOBJECTSTRUCT@@EEE@Z PROC	; KundunEventItemBoxOpen, COMDAT

; 1090 : {

  00000	55		 push	 ebp
  00001	8b ec		 mov	 ebp, esp

; 1091 : 	KundunEventItemBag->DropKundunEventItem(lpObj->m_Index, btMapNumber, cX, cY);

  00003	8b 45 14	 mov	 eax, DWORD PTR _cY$[ebp]
  00006	8b 4d 10	 mov	 ecx, DWORD PTR _cX$[ebp]
  00009	8b 55 0c	 mov	 edx, DWORD PTR _btMapNumber$[ebp]
  0000c	50		 push	 eax
  0000d	8b 45 08	 mov	 eax, DWORD PTR _lpObj$[ebp]
  00010	51		 push	 ecx
  00011	8b 08		 mov	 ecx, DWORD PTR [eax]
  00013	52		 push	 edx
  00014	51		 push	 ecx
  00015	8b 0d 00 00 00
	00		 mov	 ecx, DWORD PTR ?KundunEventItemBag@@3PAVCItemBagEx@@A ; KundunEventItemBag
  0001b	e8 00 00 00 00	 call	 ?DropKundunEventItem@CItemBagEx@@QAEHHEEE@Z ; CItemBagEx::DropKundunEventItem

; 1092 : }

  00020	5d		 pop	 ebp
  00021	c3		 ret	 0
?KundunEventItemBoxOpen@@YAXPAUOBJECTSTRUCT@@EEE@Z ENDP	; KundunEventItemBoxOpen
_TEXT	ENDS
EXTRN	__time64:PROC
; Function compile flags: /Ogtp
; File c:\program files (x86)\microsoft visual studio 10.0\vc\include\time.inl
;	COMDAT _time
_TEXT	SEGMENT
_time	PROC						; COMDAT
; __Time$ = eax

; 133  :     return _time64(_Time);

  00000	50		 push	 eax
  00001	e8 00 00 00 00	 call	 __time64
  00006	83 c4 04	 add	 esp, 4

; 134  : }

  00009	c3		 ret	 0
_time	ENDP
_TEXT	ENDS
PUBLIC	__$ArrayPad$
PUBLIC	?EGRecvEventChipInfo@@YAXPAUPMSG_ANS_VIEW_EC_MN@@@Z ; EGRecvEventChipInfo
EXTRN	?DataSend@@YAHHPAEK@Z:PROC			; DataSend
EXTRN	?PHeadSetB@@YAXPAEEH@Z:PROC			; PHeadSetB
EXTRN	?gObj@@3PAUOBJECTSTRUCT@@A:BYTE			; gObj
; Function compile flags: /Ogtp
; File c:\users\faelhs\mu-1.1\emu - gameserver sapphire s0\gameserver\event.cpp
;	COMDAT ?EGRecvEventChipInfo@@YAXPAUPMSG_ANS_VIEW_EC_MN@@@Z
_TEXT	SEGMENT
_eventchipeventinfo$ = -16				; size = 12
__$ArrayPad$ = -4					; size = 4
_aRecv$ = 8						; size = 4
?EGRecvEventChipInfo@@YAXPAUPMSG_ANS_VIEW_EC_MN@@@Z PROC ; EGRecvEventChipInfo, COMDAT

; 1358 : {

  00000	55		 push	 ebp
  00001	8b ec		 mov	 ebp, esp
  00003	83 ec 10	 sub	 esp, 16			; 00000010H
  00006	a1 00 00 00 00	 mov	 eax, DWORD PTR ___security_cookie
  0000b	33 c5		 xor	 eax, ebp
  0000d	89 45 fc	 mov	 DWORD PTR __$ArrayPad$[ebp], eax
  00010	56		 push	 esi
  00011	57		 push	 edi
  00012	8b 7d 08	 mov	 edi, DWORD PTR _aRecv$[ebp]

; 1359 : 	LPOBJ lpObj = &gObj[aRecv->iINDEX];

  00015	8b 77 04	 mov	 esi, DWORD PTR [edi+4]
  00018	69 f6 64 15 00
	00		 imul	 esi, 5476		; 00001564H

; 1360 : 
; 1361 : 	PMSG_EVENTCHIPINFO eventchipeventinfo;
; 1362 : 	char msg[255];
; 1363 : 
; 1364 : 	PHeadSetB((LPBYTE)&eventchipeventinfo, 0x94, sizeof(eventchipeventinfo));

  0001e	6a 0c		 push	 12			; 0000000cH
  00020	8d 45 f0	 lea	 eax, DWORD PTR _eventchipeventinfo$[ebp]
  00023	68 94 00 00 00	 push	 148			; 00000094H
  00028	50		 push	 eax
  00029	81 c6 00 00 00
	00		 add	 esi, OFFSET ?gObj@@3PAUOBJECTSTRUCT@@A ; gObj
  0002f	e8 00 00 00 00	 call	 ?PHeadSetB@@YAXPAEEH@Z	; PHeadSetB

; 1365 : 	eventchipeventinfo.Type = 0;
; 1366 : 	eventchipeventinfo.ChipCount = aRecv->nEVENT_CHIPS;

  00034	0f b7 47 14	 movzx	 eax, WORD PTR [edi+20]

; 1367 : 	lpObj->EventChipCount = aRecv->nEVENT_CHIPS;
; 1368 : 	lpObj->MutoNumber = aRecv->iMUTO_NUM;
; 1369 : 
; 1370 : 	DataSend(lpObj->m_Index, (LPBYTE)&eventchipeventinfo, eventchipeventinfo.h.size);

  00038	0f b6 55 f1	 movzx	 edx, BYTE PTR _eventchipeventinfo$[ebp+1]
  0003c	66 89 86 ac 0e
	00 00		 mov	 WORD PTR [esi+3756], ax
  00043	8b 4f 18	 mov	 ecx, DWORD PTR [edi+24]
  00046	66 89 45 f4	 mov	 WORD PTR _eventchipeventinfo$[ebp+4], ax
  0004a	52		 push	 edx
  0004b	8d 45 f0	 lea	 eax, DWORD PTR _eventchipeventinfo$[ebp]
  0004e	89 8e b0 0e 00
	00		 mov	 DWORD PTR [esi+3760], ecx
  00054	8b 0e		 mov	 ecx, DWORD PTR [esi]
  00056	50		 push	 eax
  00057	51		 push	 ecx
  00058	c6 45 f3 00	 mov	 BYTE PTR _eventchipeventinfo$[ebp+3], 0
  0005c	e8 00 00 00 00	 call	 ?DataSend@@YAHHPAEK@Z	; DataSend

; 1371 : 
; 1372 : 	lpObj->UseEventServer = FALSE;
; 1373 : }

  00061	8b 4d fc	 mov	 ecx, DWORD PTR __$ArrayPad$[ebp]
  00064	83 c4 18	 add	 esp, 24			; 00000018H
  00067	5f		 pop	 edi
  00068	c7 86 b4 0e 00
	00 00 00 00 00	 mov	 DWORD PTR [esi+3764], 0
  00072	33 cd		 xor	 ecx, ebp
  00074	5e		 pop	 esi
  00075	e8 00 00 00 00	 call	 @__security_check_cookie@4
  0007a	8b e5		 mov	 esp, ebp
  0007c	5d		 pop	 ebp
  0007d	c3		 ret	 0
?EGRecvEventChipInfo@@YAXPAUPMSG_ANS_VIEW_EC_MN@@@Z ENDP ; EGRecvEventChipInfo
_TEXT	ENDS
PUBLIC	??_C@_0CL@GENGFGNN@?$FLEventChip?$FN?5?$FL?$CFs?$FN?$FL?$CFs?$FN?5Delete?5Even@ ; `string'
PUBLIC	??_C@_0DL@NPJNKEPH@?$FLEventChip?$FN?5?$FL?$CFs?$FN?$FL?$CFs?$FN?5RegEventSer@ ; `string'
PUBLIC	?EGResultRegEventChip@@YAXPAUPMSG_ANS_REGISTER_EVENTCHIP@@@Z ; EGResultRegEventChip
EXTRN	?GCInventoryItemDeleteSend@@YAXHEE@Z:PROC	; GCInventoryItemDeleteSend
EXTRN	?gObjInventoryDeleteItem@@YAEHH@Z:PROC		; gObjInventoryDeleteItem
;	COMDAT ??_C@_0CL@GENGFGNN@?$FLEventChip?$FN?5?$FL?$CFs?$FN?$FL?$CFs?$FN?5Delete?5Even@
CONST	SEGMENT
??_C@_0CL@GENGFGNN@?$FLEventChip?$FN?5?$FL?$CFs?$FN?$FL?$CFs?$FN?5Delete?5Even@ DB '['
	DB	'EventChip] [%s][%s] Delete EventChip (%d)', 00H ; `string'
CONST	ENDS
;	COMDAT ??_C@_0DL@NPJNKEPH@?$FLEventChip?$FN?5?$FL?$CFs?$FN?$FL?$CFs?$FN?5RegEventSer@
CONST	SEGMENT
??_C@_0DL@NPJNKEPH@?$FLEventChip?$FN?5?$FL?$CFs?$FN?$FL?$CFs?$FN?5RegEventSer@ DB '['
	DB	'EventChip] [%s][%s] RegEventServer Fail (RegEventchip) %d', 00H ; `string'
; Function compile flags: /Ogtp
CONST	ENDS
;	COMDAT ?EGResultRegEventChip@@YAXPAUPMSG_ANS_REGISTER_EVENTCHIP@@@Z
_TEXT	SEGMENT
_Result$ = -8						; size = 6
_aRecv$ = 8						; size = 4
?EGResultRegEventChip@@YAXPAUPMSG_ANS_REGISTER_EVENTCHIP@@@Z PROC ; EGResultRegEventChip, COMDAT

; 1377 : {

  00000	55		 push	 ebp
  00001	8b ec		 mov	 ebp, esp
  00003	83 ec 08	 sub	 esp, 8
  00006	53		 push	 ebx
  00007	56		 push	 esi
  00008	57		 push	 edi

; 1378 : 	PMSG_REGEVENTCHIP_RESULT Result;
; 1379 : 	LPOBJ lpObj;
; 1380 : 	int aIndex;
; 1381 : 
; 1382 : 	PHeadSetB((LPBYTE)&Result, 0x95, sizeof(Result));

  00009	6a 06		 push	 6
  0000b	8d 45 f8	 lea	 eax, DWORD PTR _Result$[ebp]
  0000e	68 95 00 00 00	 push	 149			; 00000095H
  00013	50		 push	 eax
  00014	e8 00 00 00 00	 call	 ?PHeadSetB@@YAXPAEEH@Z	; PHeadSetB

; 1383 : 	lpObj = &gObj[aRecv->iINDEX];

  00019	8b 7d 08	 mov	 edi, DWORD PTR _aRecv$[ebp]
  0001c	8b 5f 04	 mov	 ebx, DWORD PTR [edi+4]
  0001f	8b f3		 mov	 esi, ebx
  00021	69 f6 64 15 00
	00		 imul	 esi, 5476		; 00001564H
  00027	83 c4 0c	 add	 esp, 12			; 0000000cH
  0002a	81 c6 00 00 00
	00		 add	 esi, OFFSET ?gObj@@3PAUOBJECTSTRUCT@@A ; gObj

; 1384 : 	aIndex = aRecv->iINDEX;
; 1385 : 
; 1386 : 	if ( aRecv->bSUCCESS == FALSE )

  00030	80 7f 14 00	 cmp	 BYTE PTR [edi+20], 0
  00034	75 25		 jne	 SHORT $LN2@EGResultRe

; 1387 : 	{
; 1388 : 		Result.ChipCount = -1;
; 1389 : 		LogAdd(LOG_BLACK, "[EventChip] [%s][%s] RegEventServer Fail (RegEventchip) %d",
; 1390 : 			lpObj->AccountID, lpObj->Name, aRecv->Pos);

  00036	0f b6 57 08	 movzx	 edx, BYTE PTR [edi+8]
  0003a	52		 push	 edx
  0003b	83 c9 ff	 or	 ecx, -1
  0003e	8d 46 6f	 lea	 eax, DWORD PTR [esi+111]
  00041	50		 push	 eax
  00042	66 89 4d fc	 mov	 WORD PTR _Result$[ebp+4], cx
  00046	8d 4e 64	 lea	 ecx, DWORD PTR [esi+100]
  00049	51		 push	 ecx
  0004a	68 00 00 00 00	 push	 OFFSET ??_C@_0DL@NPJNKEPH@?$FLEventChip?$FN?5?$FL?$CFs?$FN?$FL?$CFs?$FN?5RegEventSer@
  0004f	6a 00		 push	 0
  00051	e8 00 00 00 00	 call	 ?LogAdd@@YAXW4eLogColor@@PADZZ ; LogAdd
  00056	83 c4 14	 add	 esp, 20			; 00000014H

; 1391 : 
; 1392 : 	}
; 1393 : 	else

  00059	eb 3c		 jmp	 SHORT $LN1@EGResultRe
$LN2@EGResultRe:

; 1394 : 	{
; 1395 : 		Result.ChipCount = aRecv->nEVENT_CHIPS;
; 1396 : 		gObjInventoryDeleteItem(aIndex, aRecv->Pos);

  0005b	0f b6 47 08	 movzx	 eax, BYTE PTR [edi+8]
  0005f	66 8b 57 16	 mov	 dx, WORD PTR [edi+22]
  00063	50		 push	 eax
  00064	53		 push	 ebx
  00065	66 89 55 fc	 mov	 WORD PTR _Result$[ebp+4], dx
  00069	e8 00 00 00 00	 call	 ?gObjInventoryDeleteItem@@YAEHH@Z ; gObjInventoryDeleteItem

; 1397 : 		GCInventoryItemDeleteSend(aIndex, aRecv->Pos, 1);

  0006e	0f b6 4f 08	 movzx	 ecx, BYTE PTR [edi+8]
  00072	6a 01		 push	 1
  00074	51		 push	 ecx
  00075	53		 push	 ebx
  00076	e8 00 00 00 00	 call	 ?GCInventoryItemDeleteSend@@YAXHEE@Z ; GCInventoryItemDeleteSend

; 1398 : 
; 1399 : 		LogAdd(LOG_BLACK, "[EventChip] [%s][%s] Delete EventChip (%d)",
; 1400 : 			lpObj->AccountID, lpObj->Name, aRecv->Pos);

  0007b	0f b6 57 08	 movzx	 edx, BYTE PTR [edi+8]
  0007f	52		 push	 edx
  00080	8d 46 6f	 lea	 eax, DWORD PTR [esi+111]
  00083	50		 push	 eax
  00084	8d 4e 64	 lea	 ecx, DWORD PTR [esi+100]
  00087	51		 push	 ecx
  00088	68 00 00 00 00	 push	 OFFSET ??_C@_0CL@GENGFGNN@?$FLEventChip?$FN?5?$FL?$CFs?$FN?$FL?$CFs?$FN?5Delete?5Even@
  0008d	6a 00		 push	 0
  0008f	e8 00 00 00 00	 call	 ?LogAdd@@YAXW4eLogColor@@PADZZ ; LogAdd
  00094	83 c4 28	 add	 esp, 40			; 00000028H
$LN1@EGResultRe:

; 1401 : 	}
; 1402 : 
; 1403 : 	Result.Type = 0;
; 1404 : 
; 1405 : 	DataSend(aIndex, (LPBYTE)&Result, Result.h.size);

  00097	0f b6 55 f9	 movzx	 edx, BYTE PTR _Result$[ebp+1]
  0009b	52		 push	 edx
  0009c	8d 45 f8	 lea	 eax, DWORD PTR _Result$[ebp]
  0009f	50		 push	 eax
  000a0	53		 push	 ebx
  000a1	c6 45 fb 00	 mov	 BYTE PTR _Result$[ebp+3], 0
  000a5	e8 00 00 00 00	 call	 ?DataSend@@YAHHPAEK@Z	; DataSend
  000aa	83 c4 0c	 add	 esp, 12			; 0000000cH
  000ad	5f		 pop	 edi

; 1406 : 
; 1407 : 	lpObj->UseEventServer = FALSE;

  000ae	c7 86 b4 0e 00
	00 00 00 00 00	 mov	 DWORD PTR [esi+3764], 0
  000b8	5e		 pop	 esi
  000b9	5b		 pop	 ebx

; 1408 : }

  000ba	8b e5		 mov	 esp, ebp
  000bc	5d		 pop	 ebp
  000bd	c3		 ret	 0
?EGResultRegEventChip@@YAXPAUPMSG_ANS_REGISTER_EVENTCHIP@@@Z ENDP ; EGResultRegEventChip
_TEXT	ENDS
PUBLIC	??_C@_0CO@PLMPLCLH@?$FLEventChip?$FN?5?$FL?$CFs?$FN?$FL?$CFs?$FN?5Make?5MutoNu@ ; `string'
PUBLIC	__$ArrayPad$
PUBLIC	?EGRecvRegMutoNum@@YAXPAUPMSG_ANS_REGISTER_MUTONUM@@@Z ; EGRecvRegMutoNum
EXTRN	?gObjDelete10EventChip@@YAHH@Z:PROC		; gObjDelete10EventChip
EXTRN	?gObjFind10EventChip@@YAHH@Z:PROC		; gObjFind10EventChip
;	COMDAT ??_C@_0CO@PLMPLCLH@?$FLEventChip?$FN?5?$FL?$CFs?$FN?$FL?$CFs?$FN?5Make?5MutoNu@
CONST	SEGMENT
??_C@_0CO@PLMPLCLH@?$FLEventChip?$FN?5?$FL?$CFs?$FN?$FL?$CFs?$FN?5Make?5MutoNu@ DB '['
	DB	'EventChip] [%s][%s] Make MutoNumber %d,%d,%d', 00H ; `string'
; Function compile flags: /Ogtp
CONST	ENDS
;	COMDAT ?EGRecvRegMutoNum@@YAXPAUPMSG_ANS_REGISTER_MUTONUM@@@Z
_TEXT	SEGMENT
tv194 = -20						; size = 4
_Result$ = -16						; size = 10
__$ArrayPad$ = -4					; size = 4
_aRecv$ = 8						; size = 4
?EGRecvRegMutoNum@@YAXPAUPMSG_ANS_REGISTER_MUTONUM@@@Z PROC ; EGRecvRegMutoNum, COMDAT

; 1411 : {

  00000	55		 push	 ebp
  00001	8b ec		 mov	 ebp, esp
  00003	83 ec 14	 sub	 esp, 20			; 00000014H
  00006	a1 00 00 00 00	 mov	 eax, DWORD PTR ___security_cookie
  0000b	33 c5		 xor	 eax, ebp
  0000d	89 45 fc	 mov	 DWORD PTR __$ArrayPad$[ebp], eax
  00010	53		 push	 ebx
  00011	8b 5d 08	 mov	 ebx, DWORD PTR _aRecv$[ebp]
  00014	56		 push	 esi
  00015	57		 push	 edi

; 1412 : 	LPOBJ lpObj;
; 1413 : 	int aIndex;
; 1414 : 	
; 1415 : 
; 1416 : 	lpObj = &gObj[aRecv->iINDEX];

  00016	8b 7b 04	 mov	 edi, DWORD PTR [ebx+4]
  00019	8b f7		 mov	 esi, edi
  0001b	69 f6 64 15 00
	00		 imul	 esi, 5476		; 00001564H

; 1417 : 	aIndex = aRecv->iINDEX;
; 1418 : 
; 1419 : 	PMSG_GETMUTONUMBER_RESULT Result;
; 1420 : 
; 1421 : 	PHeadSetB((LPBYTE)&Result, 0x96, sizeof(Result));

  00021	6a 0a		 push	 10			; 0000000aH
  00023	8d 45 f0	 lea	 eax, DWORD PTR _Result$[ebp]
  00026	68 96 00 00 00	 push	 150			; 00000096H
  0002b	50		 push	 eax
  0002c	89 7d ec	 mov	 DWORD PTR tv194[ebp], edi
  0002f	81 c6 00 00 00
	00		 add	 esi, OFFSET ?gObj@@3PAUOBJECTSTRUCT@@A ; gObj
  00035	e8 00 00 00 00	 call	 ?PHeadSetB@@YAXPAEEH@Z	; PHeadSetB

; 1422 : 	
; 1423 : 	if ( gObjFind10EventChip(aIndex) == FALSE )

  0003a	57		 push	 edi
  0003b	e8 00 00 00 00	 call	 ?gObjFind10EventChip@@YAHH@Z ; gObjFind10EventChip
  00040	83 c4 10	 add	 esp, 16			; 00000010H
  00043	85 c0		 test	 eax, eax
  00045	75 20		 jne	 SHORT $LN1@EGRecvRegM

; 1424 : 	{
; 1425 : 		Result.MutoNum[0] = -1;

  00047	83 c9 ff	 or	 ecx, -1
  0004a	66 89 4d f4	 mov	 WORD PTR _Result$[ebp+4], cx

; 1426 : 		Result.MutoNum[1] = 0;
; 1427 : 		Result.MutoNum[2] = 0;
; 1428 : 
; 1429 : 		DataSend(aIndex, (LPBYTE)&Result, Result.h.size);

  0004e	0f b6 4d f1	 movzx	 ecx, BYTE PTR _Result$[ebp+1]
  00052	33 d2		 xor	 edx, edx
  00054	89 55 f6	 mov	 DWORD PTR _Result$[ebp+6], edx
  00057	51		 push	 ecx
  00058	8d 55 f0	 lea	 edx, DWORD PTR _Result$[ebp]
  0005b	52		 push	 edx
  0005c	57		 push	 edi
  0005d	e8 00 00 00 00	 call	 ?DataSend@@YAHHPAEK@Z	; DataSend
  00062	83 c4 0c	 add	 esp, 12			; 0000000cH

; 1430 : 
; 1431 : 		lpObj->UseEventServer = FALSE;
; 1432 : 
; 1433 : 		return;

  00065	eb 74		 jmp	 SHORT $LN4@EGRecvRegM
$LN1@EGRecvRegM:

; 1434 : 	}
; 1435 : 
; 1436 : 	gObjDelete10EventChip(aIndex);

  00067	57		 push	 edi
  00068	e8 00 00 00 00	 call	 ?gObjDelete10EventChip@@YAHH@Z ; gObjDelete10EventChip

; 1437 : 	Result.MutoNum[0] = aRecv->iMUTO_NUM / 1000000;

  0006d	8b 7b 14	 mov	 edi, DWORD PTR [ebx+20]
  00070	b8 83 de 1b 43	 mov	 eax, 1125899907		; 431bde83H
  00075	f7 ef		 imul	 edi
  00077	c1 fa 12	 sar	 edx, 18			; 00000012H
  0007a	8b ca		 mov	 ecx, edx
  0007c	c1 e9 1f	 shr	 ecx, 31			; 0000001fH
  0007f	03 ca		 add	 ecx, edx

; 1438 : 	Result.MutoNum[1] = aRecv->iMUTO_NUM / 1000 - aRecv->iMUTO_NUM / 1000000 * 1000;

  00081	8b c7		 mov	 eax, edi
  00083	99		 cdq
  00084	bb e8 03 00 00	 mov	 ebx, 1000		; 000003e8H
  00089	f7 fb		 idiv	 ebx
  0008b	66 89 4d f4	 mov	 WORD PTR _Result$[ebp+4], cx
  0008f	69 c9 e8 03 00
	00		 imul	 ecx, 1000		; 000003e8H

; 1439 : 	Result.MutoNum[2] = aRecv->iMUTO_NUM % 1000;
; 1440 : 	lpObj->MutoNumber = aRecv->iMUTO_NUM;

  00095	89 be b0 0e 00
	00		 mov	 DWORD PTR [esi+3760], edi
  0009b	2b c1		 sub	 eax, ecx

; 1441 : 	
; 1442 : 	LogAdd(LOG_BLACK, "[EventChip] [%s][%s] Make MutoNumber %d,%d,%d",
; 1443 : 		lpObj->AccountID, lpObj->Name, 
; 1444 : 		Result.MutoNum[0], Result.MutoNum[1], Result.MutoNum[2]);

  0009d	0f bf ca	 movsx	 ecx, dx
  000a0	51		 push	 ecx
  000a1	66 89 55 f8	 mov	 WORD PTR _Result$[ebp+8], dx
  000a5	0f bf d0	 movsx	 edx, ax
  000a8	52		 push	 edx
  000a9	66 89 45 f6	 mov	 WORD PTR _Result$[ebp+6], ax
  000ad	0f bf 45 f4	 movsx	 eax, WORD PTR _Result$[ebp+4]
  000b1	50		 push	 eax
  000b2	8d 4e 6f	 lea	 ecx, DWORD PTR [esi+111]
  000b5	51		 push	 ecx
  000b6	8d 56 64	 lea	 edx, DWORD PTR [esi+100]
  000b9	52		 push	 edx
  000ba	68 00 00 00 00	 push	 OFFSET ??_C@_0CO@PLMPLCLH@?$FLEventChip?$FN?5?$FL?$CFs?$FN?$FL?$CFs?$FN?5Make?5MutoNu@
  000bf	6a 00		 push	 0
  000c1	e8 00 00 00 00	 call	 ?LogAdd@@YAXW4eLogColor@@PADZZ ; LogAdd

; 1445 : 
; 1446 : 	DataSend(aIndex, (LPBYTE)&Result, Result.h.size);

  000c6	0f b6 45 f1	 movzx	 eax, BYTE PTR _Result$[ebp+1]
  000ca	8b 55 ec	 mov	 edx, DWORD PTR tv194[ebp]
  000cd	50		 push	 eax
  000ce	8d 4d f0	 lea	 ecx, DWORD PTR _Result$[ebp]
  000d1	51		 push	 ecx
  000d2	52		 push	 edx
  000d3	e8 00 00 00 00	 call	 ?DataSend@@YAHHPAEK@Z	; DataSend
  000d8	83 c4 2c	 add	 esp, 44			; 0000002cH
$LN4@EGRecvRegM:

; 1447 : 	lpObj->UseEventServer = FALSE;
; 1448 : }

  000db	8b 4d fc	 mov	 ecx, DWORD PTR __$ArrayPad$[ebp]
  000de	5f		 pop	 edi
  000df	c7 86 b4 0e 00
	00 00 00 00 00	 mov	 DWORD PTR [esi+3764], 0
  000e9	5e		 pop	 esi
  000ea	33 cd		 xor	 ecx, ebp
  000ec	5b		 pop	 ebx
  000ed	e8 00 00 00 00	 call	 @__security_check_cookie@4
  000f2	8b e5		 mov	 esp, ebp
  000f4	5d		 pop	 ebp
  000f5	c3		 ret	 0
?EGRecvRegMutoNum@@YAXPAUPMSG_ANS_REGISTER_MUTONUM@@@Z ENDP ; EGRecvRegMutoNum
_TEXT	ENDS
PUBLIC	??_C@_0CF@KMDOMHEE@?$FLEventChip?$FN?5?$FL?$CFs?$FN?$FL?$CFs?$FN?5ChangeRena?5@ ; `string'
PUBLIC	??_C@_0CN@HPMMCJJA@?$FLEventChip?$FN?5?$FL?$CFs?$FN?$FL?$CFs?$FN?5ChangeRena?5@ ; `string'
PUBLIC	?EGRecvChangeRena@@YAXPAUPMSG_ANS_RESET_EVENTCHIP@@@Z ; EGRecvChangeRena
EXTRN	?GCMoneySend@@YAXHK@Z:PROC			; GCMoneySend
;	COMDAT ??_C@_0CF@KMDOMHEE@?$FLEventChip?$FN?5?$FL?$CFs?$FN?$FL?$CFs?$FN?5ChangeRena?5@
CONST	SEGMENT
??_C@_0CF@KMDOMHEE@?$FLEventChip?$FN?5?$FL?$CFs?$FN?$FL?$CFs?$FN?5ChangeRena?5@ DB '['
	DB	'EventChip] [%s][%s] ChangeRena Fail', 00H	; `string'
CONST	ENDS
;	COMDAT ??_C@_0CN@HPMMCJJA@?$FLEventChip?$FN?5?$FL?$CFs?$FN?$FL?$CFs?$FN?5ChangeRena?5@
CONST	SEGMENT
??_C@_0CN@HPMMCJJA@?$FLEventChip?$FN?5?$FL?$CFs?$FN?$FL?$CFs?$FN?5ChangeRena?5@ DB '['
	DB	'EventChip] [%s][%s] ChangeRena AddMoney(%d)', 00H ; `string'
; Function compile flags: /Ogtp
CONST	ENDS
;	COMDAT ?EGRecvChangeRena@@YAXPAUPMSG_ANS_RESET_EVENTCHIP@@@Z
_TEXT	SEGMENT
_Result$ = -8						; size = 6
_aRecv$ = 8						; size = 4
?EGRecvChangeRena@@YAXPAUPMSG_ANS_RESET_EVENTCHIP@@@Z PROC ; EGRecvChangeRena, COMDAT

; 1451 : {

  00000	55		 push	 ebp
  00001	8b ec		 mov	 ebp, esp
  00003	83 ec 08	 sub	 esp, 8
  00006	56		 push	 esi
  00007	57		 push	 edi

; 1452 : 	PMSG_REGEVENTCHIP_RESULT Result;
; 1453 : 	LPOBJ lpObj;
; 1454 : 	int aIndex;
; 1455 : 
; 1456 : 	PHeadSetB((LPBYTE)&Result, 0x95, sizeof(Result));

  00008	6a 06		 push	 6
  0000a	8d 45 f8	 lea	 eax, DWORD PTR _Result$[ebp]
  0000d	68 95 00 00 00	 push	 149			; 00000095H
  00012	50		 push	 eax
  00013	e8 00 00 00 00	 call	 ?PHeadSetB@@YAXPAEEH@Z	; PHeadSetB

; 1457 : 	lpObj = &gObj[aRecv->iINDEX];

  00018	8b 45 08	 mov	 eax, DWORD PTR _aRecv$[ebp]
  0001b	8b 78 04	 mov	 edi, DWORD PTR [eax+4]
  0001e	8b f7		 mov	 esi, edi
  00020	69 f6 64 15 00
	00		 imul	 esi, 5476		; 00001564H
  00026	83 c4 0c	 add	 esp, 12			; 0000000cH
  00029	81 c6 00 00 00
	00		 add	 esi, OFFSET ?gObj@@3PAUOBJECTSTRUCT@@A ; gObj

; 1458 : 	aIndex = aRecv->iINDEX;
; 1459 : 
; 1460 : 	if ( aRecv->bSUCCESS != FALSE )

  0002f	80 78 13 00	 cmp	 BYTE PTR [eax+19], 0
  00033	74 47		 je	 SHORT $LN2@EGRecvChan

; 1461 : 	{
; 1462 : 		lpObj->Money += lpObj->EventChipCount * 3000;

  00035	0f bf 8e ac 0e
	00 00		 movsx	 ecx, WORD PTR [esi+3756]
  0003c	69 c9 b8 0b 00
	00		 imul	 ecx, 3000		; 00000bb8H
  00042	01 8e b0 00 00
	00		 add	 DWORD PTR [esi+176], ecx
  00048	8b 86 b0 00 00
	00		 mov	 eax, DWORD PTR [esi+176]

; 1463 : 		GCMoneySend(aIndex, lpObj->Money);

  0004e	50		 push	 eax
  0004f	57		 push	 edi
  00050	e8 00 00 00 00	 call	 ?GCMoneySend@@YAXHK@Z	; GCMoneySend

; 1464 : 
; 1465 : 		LogAdd(LOG_BLACK, "[EventChip] [%s][%s] ChangeRena AddMoney(%d)",
; 1466 : 			lpObj->AccountID, lpObj->Name, lpObj->EventChipCount * 3000);

  00055	0f bf 96 ac 0e
	00 00		 movsx	 edx, WORD PTR [esi+3756]
  0005c	69 d2 b8 0b 00
	00		 imul	 edx, 3000		; 00000bb8H
  00062	52		 push	 edx
  00063	8d 46 6f	 lea	 eax, DWORD PTR [esi+111]
  00066	50		 push	 eax
  00067	8d 4e 64	 lea	 ecx, DWORD PTR [esi+100]
  0006a	51		 push	 ecx
  0006b	68 00 00 00 00	 push	 OFFSET ??_C@_0CN@HPMMCJJA@?$FLEventChip?$FN?5?$FL?$CFs?$FN?$FL?$CFs?$FN?5ChangeRena?5@
  00070	6a 00		 push	 0
  00072	e8 00 00 00 00	 call	 ?LogAdd@@YAXW4eLogColor@@PADZZ ; LogAdd
  00077	83 c4 1c	 add	 esp, 28			; 0000001cH

; 1467 : 	}
; 1468 : 	else

  0007a	eb 17		 jmp	 SHORT $LN1@EGRecvChan
$LN2@EGRecvChan:

; 1469 : 	{
; 1470 : 		LogAdd(LOG_BLACK, "[EventChip] [%s][%s] ChangeRena Fail",
; 1471 : 			lpObj->AccountID, lpObj->Name);

  0007c	8d 56 6f	 lea	 edx, DWORD PTR [esi+111]
  0007f	52		 push	 edx
  00080	8d 46 64	 lea	 eax, DWORD PTR [esi+100]
  00083	50		 push	 eax
  00084	68 00 00 00 00	 push	 OFFSET ??_C@_0CF@KMDOMHEE@?$FLEventChip?$FN?5?$FL?$CFs?$FN?$FL?$CFs?$FN?5ChangeRena?5@
  00089	6a 00		 push	 0
  0008b	e8 00 00 00 00	 call	 ?LogAdd@@YAXW4eLogColor@@PADZZ ; LogAdd
  00090	83 c4 10	 add	 esp, 16			; 00000010H
$LN1@EGRecvChan:

; 1472 : 	}
; 1473 : 
; 1474 : 	Result.ChipCount = 0;
; 1475 : 	lpObj->EventChipCount = 0;
; 1476 : 
; 1477 : 	DataSend(aIndex, (LPBYTE)&Result, Result.h.size);

  00093	0f b6 45 f9	 movzx	 eax, BYTE PTR _Result$[ebp+1]
  00097	33 c9		 xor	 ecx, ecx
  00099	66 89 4d fc	 mov	 WORD PTR _Result$[ebp+4], cx
  0009d	50		 push	 eax
  0009e	8d 4d f8	 lea	 ecx, DWORD PTR _Result$[ebp]
  000a1	51		 push	 ecx
  000a2	33 d2		 xor	 edx, edx
  000a4	57		 push	 edi
  000a5	66 89 96 ac 0e
	00 00		 mov	 WORD PTR [esi+3756], dx
  000ac	e8 00 00 00 00	 call	 ?DataSend@@YAHHPAEK@Z	; DataSend
  000b1	83 c4 0c	 add	 esp, 12			; 0000000cH
  000b4	5f		 pop	 edi

; 1478 : 
; 1479 : 	lpObj->UseEventServer = FALSE;

  000b5	c7 86 b4 0e 00
	00 00 00 00 00	 mov	 DWORD PTR [esi+3764], 0
  000bf	5e		 pop	 esi

; 1480 : }

  000c0	8b e5		 mov	 esp, ebp
  000c2	5d		 pop	 ebp
  000c3	c3		 ret	 0
?EGRecvChangeRena@@YAXPAUPMSG_ANS_RESET_EVENTCHIP@@@Z ENDP ; EGRecvChangeRena
_TEXT	ENDS
PUBLIC	__$ArrayPad$
PUBLIC	?EGRecvStoneInfo@@YAXPAUPMSG_ANS_VIEW_STONES@@@Z ; EGRecvStoneInfo
EXTRN	?ChatTargetSend@@YAXPAUOBJECTSTRUCT@@PADH@Z:PROC ; ChatTargetSend
EXTRN	__imp__wsprintfA:PROC
EXTRN	?Get@CMsg@@QAEPADH@Z:PROC			; CMsg::Get
EXTRN	?lMsg@@3VCMsg@@A:BYTE				; lMsg
; Function compile flags: /Ogtp
;	COMDAT ?EGRecvStoneInfo@@YAXPAUPMSG_ANS_VIEW_STONES@@@Z
_TEXT	SEGMENT
_Result$ = -144						; size = 12
_msg$ = -132						; size = 128
__$ArrayPad$ = -4					; size = 4
_aRecv$ = 8						; size = 4
?EGRecvStoneInfo@@YAXPAUPMSG_ANS_VIEW_STONES@@@Z PROC	; EGRecvStoneInfo, COMDAT

; 1485 : {

  00000	55		 push	 ebp
  00001	8b ec		 mov	 ebp, esp
  00003	81 ec 90 00 00
	00		 sub	 esp, 144		; 00000090H
  00009	a1 00 00 00 00	 mov	 eax, DWORD PTR ___security_cookie
  0000e	33 c5		 xor	 eax, ebp
  00010	89 45 fc	 mov	 DWORD PTR __$ArrayPad$[ebp], eax
  00013	56		 push	 esi
  00014	57		 push	 edi
  00015	8b 7d 08	 mov	 edi, DWORD PTR _aRecv$[ebp]

; 1486 : 	LPOBJ lpObj = &gObj[aRecv->iINDEX];

  00018	8b 77 04	 mov	 esi, DWORD PTR [edi+4]
  0001b	69 f6 64 15 00
	00		 imul	 esi, 5476		; 00001564H

; 1487 : 
; 1488 : 	PMSG_EVENTCHIPINFO Result;
; 1489 : 	
; 1490 : 	PHeadSetB((LPBYTE)&Result, 0x94, sizeof(Result));

  00021	6a 0c		 push	 12			; 0000000cH
  00023	8d 85 70 ff ff
	ff		 lea	 eax, DWORD PTR _Result$[ebp]
  00029	68 94 00 00 00	 push	 148			; 00000094H
  0002e	50		 push	 eax
  0002f	81 c6 00 00 00
	00		 add	 esi, OFFSET ?gObj@@3PAUOBJECTSTRUCT@@A ; gObj
  00035	e8 00 00 00 00	 call	 ?PHeadSetB@@YAXPAEEH@Z	; PHeadSetB

; 1491 : 
; 1492 : 	if ( aRecv->bSUCCESS )

  0003a	33 c0		 xor	 eax, eax
  0003c	83 c4 0c	 add	 esp, 12			; 0000000cH
  0003f	38 47 13	 cmp	 BYTE PTR [edi+19], al
  00042	74 0b		 je	 SHORT $LN2@EGRecvSton

; 1493 : 		lpObj->iStoneCount = aRecv->iStoneCount;

  00044	8b 4f 14	 mov	 ecx, DWORD PTR [edi+20]
  00047	89 8e bc 0e 00
	00		 mov	 DWORD PTR [esi+3772], ecx

; 1494 : 	else

  0004d	eb 06		 jmp	 SHORT $LN1@EGRecvSton
$LN2@EGRecvSton:

; 1495 : 		lpObj->iStoneCount = 0;

  0004f	89 86 bc 0e 00
	00		 mov	 DWORD PTR [esi+3772], eax
$LN1@EGRecvSton:

; 1496 : 
; 1497 : 	lpObj->MutoNumber = 0;

  00055	89 86 b0 0e 00
	00		 mov	 DWORD PTR [esi+3760], eax

; 1498 : 	Result.Type = 3;
; 1499 : 	Result.ChipCount = aRecv->iStoneCount;
; 1500 : 
; 1501 : 	DataSend(lpObj->m_Index, (LPBYTE)&Result, Result.h.size);

  0005b	0f b6 85 71 ff
	ff ff		 movzx	 eax, BYTE PTR _Result$[ebp+1]
  00062	66 8b 57 14	 mov	 dx, WORD PTR [edi+20]
  00066	50		 push	 eax
  00067	8d 8d 70 ff ff
	ff		 lea	 ecx, DWORD PTR _Result$[ebp]
  0006d	66 89 95 74 ff
	ff ff		 mov	 WORD PTR _Result$[ebp+4], dx
  00074	8b 16		 mov	 edx, DWORD PTR [esi]
  00076	51		 push	 ecx
  00077	52		 push	 edx
  00078	c6 85 73 ff ff
	ff 03		 mov	 BYTE PTR _Result$[ebp+3], 3
  0007f	e8 00 00 00 00	 call	 ?DataSend@@YAHHPAEK@Z	; DataSend

; 1502 : 
; 1503 : 	char msg[128];
; 1504 : 	wsprintf(msg, lMsg.Get(MSGGET(4, 153)), Result.ChipCount);

  00084	0f b7 85 74 ff
	ff ff		 movzx	 eax, WORD PTR _Result$[ebp+4]
  0008b	83 c4 0c	 add	 esp, 12			; 0000000cH
  0008e	50		 push	 eax
  0008f	68 99 04 00 00	 push	 1177			; 00000499H
  00094	b9 00 00 00 00	 mov	 ecx, OFFSET ?lMsg@@3VCMsg@@A ; lMsg
  00099	e8 00 00 00 00	 call	 ?Get@CMsg@@QAEPADH@Z	; CMsg::Get
  0009e	50		 push	 eax
  0009f	8d 8d 7c ff ff
	ff		 lea	 ecx, DWORD PTR _msg$[ebp]
  000a5	51		 push	 ecx
  000a6	ff 15 00 00 00
	00		 call	 DWORD PTR __imp__wsprintfA

; 1505 : 	ChatTargetSend(pEventObj, msg, lpObj->m_Index);

  000ac	8b 16		 mov	 edx, DWORD PTR [esi]
  000ae	8b 0d 00 00 00
	00		 mov	 ecx, DWORD PTR ?pEventObj@@3PAUOBJECTSTRUCT@@A ; pEventObj
  000b4	52		 push	 edx
  000b5	8d 85 7c ff ff
	ff		 lea	 eax, DWORD PTR _msg$[ebp]
  000bb	50		 push	 eax
  000bc	51		 push	 ecx
  000bd	e8 00 00 00 00	 call	 ?ChatTargetSend@@YAXPAUOBJECTSTRUCT@@PADH@Z ; ChatTargetSend

; 1506 : }

  000c2	8b 4d fc	 mov	 ecx, DWORD PTR __$ArrayPad$[ebp]
  000c5	83 c4 18	 add	 esp, 24			; 00000018H
  000c8	5f		 pop	 edi
  000c9	33 cd		 xor	 ecx, ebp
  000cb	5e		 pop	 esi
  000cc	e8 00 00 00 00	 call	 @__security_check_cookie@4
  000d1	8b e5		 mov	 esp, ebp
  000d3	5d		 pop	 ebp
  000d4	c3		 ret	 0
?EGRecvStoneInfo@@YAXPAUPMSG_ANS_VIEW_STONES@@@Z ENDP	; EGRecvStoneInfo
_TEXT	ENDS
PUBLIC	??_C@_0DD@JDHGBHBI@?$FLStone?$FN?5?$FL?$CFs?$FN?$FL?$CFs?$FN?5RegEventServer?5@ ; `string'
PUBLIC	??_C@_0BP@HIMCGJFF@?$FLStone?$FN?5?$FL?$CFs?$FN?$FL?$CFs?$FN?5Delete?5Stones?$AA@ ; `string'
PUBLIC	?EGRecvRegStone@@YAXPAUPMSG_ANS_REGISTER_STONES@@@Z ; EGRecvRegStone
;	COMDAT ??_C@_0DD@JDHGBHBI@?$FLStone?$FN?5?$FL?$CFs?$FN?$FL?$CFs?$FN?5RegEventServer?5@
CONST	SEGMENT
??_C@_0DD@JDHGBHBI@?$FLStone?$FN?5?$FL?$CFs?$FN?$FL?$CFs?$FN?5RegEventServer?5@ DB '['
	DB	'Stone] [%s][%s] RegEventServer Fail (Stones : %d)', 00H ; `string'
CONST	ENDS
;	COMDAT ??_C@_0BP@HIMCGJFF@?$FLStone?$FN?5?$FL?$CFs?$FN?$FL?$CFs?$FN?5Delete?5Stones?$AA@
CONST	SEGMENT
??_C@_0BP@HIMCGJFF@?$FLStone?$FN?5?$FL?$CFs?$FN?$FL?$CFs?$FN?5Delete?5Stones?$AA@ DB '['
	DB	'Stone] [%s][%s] Delete Stones', 00H		; `string'
; Function compile flags: /Ogtp
CONST	ENDS
;	COMDAT ?EGRecvRegStone@@YAXPAUPMSG_ANS_REGISTER_STONES@@@Z
_TEXT	SEGMENT
_Result$ = -8						; size = 6
_aRecv$ = 8						; size = 4
?EGRecvRegStone@@YAXPAUPMSG_ANS_REGISTER_STONES@@@Z PROC ; EGRecvRegStone, COMDAT

; 1509 : {

  00000	55		 push	 ebp
  00001	8b ec		 mov	 ebp, esp
  00003	83 ec 08	 sub	 esp, 8
  00006	53		 push	 ebx
  00007	56		 push	 esi
  00008	57		 push	 edi

; 1510 : 	PMSG_REGEVENTCHIP_RESULT Result;
; 1511 : 	LPOBJ lpObj;
; 1512 : 	int aIndex;
; 1513 : 	
; 1514 : 
; 1515 : 	PHeadSetB((LPBYTE)&Result, 0x95, sizeof(Result));

  00009	6a 06		 push	 6
  0000b	8d 45 f8	 lea	 eax, DWORD PTR _Result$[ebp]
  0000e	68 95 00 00 00	 push	 149			; 00000095H
  00013	50		 push	 eax
  00014	e8 00 00 00 00	 call	 ?PHeadSetB@@YAXPAEEH@Z	; PHeadSetB

; 1516 : 	lpObj = &gObj[aRecv->iINDEX];

  00019	8b 7d 08	 mov	 edi, DWORD PTR _aRecv$[ebp]
  0001c	8b 5f 04	 mov	 ebx, DWORD PTR [edi+4]
  0001f	8b f3		 mov	 esi, ebx
  00021	69 f6 64 15 00
	00		 imul	 esi, 5476		; 00001564H
  00027	83 c4 0c	 add	 esp, 12			; 0000000cH
  0002a	81 c6 00 00 00
	00		 add	 esi, OFFSET ?gObj@@3PAUOBJECTSTRUCT@@A ; gObj

; 1517 : 	aIndex = aRecv->iINDEX;
; 1518 : 
; 1519 : 	if ( aRecv->bSUCCESS != FALSE )

  00030	80 7f 14 00	 cmp	 BYTE PTR [edi+20], 0
  00034	74 39		 je	 SHORT $LN2@EGRecvRegS

; 1520 : 	{
; 1521 : 		Result.ChipCount = aRecv->iStoneCount;
; 1522 : 		gObjInventoryDeleteItem(aIndex, aRecv->iPosition);

  00036	0f b6 57 08	 movzx	 edx, BYTE PTR [edi+8]
  0003a	66 8b 4f 18	 mov	 cx, WORD PTR [edi+24]
  0003e	52		 push	 edx
  0003f	53		 push	 ebx
  00040	66 89 4d fc	 mov	 WORD PTR _Result$[ebp+4], cx
  00044	e8 00 00 00 00	 call	 ?gObjInventoryDeleteItem@@YAEHH@Z ; gObjInventoryDeleteItem

; 1523 : 		GCInventoryItemDeleteSend(aIndex, aRecv->iPosition, 1);

  00049	0f b6 47 08	 movzx	 eax, BYTE PTR [edi+8]
  0004d	6a 01		 push	 1
  0004f	50		 push	 eax
  00050	53		 push	 ebx
  00051	e8 00 00 00 00	 call	 ?GCInventoryItemDeleteSend@@YAXHEE@Z ; GCInventoryItemDeleteSend

; 1524 : 
; 1525 : 		LogAdd(LOG_BLACK, "[Stone] [%s][%s] Delete Stones",
; 1526 : 			lpObj->AccountID, lpObj->Name);

  00056	8d 4e 6f	 lea	 ecx, DWORD PTR [esi+111]
  00059	51		 push	 ecx
  0005a	8d 56 64	 lea	 edx, DWORD PTR [esi+100]
  0005d	52		 push	 edx
  0005e	68 00 00 00 00	 push	 OFFSET ??_C@_0BP@HIMCGJFF@?$FLStone?$FN?5?$FL?$CFs?$FN?$FL?$CFs?$FN?5Delete?5Stones?$AA@
  00063	6a 00		 push	 0
  00065	e8 00 00 00 00	 call	 ?LogAdd@@YAXW4eLogColor@@PADZZ ; LogAdd
  0006a	83 c4 24	 add	 esp, 36			; 00000024H

; 1527 : 	}
; 1528 : 	else

  0006d	eb 22		 jmp	 SHORT $LN1@EGRecvRegS
$LN2@EGRecvRegS:

; 1529 : 	{
; 1530 : 		Result.ChipCount = -1;
; 1531 : 		
; 1532 : 		LogAdd(LOG_BLACK, "[Stone] [%s][%s] RegEventServer Fail (Stones : %d)",
; 1533 : 			lpObj->AccountID, lpObj->Name, aRecv->iStoneCount);

  0006f	8b 4f 18	 mov	 ecx, DWORD PTR [edi+24]
  00072	51		 push	 ecx
  00073	83 c8 ff	 or	 eax, -1
  00076	8d 56 6f	 lea	 edx, DWORD PTR [esi+111]
  00079	52		 push	 edx
  0007a	66 89 45 fc	 mov	 WORD PTR _Result$[ebp+4], ax
  0007e	8d 46 64	 lea	 eax, DWORD PTR [esi+100]
  00081	50		 push	 eax
  00082	68 00 00 00 00	 push	 OFFSET ??_C@_0DD@JDHGBHBI@?$FLStone?$FN?5?$FL?$CFs?$FN?$FL?$CFs?$FN?5RegEventServer?5@
  00087	6a 00		 push	 0
  00089	e8 00 00 00 00	 call	 ?LogAdd@@YAXW4eLogColor@@PADZZ ; LogAdd
  0008e	83 c4 14	 add	 esp, 20			; 00000014H
$LN1@EGRecvRegS:

; 1534 : 	}
; 1535 : 
; 1536 : 	DataSend(aIndex, (LPBYTE)&Result, Result.h.size);

  00091	0f b6 4d f9	 movzx	 ecx, BYTE PTR _Result$[ebp+1]
  00095	51		 push	 ecx
  00096	8d 55 f8	 lea	 edx, DWORD PTR _Result$[ebp]
  00099	52		 push	 edx
  0009a	53		 push	 ebx
  0009b	e8 00 00 00 00	 call	 ?DataSend@@YAHHPAEK@Z	; DataSend
  000a0	83 c4 0c	 add	 esp, 12			; 0000000cH
  000a3	5f		 pop	 edi

; 1537 : 
; 1538 : 	lpObj->UseEventServer = FALSE;

  000a4	c7 86 b4 0e 00
	00 00 00 00 00	 mov	 DWORD PTR [esi+3764], 0
  000ae	5e		 pop	 esi
  000af	5b		 pop	 ebx

; 1539 : }

  000b0	8b e5		 mov	 esp, ebp
  000b2	5d		 pop	 ebp
  000b3	c3		 ret	 0
?EGRecvRegStone@@YAXPAUPMSG_ANS_REGISTER_STONES@@@Z ENDP ; EGRecvRegStone
_TEXT	ENDS
PUBLIC	?EGRecvDeleteStone@@YAXPAUPMSG_ANS_DELETE_STONES@@@Z ; EGRecvDeleteStone
; Function compile flags: /Ogtp
;	COMDAT ?EGRecvDeleteStone@@YAXPAUPMSG_ANS_DELETE_STONES@@@Z
_TEXT	SEGMENT
_aRecv$ = 8						; size = 4
?EGRecvDeleteStone@@YAXPAUPMSG_ANS_DELETE_STONES@@@Z PROC ; EGRecvDeleteStone, COMDAT

; 1543 : 	return;
; 1544 : }

  00000	c3		 ret	 0
?EGRecvDeleteStone@@YAXPAUPMSG_ANS_DELETE_STONES@@@Z ENDP ; EGRecvDeleteStone
_TEXT	ENDS
PUBLIC	??_C@_0CC@FLCEMGDH@?$FLStones?$FN?5?$FL?$CFs?$FN?$FL?$CFs?$FN?5ChangeRena?5Fai@ ; `string'
PUBLIC	??_C@_0CK@KDDNBJOH@?$FLStones?$FN?5?$FL?$CFs?$FN?$FL?$CFs?$FN?5ChangeRena?5Add@ ; `string'
PUBLIC	?EGRecvChangeStones@@YAXPAUPMSG_ANS_RESET_EVENTCHIP@@@Z ; EGRecvChangeStones
;	COMDAT ??_C@_0CC@FLCEMGDH@?$FLStones?$FN?5?$FL?$CFs?$FN?$FL?$CFs?$FN?5ChangeRena?5Fai@
CONST	SEGMENT
??_C@_0CC@FLCEMGDH@?$FLStones?$FN?5?$FL?$CFs?$FN?$FL?$CFs?$FN?5ChangeRena?5Fai@ DB '['
	DB	'Stones] [%s][%s] ChangeRena Fail', 00H	; `string'
CONST	ENDS
;	COMDAT ??_C@_0CK@KDDNBJOH@?$FLStones?$FN?5?$FL?$CFs?$FN?$FL?$CFs?$FN?5ChangeRena?5Add@
CONST	SEGMENT
??_C@_0CK@KDDNBJOH@?$FLStones?$FN?5?$FL?$CFs?$FN?$FL?$CFs?$FN?5ChangeRena?5Add@ DB '['
	DB	'Stones] [%s][%s] ChangeRena AddMoney(%d)', 00H ; `string'
; Function compile flags: /Ogtp
CONST	ENDS
;	COMDAT ?EGRecvChangeStones@@YAXPAUPMSG_ANS_RESET_EVENTCHIP@@@Z
_TEXT	SEGMENT
_Result$ = -8						; size = 6
_aRecv$ = 8						; size = 4
?EGRecvChangeStones@@YAXPAUPMSG_ANS_RESET_EVENTCHIP@@@Z PROC ; EGRecvChangeStones, COMDAT

; 1547 : {

  00000	55		 push	 ebp
  00001	8b ec		 mov	 ebp, esp
  00003	83 ec 08	 sub	 esp, 8
  00006	56		 push	 esi
  00007	57		 push	 edi

; 1548 : 	PMSG_REGEVENTCHIP_RESULT Result;
; 1549 : 	LPOBJ lpObj;
; 1550 : 	int aIndex;
; 1551 : 	
; 1552 : 
; 1553 : 	PHeadSetB((LPBYTE)&Result, 0x95, sizeof(Result));

  00008	6a 06		 push	 6
  0000a	8d 45 f8	 lea	 eax, DWORD PTR _Result$[ebp]
  0000d	68 95 00 00 00	 push	 149			; 00000095H
  00012	50		 push	 eax
  00013	e8 00 00 00 00	 call	 ?PHeadSetB@@YAXPAEEH@Z	; PHeadSetB

; 1554 : 	lpObj = &gObj[aRecv->iINDEX];

  00018	8b 45 08	 mov	 eax, DWORD PTR _aRecv$[ebp]
  0001b	8b 78 04	 mov	 edi, DWORD PTR [eax+4]
  0001e	8b f7		 mov	 esi, edi
  00020	69 f6 64 15 00
	00		 imul	 esi, 5476		; 00001564H
  00026	83 c4 0c	 add	 esp, 12			; 0000000cH
  00029	81 c6 00 00 00
	00		 add	 esi, OFFSET ?gObj@@3PAUOBJECTSTRUCT@@A ; gObj

; 1555 : 	aIndex = aRecv->iINDEX;
; 1556 : 
; 1557 : 	if ( aRecv->bSUCCESS != FALSE )

  0002f	80 78 13 00	 cmp	 BYTE PTR [eax+19], 0
  00033	74 45		 je	 SHORT $LN2@EGRecvChan@2

; 1558 : 	{
; 1559 : 		lpObj->Money += lpObj->iStoneCount * 3000;

  00035	8b 8e bc 0e 00
	00		 mov	 ecx, DWORD PTR [esi+3772]
  0003b	69 c9 b8 0b 00
	00		 imul	 ecx, 3000		; 00000bb8H
  00041	01 8e b0 00 00
	00		 add	 DWORD PTR [esi+176], ecx
  00047	8b 86 b0 00 00
	00		 mov	 eax, DWORD PTR [esi+176]

; 1560 : 		GCMoneySend(aIndex, lpObj->Money);

  0004d	50		 push	 eax
  0004e	57		 push	 edi
  0004f	e8 00 00 00 00	 call	 ?GCMoneySend@@YAXHK@Z	; GCMoneySend

; 1561 : 
; 1562 : 		LogAdd(LOG_BLACK, "[Stones] [%s][%s] ChangeRena AddMoney(%d)",
; 1563 : 			lpObj->AccountID, lpObj->Name, lpObj->iStoneCount*3000);

  00054	8b 96 bc 0e 00
	00		 mov	 edx, DWORD PTR [esi+3772]
  0005a	69 d2 b8 0b 00
	00		 imul	 edx, 3000		; 00000bb8H
  00060	52		 push	 edx
  00061	8d 46 6f	 lea	 eax, DWORD PTR [esi+111]
  00064	50		 push	 eax
  00065	8d 4e 64	 lea	 ecx, DWORD PTR [esi+100]
  00068	51		 push	 ecx
  00069	68 00 00 00 00	 push	 OFFSET ??_C@_0CK@KDDNBJOH@?$FLStones?$FN?5?$FL?$CFs?$FN?$FL?$CFs?$FN?5ChangeRena?5Add@
  0006e	6a 00		 push	 0
  00070	e8 00 00 00 00	 call	 ?LogAdd@@YAXW4eLogColor@@PADZZ ; LogAdd
  00075	83 c4 1c	 add	 esp, 28			; 0000001cH

; 1564 : 	}
; 1565 : 	else

  00078	eb 17		 jmp	 SHORT $LN1@EGRecvChan@2
$LN2@EGRecvChan@2:

; 1566 : 	{
; 1567 : 		LogAdd(LOG_BLACK, "[Stones] [%s][%s] ChangeRena Fail",
; 1568 : 			lpObj->AccountID, lpObj->Name);

  0007a	8d 56 6f	 lea	 edx, DWORD PTR [esi+111]
  0007d	52		 push	 edx
  0007e	8d 46 64	 lea	 eax, DWORD PTR [esi+100]
  00081	50		 push	 eax
  00082	68 00 00 00 00	 push	 OFFSET ??_C@_0CC@FLCEMGDH@?$FLStones?$FN?5?$FL?$CFs?$FN?$FL?$CFs?$FN?5ChangeRena?5Fai@
  00087	6a 00		 push	 0
  00089	e8 00 00 00 00	 call	 ?LogAdd@@YAXW4eLogColor@@PADZZ ; LogAdd
  0008e	83 c4 10	 add	 esp, 16			; 00000010H
$LN1@EGRecvChan@2:

; 1569 : 	}
; 1570 : 
; 1571 : 	Result.ChipCount = 0;
; 1572 : 	lpObj->iStoneCount = 0;
; 1573 : 
; 1574 : 	DataSend(aIndex, (LPBYTE)&Result, Result.h.size);

  00091	0f b6 55 f9	 movzx	 edx, BYTE PTR _Result$[ebp+1]
  00095	52		 push	 edx
  00096	8d 45 f8	 lea	 eax, DWORD PTR _Result$[ebp]
  00099	33 c9		 xor	 ecx, ecx
  0009b	50		 push	 eax
  0009c	57		 push	 edi
  0009d	66 89 4d fc	 mov	 WORD PTR _Result$[ebp+4], cx
  000a1	89 8e bc 0e 00
	00		 mov	 DWORD PTR [esi+3772], ecx
  000a7	e8 00 00 00 00	 call	 ?DataSend@@YAHHPAEK@Z	; DataSend
  000ac	83 c4 0c	 add	 esp, 12			; 0000000cH
  000af	5f		 pop	 edi

; 1575 : 
; 1576 : 	lpObj->UseEventServer = FALSE;

  000b0	c7 86 b4 0e 00
	00 00 00 00 00	 mov	 DWORD PTR [esi+3764], 0
  000ba	5e		 pop	 esi

; 1577 : }

  000bb	8b e5		 mov	 esp, ebp
  000bd	5d		 pop	 ebp
  000be	c3		 ret	 0
?EGRecvChangeStones@@YAXPAUPMSG_ANS_RESET_EVENTCHIP@@@Z ENDP ; EGRecvChangeStones
_TEXT	ENDS
PUBLIC	??_C@_0DF@GNHADNCC@?$FLMu_2Anv_Event?$FN?5Register?5Serial?5@ ; `string'
PUBLIC	??_C@_0DD@BPJEDJME@?$FLMu_2Anv_Event?$FN?5Error?5?3?5Result?5V@ ; `string'
PUBLIC	??_C@_0DI@MNCKIFPI@?$FLMu_2Anv_Event?$FN?5Error?5?3?5iGiftNum@ ; `string'
PUBLIC	??_C@_0L@NAABOOCD@30?0000?5Zen?$AA@		; `string'
PUBLIC	??_C@_0L@DILECEGA@50?0000?5Zen?$AA@		; `string'
PUBLIC	??_C@_0M@NFDLLOLF@500?0000?5Zen?$AA@		; `string'
PUBLIC	??_C@_0O@HHCDHNEF@Heart?5of?5Love?$AA@		; `string'
PUBLIC	??_C@_0DI@IMNBMFDN@?$FLMu_2Anv_Event?$FN?5Error?5?3?5Gift?5Ind@ ; `string'
PUBLIC	??_C@_0DD@NFIPOICF@?$FLMu_2Anv_Event?$FN?5Error?5?3?5Index?5is@ ; `string'
PUBLIC	__$ArrayPad$
PUBLIC	?EGRecv2AnvRegSerial@@YAXPAUPMSG_ANS_2ANIV_SERIAL@@@Z ; EGRecv2AnvRegSerial
EXTRN	?ItemGetNumberMake@@YAHHH@Z:PROC		; ItemGetNumberMake
EXTRN	?MsgSendV2@@YAXPAUOBJECTSTRUCT@@PAEH@Z:PROC	; MsgSendV2
EXTRN	?PHeadSubSetB@@YAXPAEEEH@Z:PROC			; PHeadSubSetB
;	COMDAT ??_C@_0DF@GNHADNCC@?$FLMu_2Anv_Event?$FN?5Register?5Serial?5@
CONST	SEGMENT
??_C@_0DF@GNHADNCC@?$FLMu_2Anv_Event?$FN?5Register?5Serial?5@ DB '[Mu_2An'
	DB	'v_Event] Register Serial Result : %d [%s][%s]', 00H ; `string'
CONST	ENDS
;	COMDAT ??_C@_0DD@BPJEDJME@?$FLMu_2Anv_Event?$FN?5Error?5?3?5Result?5V@
CONST	SEGMENT
??_C@_0DD@BPJEDJME@?$FLMu_2Anv_Event?$FN?5Error?5?3?5Result?5V@ DB '[Mu_2'
	DB	'Anv_Event] Error : Result Value is Wrong [%d]', 00H ; `string'
CONST	ENDS
;	COMDAT ??_C@_0DI@MNCKIFPI@?$FLMu_2Anv_Event?$FN?5Error?5?3?5iGiftNum@
CONST	SEGMENT
??_C@_0DI@MNCKIFPI@?$FLMu_2Anv_Event?$FN?5Error?5?3?5iGiftNum@ DB '[Mu_2A'
	DB	'nv_Event] Error : iGiftNumber is Out of Boud [%d]', 00H ; `string'
CONST	ENDS
;	COMDAT ??_C@_0L@NAABOOCD@30?0000?5Zen?$AA@
CONST	SEGMENT
??_C@_0L@NAABOOCD@30?0000?5Zen?$AA@ DB '30,000 Zen', 00H ; `string'
CONST	ENDS
;	COMDAT ??_C@_0L@DILECEGA@50?0000?5Zen?$AA@
CONST	SEGMENT
??_C@_0L@DILECEGA@50?0000?5Zen?$AA@ DB '50,000 Zen', 00H ; `string'
CONST	ENDS
;	COMDAT ??_C@_0M@NFDLLOLF@500?0000?5Zen?$AA@
CONST	SEGMENT
??_C@_0M@NFDLLOLF@500?0000?5Zen?$AA@ DB '500,000 Zen', 00H ; `string'
CONST	ENDS
;	COMDAT ??_C@_0O@HHCDHNEF@Heart?5of?5Love?$AA@
CONST	SEGMENT
??_C@_0O@HHCDHNEF@Heart?5of?5Love?$AA@ DB 'Heart of Love', 00H ; `string'
CONST	ENDS
;	COMDAT ??_C@_0DI@IMNBMFDN@?$FLMu_2Anv_Event?$FN?5Error?5?3?5Gift?5Ind@
CONST	SEGMENT
??_C@_0DI@IMNBMFDN@?$FLMu_2Anv_Event?$FN?5Error?5?3?5Gift?5Ind@ DB '[Mu_2'
	DB	'Anv_Event] Error : Gift Index is out of bound [%d]', 00H ; `string'
CONST	ENDS
;	COMDAT ??_C@_0DD@NFIPOICF@?$FLMu_2Anv_Event?$FN?5Error?5?3?5Index?5is@
CONST	SEGMENT
??_C@_0DD@NFIPOICF@?$FLMu_2Anv_Event?$FN?5Error?5?3?5Index?5is@ DB '[Mu_2'
	DB	'Anv_Event] Error : Index is out of bound [%d]', 00H ; `string'
; Function compile flags: /Ogtp
CONST	ENDS
;	COMDAT ?EGRecv2AnvRegSerial@@YAXPAUPMSG_ANS_2ANIV_SERIAL@@@Z
_TEXT	SEGMENT
_ServerCmd$155831 = -80					; size = 7
_Result$ = -72						; size = 68
__$ArrayPad$ = -4					; size = 4
_aRecv$ = 8						; size = 4
?EGRecv2AnvRegSerial@@YAXPAUPMSG_ANS_2ANIV_SERIAL@@@Z PROC ; EGRecv2AnvRegSerial, COMDAT

; 1595 : {

  00000	55		 push	 ebp
  00001	8b ec		 mov	 ebp, esp
  00003	83 ec 50	 sub	 esp, 80			; 00000050H
  00006	a1 00 00 00 00	 mov	 eax, DWORD PTR ___security_cookie
  0000b	33 c5		 xor	 eax, ebp
  0000d	89 45 fc	 mov	 DWORD PTR __$ArrayPad$[ebp], eax
  00010	53		 push	 ebx
  00011	56		 push	 esi
  00012	8b 75 08	 mov	 esi, DWORD PTR _aRecv$[ebp]

; 1596 : 	PMSG_ANS_2ANV_LOTTO_EVENT Result;
; 1597 : 
; 1598 : 	PHeadSetB((LPBYTE)&Result, 0x9D, sizeof(Result));

  00015	6a 44		 push	 68			; 00000044H
  00017	8d 45 b8	 lea	 eax, DWORD PTR _Result$[ebp]
  0001a	68 9d 00 00 00	 push	 157			; 0000009dH
  0001f	50		 push	 eax
  00020	e8 00 00 00 00	 call	 ?PHeadSetB@@YAXPAEEH@Z	; PHeadSetB

; 1599 : 
; 1600 : 	if ( !OBJMAX_RANGE(aRecv->iINDEX))

  00025	8b 46 04	 mov	 eax, DWORD PTR [esi+4]
  00028	33 db		 xor	 ebx, ebx
  0002a	83 c4 0c	 add	 esp, 12			; 0000000cH
  0002d	3b c3		 cmp	 eax, ebx
  0002f	7c 0e		 jl	 SHORT $LN174@EGRecv2Anv
  00031	33 c9		 xor	 ecx, ecx
  00033	3d e7 1c 00 00	 cmp	 eax, 7399		; 00001ce7H
  00038	0f 9e c1	 setle	 cl
  0003b	3b cb		 cmp	 ecx, ebx
  0003d	75 1f		 jne	 SHORT $LN93@EGRecv2Anv
$LN174@EGRecv2Anv:

; 1601 : 	{
; 1602 : 		LogAdd(LOG_BLACK, "[Mu_2Anv_Event] Error : Index is out of bound [%d]", aRecv->iINDEX);

  0003f	50		 push	 eax
  00040	68 00 00 00 00	 push	 OFFSET ??_C@_0DD@NFIPOICF@?$FLMu_2Anv_Event?$FN?5Error?5?3?5Index?5is@
  00045	53		 push	 ebx
  00046	e8 00 00 00 00	 call	 ?LogAdd@@YAXW4eLogColor@@PADZZ ; LogAdd
  0004b	83 c4 0c	 add	 esp, 12			; 0000000cH
  0004e	5e		 pop	 esi
  0004f	5b		 pop	 ebx

; 2177 : }

  00050	8b 4d fc	 mov	 ecx, DWORD PTR __$ArrayPad$[ebp]
  00053	33 cd		 xor	 ecx, ebp
  00055	e8 00 00 00 00	 call	 @__security_check_cookie@4
  0005a	8b e5		 mov	 esp, ebp
  0005c	5d		 pop	 ebp
  0005d	c3		 ret	 0
$LN93@EGRecv2Anv:

; 1603 : 		return;
; 1604 : 	}
; 1605 : 
; 1606 : 	if ( gObj[aRecv->iINDEX].Connected <= PLAYER_LOGGED )

  0005e	8b c8		 mov	 ecx, eax
  00060	69 c9 64 15 00
	00		 imul	 ecx, 5476		; 00001564H
  00066	80 b9 04 00 00
	00 02		 cmp	 BYTE PTR ?gObj@@3PAUOBJECTSTRUCT@@A[ecx+4], 2

; 1607 : 	{
; 1608 : 		LogAdd(LOG_BLACK, "[Mu_2Anv_Event] Error : Index is out of bound [%d]", aRecv->iINDEX);
; 1609 : 		return;

  0006d	76 d0		 jbe	 SHORT $LN174@EGRecv2Anv

; 1610 : 	}
; 1611 : 
; 1612 : 	Result.szGIFT_NAME[0] = 0;
; 1613 : 
; 1614 : 	if ( aRecv->btIsRegistered == FALSE )

  0006f	8a 46 13	 mov	 al, BYTE PTR [esi+19]
  00072	57		 push	 edi
  00073	88 5d bc	 mov	 BYTE PTR _Result$[ebp+4], bl
  00076	3a c3		 cmp	 al, bl
  00078	0f 85 2a 12 00
	00		 jne	 $LN91@EGRecv2Anv

; 1615 : 	{
; 1616 : 		Result.btIsRegistered = FALSE;
; 1617 : 		
; 1618 : 		if ( !GIFT_2ANV_RANGE(aRecv->iGiftNumber-1) )

  0007e	8b 4e 14	 mov	 ecx, DWORD PTR [esi+20]
  00081	8d 41 ff	 lea	 eax, DWORD PTR [ecx-1]
  00084	88 5d bb	 mov	 BYTE PTR _Result$[ebp+3], bl
  00087	3b c3		 cmp	 eax, ebx
  00089	7c 0c		 jl	 SHORT $LN175@EGRecv2Anv
  0008b	33 d2		 xor	 edx, edx
  0008d	83 f8 31	 cmp	 eax, 49			; 00000031H
  00090	0f 9e c2	 setle	 dl
  00093	3b d3		 cmp	 edx, ebx
  00095	75 13		 jne	 SHORT $LN176@EGRecv2Anv
$LN175@EGRecv2Anv:

; 1619 : 		{
; 1620 : 			LogAdd(LOG_BLACK, "[Mu_2Anv_Event] Error : Gift Index is out of bound [%d]", aRecv->iGiftNumber);

  00097	51		 push	 ecx
  00098	68 00 00 00 00	 push	 OFFSET ??_C@_0DI@IMNBMFDN@?$FLMu_2Anv_Event?$FN?5Error?5?3?5Gift?5Ind@
  0009d	53		 push	 ebx
  0009e	e8 00 00 00 00	 call	 ?LogAdd@@YAXW4eLogColor@@PADZZ ; LogAdd
  000a3	83 c4 0c	 add	 esp, 12			; 0000000cH

; 1621 : 			Result.btIsRegistered = 2;

  000a6	c6 45 bb 02	 mov	 BYTE PTR _Result$[ebp+3], 2
$LN176@EGRecv2Anv:

; 1622 : 		}
; 1623 : 
; 1624 : 		if ( gObj[aRecv->iINDEX].Connected > PLAYER_LOGGED )

  000aa	8b 46 04	 mov	 eax, DWORD PTR [esi+4]
  000ad	69 c0 64 15 00
	00		 imul	 eax, 5476		; 00001564H
  000b3	80 b8 04 00 00
	00 02		 cmp	 BYTE PTR ?gObj@@3PAUOBJECTSTRUCT@@A[eax+4], 2
  000ba	76 54		 jbe	 SHORT $LN89@EGRecv2Anv

; 1625 : 		{
; 1626 : 			PMSG_SERVERCMD ServerCmd;
; 1627 : 
; 1628 : 			PHeadSubSetB((LPBYTE)&ServerCmd, 0xF3, 0x40, sizeof(ServerCmd));

  000bc	6a 07		 push	 7
  000be	6a 40		 push	 64			; 00000040H
  000c0	8d 4d b0	 lea	 ecx, DWORD PTR _ServerCmd$155831[ebp]
  000c3	68 f3 00 00 00	 push	 243			; 000000f3H
  000c8	51		 push	 ecx
  000c9	e8 00 00 00 00	 call	 ?PHeadSubSetB@@YAXPAEEEH@Z ; PHeadSubSetB

; 1629 : 			ServerCmd.CmdType = 0;
; 1630 : 			ServerCmd.X = gObj[aRecv->iINDEX].X;

  000ce	8b 46 04	 mov	 eax, DWORD PTR [esi+4]
  000d1	69 c0 64 15 00
	00		 imul	 eax, 5476		; 00001564H
  000d7	8a 90 04 01 00
	00		 mov	 dl, BYTE PTR ?gObj@@3PAUOBJECTSTRUCT@@A[eax+260]

; 1631 : 			ServerCmd.Y = gObj[aRecv->iINDEX].Y;

  000dd	8a 88 06 01 00
	00		 mov	 cl, BYTE PTR ?gObj@@3PAUOBJECTSTRUCT@@A[eax+262]
  000e3	88 55 b5	 mov	 BYTE PTR _ServerCmd$155831[ebp+5], dl

; 1632 : 
; 1633 : 			MsgSendV2(&gObj[aRecv->iINDEX], (LPBYTE)&ServerCmd, sizeof(ServerCmd));

  000e6	6a 07		 push	 7
  000e8	8d 55 b0	 lea	 edx, DWORD PTR _ServerCmd$155831[ebp]
  000eb	52		 push	 edx
  000ec	8d 80 00 00 00
	00		 lea	 eax, DWORD PTR ?gObj@@3PAUOBJECTSTRUCT@@A[eax]
  000f2	50		 push	 eax
  000f3	88 5d b4	 mov	 BYTE PTR _ServerCmd$155831[ebp+4], bl
  000f6	88 4d b6	 mov	 BYTE PTR _ServerCmd$155831[ebp+6], cl
  000f9	e8 00 00 00 00	 call	 ?MsgSendV2@@YAXPAUOBJECTSTRUCT@@PAEH@Z ; MsgSendV2

; 1634 : 			DataSend(aRecv->iINDEX, (LPBYTE)&ServerCmd, sizeof(ServerCmd));

  000fe	8b 56 04	 mov	 edx, DWORD PTR [esi+4]
  00101	6a 07		 push	 7
  00103	8d 4d b0	 lea	 ecx, DWORD PTR _ServerCmd$155831[ebp]
  00106	51		 push	 ecx
  00107	52		 push	 edx
  00108	e8 00 00 00 00	 call	 ?DataSend@@YAHHPAEK@Z	; DataSend
  0010d	83 c4 28	 add	 esp, 40			; 00000028H
$LN89@EGRecv2Anv:

; 1635 : 		}
; 1636 : 
; 1637 : 		if ( g_bRingEventItemTextLoad )

  00110	39 1d 00 00 00
	00		 cmp	 DWORD PTR ?g_bRingEventItemTextLoad@@3HA, ebx ; g_bRingEventItemTextLoad
  00116	74 22		 je	 SHORT $LN88@EGRecv2Anv

; 1638 : 		{
; 1639 : 			strcpy(Result.szGIFT_NAME, g_sz2ANV_GIFT_NAME[aRecv->iGiftNumber-1]);

  00118	8b 46 14	 mov	 eax, DWORD PTR [esi+20]
  0011b	c1 e0 06	 shl	 eax, 6
  0011e	8d 80 c0 ff ff
	ff		 lea	 eax, DWORD PTR ?g_sz2ANV_GIFT_NAME@@3PAY0EA@DA[eax-64]
  00124	8d 55 bc	 lea	 edx, DWORD PTR _Result$[ebp+4]
  00127	2b d0		 sub	 edx, eax
  00129	8d a4 24 00 00
	00 00		 npad	 7
$LL100@EGRecv2Anv:
  00130	8a 08		 mov	 cl, BYTE PTR [eax]
  00132	88 0c 02	 mov	 BYTE PTR [edx+eax], cl
  00135	40		 inc	 eax
  00136	3a cb		 cmp	 cl, bl
  00138	75 f6		 jne	 SHORT $LL100@EGRecv2Anv
$LN88@EGRecv2Anv:

; 1640 : 		}
; 1641 : 
; 1642 : 		switch ( aRecv->iGiftNumber )

  0013a	8b 46 14	 mov	 eax, DWORD PTR [esi+20]
  0013d	8d 48 ff	 lea	 ecx, DWORD PTR [eax-1]
  00140	83 f9 31	 cmp	 ecx, 49			; 00000031H
  00143	0f 87 4b 11 00
	00		 ja	 $LN5@EGRecv2Anv
  00149	ff 24 8d 00 00
	00 00		 jmp	 DWORD PTR $LN177@EGRecv2Anv[ecx*4]
$LN85@EGRecv2Anv:

; 1643 : 		{
; 1644 : 			case 1:
; 1645 : 				ItemSerialCreateSend(gObj[aRecv->iINDEX].m_Index, GIFT_2ANV_MAP, 
; 1646 : 					gObj[aRecv->iINDEX].X, gObj[aRecv->iINDEX].Y,
; 1647 : 					ItemGetNumberMake(14, 13),
; 1648 : 					0, 0, 0, 0, 0,
; 1649 : 					aRecv->iINDEX,
; 1650 : 					0, 0);

  00150	8b 46 04	 mov	 eax, DWORD PTR [esi+4]
  00153	8b 7e 04	 mov	 edi, DWORD PTR [esi+4]
  00156	53		 push	 ebx
  00157	69 ff 64 15 00
	00		 imul	 edi, 5476		; 00001564H
  0015d	53		 push	 ebx
  0015e	50		 push	 eax
  0015f	53		 push	 ebx
  00160	53		 push	 ebx
  00161	53		 push	 ebx
  00162	53		 push	 ebx
  00163	53		 push	 ebx
  00164	6a 0d		 push	 13			; 0000000dH
  00166	6a 0e		 push	 14			; 0000000eH
  00168	e8 00 00 00 00	 call	 ?ItemGetNumberMake@@YAHHH@Z ; ItemGetNumberMake
  0016d	0f b6 8f 06 01
	00 00		 movzx	 ecx, BYTE PTR ?gObj@@3PAUOBJECTSTRUCT@@A[edi+262]
  00174	0f b6 97 04 01
	00 00		 movzx	 edx, BYTE PTR ?gObj@@3PAUOBJECTSTRUCT@@A[edi+260]
  0017b	83 c4 08	 add	 esp, 8
  0017e	50		 push	 eax
  0017f	8b 87 00 00 00
	00		 mov	 eax, DWORD PTR ?gObj@@3PAUOBJECTSTRUCT@@A[edi]
  00185	51		 push	 ecx
  00186	52		 push	 edx
  00187	68 eb 00 00 00	 push	 235			; 000000ebH
  0018c	50		 push	 eax
  0018d	e8 00 00 00 00	 call	 ?ItemSerialCreateSend@@YAXHEEEHEEEEEHEE@Z ; ItemSerialCreateSend
  00192	83 c4 34	 add	 esp, 52			; 00000034H

; 1651 : 
; 1652 : 				if ( g_bRingEventItemTextLoad == FALSE )

  00195	39 1d 00 00 00
	00		 cmp	 DWORD PTR ?g_bRingEventItemTextLoad@@3HA, ebx ; g_bRingEventItemTextLoad
  0019b	0f 85 4d 11 00
	00		 jne	 $LN1@EGRecv2Anv

; 1653 : 				{
; 1654 : 					strcpy(Result.szGIFT_NAME, ItemAttribute[ITEMGET(14, 13)].Name);

  001a1	33 c0		 xor	 eax, eax
$LL101@EGRecv2Anv:
  001a3	8a 88 7c d5 0b
	00		 mov	 cl, BYTE PTR ?ItemAttribute@@3PAUITEM_ATTRIBUTE@@A[eax+775548]
  001a9	88 4c 05 bc	 mov	 BYTE PTR _Result$[ebp+eax+4], cl
  001ad	40		 inc	 eax
  001ae	3a cb		 cmp	 cl, bl
  001b0	75 f1		 jne	 SHORT $LL101@EGRecv2Anv

; 1655 : 				}
; 1656 : 				break;

  001b2	e9 37 11 00 00	 jmp	 $LN1@EGRecv2Anv
$LN83@EGRecv2Anv:

; 1657 : 			case 2:
; 1658 : 				ItemSerialCreateSend(gObj[aRecv->iINDEX].m_Index, GIFT_2ANV_MAP, 
; 1659 : 					gObj[aRecv->iINDEX].X, gObj[aRecv->iINDEX].Y,
; 1660 : 					ItemGetNumberMake(14, 14),
; 1661 : 					0, 0, 0, 0, 0,
; 1662 : 					aRecv->iINDEX,
; 1663 : 					0, 0);

  001b7	8b 4e 04	 mov	 ecx, DWORD PTR [esi+4]
  001ba	8b 7e 04	 mov	 edi, DWORD PTR [esi+4]
  001bd	53		 push	 ebx
  001be	69 ff 64 15 00
	00		 imul	 edi, 5476		; 00001564H
  001c4	53		 push	 ebx
  001c5	51		 push	 ecx
  001c6	53		 push	 ebx
  001c7	53		 push	 ebx
  001c8	53		 push	 ebx
  001c9	53		 push	 ebx
  001ca	53		 push	 ebx
  001cb	6a 0e		 push	 14			; 0000000eH
  001cd	6a 0e		 push	 14			; 0000000eH
  001cf	e8 00 00 00 00	 call	 ?ItemGetNumberMake@@YAHHH@Z ; ItemGetNumberMake
  001d4	0f b6 97 06 01
	00 00		 movzx	 edx, BYTE PTR ?gObj@@3PAUOBJECTSTRUCT@@A[edi+262]
  001db	8b 8f 00 00 00
	00		 mov	 ecx, DWORD PTR ?gObj@@3PAUOBJECTSTRUCT@@A[edi]
  001e1	83 c4 08	 add	 esp, 8
  001e4	50		 push	 eax
  001e5	0f b6 87 04 01
	00 00		 movzx	 eax, BYTE PTR ?gObj@@3PAUOBJECTSTRUCT@@A[edi+260]
  001ec	52		 push	 edx
  001ed	50		 push	 eax
  001ee	68 eb 00 00 00	 push	 235			; 000000ebH
  001f3	51		 push	 ecx
  001f4	e8 00 00 00 00	 call	 ?ItemSerialCreateSend@@YAXHEEEHEEEEEHEE@Z ; ItemSerialCreateSend
  001f9	83 c4 34	 add	 esp, 52			; 00000034H

; 1664 : 
; 1665 : 				if ( g_bRingEventItemTextLoad == FALSE )

  001fc	39 1d 00 00 00
	00		 cmp	 DWORD PTR ?g_bRingEventItemTextLoad@@3HA, ebx ; g_bRingEventItemTextLoad
  00202	0f 85 e6 10 00
	00		 jne	 $LN1@EGRecv2Anv

; 1666 : 				{
; 1667 : 					strcpy(Result.szGIFT_NAME, ItemAttribute[ITEMGET(14, 14)].Name);

  00208	33 c0		 xor	 eax, eax
  0020a	8d 9b 00 00 00
	00		 npad	 6
$LL102@EGRecv2Anv:
  00210	8a 88 e8 d5 0b
	00		 mov	 cl, BYTE PTR ?ItemAttribute@@3PAUITEM_ATTRIBUTE@@A[eax+775656]
  00216	88 4c 05 bc	 mov	 BYTE PTR _Result$[ebp+eax+4], cl
  0021a	40		 inc	 eax
  0021b	3a cb		 cmp	 cl, bl
  0021d	75 f1		 jne	 SHORT $LL102@EGRecv2Anv

; 1668 : 				}
; 1669 : 				break;

  0021f	e9 ca 10 00 00	 jmp	 $LN1@EGRecv2Anv
$LN81@EGRecv2Anv:

; 1670 : 			case 3:
; 1671 : 				ItemSerialCreateSend(gObj[aRecv->iINDEX].m_Index, GIFT_2ANV_MAP, 
; 1672 : 					gObj[aRecv->iINDEX].X, gObj[aRecv->iINDEX].Y,
; 1673 : 					ItemGetNumberMake(12, 15),
; 1674 : 					0, 0, 0, 0, 0,
; 1675 : 					aRecv->iINDEX,
; 1676 : 					0, 0);

  00224	8b 56 04	 mov	 edx, DWORD PTR [esi+4]
  00227	8b 7e 04	 mov	 edi, DWORD PTR [esi+4]
  0022a	53		 push	 ebx
  0022b	69 ff 64 15 00
	00		 imul	 edi, 5476		; 00001564H
  00231	53		 push	 ebx
  00232	52		 push	 edx
  00233	53		 push	 ebx
  00234	53		 push	 ebx
  00235	53		 push	 ebx
  00236	53		 push	 ebx
  00237	53		 push	 ebx
  00238	6a 0f		 push	 15			; 0000000fH
  0023a	6a 0c		 push	 12			; 0000000cH
  0023c	e8 00 00 00 00	 call	 ?ItemGetNumberMake@@YAHHH@Z ; ItemGetNumberMake
  00241	0f b6 8f 04 01
	00 00		 movzx	 ecx, BYTE PTR ?gObj@@3PAUOBJECTSTRUCT@@A[edi+260]
  00248	8b 97 00 00 00
	00		 mov	 edx, DWORD PTR ?gObj@@3PAUOBJECTSTRUCT@@A[edi]
  0024e	83 c4 08	 add	 esp, 8
  00251	50		 push	 eax
  00252	0f b6 87 06 01
	00 00		 movzx	 eax, BYTE PTR ?gObj@@3PAUOBJECTSTRUCT@@A[edi+262]
  00259	50		 push	 eax
  0025a	51		 push	 ecx
  0025b	68 eb 00 00 00	 push	 235			; 000000ebH
  00260	52		 push	 edx
  00261	e8 00 00 00 00	 call	 ?ItemSerialCreateSend@@YAXHEEEHEEEEEHEE@Z ; ItemSerialCreateSend
  00266	83 c4 34	 add	 esp, 52			; 00000034H

; 1677 : 
; 1678 : 				if ( g_bRingEventItemTextLoad == FALSE )

  00269	39 1d 00 00 00
	00		 cmp	 DWORD PTR ?g_bRingEventItemTextLoad@@3HA, ebx ; g_bRingEventItemTextLoad
  0026f	0f 85 79 10 00
	00		 jne	 $LN1@EGRecv2Anv

; 1679 : 				{
; 1680 : 					strcpy(Result.szGIFT_NAME, ItemAttribute[ITEMGET(12, 15)].Name);

  00275	33 c0		 xor	 eax, eax
  00277	eb 07 8d a4 24
	00 00 00 00	 npad	 9
$LL103@EGRecv2Anv:
  00280	8a 88 54 26 0a
	00		 mov	 cl, BYTE PTR ?ItemAttribute@@3PAUITEM_ATTRIBUTE@@A[eax+665172]
  00286	88 4c 05 bc	 mov	 BYTE PTR _Result$[ebp+eax+4], cl
  0028a	40		 inc	 eax
  0028b	3a cb		 cmp	 cl, bl
  0028d	75 f1		 jne	 SHORT $LL103@EGRecv2Anv

; 1681 : 				}
; 1682 : 				break;

  0028f	e9 5a 10 00 00	 jmp	 $LN1@EGRecv2Anv
$LN79@EGRecv2Anv:

; 1683 : 			case 4:
; 1684 : 				ItemSerialCreateSend(gObj[aRecv->iINDEX].m_Index, GIFT_2ANV_MAP, 
; 1685 : 					gObj[aRecv->iINDEX].X, gObj[aRecv->iINDEX].Y,
; 1686 : 					ItemGetNumberMake(14, 11),
; 1687 : 					0, 0, 0, 0, 0,
; 1688 : 					aRecv->iINDEX,
; 1689 : 					0, 0);

  00294	8b 46 04	 mov	 eax, DWORD PTR [esi+4]
  00297	8b 7e 04	 mov	 edi, DWORD PTR [esi+4]
  0029a	53		 push	 ebx
  0029b	69 ff 64 15 00
	00		 imul	 edi, 5476		; 00001564H
  002a1	53		 push	 ebx
  002a2	50		 push	 eax
  002a3	53		 push	 ebx
  002a4	53		 push	 ebx
  002a5	53		 push	 ebx
  002a6	53		 push	 ebx
  002a7	53		 push	 ebx
  002a8	6a 0b		 push	 11			; 0000000bH
  002aa	6a 0e		 push	 14			; 0000000eH
  002ac	e8 00 00 00 00	 call	 ?ItemGetNumberMake@@YAHHH@Z ; ItemGetNumberMake
  002b1	0f b6 8f 06 01
	00 00		 movzx	 ecx, BYTE PTR ?gObj@@3PAUOBJECTSTRUCT@@A[edi+262]
  002b8	0f b6 97 04 01
	00 00		 movzx	 edx, BYTE PTR ?gObj@@3PAUOBJECTSTRUCT@@A[edi+260]
  002bf	83 c4 08	 add	 esp, 8
  002c2	50		 push	 eax
  002c3	8b 87 00 00 00
	00		 mov	 eax, DWORD PTR ?gObj@@3PAUOBJECTSTRUCT@@A[edi]
  002c9	51		 push	 ecx
  002ca	52		 push	 edx
  002cb	68 eb 00 00 00	 push	 235			; 000000ebH
  002d0	50		 push	 eax
  002d1	e8 00 00 00 00	 call	 ?ItemSerialCreateSend@@YAXHEEEHEEEEEHEE@Z ; ItemSerialCreateSend
  002d6	83 c4 34	 add	 esp, 52			; 00000034H

; 1690 : 
; 1691 : 				if ( g_bRingEventItemTextLoad == FALSE )

  002d9	39 1d 00 00 00
	00		 cmp	 DWORD PTR ?g_bRingEventItemTextLoad@@3HA, ebx ; g_bRingEventItemTextLoad
  002df	0f 85 09 10 00
	00		 jne	 $LN1@EGRecv2Anv

; 1692 : 				{
; 1693 : 					strcpy(Result.szGIFT_NAME, ItemAttribute[ITEMGET(14, 11)].Name);

  002e5	33 c0		 xor	 eax, eax
  002e7	eb 07 8d a4 24
	00 00 00 00	 npad	 9
$LL104@EGRecv2Anv:
  002f0	8a 88 a4 d4 0b
	00		 mov	 cl, BYTE PTR ?ItemAttribute@@3PAUITEM_ATTRIBUTE@@A[eax+775332]
  002f6	88 4c 05 bc	 mov	 BYTE PTR _Result$[ebp+eax+4], cl
  002fa	40		 inc	 eax
  002fb	3a cb		 cmp	 cl, bl
  002fd	75 f1		 jne	 SHORT $LL104@EGRecv2Anv

; 1694 : 				}
; 1695 : 				break;

  002ff	e9 ea 0f 00 00	 jmp	 $LN1@EGRecv2Anv
$LN77@EGRecv2Anv:

; 1696 : 			case 5:
; 1697 : 				ItemSerialCreateSend(gObj[aRecv->iINDEX].m_Index, GIFT_2ANV_MAP, 
; 1698 : 					gObj[aRecv->iINDEX].X, gObj[aRecv->iINDEX].Y,
; 1699 : 					ItemGetNumberMake(14, 11),
; 1700 : 					3, 0, 0, 0, 0,
; 1701 : 					aRecv->iINDEX,
; 1702 : 					0, 0);

  00304	8b 4e 04	 mov	 ecx, DWORD PTR [esi+4]
  00307	8b 7e 04	 mov	 edi, DWORD PTR [esi+4]
  0030a	53		 push	 ebx
  0030b	69 ff 64 15 00
	00		 imul	 edi, 5476		; 00001564H
  00311	53		 push	 ebx
  00312	51		 push	 ecx
  00313	53		 push	 ebx
  00314	53		 push	 ebx
  00315	53		 push	 ebx
  00316	53		 push	 ebx
  00317	6a 03		 push	 3
  00319	6a 0b		 push	 11			; 0000000bH
  0031b	6a 0e		 push	 14			; 0000000eH
  0031d	e8 00 00 00 00	 call	 ?ItemGetNumberMake@@YAHHH@Z ; ItemGetNumberMake
  00322	0f b6 97 06 01
	00 00		 movzx	 edx, BYTE PTR ?gObj@@3PAUOBJECTSTRUCT@@A[edi+262]
  00329	8b 8f 00 00 00
	00		 mov	 ecx, DWORD PTR ?gObj@@3PAUOBJECTSTRUCT@@A[edi]
  0032f	83 c4 08	 add	 esp, 8
  00332	50		 push	 eax
  00333	0f b6 87 04 01
	00 00		 movzx	 eax, BYTE PTR ?gObj@@3PAUOBJECTSTRUCT@@A[edi+260]
  0033a	52		 push	 edx
  0033b	50		 push	 eax
  0033c	68 eb 00 00 00	 push	 235			; 000000ebH
  00341	51		 push	 ecx
  00342	e8 00 00 00 00	 call	 ?ItemSerialCreateSend@@YAXHEEEHEEEEEHEE@Z ; ItemSerialCreateSend
  00347	83 c4 34	 add	 esp, 52			; 00000034H

; 1703 : 
; 1704 : 				if ( g_bRingEventItemTextLoad == FALSE )

  0034a	39 1d 00 00 00
	00		 cmp	 DWORD PTR ?g_bRingEventItemTextLoad@@3HA, ebx ; g_bRingEventItemTextLoad
  00350	0f 85 98 0f 00
	00		 jne	 $LN1@EGRecv2Anv

; 1705 : 				{
; 1706 : 					strcpy(Result.szGIFT_NAME, "Heart of Love");

  00356	8b 15 00 00 00
	00		 mov	 edx, DWORD PTR ??_C@_0O@HHCDHNEF@Heart?5of?5Love?$AA@
  0035c	a1 04 00 00 00	 mov	 eax, DWORD PTR ??_C@_0O@HHCDHNEF@Heart?5of?5Love?$AA@+4
  00361	8b 0d 08 00 00
	00		 mov	 ecx, DWORD PTR ??_C@_0O@HHCDHNEF@Heart?5of?5Love?$AA@+8
  00367	89 55 bc	 mov	 DWORD PTR _Result$[ebp+4], edx
  0036a	66 8b 15 0c 00
	00 00		 mov	 dx, WORD PTR ??_C@_0O@HHCDHNEF@Heart?5of?5Love?$AA@+12
  00371	89 45 c0	 mov	 DWORD PTR _Result$[ebp+8], eax
  00374	89 4d c4	 mov	 DWORD PTR _Result$[ebp+12], ecx
  00377	66 89 55 c8	 mov	 WORD PTR _Result$[ebp+16], dx

; 1707 : 				}
; 1708 : 				break;

  0037b	e9 6e 0f 00 00	 jmp	 $LN1@EGRecv2Anv
$LN75@EGRecv2Anv:

; 1709 : 			case 6:
; 1710 : 				gObj[aRecv->iINDEX].Money += 500000;

  00380	8b 46 04	 mov	 eax, DWORD PTR [esi+4]
  00383	69 c0 64 15 00
	00		 imul	 eax, 5476		; 00001564H
  00389	81 80 b0 00 00
	00 20 a1 07 00	 add	 DWORD PTR ?gObj@@3PAUOBJECTSTRUCT@@A[eax+176], 500000 ; 0007a120H
  00393	8d 80 b0 00 00
	00		 lea	 eax, DWORD PTR ?gObj@@3PAUOBJECTSTRUCT@@A[eax+176]

; 1711 : 				GCMoneySend(aRecv->iINDEX, gObj[aRecv->iINDEX].Money);

  00399	8b 46 04	 mov	 eax, DWORD PTR [esi+4]
  0039c	8b c8		 mov	 ecx, eax
  0039e	69 c9 64 15 00
	00		 imul	 ecx, 5476		; 00001564H
  003a4	8b 91 b0 00 00
	00		 mov	 edx, DWORD PTR ?gObj@@3PAUOBJECTSTRUCT@@A[ecx+176]
  003aa	52		 push	 edx
  003ab	50		 push	 eax
  003ac	e8 00 00 00 00	 call	 ?GCMoneySend@@YAXHK@Z	; GCMoneySend
  003b1	83 c4 08	 add	 esp, 8

; 1712 : 
; 1713 : 				if ( g_bRingEventItemTextLoad == FALSE )

  003b4	39 1d 00 00 00
	00		 cmp	 DWORD PTR ?g_bRingEventItemTextLoad@@3HA, ebx ; g_bRingEventItemTextLoad
  003ba	0f 85 2e 0f 00
	00		 jne	 $LN1@EGRecv2Anv

; 1714 : 				{
; 1715 : 					strcpy(Result.szGIFT_NAME, "500,000 Zen");

  003c0	a1 00 00 00 00	 mov	 eax, DWORD PTR ??_C@_0M@NFDLLOLF@500?0000?5Zen?$AA@
  003c5	8b 0d 04 00 00
	00		 mov	 ecx, DWORD PTR ??_C@_0M@NFDLLOLF@500?0000?5Zen?$AA@+4
  003cb	8b 15 08 00 00
	00		 mov	 edx, DWORD PTR ??_C@_0M@NFDLLOLF@500?0000?5Zen?$AA@+8
  003d1	89 45 bc	 mov	 DWORD PTR _Result$[ebp+4], eax
  003d4	89 4d c0	 mov	 DWORD PTR _Result$[ebp+8], ecx
  003d7	89 55 c4	 mov	 DWORD PTR _Result$[ebp+12], edx

; 1716 : 				}
; 1717 : 				break;

  003da	e9 0f 0f 00 00	 jmp	 $LN1@EGRecv2Anv
$LN73@EGRecv2Anv:

; 1718 : 			case 7:
; 1719 : 				gObj[aRecv->iINDEX].Money += 50000;

  003df	8b 46 04	 mov	 eax, DWORD PTR [esi+4]
  003e2	69 c0 64 15 00
	00		 imul	 eax, 5476		; 00001564H
  003e8	81 80 b0 00 00
	00 50 c3 00 00	 add	 DWORD PTR ?gObj@@3PAUOBJECTSTRUCT@@A[eax+176], 50000 ; 0000c350H
  003f2	8d 80 b0 00 00
	00		 lea	 eax, DWORD PTR ?gObj@@3PAUOBJECTSTRUCT@@A[eax+176]

; 1720 : 				GCMoneySend(aRecv->iINDEX, gObj[aRecv->iINDEX].Money);

  003f8	8b 46 04	 mov	 eax, DWORD PTR [esi+4]
  003fb	8b c8		 mov	 ecx, eax
  003fd	69 c9 64 15 00
	00		 imul	 ecx, 5476		; 00001564H
  00403	8b 91 b0 00 00
	00		 mov	 edx, DWORD PTR ?gObj@@3PAUOBJECTSTRUCT@@A[ecx+176]
  00409	52		 push	 edx
  0040a	50		 push	 eax
  0040b	e8 00 00 00 00	 call	 ?GCMoneySend@@YAXHK@Z	; GCMoneySend
  00410	83 c4 08	 add	 esp, 8

; 1721 : 
; 1722 : 				if ( g_bRingEventItemTextLoad == FALSE )

  00413	39 1d 00 00 00
	00		 cmp	 DWORD PTR ?g_bRingEventItemTextLoad@@3HA, ebx ; g_bRingEventItemTextLoad
  00419	0f 85 cf 0e 00
	00		 jne	 $LN1@EGRecv2Anv

; 1723 : 				{
; 1724 : 					strcpy(Result.szGIFT_NAME, "50,000 Zen");

  0041f	a1 00 00 00 00	 mov	 eax, DWORD PTR ??_C@_0L@DILECEGA@50?0000?5Zen?$AA@
  00424	8b 0d 04 00 00
	00		 mov	 ecx, DWORD PTR ??_C@_0L@DILECEGA@50?0000?5Zen?$AA@+4
  0042a	66 8b 15 08 00
	00 00		 mov	 dx, WORD PTR ??_C@_0L@DILECEGA@50?0000?5Zen?$AA@+8
  00431	89 45 bc	 mov	 DWORD PTR _Result$[ebp+4], eax
  00434	a0 0a 00 00 00	 mov	 al, BYTE PTR ??_C@_0L@DILECEGA@50?0000?5Zen?$AA@+10
  00439	89 4d c0	 mov	 DWORD PTR _Result$[ebp+8], ecx
  0043c	66 89 55 c4	 mov	 WORD PTR _Result$[ebp+12], dx
  00440	88 45 c6	 mov	 BYTE PTR _Result$[ebp+14], al

; 1725 : 				}
; 1726 : 				break;

  00443	e9 a6 0e 00 00	 jmp	 $LN1@EGRecv2Anv
$LN71@EGRecv2Anv:

; 1727 : 			case 8:	case 9:	case 10:
; 1728 : 				gObj[aRecv->iINDEX].Money += 30000;

  00448	8b 46 04	 mov	 eax, DWORD PTR [esi+4]
  0044b	69 c0 64 15 00
	00		 imul	 eax, 5476		; 00001564H
  00451	81 80 b0 00 00
	00 30 75 00 00	 add	 DWORD PTR ?gObj@@3PAUOBJECTSTRUCT@@A[eax+176], 30000 ; 00007530H
  0045b	8d 80 b0 00 00
	00		 lea	 eax, DWORD PTR ?gObj@@3PAUOBJECTSTRUCT@@A[eax+176]

; 1729 : 				GCMoneySend(aRecv->iINDEX, gObj[aRecv->iINDEX].Money);

  00461	8b 46 04	 mov	 eax, DWORD PTR [esi+4]
  00464	8b c8		 mov	 ecx, eax
  00466	69 c9 64 15 00
	00		 imul	 ecx, 5476		; 00001564H
  0046c	8b 91 b0 00 00
	00		 mov	 edx, DWORD PTR ?gObj@@3PAUOBJECTSTRUCT@@A[ecx+176]
  00472	52		 push	 edx
  00473	50		 push	 eax
  00474	e8 00 00 00 00	 call	 ?GCMoneySend@@YAXHK@Z	; GCMoneySend
  00479	83 c4 08	 add	 esp, 8

; 1730 : 
; 1731 : 				if ( g_bRingEventItemTextLoad == FALSE )

  0047c	39 1d 00 00 00
	00		 cmp	 DWORD PTR ?g_bRingEventItemTextLoad@@3HA, ebx ; g_bRingEventItemTextLoad
  00482	0f 85 66 0e 00
	00		 jne	 $LN1@EGRecv2Anv

; 1732 : 				{
; 1733 : 					strcpy(Result.szGIFT_NAME, "30,000 Zen");

  00488	a1 00 00 00 00	 mov	 eax, DWORD PTR ??_C@_0L@NAABOOCD@30?0000?5Zen?$AA@
  0048d	8b 0d 04 00 00
	00		 mov	 ecx, DWORD PTR ??_C@_0L@NAABOOCD@30?0000?5Zen?$AA@+4
  00493	66 8b 15 08 00
	00 00		 mov	 dx, WORD PTR ??_C@_0L@NAABOOCD@30?0000?5Zen?$AA@+8
  0049a	89 45 bc	 mov	 DWORD PTR _Result$[ebp+4], eax
  0049d	a0 0a 00 00 00	 mov	 al, BYTE PTR ??_C@_0L@NAABOOCD@30?0000?5Zen?$AA@+10
  004a2	89 4d c0	 mov	 DWORD PTR _Result$[ebp+8], ecx
  004a5	66 89 55 c4	 mov	 WORD PTR _Result$[ebp+12], dx
  004a9	88 45 c6	 mov	 BYTE PTR _Result$[ebp+14], al

; 1734 : 				}
; 1735 : 				break;

  004ac	e9 3d 0e 00 00	 jmp	 $LN1@EGRecv2Anv
$LN69@EGRecv2Anv:

; 1736 : 			case 11:
; 1737 : 				ItemSerialCreateSend(gObj[aRecv->iINDEX].m_Index, GIFT_2ANV_MAP, 
; 1738 : 					gObj[aRecv->iINDEX].X, gObj[aRecv->iINDEX].Y,
; 1739 : 					ItemGetNumberMake(12, 19),
; 1740 : 					0, 0, 0, 0, 0,
; 1741 : 					aRecv->iINDEX,
; 1742 : 					0, 0);

  004b1	8b 4e 04	 mov	 ecx, DWORD PTR [esi+4]
  004b4	8b 7e 04	 mov	 edi, DWORD PTR [esi+4]
  004b7	53		 push	 ebx
  004b8	69 ff 64 15 00
	00		 imul	 edi, 5476		; 00001564H
  004be	53		 push	 ebx
  004bf	51		 push	 ecx
  004c0	53		 push	 ebx
  004c1	53		 push	 ebx
  004c2	53		 push	 ebx
  004c3	53		 push	 ebx
  004c4	53		 push	 ebx
  004c5	6a 13		 push	 19			; 00000013H
  004c7	6a 0c		 push	 12			; 0000000cH
  004c9	e8 00 00 00 00	 call	 ?ItemGetNumberMake@@YAHHH@Z ; ItemGetNumberMake
  004ce	0f b6 97 06 01
	00 00		 movzx	 edx, BYTE PTR ?gObj@@3PAUOBJECTSTRUCT@@A[edi+262]
  004d5	8b 8f 00 00 00
	00		 mov	 ecx, DWORD PTR ?gObj@@3PAUOBJECTSTRUCT@@A[edi]
  004db	83 c4 08	 add	 esp, 8
  004de	50		 push	 eax
  004df	0f b6 87 04 01
	00 00		 movzx	 eax, BYTE PTR ?gObj@@3PAUOBJECTSTRUCT@@A[edi+260]
  004e6	52		 push	 edx
  004e7	50		 push	 eax
  004e8	68 eb 00 00 00	 push	 235			; 000000ebH
  004ed	51		 push	 ecx
  004ee	e8 00 00 00 00	 call	 ?ItemSerialCreateSend@@YAXHEEEHEEEEEHEE@Z ; ItemSerialCreateSend
  004f3	83 c4 34	 add	 esp, 52			; 00000034H

; 1743 : 
; 1744 : 				if ( g_bRingEventItemTextLoad == FALSE )

  004f6	39 1d 00 00 00
	00		 cmp	 DWORD PTR ?g_bRingEventItemTextLoad@@3HA, ebx ; g_bRingEventItemTextLoad
  004fc	0f 85 ec 0d 00
	00		 jne	 $LN1@EGRecv2Anv

; 1745 : 				{
; 1746 : 					strcpy(Result.szGIFT_NAME, ItemAttribute[ITEMGET(12, 11)].Name);	// #error Change 11 to 19

  00502	33 c0		 xor	 eax, eax
$LL105@EGRecv2Anv:
  00504	8a 88 a4 24 0a
	00		 mov	 cl, BYTE PTR ?ItemAttribute@@3PAUITEM_ATTRIBUTE@@A[eax+664740]
  0050a	88 4c 05 bc	 mov	 BYTE PTR _Result$[ebp+eax+4], cl
  0050e	40		 inc	 eax
  0050f	3a cb		 cmp	 cl, bl
  00511	75 f1		 jne	 SHORT $LL105@EGRecv2Anv

; 1747 : 				}
; 1748 : 				break;

  00513	e9 d6 0d 00 00	 jmp	 $LN1@EGRecv2Anv
$LN67@EGRecv2Anv:

; 1749 : 			case 12:
; 1750 : 				ItemSerialCreateSend(gObj[aRecv->iINDEX].m_Index, GIFT_2ANV_MAP, 
; 1751 : 					gObj[aRecv->iINDEX].X, gObj[aRecv->iINDEX].Y,
; 1752 : 					ItemGetNumberMake(12, 18),
; 1753 : 					0, 0, 0, 0, 0,
; 1754 : 					aRecv->iINDEX,
; 1755 : 					0, 0);

  00518	8b 56 04	 mov	 edx, DWORD PTR [esi+4]
  0051b	8b 7e 04	 mov	 edi, DWORD PTR [esi+4]
  0051e	53		 push	 ebx
  0051f	69 ff 64 15 00
	00		 imul	 edi, 5476		; 00001564H
  00525	53		 push	 ebx
  00526	52		 push	 edx
  00527	53		 push	 ebx
  00528	53		 push	 ebx
  00529	53		 push	 ebx
  0052a	53		 push	 ebx
  0052b	53		 push	 ebx
  0052c	6a 12		 push	 18			; 00000012H
  0052e	6a 0c		 push	 12			; 0000000cH
  00530	e8 00 00 00 00	 call	 ?ItemGetNumberMake@@YAHHH@Z ; ItemGetNumberMake
  00535	0f b6 8f 04 01
	00 00		 movzx	 ecx, BYTE PTR ?gObj@@3PAUOBJECTSTRUCT@@A[edi+260]
  0053c	8b 97 00 00 00
	00		 mov	 edx, DWORD PTR ?gObj@@3PAUOBJECTSTRUCT@@A[edi]
  00542	83 c4 08	 add	 esp, 8
  00545	50		 push	 eax
  00546	0f b6 87 06 01
	00 00		 movzx	 eax, BYTE PTR ?gObj@@3PAUOBJECTSTRUCT@@A[edi+262]
  0054d	50		 push	 eax
  0054e	51		 push	 ecx
  0054f	68 eb 00 00 00	 push	 235			; 000000ebH
  00554	52		 push	 edx
  00555	e8 00 00 00 00	 call	 ?ItemSerialCreateSend@@YAXHEEEHEEEEEHEE@Z ; ItemSerialCreateSend
  0055a	83 c4 34	 add	 esp, 52			; 00000034H

; 1756 : 
; 1757 : 				if ( g_bRingEventItemTextLoad == FALSE )

  0055d	39 1d 00 00 00
	00		 cmp	 DWORD PTR ?g_bRingEventItemTextLoad@@3HA, ebx ; g_bRingEventItemTextLoad
  00563	0f 85 85 0d 00
	00		 jne	 $LN1@EGRecv2Anv

; 1758 : 				{
; 1759 : 					strcpy(Result.szGIFT_NAME, ItemAttribute[ITEMGET(12, 18)].Name);

  00569	33 c0		 xor	 eax, eax
  0056b	eb 03 8d 49 00	 npad	 5
$LL106@EGRecv2Anv:
  00570	8a 88 98 27 0a
	00		 mov	 cl, BYTE PTR ?ItemAttribute@@3PAUITEM_ATTRIBUTE@@A[eax+665496]
  00576	88 4c 05 bc	 mov	 BYTE PTR _Result$[ebp+eax+4], cl
  0057a	40		 inc	 eax
  0057b	3a cb		 cmp	 cl, bl
  0057d	75 f1		 jne	 SHORT $LL106@EGRecv2Anv

; 1760 : 				}
; 1761 : 				break;

  0057f	e9 6a 0d 00 00	 jmp	 $LN1@EGRecv2Anv
$LN65@EGRecv2Anv:

; 1762 : 			case 13:
; 1763 : 				ItemSerialCreateSend(gObj[aRecv->iINDEX].m_Index, GIFT_2ANV_MAP, 
; 1764 : 					gObj[aRecv->iINDEX].X, gObj[aRecv->iINDEX].Y,
; 1765 : 					ItemGetNumberMake(12, 17),
; 1766 : 					0, 0, 0, 0, 0,
; 1767 : 					aRecv->iINDEX,
; 1768 : 					0, 0);

  00584	8b 46 04	 mov	 eax, DWORD PTR [esi+4]
  00587	8b 7e 04	 mov	 edi, DWORD PTR [esi+4]
  0058a	53		 push	 ebx
  0058b	69 ff 64 15 00
	00		 imul	 edi, 5476		; 00001564H
  00591	53		 push	 ebx
  00592	50		 push	 eax
  00593	53		 push	 ebx
  00594	53		 push	 ebx
  00595	53		 push	 ebx
  00596	53		 push	 ebx
  00597	53		 push	 ebx
  00598	6a 11		 push	 17			; 00000011H
  0059a	6a 0c		 push	 12			; 0000000cH
  0059c	e8 00 00 00 00	 call	 ?ItemGetNumberMake@@YAHHH@Z ; ItemGetNumberMake
  005a1	0f b6 8f 06 01
	00 00		 movzx	 ecx, BYTE PTR ?gObj@@3PAUOBJECTSTRUCT@@A[edi+262]
  005a8	0f b6 97 04 01
	00 00		 movzx	 edx, BYTE PTR ?gObj@@3PAUOBJECTSTRUCT@@A[edi+260]
  005af	83 c4 08	 add	 esp, 8
  005b2	50		 push	 eax
  005b3	8b 87 00 00 00
	00		 mov	 eax, DWORD PTR ?gObj@@3PAUOBJECTSTRUCT@@A[edi]
  005b9	51		 push	 ecx
  005ba	52		 push	 edx
  005bb	68 eb 00 00 00	 push	 235			; 000000ebH
  005c0	50		 push	 eax
  005c1	e8 00 00 00 00	 call	 ?ItemSerialCreateSend@@YAXHEEEHEEEEEHEE@Z ; ItemSerialCreateSend
  005c6	83 c4 34	 add	 esp, 52			; 00000034H

; 1769 : 
; 1770 : 				if ( g_bRingEventItemTextLoad == FALSE )

  005c9	39 1d 00 00 00
	00		 cmp	 DWORD PTR ?g_bRingEventItemTextLoad@@3HA, ebx ; g_bRingEventItemTextLoad
  005cf	0f 85 19 0d 00
	00		 jne	 $LN1@EGRecv2Anv

; 1771 : 				{
; 1772 : 					strcpy(Result.szGIFT_NAME, ItemAttribute[ITEMGET(12, 17)].Name);

  005d5	33 c0		 xor	 eax, eax
  005d7	eb 07 8d a4 24
	00 00 00 00	 npad	 9
$LL107@EGRecv2Anv:
  005e0	8a 88 2c 27 0a
	00		 mov	 cl, BYTE PTR ?ItemAttribute@@3PAUITEM_ATTRIBUTE@@A[eax+665388]
  005e6	88 4c 05 bc	 mov	 BYTE PTR _Result$[ebp+eax+4], cl
  005ea	40		 inc	 eax
  005eb	3a cb		 cmp	 cl, bl
  005ed	75 f1		 jne	 SHORT $LL107@EGRecv2Anv

; 1773 : 				}
; 1774 : 				break;

  005ef	e9 fa 0c 00 00	 jmp	 $LN1@EGRecv2Anv
$LN63@EGRecv2Anv:

; 1775 : 			case 14:
; 1776 : 				ItemSerialCreateSend(gObj[aRecv->iINDEX].m_Index, GIFT_2ANV_MAP, 
; 1777 : 					gObj[aRecv->iINDEX].X, gObj[aRecv->iINDEX].Y,
; 1778 : 					ItemGetNumberMake(12, 16),
; 1779 : 					0, 0, 0, 0, 0,
; 1780 : 					aRecv->iINDEX,
; 1781 : 					0, 0);

  005f4	8b 4e 04	 mov	 ecx, DWORD PTR [esi+4]
  005f7	8b 7e 04	 mov	 edi, DWORD PTR [esi+4]
  005fa	53		 push	 ebx
  005fb	69 ff 64 15 00
	00		 imul	 edi, 5476		; 00001564H
  00601	53		 push	 ebx
  00602	51		 push	 ecx
  00603	53		 push	 ebx
  00604	53		 push	 ebx
  00605	53		 push	 ebx
  00606	53		 push	 ebx
  00607	53		 push	 ebx
  00608	6a 10		 push	 16			; 00000010H
  0060a	6a 0c		 push	 12			; 0000000cH
  0060c	e8 00 00 00 00	 call	 ?ItemGetNumberMake@@YAHHH@Z ; ItemGetNumberMake
  00611	0f b6 97 06 01
	00 00		 movzx	 edx, BYTE PTR ?gObj@@3PAUOBJECTSTRUCT@@A[edi+262]
  00618	8b 8f 00 00 00
	00		 mov	 ecx, DWORD PTR ?gObj@@3PAUOBJECTSTRUCT@@A[edi]
  0061e	83 c4 08	 add	 esp, 8
  00621	50		 push	 eax
  00622	0f b6 87 04 01
	00 00		 movzx	 eax, BYTE PTR ?gObj@@3PAUOBJECTSTRUCT@@A[edi+260]
  00629	52		 push	 edx
  0062a	50		 push	 eax
  0062b	68 eb 00 00 00	 push	 235			; 000000ebH
  00630	51		 push	 ecx
  00631	e8 00 00 00 00	 call	 ?ItemSerialCreateSend@@YAXHEEEHEEEEEHEE@Z ; ItemSerialCreateSend
  00636	83 c4 34	 add	 esp, 52			; 00000034H

; 1782 : 
; 1783 : 				if ( g_bRingEventItemTextLoad == FALSE )

  00639	39 1d 00 00 00
	00		 cmp	 DWORD PTR ?g_bRingEventItemTextLoad@@3HA, ebx ; g_bRingEventItemTextLoad
  0063f	0f 85 a9 0c 00
	00		 jne	 $LN1@EGRecv2Anv

; 1784 : 				{
; 1785 : 					strcpy(Result.szGIFT_NAME, ItemAttribute[ITEMGET(12, 16)].Name);

  00645	33 c0		 xor	 eax, eax
  00647	eb 07 8d a4 24
	00 00 00 00	 npad	 9
$LL108@EGRecv2Anv:
  00650	8a 88 c0 26 0a
	00		 mov	 cl, BYTE PTR ?ItemAttribute@@3PAUITEM_ATTRIBUTE@@A[eax+665280]
  00656	88 4c 05 bc	 mov	 BYTE PTR _Result$[ebp+eax+4], cl
  0065a	40		 inc	 eax
  0065b	3a cb		 cmp	 cl, bl
  0065d	75 f1		 jne	 SHORT $LL108@EGRecv2Anv

; 1786 : 				}
; 1787 : 				break;

  0065f	e9 8a 0c 00 00	 jmp	 $LN1@EGRecv2Anv
$LN61@EGRecv2Anv:

; 1788 : 			case 15:
; 1789 : 				ItemSerialCreateSend(gObj[aRecv->iINDEX].m_Index, GIFT_2ANV_MAP, 
; 1790 : 					gObj[aRecv->iINDEX].X, gObj[aRecv->iINDEX].Y,
; 1791 : 					ItemGetNumberMake(12, 14),
; 1792 : 					0, 0, 0, 0, 0,
; 1793 : 					aRecv->iINDEX,
; 1794 : 					0, 0);

  00664	8b 56 04	 mov	 edx, DWORD PTR [esi+4]
  00667	8b 7e 04	 mov	 edi, DWORD PTR [esi+4]
  0066a	53		 push	 ebx
  0066b	69 ff 64 15 00
	00		 imul	 edi, 5476		; 00001564H
  00671	53		 push	 ebx
  00672	52		 push	 edx
  00673	53		 push	 ebx
  00674	53		 push	 ebx
  00675	53		 push	 ebx
  00676	53		 push	 ebx
  00677	53		 push	 ebx
  00678	6a 0e		 push	 14			; 0000000eH
  0067a	6a 0c		 push	 12			; 0000000cH
  0067c	e8 00 00 00 00	 call	 ?ItemGetNumberMake@@YAHHH@Z ; ItemGetNumberMake
  00681	0f b6 8f 04 01
	00 00		 movzx	 ecx, BYTE PTR ?gObj@@3PAUOBJECTSTRUCT@@A[edi+260]
  00688	8b 97 00 00 00
	00		 mov	 edx, DWORD PTR ?gObj@@3PAUOBJECTSTRUCT@@A[edi]
  0068e	83 c4 08	 add	 esp, 8
  00691	50		 push	 eax
  00692	0f b6 87 06 01
	00 00		 movzx	 eax, BYTE PTR ?gObj@@3PAUOBJECTSTRUCT@@A[edi+262]
  00699	50		 push	 eax
  0069a	51		 push	 ecx
  0069b	68 eb 00 00 00	 push	 235			; 000000ebH
  006a0	52		 push	 edx
  006a1	e8 00 00 00 00	 call	 ?ItemSerialCreateSend@@YAXHEEEHEEEEEHEE@Z ; ItemSerialCreateSend
  006a6	83 c4 34	 add	 esp, 52			; 00000034H

; 1795 : 
; 1796 : 				if ( g_bRingEventItemTextLoad == FALSE )

  006a9	39 1d 00 00 00
	00		 cmp	 DWORD PTR ?g_bRingEventItemTextLoad@@3HA, ebx ; g_bRingEventItemTextLoad
  006af	0f 85 39 0c 00
	00		 jne	 $LN1@EGRecv2Anv

; 1797 : 				{
; 1798 : 					strcpy(Result.szGIFT_NAME, ItemAttribute[ITEMGET(12, 14)].Name);

  006b5	33 c0		 xor	 eax, eax
  006b7	eb 07 8d a4 24
	00 00 00 00	 npad	 9
$LL109@EGRecv2Anv:
  006c0	8a 88 e8 25 0a
	00		 mov	 cl, BYTE PTR ?ItemAttribute@@3PAUITEM_ATTRIBUTE@@A[eax+665064]
  006c6	88 4c 05 bc	 mov	 BYTE PTR _Result$[ebp+eax+4], cl
  006ca	40		 inc	 eax
  006cb	3a cb		 cmp	 cl, bl
  006cd	75 f1		 jne	 SHORT $LL109@EGRecv2Anv

; 1799 : 				}
; 1800 : 				break;

  006cf	e9 1a 0c 00 00	 jmp	 $LN1@EGRecv2Anv
$LN59@EGRecv2Anv:

; 1801 : 			case 16:
; 1802 : 				ItemSerialCreateSend(gObj[aRecv->iINDEX].m_Index, GIFT_2ANV_MAP, 
; 1803 : 					gObj[aRecv->iINDEX].X, gObj[aRecv->iINDEX].Y,
; 1804 : 					ItemGetNumberMake(12, 13),
; 1805 : 					0, 0, 0, 0, 0,
; 1806 : 					aRecv->iINDEX,
; 1807 : 					0, 0);

  006d4	8b 46 04	 mov	 eax, DWORD PTR [esi+4]
  006d7	8b 7e 04	 mov	 edi, DWORD PTR [esi+4]
  006da	53		 push	 ebx
  006db	69 ff 64 15 00
	00		 imul	 edi, 5476		; 00001564H
  006e1	53		 push	 ebx
  006e2	50		 push	 eax
  006e3	53		 push	 ebx
  006e4	53		 push	 ebx
  006e5	53		 push	 ebx
  006e6	53		 push	 ebx
  006e7	53		 push	 ebx
  006e8	6a 0d		 push	 13			; 0000000dH
  006ea	6a 0c		 push	 12			; 0000000cH
  006ec	e8 00 00 00 00	 call	 ?ItemGetNumberMake@@YAHHH@Z ; ItemGetNumberMake
  006f1	0f b6 8f 06 01
	00 00		 movzx	 ecx, BYTE PTR ?gObj@@3PAUOBJECTSTRUCT@@A[edi+262]
  006f8	0f b6 97 04 01
	00 00		 movzx	 edx, BYTE PTR ?gObj@@3PAUOBJECTSTRUCT@@A[edi+260]
  006ff	83 c4 08	 add	 esp, 8
  00702	50		 push	 eax
  00703	8b 87 00 00 00
	00		 mov	 eax, DWORD PTR ?gObj@@3PAUOBJECTSTRUCT@@A[edi]
  00709	51		 push	 ecx
  0070a	52		 push	 edx
  0070b	68 eb 00 00 00	 push	 235			; 000000ebH
  00710	50		 push	 eax
  00711	e8 00 00 00 00	 call	 ?ItemSerialCreateSend@@YAXHEEEHEEEEEHEE@Z ; ItemSerialCreateSend
  00716	83 c4 34	 add	 esp, 52			; 00000034H

; 1808 : 
; 1809 : 				if ( g_bRingEventItemTextLoad == FALSE )

  00719	39 1d 00 00 00
	00		 cmp	 DWORD PTR ?g_bRingEventItemTextLoad@@3HA, ebx ; g_bRingEventItemTextLoad
  0071f	0f 85 c9 0b 00
	00		 jne	 $LN1@EGRecv2Anv

; 1810 : 				{
; 1811 : 					strcpy(Result.szGIFT_NAME, ItemAttribute[ITEMGET(12, 13)].Name);

  00725	33 c0		 xor	 eax, eax
  00727	eb 07 8d a4 24
	00 00 00 00	 npad	 9
$LL110@EGRecv2Anv:
  00730	8a 88 7c 25 0a
	00		 mov	 cl, BYTE PTR ?ItemAttribute@@3PAUITEM_ATTRIBUTE@@A[eax+664956]
  00736	88 4c 05 bc	 mov	 BYTE PTR _Result$[ebp+eax+4], cl
  0073a	40		 inc	 eax
  0073b	3a cb		 cmp	 cl, bl
  0073d	75 f1		 jne	 SHORT $LL110@EGRecv2Anv

; 1812 : 				}
; 1813 : 				break;

  0073f	e9 aa 0b 00 00	 jmp	 $LN1@EGRecv2Anv
$LN57@EGRecv2Anv:

; 1814 : 			case 17:
; 1815 : 				ItemSerialCreateSend(gObj[aRecv->iINDEX].m_Index, GIFT_2ANV_MAP, 
; 1816 : 					gObj[aRecv->iINDEX].X, gObj[aRecv->iINDEX].Y,
; 1817 : 					ItemGetNumberMake(12, 12),
; 1818 : 					0, 0, 0, 0, 0,
; 1819 : 					aRecv->iINDEX,
; 1820 : 					0, 0);

  00744	8b 4e 04	 mov	 ecx, DWORD PTR [esi+4]
  00747	8b 7e 04	 mov	 edi, DWORD PTR [esi+4]
  0074a	53		 push	 ebx
  0074b	69 ff 64 15 00
	00		 imul	 edi, 5476		; 00001564H
  00751	53		 push	 ebx
  00752	51		 push	 ecx
  00753	53		 push	 ebx
  00754	53		 push	 ebx
  00755	53		 push	 ebx
  00756	53		 push	 ebx
  00757	53		 push	 ebx
  00758	6a 0c		 push	 12			; 0000000cH
  0075a	6a 0c		 push	 12			; 0000000cH
  0075c	e8 00 00 00 00	 call	 ?ItemGetNumberMake@@YAHHH@Z ; ItemGetNumberMake
  00761	0f b6 97 06 01
	00 00		 movzx	 edx, BYTE PTR ?gObj@@3PAUOBJECTSTRUCT@@A[edi+262]
  00768	8b 8f 00 00 00
	00		 mov	 ecx, DWORD PTR ?gObj@@3PAUOBJECTSTRUCT@@A[edi]
  0076e	83 c4 08	 add	 esp, 8
  00771	50		 push	 eax
  00772	0f b6 87 04 01
	00 00		 movzx	 eax, BYTE PTR ?gObj@@3PAUOBJECTSTRUCT@@A[edi+260]
  00779	52		 push	 edx
  0077a	50		 push	 eax
  0077b	68 eb 00 00 00	 push	 235			; 000000ebH
  00780	51		 push	 ecx
  00781	e8 00 00 00 00	 call	 ?ItemSerialCreateSend@@YAXHEEEHEEEEEHEE@Z ; ItemSerialCreateSend
  00786	83 c4 34	 add	 esp, 52			; 00000034H

; 1821 : 
; 1822 : 				if ( g_bRingEventItemTextLoad == FALSE )

  00789	39 1d 00 00 00
	00		 cmp	 DWORD PTR ?g_bRingEventItemTextLoad@@3HA, ebx ; g_bRingEventItemTextLoad
  0078f	0f 85 59 0b 00
	00		 jne	 $LN1@EGRecv2Anv

; 1823 : 				{
; 1824 : 					strcpy(Result.szGIFT_NAME, ItemAttribute[ITEMGET(12, 12)].Name);

  00795	33 c0		 xor	 eax, eax
  00797	eb 07 8d a4 24
	00 00 00 00	 npad	 9
$LL111@EGRecv2Anv:
  007a0	8a 88 10 25 0a
	00		 mov	 cl, BYTE PTR ?ItemAttribute@@3PAUITEM_ATTRIBUTE@@A[eax+664848]
  007a6	88 4c 05 bc	 mov	 BYTE PTR _Result$[ebp+eax+4], cl
  007aa	40		 inc	 eax
  007ab	3a cb		 cmp	 cl, bl
  007ad	75 f1		 jne	 SHORT $LL111@EGRecv2Anv

; 1825 : 				}
; 1826 : 				break;

  007af	e9 3a 0b 00 00	 jmp	 $LN1@EGRecv2Anv
$LN55@EGRecv2Anv:

; 1827 : 			case 18:
; 1828 : 				ItemSerialCreateSend(gObj[aRecv->iINDEX].m_Index, GIFT_2ANV_MAP, 
; 1829 : 					gObj[aRecv->iINDEX].X, gObj[aRecv->iINDEX].Y,
; 1830 : 					ItemGetNumberMake(13, 2),
; 1831 : 					0, 255, 0, 0, 0,
; 1832 : 					aRecv->iINDEX,
; 1833 : 					0, 0);

  007b4	8b 56 04	 mov	 edx, DWORD PTR [esi+4]
  007b7	8b 7e 04	 mov	 edi, DWORD PTR [esi+4]
  007ba	53		 push	 ebx
  007bb	69 ff 64 15 00
	00		 imul	 edi, 5476		; 00001564H
  007c1	53		 push	 ebx
  007c2	52		 push	 edx
  007c3	53		 push	 ebx
  007c4	53		 push	 ebx
  007c5	53		 push	 ebx
  007c6	68 ff 00 00 00	 push	 255			; 000000ffH
  007cb	53		 push	 ebx
  007cc	6a 02		 push	 2
  007ce	6a 0d		 push	 13			; 0000000dH
  007d0	e8 00 00 00 00	 call	 ?ItemGetNumberMake@@YAHHH@Z ; ItemGetNumberMake
  007d5	0f b6 8f 04 01
	00 00		 movzx	 ecx, BYTE PTR ?gObj@@3PAUOBJECTSTRUCT@@A[edi+260]
  007dc	8b 97 00 00 00
	00		 mov	 edx, DWORD PTR ?gObj@@3PAUOBJECTSTRUCT@@A[edi]
  007e2	83 c4 08	 add	 esp, 8
  007e5	50		 push	 eax
  007e6	0f b6 87 06 01
	00 00		 movzx	 eax, BYTE PTR ?gObj@@3PAUOBJECTSTRUCT@@A[edi+262]
  007ed	50		 push	 eax
  007ee	51		 push	 ecx
  007ef	68 eb 00 00 00	 push	 235			; 000000ebH
  007f4	52		 push	 edx
  007f5	e8 00 00 00 00	 call	 ?ItemSerialCreateSend@@YAXHEEEHEEEEEHEE@Z ; ItemSerialCreateSend
  007fa	83 c4 34	 add	 esp, 52			; 00000034H

; 1834 : 
; 1835 : 				if ( g_bRingEventItemTextLoad == FALSE )

  007fd	39 1d 00 00 00
	00		 cmp	 DWORD PTR ?g_bRingEventItemTextLoad@@3HA, ebx ; g_bRingEventItemTextLoad
  00803	0f 85 e5 0a 00
	00		 jne	 $LN1@EGRecv2Anv

; 1836 : 				{
; 1837 : 					strcpy(Result.szGIFT_NAME, ItemAttribute[ITEMGET(13, 2)].Name);

  00809	33 c0		 xor	 eax, eax
  0080b	eb 03 8d 49 00	 npad	 5
$LL112@EGRecv2Anv:
  00810	8a 88 d8 f8 0a
	00		 mov	 cl, BYTE PTR ?ItemAttribute@@3PAUITEM_ATTRIBUTE@@A[eax+719064]
  00816	88 4c 05 bc	 mov	 BYTE PTR _Result$[ebp+eax+4], cl
  0081a	40		 inc	 eax
  0081b	3a cb		 cmp	 cl, bl
  0081d	75 f1		 jne	 SHORT $LL112@EGRecv2Anv

; 1838 : 				}
; 1839 : 				break;

  0081f	e9 ca 0a 00 00	 jmp	 $LN1@EGRecv2Anv
$LN53@EGRecv2Anv:

; 1840 : 			case 19:
; 1841 : 				ItemSerialCreateSend(gObj[aRecv->iINDEX].m_Index, GIFT_2ANV_MAP, 
; 1842 : 					gObj[aRecv->iINDEX].X, gObj[aRecv->iINDEX].Y,
; 1843 : 					ItemGetNumberMake(13, 3),
; 1844 : 					0, 255, 0, 0, 0,
; 1845 : 					aRecv->iINDEX,
; 1846 : 					0, 0);

  00824	8b 46 04	 mov	 eax, DWORD PTR [esi+4]
  00827	8b 7e 04	 mov	 edi, DWORD PTR [esi+4]
  0082a	53		 push	 ebx
  0082b	69 ff 64 15 00
	00		 imul	 edi, 5476		; 00001564H
  00831	53		 push	 ebx
  00832	50		 push	 eax
  00833	53		 push	 ebx
  00834	53		 push	 ebx
  00835	53		 push	 ebx
  00836	68 ff 00 00 00	 push	 255			; 000000ffH
  0083b	53		 push	 ebx
  0083c	6a 03		 push	 3
  0083e	6a 0d		 push	 13			; 0000000dH
  00840	e8 00 00 00 00	 call	 ?ItemGetNumberMake@@YAHHH@Z ; ItemGetNumberMake
  00845	0f b6 8f 06 01
	00 00		 movzx	 ecx, BYTE PTR ?gObj@@3PAUOBJECTSTRUCT@@A[edi+262]
  0084c	0f b6 97 04 01
	00 00		 movzx	 edx, BYTE PTR ?gObj@@3PAUOBJECTSTRUCT@@A[edi+260]
  00853	83 c4 08	 add	 esp, 8
  00856	50		 push	 eax
  00857	8b 87 00 00 00
	00		 mov	 eax, DWORD PTR ?gObj@@3PAUOBJECTSTRUCT@@A[edi]
  0085d	51		 push	 ecx
  0085e	52		 push	 edx
  0085f	68 eb 00 00 00	 push	 235			; 000000ebH
  00864	50		 push	 eax
  00865	e8 00 00 00 00	 call	 ?ItemSerialCreateSend@@YAXHEEEHEEEEEHEE@Z ; ItemSerialCreateSend
  0086a	83 c4 34	 add	 esp, 52			; 00000034H

; 1847 : 
; 1848 : 				if ( g_bRingEventItemTextLoad == FALSE )

  0086d	39 1d 00 00 00
	00		 cmp	 DWORD PTR ?g_bRingEventItemTextLoad@@3HA, ebx ; g_bRingEventItemTextLoad
  00873	0f 85 75 0a 00
	00		 jne	 $LN1@EGRecv2Anv

; 1849 : 				{
; 1850 : 					strcpy(Result.szGIFT_NAME, ItemAttribute[ITEMGET(13, 2)].Name);	// #error Change 2 to 3

  00879	33 c0		 xor	 eax, eax
  0087b	eb 03 8d 49 00	 npad	 5
$LL113@EGRecv2Anv:
  00880	8a 88 d8 f8 0a
	00		 mov	 cl, BYTE PTR ?ItemAttribute@@3PAUITEM_ATTRIBUTE@@A[eax+719064]
  00886	88 4c 05 bc	 mov	 BYTE PTR _Result$[ebp+eax+4], cl
  0088a	40		 inc	 eax
  0088b	3a cb		 cmp	 cl, bl
  0088d	75 f1		 jne	 SHORT $LL113@EGRecv2Anv

; 1851 : 				}
; 1852 : 				break;

  0088f	e9 5a 0a 00 00	 jmp	 $LN1@EGRecv2Anv
$LN51@EGRecv2Anv:

; 1853 : 			case 20:
; 1854 : 				ItemSerialCreateSend(gObj[aRecv->iINDEX].m_Index, GIFT_2ANV_MAP, 
; 1855 : 					gObj[aRecv->iINDEX].X, gObj[aRecv->iINDEX].Y,
; 1856 : 					ItemGetNumberMake(14, 16),
; 1857 : 					0, 0, 0, 0, 0,
; 1858 : 					aRecv->iINDEX,
; 1859 : 					0, 0);

  00894	8b 4e 04	 mov	 ecx, DWORD PTR [esi+4]
  00897	8b 7e 04	 mov	 edi, DWORD PTR [esi+4]
  0089a	53		 push	 ebx
  0089b	69 ff 64 15 00
	00		 imul	 edi, 5476		; 00001564H
  008a1	53		 push	 ebx
  008a2	51		 push	 ecx
  008a3	53		 push	 ebx
  008a4	53		 push	 ebx
  008a5	53		 push	 ebx
  008a6	53		 push	 ebx
  008a7	53		 push	 ebx
  008a8	6a 10		 push	 16			; 00000010H
  008aa	6a 0e		 push	 14			; 0000000eH
  008ac	e8 00 00 00 00	 call	 ?ItemGetNumberMake@@YAHHH@Z ; ItemGetNumberMake
  008b1	0f b6 97 06 01
	00 00		 movzx	 edx, BYTE PTR ?gObj@@3PAUOBJECTSTRUCT@@A[edi+262]
  008b8	8b 8f 00 00 00
	00		 mov	 ecx, DWORD PTR ?gObj@@3PAUOBJECTSTRUCT@@A[edi]
  008be	83 c4 08	 add	 esp, 8
  008c1	50		 push	 eax
  008c2	0f b6 87 04 01
	00 00		 movzx	 eax, BYTE PTR ?gObj@@3PAUOBJECTSTRUCT@@A[edi+260]
  008c9	52		 push	 edx
  008ca	50		 push	 eax
  008cb	68 eb 00 00 00	 push	 235			; 000000ebH
  008d0	51		 push	 ecx
  008d1	e8 00 00 00 00	 call	 ?ItemSerialCreateSend@@YAXHEEEHEEEEEHEE@Z ; ItemSerialCreateSend
  008d6	83 c4 34	 add	 esp, 52			; 00000034H

; 1860 : 
; 1861 : 				if ( g_bRingEventItemTextLoad == FALSE )

  008d9	39 1d 00 00 00
	00		 cmp	 DWORD PTR ?g_bRingEventItemTextLoad@@3HA, ebx ; g_bRingEventItemTextLoad
  008df	0f 85 09 0a 00
	00		 jne	 $LN1@EGRecv2Anv

; 1862 : 				{
; 1863 : 					strcpy(Result.szGIFT_NAME, ItemAttribute[ITEMGET(14, 16)].Name);

  008e5	33 c0		 xor	 eax, eax
  008e7	eb 07 8d a4 24
	00 00 00 00	 npad	 9
$LL114@EGRecv2Anv:
  008f0	8a 88 c0 d6 0b
	00		 mov	 cl, BYTE PTR ?ItemAttribute@@3PAUITEM_ATTRIBUTE@@A[eax+775872]
  008f6	88 4c 05 bc	 mov	 BYTE PTR _Result$[ebp+eax+4], cl
  008fa	40		 inc	 eax
  008fb	3a cb		 cmp	 cl, bl
  008fd	75 f1		 jne	 SHORT $LL114@EGRecv2Anv

; 1864 : 				}
; 1865 : 				break;

  008ff	e9 ea 09 00 00	 jmp	 $LN1@EGRecv2Anv
$LN49@EGRecv2Anv:

; 1866 : 			case 21:
; 1867 : 				ItemSerialCreateSend(gObj[aRecv->iINDEX].m_Index, GIFT_2ANV_MAP, 
; 1868 : 					gObj[aRecv->iINDEX].X, gObj[aRecv->iINDEX].Y,
; 1869 : 					ItemGetNumberMake(13, 0),
; 1870 : 					0, 255, 0, 0, 0,
; 1871 : 					aRecv->iINDEX,
; 1872 : 					0, 0);

  00904	8b 56 04	 mov	 edx, DWORD PTR [esi+4]
  00907	8b 7e 04	 mov	 edi, DWORD PTR [esi+4]
  0090a	53		 push	 ebx
  0090b	69 ff 64 15 00
	00		 imul	 edi, 5476		; 00001564H
  00911	53		 push	 ebx
  00912	52		 push	 edx
  00913	53		 push	 ebx
  00914	53		 push	 ebx
  00915	53		 push	 ebx
  00916	68 ff 00 00 00	 push	 255			; 000000ffH
  0091b	53		 push	 ebx
  0091c	53		 push	 ebx
  0091d	6a 0d		 push	 13			; 0000000dH
  0091f	e8 00 00 00 00	 call	 ?ItemGetNumberMake@@YAHHH@Z ; ItemGetNumberMake
  00924	0f b6 8f 04 01
	00 00		 movzx	 ecx, BYTE PTR ?gObj@@3PAUOBJECTSTRUCT@@A[edi+260]
  0092b	8b 97 00 00 00
	00		 mov	 edx, DWORD PTR ?gObj@@3PAUOBJECTSTRUCT@@A[edi]
  00931	83 c4 08	 add	 esp, 8
  00934	50		 push	 eax
  00935	0f b6 87 06 01
	00 00		 movzx	 eax, BYTE PTR ?gObj@@3PAUOBJECTSTRUCT@@A[edi+262]
  0093c	50		 push	 eax
  0093d	51		 push	 ecx
  0093e	68 eb 00 00 00	 push	 235			; 000000ebH
  00943	52		 push	 edx
  00944	e8 00 00 00 00	 call	 ?ItemSerialCreateSend@@YAXHEEEHEEEEEHEE@Z ; ItemSerialCreateSend
  00949	83 c4 34	 add	 esp, 52			; 00000034H

; 1873 : 
; 1874 : 				if ( g_bRingEventItemTextLoad == FALSE )

  0094c	39 1d 00 00 00
	00		 cmp	 DWORD PTR ?g_bRingEventItemTextLoad@@3HA, ebx ; g_bRingEventItemTextLoad
  00952	0f 85 96 09 00
	00		 jne	 $LN1@EGRecv2Anv

; 1875 : 				{
; 1876 : 					strcpy(Result.szGIFT_NAME, ItemAttribute[ITEMGET(13, 0)].Name);

  00958	33 c0		 xor	 eax, eax
  0095a	8d 9b 00 00 00
	00		 npad	 6
$LL115@EGRecv2Anv:
  00960	8a 88 00 f8 0a
	00		 mov	 cl, BYTE PTR ?ItemAttribute@@3PAUITEM_ATTRIBUTE@@A[eax+718848]
  00966	88 4c 05 bc	 mov	 BYTE PTR _Result$[ebp+eax+4], cl
  0096a	40		 inc	 eax
  0096b	3a cb		 cmp	 cl, bl
  0096d	75 f1		 jne	 SHORT $LL115@EGRecv2Anv

; 1877 : 				}
; 1878 : 				break;

  0096f	e9 7a 09 00 00	 jmp	 $LN1@EGRecv2Anv
$LN47@EGRecv2Anv:

; 1879 : 			case 22:
; 1880 : 				ItemSerialCreateSend(gObj[aRecv->iINDEX].m_Index, GIFT_2ANV_MAP, 
; 1881 : 					gObj[aRecv->iINDEX].X, gObj[aRecv->iINDEX].Y,
; 1882 : 					ItemGetNumberMake(13, 1),
; 1883 : 					0, 255, 0, 0, 0,
; 1884 : 					aRecv->iINDEX,
; 1885 : 					0, 0);

  00974	8b 46 04	 mov	 eax, DWORD PTR [esi+4]
  00977	8b 7e 04	 mov	 edi, DWORD PTR [esi+4]
  0097a	53		 push	 ebx
  0097b	69 ff 64 15 00
	00		 imul	 edi, 5476		; 00001564H
  00981	53		 push	 ebx
  00982	50		 push	 eax
  00983	53		 push	 ebx
  00984	53		 push	 ebx
  00985	53		 push	 ebx
  00986	68 ff 00 00 00	 push	 255			; 000000ffH
  0098b	53		 push	 ebx
  0098c	6a 01		 push	 1
  0098e	6a 0d		 push	 13			; 0000000dH
  00990	e8 00 00 00 00	 call	 ?ItemGetNumberMake@@YAHHH@Z ; ItemGetNumberMake
  00995	0f b6 8f 06 01
	00 00		 movzx	 ecx, BYTE PTR ?gObj@@3PAUOBJECTSTRUCT@@A[edi+262]
  0099c	0f b6 97 04 01
	00 00		 movzx	 edx, BYTE PTR ?gObj@@3PAUOBJECTSTRUCT@@A[edi+260]
  009a3	83 c4 08	 add	 esp, 8
  009a6	50		 push	 eax
  009a7	8b 87 00 00 00
	00		 mov	 eax, DWORD PTR ?gObj@@3PAUOBJECTSTRUCT@@A[edi]
  009ad	51		 push	 ecx
  009ae	52		 push	 edx
  009af	68 eb 00 00 00	 push	 235			; 000000ebH
  009b4	50		 push	 eax
  009b5	e8 00 00 00 00	 call	 ?ItemSerialCreateSend@@YAXHEEEHEEEEEHEE@Z ; ItemSerialCreateSend
  009ba	83 c4 34	 add	 esp, 52			; 00000034H

; 1886 : 
; 1887 : 				if ( g_bRingEventItemTextLoad == FALSE )

  009bd	39 1d 00 00 00
	00		 cmp	 DWORD PTR ?g_bRingEventItemTextLoad@@3HA, ebx ; g_bRingEventItemTextLoad
  009c3	0f 85 25 09 00
	00		 jne	 $LN1@EGRecv2Anv

; 1888 : 				{
; 1889 : 					strcpy(Result.szGIFT_NAME, ItemAttribute[ITEMGET(13, 1)].Name);

  009c9	33 c0		 xor	 eax, eax
  009cb	eb 03 8d 49 00	 npad	 5
$LL116@EGRecv2Anv:
  009d0	8a 88 6c f8 0a
	00		 mov	 cl, BYTE PTR ?ItemAttribute@@3PAUITEM_ATTRIBUTE@@A[eax+718956]
  009d6	88 4c 05 bc	 mov	 BYTE PTR _Result$[ebp+eax+4], cl
  009da	40		 inc	 eax
  009db	3a cb		 cmp	 cl, bl
  009dd	75 f1		 jne	 SHORT $LL116@EGRecv2Anv

; 1890 : 				}
; 1891 : 				break;

  009df	e9 0a 09 00 00	 jmp	 $LN1@EGRecv2Anv
$LN45@EGRecv2Anv:

; 1892 : 			case 23:
; 1893 : 				ItemSerialCreateSend(gObj[aRecv->iINDEX].m_Index, GIFT_2ANV_MAP, 
; 1894 : 					gObj[aRecv->iINDEX].X, gObj[aRecv->iINDEX].Y,
; 1895 : 					ItemGetNumberMake(14, 11),
; 1896 : 					1, 0, 0, 0, 0,
; 1897 : 					aRecv->iINDEX,
; 1898 : 					0, 0);

  009e4	8b 4e 04	 mov	 ecx, DWORD PTR [esi+4]
  009e7	8b 7e 04	 mov	 edi, DWORD PTR [esi+4]
  009ea	53		 push	 ebx
  009eb	69 ff 64 15 00
	00		 imul	 edi, 5476		; 00001564H
  009f1	53		 push	 ebx
  009f2	51		 push	 ecx
  009f3	53		 push	 ebx
  009f4	53		 push	 ebx
  009f5	53		 push	 ebx
  009f6	53		 push	 ebx
  009f7	6a 01		 push	 1
  009f9	6a 0b		 push	 11			; 0000000bH
  009fb	6a 0e		 push	 14			; 0000000eH
  009fd	e8 00 00 00 00	 call	 ?ItemGetNumberMake@@YAHHH@Z ; ItemGetNumberMake
  00a02	0f b6 97 06 01
	00 00		 movzx	 edx, BYTE PTR ?gObj@@3PAUOBJECTSTRUCT@@A[edi+262]
  00a09	8b 8f 00 00 00
	00		 mov	 ecx, DWORD PTR ?gObj@@3PAUOBJECTSTRUCT@@A[edi]
  00a0f	83 c4 08	 add	 esp, 8
  00a12	50		 push	 eax
  00a13	0f b6 87 04 01
	00 00		 movzx	 eax, BYTE PTR ?gObj@@3PAUOBJECTSTRUCT@@A[edi+260]
  00a1a	52		 push	 edx
  00a1b	50		 push	 eax
  00a1c	68 eb 00 00 00	 push	 235			; 000000ebH
  00a21	51		 push	 ecx
  00a22	e8 00 00 00 00	 call	 ?ItemSerialCreateSend@@YAXHEEEHEEEEEHEE@Z ; ItemSerialCreateSend
  00a27	83 c4 34	 add	 esp, 52			; 00000034H

; 1899 : 
; 1900 : 				if ( g_bRingEventItemTextLoad == FALSE )

  00a2a	39 1d 00 00 00
	00		 cmp	 DWORD PTR ?g_bRingEventItemTextLoad@@3HA, ebx ; g_bRingEventItemTextLoad
  00a30	0f 85 b8 08 00
	00		 jne	 $LN1@EGRecv2Anv

; 1901 : 				{
; 1902 : 					strcpy(Result.szGIFT_NAME, ItemAttribute[ITEMGET(14, 11)].Name);

  00a36	33 c0		 xor	 eax, eax
  00a38	eb 06 8d 9b 00
	00 00 00	 npad	 8
$LL117@EGRecv2Anv:
  00a40	8a 88 a4 d4 0b
	00		 mov	 cl, BYTE PTR ?ItemAttribute@@3PAUITEM_ATTRIBUTE@@A[eax+775332]
  00a46	88 4c 05 bc	 mov	 BYTE PTR _Result$[ebp+eax+4], cl
  00a4a	40		 inc	 eax
  00a4b	3a cb		 cmp	 cl, bl
  00a4d	75 f1		 jne	 SHORT $LL117@EGRecv2Anv

; 1903 : 				}
; 1904 : 				break;

  00a4f	e9 9a 08 00 00	 jmp	 $LN1@EGRecv2Anv
$LN43@EGRecv2Anv:

; 1905 : 			case 24:
; 1906 : 				ItemSerialCreateSend(gObj[aRecv->iINDEX].m_Index, GIFT_2ANV_MAP, 
; 1907 : 					gObj[aRecv->iINDEX].X, gObj[aRecv->iINDEX].Y,
; 1908 : 					ItemGetNumberMake(14, 11),
; 1909 : 					9, 0, 0, 0, 0,
; 1910 : 					aRecv->iINDEX,
; 1911 : 					0, 0);

  00a54	8b 56 04	 mov	 edx, DWORD PTR [esi+4]
  00a57	8b 7e 04	 mov	 edi, DWORD PTR [esi+4]
  00a5a	53		 push	 ebx
  00a5b	69 ff 64 15 00
	00		 imul	 edi, 5476		; 00001564H
  00a61	53		 push	 ebx
  00a62	52		 push	 edx
  00a63	53		 push	 ebx
  00a64	53		 push	 ebx
  00a65	53		 push	 ebx
  00a66	53		 push	 ebx
  00a67	6a 09		 push	 9
  00a69	6a 0b		 push	 11			; 0000000bH
  00a6b	6a 0e		 push	 14			; 0000000eH
  00a6d	e8 00 00 00 00	 call	 ?ItemGetNumberMake@@YAHHH@Z ; ItemGetNumberMake
  00a72	0f b6 8f 04 01
	00 00		 movzx	 ecx, BYTE PTR ?gObj@@3PAUOBJECTSTRUCT@@A[edi+260]
  00a79	8b 97 00 00 00
	00		 mov	 edx, DWORD PTR ?gObj@@3PAUOBJECTSTRUCT@@A[edi]
  00a7f	83 c4 08	 add	 esp, 8
  00a82	50		 push	 eax
  00a83	0f b6 87 06 01
	00 00		 movzx	 eax, BYTE PTR ?gObj@@3PAUOBJECTSTRUCT@@A[edi+262]
  00a8a	50		 push	 eax
  00a8b	51		 push	 ecx
  00a8c	68 eb 00 00 00	 push	 235			; 000000ebH
  00a91	52		 push	 edx
  00a92	e8 00 00 00 00	 call	 ?ItemSerialCreateSend@@YAXHEEEHEEEEEHEE@Z ; ItemSerialCreateSend
  00a97	83 c4 34	 add	 esp, 52			; 00000034H

; 1912 : 
; 1913 : 				if ( g_bRingEventItemTextLoad == FALSE )

  00a9a	39 1d 00 00 00
	00		 cmp	 DWORD PTR ?g_bRingEventItemTextLoad@@3HA, ebx ; g_bRingEventItemTextLoad
  00aa0	0f 85 48 08 00
	00		 jne	 $LN1@EGRecv2Anv

; 1914 : 				{
; 1915 : 					strcpy(Result.szGIFT_NAME, ItemAttribute[ITEMGET(14, 11)].Name);

  00aa6	33 c0		 xor	 eax, eax
  00aa8	eb 06 8d 9b 00
	00 00 00	 npad	 8
$LL118@EGRecv2Anv:
  00ab0	8a 88 a4 d4 0b
	00		 mov	 cl, BYTE PTR ?ItemAttribute@@3PAUITEM_ATTRIBUTE@@A[eax+775332]
  00ab6	88 4c 05 bc	 mov	 BYTE PTR _Result$[ebp+eax+4], cl
  00aba	40		 inc	 eax
  00abb	3a cb		 cmp	 cl, bl
  00abd	75 f1		 jne	 SHORT $LL118@EGRecv2Anv

; 1916 : 				}
; 1917 : 				break;

  00abf	e9 2a 08 00 00	 jmp	 $LN1@EGRecv2Anv
$LN41@EGRecv2Anv:

; 1918 : 			case 25:
; 1919 : 				ItemSerialCreateSend(gObj[aRecv->iINDEX].m_Index, GIFT_2ANV_MAP, 
; 1920 : 					gObj[aRecv->iINDEX].X, gObj[aRecv->iINDEX].Y,
; 1921 : 					ItemGetNumberMake(14, 11),
; 1922 : 					10, 0, 0, 0, 0,
; 1923 : 					aRecv->iINDEX,
; 1924 : 					0, 0);

  00ac4	8b 46 04	 mov	 eax, DWORD PTR [esi+4]
  00ac7	8b 7e 04	 mov	 edi, DWORD PTR [esi+4]
  00aca	53		 push	 ebx
  00acb	69 ff 64 15 00
	00		 imul	 edi, 5476		; 00001564H
  00ad1	53		 push	 ebx
  00ad2	50		 push	 eax
  00ad3	53		 push	 ebx
  00ad4	53		 push	 ebx
  00ad5	53		 push	 ebx
  00ad6	53		 push	 ebx
  00ad7	6a 0a		 push	 10			; 0000000aH
  00ad9	6a 0b		 push	 11			; 0000000bH
  00adb	6a 0e		 push	 14			; 0000000eH
  00add	e8 00 00 00 00	 call	 ?ItemGetNumberMake@@YAHHH@Z ; ItemGetNumberMake
  00ae2	0f b6 8f 06 01
	00 00		 movzx	 ecx, BYTE PTR ?gObj@@3PAUOBJECTSTRUCT@@A[edi+262]
  00ae9	0f b6 97 04 01
	00 00		 movzx	 edx, BYTE PTR ?gObj@@3PAUOBJECTSTRUCT@@A[edi+260]
  00af0	83 c4 08	 add	 esp, 8
  00af3	50		 push	 eax
  00af4	8b 87 00 00 00
	00		 mov	 eax, DWORD PTR ?gObj@@3PAUOBJECTSTRUCT@@A[edi]
  00afa	51		 push	 ecx
  00afb	52		 push	 edx
  00afc	68 eb 00 00 00	 push	 235			; 000000ebH
  00b01	50		 push	 eax
  00b02	e8 00 00 00 00	 call	 ?ItemSerialCreateSend@@YAXHEEEHEEEEEHEE@Z ; ItemSerialCreateSend
  00b07	83 c4 34	 add	 esp, 52			; 00000034H

; 1925 : 
; 1926 : 				if ( g_bRingEventItemTextLoad == FALSE )

  00b0a	39 1d 00 00 00
	00		 cmp	 DWORD PTR ?g_bRingEventItemTextLoad@@3HA, ebx ; g_bRingEventItemTextLoad
  00b10	0f 85 d8 07 00
	00		 jne	 $LN1@EGRecv2Anv

; 1927 : 				{
; 1928 : 					strcpy(Result.szGIFT_NAME, ItemAttribute[ITEMGET(14, 11)].Name);

  00b16	33 c0		 xor	 eax, eax
  00b18	eb 06 8d 9b 00
	00 00 00	 npad	 8
$LL119@EGRecv2Anv:
  00b20	8a 88 a4 d4 0b
	00		 mov	 cl, BYTE PTR ?ItemAttribute@@3PAUITEM_ATTRIBUTE@@A[eax+775332]
  00b26	88 4c 05 bc	 mov	 BYTE PTR _Result$[ebp+eax+4], cl
  00b2a	40		 inc	 eax
  00b2b	3a cb		 cmp	 cl, bl
  00b2d	75 f1		 jne	 SHORT $LL119@EGRecv2Anv

; 1929 : 				}
; 1930 : 				break;

  00b2f	e9 ba 07 00 00	 jmp	 $LN1@EGRecv2Anv
$LN39@EGRecv2Anv:

; 1931 : 			case 26:
; 1932 : 				ItemSerialCreateSend(gObj[aRecv->iINDEX].m_Index, GIFT_2ANV_MAP, 
; 1933 : 					gObj[aRecv->iINDEX].X, gObj[aRecv->iINDEX].Y,
; 1934 : 					ItemGetNumberMake(14, 19),
; 1935 : 					0, 0, 0, 0, 0,
; 1936 : 					aRecv->iINDEX,
; 1937 : 					0, 0);

  00b34	8b 4e 04	 mov	 ecx, DWORD PTR [esi+4]
  00b37	8b 7e 04	 mov	 edi, DWORD PTR [esi+4]
  00b3a	53		 push	 ebx
  00b3b	69 ff 64 15 00
	00		 imul	 edi, 5476		; 00001564H
  00b41	53		 push	 ebx
  00b42	51		 push	 ecx
  00b43	53		 push	 ebx
  00b44	53		 push	 ebx
  00b45	53		 push	 ebx
  00b46	53		 push	 ebx
  00b47	53		 push	 ebx
  00b48	6a 13		 push	 19			; 00000013H
  00b4a	6a 0e		 push	 14			; 0000000eH
  00b4c	e8 00 00 00 00	 call	 ?ItemGetNumberMake@@YAHHH@Z ; ItemGetNumberMake
  00b51	0f b6 97 06 01
	00 00		 movzx	 edx, BYTE PTR ?gObj@@3PAUOBJECTSTRUCT@@A[edi+262]
  00b58	8b 8f 00 00 00
	00		 mov	 ecx, DWORD PTR ?gObj@@3PAUOBJECTSTRUCT@@A[edi]
  00b5e	83 c4 08	 add	 esp, 8
  00b61	50		 push	 eax
  00b62	0f b6 87 04 01
	00 00		 movzx	 eax, BYTE PTR ?gObj@@3PAUOBJECTSTRUCT@@A[edi+260]
  00b69	52		 push	 edx
  00b6a	50		 push	 eax
  00b6b	68 eb 00 00 00	 push	 235			; 000000ebH
  00b70	51		 push	 ecx
  00b71	e8 00 00 00 00	 call	 ?ItemSerialCreateSend@@YAXHEEEHEEEEEHEE@Z ; ItemSerialCreateSend
  00b76	83 c4 34	 add	 esp, 52			; 00000034H

; 1938 : 
; 1939 : 				if ( g_bRingEventItemTextLoad == FALSE )

  00b79	39 1d 00 00 00
	00		 cmp	 DWORD PTR ?g_bRingEventItemTextLoad@@3HA, ebx ; g_bRingEventItemTextLoad
  00b7f	0f 85 69 07 00
	00		 jne	 $LN1@EGRecv2Anv

; 1940 : 				{
; 1941 : 					strcpy(Result.szGIFT_NAME, ItemAttribute[ITEMGET(14, 19)].Name);

  00b85	33 c0		 xor	 eax, eax
  00b87	eb 07 8d a4 24
	00 00 00 00	 npad	 9
$LL120@EGRecv2Anv:
  00b90	8a 88 04 d8 0b
	00		 mov	 cl, BYTE PTR ?ItemAttribute@@3PAUITEM_ATTRIBUTE@@A[eax+776196]
  00b96	88 4c 05 bc	 mov	 BYTE PTR _Result$[ebp+eax+4], cl
  00b9a	40		 inc	 eax
  00b9b	3a cb		 cmp	 cl, bl
  00b9d	75 f1		 jne	 SHORT $LL120@EGRecv2Anv

; 1942 : 				}
; 1943 : 				break;

  00b9f	e9 4a 07 00 00	 jmp	 $LN1@EGRecv2Anv
$LN37@EGRecv2Anv:

; 1944 : 			case 27:
; 1945 : 				ItemSerialCreateSend(gObj[aRecv->iINDEX].m_Index, GIFT_2ANV_MAP, 
; 1946 : 					gObj[aRecv->iINDEX].X, gObj[aRecv->iINDEX].Y,
; 1947 : 					ItemGetNumberMake(14, 19),
; 1948 : 					1, 0, 0, 0, 0,
; 1949 : 					aRecv->iINDEX,
; 1950 : 					0, 0);

  00ba4	8b 56 04	 mov	 edx, DWORD PTR [esi+4]
  00ba7	8b 7e 04	 mov	 edi, DWORD PTR [esi+4]
  00baa	53		 push	 ebx
  00bab	69 ff 64 15 00
	00		 imul	 edi, 5476		; 00001564H
  00bb1	53		 push	 ebx
  00bb2	52		 push	 edx
  00bb3	53		 push	 ebx
  00bb4	53		 push	 ebx
  00bb5	53		 push	 ebx
  00bb6	53		 push	 ebx
  00bb7	6a 01		 push	 1
  00bb9	6a 13		 push	 19			; 00000013H
  00bbb	6a 0e		 push	 14			; 0000000eH
  00bbd	e8 00 00 00 00	 call	 ?ItemGetNumberMake@@YAHHH@Z ; ItemGetNumberMake
  00bc2	0f b6 8f 04 01
	00 00		 movzx	 ecx, BYTE PTR ?gObj@@3PAUOBJECTSTRUCT@@A[edi+260]
  00bc9	8b 97 00 00 00
	00		 mov	 edx, DWORD PTR ?gObj@@3PAUOBJECTSTRUCT@@A[edi]
  00bcf	83 c4 08	 add	 esp, 8
  00bd2	50		 push	 eax
  00bd3	0f b6 87 06 01
	00 00		 movzx	 eax, BYTE PTR ?gObj@@3PAUOBJECTSTRUCT@@A[edi+262]
  00bda	50		 push	 eax
  00bdb	51		 push	 ecx
  00bdc	68 eb 00 00 00	 push	 235			; 000000ebH
  00be1	52		 push	 edx
  00be2	e8 00 00 00 00	 call	 ?ItemSerialCreateSend@@YAXHEEEHEEEEEHEE@Z ; ItemSerialCreateSend
  00be7	83 c4 34	 add	 esp, 52			; 00000034H

; 1951 : 
; 1952 : 				if ( g_bRingEventItemTextLoad == FALSE )

  00bea	39 1d 00 00 00
	00		 cmp	 DWORD PTR ?g_bRingEventItemTextLoad@@3HA, ebx ; g_bRingEventItemTextLoad
  00bf0	0f 85 f8 06 00
	00		 jne	 $LN1@EGRecv2Anv

; 1953 : 				{
; 1954 : 					strcpy(Result.szGIFT_NAME, ItemAttribute[ITEMGET(14, 19)].Name);

  00bf6	33 c0		 xor	 eax, eax
  00bf8	eb 06 8d 9b 00
	00 00 00	 npad	 8
$LL121@EGRecv2Anv:
  00c00	8a 88 04 d8 0b
	00		 mov	 cl, BYTE PTR ?ItemAttribute@@3PAUITEM_ATTRIBUTE@@A[eax+776196]
  00c06	88 4c 05 bc	 mov	 BYTE PTR _Result$[ebp+eax+4], cl
  00c0a	40		 inc	 eax
  00c0b	3a cb		 cmp	 cl, bl
  00c0d	75 f1		 jne	 SHORT $LL121@EGRecv2Anv

; 1955 : 				}
; 1956 : 				break;

  00c0f	e9 da 06 00 00	 jmp	 $LN1@EGRecv2Anv
$LN35@EGRecv2Anv:

; 1957 : 			case 28:
; 1958 : 				ItemSerialCreateSend(gObj[aRecv->iINDEX].m_Index, GIFT_2ANV_MAP, 
; 1959 : 					gObj[aRecv->iINDEX].X, gObj[aRecv->iINDEX].Y,
; 1960 : 					ItemGetNumberMake(14, 19),
; 1961 : 					2, 0, 0, 0, 0,
; 1962 : 					aRecv->iINDEX,
; 1963 : 					0, 0);

  00c14	8b 46 04	 mov	 eax, DWORD PTR [esi+4]
  00c17	8b 7e 04	 mov	 edi, DWORD PTR [esi+4]
  00c1a	53		 push	 ebx
  00c1b	69 ff 64 15 00
	00		 imul	 edi, 5476		; 00001564H
  00c21	53		 push	 ebx
  00c22	50		 push	 eax
  00c23	53		 push	 ebx
  00c24	53		 push	 ebx
  00c25	53		 push	 ebx
  00c26	53		 push	 ebx
  00c27	6a 02		 push	 2
  00c29	6a 13		 push	 19			; 00000013H
  00c2b	6a 0e		 push	 14			; 0000000eH
  00c2d	e8 00 00 00 00	 call	 ?ItemGetNumberMake@@YAHHH@Z ; ItemGetNumberMake
  00c32	0f b6 8f 06 01
	00 00		 movzx	 ecx, BYTE PTR ?gObj@@3PAUOBJECTSTRUCT@@A[edi+262]
  00c39	0f b6 97 04 01
	00 00		 movzx	 edx, BYTE PTR ?gObj@@3PAUOBJECTSTRUCT@@A[edi+260]
  00c40	83 c4 08	 add	 esp, 8
  00c43	50		 push	 eax
  00c44	8b 87 00 00 00
	00		 mov	 eax, DWORD PTR ?gObj@@3PAUOBJECTSTRUCT@@A[edi]
  00c4a	51		 push	 ecx
  00c4b	52		 push	 edx
  00c4c	68 eb 00 00 00	 push	 235			; 000000ebH
  00c51	50		 push	 eax
  00c52	e8 00 00 00 00	 call	 ?ItemSerialCreateSend@@YAXHEEEHEEEEEHEE@Z ; ItemSerialCreateSend
  00c57	83 c4 34	 add	 esp, 52			; 00000034H

; 1964 : 
; 1965 : 				if ( g_bRingEventItemTextLoad == FALSE )

  00c5a	39 1d 00 00 00
	00		 cmp	 DWORD PTR ?g_bRingEventItemTextLoad@@3HA, ebx ; g_bRingEventItemTextLoad
  00c60	0f 85 88 06 00
	00		 jne	 $LN1@EGRecv2Anv

; 1966 : 				{
; 1967 : 					strcpy(Result.szGIFT_NAME, ItemAttribute[ITEMGET(14, 19)].Name);

  00c66	33 c0		 xor	 eax, eax
  00c68	eb 06 8d 9b 00
	00 00 00	 npad	 8
$LL122@EGRecv2Anv:
  00c70	8a 88 04 d8 0b
	00		 mov	 cl, BYTE PTR ?ItemAttribute@@3PAUITEM_ATTRIBUTE@@A[eax+776196]
  00c76	88 4c 05 bc	 mov	 BYTE PTR _Result$[ebp+eax+4], cl
  00c7a	40		 inc	 eax
  00c7b	3a cb		 cmp	 cl, bl
  00c7d	75 f1		 jne	 SHORT $LL122@EGRecv2Anv

; 1968 : 				}
; 1969 : 				break;

  00c7f	e9 6a 06 00 00	 jmp	 $LN1@EGRecv2Anv
$LN33@EGRecv2Anv:

; 1970 : 			case 29:
; 1971 : 				ItemSerialCreateSend(gObj[aRecv->iINDEX].m_Index, GIFT_2ANV_MAP, 
; 1972 : 					gObj[aRecv->iINDEX].X, gObj[aRecv->iINDEX].Y,
; 1973 : 					ItemGetNumberMake(14, 19),
; 1974 : 					3, 0, 0, 0, 0,
; 1975 : 					aRecv->iINDEX,
; 1976 : 					0, 0);

  00c84	8b 4e 04	 mov	 ecx, DWORD PTR [esi+4]
  00c87	8b 7e 04	 mov	 edi, DWORD PTR [esi+4]
  00c8a	53		 push	 ebx
  00c8b	69 ff 64 15 00
	00		 imul	 edi, 5476		; 00001564H
  00c91	53		 push	 ebx
  00c92	51		 push	 ecx
  00c93	53		 push	 ebx
  00c94	53		 push	 ebx
  00c95	53		 push	 ebx
  00c96	53		 push	 ebx
  00c97	6a 03		 push	 3
  00c99	6a 13		 push	 19			; 00000013H
  00c9b	6a 0e		 push	 14			; 0000000eH
  00c9d	e8 00 00 00 00	 call	 ?ItemGetNumberMake@@YAHHH@Z ; ItemGetNumberMake
  00ca2	0f b6 97 06 01
	00 00		 movzx	 edx, BYTE PTR ?gObj@@3PAUOBJECTSTRUCT@@A[edi+262]
  00ca9	8b 8f 00 00 00
	00		 mov	 ecx, DWORD PTR ?gObj@@3PAUOBJECTSTRUCT@@A[edi]
  00caf	83 c4 08	 add	 esp, 8
  00cb2	50		 push	 eax
  00cb3	0f b6 87 04 01
	00 00		 movzx	 eax, BYTE PTR ?gObj@@3PAUOBJECTSTRUCT@@A[edi+260]
  00cba	52		 push	 edx
  00cbb	50		 push	 eax
  00cbc	68 eb 00 00 00	 push	 235			; 000000ebH
  00cc1	51		 push	 ecx
  00cc2	e8 00 00 00 00	 call	 ?ItemSerialCreateSend@@YAXHEEEHEEEEEHEE@Z ; ItemSerialCreateSend
  00cc7	83 c4 34	 add	 esp, 52			; 00000034H

; 1977 : 
; 1978 : 				if ( g_bRingEventItemTextLoad == FALSE )

  00cca	39 1d 00 00 00
	00		 cmp	 DWORD PTR ?g_bRingEventItemTextLoad@@3HA, ebx ; g_bRingEventItemTextLoad
  00cd0	0f 85 18 06 00
	00		 jne	 $LN1@EGRecv2Anv

; 1979 : 				{
; 1980 : 					strcpy(Result.szGIFT_NAME, ItemAttribute[ITEMGET(14, 19)].Name);

  00cd6	33 c0		 xor	 eax, eax
  00cd8	eb 06 8d 9b 00
	00 00 00	 npad	 8
$LL123@EGRecv2Anv:
  00ce0	8a 88 04 d8 0b
	00		 mov	 cl, BYTE PTR ?ItemAttribute@@3PAUITEM_ATTRIBUTE@@A[eax+776196]
  00ce6	88 4c 05 bc	 mov	 BYTE PTR _Result$[ebp+eax+4], cl
  00cea	40		 inc	 eax
  00ceb	3a cb		 cmp	 cl, bl
  00ced	75 f1		 jne	 SHORT $LL123@EGRecv2Anv

; 1981 : 				}
; 1982 : 				break;

  00cef	e9 fa 05 00 00	 jmp	 $LN1@EGRecv2Anv
$LN31@EGRecv2Anv:

; 1983 : 			case 30:
; 1984 : 				ItemSerialCreateSend(gObj[aRecv->iINDEX].m_Index, GIFT_2ANV_MAP, 
; 1985 : 					gObj[aRecv->iINDEX].X, gObj[aRecv->iINDEX].Y,
; 1986 : 					ItemGetNumberMake(14, 19),
; 1987 : 					4, 0, 0, 0, 0,
; 1988 : 					aRecv->iINDEX,
; 1989 : 					0, 0);

  00cf4	8b 56 04	 mov	 edx, DWORD PTR [esi+4]
  00cf7	8b 7e 04	 mov	 edi, DWORD PTR [esi+4]
  00cfa	53		 push	 ebx
  00cfb	69 ff 64 15 00
	00		 imul	 edi, 5476		; 00001564H
  00d01	53		 push	 ebx
  00d02	52		 push	 edx
  00d03	53		 push	 ebx
  00d04	53		 push	 ebx
  00d05	53		 push	 ebx
  00d06	53		 push	 ebx
  00d07	6a 04		 push	 4
  00d09	6a 13		 push	 19			; 00000013H
  00d0b	6a 0e		 push	 14			; 0000000eH
  00d0d	e8 00 00 00 00	 call	 ?ItemGetNumberMake@@YAHHH@Z ; ItemGetNumberMake
  00d12	0f b6 8f 04 01
	00 00		 movzx	 ecx, BYTE PTR ?gObj@@3PAUOBJECTSTRUCT@@A[edi+260]
  00d19	8b 97 00 00 00
	00		 mov	 edx, DWORD PTR ?gObj@@3PAUOBJECTSTRUCT@@A[edi]
  00d1f	83 c4 08	 add	 esp, 8
  00d22	50		 push	 eax
  00d23	0f b6 87 06 01
	00 00		 movzx	 eax, BYTE PTR ?gObj@@3PAUOBJECTSTRUCT@@A[edi+262]
  00d2a	50		 push	 eax
  00d2b	51		 push	 ecx
  00d2c	68 eb 00 00 00	 push	 235			; 000000ebH
  00d31	52		 push	 edx
  00d32	e8 00 00 00 00	 call	 ?ItemSerialCreateSend@@YAXHEEEHEEEEEHEE@Z ; ItemSerialCreateSend
  00d37	83 c4 34	 add	 esp, 52			; 00000034H

; 1990 : 
; 1991 : 				if ( g_bRingEventItemTextLoad == FALSE )

  00d3a	39 1d 00 00 00
	00		 cmp	 DWORD PTR ?g_bRingEventItemTextLoad@@3HA, ebx ; g_bRingEventItemTextLoad
  00d40	0f 85 a8 05 00
	00		 jne	 $LN1@EGRecv2Anv

; 1992 : 				{
; 1993 : 					strcpy(Result.szGIFT_NAME, ItemAttribute[ITEMGET(14, 19)].Name);

  00d46	33 c0		 xor	 eax, eax
  00d48	eb 06 8d 9b 00
	00 00 00	 npad	 8
$LL124@EGRecv2Anv:
  00d50	8a 88 04 d8 0b
	00		 mov	 cl, BYTE PTR ?ItemAttribute@@3PAUITEM_ATTRIBUTE@@A[eax+776196]
  00d56	88 4c 05 bc	 mov	 BYTE PTR _Result$[ebp+eax+4], cl
  00d5a	40		 inc	 eax
  00d5b	3a cb		 cmp	 cl, bl
  00d5d	75 f1		 jne	 SHORT $LL124@EGRecv2Anv

; 1994 : 				}
; 1995 : 				break;

  00d5f	e9 8a 05 00 00	 jmp	 $LN1@EGRecv2Anv
$LN29@EGRecv2Anv:

; 1996 : 			case 31:
; 1997 : 				ItemSerialCreateSend(gObj[aRecv->iINDEX].m_Index, GIFT_2ANV_MAP, 
; 1998 : 					gObj[aRecv->iINDEX].X, gObj[aRecv->iINDEX].Y,
; 1999 : 					ItemGetNumberMake(14, 11),
; 2000 : 					2, 0, 0, 0, 0,
; 2001 : 					aRecv->iINDEX,
; 2002 : 					0, 0);

  00d64	8b 46 04	 mov	 eax, DWORD PTR [esi+4]
  00d67	8b 7e 04	 mov	 edi, DWORD PTR [esi+4]
  00d6a	53		 push	 ebx
  00d6b	69 ff 64 15 00
	00		 imul	 edi, 5476		; 00001564H
  00d71	53		 push	 ebx
  00d72	50		 push	 eax
  00d73	53		 push	 ebx
  00d74	53		 push	 ebx
  00d75	53		 push	 ebx
  00d76	53		 push	 ebx
  00d77	6a 02		 push	 2
  00d79	6a 0b		 push	 11			; 0000000bH
  00d7b	6a 0e		 push	 14			; 0000000eH
  00d7d	e8 00 00 00 00	 call	 ?ItemGetNumberMake@@YAHHH@Z ; ItemGetNumberMake
  00d82	0f b6 8f 06 01
	00 00		 movzx	 ecx, BYTE PTR ?gObj@@3PAUOBJECTSTRUCT@@A[edi+262]
  00d89	0f b6 97 04 01
	00 00		 movzx	 edx, BYTE PTR ?gObj@@3PAUOBJECTSTRUCT@@A[edi+260]
  00d90	83 c4 08	 add	 esp, 8
  00d93	50		 push	 eax
  00d94	8b 87 00 00 00
	00		 mov	 eax, DWORD PTR ?gObj@@3PAUOBJECTSTRUCT@@A[edi]
  00d9a	51		 push	 ecx
  00d9b	52		 push	 edx
  00d9c	68 eb 00 00 00	 push	 235			; 000000ebH
  00da1	50		 push	 eax
  00da2	e8 00 00 00 00	 call	 ?ItemSerialCreateSend@@YAXHEEEHEEEEEHEE@Z ; ItemSerialCreateSend
  00da7	83 c4 34	 add	 esp, 52			; 00000034H

; 2003 : 
; 2004 : 				if ( g_bRingEventItemTextLoad == FALSE )

  00daa	39 1d 00 00 00
	00		 cmp	 DWORD PTR ?g_bRingEventItemTextLoad@@3HA, ebx ; g_bRingEventItemTextLoad
  00db0	0f 85 38 05 00
	00		 jne	 $LN1@EGRecv2Anv

; 2005 : 				{
; 2006 : 					strcpy(Result.szGIFT_NAME, ItemAttribute[ITEMGET(14, 11)].Name);

  00db6	33 c0		 xor	 eax, eax
  00db8	eb 06 8d 9b 00
	00 00 00	 npad	 8
$LL125@EGRecv2Anv:
  00dc0	8a 88 a4 d4 0b
	00		 mov	 cl, BYTE PTR ?ItemAttribute@@3PAUITEM_ATTRIBUTE@@A[eax+775332]
  00dc6	88 4c 05 bc	 mov	 BYTE PTR _Result$[ebp+eax+4], cl
  00dca	40		 inc	 eax
  00dcb	3a cb		 cmp	 cl, bl
  00dcd	75 f1		 jne	 SHORT $LL125@EGRecv2Anv

; 2007 : 				}
; 2008 : 				break;

  00dcf	e9 1a 05 00 00	 jmp	 $LN1@EGRecv2Anv
$LN27@EGRecv2Anv:

; 2009 : 			case 32:
; 2010 : 				ItemSerialCreateSend(gObj[aRecv->iINDEX].m_Index, GIFT_2ANV_MAP, 
; 2011 : 					gObj[aRecv->iINDEX].X, gObj[aRecv->iINDEX].Y,
; 2012 : 					ItemGetNumberMake(14, 20),
; 2013 : 					0, 0, 0, 0, 0,
; 2014 : 					aRecv->iINDEX,
; 2015 : 					0, 0);

  00dd4	8b 4e 04	 mov	 ecx, DWORD PTR [esi+4]
  00dd7	8b 7e 04	 mov	 edi, DWORD PTR [esi+4]
  00dda	53		 push	 ebx
  00ddb	69 ff 64 15 00
	00		 imul	 edi, 5476		; 00001564H
  00de1	53		 push	 ebx
  00de2	51		 push	 ecx
  00de3	53		 push	 ebx
  00de4	53		 push	 ebx
  00de5	53		 push	 ebx
  00de6	53		 push	 ebx
  00de7	53		 push	 ebx
  00de8	6a 14		 push	 20			; 00000014H
  00dea	6a 0e		 push	 14			; 0000000eH
  00dec	e8 00 00 00 00	 call	 ?ItemGetNumberMake@@YAHHH@Z ; ItemGetNumberMake
  00df1	0f b6 97 06 01
	00 00		 movzx	 edx, BYTE PTR ?gObj@@3PAUOBJECTSTRUCT@@A[edi+262]
  00df8	8b 8f 00 00 00
	00		 mov	 ecx, DWORD PTR ?gObj@@3PAUOBJECTSTRUCT@@A[edi]
  00dfe	83 c4 08	 add	 esp, 8
  00e01	50		 push	 eax
  00e02	0f b6 87 04 01
	00 00		 movzx	 eax, BYTE PTR ?gObj@@3PAUOBJECTSTRUCT@@A[edi+260]
  00e09	52		 push	 edx
  00e0a	50		 push	 eax
  00e0b	68 eb 00 00 00	 push	 235			; 000000ebH
  00e10	51		 push	 ecx
  00e11	e8 00 00 00 00	 call	 ?ItemSerialCreateSend@@YAXHEEEHEEEEEHEE@Z ; ItemSerialCreateSend
  00e16	83 c4 34	 add	 esp, 52			; 00000034H

; 2016 : 
; 2017 : 				if ( g_bRingEventItemTextLoad == FALSE )

  00e19	39 1d 00 00 00
	00		 cmp	 DWORD PTR ?g_bRingEventItemTextLoad@@3HA, ebx ; g_bRingEventItemTextLoad
  00e1f	0f 85 c9 04 00
	00		 jne	 $LN1@EGRecv2Anv

; 2018 : 				{
; 2019 : 					strcpy(Result.szGIFT_NAME, ItemAttribute[ITEMGET(14, 20)].Name);

  00e25	33 c0		 xor	 eax, eax
  00e27	eb 07 8d a4 24
	00 00 00 00	 npad	 9
$LL126@EGRecv2Anv:
  00e30	8a 88 70 d8 0b
	00		 mov	 cl, BYTE PTR ?ItemAttribute@@3PAUITEM_ATTRIBUTE@@A[eax+776304]
  00e36	88 4c 05 bc	 mov	 BYTE PTR _Result$[ebp+eax+4], cl
  00e3a	40		 inc	 eax
  00e3b	3a cb		 cmp	 cl, bl
  00e3d	75 f1		 jne	 SHORT $LL126@EGRecv2Anv

; 2020 : 				}
; 2021 : 				break;

  00e3f	e9 aa 04 00 00	 jmp	 $LN1@EGRecv2Anv
$LN25@EGRecv2Anv:

; 2022 : 			case 33:
; 2023 : 				ItemSerialCreateSend(gObj[aRecv->iINDEX].m_Index, GIFT_2ANV_MAP, 
; 2024 : 					gObj[aRecv->iINDEX].X, gObj[aRecv->iINDEX].Y,
; 2025 : 					ItemGetNumberMake(14, 22),
; 2026 : 					0, 0, 0, 0, 0,
; 2027 : 					aRecv->iINDEX,
; 2028 : 					0, 0);

  00e44	8b 56 04	 mov	 edx, DWORD PTR [esi+4]
  00e47	8b 7e 04	 mov	 edi, DWORD PTR [esi+4]
  00e4a	53		 push	 ebx
  00e4b	69 ff 64 15 00
	00		 imul	 edi, 5476		; 00001564H
  00e51	53		 push	 ebx
  00e52	52		 push	 edx
  00e53	53		 push	 ebx
  00e54	53		 push	 ebx
  00e55	53		 push	 ebx
  00e56	53		 push	 ebx
  00e57	53		 push	 ebx
  00e58	6a 16		 push	 22			; 00000016H
  00e5a	6a 0e		 push	 14			; 0000000eH
  00e5c	e8 00 00 00 00	 call	 ?ItemGetNumberMake@@YAHHH@Z ; ItemGetNumberMake
  00e61	0f b6 8f 04 01
	00 00		 movzx	 ecx, BYTE PTR ?gObj@@3PAUOBJECTSTRUCT@@A[edi+260]
  00e68	8b 97 00 00 00
	00		 mov	 edx, DWORD PTR ?gObj@@3PAUOBJECTSTRUCT@@A[edi]
  00e6e	83 c4 08	 add	 esp, 8
  00e71	50		 push	 eax
  00e72	0f b6 87 06 01
	00 00		 movzx	 eax, BYTE PTR ?gObj@@3PAUOBJECTSTRUCT@@A[edi+262]
  00e79	50		 push	 eax
  00e7a	51		 push	 ecx
  00e7b	68 eb 00 00 00	 push	 235			; 000000ebH
  00e80	52		 push	 edx
  00e81	e8 00 00 00 00	 call	 ?ItemSerialCreateSend@@YAXHEEEHEEEEEHEE@Z ; ItemSerialCreateSend
  00e86	83 c4 34	 add	 esp, 52			; 00000034H

; 2029 : 
; 2030 : 				if ( g_bRingEventItemTextLoad == FALSE )

  00e89	39 1d 00 00 00
	00		 cmp	 DWORD PTR ?g_bRingEventItemTextLoad@@3HA, ebx ; g_bRingEventItemTextLoad
  00e8f	0f 85 59 04 00
	00		 jne	 $LN1@EGRecv2Anv

; 2031 : 				{
; 2032 : 					strcpy(Result.szGIFT_NAME, ItemAttribute[ITEMGET(14, 22)].Name);

  00e95	33 c0		 xor	 eax, eax
  00e97	eb 07 8d a4 24
	00 00 00 00	 npad	 9
$LL127@EGRecv2Anv:
  00ea0	8a 88 48 d9 0b
	00		 mov	 cl, BYTE PTR ?ItemAttribute@@3PAUITEM_ATTRIBUTE@@A[eax+776520]
  00ea6	88 4c 05 bc	 mov	 BYTE PTR _Result$[ebp+eax+4], cl
  00eaa	40		 inc	 eax
  00eab	3a cb		 cmp	 cl, bl
  00ead	75 f1		 jne	 SHORT $LL127@EGRecv2Anv

; 2033 : 				}
; 2034 : 				break;

  00eaf	e9 3a 04 00 00	 jmp	 $LN1@EGRecv2Anv
$LN23@EGRecv2Anv:

; 2035 : 			case 34:	case 35:	case 36:	case 37:
; 2036 : 				ItemSerialCreateSend(gObj[aRecv->iINDEX].m_Index, GIFT_2ANV_MAP, 
; 2037 : 					gObj[aRecv->iINDEX].X, gObj[aRecv->iINDEX].Y,
; 2038 : 					ItemGetNumberMake(13, 15),
; 2039 : 					aRecv->iGiftNumber - 34, 0, 0, 0, 0,
; 2040 : 					aRecv->iINDEX,
; 2041 : 					0, 0);

  00eb4	8b 46 04	 mov	 eax, DWORD PTR [esi+4]
  00eb7	8a 4e 14	 mov	 cl, BYTE PTR [esi+20]
  00eba	8b 7e 04	 mov	 edi, DWORD PTR [esi+4]
  00ebd	53		 push	 ebx
  00ebe	69 ff 64 15 00
	00		 imul	 edi, 5476		; 00001564H
  00ec4	53		 push	 ebx
  00ec5	50		 push	 eax
  00ec6	53		 push	 ebx
  00ec7	53		 push	 ebx
  00ec8	53		 push	 ebx
  00ec9	80 e9 22	 sub	 cl, 34			; 00000022H
  00ecc	0f b6 d1	 movzx	 edx, cl
  00ecf	53		 push	 ebx
  00ed0	52		 push	 edx
  00ed1	6a 0f		 push	 15			; 0000000fH
  00ed3	6a 0d		 push	 13			; 0000000dH
  00ed5	e8 00 00 00 00	 call	 ?ItemGetNumberMake@@YAHHH@Z ; ItemGetNumberMake
  00eda	0f b6 8f 04 01
	00 00		 movzx	 ecx, BYTE PTR ?gObj@@3PAUOBJECTSTRUCT@@A[edi+260]
  00ee1	8b 97 00 00 00
	00		 mov	 edx, DWORD PTR ?gObj@@3PAUOBJECTSTRUCT@@A[edi]
  00ee7	83 c4 08	 add	 esp, 8
  00eea	50		 push	 eax
  00eeb	0f b6 87 06 01
	00 00		 movzx	 eax, BYTE PTR ?gObj@@3PAUOBJECTSTRUCT@@A[edi+262]
  00ef2	50		 push	 eax
  00ef3	51		 push	 ecx
  00ef4	68 eb 00 00 00	 push	 235			; 000000ebH
  00ef9	52		 push	 edx
  00efa	e8 00 00 00 00	 call	 ?ItemSerialCreateSend@@YAXHEEEHEEEEEHEE@Z ; ItemSerialCreateSend
  00eff	83 c4 34	 add	 esp, 52			; 00000034H

; 2042 : 
; 2043 : 				if ( g_bRingEventItemTextLoad == FALSE )

  00f02	39 1d 00 00 00
	00		 cmp	 DWORD PTR ?g_bRingEventItemTextLoad@@3HA, ebx ; g_bRingEventItemTextLoad
  00f08	0f 85 e0 03 00
	00		 jne	 $LN1@EGRecv2Anv

; 2044 : 				{
; 2045 : 					strcpy(Result.szGIFT_NAME, ItemAttribute[ITEMGET(13, 15)].Name);

  00f0e	33 c0		 xor	 eax, eax
$LL128@EGRecv2Anv:
  00f10	8a 88 54 fe 0a
	00		 mov	 cl, BYTE PTR ?ItemAttribute@@3PAUITEM_ATTRIBUTE@@A[eax+720468]
  00f16	88 4c 05 bc	 mov	 BYTE PTR _Result$[ebp+eax+4], cl
  00f1a	40		 inc	 eax
  00f1b	3a cb		 cmp	 cl, bl
  00f1d	75 f1		 jne	 SHORT $LL128@EGRecv2Anv

; 2046 : 				}
; 2047 : 				break;

  00f1f	e9 ca 03 00 00	 jmp	 $LN1@EGRecv2Anv
$LN21@EGRecv2Anv:

; 2048 : 			case 38:	case 39:
; 2049 : 				ItemSerialCreateSend(gObj[aRecv->iINDEX].m_Index, GIFT_2ANV_MAP, 
; 2050 : 					gObj[aRecv->iINDEX].X, gObj[aRecv->iINDEX].Y,
; 2051 : 					ItemGetNumberMake(14, 11),
; 2052 : 					aRecv->iGiftNumber - 27, 0, 0, 0, 0,
; 2053 : 					aRecv->iINDEX,
; 2054 : 					0, 0);

  00f24	8b 46 04	 mov	 eax, DWORD PTR [esi+4]
  00f27	8a 4e 14	 mov	 cl, BYTE PTR [esi+20]
  00f2a	8b 7e 04	 mov	 edi, DWORD PTR [esi+4]
  00f2d	53		 push	 ebx
  00f2e	69 ff 64 15 00
	00		 imul	 edi, 5476		; 00001564H
  00f34	53		 push	 ebx
  00f35	50		 push	 eax
  00f36	53		 push	 ebx
  00f37	53		 push	 ebx
  00f38	53		 push	 ebx
  00f39	80 e9 1b	 sub	 cl, 27			; 0000001bH
  00f3c	0f b6 d1	 movzx	 edx, cl
  00f3f	53		 push	 ebx
  00f40	52		 push	 edx
  00f41	6a 0b		 push	 11			; 0000000bH
  00f43	6a 0e		 push	 14			; 0000000eH
  00f45	e8 00 00 00 00	 call	 ?ItemGetNumberMake@@YAHHH@Z ; ItemGetNumberMake
  00f4a	0f b6 8f 04 01
	00 00		 movzx	 ecx, BYTE PTR ?gObj@@3PAUOBJECTSTRUCT@@A[edi+260]
  00f51	8b 97 00 00 00
	00		 mov	 edx, DWORD PTR ?gObj@@3PAUOBJECTSTRUCT@@A[edi]
  00f57	83 c4 08	 add	 esp, 8
  00f5a	50		 push	 eax
  00f5b	0f b6 87 06 01
	00 00		 movzx	 eax, BYTE PTR ?gObj@@3PAUOBJECTSTRUCT@@A[edi+262]
  00f62	50		 push	 eax
  00f63	51		 push	 ecx
  00f64	68 eb 00 00 00	 push	 235			; 000000ebH
  00f69	52		 push	 edx
  00f6a	e8 00 00 00 00	 call	 ?ItemSerialCreateSend@@YAXHEEEHEEEEEHEE@Z ; ItemSerialCreateSend
  00f6f	83 c4 34	 add	 esp, 52			; 00000034H

; 2055 : 
; 2056 : 				if ( g_bRingEventItemTextLoad == FALSE )

  00f72	39 1d 00 00 00
	00		 cmp	 DWORD PTR ?g_bRingEventItemTextLoad@@3HA, ebx ; g_bRingEventItemTextLoad
  00f78	0f 85 70 03 00
	00		 jne	 $LN1@EGRecv2Anv

; 2057 : 				{
; 2058 : 					strcpy(Result.szGIFT_NAME, ItemAttribute[ITEMGET(14, 11)].Name);

  00f7e	33 c0		 xor	 eax, eax
$LL129@EGRecv2Anv:
  00f80	8a 88 a4 d4 0b
	00		 mov	 cl, BYTE PTR ?ItemAttribute@@3PAUITEM_ATTRIBUTE@@A[eax+775332]
  00f86	88 4c 05 bc	 mov	 BYTE PTR _Result$[ebp+eax+4], cl
  00f8a	40		 inc	 eax
  00f8b	3a cb		 cmp	 cl, bl
  00f8d	75 f1		 jne	 SHORT $LL129@EGRecv2Anv

; 2059 : 				}
; 2060 : 				break;

  00f8f	e9 5a 03 00 00	 jmp	 $LN1@EGRecv2Anv
$LN19@EGRecv2Anv:

; 2061 : 			case 40:	case 41:	case 42:	case 43:	case 44:
; 2062 : 				ItemSerialCreateSend(gObj[aRecv->iINDEX].m_Index, GIFT_2ANV_MAP, 
; 2063 : 					gObj[aRecv->iINDEX].X, gObj[aRecv->iINDEX].Y,
; 2064 : 					ItemGetNumberMake(14, 20),
; 2065 : 					aRecv->iGiftNumber - 39, 0, 0, 0, 0,
; 2066 : 					aRecv->iINDEX,
; 2067 : 					0, 0);

  00f94	8b 46 04	 mov	 eax, DWORD PTR [esi+4]
  00f97	8a 4e 14	 mov	 cl, BYTE PTR [esi+20]
  00f9a	8b 7e 04	 mov	 edi, DWORD PTR [esi+4]
  00f9d	53		 push	 ebx
  00f9e	69 ff 64 15 00
	00		 imul	 edi, 5476		; 00001564H
  00fa4	53		 push	 ebx
  00fa5	50		 push	 eax
  00fa6	53		 push	 ebx
  00fa7	53		 push	 ebx
  00fa8	53		 push	 ebx
  00fa9	80 e9 27	 sub	 cl, 39			; 00000027H
  00fac	0f b6 d1	 movzx	 edx, cl
  00faf	53		 push	 ebx
  00fb0	52		 push	 edx
  00fb1	6a 14		 push	 20			; 00000014H
  00fb3	6a 0e		 push	 14			; 0000000eH
  00fb5	e8 00 00 00 00	 call	 ?ItemGetNumberMake@@YAHHH@Z ; ItemGetNumberMake
  00fba	0f b6 8f 04 01
	00 00		 movzx	 ecx, BYTE PTR ?gObj@@3PAUOBJECTSTRUCT@@A[edi+260]
  00fc1	8b 97 00 00 00
	00		 mov	 edx, DWORD PTR ?gObj@@3PAUOBJECTSTRUCT@@A[edi]
  00fc7	83 c4 08	 add	 esp, 8
  00fca	50		 push	 eax
  00fcb	0f b6 87 06 01
	00 00		 movzx	 eax, BYTE PTR ?gObj@@3PAUOBJECTSTRUCT@@A[edi+262]
  00fd2	50		 push	 eax
  00fd3	51		 push	 ecx
  00fd4	68 eb 00 00 00	 push	 235			; 000000ebH
  00fd9	52		 push	 edx
  00fda	e8 00 00 00 00	 call	 ?ItemSerialCreateSend@@YAXHEEEHEEEEEHEE@Z ; ItemSerialCreateSend
  00fdf	83 c4 34	 add	 esp, 52			; 00000034H

; 2068 : 
; 2069 : 				if ( g_bRingEventItemTextLoad == FALSE )

  00fe2	39 1d 00 00 00
	00		 cmp	 DWORD PTR ?g_bRingEventItemTextLoad@@3HA, ebx ; g_bRingEventItemTextLoad
  00fe8	0f 85 00 03 00
	00		 jne	 $LN1@EGRecv2Anv

; 2070 : 				{
; 2071 : 					strcpy(Result.szGIFT_NAME, ItemAttribute[ITEMGET(14, 20)].Name);

  00fee	33 c0		 xor	 eax, eax
$LL130@EGRecv2Anv:
  00ff0	8a 88 70 d8 0b
	00		 mov	 cl, BYTE PTR ?ItemAttribute@@3PAUITEM_ATTRIBUTE@@A[eax+776304]
  00ff6	88 4c 05 bc	 mov	 BYTE PTR _Result$[ebp+eax+4], cl
  00ffa	40		 inc	 eax
  00ffb	3a cb		 cmp	 cl, bl
  00ffd	75 f1		 jne	 SHORT $LL130@EGRecv2Anv

; 2072 : 				}
; 2073 : 				break;

  00fff	e9 ea 02 00 00	 jmp	 $LN1@EGRecv2Anv
$LN17@EGRecv2Anv:

; 2074 : 			case 45:
; 2075 : 				ItemSerialCreateSend(gObj[aRecv->iINDEX].m_Index, GIFT_2ANV_MAP, 
; 2076 : 					gObj[aRecv->iINDEX].X, gObj[aRecv->iINDEX].Y,
; 2077 : 					ItemGetNumberMake(14, 11),
; 2078 : 					8, 0, 0, 0, 0,
; 2079 : 					aRecv->iINDEX,
; 2080 : 					0, 0);

  01004	8b 46 04	 mov	 eax, DWORD PTR [esi+4]
  01007	8b 7e 04	 mov	 edi, DWORD PTR [esi+4]
  0100a	53		 push	 ebx
  0100b	69 ff 64 15 00
	00		 imul	 edi, 5476		; 00001564H
  01011	53		 push	 ebx
  01012	50		 push	 eax
  01013	53		 push	 ebx
  01014	53		 push	 ebx
  01015	53		 push	 ebx
  01016	53		 push	 ebx
  01017	6a 08		 push	 8
  01019	6a 0b		 push	 11			; 0000000bH
  0101b	6a 0e		 push	 14			; 0000000eH
  0101d	e8 00 00 00 00	 call	 ?ItemGetNumberMake@@YAHHH@Z ; ItemGetNumberMake
  01022	0f b6 8f 06 01
	00 00		 movzx	 ecx, BYTE PTR ?gObj@@3PAUOBJECTSTRUCT@@A[edi+262]
  01029	0f b6 97 04 01
	00 00		 movzx	 edx, BYTE PTR ?gObj@@3PAUOBJECTSTRUCT@@A[edi+260]
  01030	83 c4 08	 add	 esp, 8
  01033	50		 push	 eax
  01034	8b 87 00 00 00
	00		 mov	 eax, DWORD PTR ?gObj@@3PAUOBJECTSTRUCT@@A[edi]
  0103a	51		 push	 ecx
  0103b	52		 push	 edx
  0103c	68 eb 00 00 00	 push	 235			; 000000ebH
  01041	50		 push	 eax
  01042	e8 00 00 00 00	 call	 ?ItemSerialCreateSend@@YAXHEEEHEEEEEHEE@Z ; ItemSerialCreateSend
  01047	83 c4 34	 add	 esp, 52			; 00000034H

; 2081 : 
; 2082 : 				if ( g_bRingEventItemTextLoad == FALSE )

  0104a	39 1d 00 00 00
	00		 cmp	 DWORD PTR ?g_bRingEventItemTextLoad@@3HA, ebx ; g_bRingEventItemTextLoad
  01050	0f 85 98 02 00
	00		 jne	 $LN1@EGRecv2Anv

; 2083 : 				{
; 2084 : 					strcpy(Result.szGIFT_NAME, ItemAttribute[ITEMGET(14, 11)].Name);

  01056	33 c0		 xor	 eax, eax
  01058	eb 06 8d 9b 00
	00 00 00	 npad	 8
$LL131@EGRecv2Anv:
  01060	8a 88 a4 d4 0b
	00		 mov	 cl, BYTE PTR ?ItemAttribute@@3PAUITEM_ATTRIBUTE@@A[eax+775332]
  01066	88 4c 05 bc	 mov	 BYTE PTR _Result$[ebp+eax+4], cl
  0106a	40		 inc	 eax
  0106b	3a cb		 cmp	 cl, bl
  0106d	75 f1		 jne	 SHORT $LL131@EGRecv2Anv

; 2085 : 				}
; 2086 : 				break;

  0106f	e9 7a 02 00 00	 jmp	 $LN1@EGRecv2Anv
$LN15@EGRecv2Anv:

; 2087 : 			case 46:
; 2088 : 				ItemSerialCreateSend(gObj[aRecv->iINDEX].m_Index, GIFT_2ANV_MAP, 
; 2089 : 					gObj[aRecv->iINDEX].X, gObj[aRecv->iINDEX].Y,
; 2090 : 					ItemGetNumberMake(14, 41),
; 2091 : 					0, 0, 0, 0, 0,
; 2092 : 					aRecv->iINDEX,
; 2093 : 					0, 0);

  01074	8b 4e 04	 mov	 ecx, DWORD PTR [esi+4]
  01077	8b 7e 04	 mov	 edi, DWORD PTR [esi+4]
  0107a	53		 push	 ebx
  0107b	69 ff 64 15 00
	00		 imul	 edi, 5476		; 00001564H
  01081	53		 push	 ebx
  01082	51		 push	 ecx
  01083	53		 push	 ebx
  01084	53		 push	 ebx
  01085	53		 push	 ebx
  01086	53		 push	 ebx
  01087	53		 push	 ebx
  01088	6a 29		 push	 41			; 00000029H
  0108a	6a 0e		 push	 14			; 0000000eH
  0108c	e8 00 00 00 00	 call	 ?ItemGetNumberMake@@YAHHH@Z ; ItemGetNumberMake
  01091	0f b6 97 06 01
	00 00		 movzx	 edx, BYTE PTR ?gObj@@3PAUOBJECTSTRUCT@@A[edi+262]
  01098	8b 8f 00 00 00
	00		 mov	 ecx, DWORD PTR ?gObj@@3PAUOBJECTSTRUCT@@A[edi]
  0109e	83 c4 08	 add	 esp, 8
  010a1	50		 push	 eax
  010a2	0f b6 87 04 01
	00 00		 movzx	 eax, BYTE PTR ?gObj@@3PAUOBJECTSTRUCT@@A[edi+260]
  010a9	52		 push	 edx
  010aa	50		 push	 eax
  010ab	68 eb 00 00 00	 push	 235			; 000000ebH
  010b0	51		 push	 ecx
  010b1	e8 00 00 00 00	 call	 ?ItemSerialCreateSend@@YAXHEEEHEEEEEHEE@Z ; ItemSerialCreateSend
  010b6	83 c4 34	 add	 esp, 52			; 00000034H

; 2094 : 
; 2095 : 				if ( g_bRingEventItemTextLoad == FALSE )

  010b9	39 1d 00 00 00
	00		 cmp	 DWORD PTR ?g_bRingEventItemTextLoad@@3HA, ebx ; g_bRingEventItemTextLoad
  010bf	0f 85 29 02 00
	00		 jne	 $LN1@EGRecv2Anv

; 2096 : 				{
; 2097 : 					strcpy(Result.szGIFT_NAME, ItemAttribute[ITEMGET(14, 41)].Name);

  010c5	33 c0		 xor	 eax, eax
  010c7	eb 07 8d a4 24
	00 00 00 00	 npad	 9
$LL132@EGRecv2Anv:
  010d0	8a 88 4c e1 0b
	00		 mov	 cl, BYTE PTR ?ItemAttribute@@3PAUITEM_ATTRIBUTE@@A[eax+778572]
  010d6	88 4c 05 bc	 mov	 BYTE PTR _Result$[ebp+eax+4], cl
  010da	40		 inc	 eax
  010db	3a cb		 cmp	 cl, bl
  010dd	75 f1		 jne	 SHORT $LL132@EGRecv2Anv

; 2098 : 				}
; 2099 : 				break;

  010df	e9 0a 02 00 00	 jmp	 $LN1@EGRecv2Anv
$LN13@EGRecv2Anv:

; 2100 : 			case 47:
; 2101 : 				ItemSerialCreateSend(gObj[aRecv->iINDEX].m_Index, GIFT_2ANV_MAP, 
; 2102 : 					gObj[aRecv->iINDEX].X, gObj[aRecv->iINDEX].Y,
; 2103 : 					ItemGetNumberMake(14, 42),
; 2104 : 					0, 0, 0, 0, 0,
; 2105 : 					aRecv->iINDEX,
; 2106 : 					0, 0);

  010e4	8b 56 04	 mov	 edx, DWORD PTR [esi+4]
  010e7	8b 7e 04	 mov	 edi, DWORD PTR [esi+4]
  010ea	53		 push	 ebx
  010eb	69 ff 64 15 00
	00		 imul	 edi, 5476		; 00001564H
  010f1	53		 push	 ebx
  010f2	52		 push	 edx
  010f3	53		 push	 ebx
  010f4	53		 push	 ebx
  010f5	53		 push	 ebx
  010f6	53		 push	 ebx
  010f7	53		 push	 ebx
  010f8	6a 2a		 push	 42			; 0000002aH
  010fa	6a 0e		 push	 14			; 0000000eH
  010fc	e8 00 00 00 00	 call	 ?ItemGetNumberMake@@YAHHH@Z ; ItemGetNumberMake
  01101	0f b6 8f 04 01
	00 00		 movzx	 ecx, BYTE PTR ?gObj@@3PAUOBJECTSTRUCT@@A[edi+260]
  01108	8b 97 00 00 00
	00		 mov	 edx, DWORD PTR ?gObj@@3PAUOBJECTSTRUCT@@A[edi]
  0110e	83 c4 08	 add	 esp, 8
  01111	50		 push	 eax
  01112	0f b6 87 06 01
	00 00		 movzx	 eax, BYTE PTR ?gObj@@3PAUOBJECTSTRUCT@@A[edi+262]
  01119	50		 push	 eax
  0111a	51		 push	 ecx
  0111b	68 eb 00 00 00	 push	 235			; 000000ebH
  01120	52		 push	 edx
  01121	e8 00 00 00 00	 call	 ?ItemSerialCreateSend@@YAXHEEEHEEEEEHEE@Z ; ItemSerialCreateSend
  01126	83 c4 34	 add	 esp, 52			; 00000034H

; 2107 : 
; 2108 : 				if ( g_bRingEventItemTextLoad == FALSE )

  01129	39 1d 00 00 00
	00		 cmp	 DWORD PTR ?g_bRingEventItemTextLoad@@3HA, ebx ; g_bRingEventItemTextLoad
  0112f	0f 85 b9 01 00
	00		 jne	 $LN1@EGRecv2Anv

; 2109 : 				{
; 2110 : 					strcpy(Result.szGIFT_NAME, ItemAttribute[ITEMGET(14, 42)].Name);

  01135	33 c0		 xor	 eax, eax
  01137	eb 07 8d a4 24
	00 00 00 00	 npad	 9
$LL133@EGRecv2Anv:
  01140	8a 88 b8 e1 0b
	00		 mov	 cl, BYTE PTR ?ItemAttribute@@3PAUITEM_ATTRIBUTE@@A[eax+778680]
  01146	88 4c 05 bc	 mov	 BYTE PTR _Result$[ebp+eax+4], cl
  0114a	40		 inc	 eax
  0114b	3a cb		 cmp	 cl, bl
  0114d	75 f1		 jne	 SHORT $LL133@EGRecv2Anv

; 2111 : 				}
; 2112 : 				break;

  0114f	e9 9a 01 00 00	 jmp	 $LN1@EGRecv2Anv
$LN11@EGRecv2Anv:

; 2113 : 			case 48:
; 2114 : 				ItemSerialCreateSend(gObj[aRecv->iINDEX].m_Index, GIFT_2ANV_MAP, 
; 2115 : 					gObj[aRecv->iINDEX].X, gObj[aRecv->iINDEX].Y,
; 2116 : 					ItemGetNumberMake(14, 44),
; 2117 : 					0, 0, 0, 0, 0,
; 2118 : 					aRecv->iINDEX,
; 2119 : 					0, 0);

  01154	8b 46 04	 mov	 eax, DWORD PTR [esi+4]
  01157	8b 7e 04	 mov	 edi, DWORD PTR [esi+4]
  0115a	53		 push	 ebx
  0115b	69 ff 64 15 00
	00		 imul	 edi, 5476		; 00001564H
  01161	53		 push	 ebx
  01162	50		 push	 eax
  01163	53		 push	 ebx
  01164	53		 push	 ebx
  01165	53		 push	 ebx
  01166	53		 push	 ebx
  01167	53		 push	 ebx
  01168	6a 2c		 push	 44			; 0000002cH
  0116a	6a 0e		 push	 14			; 0000000eH
  0116c	e8 00 00 00 00	 call	 ?ItemGetNumberMake@@YAHHH@Z ; ItemGetNumberMake
  01171	0f b6 8f 06 01
	00 00		 movzx	 ecx, BYTE PTR ?gObj@@3PAUOBJECTSTRUCT@@A[edi+262]
  01178	0f b6 97 04 01
	00 00		 movzx	 edx, BYTE PTR ?gObj@@3PAUOBJECTSTRUCT@@A[edi+260]
  0117f	83 c4 08	 add	 esp, 8
  01182	50		 push	 eax
  01183	8b 87 00 00 00
	00		 mov	 eax, DWORD PTR ?gObj@@3PAUOBJECTSTRUCT@@A[edi]
  01189	51		 push	 ecx
  0118a	52		 push	 edx
  0118b	68 eb 00 00 00	 push	 235			; 000000ebH
  01190	50		 push	 eax
  01191	e8 00 00 00 00	 call	 ?ItemSerialCreateSend@@YAXHEEEHEEEEEHEE@Z ; ItemSerialCreateSend
  01196	83 c4 34	 add	 esp, 52			; 00000034H

; 2120 : 
; 2121 : 				if ( g_bRingEventItemTextLoad == FALSE )

  01199	39 1d 00 00 00
	00		 cmp	 DWORD PTR ?g_bRingEventItemTextLoad@@3HA, ebx ; g_bRingEventItemTextLoad
  0119f	0f 85 49 01 00
	00		 jne	 $LN1@EGRecv2Anv

; 2122 : 				{
; 2123 : 					strcpy(Result.szGIFT_NAME, ItemAttribute[ITEMGET(14, 44)].Name);

  011a5	33 c0		 xor	 eax, eax
  011a7	eb 07 8d a4 24
	00 00 00 00	 npad	 9
$LL134@EGRecv2Anv:
  011b0	8a 88 90 e2 0b
	00		 mov	 cl, BYTE PTR ?ItemAttribute@@3PAUITEM_ATTRIBUTE@@A[eax+778896]
  011b6	88 4c 05 bc	 mov	 BYTE PTR _Result$[ebp+eax+4], cl
  011ba	40		 inc	 eax
  011bb	3a cb		 cmp	 cl, bl
  011bd	75 f1		 jne	 SHORT $LL134@EGRecv2Anv

; 2124 : 				}
; 2125 : 				break;

  011bf	e9 2a 01 00 00	 jmp	 $LN1@EGRecv2Anv
$LN9@EGRecv2Anv:

; 2126 : 			case 49:
; 2127 : 				ItemSerialCreateSend(gObj[aRecv->iINDEX].m_Index, GIFT_2ANV_MAP, 
; 2128 : 					gObj[aRecv->iINDEX].X, gObj[aRecv->iINDEX].Y,
; 2129 : 					ItemGetNumberMake(14, 43),
; 2130 : 					0, 0, 0, 0, 0,
; 2131 : 					aRecv->iINDEX,
; 2132 : 					0, 0);

  011c4	8b 4e 04	 mov	 ecx, DWORD PTR [esi+4]
  011c7	8b 7e 04	 mov	 edi, DWORD PTR [esi+4]
  011ca	53		 push	 ebx
  011cb	69 ff 64 15 00
	00		 imul	 edi, 5476		; 00001564H
  011d1	53		 push	 ebx
  011d2	51		 push	 ecx
  011d3	53		 push	 ebx
  011d4	53		 push	 ebx
  011d5	53		 push	 ebx
  011d6	53		 push	 ebx
  011d7	53		 push	 ebx
  011d8	6a 2b		 push	 43			; 0000002bH
  011da	6a 0e		 push	 14			; 0000000eH
  011dc	e8 00 00 00 00	 call	 ?ItemGetNumberMake@@YAHHH@Z ; ItemGetNumberMake
  011e1	0f b6 97 06 01
	00 00		 movzx	 edx, BYTE PTR ?gObj@@3PAUOBJECTSTRUCT@@A[edi+262]
  011e8	8b 8f 00 00 00
	00		 mov	 ecx, DWORD PTR ?gObj@@3PAUOBJECTSTRUCT@@A[edi]
  011ee	83 c4 08	 add	 esp, 8
  011f1	50		 push	 eax
  011f2	0f b6 87 04 01
	00 00		 movzx	 eax, BYTE PTR ?gObj@@3PAUOBJECTSTRUCT@@A[edi+260]
  011f9	52		 push	 edx
  011fa	50		 push	 eax
  011fb	68 eb 00 00 00	 push	 235			; 000000ebH
  01200	51		 push	 ecx
  01201	e8 00 00 00 00	 call	 ?ItemSerialCreateSend@@YAXHEEEHEEEEEHEE@Z ; ItemSerialCreateSend
  01206	83 c4 34	 add	 esp, 52			; 00000034H

; 2133 : 
; 2134 : 				if ( g_bRingEventItemTextLoad == FALSE )

  01209	39 1d 00 00 00
	00		 cmp	 DWORD PTR ?g_bRingEventItemTextLoad@@3HA, ebx ; g_bRingEventItemTextLoad
  0120f	0f 85 d9 00 00
	00		 jne	 $LN1@EGRecv2Anv

; 2135 : 				{
; 2136 : 					strcpy(Result.szGIFT_NAME, ItemAttribute[ITEMGET(14, 43)].Name);

  01215	33 c0		 xor	 eax, eax
  01217	eb 07 8d a4 24
	00 00 00 00	 npad	 9
$LL135@EGRecv2Anv:
  01220	8a 88 24 e2 0b
	00		 mov	 cl, BYTE PTR ?ItemAttribute@@3PAUITEM_ATTRIBUTE@@A[eax+778788]
  01226	88 4c 05 bc	 mov	 BYTE PTR _Result$[ebp+eax+4], cl
  0122a	40		 inc	 eax
  0122b	3a cb		 cmp	 cl, bl
  0122d	75 f1		 jne	 SHORT $LL135@EGRecv2Anv

; 2137 : 				}
; 2138 : 				break;

  0122f	e9 ba 00 00 00	 jmp	 $LN1@EGRecv2Anv
$LN7@EGRecv2Anv:

; 2139 : 			case 50:
; 2140 : 				ItemSerialCreateSend(gObj[aRecv->iINDEX].m_Index, GIFT_2ANV_MAP, 
; 2141 : 					gObj[aRecv->iINDEX].X, gObj[aRecv->iINDEX].Y,
; 2142 : 					ItemGetNumberMake(14, 31),
; 2143 : 					0, 0, 0, 0, 0,
; 2144 : 					aRecv->iINDEX,
; 2145 : 					0, 0);

  01234	8b 56 04	 mov	 edx, DWORD PTR [esi+4]
  01237	8b 7e 04	 mov	 edi, DWORD PTR [esi+4]
  0123a	53		 push	 ebx
  0123b	69 ff 64 15 00
	00		 imul	 edi, 5476		; 00001564H
  01241	53		 push	 ebx
  01242	52		 push	 edx
  01243	53		 push	 ebx
  01244	53		 push	 ebx
  01245	53		 push	 ebx
  01246	53		 push	 ebx
  01247	53		 push	 ebx
  01248	6a 1f		 push	 31			; 0000001fH
  0124a	6a 0e		 push	 14			; 0000000eH
  0124c	e8 00 00 00 00	 call	 ?ItemGetNumberMake@@YAHHH@Z ; ItemGetNumberMake
  01251	0f b6 8f 04 01
	00 00		 movzx	 ecx, BYTE PTR ?gObj@@3PAUOBJECTSTRUCT@@A[edi+260]
  01258	8b 97 00 00 00
	00		 mov	 edx, DWORD PTR ?gObj@@3PAUOBJECTSTRUCT@@A[edi]
  0125e	83 c4 08	 add	 esp, 8
  01261	50		 push	 eax
  01262	0f b6 87 06 01
	00 00		 movzx	 eax, BYTE PTR ?gObj@@3PAUOBJECTSTRUCT@@A[edi+262]
  01269	50		 push	 eax
  0126a	51		 push	 ecx
  0126b	68 eb 00 00 00	 push	 235			; 000000ebH
  01270	52		 push	 edx
  01271	e8 00 00 00 00	 call	 ?ItemSerialCreateSend@@YAXHEEEHEEEEEHEE@Z ; ItemSerialCreateSend
  01276	83 c4 34	 add	 esp, 52			; 00000034H

; 2146 : 
; 2147 : 				if ( g_bRingEventItemTextLoad == FALSE )

  01279	39 1d 00 00 00
	00		 cmp	 DWORD PTR ?g_bRingEventItemTextLoad@@3HA, ebx ; g_bRingEventItemTextLoad
  0127f	75 6d		 jne	 SHORT $LN1@EGRecv2Anv

; 2148 : 				{
; 2149 : 					strcpy(Result.szGIFT_NAME, ItemAttribute[ITEMGET(14, 31)].Name);

  01281	33 c0		 xor	 eax, eax
$LL136@EGRecv2Anv:
  01283	8a 88 14 dd 0b
	00		 mov	 cl, BYTE PTR ?ItemAttribute@@3PAUITEM_ATTRIBUTE@@A[eax+777492]
  01289	88 4c 05 bc	 mov	 BYTE PTR _Result$[ebp+eax+4], cl
  0128d	40		 inc	 eax
  0128e	3a cb		 cmp	 cl, bl
  01290	75 f1		 jne	 SHORT $LL136@EGRecv2Anv

; 2150 : 				}
; 2151 : 				break;

  01292	eb 5a		 jmp	 SHORT $LN1@EGRecv2Anv
$LN5@EGRecv2Anv:

; 2152 : 			default:
; 2153 : 				LogAdd(LOG_BLACK, "[Mu_2Anv_Event] Error : iGiftNumber is Out of Boud [%d]", aRecv->iGiftNumber);

  01294	50		 push	 eax
  01295	68 00 00 00 00	 push	 OFFSET ??_C@_0DI@MNCKIFPI@?$FLMu_2Anv_Event?$FN?5Error?5?3?5iGiftNum@
  0129a	53		 push	 ebx
  0129b	e8 00 00 00 00	 call	 ?LogAdd@@YAXW4eLogColor@@PADZZ ; LogAdd
  012a0	83 c4 0c	 add	 esp, 12			; 0000000cH

; 2154 : 				break;
; 2155 : 		}
; 2156 : 	}
; 2157 : 	else if ( aRecv->btIsRegistered == 1 ||

  012a3	e9 46 00 00 00	 jmp	 $LN1@EGRecv2Anv
$LN91@EGRecv2Anv:

; 2158 : 			  aRecv->btIsRegistered == 2 ||
; 2159 : 			  aRecv->btIsRegistered == 3 ||
; 2160 : 			  aRecv->btIsRegistered == 4 ||
; 2161 : 			  aRecv->btIsRegistered == 5 )

  012a8	3c 01		 cmp	 al, 1
  012aa	0f 84 3b 00 00
	00		 je	 $LN2@EGRecv2Anv
  012b0	3c 02		 cmp	 al, 2
  012b2	0f 84 33 00 00
	00		 je	 $LN2@EGRecv2Anv
  012b8	3c 03		 cmp	 al, 3
  012ba	0f 84 2b 00 00
	00		 je	 $LN2@EGRecv2Anv
  012c0	3c 04		 cmp	 al, 4
  012c2	0f 84 23 00 00
	00		 je	 $LN2@EGRecv2Anv
  012c8	3c 05		 cmp	 al, 5
  012ca	0f 84 1b 00 00
	00		 je	 $LN2@EGRecv2Anv

; 2164 : 	}
; 2165 : 	else
; 2166 : 	{
; 2167 : 		Result.btIsRegistered = 4;
; 2168 : 		LogAdd(LOG_BLACK, "[Mu_2Anv_Event] Error : Result Value is Wrong [%d]", aRecv->btIsRegistered);

  012d0	0f b6 c0	 movzx	 eax, al
  012d3	50		 push	 eax
  012d4	68 00 00 00 00	 push	 OFFSET ??_C@_0DD@BPJEDJME@?$FLMu_2Anv_Event?$FN?5Error?5?3?5Result?5V@
  012d9	53		 push	 ebx
  012da	c6 45 bb 04	 mov	 BYTE PTR _Result$[ebp+3], 4
  012de	e8 00 00 00 00	 call	 ?LogAdd@@YAXW4eLogColor@@PADZZ ; LogAdd
  012e3	83 c4 0c	 add	 esp, 12			; 0000000cH
  012e6	e9 03 00 00 00	 jmp	 $LN1@EGRecv2Anv
$LN2@EGRecv2Anv:

; 2162 : 	{
; 2163 : 		Result.btIsRegistered = aRecv->btIsRegistered;

  012eb	88 45 bb	 mov	 BYTE PTR _Result$[ebp+3], al
$LN1@EGRecv2Anv:

; 2169 : 	}
; 2170 : 
; 2171 : 	LogAdd(LOG_BLACK, "[Mu_2Anv_Event] Register Serial Result : %d [%s][%s]",
; 2172 : 		aRecv->btIsRegistered, gObj[aRecv->iINDEX].AccountID, gObj[aRecv->iINDEX].Name);

  012ee	8b 46 04	 mov	 eax, DWORD PTR [esi+4]
  012f1	69 c0 64 15 00
	00		 imul	 eax, 5476		; 00001564H
  012f7	8d 88 6f 00 00
	00		 lea	 ecx, DWORD PTR ?gObj@@3PAUOBJECTSTRUCT@@A[eax+111]
  012fd	51		 push	 ecx
  012fe	8d 90 64 00 00
	00		 lea	 edx, DWORD PTR ?gObj@@3PAUOBJECTSTRUCT@@A[eax+100]
  01304	0f b6 46 13	 movzx	 eax, BYTE PTR [esi+19]
  01308	52		 push	 edx
  01309	50		 push	 eax
  0130a	68 00 00 00 00	 push	 OFFSET ??_C@_0DF@GNHADNCC@?$FLMu_2Anv_Event?$FN?5Register?5Serial?5@
  0130f	53		 push	 ebx
  01310	e8 00 00 00 00	 call	 ?LogAdd@@YAXW4eLogColor@@PADZZ ; LogAdd

; 2173 : 
; 2174 : 	DataSend(aRecv->iINDEX, (LPBYTE)&Result, Result.h.size);

  01315	0f b6 4d b9	 movzx	 ecx, BYTE PTR _Result$[ebp+1]
  01319	8b 46 04	 mov	 eax, DWORD PTR [esi+4]
  0131c	51		 push	 ecx
  0131d	8d 55 b8	 lea	 edx, DWORD PTR _Result$[ebp]
  01320	52		 push	 edx
  01321	50		 push	 eax
  01322	e8 00 00 00 00	 call	 ?DataSend@@YAHHPAEK@Z	; DataSend

; 2175 : 
; 2176 : 	gObj[aRecv->iINDEX].UseEventServer = FALSE;

  01327	8b 4e 04	 mov	 ecx, DWORD PTR [esi+4]
  0132a	69 c9 64 15 00
	00		 imul	 ecx, 5476		; 00001564H
  01330	83 c4 20	 add	 esp, 32			; 00000020H
  01333	89 99 b4 0e 00
	00		 mov	 DWORD PTR ?gObj@@3PAUOBJECTSTRUCT@@A[ecx+3764], ebx

; 2177 : }

  01339	8b 4d fc	 mov	 ecx, DWORD PTR __$ArrayPad$[ebp]
  0133c	5f		 pop	 edi
  0133d	5e		 pop	 esi
  0133e	33 cd		 xor	 ecx, ebp
  01340	5b		 pop	 ebx
  01341	e8 00 00 00 00	 call	 @__security_check_cookie@4
  01346	8b e5		 mov	 esp, ebp
  01348	5d		 pop	 ebp
  01349	c3		 ret	 0
  0134a	8b ff		 npad	 2
$LN177@EGRecv2Anv:
  0134c	00 00 00 00	 DD	 $LN85@EGRecv2Anv
  01350	00 00 00 00	 DD	 $LN83@EGRecv2Anv
  01354	00 00 00 00	 DD	 $LN81@EGRecv2Anv
  01358	00 00 00 00	 DD	 $LN79@EGRecv2Anv
  0135c	00 00 00 00	 DD	 $LN77@EGRecv2Anv
  01360	00 00 00 00	 DD	 $LN75@EGRecv2Anv
  01364	00 00 00 00	 DD	 $LN73@EGRecv2Anv
  01368	00 00 00 00	 DD	 $LN71@EGRecv2Anv
  0136c	00 00 00 00	 DD	 $LN71@EGRecv2Anv
  01370	00 00 00 00	 DD	 $LN71@EGRecv2Anv
  01374	00 00 00 00	 DD	 $LN69@EGRecv2Anv
  01378	00 00 00 00	 DD	 $LN67@EGRecv2Anv
  0137c	00 00 00 00	 DD	 $LN65@EGRecv2Anv
  01380	00 00 00 00	 DD	 $LN63@EGRecv2Anv
  01384	00 00 00 00	 DD	 $LN61@EGRecv2Anv
  01388	00 00 00 00	 DD	 $LN59@EGRecv2Anv
  0138c	00 00 00 00	 DD	 $LN57@EGRecv2Anv
  01390	00 00 00 00	 DD	 $LN55@EGRecv2Anv
  01394	00 00 00 00	 DD	 $LN53@EGRecv2Anv
  01398	00 00 00 00	 DD	 $LN51@EGRecv2Anv
  0139c	00 00 00 00	 DD	 $LN49@EGRecv2Anv
  013a0	00 00 00 00	 DD	 $LN47@EGRecv2Anv
  013a4	00 00 00 00	 DD	 $LN45@EGRecv2Anv
  013a8	00 00 00 00	 DD	 $LN43@EGRecv2Anv
  013ac	00 00 00 00	 DD	 $LN41@EGRecv2Anv
  013b0	00 00 00 00	 DD	 $LN39@EGRecv2Anv
  013b4	00 00 00 00	 DD	 $LN37@EGRecv2Anv
  013b8	00 00 00 00	 DD	 $LN35@EGRecv2Anv
  013bc	00 00 00 00	 DD	 $LN33@EGRecv2Anv
  013c0	00 00 00 00	 DD	 $LN31@EGRecv2Anv
  013c4	00 00 00 00	 DD	 $LN29@EGRecv2Anv
  013c8	00 00 00 00	 DD	 $LN27@EGRecv2Anv
  013cc	00 00 00 00	 DD	 $LN25@EGRecv2Anv
  013d0	00 00 00 00	 DD	 $LN23@EGRecv2Anv
  013d4	00 00 00 00	 DD	 $LN23@EGRecv2Anv
  013d8	00 00 00 00	 DD	 $LN23@EGRecv2Anv
  013dc	00 00 00 00	 DD	 $LN23@EGRecv2Anv
  013e0	00 00 00 00	 DD	 $LN21@EGRecv2Anv
  013e4	00 00 00 00	 DD	 $LN21@EGRecv2Anv
  013e8	00 00 00 00	 DD	 $LN19@EGRecv2Anv
  013ec	00 00 00 00	 DD	 $LN19@EGRecv2Anv
  013f0	00 00 00 00	 DD	 $LN19@EGRecv2Anv
  013f4	00 00 00 00	 DD	 $LN19@EGRecv2Anv
  013f8	00 00 00 00	 DD	 $LN19@EGRecv2Anv
  013fc	00 00 00 00	 DD	 $LN17@EGRecv2Anv
  01400	00 00 00 00	 DD	 $LN15@EGRecv2Anv
  01404	00 00 00 00	 DD	 $LN13@EGRecv2Anv
  01408	00 00 00 00	 DD	 $LN11@EGRecv2Anv
  0140c	00 00 00 00	 DD	 $LN9@EGRecv2Anv
  01410	00 00 00 00	 DD	 $LN7@EGRecv2Anv
?EGRecv2AnvRegSerial@@YAXPAUPMSG_ANS_2ANIV_SERIAL@@@Z ENDP ; EGRecv2AnvRegSerial
_TEXT	ENDS
PUBLIC	??_C@_0DC@NJLHLHM@?$FLRing?5Event?$FN?5?$FL?$CFs?$FN?$FL?$CFs?$FN?5Register?5F@ ; `string'
PUBLIC	??_C@_0EN@JKCGIJEK@?$FLRing?5Event?$FN?5?$FL?$CFs?$FN?$FL?$CFs?$FN?5Register?5F@ ; `string'
PUBLIC	??_C@_0DM@EBGDAEID@?$FLRing?5Event?$FN?5?$FL?$CFs?$FN?$FL?$CFs?$FN?5Register?5S@ ; `string'
PUBLIC	??_C@_0BP@LPHCCDAB@?$CFs?$LE?T?5?$LC?$LC?$LM?$KN?5?$CFs?$LP?$KB?5?$LE?g?C?$LH?$LF?G?$LM?L?$LN?$MA?$LE?O?$LE?Y?4?$AA@ ; `string'
PUBLIC	__$ArrayPad$
PUBLIC	?EGRecvRegRingGift@@YAXPAUPMSG_ANS_REG_RINGGIFT@@@Z ; EGRecvRegRingGift
EXTRN	?AllSendServerMsg@@YAXPAD@Z:PROC		; AllSendServerMsg
EXTRN	?gObjIsConnected@@YAHH@Z:PROC			; gObjIsConnected
;	COMDAT ??_C@_0DC@NJLHLHM@?$FLRing?5Event?$FN?5?$FL?$CFs?$FN?$FL?$CFs?$FN?5Register?5F@
CONST	SEGMENT
??_C@_0DC@NJLHLHM@?$FLRing?5Event?$FN?5?$FL?$CFs?$FN?$FL?$CFs?$FN?5Register?5F@ DB '['
	DB	'Ring Event] [%s][%s] Register Failed Result : %d', 00H ; `string'
CONST	ENDS
;	COMDAT ??_C@_0EN@JKCGIJEK@?$FLRing?5Event?$FN?5?$FL?$CFs?$FN?$FL?$CFs?$FN?5Register?5F@
CONST	SEGMENT
??_C@_0EN@JKCGIJEK@?$FLRing?5Event?$FN?5?$FL?$CFs?$FN?$FL?$CFs?$FN?5Register?5F@ DB '['
	DB	'Ring Event] [%s][%s] Register Failed Result:%d, Gift:%d (out '
	DB	'of bound, 1~4)', 00H			; `string'
CONST	ENDS
;	COMDAT ??_C@_0DM@EBGDAEID@?$FLRing?5Event?$FN?5?$FL?$CFs?$FN?$FL?$CFs?$FN?5Register?5S@
CONST	SEGMENT
??_C@_0DM@EBGDAEID@?$FLRing?5Event?$FN?5?$FL?$CFs?$FN?$FL?$CFs?$FN?5Register?5S@ DB '['
	DB	'Ring Event] [%s][%s] Register Succeeded Result:%d, Gift:%d', 00H ; `string'
CONST	ENDS
;	COMDAT ??_C@_0BP@LPHCCDAB@?$CFs?$LE?T?5?$LC?$LC?$LM?$KN?5?$CFs?$LP?$KB?5?$LE?g?C?$LH?$LF?G?$LM?L?$LN?$MA?$LE?O?$LE?Y?4?$AA@
CONST	SEGMENT
??_C@_0BP@LPHCCDAB@?$CFs?$LE?T?5?$LC?$LC?$LM?$KN?5?$CFs?$LP?$KB?5?$LE?g?C?$LH?$LF?G?$LM?L?$LN?$MA?$LE?O?$LE?Y?4?$AA@ DB '%'
	DB	's', 0b4H, 0d4H, ' ', 0b2H, 0b2H, 0bcH, 0adH, ' %s', 0bfH, 0a1H
	DB	' ', 0b4H, 0e7H, 0c3H, 0b7H, 0b5H, 0c7H, 0bcH, 0ccH, 0bdH, 0c0H
	DB	0b4H, 0cfH, 0b4H, 0d9H, '.', 00H		; `string'
; Function compile flags: /Ogtp
CONST	ENDS
;	COMDAT ?EGRecvRegRingGift@@YAXPAUPMSG_ANS_REG_RINGGIFT@@@Z
_TEXT	SEGMENT
_szTemp$155941 = -260					; size = 256
__$ArrayPad$ = -4					; size = 4
_aRecv$ = 8						; size = 4
?EGRecvRegRingGift@@YAXPAUPMSG_ANS_REG_RINGGIFT@@@Z PROC ; EGRecvRegRingGift, COMDAT

; 2189 : {

  00000	55		 push	 ebp
  00001	8b ec		 mov	 ebp, esp
  00003	81 ec 04 01 00
	00		 sub	 esp, 260		; 00000104H
  00009	a1 00 00 00 00	 mov	 eax, DWORD PTR ___security_cookie
  0000e	33 c5		 xor	 eax, ebp
  00010	89 45 fc	 mov	 DWORD PTR __$ArrayPad$[ebp], eax
  00013	56		 push	 esi
  00014	8b 75 08	 mov	 esi, DWORD PTR _aRecv$[ebp]

; 2190 : 	gObj[aRecv->iINDEX].UseEventServer = FALSE;

  00017	8b 46 04	 mov	 eax, DWORD PTR [esi+4]
  0001a	69 c0 64 15 00
	00		 imul	 eax, 5476		; 00001564H
  00020	c7 80 b4 0e 00
	00 00 00 00 00	 mov	 DWORD PTR ?gObj@@3PAUOBJECTSTRUCT@@A[eax+3764], 0

; 2191 : 
; 2192 : 	if ( gObjIsConnected(aRecv->iINDEX) == FALSE )

  0002a	8b 4e 04	 mov	 ecx, DWORD PTR [esi+4]
  0002d	51		 push	 ecx
  0002e	e8 00 00 00 00	 call	 ?gObjIsConnected@@YAHH@Z ; gObjIsConnected
  00033	83 c4 04	 add	 esp, 4
  00036	85 c0		 test	 eax, eax
  00038	0f 84 80 01 00
	00		 je	 $LN1@EGRecvRegR

; 2193 : 		return;
; 2194 : 
; 2195 : 	if ( strcmp(aRecv->szUID, gObj[aRecv->iINDEX].AccountID))

  0003e	57		 push	 edi
  0003f	8b 7e 04	 mov	 edi, DWORD PTR [esi+4]
  00042	69 ff 64 15 00
	00		 imul	 edi, 5476		; 00001564H
  00048	8d 8f 64 00 00
	00		 lea	 ecx, DWORD PTR ?gObj@@3PAUOBJECTSTRUCT@@A[edi+100]
  0004e	8d 46 08	 lea	 eax, DWORD PTR [esi+8]
$LL11@EGRecvRegR:
  00051	8a 10		 mov	 dl, BYTE PTR [eax]
  00053	3a 11		 cmp	 dl, BYTE PTR [ecx]
  00055	75 1a		 jne	 SHORT $LN12@EGRecvRegR
  00057	84 d2		 test	 dl, dl
  00059	74 12		 je	 SHORT $LN13@EGRecvRegR
  0005b	8a 50 01	 mov	 dl, BYTE PTR [eax+1]
  0005e	3a 51 01	 cmp	 dl, BYTE PTR [ecx+1]
  00061	75 0e		 jne	 SHORT $LN12@EGRecvRegR
  00063	83 c0 02	 add	 eax, 2
  00066	83 c1 02	 add	 ecx, 2
  00069	84 d2		 test	 dl, dl
  0006b	75 e4		 jne	 SHORT $LL11@EGRecvRegR
$LN13@EGRecvRegR:
  0006d	33 c0		 xor	 eax, eax
  0006f	eb 05		 jmp	 SHORT $LN14@EGRecvRegR
$LN12@EGRecvRegR:
  00071	1b c0		 sbb	 eax, eax
  00073	83 d8 ff	 sbb	 eax, -1
$LN14@EGRecvRegR:
  00076	85 c0		 test	 eax, eax
  00078	0f 85 3f 01 00
	00		 jne	 $LN15@EGRecvRegR

; 2196 : 		return;
; 2197 : 
; 2198 : 	if ( aRecv->btIsRegistered == 1 )

  0007e	8a 4e 13	 mov	 cl, BYTE PTR [esi+19]
  00081	80 f9 01	 cmp	 cl, 1
  00084	0f 85 c5 00 00
	00		 jne	 $LN4@EGRecvRegR

; 2199 : 	{
; 2200 : 		if ( CHECK_LIMIT(aRecv->btGiftKind-1, 4) )

  0008a	0f b6 46 15	 movzx	 eax, BYTE PTR [esi+21]
  0008e	8d 48 ff	 lea	 ecx, DWORD PTR [eax-1]
  00091	85 c9		 test	 ecx, ecx
  00093	0f 88 7d 00 00
	00		 js	 $LN3@EGRecvRegR
  00099	33 d2		 xor	 edx, edx
  0009b	83 f9 03	 cmp	 ecx, 3
  0009e	0f 9e c2	 setle	 dl
  000a1	8b ca		 mov	 ecx, edx
  000a3	85 c9		 test	 ecx, ecx
  000a5	74 6f		 je	 SHORT $LN3@EGRecvRegR

; 2201 : 		{
; 2202 : 			char szTemp[256];
; 2203 : 			wsprintf(szTemp, "%s  %s .",
; 2204 : 				gObj[aRecv->iINDEX].Name, g_szRingEventOfflineGift[aRecv->btGiftKind-1]);

  000a7	c1 e0 05	 shl	 eax, 5
  000aa	8d 80 e0 ff ff
	ff		 lea	 eax, DWORD PTR _g_szRingEventOfflineGift[eax-32]
  000b0	50		 push	 eax
  000b1	8d 8f 6f 00 00
	00		 lea	 ecx, DWORD PTR ?gObj@@3PAUOBJECTSTRUCT@@A[edi+111]
  000b7	51		 push	 ecx
  000b8	8d 95 fc fe ff
	ff		 lea	 edx, DWORD PTR _szTemp$155941[ebp]
  000be	68 00 00 00 00	 push	 OFFSET ??_C@_0BP@LPHCCDAB@?$CFs?$LE?T?5?$LC?$LC?$LM?$KN?5?$CFs?$LP?$KB?5?$LE?g?C?$LH?$LF?G?$LM?L?$LN?$MA?$LE?O?$LE?Y?4?$AA@
  000c3	52		 push	 edx
  000c4	ff 15 00 00 00
	00		 call	 DWORD PTR __imp__wsprintfA

; 2205 : 
; 2206 : 			AllSendServerMsg(szTemp);

  000ca	8d 85 fc fe ff
	ff		 lea	 eax, DWORD PTR _szTemp$155941[ebp]
  000d0	50		 push	 eax
  000d1	e8 00 00 00 00	 call	 ?AllSendServerMsg@@YAXPAD@Z ; AllSendServerMsg

; 2207 : 
; 2208 : 			LogAdd(LOG_BLACK, "[Ring Event] [%s][%s] Register Succeeded Result:%d, Gift:%d",
; 2209 : 				gObj[aRecv->iINDEX].AccountID, gObj[aRecv->iINDEX].Name,
; 2210 : 				aRecv->btIsRegistered, aRecv->btGiftKind);

  000d6	8b 46 04	 mov	 eax, DWORD PTR [esi+4]
  000d9	0f b6 4e 15	 movzx	 ecx, BYTE PTR [esi+21]
  000dd	69 c0 64 15 00
	00		 imul	 eax, 5476		; 00001564H
  000e3	0f b6 56 13	 movzx	 edx, BYTE PTR [esi+19]
  000e7	51		 push	 ecx
  000e8	52		 push	 edx
  000e9	8d 88 6f 00 00
	00		 lea	 ecx, DWORD PTR ?gObj@@3PAUOBJECTSTRUCT@@A[eax+111]
  000ef	51		 push	 ecx
  000f0	8d 90 64 00 00
	00		 lea	 edx, DWORD PTR ?gObj@@3PAUOBJECTSTRUCT@@A[eax+100]
  000f6	52		 push	 edx
  000f7	68 00 00 00 00	 push	 OFFSET ??_C@_0DM@EBGDAEID@?$FLRing?5Event?$FN?5?$FL?$CFs?$FN?$FL?$CFs?$FN?5Register?5S@
  000fc	6a 00		 push	 0
  000fe	e8 00 00 00 00	 call	 ?LogAdd@@YAXW4eLogColor@@PADZZ ; LogAdd
  00103	83 c4 2c	 add	 esp, 44			; 0000002cH
  00106	5f		 pop	 edi
  00107	5e		 pop	 esi

; 2229 : 	}
; 2230 : }

  00108	8b 4d fc	 mov	 ecx, DWORD PTR __$ArrayPad$[ebp]
  0010b	33 cd		 xor	 ecx, ebp
  0010d	e8 00 00 00 00	 call	 @__security_check_cookie@4
  00112	8b e5		 mov	 esp, ebp
  00114	5d		 pop	 ebp
  00115	c3		 ret	 0
$LN3@EGRecvRegR:

; 2211 : 		}
; 2212 : 		else
; 2213 : 		{
; 2214 : 			LogAdd(LOG_BLACK, "[Ring Event] [%s][%s] Register Failed Result:%d, Gift:%d (out of bound, 1~4)",
; 2215 : 				gObj[aRecv->iINDEX].AccountID, gObj[aRecv->iINDEX].Name,
; 2216 : 				aRecv->btIsRegistered, aRecv->btGiftKind);

  00116	8b 76 04	 mov	 esi, DWORD PTR [esi+4]
  00119	69 f6 64 15 00
	00		 imul	 esi, 5476		; 00001564H
  0011f	50		 push	 eax
  00120	6a 01		 push	 1
  00122	8d 86 6f 00 00
	00		 lea	 eax, DWORD PTR ?gObj@@3PAUOBJECTSTRUCT@@A[esi+111]
  00128	50		 push	 eax
  00129	8d 8e 64 00 00
	00		 lea	 ecx, DWORD PTR ?gObj@@3PAUOBJECTSTRUCT@@A[esi+100]
  0012f	51		 push	 ecx
  00130	68 00 00 00 00	 push	 OFFSET ??_C@_0EN@JKCGIJEK@?$FLRing?5Event?$FN?5?$FL?$CFs?$FN?$FL?$CFs?$FN?5Register?5F@
  00135	6a 00		 push	 0
  00137	e8 00 00 00 00	 call	 ?LogAdd@@YAXW4eLogColor@@PADZZ ; LogAdd
  0013c	83 c4 18	 add	 esp, 24			; 00000018H
  0013f	5f		 pop	 edi
  00140	5e		 pop	 esi

; 2229 : 	}
; 2230 : }

  00141	8b 4d fc	 mov	 ecx, DWORD PTR __$ArrayPad$[ebp]
  00144	33 cd		 xor	 ecx, ebp
  00146	e8 00 00 00 00	 call	 @__security_check_cookie@4
  0014b	8b e5		 mov	 esp, ebp
  0014d	5d		 pop	 ebp
  0014e	c3		 ret	 0
$LN4@EGRecvRegR:

; 2217 : 		}
; 2218 : 
; 2219 : 		return;
; 2220 : 	}
; 2221 : 
; 2222 : 	LogAdd(LOG_BLACK, "[Ring Event] [%s][%s] Register Failed Result : %d",
; 2223 : 		gObj[aRecv->iINDEX].AccountID, gObj[aRecv->iINDEX].Name,
; 2224 : 		aRecv->btIsRegistered);

  0014f	8b 46 04	 mov	 eax, DWORD PTR [esi+4]
  00152	69 c0 64 15 00
	00		 imul	 eax, 5476		; 00001564H
  00158	0f b6 d1	 movzx	 edx, cl
  0015b	52		 push	 edx
  0015c	8d 88 6f 00 00
	00		 lea	 ecx, DWORD PTR ?gObj@@3PAUOBJECTSTRUCT@@A[eax+111]
  00162	51		 push	 ecx
  00163	8d 90 64 00 00
	00		 lea	 edx, DWORD PTR ?gObj@@3PAUOBJECTSTRUCT@@A[eax+100]
  00169	52		 push	 edx
  0016a	68 00 00 00 00	 push	 OFFSET ??_C@_0DC@NJLHLHM@?$FLRing?5Event?$FN?5?$FL?$CFs?$FN?$FL?$CFs?$FN?5Register?5F@
  0016f	6a 00		 push	 0
  00171	e8 00 00 00 00	 call	 ?LogAdd@@YAXW4eLogColor@@PADZZ ; LogAdd

; 2225 : 
; 2226 : 	if ( gObjIsConnected(aRecv->iINDEX) == TRUE )

  00176	8b 46 04	 mov	 eax, DWORD PTR [esi+4]
  00179	50		 push	 eax
  0017a	e8 00 00 00 00	 call	 ?gObjIsConnected@@YAHH@Z ; gObjIsConnected
  0017f	83 c4 18	 add	 esp, 24			; 00000018H
  00182	83 f8 01	 cmp	 eax, 1
  00185	75 36		 jne	 SHORT $LN15@EGRecvRegR

; 2227 : 	{
; 2228 : 		MapC[gObj[aRecv->iINDEX].MapNumber].MoneyItemDrop(100000, (BYTE)gObj[aRecv->iINDEX].X, (BYTE)gObj[aRecv->iINDEX].Y);

  00187	8b 76 04	 mov	 esi, DWORD PTR [esi+4]
  0018a	69 f6 64 15 00
	00		 imul	 esi, 5476		; 00001564H
  00190	0f b6 8e 06 01
	00 00		 movzx	 ecx, BYTE PTR ?gObj@@3PAUOBJECTSTRUCT@@A[esi+262]
  00197	0f b6 96 04 01
	00 00		 movzx	 edx, BYTE PTR ?gObj@@3PAUOBJECTSTRUCT@@A[esi+260]
  0019e	51		 push	 ecx
  0019f	0f b6 8e 09 01
	00 00		 movzx	 ecx, BYTE PTR ?gObj@@3PAUOBJECTSTRUCT@@A[esi+265]
  001a6	69 c9 08 07 05
	00		 imul	 ecx, 329480		; 00050708H
  001ac	52		 push	 edx
  001ad	68 a0 86 01 00	 push	 100000			; 000186a0H
  001b2	81 c1 00 00 00
	00		 add	 ecx, OFFSET ?MapC@@3PAVMapClass@@A ; MapC
  001b8	e8 00 00 00 00	 call	 ?MoneyItemDrop@MapClass@@QAEHHHH@Z ; MapClass::MoneyItemDrop
$LN15@EGRecvRegR:
  001bd	5f		 pop	 edi
$LN1@EGRecvRegR:

; 2229 : 	}
; 2230 : }

  001be	8b 4d fc	 mov	 ecx, DWORD PTR __$ArrayPad$[ebp]
  001c1	33 cd		 xor	 ecx, ebp
  001c3	5e		 pop	 esi
  001c4	e8 00 00 00 00	 call	 @__security_check_cookie@4
  001c9	8b e5		 mov	 esp, ebp
  001cb	5d		 pop	 ebp
  001cc	c3		 ret	 0
?EGRecvRegRingGift@@YAXPAUPMSG_ANS_REG_RINGGIFT@@@Z ENDP ; EGRecvRegRingGift
_TEXT	ENDS
PUBLIC	??_C@_0BP@EMDINEAJ@Can?5not?5connect?5Ranking?5Server?$AA@ ; `string'
PUBLIC	__$ArrayPad$
PUBLIC	?EGReqBloodCastleEnterCount@@YAXH@Z		; EGReqBloodCastleEnterCount
EXTRN	?GMRankingServerConnect@@YAHPADK@Z:PROC		; GMRankingServerConnect
EXTRN	?gDevilSquareEventServerIp@@3PADA:BYTE		; gDevilSquareEventServerIp
EXTRN	?wsRServerCli@@3VwsJoinServerCli@@A:BYTE	; wsRServerCli
EXTRN	?DevilSquareEventConnect@@3HA:DWORD		; DevilSquareEventConnect
EXTRN	?IsDevilSquareEventConnected@@3HA:DWORD		; IsDevilSquareEventConnected
EXTRN	?gGameServerCode@@3FA:WORD			; gGameServerCode
;	COMDAT ??_C@_0BP@EMDINEAJ@Can?5not?5connect?5Ranking?5Server?$AA@
CONST	SEGMENT
??_C@_0BP@EMDINEAJ@Can?5not?5connect?5Ranking?5Server?$AA@ DB 'Can not co'
	DB	'nnect Ranking Server', 00H			; `string'
; Function compile flags: /Ogtp
CONST	ENDS
;	COMDAT ?EGReqBloodCastleEnterCount@@YAXH@Z
_TEXT	SEGMENT
_pMsg$ = -36						; size = 32
__$ArrayPad$ = -4					; size = 4
_iIndex$ = 8						; size = 4
?EGReqBloodCastleEnterCount@@YAXH@Z PROC		; EGReqBloodCastleEnterCount, COMDAT

; 2246 : {

  00000	55		 push	 ebp
  00001	8b ec		 mov	 ebp, esp
  00003	83 ec 24	 sub	 esp, 36			; 00000024H
  00006	a1 00 00 00 00	 mov	 eax, DWORD PTR ___security_cookie
  0000b	33 c5		 xor	 eax, ebp
  0000d	89 45 fc	 mov	 DWORD PTR __$ArrayPad$[ebp], eax
  00010	56		 push	 esi
  00011	8b 75 08	 mov	 esi, DWORD PTR _iIndex$[ebp]

; 2247 : 	if ( !gObjIsConnected(iIndex) )

  00014	56		 push	 esi
  00015	e8 00 00 00 00	 call	 ?gObjIsConnected@@YAHH@Z ; gObjIsConnected
  0001a	83 c4 04	 add	 esp, 4
  0001d	85 c0		 test	 eax, eax
  0001f	0f 84 f8 00 00
	00		 je	 $LN1@EGReqBlood

; 2248 : 		return;
; 2249 : 
; 2250 : 	PMSG_REQ_BLOODCASTLE_ENTERCOUNT pMsg;
; 2251 : 
; 2252 : 	pMsg.h.c = 0xC1;
; 2253 : 	pMsg.h.headcode = 0x0B;
; 2254 : 	pMsg.h.size = sizeof(pMsg);
; 2255 : 	memcpy(pMsg.AccountID, gObj[iIndex].AccountID, 10);

  00025	8b c6		 mov	 eax, esi
  00027	69 c0 64 15 00
	00		 imul	 eax, 5476		; 00001564H
  0002d	8b 88 64 00 00
	00		 mov	 ecx, DWORD PTR ?gObj@@3PAUOBJECTSTRUCT@@A[eax+100]
  00033	8b 90 68 00 00
	00		 mov	 edx, DWORD PTR ?gObj@@3PAUOBJECTSTRUCT@@A[eax+104]
  00039	89 4d df	 mov	 DWORD PTR _pMsg$[ebp+3], ecx
  0003c	66 8b 88 6c 00
	00 00		 mov	 cx, WORD PTR ?gObj@@3PAUOBJECTSTRUCT@@A[eax+108]
  00043	89 55 e3	 mov	 DWORD PTR _pMsg$[ebp+7], edx

; 2256 : 	memcpy(pMsg.GameID, gObj[iIndex].Name, 10);

  00046	8b 90 6f 00 00
	00		 mov	 edx, DWORD PTR ?gObj@@3PAUOBJECTSTRUCT@@A[eax+111]
  0004c	66 89 4d e7	 mov	 WORD PTR _pMsg$[ebp+11], cx
  00050	8b 88 73 00 00
	00		 mov	 ecx, DWORD PTR ?gObj@@3PAUOBJECTSTRUCT@@A[eax+115]
  00056	89 55 e9	 mov	 DWORD PTR _pMsg$[ebp+13], edx
  00059	66 8b 90 77 00
	00 00		 mov	 dx, WORD PTR ?gObj@@3PAUOBJECTSTRUCT@@A[eax+119]
  00060	89 4d ed	 mov	 DWORD PTR _pMsg$[ebp+17], ecx

; 2257 : 	pMsg.ServerCode = gGameServerCode / 20;

  00063	0f bf 0d 00 00
	00 00		 movsx	 ecx, WORD PTR ?gGameServerCode@@3FA ; gGameServerCode
  0006a	66 89 55 f1	 mov	 WORD PTR _pMsg$[ebp+21], dx
  0006e	b8 67 66 66 66	 mov	 eax, 1717986919		; 66666667H
  00073	f7 e9		 imul	 ecx
  00075	c1 fa 03	 sar	 edx, 3
  00078	8b c2		 mov	 eax, edx
  0007a	c1 e8 1f	 shr	 eax, 31			; 0000001fH
  0007d	03 c2		 add	 eax, edx
  0007f	89 45 f4	 mov	 DWORD PTR _pMsg$[ebp+24], eax

; 2258 : 	pMsg.iObjIndex = iIndex;
; 2259 : 
; 2260 : 	if ( !IsDevilSquareEventConnected && !DevilSquareEventConnect )

  00082	a1 00 00 00 00	 mov	 eax, DWORD PTR ?IsDevilSquareEventConnected@@3HA ; IsDevilSquareEventConnected
  00087	c6 45 dc c1	 mov	 BYTE PTR _pMsg$[ebp], 193 ; 000000c1H
  0008b	66 c7 45 dd 20
	0b		 mov	 WORD PTR _pMsg$[ebp+1], 2848 ; 00000b20H
  00091	89 75 f8	 mov	 DWORD PTR _pMsg$[ebp+28], esi
  00094	85 c0		 test	 eax, eax
  00096	75 65		 jne	 SHORT $LN3@EGReqBlood
  00098	39 05 00 00 00
	00		 cmp	 DWORD PTR ?DevilSquareEventConnect@@3HA, eax ; DevilSquareEventConnect
  0009e	75 7d		 jne	 SHORT $LN1@EGReqBlood

; 2261 : 	{
; 2262 : 		wsRServerCli.Close();

  000a0	b9 04 00 00 00	 mov	 ecx, OFFSET ?wsRServerCli@@3VwsJoinServerCli@@A+4
  000a5	e8 00 00 00 00	 call	 ?Close@MyWinsockBase@@QAEHXZ ; MyWinsockBase::Close

; 2263 : 		wsRServerCli.CreateSocket(ghWnd);

  000aa	8b 0d 00 00 00
	00		 mov	 ecx, DWORD PTR ?ghWnd@@3PAUHWND__@@A ; ghWnd
  000b0	51		 push	 ecx
  000b1	b9 04 00 00 00	 mov	 ecx, OFFSET ?wsRServerCli@@3VwsJoinServerCli@@A+4
  000b6	e8 00 00 00 00	 call	 ?CreateSocket@MyWinsockBase@@QAEHPAUHWND__@@@Z ; MyWinsockBase::CreateSocket

; 2264 : 
; 2265 : 		if ( !GMRankingServerConnect(gDevilSquareEventServerIp, WM_GM_RANKING_CLIENT_MSG_PROC) )

  000bb	68 0c 04 00 00	 push	 1036			; 0000040cH
  000c0	68 00 00 00 00	 push	 OFFSET ?gDevilSquareEventServerIp@@3PADA ; gDevilSquareEventServerIp
  000c5	e8 00 00 00 00	 call	 ?GMRankingServerConnect@@YAHPADK@Z ; GMRankingServerConnect
  000ca	83 c4 08	 add	 esp, 8
  000cd	85 c0		 test	 eax, eax
  000cf	75 22		 jne	 SHORT $LN2@EGReqBlood

; 2266 : 		{
; 2267 : 			IsDevilSquareEventConnected = 0;
; 2268 : 			LogAdd(LOG_BLACK, "Can not connect Ranking Server");

  000d1	68 00 00 00 00	 push	 OFFSET ??_C@_0BP@EMDINEAJ@Can?5not?5connect?5Ranking?5Server?$AA@
  000d6	50		 push	 eax
  000d7	a3 00 00 00 00	 mov	 DWORD PTR ?IsDevilSquareEventConnected@@3HA, eax ; IsDevilSquareEventConnected
  000dc	e8 00 00 00 00	 call	 ?LogAdd@@YAXW4eLogColor@@PADZZ ; LogAdd
  000e1	83 c4 08	 add	 esp, 8
  000e4	5e		 pop	 esi

; 2278 : 	}
; 2279 : }

  000e5	8b 4d fc	 mov	 ecx, DWORD PTR __$ArrayPad$[ebp]
  000e8	33 cd		 xor	 ecx, ebp
  000ea	e8 00 00 00 00	 call	 @__security_check_cookie@4
  000ef	8b e5		 mov	 esp, ebp
  000f1	5d		 pop	 ebp
  000f2	c3		 ret	 0
$LN2@EGReqBlood:

; 2269 : 			return;
; 2270 : 		}
; 2271 : 
; 2272 : 		IsDevilSquareEventConnected = TRUE;

  000f3	b8 01 00 00 00	 mov	 eax, 1
  000f8	a3 00 00 00 00	 mov	 DWORD PTR ?IsDevilSquareEventConnected@@3HA, eax ; IsDevilSquareEventConnected
$LN3@EGReqBlood:

; 2273 : 	}
; 2274 : 
; 2275 : 	if ( !DevilSquareEventConnect && IsDevilSquareEventConnected )

  000fd	83 3d 00 00 00
	00 00		 cmp	 DWORD PTR ?DevilSquareEventConnect@@3HA, 0 ; DevilSquareEventConnect
  00104	75 17		 jne	 SHORT $LN1@EGReqBlood
  00106	85 c0		 test	 eax, eax
  00108	74 13		 je	 SHORT $LN1@EGReqBlood

; 2276 : 	{
; 2277 : 		wsRServerCli.DataSend((PCHAR)&pMsg, pMsg.h.size);

  0010a	0f b6 55 dd	 movzx	 edx, BYTE PTR _pMsg$[ebp+1]
  0010e	52		 push	 edx
  0010f	8d 45 dc	 lea	 eax, DWORD PTR _pMsg$[ebp]
  00112	50		 push	 eax
  00113	b9 00 00 00 00	 mov	 ecx, OFFSET ?wsRServerCli@@3VwsJoinServerCli@@A ; wsRServerCli
  00118	e8 00 00 00 00	 call	 ?DataSend@wsJoinServerCli@@QAEHPADH@Z ; wsJoinServerCli::DataSend
$LN1@EGReqBlood:

; 2278 : 	}
; 2279 : }

  0011d	8b 4d fc	 mov	 ecx, DWORD PTR __$ArrayPad$[ebp]
  00120	33 cd		 xor	 ecx, ebp
  00122	5e		 pop	 esi
  00123	e8 00 00 00 00	 call	 @__security_check_cookie@4
  00128	8b e5		 mov	 esp, ebp
  0012a	5d		 pop	 ebp
  0012b	c3		 ret	 0
?EGReqBloodCastleEnterCount@@YAXH@Z ENDP		; EGReqBloodCastleEnterCount
_TEXT	ENDS
PUBLIC	?EGAnsBloodCastleEnterCount@@YAXPAUPMSG_ANS_BLOODCASTLE_ENTERCOUNT@@@Z ; EGAnsBloodCastleEnterCount
; Function compile flags: /Ogtp
;	COMDAT ?EGAnsBloodCastleEnterCount@@YAXPAUPMSG_ANS_BLOODCASTLE_ENTERCOUNT@@@Z
_TEXT	SEGMENT
_szName$ = -32						; size = 11
_szAccountID$ = -20					; size = 11
_pMsgSend$ = -8						; size = 5
_lpMsg$ = 8						; size = 4
?EGAnsBloodCastleEnterCount@@YAXPAUPMSG_ANS_BLOODCASTLE_ENTERCOUNT@@@Z PROC ; EGAnsBloodCastleEnterCount, COMDAT

; 2291 : {

  00000	55		 push	 ebp
  00001	8b ec		 mov	 ebp, esp
  00003	83 ec 20	 sub	 esp, 32			; 00000020H
  00006	56		 push	 esi

; 2292 : 	if ( !lpMsg)

  00007	8b 75 08	 mov	 esi, DWORD PTR _lpMsg$[ebp]
  0000a	85 f6		 test	 esi, esi
  0000c	0f 84 ee 00 00
	00		 je	 $LN1@EGAnsBlood

; 2293 : 		return;
; 2294 : 
; 2295 : 	if ( !gObjIsConnected(lpMsg->iObjIndex))

  00012	8b 46 1c	 mov	 eax, DWORD PTR [esi+28]
  00015	50		 push	 eax
  00016	e8 00 00 00 00	 call	 ?gObjIsConnected@@YAHH@Z ; gObjIsConnected
  0001b	83 c4 04	 add	 esp, 4
  0001e	85 c0		 test	 eax, eax
  00020	0f 84 da 00 00
	00		 je	 $LN1@EGAnsBlood

; 2296 : 		return;
; 2297 : 
; 2298 : 	char szAccountID[11] = {0};
; 2299 : 	char szName[11] = {0};
; 2300 : 	memcpy(szAccountID, lpMsg->AccountID, 10);

  00026	8b 4e 03	 mov	 ecx, DWORD PTR [esi+3]
  00029	8b 56 07	 mov	 edx, DWORD PTR [esi+7]
  0002c	33 c0		 xor	 eax, eax
  0002e	53		 push	 ebx

; 2301 : 	memcpy(szName, lpMsg->GameID, 10);
; 2302 : 
; 2303 : 	if ( strcmp(gObj[lpMsg->iObjIndex].AccountID, szAccountID) ||
; 2304 : 		 strcmp(gObj[lpMsg->iObjIndex].Name, szName) )

  0002f	8b 5e 1c	 mov	 ebx, DWORD PTR [esi+28]
  00032	57		 push	 edi
  00033	89 45 ed	 mov	 DWORD PTR _szAccountID$[ebp+1], eax
  00036	89 45 f1	 mov	 DWORD PTR _szAccountID$[ebp+5], eax
  00039	89 45 e1	 mov	 DWORD PTR _szName$[ebp+1], eax
  0003c	89 45 e5	 mov	 DWORD PTR _szName$[ebp+5], eax
  0003f	66 89 45 f5	 mov	 WORD PTR _szAccountID$[ebp+9], ax
  00043	66 89 45 e9	 mov	 WORD PTR _szName$[ebp+9], ax
  00047	0f b7 46 0b	 movzx	 eax, WORD PTR [esi+11]
  0004b	8b fb		 mov	 edi, ebx
  0004d	69 ff 64 15 00
	00		 imul	 edi, 5476		; 00001564H
  00053	66 89 45 f4	 mov	 WORD PTR _szAccountID$[ebp+8], ax
  00057	0f b7 46 15	 movzx	 eax, WORD PTR [esi+21]
  0005b	89 4d ec	 mov	 DWORD PTR _szAccountID$[ebp], ecx
  0005e	8b 4e 0d	 mov	 ecx, DWORD PTR [esi+13]
  00061	89 55 f0	 mov	 DWORD PTR _szAccountID$[ebp+4], edx
  00064	8b 56 11	 mov	 edx, DWORD PTR [esi+17]
  00067	89 4d e0	 mov	 DWORD PTR _szName$[ebp], ecx
  0006a	66 89 45 e8	 mov	 WORD PTR _szName$[ebp+8], ax
  0006e	89 55 e4	 mov	 DWORD PTR _szName$[ebp+4], edx
  00071	8d 4d ec	 lea	 ecx, DWORD PTR _szAccountID$[ebp]
  00074	8d 87 64 00 00
	00		 lea	 eax, DWORD PTR ?gObj@@3PAUOBJECTSTRUCT@@A[edi+100]
  0007a	8d 9b 00 00 00
	00		 npad	 6
$LL7@EGAnsBlood:
  00080	8a 10		 mov	 dl, BYTE PTR [eax]
  00082	3a 11		 cmp	 dl, BYTE PTR [ecx]
  00084	75 1a		 jne	 SHORT $LN8@EGAnsBlood
  00086	84 d2		 test	 dl, dl
  00088	74 12		 je	 SHORT $LN9@EGAnsBlood
  0008a	8a 50 01	 mov	 dl, BYTE PTR [eax+1]
  0008d	3a 51 01	 cmp	 dl, BYTE PTR [ecx+1]
  00090	75 0e		 jne	 SHORT $LN8@EGAnsBlood
  00092	83 c0 02	 add	 eax, 2
  00095	83 c1 02	 add	 ecx, 2
  00098	84 d2		 test	 dl, dl
  0009a	75 e4		 jne	 SHORT $LL7@EGAnsBlood
$LN9@EGAnsBlood:
  0009c	33 c0		 xor	 eax, eax
  0009e	eb 05		 jmp	 SHORT $LN10@EGAnsBlood
$LN8@EGAnsBlood:
  000a0	1b c0		 sbb	 eax, eax
  000a2	83 d8 ff	 sbb	 eax, -1
$LN10@EGAnsBlood:
  000a5	85 c0		 test	 eax, eax
  000a7	75 55		 jne	 SHORT $LN15@EGAnsBlood
  000a9	8d 4d e0	 lea	 ecx, DWORD PTR _szName$[ebp]
  000ac	8d 87 6f 00 00
	00		 lea	 eax, DWORD PTR ?gObj@@3PAUOBJECTSTRUCT@@A[edi+111]
$LL11@EGAnsBlood:
  000b2	8a 10		 mov	 dl, BYTE PTR [eax]
  000b4	3a 11		 cmp	 dl, BYTE PTR [ecx]
  000b6	75 1a		 jne	 SHORT $LN12@EGAnsBlood
  000b8	84 d2		 test	 dl, dl
  000ba	74 12		 je	 SHORT $LN13@EGAnsBlood
  000bc	8a 50 01	 mov	 dl, BYTE PTR [eax+1]
  000bf	3a 51 01	 cmp	 dl, BYTE PTR [ecx+1]
  000c2	75 0e		 jne	 SHORT $LN12@EGAnsBlood
  000c4	83 c0 02	 add	 eax, 2
  000c7	83 c1 02	 add	 ecx, 2
  000ca	84 d2		 test	 dl, dl
  000cc	75 e4		 jne	 SHORT $LL11@EGAnsBlood
$LN13@EGAnsBlood:
  000ce	33 c0		 xor	 eax, eax
  000d0	eb 05		 jmp	 SHORT $LN14@EGAnsBlood
$LN12@EGAnsBlood:
  000d2	1b c0		 sbb	 eax, eax
  000d4	83 d8 ff	 sbb	 eax, -1
$LN14@EGAnsBlood:
  000d7	85 c0		 test	 eax, eax
  000d9	75 23		 jne	 SHORT $LN15@EGAnsBlood

; 2305 : 		 return;
; 2306 : 
; 2307 : 	PMSG_ANS_CL_ENTERCOUNT pMsgSend;
; 2308 : 
; 2309 : 	pMsgSend.h.c = 0xC1;
; 2310 : 	pMsgSend.h.headcode = 0x9F;
; 2311 : 	pMsgSend.h.size = sizeof(pMsgSend);
; 2312 : 	pMsgSend.btEventType = 2;
; 2313 : 	pMsgSend.btLeftEnterCount = lpMsg->iLeftCount;

  000db	8a 4e 20	 mov	 cl, BYTE PTR [esi+32]

; 2314 : 
; 2315 : 	DataSend(lpMsg->iObjIndex, (LPBYTE)&pMsgSend, sizeof(pMsgSend));

  000de	6a 05		 push	 5
  000e0	8d 55 f8	 lea	 edx, DWORD PTR _pMsgSend$[ebp]
  000e3	52		 push	 edx
  000e4	53		 push	 ebx
  000e5	c6 45 f8 c1	 mov	 BYTE PTR _pMsgSend$[ebp], 193 ; 000000c1H
  000e9	66 c7 45 f9 05
	9f		 mov	 WORD PTR _pMsgSend$[ebp+1], 40709 ; 00009f05H
  000ef	c6 45 fb 02	 mov	 BYTE PTR _pMsgSend$[ebp+3], 2
  000f3	88 4d fc	 mov	 BYTE PTR _pMsgSend$[ebp+4], cl
  000f6	e8 00 00 00 00	 call	 ?DataSend@@YAHHPAEK@Z	; DataSend
  000fb	83 c4 0c	 add	 esp, 12			; 0000000cH
$LN15@EGAnsBlood:
  000fe	5f		 pop	 edi
  000ff	5b		 pop	 ebx
$LN1@EGAnsBlood:
  00100	5e		 pop	 esi

; 2316 : }

  00101	8b e5		 mov	 esp, ebp
  00103	5d		 pop	 ebp
  00104	c3		 ret	 0
?EGAnsBloodCastleEnterCount@@YAXPAUPMSG_ANS_BLOODCASTLE_ENTERCOUNT@@@Z ENDP ; EGAnsBloodCastleEnterCount
_TEXT	ENDS
PUBLIC	__$ArrayPad$
PUBLIC	?EGReqRegCCOfflineGift@@YAXH@Z			; EGReqRegCCOfflineGift
; Function compile flags: /Ogtp
;	COMDAT ?EGReqRegCCOfflineGift@@YAXH@Z
_TEXT	SEGMENT
_pMsg$ = -40						; size = 36
__$ArrayPad$ = -4					; size = 4
_iIndex$ = 8						; size = 4
?EGReqRegCCOfflineGift@@YAXH@Z PROC			; EGReqRegCCOfflineGift, COMDAT

; 2332 : {

  00000	55		 push	 ebp
  00001	8b ec		 mov	 ebp, esp
  00003	83 ec 28	 sub	 esp, 40			; 00000028H
  00006	a1 00 00 00 00	 mov	 eax, DWORD PTR ___security_cookie
  0000b	33 c5		 xor	 eax, ebp
  0000d	89 45 fc	 mov	 DWORD PTR __$ArrayPad$[ebp], eax
  00010	56		 push	 esi
  00011	8b 75 08	 mov	 esi, DWORD PTR _iIndex$[ebp]

; 2333 : 	if ( !gObjIsConnected(iIndex) )

  00014	56		 push	 esi
  00015	e8 00 00 00 00	 call	 ?gObjIsConnected@@YAHH@Z ; gObjIsConnected
  0001a	83 c4 04	 add	 esp, 4
  0001d	85 c0		 test	 eax, eax
  0001f	0f 84 95 00 00
	00		 je	 $LN2@EGReqRegCC

; 2334 : 		return;
; 2335 : 
; 2336 : 	PMSG_REQ_REG_CC_OFFLINE_GIFT pMsg;
; 2337 : 
; 2338 : 	pMsg.h.c = 0xC1;
; 2339 : 	pMsg.h.headcode = 0x15;
; 2340 : 	pMsg.h.size = sizeof(pMsg);
; 2341 : 	memcpy(pMsg.szUID, gObj[iIndex].AccountID, 11);

  00025	8b c6		 mov	 eax, esi
  00027	69 c0 64 15 00
	00		 imul	 eax, 5476		; 00001564H
  0002d	8b 88 64 00 00
	00		 mov	 ecx, DWORD PTR ?gObj@@3PAUOBJECTSTRUCT@@A[eax+100]
  00033	8b 90 68 00 00
	00		 mov	 edx, DWORD PTR ?gObj@@3PAUOBJECTSTRUCT@@A[eax+104]
  00039	89 4d e0	 mov	 DWORD PTR _pMsg$[ebp+8], ecx
  0003c	0f b7 88 6c 00
	00 00		 movzx	 ecx, WORD PTR ?gObj@@3PAUOBJECTSTRUCT@@A[eax+108]
  00043	89 55 e4	 mov	 DWORD PTR _pMsg$[ebp+12], edx
  00046	0f b6 90 6e 00
	00 00		 movzx	 edx, BYTE PTR ?gObj@@3PAUOBJECTSTRUCT@@A[eax+110]
  0004d	66 89 4d e8	 mov	 WORD PTR _pMsg$[ebp+16], cx

; 2342 : 	memcpy(pMsg.szNAME, gObj[iIndex].Name, 11);

  00051	8b 88 6f 00 00
	00		 mov	 ecx, DWORD PTR ?gObj@@3PAUOBJECTSTRUCT@@A[eax+111]
  00057	88 55 ea	 mov	 BYTE PTR _pMsg$[ebp+18], dl
  0005a	8b 90 73 00 00
	00		 mov	 edx, DWORD PTR ?gObj@@3PAUOBJECTSTRUCT@@A[eax+115]
  00060	89 4d ee	 mov	 DWORD PTR _pMsg$[ebp+22], ecx
  00063	0f b7 88 77 00
	00 00		 movzx	 ecx, WORD PTR ?gObj@@3PAUOBJECTSTRUCT@@A[eax+119]
  0006a	89 55 f2	 mov	 DWORD PTR _pMsg$[ebp+26], edx
  0006d	0f b6 90 79 00
	00 00		 movzx	 edx, BYTE PTR ?gObj@@3PAUOBJECTSTRUCT@@A[eax+121]
  00074	66 89 4d f6	 mov	 WORD PTR _pMsg$[ebp+30], cx

; 2343 : 	pMsg.wServerCode = gGameServerCode / 20;

  00078	0f bf 0d 00 00
	00 00		 movsx	 ecx, WORD PTR ?gGameServerCode@@3FA ; gGameServerCode
  0007f	88 55 f8	 mov	 BYTE PTR _pMsg$[ebp+32], dl
  00082	b8 67 66 66 66	 mov	 eax, 1717986919		; 66666667H
  00087	f7 e9		 imul	 ecx
  00089	c1 fa 03	 sar	 edx, 3
  0008c	8b c2		 mov	 eax, edx
  0008e	c1 e8 1f	 shr	 eax, 31			; 0000001fH
  00091	03 c2		 add	 eax, edx
  00093	66 89 45 ec	 mov	 WORD PTR _pMsg$[ebp+20], ax

; 2344 : 	pMsg.iINDEX = iIndex;
; 2345 : 	pMsg.szUID[10] = 0;

  00097	32 c0		 xor	 al, al

; 2346 : 	pMsg.szNAME[10] = 0;
; 2347 : 
; 2348 : 	DataSendEventChip((PCHAR)&pMsg, sizeof(pMsg));

  00099	8d 4d d8	 lea	 ecx, DWORD PTR _pMsg$[ebp]
  0009c	6a 24		 push	 36			; 00000024H
  0009e	51		 push	 ecx
  0009f	c6 45 d8 c1	 mov	 BYTE PTR _pMsg$[ebp], 193 ; 000000c1H
  000a3	66 c7 45 d9 24
	15		 mov	 WORD PTR _pMsg$[ebp+1], 5412 ; 00001524H
  000a9	89 75 dc	 mov	 DWORD PTR _pMsg$[ebp+4], esi
  000ac	88 45 ea	 mov	 BYTE PTR _pMsg$[ebp+18], al
  000af	88 45 f8	 mov	 BYTE PTR _pMsg$[ebp+32], al
  000b2	e8 00 00 00 00	 call	 ?DataSendEventChip@@YAXPADH@Z ; DataSendEventChip
  000b7	83 c4 08	 add	 esp, 8
$LN2@EGReqRegCC:

; 2349 : }

  000ba	8b 4d fc	 mov	 ecx, DWORD PTR __$ArrayPad$[ebp]
  000bd	33 cd		 xor	 ecx, ebp
  000bf	5e		 pop	 esi
  000c0	e8 00 00 00 00	 call	 @__security_check_cookie@4
  000c5	8b e5		 mov	 esp, ebp
  000c7	5d		 pop	 ebp
  000c8	c3		 ret	 0
?EGReqRegCCOfflineGift@@YAXH@Z ENDP			; EGReqRegCCOfflineGift
_TEXT	ENDS
PUBLIC	??_C@_0ED@MNBMBKBB@?$FLChaos?5Castle?$FN?5?$FL?$CFs?$FN?$FL?$CFs?$FN?5Success?5@ ; `string'
PUBLIC	__$ArrayPad$
PUBLIC	?EGAnsRegCCOfflineGift@@YAXPAUPMSG_ANS_REG_CC_OFFLINE_GIFT@@@Z ; EGAnsRegCCOfflineGift
EXTRN	_memset:PROC
;	COMDAT ??_C@_0ED@MNBMBKBB@?$FLChaos?5Castle?$FN?5?$FL?$CFs?$FN?$FL?$CFs?$FN?5Success?5@
CONST	SEGMENT
??_C@_0ED@MNBMBKBB@?$FLChaos?5Castle?$FN?5?$FL?$CFs?$FN?$FL?$CFs?$FN?5Success?5@ DB '['
	DB	'Chaos Castle] [%s][%s] Success to Register OffLine Gift (GIFT'
	DB	':%s)', 00H					; `string'
; Function compile flags: /Ogtp
CONST	ENDS
;	COMDAT ?EGAnsRegCCOfflineGift@@YAXPAUPMSG_ANS_REG_CC_OFFLINE_GIFT@@@Z
_TEXT	SEGMENT
_szText$ = -336						; size = 256
_szGIFT_NAME$ = -80					; size = 50
_szAccountID$ = -28					; size = 11
_szName$ = -16						; size = 11
__$ArrayPad$ = -4					; size = 4
_lpMsg$ = 8						; size = 4
?EGAnsRegCCOfflineGift@@YAXPAUPMSG_ANS_REG_CC_OFFLINE_GIFT@@@Z PROC ; EGAnsRegCCOfflineGift, COMDAT

; 2355 : {

  00000	55		 push	 ebp
  00001	8b ec		 mov	 ebp, esp
  00003	81 ec 50 01 00
	00		 sub	 esp, 336		; 00000150H
  00009	a1 00 00 00 00	 mov	 eax, DWORD PTR ___security_cookie
  0000e	33 c5		 xor	 eax, ebp
  00010	89 45 fc	 mov	 DWORD PTR __$ArrayPad$[ebp], eax
  00013	8b 45 08	 mov	 eax, DWORD PTR _lpMsg$[ebp]
  00016	53		 push	 ebx

; 2356 : 	if ( !lpMsg)

  00017	33 db		 xor	 ebx, ebx
  00019	3b c3		 cmp	 eax, ebx
  0001b	0f 84 c1 00 00
	00		 je	 $LN3@EGAnsRegCC

; 2357 : 		return;
; 2358 : 
; 2359 : 	if ( !lpMsg->iResultCode )

  00021	39 58 24	 cmp	 DWORD PTR [eax+36], ebx
  00024	0f 84 b8 00 00
	00		 je	 $LN3@EGAnsRegCC

; 2360 : 		return;
; 2361 : 
; 2362 : 	char szAccountID[11] = {0};
; 2363 : 	char szName[11] = {0};
; 2364 : 	char szGIFT_NAME[50] = {0};
; 2365 : 	memset(szAccountID, 0, sizeof(szAccountID));
; 2366 : 	memset(szName, 0, sizeof(szName));
; 2367 : 	memset(szGIFT_NAME, 0, sizeof(szGIFT_NAME));
; 2368 : 	memcpy(szAccountID, lpMsg->szUID, sizeof(szAccountID));

  0002a	8b 48 08	 mov	 ecx, DWORD PTR [eax+8]
  0002d	8b 50 0c	 mov	 edx, DWORD PTR [eax+12]
  00030	89 4d e4	 mov	 DWORD PTR _szAccountID$[ebp], ecx
  00033	0f b7 48 10	 movzx	 ecx, WORD PTR [eax+16]
  00037	66 89 4d ec	 mov	 WORD PTR _szAccountID$[ebp+8], cx

; 2369 : 	memcpy(szName, lpMsg->szNAME, sizeof(szName));

  0003b	8b 48 16	 mov	 ecx, DWORD PTR [eax+22]
  0003e	56		 push	 esi
  0003f	89 4d f0	 mov	 DWORD PTR _szName$[ebp], ecx
  00042	0f b7 48 1e	 movzx	 ecx, WORD PTR [eax+30]
  00046	57		 push	 edi
  00047	66 89 4d f8	 mov	 WORD PTR _szName$[ebp+8], cx

; 2370 : 	memcpy(szGIFT_NAME, lpMsg->szGIFT_NAME, sizeof(szGIFT_NAME));

  0004b	8d 70 28	 lea	 esi, DWORD PTR [eax+40]
  0004e	89 55 e8	 mov	 DWORD PTR _szAccountID$[ebp+4], edx
  00051	0f b6 50 12	 movzx	 edx, BYTE PTR [eax+18]
  00055	b9 0c 00 00 00	 mov	 ecx, 12			; 0000000cH
  0005a	8d 7d b0	 lea	 edi, DWORD PTR _szGIFT_NAME$[ebp]
  0005d	f3 a5		 rep movsd
  0005f	88 55 ee	 mov	 BYTE PTR _szAccountID$[ebp+10], dl
  00062	8b 50 1a	 mov	 edx, DWORD PTR [eax+26]
  00065	89 55 f4	 mov	 DWORD PTR _szName$[ebp+4], edx
  00068	0f b6 50 20	 movzx	 edx, BYTE PTR [eax+32]

; 2371 : 	szAccountID[10] = 0;
; 2372 : 	szName[10] = 0;
; 2373 : 	szGIFT_NAME[49] = 0;
; 2374 : 	char szText[256] = {0};

  0006c	68 ff 00 00 00	 push	 255			; 000000ffH
  00071	8d 85 b1 fe ff
	ff		 lea	 eax, DWORD PTR _szText$[ebp+1]
  00077	53		 push	 ebx
  00078	88 55 fa	 mov	 BYTE PTR _szName$[ebp+10], dl
  0007b	66 a5		 movsw
  0007d	50		 push	 eax
  0007e	88 5d ee	 mov	 BYTE PTR _szAccountID$[ebp+10], bl
  00081	88 5d fa	 mov	 BYTE PTR _szName$[ebp+10], bl
  00084	88 5d e1	 mov	 BYTE PTR _szGIFT_NAME$[ebp+49], bl
  00087	88 9d b0 fe ff
	ff		 mov	 BYTE PTR _szText$[ebp], bl
  0008d	e8 00 00 00 00	 call	 _memset
  00092	83 c4 0c	 add	 esp, 12			; 0000000cH

; 2375 : 
; 2376 : 	wsprintf(szText, lMsg.Get(MSGGET(6,74)), szName, szGIFT_NAME);

  00095	8d 4d b0	 lea	 ecx, DWORD PTR _szGIFT_NAME$[ebp]
  00098	51		 push	 ecx
  00099	8d 55 f0	 lea	 edx, DWORD PTR _szName$[ebp]
  0009c	52		 push	 edx
  0009d	68 4a 06 00 00	 push	 1610			; 0000064aH
  000a2	b9 00 00 00 00	 mov	 ecx, OFFSET ?lMsg@@3VCMsg@@A ; lMsg
  000a7	e8 00 00 00 00	 call	 ?Get@CMsg@@QAEPADH@Z	; CMsg::Get
  000ac	50		 push	 eax
  000ad	8d 85 b0 fe ff
	ff		 lea	 eax, DWORD PTR _szText$[ebp]
  000b3	50		 push	 eax
  000b4	ff 15 00 00 00
	00		 call	 DWORD PTR __imp__wsprintfA

; 2377 : 	AllSendServerMsg(szText);

  000ba	8d 8d b0 fe ff
	ff		 lea	 ecx, DWORD PTR _szText$[ebp]
  000c0	51		 push	 ecx
  000c1	e8 00 00 00 00	 call	 ?AllSendServerMsg@@YAXPAD@Z ; AllSendServerMsg

; 2378 : 
; 2379 : 	LogAdd(LOG_BLACK, "[Chaos Castle] [%s][%s] Success to Register OffLine Gift (GIFT:%s)",
; 2380 : 		szAccountID, szName, szGIFT_NAME);

  000c6	8d 55 b0	 lea	 edx, DWORD PTR _szGIFT_NAME$[ebp]
  000c9	52		 push	 edx
  000ca	8d 45 f0	 lea	 eax, DWORD PTR _szName$[ebp]
  000cd	50		 push	 eax
  000ce	8d 4d e4	 lea	 ecx, DWORD PTR _szAccountID$[ebp]
  000d1	51		 push	 ecx
  000d2	68 00 00 00 00	 push	 OFFSET ??_C@_0ED@MNBMBKBB@?$FLChaos?5Castle?$FN?5?$FL?$CFs?$FN?$FL?$CFs?$FN?5Success?5@
  000d7	53		 push	 ebx
  000d8	e8 00 00 00 00	 call	 ?LogAdd@@YAXW4eLogColor@@PADZZ ; LogAdd
  000dd	83 c4 28	 add	 esp, 40			; 00000028H
  000e0	5f		 pop	 edi
  000e1	5e		 pop	 esi
$LN3@EGAnsRegCC:

; 2381 : }

  000e2	8b 4d fc	 mov	 ecx, DWORD PTR __$ArrayPad$[ebp]
  000e5	33 cd		 xor	 ecx, ebp
  000e7	5b		 pop	 ebx
  000e8	e8 00 00 00 00	 call	 @__security_check_cookie@4
  000ed	8b e5		 mov	 esp, ebp
  000ef	5d		 pop	 ebp
  000f0	c3		 ret	 0
?EGAnsRegCCOfflineGift@@YAXPAUPMSG_ANS_REG_CC_OFFLINE_GIFT@@@Z ENDP ; EGAnsRegCCOfflineGift
_TEXT	ENDS
PUBLIC	__$ArrayPad$
PUBLIC	?EGReqRegDLOfflineGift@@YAXH@Z			; EGReqRegDLOfflineGift
; Function compile flags: /Ogtp
;	COMDAT ?EGReqRegDLOfflineGift@@YAXH@Z
_TEXT	SEGMENT
_pMsg$ = -40						; size = 36
__$ArrayPad$ = -4					; size = 4
_iIndex$ = 8						; size = 4
?EGReqRegDLOfflineGift@@YAXH@Z PROC			; EGReqRegDLOfflineGift, COMDAT

; 2394 : {

  00000	55		 push	 ebp
  00001	8b ec		 mov	 ebp, esp
  00003	83 ec 28	 sub	 esp, 40			; 00000028H
  00006	a1 00 00 00 00	 mov	 eax, DWORD PTR ___security_cookie
  0000b	33 c5		 xor	 eax, ebp
  0000d	89 45 fc	 mov	 DWORD PTR __$ArrayPad$[ebp], eax
  00010	56		 push	 esi
  00011	8b 75 08	 mov	 esi, DWORD PTR _iIndex$[ebp]

; 2395 : 	if ( !gObjIsConnected(iIndex) )

  00014	56		 push	 esi
  00015	e8 00 00 00 00	 call	 ?gObjIsConnected@@YAHH@Z ; gObjIsConnected
  0001a	83 c4 04	 add	 esp, 4
  0001d	85 c0		 test	 eax, eax
  0001f	0f 84 95 00 00
	00		 je	 $LN2@EGReqRegDL

; 2396 : 		return;
; 2397 : 
; 2398 : 	PMSG_REQ_REG_DL_OFFLINE_GIFT pMsg;
; 2399 : 
; 2400 : 	pMsg.h.c = 0xC1;
; 2401 : 	pMsg.h.headcode = 0x16;
; 2402 : 	pMsg.h.size = sizeof(pMsg);
; 2403 : 	memcpy(pMsg.szUID, gObj[iIndex].AccountID, 11);

  00025	8b c6		 mov	 eax, esi
  00027	69 c0 64 15 00
	00		 imul	 eax, 5476		; 00001564H
  0002d	8b 88 64 00 00
	00		 mov	 ecx, DWORD PTR ?gObj@@3PAUOBJECTSTRUCT@@A[eax+100]
  00033	8b 90 68 00 00
	00		 mov	 edx, DWORD PTR ?gObj@@3PAUOBJECTSTRUCT@@A[eax+104]
  00039	89 4d e0	 mov	 DWORD PTR _pMsg$[ebp+8], ecx
  0003c	0f b7 88 6c 00
	00 00		 movzx	 ecx, WORD PTR ?gObj@@3PAUOBJECTSTRUCT@@A[eax+108]
  00043	89 55 e4	 mov	 DWORD PTR _pMsg$[ebp+12], edx
  00046	0f b6 90 6e 00
	00 00		 movzx	 edx, BYTE PTR ?gObj@@3PAUOBJECTSTRUCT@@A[eax+110]
  0004d	66 89 4d e8	 mov	 WORD PTR _pMsg$[ebp+16], cx

; 2404 : 	memcpy(pMsg.szNAME, gObj[iIndex].Name, 11);

  00051	8b 88 6f 00 00
	00		 mov	 ecx, DWORD PTR ?gObj@@3PAUOBJECTSTRUCT@@A[eax+111]
  00057	88 55 ea	 mov	 BYTE PTR _pMsg$[ebp+18], dl
  0005a	8b 90 73 00 00
	00		 mov	 edx, DWORD PTR ?gObj@@3PAUOBJECTSTRUCT@@A[eax+115]
  00060	89 4d ee	 mov	 DWORD PTR _pMsg$[ebp+22], ecx
  00063	0f b7 88 77 00
	00 00		 movzx	 ecx, WORD PTR ?gObj@@3PAUOBJECTSTRUCT@@A[eax+119]
  0006a	89 55 f2	 mov	 DWORD PTR _pMsg$[ebp+26], edx
  0006d	0f b6 90 79 00
	00 00		 movzx	 edx, BYTE PTR ?gObj@@3PAUOBJECTSTRUCT@@A[eax+121]
  00074	66 89 4d f6	 mov	 WORD PTR _pMsg$[ebp+30], cx

; 2405 : 	pMsg.wServerCode = gGameServerCode / 20;

  00078	0f bf 0d 00 00
	00 00		 movsx	 ecx, WORD PTR ?gGameServerCode@@3FA ; gGameServerCode
  0007f	88 55 f8	 mov	 BYTE PTR _pMsg$[ebp+32], dl
  00082	b8 67 66 66 66	 mov	 eax, 1717986919		; 66666667H
  00087	f7 e9		 imul	 ecx
  00089	c1 fa 03	 sar	 edx, 3
  0008c	8b c2		 mov	 eax, edx
  0008e	c1 e8 1f	 shr	 eax, 31			; 0000001fH
  00091	03 c2		 add	 eax, edx
  00093	66 89 45 ec	 mov	 WORD PTR _pMsg$[ebp+20], ax

; 2406 : 	pMsg.iINDEX = iIndex;
; 2407 : 	pMsg.szUID[10] = 0;

  00097	32 c0		 xor	 al, al

; 2408 : 	pMsg.szNAME[10] = 0;
; 2409 : 
; 2410 : 	DataSendEventChip((PCHAR)&pMsg, sizeof(pMsg));

  00099	8d 4d d8	 lea	 ecx, DWORD PTR _pMsg$[ebp]
  0009c	6a 24		 push	 36			; 00000024H
  0009e	51		 push	 ecx
  0009f	c6 45 d8 c1	 mov	 BYTE PTR _pMsg$[ebp], 193 ; 000000c1H
  000a3	66 c7 45 d9 24
	16		 mov	 WORD PTR _pMsg$[ebp+1], 5668 ; 00001624H
  000a9	89 75 dc	 mov	 DWORD PTR _pMsg$[ebp+4], esi
  000ac	88 45 ea	 mov	 BYTE PTR _pMsg$[ebp+18], al
  000af	88 45 f8	 mov	 BYTE PTR _pMsg$[ebp+32], al
  000b2	e8 00 00 00 00	 call	 ?DataSendEventChip@@YAXPADH@Z ; DataSendEventChip
  000b7	83 c4 08	 add	 esp, 8
$LN2@EGReqRegDL:

; 2411 : }

  000ba	8b 4d fc	 mov	 ecx, DWORD PTR __$ArrayPad$[ebp]
  000bd	33 cd		 xor	 ecx, ebp
  000bf	5e		 pop	 esi
  000c0	e8 00 00 00 00	 call	 @__security_check_cookie@4
  000c5	8b e5		 mov	 esp, ebp
  000c7	5d		 pop	 ebp
  000c8	c3		 ret	 0
?EGReqRegDLOfflineGift@@YAXH@Z ENDP			; EGReqRegDLOfflineGift
_TEXT	ENDS
PUBLIC	??_C@_0EL@NOBBOLBI@?$FLDarkLord?5Heart?5Event?$FN?5?$FL?$CFs?$FN?$FL?$CFs?$FN?5@ ; `string'
PUBLIC	??_C@_0DL@IPBEOKOL@?$FL?$LE?Y?E?$KJ?$LH?N?$LF?e?5?$LB?b?$LD?d?5?$MA?L?$LK?$KF?F?$KO?$FN?5?$CFs?5?$LE?T?$LC?$LC?$LM?$KN@ ; `string'
PUBLIC	__$ArrayPad$
PUBLIC	?EGAnsRegDLOfflineGift@@YAXPAUPMSG_ANS_REG_DL_OFFLINE_GIFT@@@Z ; EGAnsRegDLOfflineGift
;	COMDAT ??_C@_0EL@NOBBOLBI@?$FLDarkLord?5Heart?5Event?$FN?5?$FL?$CFs?$FN?$FL?$CFs?$FN?5@
CONST	SEGMENT
??_C@_0EL@NOBBOLBI@?$FLDarkLord?5Heart?5Event?$FN?5?$FL?$CFs?$FN?$FL?$CFs?$FN?5@ DB '['
	DB	'DarkLord Heart Event] [%s][%s] Success to Register OffLine Gi'
	DB	'ft (GIFT:%s)', 00H				; `string'
CONST	ENDS
;	COMDAT ??_C@_0DL@IPBEOKOL@?$FL?$LE?Y?E?$KJ?$LH?N?$LF?e?5?$LB?b?$LD?d?5?$MA?L?$LK?$KF?F?$KO?$FN?5?$CFs?5?$LE?T?$LC?$LC?$LM?$KN@
CONST	SEGMENT
??_C@_0DL@IPBEOKOL@?$FL?$LE?Y?E?$KJ?$LH?N?$LF?e?5?$LB?b?$LD?d?5?$MA?L?$LK?$KF?F?$KO?$FN?5?$CFs?5?$LE?T?$LC?$LC?$LM?$KN@ DB '['
	DB	0b4H, 0d9H, 0c5H, 0a9H, 0b7H, 0ceH, 0b5H, 0e5H, ' ', 0b1H, 0e2H
	DB	0b3H, 0e4H, ' ', 0c0H, 0ccH, 0baH, 0a5H, 0c6H, 0aeH, '] %s ', 0b4H
	DB	0d4H, 0b2H, 0b2H, 0bcH, 0adH, ' %s ', 0b0H, 0e6H, 0c7H, 0b0H, 0bfH
	DB	0a1H, ' ', 0b4H, 0e7H, 0c3H, 0b7H, 0b5H, 0c7H, 0bcH, 0ccH, 0bdH
	DB	0c0H, 0b4H, 0cfH, 0b4H, 0d9H, '.', 00H	; `string'
; Function compile flags: /Ogtp
CONST	ENDS
;	COMDAT ?EGAnsRegDLOfflineGift@@YAXPAUPMSG_ANS_REG_DL_OFFLINE_GIFT@@@Z
_TEXT	SEGMENT
_szText$ = -336						; size = 256
_szGIFT_NAME$ = -80					; size = 50
_szAccountID$ = -28					; size = 11
_szName$ = -16						; size = 11
__$ArrayPad$ = -4					; size = 4
_lpMsg$ = 8						; size = 4
?EGAnsRegDLOfflineGift@@YAXPAUPMSG_ANS_REG_DL_OFFLINE_GIFT@@@Z PROC ; EGAnsRegDLOfflineGift, COMDAT

; 2414 : {

  00000	55		 push	 ebp
  00001	8b ec		 mov	 ebp, esp
  00003	81 ec 50 01 00
	00		 sub	 esp, 336		; 00000150H
  00009	a1 00 00 00 00	 mov	 eax, DWORD PTR ___security_cookie
  0000e	33 c5		 xor	 eax, ebp
  00010	89 45 fc	 mov	 DWORD PTR __$ArrayPad$[ebp], eax
  00013	8b 45 08	 mov	 eax, DWORD PTR _lpMsg$[ebp]
  00016	53		 push	 ebx

; 2415 : 	if ( !lpMsg)

  00017	33 db		 xor	 ebx, ebx
  00019	3b c3		 cmp	 eax, ebx
  0001b	0f 84 b3 00 00
	00		 je	 $LN3@EGAnsRegDL

; 2416 : 		return;
; 2417 : 
; 2418 : 	if ( !lpMsg->iResultCode )

  00021	39 58 24	 cmp	 DWORD PTR [eax+36], ebx
  00024	0f 84 aa 00 00
	00		 je	 $LN3@EGAnsRegDL

; 2419 : 		return;
; 2420 : 
; 2421 : 	char szAccountID[11] = {0};
; 2422 : 	char szName[11] = {0};
; 2423 : 	char szGIFT_NAME[50] = {0};
; 2424 : 	memset(szAccountID, 0, sizeof(szAccountID));
; 2425 : 	memset(szName, 0, sizeof(szName));
; 2426 : 	memset(szGIFT_NAME, 0, sizeof(szGIFT_NAME));
; 2427 : 	memcpy(szAccountID, lpMsg->szUID, sizeof(szAccountID));

  0002a	8b 48 08	 mov	 ecx, DWORD PTR [eax+8]
  0002d	8b 50 0c	 mov	 edx, DWORD PTR [eax+12]
  00030	89 4d e4	 mov	 DWORD PTR _szAccountID$[ebp], ecx
  00033	0f b7 48 10	 movzx	 ecx, WORD PTR [eax+16]
  00037	66 89 4d ec	 mov	 WORD PTR _szAccountID$[ebp+8], cx

; 2428 : 	memcpy(szName, lpMsg->szNAME, sizeof(szName));

  0003b	8b 48 16	 mov	 ecx, DWORD PTR [eax+22]
  0003e	56		 push	 esi
  0003f	89 4d f0	 mov	 DWORD PTR _szName$[ebp], ecx
  00042	0f b7 48 1e	 movzx	 ecx, WORD PTR [eax+30]
  00046	57		 push	 edi
  00047	66 89 4d f8	 mov	 WORD PTR _szName$[ebp+8], cx

; 2429 : 	memcpy(szGIFT_NAME, lpMsg->szGIFT_NAME, sizeof(szGIFT_NAME));

  0004b	8d 70 28	 lea	 esi, DWORD PTR [eax+40]
  0004e	89 55 e8	 mov	 DWORD PTR _szAccountID$[ebp+4], edx
  00051	0f b6 50 12	 movzx	 edx, BYTE PTR [eax+18]
  00055	b9 0c 00 00 00	 mov	 ecx, 12			; 0000000cH
  0005a	8d 7d b0	 lea	 edi, DWORD PTR _szGIFT_NAME$[ebp]
  0005d	f3 a5		 rep movsd
  0005f	88 55 ee	 mov	 BYTE PTR _szAccountID$[ebp+10], dl
  00062	8b 50 1a	 mov	 edx, DWORD PTR [eax+26]
  00065	89 55 f4	 mov	 DWORD PTR _szName$[ebp+4], edx
  00068	0f b6 50 20	 movzx	 edx, BYTE PTR [eax+32]

; 2430 : 	szAccountID[10] = 0;
; 2431 : 	szName[10] = 0;
; 2432 : 	szGIFT_NAME[49] = 0;
; 2433 : 	char szText[256] = {0};

  0006c	68 ff 00 00 00	 push	 255			; 000000ffH
  00071	8d 85 b1 fe ff
	ff		 lea	 eax, DWORD PTR _szText$[ebp+1]
  00077	53		 push	 ebx
  00078	88 55 fa	 mov	 BYTE PTR _szName$[ebp+10], dl
  0007b	66 a5		 movsw
  0007d	50		 push	 eax
  0007e	88 5d ee	 mov	 BYTE PTR _szAccountID$[ebp+10], bl
  00081	88 5d fa	 mov	 BYTE PTR _szName$[ebp+10], bl
  00084	88 5d e1	 mov	 BYTE PTR _szGIFT_NAME$[ebp+49], bl
  00087	88 9d b0 fe ff
	ff		 mov	 BYTE PTR _szText$[ebp], bl
  0008d	e8 00 00 00 00	 call	 _memset

; 2434 : 
; 2435 : 	wsprintf(szText, "[  ] %s  %s  .", szName, szGIFT_NAME);

  00092	8d 4d b0	 lea	 ecx, DWORD PTR _szGIFT_NAME$[ebp]
  00095	51		 push	 ecx
  00096	8d 55 f0	 lea	 edx, DWORD PTR _szName$[ebp]
  00099	52		 push	 edx
  0009a	8d 85 b0 fe ff
	ff		 lea	 eax, DWORD PTR _szText$[ebp]
  000a0	68 00 00 00 00	 push	 OFFSET ??_C@_0DL@IPBEOKOL@?$FL?$LE?Y?E?$KJ?$LH?N?$LF?e?5?$LB?b?$LD?d?5?$MA?L?$LK?$KF?F?$KO?$FN?5?$CFs?5?$LE?T?$LC?$LC?$LM?$KN@
  000a5	50		 push	 eax
  000a6	ff 15 00 00 00
	00		 call	 DWORD PTR __imp__wsprintfA

; 2436 : 	AllSendServerMsg(szText);

  000ac	8d 8d b0 fe ff
	ff		 lea	 ecx, DWORD PTR _szText$[ebp]
  000b2	51		 push	 ecx
  000b3	e8 00 00 00 00	 call	 ?AllSendServerMsg@@YAXPAD@Z ; AllSendServerMsg

; 2437 : 
; 2438 : 	LogAdd(LOG_BLACK, "[DarkLord Heart Event] [%s][%s] Success to Register OffLine Gift (GIFT:%s)",
; 2439 : 		szAccountID, szName, szGIFT_NAME);

  000b8	8d 55 b0	 lea	 edx, DWORD PTR _szGIFT_NAME$[ebp]
  000bb	52		 push	 edx
  000bc	8d 45 f0	 lea	 eax, DWORD PTR _szName$[ebp]
  000bf	50		 push	 eax
  000c0	8d 4d e4	 lea	 ecx, DWORD PTR _szAccountID$[ebp]
  000c3	51		 push	 ecx
  000c4	68 00 00 00 00	 push	 OFFSET ??_C@_0EL@NOBBOLBI@?$FLDarkLord?5Heart?5Event?$FN?5?$FL?$CFs?$FN?$FL?$CFs?$FN?5@
  000c9	53		 push	 ebx
  000ca	e8 00 00 00 00	 call	 ?LogAdd@@YAXW4eLogColor@@PADZZ ; LogAdd
  000cf	83 c4 34	 add	 esp, 52			; 00000034H
  000d2	5f		 pop	 edi
  000d3	5e		 pop	 esi
$LN3@EGAnsRegDL:

; 2440 : }

  000d4	8b 4d fc	 mov	 ecx, DWORD PTR __$ArrayPad$[ebp]
  000d7	33 cd		 xor	 ecx, ebp
  000d9	5b		 pop	 ebx
  000da	e8 00 00 00 00	 call	 @__security_check_cookie@4
  000df	8b e5		 mov	 esp, ebp
  000e1	5d		 pop	 ebp
  000e2	c3		 ret	 0
?EGAnsRegDLOfflineGift@@YAXPAUPMSG_ANS_REG_DL_OFFLINE_GIFT@@@Z ENDP ; EGAnsRegDLOfflineGift
_TEXT	ENDS
PUBLIC	__$ArrayPad$
PUBLIC	?EGReqRegHTOfflineGift@@YAXH@Z			; EGReqRegHTOfflineGift
; Function compile flags: /Ogtp
;	COMDAT ?EGReqRegHTOfflineGift@@YAXH@Z
_TEXT	SEGMENT
_pMsg$ = -40						; size = 36
__$ArrayPad$ = -4					; size = 4
_iIndex$ = 8						; size = 4
?EGReqRegHTOfflineGift@@YAXH@Z PROC			; EGReqRegHTOfflineGift, COMDAT

; 2452 : {

  00000	55		 push	 ebp
  00001	8b ec		 mov	 ebp, esp
  00003	83 ec 28	 sub	 esp, 40			; 00000028H
  00006	a1 00 00 00 00	 mov	 eax, DWORD PTR ___security_cookie
  0000b	33 c5		 xor	 eax, ebp
  0000d	89 45 fc	 mov	 DWORD PTR __$ArrayPad$[ebp], eax
  00010	56		 push	 esi
  00011	8b 75 08	 mov	 esi, DWORD PTR _iIndex$[ebp]

; 2453 : 	if ( !gObjIsConnected(iIndex) )

  00014	56		 push	 esi
  00015	e8 00 00 00 00	 call	 ?gObjIsConnected@@YAHH@Z ; gObjIsConnected
  0001a	83 c4 04	 add	 esp, 4
  0001d	85 c0		 test	 eax, eax
  0001f	0f 84 95 00 00
	00		 je	 $LN2@EGReqRegHT

; 2454 : 		return;
; 2455 : 
; 2456 : 	PMSG_REQ_REG_HT_OFFLINE_GIFT pMsg;
; 2457 : 
; 2458 : 	pMsg.h.c = 0xC1;
; 2459 : 	pMsg.h.headcode = 0x17;
; 2460 : 	pMsg.h.size = sizeof(pMsg);
; 2461 : 	memcpy(pMsg.szUID, gObj[iIndex].AccountID, 11);

  00025	8b c6		 mov	 eax, esi
  00027	69 c0 64 15 00
	00		 imul	 eax, 5476		; 00001564H
  0002d	8b 88 64 00 00
	00		 mov	 ecx, DWORD PTR ?gObj@@3PAUOBJECTSTRUCT@@A[eax+100]
  00033	8b 90 68 00 00
	00		 mov	 edx, DWORD PTR ?gObj@@3PAUOBJECTSTRUCT@@A[eax+104]
  00039	89 4d e0	 mov	 DWORD PTR _pMsg$[ebp+8], ecx
  0003c	0f b7 88 6c 00
	00 00		 movzx	 ecx, WORD PTR ?gObj@@3PAUOBJECTSTRUCT@@A[eax+108]
  00043	89 55 e4	 mov	 DWORD PTR _pMsg$[ebp+12], edx
  00046	0f b6 90 6e 00
	00 00		 movzx	 edx, BYTE PTR ?gObj@@3PAUOBJECTSTRUCT@@A[eax+110]
  0004d	66 89 4d e8	 mov	 WORD PTR _pMsg$[ebp+16], cx

; 2462 : 	memcpy(pMsg.szNAME, gObj[iIndex].Name, 11);

  00051	8b 88 6f 00 00
	00		 mov	 ecx, DWORD PTR ?gObj@@3PAUOBJECTSTRUCT@@A[eax+111]
  00057	88 55 ea	 mov	 BYTE PTR _pMsg$[ebp+18], dl
  0005a	8b 90 73 00 00
	00		 mov	 edx, DWORD PTR ?gObj@@3PAUOBJECTSTRUCT@@A[eax+115]
  00060	89 4d ee	 mov	 DWORD PTR _pMsg$[ebp+22], ecx
  00063	0f b7 88 77 00
	00 00		 movzx	 ecx, WORD PTR ?gObj@@3PAUOBJECTSTRUCT@@A[eax+119]
  0006a	89 55 f2	 mov	 DWORD PTR _pMsg$[ebp+26], edx
  0006d	0f b6 90 79 00
	00 00		 movzx	 edx, BYTE PTR ?gObj@@3PAUOBJECTSTRUCT@@A[eax+121]
  00074	66 89 4d f6	 mov	 WORD PTR _pMsg$[ebp+30], cx

; 2463 : 	pMsg.wServerCode = gGameServerCode / 20;

  00078	0f bf 0d 00 00
	00 00		 movsx	 ecx, WORD PTR ?gGameServerCode@@3FA ; gGameServerCode
  0007f	88 55 f8	 mov	 BYTE PTR _pMsg$[ebp+32], dl
  00082	b8 67 66 66 66	 mov	 eax, 1717986919		; 66666667H
  00087	f7 e9		 imul	 ecx
  00089	c1 fa 03	 sar	 edx, 3
  0008c	8b c2		 mov	 eax, edx
  0008e	c1 e8 1f	 shr	 eax, 31			; 0000001fH
  00091	03 c2		 add	 eax, edx
  00093	66 89 45 ec	 mov	 WORD PTR _pMsg$[ebp+20], ax

; 2464 : 	pMsg.iINDEX = iIndex;
; 2465 : 	pMsg.szUID[10] = 0;

  00097	32 c0		 xor	 al, al

; 2466 : 	pMsg.szNAME[10] = 0;
; 2467 : 
; 2468 : 	DataSendEventChip((PCHAR)&pMsg, sizeof(pMsg));

  00099	8d 4d d8	 lea	 ecx, DWORD PTR _pMsg$[ebp]
  0009c	6a 24		 push	 36			; 00000024H
  0009e	51		 push	 ecx
  0009f	c6 45 d8 c1	 mov	 BYTE PTR _pMsg$[ebp], 193 ; 000000c1H
  000a3	66 c7 45 d9 24
	17		 mov	 WORD PTR _pMsg$[ebp+1], 5924 ; 00001724H
  000a9	89 75 dc	 mov	 DWORD PTR _pMsg$[ebp+4], esi
  000ac	88 45 ea	 mov	 BYTE PTR _pMsg$[ebp+18], al
  000af	88 45 f8	 mov	 BYTE PTR _pMsg$[ebp+32], al
  000b2	e8 00 00 00 00	 call	 ?DataSendEventChip@@YAXPADH@Z ; DataSendEventChip
  000b7	83 c4 08	 add	 esp, 8
$LN2@EGReqRegHT:

; 2469 : }

  000ba	8b 4d fc	 mov	 ecx, DWORD PTR __$ArrayPad$[ebp]
  000bd	33 cd		 xor	 ecx, ebp
  000bf	5e		 pop	 esi
  000c0	e8 00 00 00 00	 call	 @__security_check_cookie@4
  000c5	8b e5		 mov	 esp, ebp
  000c7	5d		 pop	 ebp
  000c8	c3		 ret	 0
?EGReqRegHTOfflineGift@@YAXH@Z ENDP			; EGReqRegHTOfflineGift
_TEXT	ENDS
PUBLIC	??_C@_0EP@NDKKAONI@?$FLHidden?5TreasureBox?5Event?$FN?5?$FL?$CFs?$FN?$FL@ ; `string'
PUBLIC	??_C@_0DN@DCNMDOGL@?$FL?$LM?$PL?$LA?$NM?A?x?5?$LK?$LI?$LJ?$LA?$LL?s?$MA?Z?5?$MA?L?$LK?$KF?F?$KO?$FN?5?$CFs?5?$LE?T?$LC?$LC@ ; `string'
PUBLIC	__$ArrayPad$
PUBLIC	?EGAnsRegHTOfflineGift@@YAXPAUPMSG_ANS_REG_HT_OFFLINE_GIFT@@@Z ; EGAnsRegHTOfflineGift
;	COMDAT ??_C@_0EP@NDKKAONI@?$FLHidden?5TreasureBox?5Event?$FN?5?$FL?$CFs?$FN?$FL@
CONST	SEGMENT
??_C@_0EP@NDKKAONI@?$FLHidden?5TreasureBox?5Event?$FN?5?$FL?$CFs?$FN?$FL@ DB '['
	DB	'Hidden TreasureBox Event] [%s][%s] Success to Register OffLin'
	DB	'e Gift (GIFT:%s)', 00H			; `string'
CONST	ENDS
;	COMDAT ??_C@_0DN@DCNMDOGL@?$FL?$LM?$PL?$LA?$NM?A?x?5?$LK?$LI?$LJ?$LA?$LL?s?$MA?Z?5?$MA?L?$LK?$KF?F?$KO?$FN?5?$CFs?5?$LE?T?$LC?$LC@
CONST	SEGMENT
??_C@_0DN@DCNMDOGL@?$FL?$LM?$PL?$LA?$NM?A?x?5?$LK?$LI?$LJ?$LA?$LL?s?$MA?Z?5?$MA?L?$LK?$KF?F?$KO?$FN?5?$CFs?5?$LE?T?$LC?$LC@ DB '['
	DB	0bcH, 0fbH, 0b0H, 0dcH, 0c1H, 0f8H, ' ', 0baH, 0b8H, 0b9H, 0b0H
	DB	0bbH, 0f3H, 0c0H, 0daH, ' ', 0c0H, 0ccH, 0baH, 0a5H, 0c6H, 0aeH
	DB	'] %s ', 0b4H, 0d4H, 0b2H, 0b2H, 0bcH, 0adH, ' %s ', 0b0H, 0e6H
	DB	0c7H, 0b0H, 0bfH, 0a1H, ' ', 0b4H, 0e7H, 0c3H, 0b7H, 0b5H, 0c7H
	DB	0bcH, 0ccH, 0bdH, 0c0H, 0b4H, 0cfH, 0b4H, 0d9H, '.', 00H ; `string'
; Function compile flags: /Ogtp
CONST	ENDS
;	COMDAT ?EGAnsRegHTOfflineGift@@YAXPAUPMSG_ANS_REG_HT_OFFLINE_GIFT@@@Z
_TEXT	SEGMENT
_szText$ = -336						; size = 256
_szGIFT_NAME$ = -80					; size = 50
_szAccountID$ = -28					; size = 11
_szName$ = -16						; size = 11
__$ArrayPad$ = -4					; size = 4
_lpMsg$ = 8						; size = 4
?EGAnsRegHTOfflineGift@@YAXPAUPMSG_ANS_REG_HT_OFFLINE_GIFT@@@Z PROC ; EGAnsRegHTOfflineGift, COMDAT

; 2472 : {

  00000	55		 push	 ebp
  00001	8b ec		 mov	 ebp, esp
  00003	81 ec 50 01 00
	00		 sub	 esp, 336		; 00000150H
  00009	a1 00 00 00 00	 mov	 eax, DWORD PTR ___security_cookie
  0000e	33 c5		 xor	 eax, ebp
  00010	89 45 fc	 mov	 DWORD PTR __$ArrayPad$[ebp], eax
  00013	53		 push	 ebx
  00014	56		 push	 esi
  00015	8b 75 08	 mov	 esi, DWORD PTR _lpMsg$[ebp]

; 2473 : 	if ( !lpMsg)

  00018	33 db		 xor	 ebx, ebx
  0001a	3b f3		 cmp	 esi, ebx
  0001c	0f 84 0b 01 00
	00		 je	 $LN4@EGAnsRegHT

; 2474 : 		return;
; 2475 : 
; 2476 : 	if ( !lpMsg->iResultCode )

  00022	39 5e 24	 cmp	 DWORD PTR [esi+36], ebx
  00025	75 60		 jne	 SHORT $LN2@EGAnsRegHT

; 2477 : 	{
; 2478 : 		if ( gObjIsConnected(lpMsg->iINDEX))

  00027	8b 46 04	 mov	 eax, DWORD PTR [esi+4]
  0002a	50		 push	 eax
  0002b	e8 00 00 00 00	 call	 ?gObjIsConnected@@YAHH@Z ; gObjIsConnected
  00030	83 c4 04	 add	 esp, 4
  00033	85 c0		 test	 eax, eax
  00035	0f 84 f2 00 00
	00		 je	 $LN4@EGAnsRegHT

; 2479 : 		{
; 2480 : 			LPOBJ lpObj = &gObj[lpMsg->iINDEX];

  0003b	8b 76 04	 mov	 esi, DWORD PTR [esi+4]
  0003e	69 f6 64 15 00
	00		 imul	 esi, 5476		; 00001564H
  00044	81 c6 00 00 00
	00		 add	 esi, OFFSET ?gObj@@3PAUOBJECTSTRUCT@@A ; gObj

; 2481 : 
; 2482 : 			MapC[lpObj->MapNumber].MoneyItemDrop(1000000, lpObj->X, lpObj->Y);

  0004a	0f bf 8e 06 01
	00 00		 movsx	 ecx, WORD PTR [esi+262]
  00051	0f bf 96 04 01
	00 00		 movsx	 edx, WORD PTR [esi+260]
  00058	51		 push	 ecx
  00059	0f b6 8e 09 01
	00 00		 movzx	 ecx, BYTE PTR [esi+265]
  00060	69 c9 08 07 05
	00		 imul	 ecx, 329480		; 00050708H
  00066	52		 push	 edx
  00067	68 40 42 0f 00	 push	 1000000			; 000f4240H
  0006c	81 c1 00 00 00
	00		 add	 ecx, OFFSET ?MapC@@3PAVMapClass@@A ; MapC
  00072	e8 00 00 00 00	 call	 ?MoneyItemDrop@MapClass@@QAEHHHH@Z ; MapClass::MoneyItemDrop
  00077	5e		 pop	 esi
  00078	5b		 pop	 ebx

; 2506 : }

  00079	8b 4d fc	 mov	 ecx, DWORD PTR __$ArrayPad$[ebp]
  0007c	33 cd		 xor	 ecx, ebp
  0007e	e8 00 00 00 00	 call	 @__security_check_cookie@4
  00083	8b e5		 mov	 esp, ebp
  00085	5d		 pop	 ebp
  00086	c3		 ret	 0
$LN2@EGAnsRegHT:

; 2483 : 		}
; 2484 : 		return;
; 2485 : 	}
; 2486 : 
; 2487 : 	char szAccountID[11] = {0};
; 2488 : 	char szName[11] = {0};
; 2489 : 	char szGIFT_NAME[50] = {0};
; 2490 : 	memset(szAccountID, 0, sizeof(szAccountID));
; 2491 : 	memset(szName, 0, sizeof(szName));
; 2492 : 	memset(szGIFT_NAME, 0, sizeof(szGIFT_NAME));
; 2493 : 	memcpy(szAccountID, lpMsg->szUID, sizeof(szAccountID));

  00087	8b 46 08	 mov	 eax, DWORD PTR [esi+8]
  0008a	8b 4e 0c	 mov	 ecx, DWORD PTR [esi+12]
  0008d	66 8b 56 10	 mov	 dx, WORD PTR [esi+16]
  00091	89 4d e8	 mov	 DWORD PTR _szAccountID$[ebp+4], ecx

; 2494 : 	memcpy(szName, lpMsg->szNAME, sizeof(szName));

  00094	8b 4e 16	 mov	 ecx, DWORD PTR [esi+22]
  00097	89 45 e4	 mov	 DWORD PTR _szAccountID$[ebp], eax
  0009a	8a 46 12	 mov	 al, BYTE PTR [esi+18]
  0009d	89 4d f0	 mov	 DWORD PTR _szName$[ebp], ecx
  000a0	8a 4e 20	 mov	 cl, BYTE PTR [esi+32]
  000a3	57		 push	 edi
  000a4	66 89 55 ec	 mov	 WORD PTR _szAccountID$[ebp+8], dx
  000a8	8b 56 1a	 mov	 edx, DWORD PTR [esi+26]
  000ab	88 45 ee	 mov	 BYTE PTR _szAccountID$[ebp+10], al
  000ae	66 8b 46 1e	 mov	 ax, WORD PTR [esi+30]
  000b2	88 4d fa	 mov	 BYTE PTR _szName$[ebp+10], cl

; 2495 : 	memcpy(szGIFT_NAME, lpMsg->szGIFT_NAME, sizeof(szGIFT_NAME));

  000b5	83 c6 28	 add	 esi, 40			; 00000028H
  000b8	b9 0c 00 00 00	 mov	 ecx, 12			; 0000000cH
  000bd	8d 7d b0	 lea	 edi, DWORD PTR _szGIFT_NAME$[ebp]
  000c0	f3 a5		 rep movsd

; 2496 : 	szAccountID[10] = 0;
; 2497 : 	szName[10] = 0;
; 2498 : 	szGIFT_NAME[49] = 0;
; 2499 : 	char szText[256] = {0};

  000c2	68 ff 00 00 00	 push	 255			; 000000ffH
  000c7	89 55 f4	 mov	 DWORD PTR _szName$[ebp+4], edx
  000ca	8d 95 b1 fe ff
	ff		 lea	 edx, DWORD PTR _szText$[ebp+1]
  000d0	53		 push	 ebx
  000d1	66 a5		 movsw
  000d3	52		 push	 edx
  000d4	66 89 45 f8	 mov	 WORD PTR _szName$[ebp+8], ax
  000d8	88 5d ee	 mov	 BYTE PTR _szAccountID$[ebp+10], bl
  000db	88 5d fa	 mov	 BYTE PTR _szName$[ebp+10], bl
  000de	88 5d e1	 mov	 BYTE PTR _szGIFT_NAME$[ebp+49], bl
  000e1	88 9d b0 fe ff
	ff		 mov	 BYTE PTR _szText$[ebp], bl
  000e7	e8 00 00 00 00	 call	 _memset

; 2500 : 
; 2501 : 	wsprintf(szText, "[  ] %s  %s  .", szName, szGIFT_NAME);

  000ec	8d 45 b0	 lea	 eax, DWORD PTR _szGIFT_NAME$[ebp]
  000ef	50		 push	 eax
  000f0	8d 4d f0	 lea	 ecx, DWORD PTR _szName$[ebp]
  000f3	51		 push	 ecx
  000f4	8d 95 b0 fe ff
	ff		 lea	 edx, DWORD PTR _szText$[ebp]
  000fa	68 00 00 00 00	 push	 OFFSET ??_C@_0DN@DCNMDOGL@?$FL?$LM?$PL?$LA?$NM?A?x?5?$LK?$LI?$LJ?$LA?$LL?s?$MA?Z?5?$MA?L?$LK?$KF?F?$KO?$FN?5?$CFs?5?$LE?T?$LC?$LC@
  000ff	52		 push	 edx
  00100	ff 15 00 00 00
	00		 call	 DWORD PTR __imp__wsprintfA

; 2502 : 	AllSendServerMsg(szText);

  00106	8d 85 b0 fe ff
	ff		 lea	 eax, DWORD PTR _szText$[ebp]
  0010c	50		 push	 eax
  0010d	e8 00 00 00 00	 call	 ?AllSendServerMsg@@YAXPAD@Z ; AllSendServerMsg

; 2503 : 
; 2504 : 	LogAdd(LOG_BLACK, "[Hidden TreasureBox Event] [%s][%s] Success to Register OffLine Gift (GIFT:%s)",
; 2505 : 		szAccountID, szName, szGIFT_NAME);

  00112	8d 4d b0	 lea	 ecx, DWORD PTR _szGIFT_NAME$[ebp]
  00115	51		 push	 ecx
  00116	8d 55 f0	 lea	 edx, DWORD PTR _szName$[ebp]
  00119	52		 push	 edx
  0011a	8d 45 e4	 lea	 eax, DWORD PTR _szAccountID$[ebp]
  0011d	50		 push	 eax
  0011e	68 00 00 00 00	 push	 OFFSET ??_C@_0EP@NDKKAONI@?$FLHidden?5TreasureBox?5Event?$FN?5?$FL?$CFs?$FN?$FL@
  00123	53		 push	 ebx
  00124	e8 00 00 00 00	 call	 ?LogAdd@@YAXW4eLogColor@@PADZZ ; LogAdd
  00129	83 c4 34	 add	 esp, 52			; 00000034H
  0012c	5f		 pop	 edi
$LN4@EGAnsRegHT:

; 2506 : }

  0012d	8b 4d fc	 mov	 ecx, DWORD PTR __$ArrayPad$[ebp]
  00130	5e		 pop	 esi
  00131	33 cd		 xor	 ecx, ebp
  00133	5b		 pop	 ebx
  00134	e8 00 00 00 00	 call	 @__security_check_cookie@4
  00139	8b e5		 mov	 esp, ebp
  0013b	5d		 pop	 ebp
  0013c	c3		 ret	 0
?EGAnsRegHTOfflineGift@@YAXPAUPMSG_ANS_REG_HT_OFFLINE_GIFT@@@Z ENDP ; EGAnsRegHTOfflineGift
_TEXT	ENDS
PUBLIC	?GetBagCount@CItemBag@@QAEHXZ			; CItemBag::GetBagCount
; Function compile flags: /Ogtp
; File c:\users\faelhs\mu-1.1\emu - gameserver sapphire s0\gameserver\itembag.h
;	COMDAT ?GetBagCount@CItemBag@@QAEHXZ
_TEXT	SEGMENT
?GetBagCount@CItemBag@@QAEHXZ PROC			; CItemBag::GetBagCount, COMDAT
; _this$ = ecx

; 49   : 		return this->BagObjectCount;

  00000	8b 81 88 03 00
	00		 mov	 eax, DWORD PTR [ecx+904]

; 50   : 	};	// line : 64

  00006	c3		 ret	 0
?GetBagCount@CItemBag@@QAEHXZ ENDP			; CItemBag::GetBagCount
_TEXT	ENDS
PUBLIC	?GetNormalItemCount@CItemBag@@QAEHXZ		; CItemBag::GetNormalItemCount
; Function compile flags: /Ogtp
;	COMDAT ?GetNormalItemCount@CItemBag@@QAEHXZ
_TEXT	SEGMENT
?GetNormalItemCount@CItemBag@@QAEHXZ PROC		; CItemBag::GetNormalItemCount, COMDAT
; _this$ = ecx

; 57   : 	int GetNormalItemCount(){return this->BagNormalItemCount;}	// line : 72

  00000	8b 81 8c 03 00
	00		 mov	 eax, DWORD PTR [ecx+908]
  00006	c3		 ret	 0
?GetNormalItemCount@CItemBag@@QAEHXZ ENDP		; CItemBag::GetNormalItemCount
_TEXT	ENDS
PUBLIC	?GetExItemCount@CItemBag@@QAEHXZ		; CItemBag::GetExItemCount
; Function compile flags: /Ogtp
;	COMDAT ?GetExItemCount@CItemBag@@QAEHXZ
_TEXT	SEGMENT
?GetExItemCount@CItemBag@@QAEHXZ PROC			; CItemBag::GetExItemCount, COMDAT
; _this$ = ecx

; 58   : 	int GetExItemCount(){return this->BagExItemCount;}	// line : 73

  00000	8b 81 90 03 00
	00		 mov	 eax, DWORD PTR [ecx+912]
  00006	c3		 ret	 0
?GetExItemCount@CItemBag@@QAEHXZ ENDP			; CItemBag::GetExItemCount
_TEXT	ENDS
PUBLIC	?EventChipEventProtocolCore@@YAXEPAEH@Z		; EventChipEventProtocolCore
; Function compile flags: /Ogtp
; File c:\users\faelhs\mu-1.1\emu - gameserver sapphire s0\gameserver\event.cpp
;	COMDAT ?EventChipEventProtocolCore@@YAXEPAEH@Z
_TEXT	SEGMENT
_protoNum$ = 8						; size = 1
_aRecv$ = 12						; size = 4
_aLen$ = 16						; size = 4
?EventChipEventProtocolCore@@YAXEPAEH@Z PROC		; EventChipEventProtocolCore, COMDAT

; 16   : {

  00000	55		 push	 ebp
  00001	8b ec		 mov	 ebp, esp

; 17   : #if (TRACE_PROTOCOL==1)
; 18   : 	LogAddHeadHex("EVENT_SERVER", aRecv, aLen);
; 19   : #endif
; 20   : 
; 21   : 	switch ( protoNum )

  00003	0f b6 45 08	 movzx	 eax, BYTE PTR _protoNum$[ebp]
  00007	48		 dec	 eax
  00008	83 f8 16	 cmp	 eax, 22			; 00000016H
  0000b	0f 87 b4 00 00
	00		 ja	 $LN14@EventChipE
  00011	0f b6 80 00 00
	00 00		 movzx	 eax, BYTE PTR $LN18@EventChipE[eax]
  00018	ff 24 85 00 00
	00 00		 jmp	 DWORD PTR $LN20@EventChipE[eax*4]
$LN13@EventChipE:

; 22   : 	{
; 23   : 		case 0x01:
; 24   : 			EGRecvEventChipInfo((PMSG_ANS_VIEW_EC_MN *)aRecv);

  0001f	8b 4d 0c	 mov	 ecx, DWORD PTR _aRecv$[ebp]
  00022	51		 push	 ecx
  00023	e8 00 00 00 00	 call	 ?EGRecvEventChipInfo@@YAXPAUPMSG_ANS_VIEW_EC_MN@@@Z ; EGRecvEventChipInfo

; 58   : 			break;
; 59   : 		case 0x17:
; 60   : 			EGAnsRegHTOfflineGift((PMSG_ANS_REG_HT_OFFLINE_GIFT *)aRecv);

  00028	83 c4 04	 add	 esp, 4

; 61   : 			break;
; 62   : 	}
; 63   : }

  0002b	5d		 pop	 ebp
  0002c	c3		 ret	 0
$LN12@EventChipE:

; 25   : 			break;
; 26   : 		case 0x02:
; 27   : 			EGResultRegEventChip((PMSG_ANS_REGISTER_EVENTCHIP *)aRecv);

  0002d	8b 55 0c	 mov	 edx, DWORD PTR _aRecv$[ebp]
  00030	52		 push	 edx
  00031	e8 00 00 00 00	 call	 ?EGResultRegEventChip@@YAXPAUPMSG_ANS_REGISTER_EVENTCHIP@@@Z ; EGResultRegEventChip

; 58   : 			break;
; 59   : 		case 0x17:
; 60   : 			EGAnsRegHTOfflineGift((PMSG_ANS_REG_HT_OFFLINE_GIFT *)aRecv);

  00036	83 c4 04	 add	 esp, 4

; 61   : 			break;
; 62   : 	}
; 63   : }

  00039	5d		 pop	 ebp
  0003a	c3		 ret	 0
$LN11@EventChipE:

; 28   : 			break;
; 29   : 		case 0x03:
; 30   : 			EGRecvRegMutoNum((PMSG_ANS_REGISTER_MUTONUM *)aRecv);

  0003b	8b 45 0c	 mov	 eax, DWORD PTR _aRecv$[ebp]
  0003e	50		 push	 eax
  0003f	e8 00 00 00 00	 call	 ?EGRecvRegMutoNum@@YAXPAUPMSG_ANS_REGISTER_MUTONUM@@@Z ; EGRecvRegMutoNum

; 58   : 			break;
; 59   : 		case 0x17:
; 60   : 			EGAnsRegHTOfflineGift((PMSG_ANS_REG_HT_OFFLINE_GIFT *)aRecv);

  00044	83 c4 04	 add	 esp, 4

; 61   : 			break;
; 62   : 	}
; 63   : }

  00047	5d		 pop	 ebp
  00048	c3		 ret	 0
$LN10@EventChipE:

; 31   : 			break;
; 32   : 		case 0x04:
; 33   : 			EGRecvChangeRena((PMSG_ANS_RESET_EVENTCHIP *)aRecv);

  00049	8b 4d 0c	 mov	 ecx, DWORD PTR _aRecv$[ebp]
  0004c	51		 push	 ecx
  0004d	e8 00 00 00 00	 call	 ?EGRecvChangeRena@@YAXPAUPMSG_ANS_RESET_EVENTCHIP@@@Z ; EGRecvChangeRena

; 58   : 			break;
; 59   : 		case 0x17:
; 60   : 			EGAnsRegHTOfflineGift((PMSG_ANS_REG_HT_OFFLINE_GIFT *)aRecv);

  00052	83 c4 04	 add	 esp, 4

; 61   : 			break;
; 62   : 	}
; 63   : }

  00055	5d		 pop	 ebp
  00056	c3		 ret	 0
$LN9@EventChipE:

; 34   : 			break;
; 35   : 		case 0x05:
; 36   : 			EGRecvStoneInfo((PMSG_ANS_VIEW_STONES *)aRecv);

  00057	8b 55 0c	 mov	 edx, DWORD PTR _aRecv$[ebp]
  0005a	52		 push	 edx
  0005b	e8 00 00 00 00	 call	 ?EGRecvStoneInfo@@YAXPAUPMSG_ANS_VIEW_STONES@@@Z ; EGRecvStoneInfo

; 58   : 			break;
; 59   : 		case 0x17:
; 60   : 			EGAnsRegHTOfflineGift((PMSG_ANS_REG_HT_OFFLINE_GIFT *)aRecv);

  00060	83 c4 04	 add	 esp, 4

; 61   : 			break;
; 62   : 	}
; 63   : }

  00063	5d		 pop	 ebp
  00064	c3		 ret	 0
$LN8@EventChipE:

; 37   : 			break;
; 38   : 		case 0x06:
; 39   : 			EGRecvRegStone((PMSG_ANS_REGISTER_STONES *)aRecv);

  00065	8b 45 0c	 mov	 eax, DWORD PTR _aRecv$[ebp]
  00068	50		 push	 eax
  00069	e8 00 00 00 00	 call	 ?EGRecvRegStone@@YAXPAUPMSG_ANS_REGISTER_STONES@@@Z ; EGRecvRegStone

; 58   : 			break;
; 59   : 		case 0x17:
; 60   : 			EGAnsRegHTOfflineGift((PMSG_ANS_REG_HT_OFFLINE_GIFT *)aRecv);

  0006e	83 c4 04	 add	 esp, 4

; 61   : 			break;
; 62   : 	}
; 63   : }

  00071	5d		 pop	 ebp
  00072	c3		 ret	 0
$LN6@EventChipE:

; 40   : 			break;
; 41   : 		case 0x07:
; 42   : 			EGRecvDeleteStone((PMSG_ANS_DELETE_STONES *)aRecv);
; 43   : 			break;
; 44   : 		case 0x09:
; 45   : 			EGRecvChangeStones((PMSG_ANS_RESET_EVENTCHIP *)aRecv);

  00073	8b 4d 0c	 mov	 ecx, DWORD PTR _aRecv$[ebp]
  00076	51		 push	 ecx
  00077	e8 00 00 00 00	 call	 ?EGRecvChangeStones@@YAXPAUPMSG_ANS_RESET_EVENTCHIP@@@Z ; EGRecvChangeStones

; 58   : 			break;
; 59   : 		case 0x17:
; 60   : 			EGAnsRegHTOfflineGift((PMSG_ANS_REG_HT_OFFLINE_GIFT *)aRecv);

  0007c	83 c4 04	 add	 esp, 4

; 61   : 			break;
; 62   : 	}
; 63   : }

  0007f	5d		 pop	 ebp
  00080	c3		 ret	 0
$LN5@EventChipE:

; 46   : 			break;
; 47   : 		case 0x08:
; 48   : 			EGRecv2AnvRegSerial((PMSG_ANS_2ANIV_SERIAL *)aRecv);

  00081	8b 55 0c	 mov	 edx, DWORD PTR _aRecv$[ebp]
  00084	52		 push	 edx
  00085	e8 00 00 00 00	 call	 ?EGRecv2AnvRegSerial@@YAXPAUPMSG_ANS_2ANIV_SERIAL@@@Z ; EGRecv2AnvRegSerial

; 58   : 			break;
; 59   : 		case 0x17:
; 60   : 			EGAnsRegHTOfflineGift((PMSG_ANS_REG_HT_OFFLINE_GIFT *)aRecv);

  0008a	83 c4 04	 add	 esp, 4

; 61   : 			break;
; 62   : 	}
; 63   : }

  0008d	5d		 pop	 ebp
  0008e	c3		 ret	 0
$LN4@EventChipE:

; 49   : 			break;
; 50   : 		case 0x10:
; 51   : 			EGRecvRegRingGift((PMSG_ANS_REG_RINGGIFT *)aRecv);

  0008f	8b 45 0c	 mov	 eax, DWORD PTR _aRecv$[ebp]
  00092	50		 push	 eax
  00093	e8 00 00 00 00	 call	 ?EGRecvRegRingGift@@YAXPAUPMSG_ANS_REG_RINGGIFT@@@Z ; EGRecvRegRingGift

; 58   : 			break;
; 59   : 		case 0x17:
; 60   : 			EGAnsRegHTOfflineGift((PMSG_ANS_REG_HT_OFFLINE_GIFT *)aRecv);

  00098	83 c4 04	 add	 esp, 4

; 61   : 			break;
; 62   : 	}
; 63   : }

  0009b	5d		 pop	 ebp
  0009c	c3		 ret	 0
$LN3@EventChipE:

; 52   : 			break;
; 53   : 		case 0x15:
; 54   : 			EGAnsRegCCOfflineGift((PMSG_ANS_REG_CC_OFFLINE_GIFT *)aRecv);

  0009d	8b 4d 0c	 mov	 ecx, DWORD PTR _aRecv$[ebp]
  000a0	51		 push	 ecx
  000a1	e8 00 00 00 00	 call	 ?EGAnsRegCCOfflineGift@@YAXPAUPMSG_ANS_REG_CC_OFFLINE_GIFT@@@Z ; EGAnsRegCCOfflineGift

; 58   : 			break;
; 59   : 		case 0x17:
; 60   : 			EGAnsRegHTOfflineGift((PMSG_ANS_REG_HT_OFFLINE_GIFT *)aRecv);

  000a6	83 c4 04	 add	 esp, 4

; 61   : 			break;
; 62   : 	}
; 63   : }

  000a9	5d		 pop	 ebp
  000aa	c3		 ret	 0
$LN2@EventChipE:

; 55   : 			break;
; 56   : 		case 0x16:
; 57   : 			EGAnsRegDLOfflineGift((PMSG_ANS_REG_DL_OFFLINE_GIFT *)aRecv);

  000ab	8b 55 0c	 mov	 edx, DWORD PTR _aRecv$[ebp]
  000ae	52		 push	 edx
  000af	e8 00 00 00 00	 call	 ?EGAnsRegDLOfflineGift@@YAXPAUPMSG_ANS_REG_DL_OFFLINE_GIFT@@@Z ; EGAnsRegDLOfflineGift

; 58   : 			break;
; 59   : 		case 0x17:
; 60   : 			EGAnsRegHTOfflineGift((PMSG_ANS_REG_HT_OFFLINE_GIFT *)aRecv);

  000b4	83 c4 04	 add	 esp, 4

; 61   : 			break;
; 62   : 	}
; 63   : }

  000b7	5d		 pop	 ebp
  000b8	c3		 ret	 0
$LN1@EventChipE:

; 58   : 			break;
; 59   : 		case 0x17:
; 60   : 			EGAnsRegHTOfflineGift((PMSG_ANS_REG_HT_OFFLINE_GIFT *)aRecv);

  000b9	8b 45 0c	 mov	 eax, DWORD PTR _aRecv$[ebp]
  000bc	50		 push	 eax
  000bd	e8 00 00 00 00	 call	 ?EGAnsRegHTOfflineGift@@YAXPAUPMSG_ANS_REG_HT_OFFLINE_GIFT@@@Z ; EGAnsRegHTOfflineGift
  000c2	83 c4 04	 add	 esp, 4
$LN14@EventChipE:

; 61   : 			break;
; 62   : 	}
; 63   : }

  000c5	5d		 pop	 ebp
  000c6	c3		 ret	 0
  000c7	90		 npad	 1
$LN20@EventChipE:
  000c8	00 00 00 00	 DD	 $LN13@EventChipE
  000cc	00 00 00 00	 DD	 $LN12@EventChipE
  000d0	00 00 00 00	 DD	 $LN11@EventChipE
  000d4	00 00 00 00	 DD	 $LN10@EventChipE
  000d8	00 00 00 00	 DD	 $LN9@EventChipE
  000dc	00 00 00 00	 DD	 $LN8@EventChipE
  000e0	00 00 00 00	 DD	 $LN14@EventChipE
  000e4	00 00 00 00	 DD	 $LN5@EventChipE
  000e8	00 00 00 00	 DD	 $LN6@EventChipE
  000ec	00 00 00 00	 DD	 $LN4@EventChipE
  000f0	00 00 00 00	 DD	 $LN3@EventChipE
  000f4	00 00 00 00	 DD	 $LN2@EventChipE
  000f8	00 00 00 00	 DD	 $LN1@EventChipE
  000fc	00 00 00 00	 DD	 $LN14@EventChipE
$LN18@EventChipE:
  00100	00		 DB	 0
  00101	01		 DB	 1
  00102	02		 DB	 2
  00103	03		 DB	 3
  00104	04		 DB	 4
  00105	05		 DB	 5
  00106	06		 DB	 6
  00107	07		 DB	 7
  00108	08		 DB	 8
  00109	0d		 DB	 13			; 0000000dH
  0010a	0d		 DB	 13			; 0000000dH
  0010b	0d		 DB	 13			; 0000000dH
  0010c	0d		 DB	 13			; 0000000dH
  0010d	0d		 DB	 13			; 0000000dH
  0010e	0d		 DB	 13			; 0000000dH
  0010f	09		 DB	 9
  00110	0d		 DB	 13			; 0000000dH
  00111	0d		 DB	 13			; 0000000dH
  00112	0d		 DB	 13			; 0000000dH
  00113	0d		 DB	 13			; 0000000dH
  00114	0a		 DB	 10			; 0000000aH
  00115	0b		 DB	 11			; 0000000bH
  00116	0c		 DB	 12			; 0000000cH
?EventChipEventProtocolCore@@YAXEPAEH@Z ENDP		; EventChipEventProtocolCore
_TEXT	ENDS
PUBLIC	??_C@_0GJ@PPCAMDBJ@?$FL?$CFs?$FN?$FL?$CFs?$FN?$FLLucky?5Box?5Item?5Drop?$FN?$FLEl@ ; `string'
PUBLIC	__$ArrayPad$
PUBLIC	?EledoradoBoxOpenEven@@YAXPAUOBJECTSTRUCT@@HHH@Z ; EledoradoBoxOpenEven
EXTRN	?GetName@CItem@@QAEPADXZ:PROC			; CItem::GetName
EXTRN	?Convert@CItem@@QAEXHEEEEEEE@Z:PROC		; CItem::Convert
EXTRN	?GetLevel@CItemBag@@QAEEH@Z:PROC		; CItemBag::GetLevel
EXTRN	?GetType@CItemBag@@QAEEH@Z:PROC			; CItemBag::GetType
EXTRN	?GetIndex@CItemBag@@QAEEH@Z:PROC		; CItemBag::GetIndex
EXTRN	?gEledoradoDevilTantarosExItemDropRate@@3HA:DWORD ; gEledoradoDevilTantarosExItemDropRate
EXTRN	?gEledoradoDevilTantarosItemDropRate@@3HA:DWORD	; gEledoradoDevilTantarosItemDropRate
EXTRN	?KanturItemBag@@3PAVCItemBag@@A:DWORD		; KanturItemBag
EXTRN	?gEledoradoDevilLizardKingItemDropRate@@3HA:DWORD ; gEledoradoDevilLizardKingItemDropRate
EXTRN	?DevilLizardKingItemBag@@3PAVCItemBag@@A:DWORD	; DevilLizardKingItemBag
EXTRN	?gEledoradoDevilLizardKingExItemDropRate@@3HA:DWORD ; gEledoradoDevilLizardKingExItemDropRate
EXTRN	?gEledoradoGoldDerconExItemDropRate@@3HA:DWORD	; gEledoradoGoldDerconExItemDropRate
EXTRN	?gEledoradoGoldDerconItemDropRate@@3HA:DWORD	; gEledoradoGoldDerconItemDropRate
EXTRN	?GoldDerconItemBag@@3PAVCItemBag@@A:DWORD	; GoldDerconItemBag
EXTRN	?gEledoradoTitanItemDropRate@@3HA:DWORD		; gEledoradoTitanItemDropRate
EXTRN	?TitanItemBag@@3PAVCItemBag@@A:DWORD		; TitanItemBag
EXTRN	?gEledoradoTitanExItemDropRate@@3HA:DWORD	; gEledoradoTitanExItemDropRate
EXTRN	?gEledoradoGoldGoblenExItemDropRate@@3HA:DWORD	; gEledoradoGoldGoblenExItemDropRate
EXTRN	?gEledoradoGoldGoblenItemDropRate@@3HA:DWORD	; gEledoradoGoldGoblenItemDropRate
EXTRN	?GoldGoblenItemBag@@3PAVCItemBag@@A:DWORD	; GoldGoblenItemBag
EXTRN	__fltused:DWORD
;	COMDAT ??_C@_0GJ@PPCAMDBJ@?$FL?$CFs?$FN?$FL?$CFs?$FN?$FLLucky?5Box?5Item?5Drop?$FN?$FLEl@
; File c:\users\faelhs\mu-1.1\emu - gameserver sapphire s0\gameserver\itembag.h
CONST	SEGMENT
??_C@_0GJ@PPCAMDBJ@?$FL?$CFs?$FN?$FL?$CFs?$FN?$FLLucky?5Box?5Item?5Drop?$FN?$FLEl@ DB '['
	DB	'%s][%s][Lucky Box Item Drop][Eledorado Box] : (%d)(X:%d/Y:%d)'
	DB	' Item:%s(%d) Level:%d Op1:%d Op2:%d Op3:%d', 00H ; `string'
; Function compile flags: /Ogtp
; File c:\users\faelhs\mu-1.1\emu - gameserver sapphire s0\gameserver\event.cpp
CONST	ENDS
;	COMDAT ?EledoradoBoxOpenEven@@YAXPAUOBJECTSTRUCT@@HHH@Z
_TEXT	SEGMENT
_y$ = -196						; size = 4
_x$ = -192						; size = 4
_ExOption$ = -188					; size = 4
_Option3$ = -184					; size = 4
_level$ = -180						; size = 4
_NormalItemCount$155327 = -180				; size = 4
tv488 = -176						; size = 4
_type$ = -176						; size = 4
_ExItemDropRate$ = -176					; size = 4
_NewItem$155349 = -172					; size = 168
__$ArrayPad$ = -4					; size = 4
_lpObj$ = 8						; size = 4
_boxtype$ = 12						; size = 4
_addlevel$ = 16						; size = 4
_money$ = 20						; size = 4
?EledoradoBoxOpenEven@@YAXPAUOBJECTSTRUCT@@HHH@Z PROC	; EledoradoBoxOpenEven, COMDAT

; 92   : {

  00000	55		 push	 ebp
  00001	8b ec		 mov	 ebp, esp
  00003	81 ec c4 00 00
	00		 sub	 esp, 196		; 000000c4H
  00009	a1 00 00 00 00	 mov	 eax, DWORD PTR ___security_cookie
  0000e	33 c5		 xor	 eax, ebp
  00010	89 45 fc	 mov	 DWORD PTR __$ArrayPad$[ebp], eax

; 93   : 	float dur;
; 94   : 	int type;
; 95   : 	int level;
; 96   : 	int x;
; 97   : 	int y;
; 98   : 	int Option1 = 0;
; 99   : 	int Option2 = 0;
; 100  : 	int Option3 = 0;
; 101  : 	int DropItemNum;
; 102  : 	int ExOption = 0;
; 103  : 	int ItemDropRate = 0;
; 104  : 	int ExItemDropRate = 0;
; 105  : 	CItemBag * EledoradoBox = NULL;
; 106  : 
; 107  : 	switch ( boxtype )

  00013	8b 45 0c	 mov	 eax, DWORD PTR _boxtype$[ebp]
  00016	33 c9		 xor	 ecx, ecx
  00018	83 c0 f8	 add	 eax, -8			; fffffff8H
  0001b	56		 push	 esi
  0001c	8b 75 08	 mov	 esi, DWORD PTR _lpObj$[ebp]
  0001f	89 8d 48 ff ff
	ff		 mov	 DWORD PTR _Option3$[ebp], ecx
  00025	89 8d 44 ff ff
	ff		 mov	 DWORD PTR _ExOption$[ebp], ecx
  0002b	83 f8 04	 cmp	 eax, 4
  0002e	0f 87 66 04 00
	00		 ja	 $LN31@EledoradoB
  00034	53		 push	 ebx
  00035	57		 push	 edi
  00036	ff 24 85 00 00
	00 00		 jmp	 DWORD PTR $LN49@EledoradoB[eax*4]
$LN28@EledoradoB:

; 108  : 	{
; 109  : 		case 8:
; 110  : 			EledoradoBox = ::GoldGoblenItemBag;

  0003d	8b 3d 00 00 00
	00		 mov	 edi, DWORD PTR ?GoldGoblenItemBag@@3PAVCItemBag@@A ; GoldGoblenItemBag

; 111  : 			ItemDropRate = ::gEledoradoGoldGoblenItemDropRate;

  00043	8b 1d 00 00 00
	00		 mov	 ebx, DWORD PTR ?gEledoradoGoldGoblenItemDropRate@@3HA ; gEledoradoGoldGoblenItemDropRate

; 112  : 			ExItemDropRate = ::gEledoradoGoldGoblenExItemDropRate;

  00049	a1 00 00 00 00	 mov	 eax, DWORD PTR ?gEledoradoGoldGoblenExItemDropRate@@3HA ; gEledoradoGoldGoblenExItemDropRate

; 113  : 			break;

  0004e	eb 58		 jmp	 SHORT $LN48@EledoradoB
$LN27@EledoradoB:

; 114  : 
; 115  : 		case 9:
; 116  : 			EledoradoBox = ::TitanItemBag;
; 117  : 			ItemDropRate = ::gEledoradoTitanItemDropRate;
; 118  : 			ExItemDropRate = ::gEledoradoTitanExItemDropRate;

  00050	8b 15 00 00 00
	00		 mov	 edx, DWORD PTR ?gEledoradoTitanExItemDropRate@@3HA ; gEledoradoTitanExItemDropRate
  00056	8b 3d 00 00 00
	00		 mov	 edi, DWORD PTR ?TitanItemBag@@3PAVCItemBag@@A ; TitanItemBag
  0005c	8b 1d 00 00 00
	00		 mov	 ebx, DWORD PTR ?gEledoradoTitanItemDropRate@@3HA ; gEledoradoTitanItemDropRate
  00062	89 95 50 ff ff
	ff		 mov	 DWORD PTR _ExItemDropRate$[ebp], edx

; 119  : 			break;

  00068	eb 44		 jmp	 SHORT $LN29@EledoradoB
$LN26@EledoradoB:

; 120  : 
; 121  : 		case 10:
; 122  : 			EledoradoBox = ::GoldDerconItemBag;

  0006a	8b 3d 00 00 00
	00		 mov	 edi, DWORD PTR ?GoldDerconItemBag@@3PAVCItemBag@@A ; GoldDerconItemBag

; 123  : 			ItemDropRate = ::gEledoradoGoldDerconItemDropRate;

  00070	8b 1d 00 00 00
	00		 mov	 ebx, DWORD PTR ?gEledoradoGoldDerconItemDropRate@@3HA ; gEledoradoGoldDerconItemDropRate

; 124  : 			ExItemDropRate = ::gEledoradoGoldDerconExItemDropRate;

  00076	a1 00 00 00 00	 mov	 eax, DWORD PTR ?gEledoradoGoldDerconExItemDropRate@@3HA ; gEledoradoGoldDerconExItemDropRate

; 125  : 			break;

  0007b	eb 2b		 jmp	 SHORT $LN48@EledoradoB
$LN25@EledoradoB:

; 126  : 
; 127  : 		case 11:
; 128  : 			EledoradoBox = ::DevilLizardKingItemBag;
; 129  : 			ItemDropRate = ::gEledoradoDevilLizardKingItemDropRate;
; 130  : 			ExItemDropRate = ::gEledoradoDevilLizardKingExItemDropRate;

  0007d	8b 15 00 00 00
	00		 mov	 edx, DWORD PTR ?gEledoradoDevilLizardKingExItemDropRate@@3HA ; gEledoradoDevilLizardKingExItemDropRate
  00083	8b 3d 00 00 00
	00		 mov	 edi, DWORD PTR ?DevilLizardKingItemBag@@3PAVCItemBag@@A ; DevilLizardKingItemBag
  00089	8b 1d 00 00 00
	00		 mov	 ebx, DWORD PTR ?gEledoradoDevilLizardKingItemDropRate@@3HA ; gEledoradoDevilLizardKingItemDropRate
  0008f	89 95 50 ff ff
	ff		 mov	 DWORD PTR _ExItemDropRate$[ebp], edx

; 131  : 			break;

  00095	eb 17		 jmp	 SHORT $LN29@EledoradoB
$LN24@EledoradoB:

; 132  : 
; 133  : 		case 12:
; 134  : 			EledoradoBox = ::KanturItemBag;

  00097	8b 3d 00 00 00
	00		 mov	 edi, DWORD PTR ?KanturItemBag@@3PAVCItemBag@@A ; KanturItemBag

; 135  : 			ItemDropRate = ::gEledoradoDevilTantarosItemDropRate;

  0009d	8b 1d 00 00 00
	00		 mov	 ebx, DWORD PTR ?gEledoradoDevilTantarosItemDropRate@@3HA ; gEledoradoDevilTantarosItemDropRate

; 136  : 			ExItemDropRate = ::gEledoradoDevilTantarosExItemDropRate;

  000a3	a1 00 00 00 00	 mov	 eax, DWORD PTR ?gEledoradoDevilTantarosExItemDropRate@@3HA ; gEledoradoDevilTantarosExItemDropRate
$LN48@EledoradoB:
  000a8	89 85 50 ff ff
	ff		 mov	 DWORD PTR _ExItemDropRate$[ebp], eax
$LN29@EledoradoB:

; 137  : 			break;
; 138  : 	}
; 139  : 
; 140  : 	if ( EledoradoBox == NULL )

  000ae	3b f9		 cmp	 edi, ecx
  000b0	0f 84 e2 03 00
	00		 je	 $LN43@EledoradoB

; 141  : 	{
; 142  : 		return;
; 143  : 	}
; 144  : 
; 145  : 	if ( EledoradoBox->GetBagCount() > 0 )

  000b6	39 8f 88 03 00
	00		 cmp	 DWORD PTR [edi+904], ecx
  000bc	0f 8e aa 03 00
	00		 jle	 $LN21@EledoradoB

; 146  : 	{
; 147  : 		if ( (rand() % 100) < ItemDropRate )

  000c2	e8 00 00 00 00	 call	 _rand
  000c7	99		 cdq
  000c8	b9 64 00 00 00	 mov	 ecx, 100		; 00000064H
  000cd	f7 f9		 idiv	 ecx
  000cf	3b d3		 cmp	 edx, ebx
  000d1	0f 8d 95 03 00
	00		 jge	 $LN21@EledoradoB

; 148  : 		{
; 149  : 			int NormalItemCount = EledoradoBox->GetNormalItemCount();

  000d7	8b 97 8c 03 00
	00		 mov	 edx, DWORD PTR [edi+908]

; 150  : 			int ExItemCount = EledoradoBox->GetExItemCount();

  000dd	8b 9f 90 03 00
	00		 mov	 ebx, DWORD PTR [edi+912]
  000e3	89 95 4c ff ff
	ff		 mov	 DWORD PTR _NormalItemCount$155327[ebp], edx

; 151  : 
; 152  : 			if ( (rand() % 100 ) < ExItemDropRate )

  000e9	e8 00 00 00 00	 call	 _rand
  000ee	99		 cdq
  000ef	b9 64 00 00 00	 mov	 ecx, 100		; 00000064H
  000f4	f7 f9		 idiv	 ecx
  000f6	3b 95 50 ff ff
	ff		 cmp	 edx, DWORD PTR _ExItemDropRate$[ebp]
  000fc	0f 8d 3c 01 00
	00		 jge	 $LN20@EledoradoB

; 153  : 			{
; 154  : 				DropItemNum = rand() % ExItemCount + NormalItemCount;

  00102	e8 00 00 00 00	 call	 _rand
  00107	99		 cdq
  00108	f7 fb		 idiv	 ebx

; 155  : 				dur = 0;
; 156  : 				x = lpObj->X;
; 157  : 				y = lpObj->Y;

  0010a	0f bf 86 06 01
	00 00		 movsx	 eax, WORD PTR [esi+262]

; 158  : 				level = 0;
; 159  : 				type = ItemGetNumberMake(EledoradoBox->GetType(DropItemNum), EledoradoBox->GetIndex(DropItemNum));

  00111	8b cf		 mov	 ecx, edi
  00113	89 85 3c ff ff
	ff		 mov	 DWORD PTR _y$[ebp], eax
  00119	8b da		 mov	 ebx, edx
  0011b	03 9d 4c ff ff
	ff		 add	 ebx, DWORD PTR _NormalItemCount$155327[ebp]
  00121	0f bf 96 04 01
	00 00		 movsx	 edx, WORD PTR [esi+260]
  00128	53		 push	 ebx
  00129	89 95 40 ff ff
	ff		 mov	 DWORD PTR _x$[ebp], edx
  0012f	c7 85 4c ff ff
	ff 00 00 00 00	 mov	 DWORD PTR _level$[ebp], 0
  00139	e8 00 00 00 00	 call	 ?GetIndex@CItemBag@@QAEEH@Z ; CItemBag::GetIndex
  0013e	0f b6 c8	 movzx	 ecx, al
  00141	51		 push	 ecx
  00142	53		 push	 ebx
  00143	8b cf		 mov	 ecx, edi
  00145	e8 00 00 00 00	 call	 ?GetType@CItemBag@@QAEEH@Z ; CItemBag::GetType
  0014a	0f b6 d0	 movzx	 edx, al
  0014d	52		 push	 edx
  0014e	e8 00 00 00 00	 call	 ?ItemGetNumberMake@@YAHHH@Z ; ItemGetNumberMake
  00153	83 c4 08	 add	 esp, 8
  00156	89 85 50 ff ff
	ff		 mov	 DWORD PTR _type$[ebp], eax

; 160  : 				Option1 = 1;

  0015c	bb 01 00 00 00	 mov	 ebx, 1

; 161  : 				Option2 = rand() % 2;

  00161	e8 00 00 00 00	 call	 _rand
  00166	8b f8		 mov	 edi, eax
  00168	81 e7 01 00 00
	80		 and	 edi, -2147483647	; 80000001H
  0016e	79 05		 jns	 SHORT $LN45@EledoradoB
  00170	4f		 dec	 edi
  00171	83 cf fe	 or	 edi, -2			; fffffffeH
  00174	47		 inc	 edi
$LN45@EledoradoB:

; 162  : 
; 163  : 				if ( Option2 == 0 || Option1  == 0 )

  00175	75 31		 jne	 SHORT $LN16@EledoradoB

; 164  : 				{
; 165  : 					if ( (rand() % 5 ) < 1 )

  00177	e8 00 00 00 00	 call	 _rand
  0017c	99		 cdq
  0017d	b9 05 00 00 00	 mov	 ecx, 5
  00182	f7 f9		 idiv	 ecx
  00184	83 fa 01	 cmp	 edx, 1
  00187	7d 0c		 jge	 SHORT $LN17@EledoradoB

; 166  : 					{
; 167  : 						Option3 = 3;

  00189	c7 85 48 ff ff
	ff 03 00 00 00	 mov	 DWORD PTR _Option3$[ebp], 3

; 168  : 					}
; 169  : 					else

  00193	eb 13		 jmp	 SHORT $LN16@EledoradoB
$LN17@EledoradoB:

; 170  : 					{
; 171  : 						Option3 = rand() % 3;

  00195	e8 00 00 00 00	 call	 _rand
  0019a	99		 cdq
  0019b	b9 03 00 00 00	 mov	 ecx, 3
  001a0	f7 f9		 idiv	 ecx
  001a2	89 95 48 ff ff
	ff		 mov	 DWORD PTR _Option3$[ebp], edx
$LN16@EledoradoB:

; 172  : 					}
; 173  : 				}
; 174  : 
; 175  : 				ExOption = NewOptionRand(0);

  001a8	6a 00		 push	 0
  001aa	e8 00 00 00 00	 call	 ?NewOptionRand@@YAEH@Z	; NewOptionRand

; 176  : 
; 177  : 				if ( type == ITEMGET(12,15) ||
; 178  : 					 type == ITEMGET(14,13) ||
; 179  : 					 type == ITEMGET(14,14) )

  001af	8b 8d 50 ff ff
	ff		 mov	 ecx, DWORD PTR _type$[ebp]
  001b5	0f b6 d0	 movzx	 edx, al
  001b8	83 c4 04	 add	 esp, 4
  001bb	89 95 44 ff ff
	ff		 mov	 DWORD PTR _ExOption$[ebp], edx
  001c1	81 f9 0f 18 00
	00		 cmp	 ecx, 6159		; 0000180fH
  001c7	74 10		 je	 SHORT $LN14@EledoradoB
  001c9	81 f9 0d 1c 00
	00		 cmp	 ecx, 7181		; 00001c0dH
  001cf	74 08		 je	 SHORT $LN14@EledoradoB
  001d1	81 f9 0e 1c 00
	00		 cmp	 ecx, 7182		; 00001c0eH
  001d7	75 1a		 jne	 SHORT $LN39@EledoradoB
$LN14@EledoradoB:

; 180  : 				{
; 181  : 					Option1 = 0;

  001d9	33 c0		 xor	 eax, eax
  001db	33 db		 xor	 ebx, ebx

; 182  : 					Option2 = 0;

  001dd	33 ff		 xor	 edi, edi

; 183  : 					Option3 = 0;

  001df	89 85 48 ff ff
	ff		 mov	 DWORD PTR _Option3$[ebp], eax

; 184  : 					level = 0;

  001e5	89 85 4c ff ff
	ff		 mov	 DWORD PTR _level$[ebp], eax

; 185  : 					ExOption = 0;

  001eb	89 85 44 ff ff
	ff		 mov	 DWORD PTR _ExOption$[ebp], eax
  001f1	eb 02		 jmp	 SHORT $LN15@EledoradoB
$LN39@EledoradoB:
  001f3	33 c0		 xor	 eax, eax
$LN15@EledoradoB:

; 186  : 				}
; 187  : 
; 188  : 				if ( type == ITEMGET(13,0) ||
; 189  : 					 type == ITEMGET(13,1) ||
; 190  : 					 type == ITEMGET(13,2) ||
; 191  : 					 type == ITEMGET(13,8) ||
; 192  : 					 type == ITEMGET(13,9) ||
; 193  : 					 type == ITEMGET(13,12) ||
; 194  : 					 type == ITEMGET(13,13) )

  001f5	81 f9 00 1a 00
	00		 cmp	 ecx, 6656		; 00001a00H
  001fb	74 36		 je	 SHORT $LN12@EledoradoB
  001fd	81 f9 01 1a 00
	00		 cmp	 ecx, 6657		; 00001a01H
  00203	74 2e		 je	 SHORT $LN12@EledoradoB
  00205	81 f9 02 1a 00
	00		 cmp	 ecx, 6658		; 00001a02H
  0020b	74 26		 je	 SHORT $LN12@EledoradoB
  0020d	81 f9 08 1a 00
	00		 cmp	 ecx, 6664		; 00001a08H
  00213	74 1e		 je	 SHORT $LN12@EledoradoB
  00215	81 f9 09 1a 00
	00		 cmp	 ecx, 6665		; 00001a09H
  0021b	74 16		 je	 SHORT $LN12@EledoradoB
  0021d	81 f9 0c 1a 00
	00		 cmp	 ecx, 6668		; 00001a0cH
  00223	74 0e		 je	 SHORT $LN12@EledoradoB
  00225	81 f9 0d 1a 00
	00		 cmp	 ecx, 6669		; 00001a0dH
  0022b	0f 85 6c 01 00
	00		 jne	 $LN41@EledoradoB
  00231	33 c0		 xor	 eax, eax
$LN12@EledoradoB:

; 195  : 				{
; 196  : 					level = 0;

  00233	89 85 4c ff ff
	ff		 mov	 DWORD PTR _level$[ebp], eax

; 197  : 				}
; 198  : 			}
; 199  : 			else

  00239	e9 5f 01 00 00	 jmp	 $LN41@EledoradoB
$LN20@EledoradoB:

; 200  : 			{
; 201  : 				DropItemNum = rand() % NormalItemCount;

  0023e	e8 00 00 00 00	 call	 _rand
  00243	99		 cdq
  00244	f7 bd 4c ff ff
	ff		 idiv	 DWORD PTR _NormalItemCount$155327[ebp]

; 202  : 				dur = 0;
; 203  : 				x = lpObj->X;
; 204  : 				y = lpObj->Y;

  0024a	0f bf 8e 06 01
	00 00		 movsx	 ecx, WORD PTR [esi+262]
  00251	0f bf 86 04 01
	00 00		 movsx	 eax, WORD PTR [esi+260]
  00258	89 8d 3c ff ff
	ff		 mov	 DWORD PTR _y$[ebp], ecx

; 205  : 
; 206  : 				if ( addlevel != 0 )
; 207  : 				{
; 208  : 					level = EledoradoBox->GetLevel(DropItemNum) + rand()% addlevel;

  0025e	8b cf		 mov	 ecx, edi
  00260	89 85 40 ff ff
	ff		 mov	 DWORD PTR _x$[ebp], eax
  00266	8b da		 mov	 ebx, edx
  00268	53		 push	 ebx
  00269	e8 00 00 00 00	 call	 ?GetLevel@CItemBag@@QAEEH@Z ; CItemBag::GetLevel
  0026e	83 7d 10 00	 cmp	 DWORD PTR _addlevel$[ebp], 0
  00272	74 20		 je	 SHORT $LN10@EledoradoB
  00274	0f b6 d0	 movzx	 edx, al
  00277	89 95 50 ff ff
	ff		 mov	 DWORD PTR tv488[ebp], edx
  0027d	e8 00 00 00 00	 call	 _rand
  00282	99		 cdq
  00283	f7 7d 10	 idiv	 DWORD PTR _addlevel$[ebp]
  00286	03 95 50 ff ff
	ff		 add	 edx, DWORD PTR tv488[ebp]
  0028c	89 95 4c ff ff
	ff		 mov	 DWORD PTR _level$[ebp], edx

; 209  : 				}
; 210  : 				else

  00292	eb 09		 jmp	 SHORT $LN9@EledoradoB
$LN10@EledoradoB:

; 211  : 				{
; 212  : 					level = EledoradoBox->GetLevel(DropItemNum);

  00294	0f b6 c0	 movzx	 eax, al
  00297	89 85 4c ff ff
	ff		 mov	 DWORD PTR _level$[ebp], eax
$LN9@EledoradoB:

; 213  : 				}
; 214  : 
; 215  : 				type = ItemGetNumberMake(EledoradoBox->GetType(DropItemNum), EledoradoBox->GetIndex(DropItemNum));

  0029d	53		 push	 ebx
  0029e	8b cf		 mov	 ecx, edi
  002a0	e8 00 00 00 00	 call	 ?GetIndex@CItemBag@@QAEEH@Z ; CItemBag::GetIndex
  002a5	0f b6 c8	 movzx	 ecx, al
  002a8	51		 push	 ecx
  002a9	53		 push	 ebx
  002aa	8b cf		 mov	 ecx, edi
  002ac	e8 00 00 00 00	 call	 ?GetType@CItemBag@@QAEEH@Z ; CItemBag::GetType
  002b1	0f b6 d0	 movzx	 edx, al
  002b4	52		 push	 edx
  002b5	e8 00 00 00 00	 call	 ?ItemGetNumberMake@@YAHHH@Z ; ItemGetNumberMake
  002ba	83 c4 08	 add	 esp, 8
  002bd	89 85 50 ff ff
	ff		 mov	 DWORD PTR _type$[ebp], eax

; 216  : 
; 217  : 				Option1 = rand() % 2;

  002c3	e8 00 00 00 00	 call	 _rand
  002c8	8b d8		 mov	 ebx, eax
  002ca	81 e3 01 00 00
	80		 and	 ebx, -2147483647	; 80000001H
  002d0	79 05		 jns	 SHORT $LN46@EledoradoB
  002d2	4b		 dec	 ebx
  002d3	83 cb fe	 or	 ebx, -2			; fffffffeH
  002d6	43		 inc	 ebx
$LN46@EledoradoB:

; 218  : 				Option2 = rand() % 2;

  002d7	e8 00 00 00 00	 call	 _rand
  002dc	8b f8		 mov	 edi, eax
  002de	81 e7 01 00 00
	80		 and	 edi, -2147483647	; 80000001H
  002e4	79 05		 jns	 SHORT $LN47@EledoradoB
  002e6	4f		 dec	 edi
  002e7	83 cf fe	 or	 edi, -2			; fffffffeH
  002ea	47		 inc	 edi
$LN47@EledoradoB:

; 219  : 
; 220  : 				if ( Option2 == 0 || Option1  == 0 )

  002eb	74 04		 je	 SHORT $LN7@EledoradoB
  002ed	85 db		 test	 ebx, ebx
  002ef	75 31		 jne	 SHORT $LN5@EledoradoB
$LN7@EledoradoB:

; 221  : 				{
; 222  : 					if ( (rand() % 5 ) < 1 )

  002f1	e8 00 00 00 00	 call	 _rand
  002f6	99		 cdq
  002f7	b9 05 00 00 00	 mov	 ecx, 5
  002fc	f7 f9		 idiv	 ecx
  002fe	83 fa 01	 cmp	 edx, 1
  00301	7d 0c		 jge	 SHORT $LN6@EledoradoB

; 223  : 					{
; 224  : 						Option3 = 3;

  00303	c7 85 48 ff ff
	ff 03 00 00 00	 mov	 DWORD PTR _Option3$[ebp], 3

; 225  : 					}
; 226  : 					else

  0030d	eb 13		 jmp	 SHORT $LN5@EledoradoB
$LN6@EledoradoB:

; 227  : 					{
; 228  : 						Option3 = rand() % 3;

  0030f	e8 00 00 00 00	 call	 _rand
  00314	99		 cdq
  00315	b9 03 00 00 00	 mov	 ecx, 3
  0031a	f7 f9		 idiv	 ecx
  0031c	89 95 48 ff ff
	ff		 mov	 DWORD PTR _Option3$[ebp], edx
$LN5@EledoradoB:

; 229  : 					}
; 230  : 				}
; 231  : 
; 232  : 				if ( type == ITEMGET(12,15) ||
; 233  : 					 type == ITEMGET(14,13) ||
; 234  : 					 type == ITEMGET(14,14) ||
; 235  : 					 type == ITEMGET(14,16))

  00322	8b 85 50 ff ff
	ff		 mov	 eax, DWORD PTR _type$[ebp]
  00328	3d 0f 18 00 00	 cmp	 eax, 6159		; 0000180fH
  0032d	74 15		 je	 SHORT $LN3@EledoradoB
  0032f	3d 0d 1c 00 00	 cmp	 eax, 7181		; 00001c0dH
  00334	74 0e		 je	 SHORT $LN3@EledoradoB
  00336	3d 0e 1c 00 00	 cmp	 eax, 7182		; 00001c0eH
  0033b	74 07		 je	 SHORT $LN3@EledoradoB
  0033d	3d 10 1c 00 00	 cmp	 eax, 7184		; 00001c10H
  00342	75 1a		 jne	 SHORT $LN42@EledoradoB
$LN3@EledoradoB:

; 236  : 				{
; 237  : 					Option1 = 0;

  00344	33 c9		 xor	 ecx, ecx
  00346	33 db		 xor	 ebx, ebx

; 238  : 					Option2 = 0;

  00348	33 ff		 xor	 edi, edi

; 239  : 					Option3 = 0;

  0034a	89 8d 48 ff ff
	ff		 mov	 DWORD PTR _Option3$[ebp], ecx

; 240  : 					level = 0;

  00350	89 8d 4c ff ff
	ff		 mov	 DWORD PTR _level$[ebp], ecx

; 241  : 					ExOption = 0;

  00356	89 8d 44 ff ff
	ff		 mov	 DWORD PTR _ExOption$[ebp], ecx
  0035c	eb 02		 jmp	 SHORT $LN4@EledoradoB
$LN42@EledoradoB:
  0035e	33 c9		 xor	 ecx, ecx
$LN4@EledoradoB:

; 242  : 				}
; 243  : 
; 244  : 				if ( type == ITEMGET(13,0) ||
; 245  : 					 type == ITEMGET(13,1) ||
; 246  : 					 type == ITEMGET(13,2) ||
; 247  : 					 type == ITEMGET(13,8) ||
; 248  : 					 type == ITEMGET(13,9) ||
; 249  : 					 type == ITEMGET(13,12) ||
; 250  : 					 type == ITEMGET(13,13) )

  00360	3d 00 1a 00 00	 cmp	 eax, 6656		; 00001a00H
  00365	74 2a		 je	 SHORT $LN1@EledoradoB
  00367	3d 01 1a 00 00	 cmp	 eax, 6657		; 00001a01H
  0036c	74 23		 je	 SHORT $LN1@EledoradoB
  0036e	3d 02 1a 00 00	 cmp	 eax, 6658		; 00001a02H
  00373	74 1c		 je	 SHORT $LN1@EledoradoB
  00375	3d 08 1a 00 00	 cmp	 eax, 6664		; 00001a08H
  0037a	74 15		 je	 SHORT $LN1@EledoradoB
  0037c	3d 09 1a 00 00	 cmp	 eax, 6665		; 00001a09H
  00381	74 0e		 je	 SHORT $LN1@EledoradoB
  00383	3d 0c 1a 00 00	 cmp	 eax, 6668		; 00001a0cH
  00388	74 07		 je	 SHORT $LN1@EledoradoB
  0038a	3d 0d 1a 00 00	 cmp	 eax, 6669		; 00001a0dH
  0038f	75 06		 jne	 SHORT $LN40@EledoradoB
$LN1@EledoradoB:

; 251  : 				{
; 252  : 					level = 0;

  00391	89 8d 4c ff ff
	ff		 mov	 DWORD PTR _level$[ebp], ecx
$LN40@EledoradoB:
  00397	8b 8d 50 ff ff
	ff		 mov	 ecx, DWORD PTR _type$[ebp]
$LN41@EledoradoB:

; 253  : 				}
; 254  : 			}
; 255  : 
; 256  : 			ItemSerialCreateSend(lpObj->m_Index, lpObj->MapNumber, x, y, type, level, dur, Option1, Option2, Option3, lpObj->m_Index,
; 257  : 				ExOption, 0);

  0039d	8b 95 44 ff ff
	ff		 mov	 edx, DWORD PTR _ExOption$[ebp]
  003a3	8b 06		 mov	 eax, DWORD PTR [esi]
  003a5	6a 00		 push	 0
  003a7	52		 push	 edx
  003a8	8b 95 48 ff ff
	ff		 mov	 edx, DWORD PTR _Option3$[ebp]
  003ae	50		 push	 eax
  003af	52		 push	 edx
  003b0	8b 95 4c ff ff
	ff		 mov	 edx, DWORD PTR _level$[ebp]
  003b6	57		 push	 edi
  003b7	53		 push	 ebx
  003b8	6a 00		 push	 0
  003ba	52		 push	 edx
  003bb	8b 95 40 ff ff
	ff		 mov	 edx, DWORD PTR _x$[ebp]
  003c1	51		 push	 ecx
  003c2	8b 8d 3c ff ff
	ff		 mov	 ecx, DWORD PTR _y$[ebp]
  003c8	51		 push	 ecx
  003c9	0f b6 8e 09 01
	00 00		 movzx	 ecx, BYTE PTR [esi+265]
  003d0	52		 push	 edx
  003d1	51		 push	 ecx
  003d2	50		 push	 eax
  003d3	e8 00 00 00 00	 call	 ?ItemSerialCreateSend@@YAXHEEEHEEEEEHEE@Z ; ItemSerialCreateSend
  003d8	83 c4 34	 add	 esp, 52			; 00000034H

; 258  : 
; 259  : 			CItem NewItem;

  003db	8d 8d 54 ff ff
	ff		 lea	 ecx, DWORD PTR _NewItem$155349[ebp]
  003e1	e8 00 00 00 00	 call	 ??0CItem@@QAE@XZ	; CItem::CItem

; 260  : 			NewItem.Convert(type, Option1, Option2, Option3, 0, 1, 0, CURRENT_DB_VERSION);

  003e6	8b 95 48 ff ff
	ff		 mov	 edx, DWORD PTR _Option3$[ebp]
  003ec	8b 85 50 ff ff
	ff		 mov	 eax, DWORD PTR _type$[ebp]
  003f2	6a 03		 push	 3
  003f4	6a 00		 push	 0
  003f6	6a 01		 push	 1
  003f8	6a 00		 push	 0
  003fa	52		 push	 edx
  003fb	57		 push	 edi
  003fc	53		 push	 ebx
  003fd	50		 push	 eax
  003fe	8d 8d 54 ff ff
	ff		 lea	 ecx, DWORD PTR _NewItem$155349[ebp]
  00404	e8 00 00 00 00	 call	 ?Convert@CItem@@QAEXHEEEEEEE@Z ; CItem::Convert

; 261  : 
; 262  : 			LogAdd(LOG_BLACK, "[%s][%s][Lucky Box Item Drop][Eledorado Box] : (%d)(X:%d/Y:%d) Item:%s(%d) Level:%d Op1:%d Op2:%d Op3:%d",
; 263  : 				lpObj->AccountID, lpObj->Name, lpObj->MapNumber, lpObj->X, lpObj->Y, NewItem.GetName(),
; 264  : 				type, level, Option1, Option2, Option3);

  00409	8b 8d 48 ff ff
	ff		 mov	 ecx, DWORD PTR _Option3$[ebp]
  0040f	8b 95 4c ff ff
	ff		 mov	 edx, DWORD PTR _level$[ebp]
  00415	8b 85 50 ff ff
	ff		 mov	 eax, DWORD PTR _type$[ebp]
  0041b	51		 push	 ecx
  0041c	57		 push	 edi
  0041d	53		 push	 ebx
  0041e	52		 push	 edx
  0041f	50		 push	 eax
  00420	8d 8d 54 ff ff
	ff		 lea	 ecx, DWORD PTR _NewItem$155349[ebp]
  00426	e8 00 00 00 00	 call	 ?GetName@CItem@@QAEPADXZ ; CItem::GetName
  0042b	0f bf 8e 06 01
	00 00		 movsx	 ecx, WORD PTR [esi+262]
  00432	0f bf 96 04 01
	00 00		 movsx	 edx, WORD PTR [esi+260]
  00439	50		 push	 eax
  0043a	0f b6 86 09 01
	00 00		 movzx	 eax, BYTE PTR [esi+265]
  00441	51		 push	 ecx
  00442	52		 push	 edx
  00443	50		 push	 eax
  00444	8d 4e 6f	 lea	 ecx, DWORD PTR [esi+111]
  00447	51		 push	 ecx
  00448	83 c6 64	 add	 esi, 100		; 00000064H
  0044b	56		 push	 esi
  0044c	68 00 00 00 00	 push	 OFFSET ??_C@_0GJ@PPCAMDBJ@?$FL?$CFs?$FN?$FL?$CFs?$FN?$FLLucky?5Box?5Item?5Drop?$FN?$FLEl@
  00451	6a 00		 push	 0
  00453	e8 00 00 00 00	 call	 ?LogAdd@@YAXW4eLogColor@@PADZZ ; LogAdd
  00458	83 c4 34	 add	 esp, 52			; 00000034H
  0045b	5f		 pop	 edi
  0045c	5b		 pop	 ebx
  0045d	5e		 pop	 esi

; 273  : }

  0045e	8b 4d fc	 mov	 ecx, DWORD PTR __$ArrayPad$[ebp]
  00461	33 cd		 xor	 ecx, ebp
  00463	e8 00 00 00 00	 call	 @__security_check_cookie@4
  00468	8b e5		 mov	 esp, ebp
  0046a	5d		 pop	 ebp
  0046b	c3		 ret	 0
$LN21@EledoradoB:

; 265  : 
; 266  : 			return;
; 267  : 		}
; 268  : 	}
; 269  : 
; 270  : 	x = lpObj->X;
; 271  : 	y = lpObj->Y;
; 272  : 	MapC[lpObj->MapNumber].MoneyItemDrop(money, x, y);

  0046c	0f bf 96 06 01
	00 00		 movsx	 edx, WORD PTR [esi+262]
  00473	0f bf 86 04 01
	00 00		 movsx	 eax, WORD PTR [esi+260]
  0047a	8b 4d 14	 mov	 ecx, DWORD PTR _money$[ebp]
  0047d	52		 push	 edx
  0047e	50		 push	 eax
  0047f	51		 push	 ecx
  00480	0f b6 8e 09 01
	00 00		 movzx	 ecx, BYTE PTR [esi+265]
  00487	69 c9 08 07 05
	00		 imul	 ecx, 329480		; 00050708H
  0048d	81 c1 00 00 00
	00		 add	 ecx, OFFSET ?MapC@@3PAVMapClass@@A ; MapC
  00493	e8 00 00 00 00	 call	 ?MoneyItemDrop@MapClass@@QAEHHHH@Z ; MapClass::MoneyItemDrop
$LN43@EledoradoB:
  00498	5f		 pop	 edi
  00499	5b		 pop	 ebx
$LN31@EledoradoB:

; 273  : }

  0049a	8b 4d fc	 mov	 ecx, DWORD PTR __$ArrayPad$[ebp]
  0049d	33 cd		 xor	 ecx, ebp
  0049f	5e		 pop	 esi
  004a0	e8 00 00 00 00	 call	 @__security_check_cookie@4
  004a5	8b e5		 mov	 esp, ebp
  004a7	5d		 pop	 ebp
  004a8	c3		 ret	 0
  004a9	8d 49 00	 npad	 3
$LN49@EledoradoB:
  004ac	00 00 00 00	 DD	 $LN28@EledoradoB
  004b0	00 00 00 00	 DD	 $LN27@EledoradoB
  004b4	00 00 00 00	 DD	 $LN26@EledoradoB
  004b8	00 00 00 00	 DD	 $LN25@EledoradoB
  004bc	00 00 00 00	 DD	 $LN24@EledoradoB
?EledoradoBoxOpenEven@@YAXPAUOBJECTSTRUCT@@HHH@Z ENDP	; EledoradoBoxOpenEven
_TEXT	ENDS
PUBLIC	??_C@_0GG@LLIIPLAL@?$FL?$CFs?$FN?$FL?$CFs?$FN?$FLLucky?5Box?5Item?5Drop?$FN?$FLEv@ ; `string'
PUBLIC	??_C@_0BO@CCIJBOCK@EventChip?5Event?5ItemDrop?5Rena?$AA@ ; `string'
PUBLIC	__$ArrayPad$
PUBLIC	?EventChipOpenEven@@YAXPAUOBJECTSTRUCT@@@Z	; EventChipOpenEven
EXTRN	?g_ItemDropRateForBoxOfGold@@3HA:DWORD		; g_ItemDropRateForBoxOfGold
EXTRN	?LuckboxItemBag@@3PAVCItemBag@@A:DWORD		; LuckboxItemBag
EXTRN	?g_EventChipDropRateForBoxOfGold@@3HA:DWORD	; g_EventChipDropRateForBoxOfGold
;	COMDAT ??_C@_0GG@LLIIPLAL@?$FL?$CFs?$FN?$FL?$CFs?$FN?$FLLucky?5Box?5Item?5Drop?$FN?$FLEv@
; File c:\users\faelhs\mu-1.1\emu - gameserver sapphire s0\gameserver\itembag.h
CONST	SEGMENT
??_C@_0GG@LLIIPLAL@?$FL?$CFs?$FN?$FL?$CFs?$FN?$FLLucky?5Box?5Item?5Drop?$FN?$FLEv@ DB '['
	DB	'%s][%s][Lucky Box Item Drop][Event Chip] : (%d)(X:%d/Y:%d) It'
	DB	'em:%s(%d) Level:%d Op1:%d Op2:%d Op3:%d', 00H ; `string'
CONST	ENDS
;	COMDAT ??_C@_0BO@CCIJBOCK@EventChip?5Event?5ItemDrop?5Rena?$AA@
CONST	SEGMENT
??_C@_0BO@CCIJBOCK@EventChip?5Event?5ItemDrop?5Rena?$AA@ DB 'EventChip Ev'
	DB	'ent ItemDrop Rena', 00H			; `string'
; Function compile flags: /Ogtp
; File c:\users\faelhs\mu-1.1\emu - gameserver sapphire s0\gameserver\event.cpp
CONST	ENDS
;	COMDAT ?EventChipOpenEven@@YAXPAUOBJECTSTRUCT@@@Z
_TEXT	SEGMENT
_y$ = -200						; size = 4
_x$ = -196						; size = 4
_pMsg$155377 = -192					; size = 7
_Option2$ = -184					; size = 4
tv65 = -180						; size = 4
_type$ = -180						; size = 4
_Option3$ = -176					; size = 4
_NewItem$155381 = -172					; size = 168
__$ArrayPad$ = -4					; size = 4
_lpObj$ = 8						; size = 4
?EventChipOpenEven@@YAXPAUOBJECTSTRUCT@@@Z PROC		; EventChipOpenEven, COMDAT

; 276  : {

  00000	55		 push	 ebp
  00001	8b ec		 mov	 ebp, esp
  00003	81 ec c8 00 00
	00		 sub	 esp, 200		; 000000c8H
  00009	a1 00 00 00 00	 mov	 eax, DWORD PTR ___security_cookie
  0000e	33 c5		 xor	 eax, ebp
  00010	89 45 fc	 mov	 DWORD PTR __$ArrayPad$[ebp], eax
  00013	53		 push	 ebx
  00014	56		 push	 esi
  00015	8b 75 08	 mov	 esi, DWORD PTR _lpObj$[ebp]
  00018	57		 push	 edi

; 277  : 	float dur;
; 278  : 	int type;
; 279  : 	int level;
; 280  : 	int x;
; 281  : 	int y;
; 282  : 	int Option1 = 0;
; 283  : 	int Option2 = 0;
; 284  : 	int Option3 = 0;

  00019	c7 85 50 ff ff
	ff 00 00 00 00	 mov	 DWORD PTR _Option3$[ebp], 0

; 285  : 	int DropItemNum;
; 286  : 	int ExOption = 0;
; 287  : 
; 288  : 	if ( (rand()%100) < ::g_EventChipDropRateForBoxOfGold )

  00023	e8 00 00 00 00	 call	 _rand
  00028	99		 cdq
  00029	b9 64 00 00 00	 mov	 ecx, 100		; 00000064H
  0002e	f7 f9		 idiv	 ecx
  00030	3b 15 00 00 00
	00		 cmp	 edx, DWORD PTR ?g_EventChipDropRateForBoxOfGold@@3HA ; g_EventChipDropRateForBoxOfGold
  00036	7d 5c		 jge	 SHORT $LN12@EventChipO

; 289  : 	{
; 290  : 		dur = 255.0f;
; 291  : 		x = lpObj->X;

  00038	0f bf be 04 01
	00 00		 movsx	 edi, WORD PTR [esi+260]

; 292  : 		y = lpObj->Y;

  0003f	0f bf 9e 06 01
	00 00		 movsx	 ebx, WORD PTR [esi+262]

; 293  : 		level = 0;
; 294  : 		type = ItemGetNumberMake(14, 21);

  00046	6a 15		 push	 21			; 00000015H
  00048	6a 0e		 push	 14			; 0000000eH
  0004a	e8 00 00 00 00	 call	 ?ItemGetNumberMake@@YAHHH@Z ; ItemGetNumberMake

; 295  : 		::ItemSerialCreateSend(lpObj->m_Index, lpObj->MapNumber, x, y, type, level, dur, Option1, Option2, Option3, lpObj->m_Index, 0, 0);

  0004f	8b 0e		 mov	 ecx, DWORD PTR [esi]
