; Listing generated by Microsoft (R) Optimizing Compiler Version 16.00.30319.01 

	TITLE	C:\Users\faelhs\mu-1.1\eMu - GameServer Sapphire S0\GameServer\EventManagement.cpp
	.686P
	.XMM
	include listing.inc
	.model	flat

INCLUDELIB LIBCMT
INCLUDELIB OLDNAMES

PUBLIC	?SetMenualStart@CEledoradoEvent@@QAEXH@Z	; CEledoradoEvent::SetMenualStart
; Function compile flags: /Ogtp
; File c:\users\faelhs\mu-1.1\emu - gameserver sapphire s0\gameserver\eledoradoevent.h
;	COMDAT ?SetMenualStart@CEledoradoEvent@@QAEXH@Z
_TEXT	SEGMENT
_bMenualStart$ = 8					; size = 4
?SetMenualStart@CEledoradoEvent@@QAEXH@Z PROC		; CEledoradoEvent::SetMenualStart, COMDAT
; _this$ = ecx

; 28   : 	void SetMenualStart(BOOL bMenualStart){this->m_bMenualStart = bMenualStart;}	// line : 57

  00000	55		 push	 ebp
  00001	8b ec		 mov	 ebp, esp
  00003	8b 45 08	 mov	 eax, DWORD PTR _bMenualStart$[ebp]
  00006	89 41 40	 mov	 DWORD PTR [ecx+64], eax
  00009	5d		 pop	 ebp
  0000a	c2 04 00	 ret	 4
?SetMenualStart@CEledoradoEvent@@QAEXH@Z ENDP		; CEledoradoEvent::SetMenualStart
_TEXT	ENDS
PUBLIC	?SetMenualStart@CRingAttackEvent@@QAEXH@Z	; CRingAttackEvent::SetMenualStart
; Function compile flags: /Ogtp
; File c:\users\faelhs\mu-1.1\emu - gameserver sapphire s0\gameserver\ringattackevent.h
;	COMDAT ?SetMenualStart@CRingAttackEvent@@QAEXH@Z
_TEXT	SEGMENT
_bMenualStart$ = 8					; size = 4
?SetMenualStart@CRingAttackEvent@@QAEXH@Z PROC		; CRingAttackEvent::SetMenualStart, COMDAT
; _this$ = ecx

; 71   : 	void SetMenualStart(BOOL bMenualStart){this->m_bMenualStart = bMenualStart;}

  00000	55		 push	 ebp
  00001	8b ec		 mov	 ebp, esp
  00003	8b 45 08	 mov	 eax, DWORD PTR _bMenualStart$[ebp]
  00006	89 81 54 01 00
	00		 mov	 DWORD PTR [ecx+340], eax
  0000c	5d		 pop	 ebp
  0000d	c2 04 00	 ret	 4
?SetMenualStart@CRingAttackEvent@@QAEXH@Z ENDP		; CRingAttackEvent::SetMenualStart
_TEXT	ENDS
PUBLIC	__$ArrayPad$
EXTRN	_isalnum:PROC
EXTRN	_isalpha:PROC
EXTRN	_atof:PROC
EXTRN	_isdigit:PROC
EXTRN	_getc:PROC
EXTRN	_ungetc:PROC
EXTRN	_isspace:PROC
EXTRN	_fgetc:PROC
EXTRN	___security_cookie:DWORD
EXTRN	__fltused:DWORD
EXTRN	@__security_check_cookie@4:PROC
_BSS	SEGMENT
_CurrentToken DD 01H DUP (?)
_TokenNumber DD	01H DUP (?)
_SMDFile DD	01H DUP (?)
_TokenString DB	064H DUP (?)
; Function compile flags: /Ogtp
; File c:\users\faelhs\mu-1.1\emu - gameserver sapphire s0\include\readscript.h
_BSS	ENDS
;	COMDAT ?GetToken@@YA?AW4SMDToken@@XZ
_TEXT	SEGMENT
_TempString$ = -104					; size = 100
__$ArrayPad$ = -4					; size = 4
?GetToken@@YA?AW4SMDToken@@XZ PROC			; GetToken, COMDAT

; 24   : {

  00000	55		 push	 ebp
  00001	8b ec		 mov	 ebp, esp
  00003	83 ec 68	 sub	 esp, 104		; 00000068H
  00006	a1 00 00 00 00	 mov	 eax, DWORD PTR ___security_cookie
  0000b	33 c5		 xor	 eax, ebp
  0000d	89 45 fc	 mov	 DWORD PTR __$ArrayPad$[ebp], eax

; 25   : 	char ch;
; 26   : 	char* p;
; 27   : 	char TempString[100];
; 28   : 
; 29   : 	TokenString[0]=0;

  00010	c6 05 00 00 00
	00 00		 mov	 BYTE PTR _TokenString, 0
  00017	53		 push	 ebx
  00018	eb 06 8d 9b 00
	00 00 00	 npad	 8
$LL31@GetToken:

; 30   : 
; 31   : 	do
; 32   : 	{
; 33   : 		if ((ch=fgetc(SMDFile)) == -1)

  00020	a1 00 00 00 00	 mov	 eax, DWORD PTR _SMDFile
  00025	50		 push	 eax
  00026	e8 00 00 00 00	 call	 _fgetc
  0002b	8a d8		 mov	 bl, al
  0002d	83 c4 04	 add	 esp, 4
  00030	80 fb ff	 cmp	 bl, -1
  00033	74 64		 je	 SHORT $LN39@GetToken

; 36   : 		}
; 37   : 		else
; 38   : 		{	
; 39   : 			if (ch=='/')		// this is /

  00035	80 fb 2f	 cmp	 bl, 47			; 0000002fH
  00038	75 31		 jne	 SHORT $LN30@GetToken

; 40   : 			{
; 41   : 				if((ch=fgetc(SMDFile)) == '/')

  0003a	8b 0d 00 00 00
	00		 mov	 ecx, DWORD PTR _SMDFile
  00040	51		 push	 ecx
  00041	e8 00 00 00 00	 call	 _fgetc
  00046	8a d8		 mov	 bl, al
  00048	83 c4 04	 add	 esp, 4
  0004b	80 fb 2f	 cmp	 bl, 47			; 0000002fH
  0004e	75 1b		 jne	 SHORT $LN30@GetToken
$LL24@GetToken:

; 42   : 				{
; 43   : 					while ((ch != '\n') && (ch != -1))	// End of Line (EOL)

  00050	80 fb ff	 cmp	 bl, -1
  00053	74 44		 je	 SHORT $LN39@GetToken

; 44   : 					{
; 45   : 						ch=fgetc(SMDFile);

  00055	8b 15 00 00 00
	00		 mov	 edx, DWORD PTR _SMDFile
  0005b	52		 push	 edx
  0005c	e8 00 00 00 00	 call	 _fgetc
  00061	8a d8		 mov	 bl, al
  00063	83 c4 04	 add	 esp, 4
  00066	80 fb 0a	 cmp	 bl, 10			; 0000000aH
  00069	75 e5		 jne	 SHORT $LL24@GetToken
$LN30@GetToken:

; 46   : 					}
; 47   : 	
; 48   : 					if (ch == -1)
; 49   : 					{
; 50   : 						return END;	// End of FILE
; 51   : 					}
; 52   : 				}
; 53   : 			}
; 54   : 		}
; 55   : 	}
; 56   : 	while (isspace(ch) != 0);

  0006b	0f be c3	 movsx	 eax, bl
  0006e	50		 push	 eax
  0006f	e8 00 00 00 00	 call	 _isspace
  00074	83 c4 04	 add	 esp, 4
  00077	85 c0		 test	 eax, eax
  00079	75 a5		 jne	 SHORT $LL31@GetToken

; 57   : 
; 58   : 	
; 59   : 	switch(ch)

  0007b	0f be c3	 movsx	 eax, bl
  0007e	8d 48 de	 lea	 ecx, DWORD PTR [eax-34]
  00081	56		 push	 esi
  00082	83 f9 5b	 cmp	 ecx, 91			; 0000005bH
  00085	0f 87 2b 01 00
	00		 ja	 $LN6@GetToken
  0008b	0f b6 89 00 00
	00 00		 movzx	 ecx, BYTE PTR $LN46@GetToken[ecx]
  00092	ff 24 8d 00 00
	00 00		 jmp	 DWORD PTR $LN50@GetToken[ecx*4]
$LN39@GetToken:

; 34   : 		{
; 35   : 			return END;	// End of FILE (EOF)

  00099	b8 02 00 00 00	 mov	 eax, 2
  0009e	5b		 pop	 ebx

; 147  : 		}
; 148  : 		break;
; 149  : 
; 150  : 	}
; 151  : 
; 152  : 	return NAME;
; 153  : }

  0009f	8b 4d fc	 mov	 ecx, DWORD PTR __$ArrayPad$[ebp]
  000a2	33 cd		 xor	 ecx, ebp
  000a4	e8 00 00 00 00	 call	 @__security_check_cookie@4
  000a9	8b e5		 mov	 esp, ebp
  000ab	5d		 pop	 ebp
  000ac	c3		 ret	 0
$LN19@GetToken:

; 60   : 	{
; 61   : 
; 62   : 	case 0x23:	// #
; 63   : 		return CurrentToken=COMMAND;

  000ad	b8 23 00 00 00	 mov	 eax, 35			; 00000023H
  000b2	e9 99 01 00 00	 jmp	 $LN48@GetToken
$LN18@GetToken:

; 64   : 		break;
; 65   : 	
; 66   : 	case 0x3B:	// ;
; 67   : 		return CurrentToken=SEMICOLON;

  000b7	b8 3b 00 00 00	 mov	 eax, 59			; 0000003bH
  000bc	e9 8f 01 00 00	 jmp	 $LN48@GetToken
$LN17@GetToken:

; 68   : 		break;
; 69   : 	
; 70   : 	case 0x2C:	// ,
; 71   : 
; 72   : 		return CurrentToken=COMMA;

  000c1	b8 2c 00 00 00	 mov	 eax, 44			; 0000002cH
  000c6	e9 85 01 00 00	 jmp	 $LN48@GetToken
$LN16@GetToken:

; 73   : 		break;
; 74   : 	
; 75   : 	case 0x7B:	// {
; 76   : 		return CurrentToken = LP;

  000cb	b8 7b 00 00 00	 mov	 eax, 123		; 0000007bH
  000d0	e9 7b 01 00 00	 jmp	 $LN48@GetToken
$LN15@GetToken:

; 77   : 		break;
; 78   : 
; 79   : 	case 0x7D:	// }
; 80   : 		return CurrentToken = RP;

  000d5	b8 7d 00 00 00	 mov	 eax, 125		; 0000007dH
  000da	e9 71 01 00 00	 jmp	 $LN48@GetToken
$LN14@GetToken:

; 81   : 		break;
; 82   : 	// Nice Index Table :)	by Deathway
; 83   : 	// Numbers Case
; 84   : 	case 0x2D:	//-
; 85   : 	case 0x2E:	//.
; 86   : 	case '0':	//0
; 87   : 	case '1':	//1
; 88   : 	case '2':	//2
; 89   : 	case '3':	//3
; 90   : 	case '4':	//4		
; 91   : 	case '5':	//5
; 92   : 	case '6':	//6
; 93   : 	case '7':	//7
; 94   : 	case '8':	//8
; 95   : 	case '9':	//9
; 96   : 		ungetc(ch, SMDFile);

  000df	8b 15 00 00 00
	00		 mov	 edx, DWORD PTR _SMDFile
  000e5	52		 push	 edx
  000e6	50		 push	 eax
  000e7	e8 00 00 00 00	 call	 _ungetc

; 97   : 		p = TempString;
; 98   : 		
; 99   : 		while (((ch=getc(SMDFile)) != -1) && ((ch == 0x2E) || (isdigit(ch) != 0) || (ch == 0x2D)))  // 2e '.'  2D '-'

  000ec	a1 00 00 00 00	 mov	 eax, DWORD PTR _SMDFile
  000f1	50		 push	 eax
  000f2	8d 75 98	 lea	 esi, DWORD PTR _TempString$[ebp]
  000f5	e8 00 00 00 00	 call	 _getc
  000fa	8a d8		 mov	 bl, al
  000fc	83 c4 0c	 add	 esp, 12			; 0000000cH
  000ff	80 fb ff	 cmp	 bl, -1
  00102	74 33		 je	 SHORT $LN12@GetToken
$LL13@GetToken:
  00104	80 fb 2e	 cmp	 bl, 46			; 0000002eH
  00107	74 15		 je	 SHORT $LN11@GetToken
  00109	0f be cb	 movsx	 ecx, bl
  0010c	51		 push	 ecx
  0010d	e8 00 00 00 00	 call	 _isdigit
  00112	83 c4 04	 add	 esp, 4
  00115	85 c0		 test	 eax, eax
  00117	75 05		 jne	 SHORT $LN11@GetToken
  00119	80 fb 2d	 cmp	 bl, 45			; 0000002dH
  0011c	75 19		 jne	 SHORT $LN12@GetToken
$LN11@GetToken:
  0011e	8b 15 00 00 00
	00		 mov	 edx, DWORD PTR _SMDFile

; 100  : 		{
; 101  : 			*p = ch;	// Construct a String

  00124	88 1e		 mov	 BYTE PTR [esi], bl
  00126	52		 push	 edx

; 102  : 			p++;

  00127	46		 inc	 esi
  00128	e8 00 00 00 00	 call	 _getc
  0012d	8a d8		 mov	 bl, al
  0012f	83 c4 04	 add	 esp, 4
  00132	80 fb ff	 cmp	 bl, -1
  00135	75 cd		 jne	 SHORT $LL13@GetToken
$LN12@GetToken:

; 103  : 		}		
; 104  : 		*p = 0;
; 105  : 		TokenNumber = atof( TempString);	// Select the first Byte as Main ID

  00137	8d 45 98	 lea	 eax, DWORD PTR _TempString$[ebp]
  0013a	50		 push	 eax
  0013b	c6 06 00	 mov	 BYTE PTR [esi], 0
  0013e	e8 00 00 00 00	 call	 _atof
  00143	d9 1d 00 00 00
	00		 fstp	 DWORD PTR _TokenNumber
  00149	83 c4 04	 add	 esp, 4
  0014c	5e		 pop	 esi

; 106  : 		return CurrentToken  = NUMBER ;

  0014d	c7 05 00 00 00
	00 01 00 00 00	 mov	 DWORD PTR _CurrentToken, 1
  00157	b8 01 00 00 00	 mov	 eax, 1
  0015c	5b		 pop	 ebx

; 147  : 		}
; 148  : 		break;
; 149  : 
; 150  : 	}
; 151  : 
; 152  : 	return NAME;
; 153  : }

  0015d	8b 4d fc	 mov	 ecx, DWORD PTR __$ArrayPad$[ebp]
  00160	33 cd		 xor	 ecx, ebp
  00162	e8 00 00 00 00	 call	 @__security_check_cookie@4
  00167	8b e5		 mov	 esp, ebp
  00169	5d		 pop	 ebp
  0016a	c3		 ret	 0
$LN10@GetToken:

; 107  : 		break;
; 108  : 
; 109  : 	case '\"':	// "	String Case
; 110  : 		p=&TokenString[0];
; 111  : 		
; 112  : 		while (((ch=getc(SMDFile)) != -1 ) && (ch != 0x22))	// nice

  0016b	8b 0d 00 00 00
	00		 mov	 ecx, DWORD PTR _SMDFile
  00171	51		 push	 ecx
  00172	be 00 00 00 00	 mov	 esi, OFFSET _TokenString
  00177	e8 00 00 00 00	 call	 _getc
  0017c	83 c4 04	 add	 esp, 4
  0017f	3c ff		 cmp	 al, -1
  00181	74 1e		 je	 SHORT $LN8@GetToken
$LL9@GetToken:
  00183	3c 22		 cmp	 al, 34			; 00000022H
  00185	0f 84 a1 00 00
	00		 je	 $LN7@GetToken
  0018b	8b 15 00 00 00
	00		 mov	 edx, DWORD PTR _SMDFile

; 113  : 		{
; 114  : 			*p = ch;

  00191	88 06		 mov	 BYTE PTR [esi], al
  00193	52		 push	 edx

; 115  : 			p++;

  00194	46		 inc	 esi
  00195	e8 00 00 00 00	 call	 _getc
  0019a	83 c4 04	 add	 esp, 4
  0019d	3c ff		 cmp	 al, -1
  0019f	75 e2		 jne	 SHORT $LL9@GetToken
$LN8@GetToken:

; 116  : 		}
; 117  : 		if (ch != 0x22 )

  001a1	3c 22		 cmp	 al, 34			; 00000022H
  001a3	0f 84 83 00 00
	00		 je	 $LN7@GetToken

; 118  : 		{
; 119  : 			ungetc(ch, SMDFile);

  001a9	8b 0d 00 00 00
	00		 mov	 ecx, DWORD PTR _SMDFile
  001af	0f be d0	 movsx	 edx, al
  001b2	51		 push	 ecx
  001b3	52		 push	 edx

; 120  : 		}
; 121  : 		*p = 0;
; 122  : 		return CurrentToken = NAME;

  001b4	eb 6e		 jmp	 SHORT $LN49@GetToken
$LN6@GetToken:

; 123  : 		break;
; 124  : 
; 125  : 	default:	// Others
; 126  : 		if (isalpha(ch))

  001b6	50		 push	 eax
  001b7	e8 00 00 00 00	 call	 _isalpha
  001bc	83 c4 04	 add	 esp, 4
  001bf	85 c0		 test	 eax, eax
  001c1	0f 84 84 00 00
	00		 je	 $LN5@GetToken

; 127  : 		{
; 128  : 			p=&TokenString[0];
; 129  : 			*p=ch;
; 130  : 			p++;
; 131  : 
; 132  : 			while ( ((ch=getc(SMDFile)) != -1) && ( (ch == 0x2E) || (ch == 0x5F) || (isalnum(ch) != 0) ) )

  001c7	a1 00 00 00 00	 mov	 eax, DWORD PTR _SMDFile
  001cc	50		 push	 eax
  001cd	88 1d 00 00 00
	00		 mov	 BYTE PTR _TokenString, bl
  001d3	be 01 00 00 00	 mov	 esi, OFFSET _TokenString+1
  001d8	e8 00 00 00 00	 call	 _getc
  001dd	8a d8		 mov	 bl, al
  001df	83 c4 04	 add	 esp, 4
  001e2	80 fb ff	 cmp	 bl, -1
  001e5	74 33		 je	 SHORT $LN3@GetToken
$LL4@GetToken:
  001e7	80 fb 2e	 cmp	 bl, 46			; 0000002eH
  001ea	74 15		 je	 SHORT $LN2@GetToken
  001ec	80 fb 5f	 cmp	 bl, 95			; 0000005fH
  001ef	74 10		 je	 SHORT $LN2@GetToken
  001f1	0f be cb	 movsx	 ecx, bl
  001f4	51		 push	 ecx
  001f5	e8 00 00 00 00	 call	 _isalnum
  001fa	83 c4 04	 add	 esp, 4
  001fd	85 c0		 test	 eax, eax
  001ff	74 19		 je	 SHORT $LN3@GetToken
$LN2@GetToken:
  00201	8b 15 00 00 00
	00		 mov	 edx, DWORD PTR _SMDFile

; 133  : 			{
; 134  : 				*p=ch;

  00207	88 1e		 mov	 BYTE PTR [esi], bl
  00209	52		 push	 edx

; 135  : 				p++;

  0020a	46		 inc	 esi
  0020b	e8 00 00 00 00	 call	 _getc
  00210	8a d8		 mov	 bl, al
  00212	83 c4 04	 add	 esp, 4
  00215	80 fb ff	 cmp	 bl, -1
  00218	75 cd		 jne	 SHORT $LL4@GetToken
$LN3@GetToken:

; 136  : 				
; 137  : 			}
; 138  : 
; 139  : 			ungetc(ch, SMDFile);

  0021a	a1 00 00 00 00	 mov	 eax, DWORD PTR _SMDFile
  0021f	0f be cb	 movsx	 ecx, bl
  00222	50		 push	 eax
  00223	51		 push	 ecx
$LN49@GetToken:
  00224	e8 00 00 00 00	 call	 _ungetc
  00229	83 c4 08	 add	 esp, 8
$LN7@GetToken:

; 140  : 			*p=0;

  0022c	c6 06 00	 mov	 BYTE PTR [esi], 0
  0022f	5e		 pop	 esi

; 141  : 			CurrentToken=NAME;

  00230	c7 05 00 00 00
	00 00 00 00 00	 mov	 DWORD PTR _CurrentToken, 0

; 142  : 			return CurrentToken;

  0023a	33 c0		 xor	 eax, eax
  0023c	5b		 pop	 ebx

; 147  : 		}
; 148  : 		break;
; 149  : 
; 150  : 	}
; 151  : 
; 152  : 	return NAME;
; 153  : }

  0023d	8b 4d fc	 mov	 ecx, DWORD PTR __$ArrayPad$[ebp]
  00240	33 cd		 xor	 ecx, ebp
  00242	e8 00 00 00 00	 call	 @__security_check_cookie@4
  00247	8b e5		 mov	 esp, ebp
  00249	5d		 pop	 ebp
  0024a	c3		 ret	 0
$LN5@GetToken:

; 143  : 		}
; 144  : 		else
; 145  : 		{
; 146  : 			return CurrentToken = SMD_ERROR; // '<'

  0024b	b8 3c 00 00 00	 mov	 eax, 60			; 0000003cH
$LN48@GetToken:

; 147  : 		}
; 148  : 		break;
; 149  : 
; 150  : 	}
; 151  : 
; 152  : 	return NAME;
; 153  : }

  00250	8b 4d fc	 mov	 ecx, DWORD PTR __$ArrayPad$[ebp]
  00253	5e		 pop	 esi
  00254	33 cd		 xor	 ecx, ebp
  00256	a3 00 00 00 00	 mov	 DWORD PTR _CurrentToken, eax
  0025b	5b		 pop	 ebx
  0025c	e8 00 00 00 00	 call	 @__security_check_cookie@4
  00261	8b e5		 mov	 esp, ebp
  00263	5d		 pop	 ebp
  00264	c3		 ret	 0
  00265	8d 49 00	 npad	 3
$LN50@GetToken:
  00268	00 00 00 00	 DD	 $LN10@GetToken
  0026c	00 00 00 00	 DD	 $LN19@GetToken
  00270	00 00 00 00	 DD	 $LN17@GetToken
  00274	00 00 00 00	 DD	 $LN14@GetToken
  00278	00 00 00 00	 DD	 $LN18@GetToken
  0027c	00 00 00 00	 DD	 $LN16@GetToken
  00280	00 00 00 00	 DD	 $LN15@GetToken
  00284	00 00 00 00	 DD	 $LN6@GetToken
$LN46@GetToken:
  00288	00		 DB	 0
  00289	01		 DB	 1
  0028a	07		 DB	 7
  0028b	07		 DB	 7
  0028c	07		 DB	 7
  0028d	07		 DB	 7
  0028e	07		 DB	 7
  0028f	07		 DB	 7
  00290	07		 DB	 7
  00291	07		 DB	 7
  00292	02		 DB	 2
  00293	03		 DB	 3
  00294	03		 DB	 3
  00295	07		 DB	 7
  00296	03		 DB	 3
  00297	03		 DB	 3
  00298	03		 DB	 3
  00299	03		 DB	 3
  0029a	03		 DB	 3
  0029b	03		 DB	 3
  0029c	03		 DB	 3
  0029d	03		 DB	 3
  0029e	03		 DB	 3
  0029f	03		 DB	 3
  002a0	07		 DB	 7
  002a1	04		 DB	 4
  002a2	07		 DB	 7
  002a3	07		 DB	 7
  002a4	07		 DB	 7
  002a5	07		 DB	 7
  002a6	07		 DB	 7
  002a7	07		 DB	 7
  002a8	07		 DB	 7
  002a9	07		 DB	 7
  002aa	07		 DB	 7
  002ab	07		 DB	 7
  002ac	07		 DB	 7
  002ad	07		 DB	 7
  002ae	07		 DB	 7
  002af	07		 DB	 7
  002b0	07		 DB	 7
  002b1	07		 DB	 7
  002b2	07		 DB	 7
  002b3	07		 DB	 7
  002b4	07		 DB	 7
  002b5	07		 DB	 7
  002b6	07		 DB	 7
  002b7	07		 DB	 7
  002b8	07		 DB	 7
  002b9	07		 DB	 7
  002ba	07		 DB	 7
  002bb	07		 DB	 7
  002bc	07		 DB	 7
  002bd	07		 DB	 7
  002be	07		 DB	 7
  002bf	07		 DB	 7
  002c0	07		 DB	 7
  002c1	07		 DB	 7
  002c2	07		 DB	 7
  002c3	07		 DB	 7
  002c4	07		 DB	 7
  002c5	07		 DB	 7
  002c6	07		 DB	 7
  002c7	07		 DB	 7
  002c8	07		 DB	 7
  002c9	07		 DB	 7
  002ca	07		 DB	 7
  002cb	07		 DB	 7
  002cc	07		 DB	 7
  002cd	07		 DB	 7
  002ce	07		 DB	 7
  002cf	07		 DB	 7
  002d0	07		 DB	 7
  002d1	07		 DB	 7
  002d2	07		 DB	 7
  002d3	07		 DB	 7
  002d4	07		 DB	 7
  002d5	07		 DB	 7
  002d6	07		 DB	 7
  002d7	07		 DB	 7
  002d8	07		 DB	 7
  002d9	07		 DB	 7
  002da	07		 DB	 7
  002db	07		 DB	 7
  002dc	07		 DB	 7
  002dd	07		 DB	 7
  002de	07		 DB	 7
  002df	07		 DB	 7
  002e0	07		 DB	 7
  002e1	05		 DB	 5
  002e2	07		 DB	 7
  002e3	06		 DB	 6
?GetToken@@YA?AW4SMDToken@@XZ ENDP			; GetToken
_TEXT	ENDS
PUBLIC	??2@YAPAXIPAX@Z					; operator new
; Function compile flags: /Ogtp
; File c:\program files (x86)\microsoft visual studio 10.0\vc\include\new.h
;	COMDAT ??2@YAPAXIPAX@Z
_TEXT	SEGMENT
___formal$ = 8						; size = 4
__Where$ = 12						; size = 4
??2@YAPAXIPAX@Z PROC					; operator new, COMDAT

; 81   :         {return (_Where); }

  00000	55		 push	 ebp
  00001	8b ec		 mov	 ebp, esp
  00003	8b 45 0c	 mov	 eax, DWORD PTR __Where$[ebp]
  00006	5d		 pop	 ebp
  00007	c3		 ret	 0
??2@YAPAXIPAX@Z ENDP					; operator new
_TEXT	ENDS
PUBLIC	??3@YAXPAX0@Z					; operator delete
; Function compile flags: /Ogtp
;	COMDAT ??3@YAXPAX0@Z
_TEXT	SEGMENT
___formal$ = 8						; size = 4
___formal$ = 12						; size = 4
??3@YAXPAX0@Z PROC					; operator delete, COMDAT

; 83   :         {return; }

  00000	c3		 ret	 0
??3@YAXPAX0@Z ENDP					; operator delete
_TEXT	ENDS
PUBLIC	?empty@?$vector@UEVENT_ID_TIME@@V?$allocator@UEVENT_ID_TIME@@@std@@@std@@QBE_NXZ ; std::vector<EVENT_ID_TIME,std::allocator<EVENT_ID_TIME> >::empty
; Function compile flags: /Ogtp
; File c:\program files (x86)\microsoft visual studio 10.0\vc\include\vector
;	COMDAT ?empty@?$vector@UEVENT_ID_TIME@@V?$allocator@UEVENT_ID_TIME@@@std@@@std@@QBE_NXZ
_TEXT	SEGMENT
?empty@?$vector@UEVENT_ID_TIME@@V?$allocator@UEVENT_ID_TIME@@@std@@@std@@QBE_NXZ PROC ; std::vector<EVENT_ID_TIME,std::allocator<EVENT_ID_TIME> >::empty, COMDAT
; _this$ = ecx

; 889  : 		return (this->_Myfirst == this->_Mylast);

  00000	8b 01		 mov	 eax, DWORD PTR [ecx]
  00002	33 d2		 xor	 edx, edx
  00004	3b 41 04	 cmp	 eax, DWORD PTR [ecx+4]
  00007	0f 94 c0	 sete	 al

; 890  : 		}

  0000a	c3		 ret	 0
?empty@?$vector@UEVENT_ID_TIME@@V?$allocator@UEVENT_ID_TIME@@@std@@@std@@QBE_NXZ ENDP ; std::vector<EVENT_ID_TIME,std::allocator<EVENT_ID_TIME> >::empty
_TEXT	ENDS
PUBLIC	??R?$less@H@std@@QBE_NABH0@Z			; std::less<int>::operator()
; Function compile flags: /Ogtp
; File c:\program files (x86)\microsoft visual studio 10.0\vc\include\xfunctional
;	COMDAT ??R?$less@H@std@@QBE_NABH0@Z
_TEXT	SEGMENT
__Left$ = 8						; size = 4
__Right$ = 12						; size = 4
??R?$less@H@std@@QBE_NABH0@Z PROC			; std::less<int>::operator(), COMDAT
; _this$ = ecx

; 124  : 		{	// apply operator< to operands

  00000	55		 push	 ebp
  00001	8b ec		 mov	 ebp, esp

; 125  : 		return (_Left < _Right);

  00003	8b 45 08	 mov	 eax, DWORD PTR __Left$[ebp]
  00006	8b 08		 mov	 ecx, DWORD PTR [eax]
  00008	8b 55 0c	 mov	 edx, DWORD PTR __Right$[ebp]
  0000b	33 c0		 xor	 eax, eax
  0000d	3b 0a		 cmp	 ecx, DWORD PTR [edx]
  0000f	0f 9c c0	 setl	 al

; 126  : 		}

  00012	5d		 pop	 ebp
  00013	c2 08 00	 ret	 8
??R?$less@H@std@@QBE_NABH0@Z ENDP			; std::less<int>::operator()
_TEXT	ENDS
PUBLIC	?_Inside@?$vector@UEVENT_ID_TIME@@V?$allocator@UEVENT_ID_TIME@@@std@@@std@@IBE_NPBUEVENT_ID_TIME@@@Z ; std::vector<EVENT_ID_TIME,std::allocator<EVENT_ID_TIME> >::_Inside
; Function compile flags: /Ogtp
; File c:\program files (x86)\microsoft visual studio 10.0\vc\include\vector
;	COMDAT ?_Inside@?$vector@UEVENT_ID_TIME@@V?$allocator@UEVENT_ID_TIME@@@std@@@std@@IBE_NPBUEVENT_ID_TIME@@@Z
_TEXT	SEGMENT
__Ptr$ = 8						; size = 4
?_Inside@?$vector@UEVENT_ID_TIME@@V?$allocator@UEVENT_ID_TIME@@@std@@@std@@IBE_NPBUEVENT_ID_TIME@@@Z PROC ; std::vector<EVENT_ID_TIME,std::allocator<EVENT_ID_TIME> >::_Inside, COMDAT
; _this$ = ecx

; 1285 : 		{	// test if _Ptr points inside vector

  00000	55		 push	 ebp
  00001	8b ec		 mov	 ebp, esp

; 1286 : 		return (_Ptr < this->_Mylast && this->_Myfirst <= _Ptr);

  00003	8b 45 08	 mov	 eax, DWORD PTR __Ptr$[ebp]
  00006	3b 41 04	 cmp	 eax, DWORD PTR [ecx+4]
  00009	73 0d		 jae	 SHORT $LN3@Inside
  0000b	39 01		 cmp	 DWORD PTR [ecx], eax
  0000d	77 09		 ja	 SHORT $LN3@Inside
  0000f	b8 01 00 00 00	 mov	 eax, 1

; 1287 : 		}

  00014	5d		 pop	 ebp
  00015	c2 04 00	 ret	 4
$LN3@Inside:

; 1286 : 		return (_Ptr < this->_Mylast && this->_Myfirst <= _Ptr);

  00018	33 c0		 xor	 eax, eax

; 1287 : 		}

  0001a	5d		 pop	 ebp
  0001b	c2 04 00	 ret	 4
?_Inside@?$vector@UEVENT_ID_TIME@@V?$allocator@UEVENT_ID_TIME@@@std@@@std@@IBE_NPBUEVENT_ID_TIME@@@Z ENDP ; std::vector<EVENT_ID_TIME,std::allocator<EVENT_ID_TIME> >::_Inside
_TEXT	ENDS
PUBLIC	?_Orphan_range@?$vector@UEVENT_ID_TIME@@V?$allocator@UEVENT_ID_TIME@@@std@@@std@@IBEXPAUEVENT_ID_TIME@@0@Z ; std::vector<EVENT_ID_TIME,std::allocator<EVENT_ID_TIME> >::_Orphan_range
; Function compile flags: /Ogtp
;	COMDAT ?_Orphan_range@?$vector@UEVENT_ID_TIME@@V?$allocator@UEVENT_ID_TIME@@@std@@@std@@IBEXPAUEVENT_ID_TIME@@0@Z
_TEXT	SEGMENT
___formal$ = 8						; size = 4
___formal$ = 12						; size = 4
?_Orphan_range@?$vector@UEVENT_ID_TIME@@V?$allocator@UEVENT_ID_TIME@@@std@@@std@@IBEXPAUEVENT_ID_TIME@@0@Z PROC ; std::vector<EVENT_ID_TIME,std::allocator<EVENT_ID_TIME> >::_Orphan_range, COMDAT
; _this$ = ecx

; 1454 : 		}

  00000	c2 08 00	 ret	 8
?_Orphan_range@?$vector@UEVENT_ID_TIME@@V?$allocator@UEVENT_ID_TIME@@@std@@@std@@IBEXPAUEVENT_ID_TIME@@0@Z ENDP ; std::vector<EVENT_ID_TIME,std::allocator<EVENT_ID_TIME> >::_Orphan_range
_TEXT	ENDS
PUBLIC	??1?$_Vector_val@UEVENT_ID_TIME@@V?$allocator@UEVENT_ID_TIME@@@std@@@std@@QAE@XZ ; std::_Vector_val<EVENT_ID_TIME,std::allocator<EVENT_ID_TIME> >::~_Vector_val<EVENT_ID_TIME,std::allocator<EVENT_ID_TIME> >
; Function compile flags: /Ogtp
;	COMDAT ??1?$_Vector_val@UEVENT_ID_TIME@@V?$allocator@UEVENT_ID_TIME@@@std@@@std@@QAE@XZ
_TEXT	SEGMENT
??1?$_Vector_val@UEVENT_ID_TIME@@V?$allocator@UEVENT_ID_TIME@@@std@@@std@@QAE@XZ PROC ; std::_Vector_val<EVENT_ID_TIME,std::allocator<EVENT_ID_TIME> >::~_Vector_val<EVENT_ID_TIME,std::allocator<EVENT_ID_TIME> >, COMDAT
; _this$ = ecx

; 434  : 		}

  00000	c3		 ret	 0
??1?$_Vector_val@UEVENT_ID_TIME@@V?$allocator@UEVENT_ID_TIME@@@std@@@std@@QAE@XZ ENDP ; std::_Vector_val<EVENT_ID_TIME,std::allocator<EVENT_ID_TIME> >::~_Vector_val<EVENT_ID_TIME,std::allocator<EVENT_ID_TIME> >
_TEXT	ENDS
PUBLIC	??0?$allocator@UEVENT_ID_TIME@@@std@@QAE@XZ	; std::allocator<EVENT_ID_TIME>::allocator<EVENT_ID_TIME>
; Function compile flags: /Ogtp
; File c:\program files (x86)\microsoft visual studio 10.0\vc\include\xmemory
;	COMDAT ??0?$allocator@UEVENT_ID_TIME@@@std@@QAE@XZ
_TEXT	SEGMENT
??0?$allocator@UEVENT_ID_TIME@@@std@@QAE@XZ PROC	; std::allocator<EVENT_ID_TIME>::allocator<EVENT_ID_TIME>, COMDAT
; _this$ = ecx

; 161  : 	_ALLOCATOR() _THROW0()

  00000	8b c1		 mov	 eax, ecx

; 162  : 		{	// construct default allocator (do nothing)
; 163  : 		}

  00002	c3		 ret	 0
??0?$allocator@UEVENT_ID_TIME@@@std@@QAE@XZ ENDP	; std::allocator<EVENT_ID_TIME>::allocator<EVENT_ID_TIME>
_TEXT	ENDS
PUBLIC	??0?$allocator@U?$pair@$$CBHPAX@std@@@std@@QAE@XZ ; std::allocator<std::pair<int const ,void *> >::allocator<std::pair<int const ,void *> >
; Function compile flags: /Ogtp
;	COMDAT ??0?$allocator@U?$pair@$$CBHPAX@std@@@std@@QAE@XZ
_TEXT	SEGMENT
??0?$allocator@U?$pair@$$CBHPAX@std@@@std@@QAE@XZ PROC	; std::allocator<std::pair<int const ,void *> >::allocator<std::pair<int const ,void *> >, COMDAT
; _this$ = ecx

; 161  : 	_ALLOCATOR() _THROW0()

  00000	8b c1		 mov	 eax, ecx

; 162  : 		{	// construct default allocator (do nothing)
; 163  : 		}

  00002	c3		 ret	 0
??0?$allocator@U?$pair@$$CBHPAX@std@@@std@@QAE@XZ ENDP	; std::allocator<std::pair<int const ,void *> >::allocator<std::pair<int const ,void *> >
_TEXT	ENDS
PUBLIC	??8?$_Tree_const_iterator@V?$_Tree_val@V?$_Tmap_traits@HPAXU?$less@H@std@@V?$allocator@U?$pair@$$CBHPAX@std@@@2@$0A@@std@@@std@@@std@@QBE_NABV01@@Z ; std::_Tree_const_iterator<std::_Tree_val<std::_Tmap_traits<int,void *,std::less<int>,std::allocator<std::pair<int const ,void *> >,0> > >::operator==
; Function compile flags: /Ogtp
; File c:\program files (x86)\microsoft visual studio 10.0\vc\include\xtree
;	COMDAT ??8?$_Tree_const_iterator@V?$_Tree_val@V?$_Tmap_traits@HPAXU?$less@H@std@@V?$allocator@U?$pair@$$CBHPAX@std@@@2@$0A@@std@@@std@@@std@@QBE_NABV01@@Z
_TEXT	SEGMENT
__Right$ = 8						; size = 4
??8?$_Tree_const_iterator@V?$_Tree_val@V?$_Tmap_traits@HPAXU?$less@H@std@@V?$allocator@U?$pair@$$CBHPAX@std@@@2@$0A@@std@@@std@@@std@@QBE_NABV01@@Z PROC ; std::_Tree_const_iterator<std::_Tree_val<std::_Tmap_traits<int,void *,std::less<int>,std::allocator<std::pair<int const ,void *> >,0> > >::operator==, COMDAT
; _this$ = ecx

; 316  : 		{	// test for iterator equality

  00000	55		 push	 ebp
  00001	8b ec		 mov	 ebp, esp

; 317  :  #if _ITERATOR_DEBUG_LEVEL == 2
; 318  : 		if (this->_Getcont() == 0
; 319  : 			|| this->_Getcont() != _Right._Getcont())
; 320  : 			{	// report error
; 321  : 			_DEBUG_ERROR("map/set iterators incompatible");
; 322  : 			_SCL_SECURE_INVALID_ARGUMENT;
; 323  : 			}
; 324  : 
; 325  :  #elif _ITERATOR_DEBUG_LEVEL == 1
; 326  : 		_SCL_SECURE_VALIDATE(this->_Getcont() != 0
; 327  : 			&& this->_Getcont() == _Right._Getcont());
; 328  :  #endif /* _ITERATOR_DEBUG_LEVEL */
; 329  : 
; 330  : 		return (this->_Ptr == _Right._Ptr);

  00003	8b 01		 mov	 eax, DWORD PTR [ecx]
  00005	8b 55 08	 mov	 edx, DWORD PTR __Right$[ebp]
  00008	33 c9		 xor	 ecx, ecx
  0000a	3b 02		 cmp	 eax, DWORD PTR [edx]
  0000c	0f 94 c0	 sete	 al

; 331  : 		}

  0000f	5d		 pop	 ebp
  00010	c2 04 00	 ret	 4
??8?$_Tree_const_iterator@V?$_Tree_val@V?$_Tmap_traits@HPAXU?$less@H@std@@V?$allocator@U?$pair@$$CBHPAX@std@@@2@$0A@@std@@@std@@@std@@QBE_NABV01@@Z ENDP ; std::_Tree_const_iterator<std::_Tree_val<std::_Tmap_traits<int,void *,std::less<int>,std::allocator<std::pair<int const ,void *> >,0> > >::operator==
_TEXT	ENDS
PUBLIC	?_Mynode@?$_Tree_unchecked_const_iterator@V?$_Tree_val@V?$_Tmap_traits@HPAXU?$less@H@std@@V?$allocator@U?$pair@$$CBHPAX@std@@@2@$0A@@std@@@std@@U_Iterator_base0@2@@std@@QBEPAU_Node@?$_Tree_nod@V?$_Tmap_traits@HPAXU?$less@H@std@@V?$allocator@U?$pair@$$CBHPAX@std@@@2@$0A@@std@@@2@XZ ; std::_Tree_unchecked_const_iterator<std::_Tree_val<std::_Tmap_traits<int,void *,std::less<int>,std::allocator<std::pair<int const ,void *> >,0> >,std::_Iterator_base0>::_Mynode
; Function compile flags: /Ogtp
;	COMDAT ?_Mynode@?$_Tree_unchecked_const_iterator@V?$_Tree_val@V?$_Tmap_traits@HPAXU?$less@H@std@@V?$allocator@U?$pair@$$CBHPAX@std@@@2@$0A@@std@@@std@@U_Iterator_base0@2@@std@@QBEPAU_Node@?$_Tree_nod@V?$_Tmap_traits@HPAXU?$less@H@std@@V?$allocator@U?$pair@$$CBHPAX@std@@@2@$0A@@std@@@2@XZ
_TEXT	SEGMENT
?_Mynode@?$_Tree_unchecked_const_iterator@V?$_Tree_val@V?$_Tmap_traits@HPAXU?$less@H@std@@V?$allocator@U?$pair@$$CBHPAX@std@@@2@$0A@@std@@@std@@U_Iterator_base0@2@@std@@QBEPAU_Node@?$_Tree_nod@V?$_Tmap_traits@HPAXU?$less@H@std@@V?$allocator@U?$pair@$$CBHPAX@std@@@2@$0A@@std@@@2@XZ PROC ; std::_Tree_unchecked_const_iterator<std::_Tree_val<std::_Tmap_traits<int,void *,std::less<int>,std::allocator<std::pair<int const ,void *> >,0> >,std::_Iterator_base0>::_Mynode, COMDAT
; _this$ = ecx

; 122  : 		return (_Ptr);

  00000	8b 01		 mov	 eax, DWORD PTR [ecx]

; 123  : 		}

  00002	c3		 ret	 0
?_Mynode@?$_Tree_unchecked_const_iterator@V?$_Tree_val@V?$_Tmap_traits@HPAXU?$less@H@std@@V?$allocator@U?$pair@$$CBHPAX@std@@@2@$0A@@std@@@std@@U_Iterator_base0@2@@std@@QBEPAU_Node@?$_Tree_nod@V?$_Tmap_traits@HPAXU?$less@H@std@@V?$allocator@U?$pair@$$CBHPAX@std@@@2@$0A@@std@@@2@XZ ENDP ; std::_Tree_unchecked_const_iterator<std::_Tree_val<std::_Tmap_traits<int,void *,std::less<int>,std::allocator<std::pair<int const ,void *> >,0> >,std::_Iterator_base0>::_Mynode
_TEXT	ENDS
PUBLIC	??0?$_Vector_const_iterator@V?$_Vector_val@UEVENT_ID_TIME@@V?$allocator@UEVENT_ID_TIME@@@std@@@std@@@std@@QAE@XZ ; std::_Vector_const_iterator<std::_Vector_val<EVENT_ID_TIME,std::allocator<EVENT_ID_TIME> > >::_Vector_const_iterator<std::_Vector_val<EVENT_ID_TIME,std::allocator<EVENT_ID_TIME> > >
; Function compile flags: /Ogtp
; File c:\program files (x86)\microsoft visual studio 10.0\vc\include\vector
;	COMDAT ??0?$_Vector_const_iterator@V?$_Vector_val@UEVENT_ID_TIME@@V?$allocator@UEVENT_ID_TIME@@@std@@@std@@@std@@QAE@XZ
_TEXT	SEGMENT
??0?$_Vector_const_iterator@V?$_Vector_val@UEVENT_ID_TIME@@V?$allocator@UEVENT_ID_TIME@@@std@@@std@@@std@@QAE@XZ PROC ; std::_Vector_const_iterator<std::_Vector_val<EVENT_ID_TIME,std::allocator<EVENT_ID_TIME> > >::_Vector_const_iterator<std::_Vector_val<EVENT_ID_TIME,std::allocator<EVENT_ID_TIME> > >, COMDAT
; _this$ = ecx

; 40   : 		{	// construct with null pointer

  00000	8b c1		 mov	 eax, ecx
  00002	c7 00 00 00 00
	00		 mov	 DWORD PTR [eax], 0

; 41   : 		}

  00008	c3		 ret	 0
??0?$_Vector_const_iterator@V?$_Vector_val@UEVENT_ID_TIME@@V?$allocator@UEVENT_ID_TIME@@@std@@@std@@@std@@QAE@XZ ENDP ; std::_Vector_const_iterator<std::_Vector_val<EVENT_ID_TIME,std::allocator<EVENT_ID_TIME> > >::_Vector_const_iterator<std::_Vector_val<EVENT_ID_TIME,std::allocator<EVENT_ID_TIME> > >
_TEXT	ENDS
PUBLIC	??D?$_Vector_const_iterator@V?$_Vector_val@UEVENT_ID_TIME@@V?$allocator@UEVENT_ID_TIME@@@std@@@std@@@std@@QBEABUEVENT_ID_TIME@@XZ ; std::_Vector_const_iterator<std::_Vector_val<EVENT_ID_TIME,std::allocator<EVENT_ID_TIME> > >::operator*
; Function compile flags: /Ogtp
;	COMDAT ??D?$_Vector_const_iterator@V?$_Vector_val@UEVENT_ID_TIME@@V?$allocator@UEVENT_ID_TIME@@@std@@@std@@@std@@QBEABUEVENT_ID_TIME@@XZ
_TEXT	SEGMENT
??D?$_Vector_const_iterator@V?$_Vector_val@UEVENT_ID_TIME@@V?$allocator@UEVENT_ID_TIME@@@std@@@std@@@std@@QBEABUEVENT_ID_TIME@@XZ PROC ; std::_Vector_const_iterator<std::_Vector_val<EVENT_ID_TIME,std::allocator<EVENT_ID_TIME> > >::operator*, COMDAT
; _this$ = ecx

; 64   :  #if _ITERATOR_DEBUG_LEVEL == 2
; 65   : 		if (this->_Getcont() == 0
; 66   : 			|| this->_Ptr == 0
; 67   : 			|| this->_Ptr < ((_Myvec *)this->_Getcont())->_Myfirst
; 68   : 			|| ((_Myvec *)this->_Getcont())->_Mylast <= this->_Ptr)
; 69   : 			{	// report error
; 70   : 			_DEBUG_ERROR("vector iterator not dereferencable");
; 71   : 			_SCL_SECURE_OUT_OF_RANGE;
; 72   : 			}
; 73   : 
; 74   :  #elif _ITERATOR_DEBUG_LEVEL == 1
; 75   : 		_SCL_SECURE_VALIDATE(this->_Getcont() != 0);
; 76   : 		_SCL_SECURE_VALIDATE_RANGE(
; 77   : 			this->_Ptr != 0
; 78   : 			&& ((_Myvec *)this->_Getcont())->_Myfirst <= this->_Ptr
; 79   : 			&& this->_Ptr < ((_Myvec *)this->_Getcont())->_Mylast);
; 80   :  #endif /* _ITERATOR_DEBUG_LEVEL */
; 81   : 
; 82   : 		__analysis_assume(this->_Ptr != 0);
; 83   : 
; 84   : 		return (*this->_Ptr);

  00000	8b 01		 mov	 eax, DWORD PTR [ecx]

; 85   : 		}

  00002	c3		 ret	 0
??D?$_Vector_const_iterator@V?$_Vector_val@UEVENT_ID_TIME@@V?$allocator@UEVENT_ID_TIME@@@std@@@std@@@std@@QBEABUEVENT_ID_TIME@@XZ ENDP ; std::_Vector_const_iterator<std::_Vector_val<EVENT_ID_TIME,std::allocator<EVENT_ID_TIME> > >::operator*
_TEXT	ENDS
PUBLIC	?capacity@?$vector@UEVENT_ID_TIME@@V?$allocator@UEVENT_ID_TIME@@@std@@@std@@QBEIXZ ; std::vector<EVENT_ID_TIME,std::allocator<EVENT_ID_TIME> >::capacity
; Function compile flags: /Ogtp
;	COMDAT ?capacity@?$vector@UEVENT_ID_TIME@@V?$allocator@UEVENT_ID_TIME@@@std@@@std@@QBEIXZ
_TEXT	SEGMENT
?capacity@?$vector@UEVENT_ID_TIME@@V?$allocator@UEVENT_ID_TIME@@@std@@@std@@QBEIXZ PROC ; std::vector<EVENT_ID_TIME,std::allocator<EVENT_ID_TIME> >::capacity, COMDAT
; _this$ = ecx

; 777  : 		return (this->_Myend - this->_Myfirst);

  00000	8b 41 08	 mov	 eax, DWORD PTR [ecx+8]
  00003	2b 01		 sub	 eax, DWORD PTR [ecx]
  00005	c1 f8 04	 sar	 eax, 4

; 778  : 		}

  00008	c3		 ret	 0
?capacity@?$vector@UEVENT_ID_TIME@@V?$allocator@UEVENT_ID_TIME@@@std@@@std@@QBEIXZ ENDP ; std::vector<EVENT_ID_TIME,std::allocator<EVENT_ID_TIME> >::capacity
_TEXT	ENDS
PUBLIC	?size@?$vector@UEVENT_ID_TIME@@V?$allocator@UEVENT_ID_TIME@@@std@@@std@@QBEIXZ ; std::vector<EVENT_ID_TIME,std::allocator<EVENT_ID_TIME> >::size
; Function compile flags: /Ogtp
;	COMDAT ?size@?$vector@UEVENT_ID_TIME@@V?$allocator@UEVENT_ID_TIME@@@std@@@std@@QBEIXZ
_TEXT	SEGMENT
?size@?$vector@UEVENT_ID_TIME@@V?$allocator@UEVENT_ID_TIME@@@std@@@std@@QBEIXZ PROC ; std::vector<EVENT_ID_TIME,std::allocator<EVENT_ID_TIME> >::size, COMDAT
; _this$ = ecx

; 879  : 		return (this->_Mylast - this->_Myfirst);

  00000	8b 41 04	 mov	 eax, DWORD PTR [ecx+4]
  00003	2b 01		 sub	 eax, DWORD PTR [ecx]
  00005	c1 f8 04	 sar	 eax, 4

; 880  : 		}

  00008	c3		 ret	 0
?size@?$vector@UEVENT_ID_TIME@@V?$allocator@UEVENT_ID_TIME@@@std@@@std@@QBEIXZ ENDP ; std::vector<EVENT_ID_TIME,std::allocator<EVENT_ID_TIME> >::size
_TEXT	ENDS
PUBLIC	??_C@_0BD@OLBABOEK@vector?$DMT?$DO?5too?5long?$AA@ ; `string'
PUBLIC	?_Xlen@?$vector@UEVENT_ID_TIME@@V?$allocator@UEVENT_ID_TIME@@@std@@@std@@IBEXXZ ; std::vector<EVENT_ID_TIME,std::allocator<EVENT_ID_TIME> >::_Xlen
EXTRN	?_Xlength_error@std@@YAXPBD@Z:PROC		; std::_Xlength_error
;	COMDAT ??_C@_0BD@OLBABOEK@vector?$DMT?$DO?5too?5long?$AA@
CONST	SEGMENT
??_C@_0BD@OLBABOEK@vector?$DMT?$DO?5too?5long?$AA@ DB 'vector<T> too long'
	DB	00H						; `string'
; Function compile flags: /Ogtp
CONST	ENDS
;	COMDAT ?_Xlen@?$vector@UEVENT_ID_TIME@@V?$allocator@UEVENT_ID_TIME@@@std@@@std@@IBEXXZ
_TEXT	SEGMENT
?_Xlen@?$vector@UEVENT_ID_TIME@@V?$allocator@UEVENT_ID_TIME@@@std@@@std@@IBEXXZ PROC ; std::vector<EVENT_ID_TIME,std::allocator<EVENT_ID_TIME> >::_Xlen, COMDAT
; _this$ = ecx

; 1427 : 		_Xlength_error("vector<T> too long");

  00000	68 00 00 00 00	 push	 OFFSET ??_C@_0BD@OLBABOEK@vector?$DMT?$DO?5too?5long?$AA@
  00005	e8 00 00 00 00	 call	 ?_Xlength_error@std@@YAXPBD@Z ; std::_Xlength_error
$LN4@Xlen:
$LN3@Xlen:
  0000a	cc		 int	 3
?_Xlen@?$vector@UEVENT_ID_TIME@@V?$allocator@UEVENT_ID_TIME@@@std@@@std@@IBEXXZ ENDP ; std::vector<EVENT_ID_TIME,std::allocator<EVENT_ID_TIME> >::_Xlen
_TEXT	ENDS
PUBLIC	??0?$allocator@UEVENT_ID_TIME@@@std@@QAE@ABV01@@Z ; std::allocator<EVENT_ID_TIME>::allocator<EVENT_ID_TIME>
; Function compile flags: /Ogtp
; File c:\program files (x86)\microsoft visual studio 10.0\vc\include\xmemory
;	COMDAT ??0?$allocator@UEVENT_ID_TIME@@@std@@QAE@ABV01@@Z
_TEXT	SEGMENT
___formal$ = 8						; size = 4
??0?$allocator@UEVENT_ID_TIME@@@std@@QAE@ABV01@@Z PROC	; std::allocator<EVENT_ID_TIME>::allocator<EVENT_ID_TIME>, COMDAT
; _this$ = ecx

; 165  : 	_ALLOCATOR(const _ALLOCATOR<_Ty>&) _THROW0()

  00000	8b c1		 mov	 eax, ecx

; 166  : 		{	// construct by copying (do nothing)
; 167  : 		}

  00002	c2 04 00	 ret	 4
??0?$allocator@UEVENT_ID_TIME@@@std@@QAE@ABV01@@Z ENDP	; std::allocator<EVENT_ID_TIME>::allocator<EVENT_ID_TIME>
_TEXT	ENDS
PUBLIC	?deallocate@?$allocator@UEVENT_ID_TIME@@@std@@QAEXPAUEVENT_ID_TIME@@I@Z ; std::allocator<EVENT_ID_TIME>::deallocate
EXTRN	??3@YAXPAX@Z:PROC				; operator delete
; Function compile flags: /Ogtp
;	COMDAT ?deallocate@?$allocator@UEVENT_ID_TIME@@@std@@QAEXPAUEVENT_ID_TIME@@I@Z
_TEXT	SEGMENT
__Ptr$ = 8						; size = 4
___formal$ = 12						; size = 4
?deallocate@?$allocator@UEVENT_ID_TIME@@@std@@QAEXPAUEVENT_ID_TIME@@I@Z PROC ; std::allocator<EVENT_ID_TIME>::deallocate, COMDAT
; _this$ = ecx

; 181  : 		{	// deallocate object at _Ptr, ignore size

  00000	55		 push	 ebp
  00001	8b ec		 mov	 ebp, esp

; 182  : 		::operator delete(_Ptr);

  00003	8b 45 08	 mov	 eax, DWORD PTR __Ptr$[ebp]
  00006	50		 push	 eax
  00007	e8 00 00 00 00	 call	 ??3@YAXPAX@Z		; operator delete
  0000c	83 c4 04	 add	 esp, 4

; 183  : 		}

  0000f	5d		 pop	 ebp
  00010	c2 08 00	 ret	 8
?deallocate@?$allocator@UEVENT_ID_TIME@@@std@@QAEXPAUEVENT_ID_TIME@@I@Z ENDP ; std::allocator<EVENT_ID_TIME>::deallocate
_TEXT	ENDS
PUBLIC	?_Isnil@?$_Tree_val@V?$_Tmap_traits@HPAXU?$less@H@std@@V?$allocator@U?$pair@$$CBHPAX@std@@@2@$0A@@std@@@std@@SAAADPAU_Node@?$_Tree_nod@V?$_Tmap_traits@HPAXU?$less@H@std@@V?$allocator@U?$pair@$$CBHPAX@std@@@2@$0A@@std@@@2@@Z ; std::_Tree_val<std::_Tmap_traits<int,void *,std::less<int>,std::allocator<std::pair<int const ,void *> >,0> >::_Isnil
; Function compile flags: /Ogtp
; File c:\program files (x86)\microsoft visual studio 10.0\vc\include\xtree
;	COMDAT ?_Isnil@?$_Tree_val@V?$_Tmap_traits@HPAXU?$less@H@std@@V?$allocator@U?$pair@$$CBHPAX@std@@@2@$0A@@std@@@std@@SAAADPAU_Node@?$_Tree_nod@V?$_Tmap_traits@HPAXU?$less@H@std@@V?$allocator@U?$pair@$$CBHPAX@std@@@2@$0A@@std@@@2@@Z
_TEXT	SEGMENT
__Pnode$ = 8						; size = 4
?_Isnil@?$_Tree_val@V?$_Tmap_traits@HPAXU?$less@H@std@@V?$allocator@U?$pair@$$CBHPAX@std@@@2@$0A@@std@@@std@@SAAADPAU_Node@?$_Tree_nod@V?$_Tmap_traits@HPAXU?$less@H@std@@V?$allocator@U?$pair@$$CBHPAX@std@@@2@$0A@@std@@@2@@Z PROC ; std::_Tree_val<std::_Tmap_traits<int,void *,std::less<int>,std::allocator<std::pair<int const ,void *> >,0> >::_Isnil, COMDAT

; 611  : 		{	// return reference to nil flag in node

  00000	55		 push	 ebp
  00001	8b ec		 mov	 ebp, esp

; 612  : 		return ((char&)(*_Pnode)._Isnil);

  00003	8b 45 08	 mov	 eax, DWORD PTR __Pnode$[ebp]
  00006	83 c0 15	 add	 eax, 21			; 00000015H

; 613  : 		}

  00009	5d		 pop	 ebp
  0000a	c3		 ret	 0
?_Isnil@?$_Tree_val@V?$_Tmap_traits@HPAXU?$less@H@std@@V?$allocator@U?$pair@$$CBHPAX@std@@@2@$0A@@std@@@std@@SAAADPAU_Node@?$_Tree_nod@V?$_Tmap_traits@HPAXU?$less@H@std@@V?$allocator@U?$pair@$$CBHPAX@std@@@2@$0A@@std@@@2@@Z ENDP ; std::_Tree_val<std::_Tmap_traits<int,void *,std::less<int>,std::allocator<std::pair<int const ,void *> >,0> >::_Isnil
_TEXT	ENDS
PUBLIC	?_Left@?$_Tree_val@V?$_Tmap_traits@HPAXU?$less@H@std@@V?$allocator@U?$pair@$$CBHPAX@std@@@2@$0A@@std@@@std@@SAAAPAU_Node@?$_Tree_nod@V?$_Tmap_traits@HPAXU?$less@H@std@@V?$allocator@U?$pair@$$CBHPAX@std@@@2@$0A@@std@@@2@PAU342@@Z ; std::_Tree_val<std::_Tmap_traits<int,void *,std::less<int>,std::allocator<std::pair<int const ,void *> >,0> >::_Left
; Function compile flags: /Ogtp
;	COMDAT ?_Left@?$_Tree_val@V?$_Tmap_traits@HPAXU?$less@H@std@@V?$allocator@U?$pair@$$CBHPAX@std@@@2@$0A@@std@@@std@@SAAAPAU_Node@?$_Tree_nod@V?$_Tmap_traits@HPAXU?$less@H@std@@V?$allocator@U?$pair@$$CBHPAX@std@@@2@$0A@@std@@@2@PAU342@@Z
_TEXT	SEGMENT
__Pnode$ = 8						; size = 4
?_Left@?$_Tree_val@V?$_Tmap_traits@HPAXU?$less@H@std@@V?$allocator@U?$pair@$$CBHPAX@std@@@2@$0A@@std@@@std@@SAAAPAU_Node@?$_Tree_nod@V?$_Tmap_traits@HPAXU?$less@H@std@@V?$allocator@U?$pair@$$CBHPAX@std@@@2@$0A@@std@@@2@PAU342@@Z PROC ; std::_Tree_val<std::_Tmap_traits<int,void *,std::less<int>,std::allocator<std::pair<int const ,void *> >,0> >::_Left, COMDAT

; 621  : 		{	// return reference to left pointer in node

  00000	55		 push	 ebp
  00001	8b ec		 mov	 ebp, esp

; 622  : 		return ((_Nodepref)(*_Pnode)._Left);

  00003	8b 45 08	 mov	 eax, DWORD PTR __Pnode$[ebp]

; 623  : 		}

  00006	5d		 pop	 ebp
  00007	c3		 ret	 0
?_Left@?$_Tree_val@V?$_Tmap_traits@HPAXU?$less@H@std@@V?$allocator@U?$pair@$$CBHPAX@std@@@2@$0A@@std@@@std@@SAAAPAU_Node@?$_Tree_nod@V?$_Tmap_traits@HPAXU?$less@H@std@@V?$allocator@U?$pair@$$CBHPAX@std@@@2@$0A@@std@@@2@PAU342@@Z ENDP ; std::_Tree_val<std::_Tmap_traits<int,void *,std::less<int>,std::allocator<std::pair<int const ,void *> >,0> >::_Left
_TEXT	ENDS
PUBLIC	?_Parent@?$_Tree_val@V?$_Tmap_traits@HPAXU?$less@H@std@@V?$allocator@U?$pair@$$CBHPAX@std@@@2@$0A@@std@@@std@@SAAAPAU_Node@?$_Tree_nod@V?$_Tmap_traits@HPAXU?$less@H@std@@V?$allocator@U?$pair@$$CBHPAX@std@@@2@$0A@@std@@@2@PAU342@@Z ; std::_Tree_val<std::_Tmap_traits<int,void *,std::less<int>,std::allocator<std::pair<int const ,void *> >,0> >::_Parent
; Function compile flags: /Ogtp
;	COMDAT ?_Parent@?$_Tree_val@V?$_Tmap_traits@HPAXU?$less@H@std@@V?$allocator@U?$pair@$$CBHPAX@std@@@2@$0A@@std@@@std@@SAAAPAU_Node@?$_Tree_nod@V?$_Tmap_traits@HPAXU?$less@H@std@@V?$allocator@U?$pair@$$CBHPAX@std@@@2@$0A@@std@@@2@PAU342@@Z
_TEXT	SEGMENT
__Pnode$ = 8						; size = 4
?_Parent@?$_Tree_val@V?$_Tmap_traits@HPAXU?$less@H@std@@V?$allocator@U?$pair@$$CBHPAX@std@@@2@$0A@@std@@@std@@SAAAPAU_Node@?$_Tree_nod@V?$_Tmap_traits@HPAXU?$less@H@std@@V?$allocator@U?$pair@$$CBHPAX@std@@@2@$0A@@std@@@2@PAU342@@Z PROC ; std::_Tree_val<std::_Tmap_traits<int,void *,std::less<int>,std::allocator<std::pair<int const ,void *> >,0> >::_Parent, COMDAT

; 626  : 		{	// return reference to parent pointer in node

  00000	55		 push	 ebp
  00001	8b ec		 mov	 ebp, esp

; 627  : 		return ((_Nodepref)(*_Pnode)._Parent);

  00003	8b 45 08	 mov	 eax, DWORD PTR __Pnode$[ebp]
  00006	83 c0 04	 add	 eax, 4

; 628  : 		}

  00009	5d		 pop	 ebp
  0000a	c3		 ret	 0
?_Parent@?$_Tree_val@V?$_Tmap_traits@HPAXU?$less@H@std@@V?$allocator@U?$pair@$$CBHPAX@std@@@2@$0A@@std@@@std@@SAAAPAU_Node@?$_Tree_nod@V?$_Tmap_traits@HPAXU?$less@H@std@@V?$allocator@U?$pair@$$CBHPAX@std@@@2@$0A@@std@@@2@PAU342@@Z ENDP ; std::_Tree_val<std::_Tmap_traits<int,void *,std::less<int>,std::allocator<std::pair<int const ,void *> >,0> >::_Parent
_TEXT	ENDS
PUBLIC	?_Right@?$_Tree_val@V?$_Tmap_traits@HPAXU?$less@H@std@@V?$allocator@U?$pair@$$CBHPAX@std@@@2@$0A@@std@@@std@@SAAAPAU_Node@?$_Tree_nod@V?$_Tmap_traits@HPAXU?$less@H@std@@V?$allocator@U?$pair@$$CBHPAX@std@@@2@$0A@@std@@@2@PAU342@@Z ; std::_Tree_val<std::_Tmap_traits<int,void *,std::less<int>,std::allocator<std::pair<int const ,void *> >,0> >::_Right
; Function compile flags: /Ogtp
;	COMDAT ?_Right@?$_Tree_val@V?$_Tmap_traits@HPAXU?$less@H@std@@V?$allocator@U?$pair@$$CBHPAX@std@@@2@$0A@@std@@@std@@SAAAPAU_Node@?$_Tree_nod@V?$_Tmap_traits@HPAXU?$less@H@std@@V?$allocator@U?$pair@$$CBHPAX@std@@@2@$0A@@std@@@2@PAU342@@Z
_TEXT	SEGMENT
__Pnode$ = 8						; size = 4
?_Right@?$_Tree_val@V?$_Tmap_traits@HPAXU?$less@H@std@@V?$allocator@U?$pair@$$CBHPAX@std@@@2@$0A@@std@@@std@@SAAAPAU_Node@?$_Tree_nod@V?$_Tmap_traits@HPAXU?$less@H@std@@V?$allocator@U?$pair@$$CBHPAX@std@@@2@$0A@@std@@@2@PAU342@@Z PROC ; std::_Tree_val<std::_Tmap_traits<int,void *,std::less<int>,std::allocator<std::pair<int const ,void *> >,0> >::_Right, COMDAT

; 631  : 		{	// return reference to right pointer in node

  00000	55		 push	 ebp
  00001	8b ec		 mov	 ebp, esp

; 632  : 		return ((_Nodepref)(*_Pnode)._Right);

  00003	8b 45 08	 mov	 eax, DWORD PTR __Pnode$[ebp]
  00006	83 c0 08	 add	 eax, 8

; 633  : 		}

  00009	5d		 pop	 ebp
  0000a	c3		 ret	 0
?_Right@?$_Tree_val@V?$_Tmap_traits@HPAXU?$less@H@std@@V?$allocator@U?$pair@$$CBHPAX@std@@@2@$0A@@std@@@std@@SAAAPAU_Node@?$_Tree_nod@V?$_Tmap_traits@HPAXU?$less@H@std@@V?$allocator@U?$pair@$$CBHPAX@std@@@2@$0A@@std@@@2@PAU342@@Z ENDP ; std::_Tree_val<std::_Tmap_traits<int,void *,std::less<int>,std::allocator<std::pair<int const ,void *> >,0> >::_Right
_TEXT	ENDS
PUBLIC	?_Myval@?$_Tree_val@V?$_Tmap_traits@HPAXU?$less@H@std@@V?$allocator@U?$pair@$$CBHPAX@std@@@2@$0A@@std@@@std@@SAAAU?$pair@$$CBHPAX@2@PAU_Node@?$_Tree_nod@V?$_Tmap_traits@HPAXU?$less@H@std@@V?$allocator@U?$pair@$$CBHPAX@std@@@2@$0A@@std@@@2@@Z ; std::_Tree_val<std::_Tmap_traits<int,void *,std::less<int>,std::allocator<std::pair<int const ,void *> >,0> >::_Myval
; Function compile flags: /Ogtp
;	COMDAT ?_Myval@?$_Tree_val@V?$_Tmap_traits@HPAXU?$less@H@std@@V?$allocator@U?$pair@$$CBHPAX@std@@@2@$0A@@std@@@std@@SAAAU?$pair@$$CBHPAX@2@PAU_Node@?$_Tree_nod@V?$_Tmap_traits@HPAXU?$less@H@std@@V?$allocator@U?$pair@$$CBHPAX@std@@@2@$0A@@std@@@2@@Z
_TEXT	SEGMENT
__Pnode$ = 8						; size = 4
?_Myval@?$_Tree_val@V?$_Tmap_traits@HPAXU?$less@H@std@@V?$allocator@U?$pair@$$CBHPAX@std@@@2@$0A@@std@@@std@@SAAAU?$pair@$$CBHPAX@2@PAU_Node@?$_Tree_nod@V?$_Tmap_traits@HPAXU?$less@H@std@@V?$allocator@U?$pair@$$CBHPAX@std@@@2@$0A@@std@@@2@@Z PROC ; std::_Tree_val<std::_Tmap_traits<int,void *,std::less<int>,std::allocator<std::pair<int const ,void *> >,0> >::_Myval, COMDAT

; 636  : 		{	// return reference to value in node

  00000	55		 push	 ebp
  00001	8b ec		 mov	 ebp, esp

; 637  : 		return ((reference)(*_Pnode)._Myval);

  00003	8b 45 08	 mov	 eax, DWORD PTR __Pnode$[ebp]
  00006	83 c0 0c	 add	 eax, 12			; 0000000cH

; 638  : 		}

  00009	5d		 pop	 ebp
  0000a	c3		 ret	 0
?_Myval@?$_Tree_val@V?$_Tmap_traits@HPAXU?$less@H@std@@V?$allocator@U?$pair@$$CBHPAX@std@@@2@$0A@@std@@@std@@SAAAU?$pair@$$CBHPAX@2@PAU_Node@?$_Tree_nod@V?$_Tmap_traits@HPAXU?$less@H@std@@V?$allocator@U?$pair@$$CBHPAX@std@@@2@$0A@@std@@@2@@Z ENDP ; std::_Tree_val<std::_Tmap_traits<int,void *,std::less<int>,std::allocator<std::pair<int const ,void *> >,0> >::_Myval
_TEXT	ENDS
PUBLIC	??0?$allocator@U?$pair@$$CBHPAX@std@@@std@@QAE@ABV01@@Z ; std::allocator<std::pair<int const ,void *> >::allocator<std::pair<int const ,void *> >
; Function compile flags: /Ogtp
; File c:\program files (x86)\microsoft visual studio 10.0\vc\include\xmemory
;	COMDAT ??0?$allocator@U?$pair@$$CBHPAX@std@@@std@@QAE@ABV01@@Z
_TEXT	SEGMENT
___formal$ = 8						; size = 4
??0?$allocator@U?$pair@$$CBHPAX@std@@@std@@QAE@ABV01@@Z PROC ; std::allocator<std::pair<int const ,void *> >::allocator<std::pair<int const ,void *> >, COMDAT
; _this$ = ecx

; 165  : 	_ALLOCATOR(const _ALLOCATOR<_Ty>&) _THROW0()

  00000	8b c1		 mov	 eax, ecx

; 166  : 		{	// construct by copying (do nothing)
; 167  : 		}

  00002	c2 04 00	 ret	 4
??0?$allocator@U?$pair@$$CBHPAX@std@@@std@@QAE@ABV01@@Z ENDP ; std::allocator<std::pair<int const ,void *> >::allocator<std::pair<int const ,void *> >
_TEXT	ENDS
PUBLIC	?deallocate@?$allocator@U_Node@?$_Tree_nod@V?$_Tmap_traits@HPAXU?$less@H@std@@V?$allocator@U?$pair@$$CBHPAX@std@@@2@$0A@@std@@@std@@@std@@QAEXPAU_Node@?$_Tree_nod@V?$_Tmap_traits@HPAXU?$less@H@std@@V?$allocator@U?$pair@$$CBHPAX@std@@@2@$0A@@std@@@2@I@Z ; std::allocator<std::_Tree_nod<std::_Tmap_traits<int,void *,std::less<int>,std::allocator<std::pair<int const ,void *> >,0> >::_Node>::deallocate
; Function compile flags: /Ogtp
;	COMDAT ?deallocate@?$allocator@U_Node@?$_Tree_nod@V?$_Tmap_traits@HPAXU?$less@H@std@@V?$allocator@U?$pair@$$CBHPAX@std@@@2@$0A@@std@@@std@@@std@@QAEXPAU_Node@?$_Tree_nod@V?$_Tmap_traits@HPAXU?$less@H@std@@V?$allocator@U?$pair@$$CBHPAX@std@@@2@$0A@@std@@@2@I@Z
_TEXT	SEGMENT
__Ptr$ = 8						; size = 4
___formal$ = 12						; size = 4
?deallocate@?$allocator@U_Node@?$_Tree_nod@V?$_Tmap_traits@HPAXU?$less@H@std@@V?$allocator@U?$pair@$$CBHPAX@std@@@2@$0A@@std@@@std@@@std@@QAEXPAU_Node@?$_Tree_nod@V?$_Tmap_traits@HPAXU?$less@H@std@@V?$allocator@U?$pair@$$CBHPAX@std@@@2@$0A@@std@@@2@I@Z PROC ; std::allocator<std::_Tree_nod<std::_Tmap_traits<int,void *,std::less<int>,std::allocator<std::pair<int const ,void *> >,0> >::_Node>::deallocate, COMDAT
; _this$ = ecx

; 181  : 		{	// deallocate object at _Ptr, ignore size

  00000	55		 push	 ebp
  00001	8b ec		 mov	 ebp, esp

; 182  : 		::operator delete(_Ptr);

  00003	8b 45 08	 mov	 eax, DWORD PTR __Ptr$[ebp]
  00006	50		 push	 eax
  00007	e8 00 00 00 00	 call	 ??3@YAXPAX@Z		; operator delete
  0000c	83 c4 04	 add	 esp, 4

; 183  : 		}

  0000f	5d		 pop	 ebp
  00010	c2 08 00	 ret	 8
?deallocate@?$allocator@U_Node@?$_Tree_nod@V?$_Tmap_traits@HPAXU?$less@H@std@@V?$allocator@U?$pair@$$CBHPAX@std@@@2@$0A@@std@@@std@@@std@@QAEXPAU_Node@?$_Tree_nod@V?$_Tmap_traits@HPAXU?$less@H@std@@V?$allocator@U?$pair@$$CBHPAX@std@@@2@$0A@@std@@@2@I@Z ENDP ; std::allocator<std::_Tree_nod<std::_Tmap_traits<int,void *,std::less<int>,std::allocator<std::pair<int const ,void *> >,0> >::_Node>::deallocate
_TEXT	ENDS
PUBLIC	??D?$_Tree_const_iterator@V?$_Tree_val@V?$_Tmap_traits@HPAXU?$less@H@std@@V?$allocator@U?$pair@$$CBHPAX@std@@@2@$0A@@std@@@std@@@std@@QBEABU?$pair@$$CBHPAX@1@XZ ; std::_Tree_const_iterator<std::_Tree_val<std::_Tmap_traits<int,void *,std::less<int>,std::allocator<std::pair<int const ,void *> >,0> > >::operator*
; Function compile flags: /Ogtp
; File c:\program files (x86)\microsoft visual studio 10.0\vc\include\xtree
;	COMDAT ??D?$_Tree_const_iterator@V?$_Tree_val@V?$_Tmap_traits@HPAXU?$less@H@std@@V?$allocator@U?$pair@$$CBHPAX@std@@@2@$0A@@std@@@std@@@std@@QBEABU?$pair@$$CBHPAX@1@XZ
_TEXT	SEGMENT
??D?$_Tree_const_iterator@V?$_Tree_val@V?$_Tmap_traits@HPAXU?$less@H@std@@V?$allocator@U?$pair@$$CBHPAX@std@@@2@$0A@@std@@@std@@@std@@QBEABU?$pair@$$CBHPAX@1@XZ PROC ; std::_Tree_const_iterator<std::_Tree_val<std::_Tmap_traits<int,void *,std::less<int>,std::allocator<std::pair<int const ,void *> >,0> > >::operator*, COMDAT
; _this$ = ecx

; 231  :  #if _ITERATOR_DEBUG_LEVEL == 2
; 232  : 		if (this->_Getcont() == 0
; 233  : 			|| this->_Ptr == 0
; 234  : 			|| this->_Ptr == ((_Mytree *)this->_Getcont())->_Myhead)
; 235  : 			{	// report error
; 236  : 			_DEBUG_ERROR("map/set iterator not dereferencable");
; 237  : 			_SCL_SECURE_OUT_OF_RANGE;
; 238  : 			}
; 239  : 
; 240  :  #elif _ITERATOR_DEBUG_LEVEL == 1
; 241  : 		_SCL_SECURE_VALIDATE(this->_Getcont() != 0 && this->_Ptr != 0);
; 242  : 		_SCL_SECURE_VALIDATE_RANGE(this->_Ptr !=
; 243  : 			((_Mytree *)this->_Getcont())->_Myhead);
; 244  :  #endif /* _ITERATOR_DEBUG_LEVEL */
; 245  : 
; 246  : 		return (_Mytree::_Myval(this->_Ptr));

  00000	8b 01		 mov	 eax, DWORD PTR [ecx]
  00002	83 c0 0c	 add	 eax, 12			; 0000000cH

; 247  : 		}

  00005	c3		 ret	 0
??D?$_Tree_const_iterator@V?$_Tree_val@V?$_Tmap_traits@HPAXU?$less@H@std@@V?$allocator@U?$pair@$$CBHPAX@std@@@2@$0A@@std@@@std@@@std@@QBEABU?$pair@$$CBHPAX@1@XZ ENDP ; std::_Tree_const_iterator<std::_Tree_val<std::_Tmap_traits<int,void *,std::less<int>,std::allocator<std::pair<int const ,void *> >,0> > >::operator*
_TEXT	ENDS
PUBLIC	??0?$_Tree_unchecked_const_iterator@V?$_Tree_val@V?$_Tmap_traits@HPAXU?$less@H@std@@V?$allocator@U?$pair@$$CBHPAX@std@@@2@$0A@@std@@@std@@U_Iterator_base0@2@@std@@QAE@XZ ; std::_Tree_unchecked_const_iterator<std::_Tree_val<std::_Tmap_traits<int,void *,std::less<int>,std::allocator<std::pair<int const ,void *> >,0> >,std::_Iterator_base0>::_Tree_unchecked_const_iterator<std::_Tree_val<std::_Tmap_traits<int,void *,std::less<int>,std::allocator<std::pair<int const ,void *> >,0> >,std::_Iterator_base0>
; Function compile flags: /Ogtp
;	COMDAT ??0?$_Tree_unchecked_const_iterator@V?$_Tree_val@V?$_Tmap_traits@HPAXU?$less@H@std@@V?$allocator@U?$pair@$$CBHPAX@std@@@2@$0A@@std@@@std@@U_Iterator_base0@2@@std@@QAE@XZ
_TEXT	SEGMENT
??0?$_Tree_unchecked_const_iterator@V?$_Tree_val@V?$_Tmap_traits@HPAXU?$less@H@std@@V?$allocator@U?$pair@$$CBHPAX@std@@@2@$0A@@std@@@std@@U_Iterator_base0@2@@std@@QAE@XZ PROC ; std::_Tree_unchecked_const_iterator<std::_Tree_val<std::_Tmap_traits<int,void *,std::less<int>,std::allocator<std::pair<int const ,void *> >,0> >,std::_Iterator_base0>::_Tree_unchecked_const_iterator<std::_Tree_val<std::_Tmap_traits<int,void *,std::less<int>,std::allocator<std::pair<int const ,void *> >,0> >,std::_Iterator_base0>, COMDAT
; _this$ = ecx

; 38   : 		{	// construct with null node pointer

  00000	8b c1		 mov	 eax, ecx
  00002	c7 00 00 00 00
	00		 mov	 DWORD PTR [eax], 0

; 39   : 		}

  00008	c3		 ret	 0
??0?$_Tree_unchecked_const_iterator@V?$_Tree_val@V?$_Tmap_traits@HPAXU?$less@H@std@@V?$allocator@U?$pair@$$CBHPAX@std@@@2@$0A@@std@@@std@@U_Iterator_base0@2@@std@@QAE@XZ ENDP ; std::_Tree_unchecked_const_iterator<std::_Tree_val<std::_Tmap_traits<int,void *,std::less<int>,std::allocator<std::pair<int const ,void *> >,0> >,std::_Iterator_base0>::_Tree_unchecked_const_iterator<std::_Tree_val<std::_Tmap_traits<int,void *,std::less<int>,std::allocator<std::pair<int const ,void *> >,0> >,std::_Iterator_base0>
_TEXT	ENDS
PUBLIC	??E?$_Vector_const_iterator@V?$_Vector_val@UEVENT_ID_TIME@@V?$allocator@UEVENT_ID_TIME@@@std@@@std@@@std@@QAEAAV01@XZ ; std::_Vector_const_iterator<std::_Vector_val<EVENT_ID_TIME,std::allocator<EVENT_ID_TIME> > >::operator++
; Function compile flags: /Ogtp
; File c:\program files (x86)\microsoft visual studio 10.0\vc\include\vector
;	COMDAT ??E?$_Vector_const_iterator@V?$_Vector_val@UEVENT_ID_TIME@@V?$allocator@UEVENT_ID_TIME@@@std@@@std@@@std@@QAEAAV01@XZ
_TEXT	SEGMENT
??E?$_Vector_const_iterator@V?$_Vector_val@UEVENT_ID_TIME@@V?$allocator@UEVENT_ID_TIME@@@std@@@std@@@std@@QAEAAV01@XZ PROC ; std::_Vector_const_iterator<std::_Vector_val<EVENT_ID_TIME,std::allocator<EVENT_ID_TIME> > >::operator++, COMDAT
; _this$ = ecx

; 93   : 		{	// preincrement

  00000	8b c1		 mov	 eax, ecx

; 94   :  #if _ITERATOR_DEBUG_LEVEL == 2
; 95   : 		if (this->_Getcont() == 0
; 96   : 			|| this->_Ptr == 0
; 97   : 			|| ((_Myvec *)this->_Getcont())->_Mylast <= this->_Ptr)
; 98   : 			{	// report error
; 99   : 			_DEBUG_ERROR("vector iterator not incrementable");
; 100  : 			_SCL_SECURE_OUT_OF_RANGE;
; 101  : 			}
; 102  : 
; 103  :  #elif _ITERATOR_DEBUG_LEVEL == 1
; 104  : 		_SCL_SECURE_VALIDATE(this->_Getcont() != 0);
; 105  : 		_SCL_SECURE_VALIDATE_RANGE(
; 106  : 			this->_Ptr != 0
; 107  : 			&& this->_Ptr < ((_Myvec *)this->_Getcont())->_Mylast);
; 108  :  #endif /* _ITERATOR_DEBUG_LEVEL */
; 109  : 
; 110  : 		++this->_Ptr;

  00002	83 00 10	 add	 DWORD PTR [eax], 16	; 00000010H

; 111  : 		return (*this);
; 112  : 		}

  00005	c3		 ret	 0
??E?$_Vector_const_iterator@V?$_Vector_val@UEVENT_ID_TIME@@V?$allocator@UEVENT_ID_TIME@@@std@@@std@@@std@@QAEAAV01@XZ ENDP ; std::_Vector_const_iterator<std::_Vector_val<EVENT_ID_TIME,std::allocator<EVENT_ID_TIME> > >::operator++
_TEXT	ENDS
PUBLIC	?_Compat@?$_Vector_const_iterator@V?$_Vector_val@UEVENT_ID_TIME@@V?$allocator@UEVENT_ID_TIME@@@std@@@std@@@std@@QBEXABV12@@Z ; std::_Vector_const_iterator<std::_Vector_val<EVENT_ID_TIME,std::allocator<EVENT_ID_TIME> > >::_Compat
; Function compile flags: /Ogtp
;	COMDAT ?_Compat@?$_Vector_const_iterator@V?$_Vector_val@UEVENT_ID_TIME@@V?$allocator@UEVENT_ID_TIME@@@std@@@std@@@std@@QBEXABV12@@Z
_TEXT	SEGMENT
___formal$ = 8						; size = 4
?_Compat@?$_Vector_const_iterator@V?$_Vector_val@UEVENT_ID_TIME@@V?$allocator@UEVENT_ID_TIME@@@std@@@std@@@std@@QBEXABV12@@Z PROC ; std::_Vector_const_iterator<std::_Vector_val<EVENT_ID_TIME,std::allocator<EVENT_ID_TIME> > >::_Compat, COMDAT
; _this$ = ecx

; 253  : 		}

  00000	c2 04 00	 ret	 4
?_Compat@?$_Vector_const_iterator@V?$_Vector_val@UEVENT_ID_TIME@@V?$allocator@UEVENT_ID_TIME@@@std@@@std@@@std@@QBEXABV12@@Z ENDP ; std::_Vector_const_iterator<std::_Vector_val<EVENT_ID_TIME,std::allocator<EVENT_ID_TIME> > >::_Compat
_TEXT	ENDS
PUBLIC	?max_size@?$allocator@UEVENT_ID_TIME@@@std@@QBEIXZ ; std::allocator<EVENT_ID_TIME>::max_size
; Function compile flags: /Ogtp
; File c:\program files (x86)\microsoft visual studio 10.0\vc\include\xmemory
;	COMDAT ?max_size@?$allocator@UEVENT_ID_TIME@@@std@@QBEIXZ
_TEXT	SEGMENT
?max_size@?$allocator@UEVENT_ID_TIME@@@std@@QBEIXZ PROC	; std::allocator<EVENT_ID_TIME>::max_size, COMDAT
; _this$ = ecx

; 218  : 		_SIZT _Count = (_SIZT)(-1) / sizeof (_Ty);
; 219  : 		return (0 < _Count ? _Count : 1);

  00000	b8 ff ff ff 0f	 mov	 eax, 268435455		; 0fffffffH

; 220  : 		}

  00005	c3		 ret	 0
?max_size@?$allocator@UEVENT_ID_TIME@@@std@@QBEIXZ ENDP	; std::allocator<EVENT_ID_TIME>::max_size
_TEXT	ENDS
PUBLIC	?_Color@?$_Tree_val@V?$_Tmap_traits@HPAXU?$less@H@std@@V?$allocator@U?$pair@$$CBHPAX@std@@@2@$0A@@std@@@std@@SAAADPAU_Node@?$_Tree_nod@V?$_Tmap_traits@HPAXU?$less@H@std@@V?$allocator@U?$pair@$$CBHPAX@std@@@2@$0A@@std@@@2@@Z ; std::_Tree_val<std::_Tmap_traits<int,void *,std::less<int>,std::allocator<std::pair<int const ,void *> >,0> >::_Color
; Function compile flags: /Ogtp
; File c:\program files (x86)\microsoft visual studio 10.0\vc\include\xtree
;	COMDAT ?_Color@?$_Tree_val@V?$_Tmap_traits@HPAXU?$less@H@std@@V?$allocator@U?$pair@$$CBHPAX@std@@@2@$0A@@std@@@std@@SAAADPAU_Node@?$_Tree_nod@V?$_Tmap_traits@HPAXU?$less@H@std@@V?$allocator@U?$pair@$$CBHPAX@std@@@2@$0A@@std@@@2@@Z
_TEXT	SEGMENT
__Pnode$ = 8						; size = 4
?_Color@?$_Tree_val@V?$_Tmap_traits@HPAXU?$less@H@std@@V?$allocator@U?$pair@$$CBHPAX@std@@@2@$0A@@std@@@std@@SAAADPAU_Node@?$_Tree_nod@V?$_Tmap_traits@HPAXU?$less@H@std@@V?$allocator@U?$pair@$$CBHPAX@std@@@2@$0A@@std@@@2@@Z PROC ; std::_Tree_val<std::_Tmap_traits<int,void *,std::less<int>,std::allocator<std::pair<int const ,void *> >,0> >::_Color, COMDAT

; 606  : 		{	// return reference to color in node

  00000	55		 push	 ebp
  00001	8b ec		 mov	 ebp, esp

; 607  : 		return ((char&)(*_Pnode)._Color);

  00003	8b 45 08	 mov	 eax, DWORD PTR __Pnode$[ebp]
  00006	83 c0 14	 add	 eax, 20			; 00000014H

; 608  : 		}

  00009	5d		 pop	 ebp
  0000a	c3		 ret	 0
?_Color@?$_Tree_val@V?$_Tmap_traits@HPAXU?$less@H@std@@V?$allocator@U?$pair@$$CBHPAX@std@@@2@$0A@@std@@@std@@SAAADPAU_Node@?$_Tree_nod@V?$_Tmap_traits@HPAXU?$less@H@std@@V?$allocator@U?$pair@$$CBHPAX@std@@@2@$0A@@std@@@2@@Z ENDP ; std::_Tree_val<std::_Tmap_traits<int,void *,std::less<int>,std::allocator<std::pair<int const ,void *> >,0> >::_Color
_TEXT	ENDS
PUBLIC	?_Max@?$_Tree_val@V?$_Tmap_traits@HPAXU?$less@H@std@@V?$allocator@U?$pair@$$CBHPAX@std@@@2@$0A@@std@@@std@@SAPAU_Node@?$_Tree_nod@V?$_Tmap_traits@HPAXU?$less@H@std@@V?$allocator@U?$pair@$$CBHPAX@std@@@2@$0A@@std@@@2@PAU342@@Z ; std::_Tree_val<std::_Tmap_traits<int,void *,std::less<int>,std::allocator<std::pair<int const ,void *> >,0> >::_Max
; Function compile flags: /Ogtp
;	COMDAT ?_Max@?$_Tree_val@V?$_Tmap_traits@HPAXU?$less@H@std@@V?$allocator@U?$pair@$$CBHPAX@std@@@2@$0A@@std@@@std@@SAPAU_Node@?$_Tree_nod@V?$_Tmap_traits@HPAXU?$less@H@std@@V?$allocator@U?$pair@$$CBHPAX@std@@@2@$0A@@std@@@2@PAU342@@Z
_TEXT	SEGMENT
__Pnode$ = 8						; size = 4
?_Max@?$_Tree_val@V?$_Tmap_traits@HPAXU?$less@H@std@@V?$allocator@U?$pair@$$CBHPAX@std@@@2@$0A@@std@@@std@@SAPAU_Node@?$_Tree_nod@V?$_Tmap_traits@HPAXU?$less@H@std@@V?$allocator@U?$pair@$$CBHPAX@std@@@2@$0A@@std@@@2@PAU342@@Z PROC ; std::_Tree_val<std::_Tmap_traits<int,void *,std::less<int>,std::allocator<std::pair<int const ,void *> >,0> >::_Max, COMDAT

; 641  : 		{	// return rightmost node in subtree at _Pnode

  00000	55		 push	 ebp
  00001	8b ec		 mov	 ebp, esp

; 642  : 		while (!_Isnil(_Right(_Pnode)))

  00003	8b 45 08	 mov	 eax, DWORD PTR __Pnode$[ebp]
  00006	8b 48 08	 mov	 ecx, DWORD PTR [eax+8]
  00009	80 79 15 00	 cmp	 BYTE PTR [ecx+21], 0
  0000d	75 0c		 jne	 SHORT $LN1@Max
  0000f	90		 npad	 1
$LL2@Max:

; 643  : 			_Pnode = _Right(_Pnode);

  00010	8b c1		 mov	 eax, ecx
  00012	8b 48 08	 mov	 ecx, DWORD PTR [eax+8]
  00015	80 79 15 00	 cmp	 BYTE PTR [ecx+21], 0
  00019	74 f5		 je	 SHORT $LL2@Max
$LN1@Max:

; 644  : 		return (_Pnode);
; 645  : 		}

  0001b	5d		 pop	 ebp
  0001c	c3		 ret	 0
?_Max@?$_Tree_val@V?$_Tmap_traits@HPAXU?$less@H@std@@V?$allocator@U?$pair@$$CBHPAX@std@@@2@$0A@@std@@@std@@SAPAU_Node@?$_Tree_nod@V?$_Tmap_traits@HPAXU?$less@H@std@@V?$allocator@U?$pair@$$CBHPAX@std@@@2@$0A@@std@@@2@PAU342@@Z ENDP ; std::_Tree_val<std::_Tmap_traits<int,void *,std::less<int>,std::allocator<std::pair<int const ,void *> >,0> >::_Max
_TEXT	ENDS
PUBLIC	?_Min@?$_Tree_val@V?$_Tmap_traits@HPAXU?$less@H@std@@V?$allocator@U?$pair@$$CBHPAX@std@@@2@$0A@@std@@@std@@SAPAU_Node@?$_Tree_nod@V?$_Tmap_traits@HPAXU?$less@H@std@@V?$allocator@U?$pair@$$CBHPAX@std@@@2@$0A@@std@@@2@PAU342@@Z ; std::_Tree_val<std::_Tmap_traits<int,void *,std::less<int>,std::allocator<std::pair<int const ,void *> >,0> >::_Min
; Function compile flags: /Ogtp
;	COMDAT ?_Min@?$_Tree_val@V?$_Tmap_traits@HPAXU?$less@H@std@@V?$allocator@U?$pair@$$CBHPAX@std@@@2@$0A@@std@@@std@@SAPAU_Node@?$_Tree_nod@V?$_Tmap_traits@HPAXU?$less@H@std@@V?$allocator@U?$pair@$$CBHPAX@std@@@2@$0A@@std@@@2@PAU342@@Z
_TEXT	SEGMENT
__Pnode$ = 8						; size = 4
?_Min@?$_Tree_val@V?$_Tmap_traits@HPAXU?$less@H@std@@V?$allocator@U?$pair@$$CBHPAX@std@@@2@$0A@@std@@@std@@SAPAU_Node@?$_Tree_nod@V?$_Tmap_traits@HPAXU?$less@H@std@@V?$allocator@U?$pair@$$CBHPAX@std@@@2@$0A@@std@@@2@PAU342@@Z PROC ; std::_Tree_val<std::_Tmap_traits<int,void *,std::less<int>,std::allocator<std::pair<int const ,void *> >,0> >::_Min, COMDAT

; 648  : 		{	// return leftmost node in subtree at _Pnode

  00000	55		 push	 ebp
  00001	8b ec		 mov	 ebp, esp

; 649  : 		while (!_Isnil(_Left(_Pnode)))

  00003	8b 45 08	 mov	 eax, DWORD PTR __Pnode$[ebp]
  00006	8b 08		 mov	 ecx, DWORD PTR [eax]
  00008	80 79 15 00	 cmp	 BYTE PTR [ecx+21], 0
  0000c	75 0c		 jne	 SHORT $LN1@Min
  0000e	8b ff		 npad	 2
$LL2@Min:

; 650  : 			_Pnode = _Left(_Pnode);

  00010	8b c1		 mov	 eax, ecx
  00012	8b 08		 mov	 ecx, DWORD PTR [eax]
  00014	80 79 15 00	 cmp	 BYTE PTR [ecx+21], 0
  00018	74 f6		 je	 SHORT $LL2@Min
$LN1@Min:

; 651  : 		return (_Pnode);
; 652  : 		}

  0001a	5d		 pop	 ebp
  0001b	c3		 ret	 0
?_Min@?$_Tree_val@V?$_Tmap_traits@HPAXU?$less@H@std@@V?$allocator@U?$pair@$$CBHPAX@std@@@2@$0A@@std@@@std@@SAPAU_Node@?$_Tree_nod@V?$_Tmap_traits@HPAXU?$less@H@std@@V?$allocator@U?$pair@$$CBHPAX@std@@@2@$0A@@std@@@2@PAU342@@Z ENDP ; std::_Tree_val<std::_Tmap_traits<int,void *,std::less<int>,std::allocator<std::pair<int const ,void *> >,0> >::_Min
_TEXT	ENDS
PUBLIC	??0?$_Tmap_traits@HPAXU?$less@H@std@@V?$allocator@U?$pair@$$CBHPAX@std@@@2@$0A@@std@@QAE@U?$less@H@1@@Z ; std::_Tmap_traits<int,void *,std::less<int>,std::allocator<std::pair<int const ,void *> >,0>::_Tmap_traits<int,void *,std::less<int>,std::allocator<std::pair<int const ,void *> >,0>
; Function compile flags: /Ogtp
; File c:\program files (x86)\microsoft visual studio 10.0\vc\include\map
;	COMDAT ??0?$_Tmap_traits@HPAXU?$less@H@std@@V?$allocator@U?$pair@$$CBHPAX@std@@@2@$0A@@std@@QAE@U?$less@H@1@@Z
_TEXT	SEGMENT
__Parg$ = 8						; size = 1
??0?$_Tmap_traits@HPAXU?$less@H@std@@V?$allocator@U?$pair@$$CBHPAX@std@@@2@$0A@@std@@QAE@U?$less@H@1@@Z PROC ; std::_Tmap_traits<int,void *,std::less<int>,std::allocator<std::pair<int const ,void *> >,0>::_Tmap_traits<int,void *,std::less<int>,std::allocator<std::pair<int const ,void *> >,0>, COMDAT
; _this$ = ecx

; 40   : 		{	// construct with specified comparator

  00000	8b c1		 mov	 eax, ecx

; 41   : 		}

  00002	c2 04 00	 ret	 4
??0?$_Tmap_traits@HPAXU?$less@H@std@@V?$allocator@U?$pair@$$CBHPAX@std@@@2@$0A@@std@@QAE@U?$less@H@1@@Z ENDP ; std::_Tmap_traits<int,void *,std::less<int>,std::allocator<std::pair<int const ,void *> >,0>::_Tmap_traits<int,void *,std::less<int>,std::allocator<std::pair<int const ,void *> >,0>
_TEXT	ENDS
PUBLIC	??E?$_Tree_unchecked_const_iterator@V?$_Tree_val@V?$_Tmap_traits@HPAXU?$less@H@std@@V?$allocator@U?$pair@$$CBHPAX@std@@@2@$0A@@std@@@std@@U_Iterator_base0@2@@std@@QAEAAV01@XZ ; std::_Tree_unchecked_const_iterator<std::_Tree_val<std::_Tmap_traits<int,void *,std::less<int>,std::allocator<std::pair<int const ,void *> >,0> >,std::_Iterator_base0>::operator++
; Function compile flags: /Ogtp
; File c:\program files (x86)\microsoft visual studio 10.0\vc\include\xtree
;	COMDAT ??E?$_Tree_unchecked_const_iterator@V?$_Tree_val@V?$_Tmap_traits@HPAXU?$less@H@std@@V?$allocator@U?$pair@$$CBHPAX@std@@@2@$0A@@std@@@std@@U_Iterator_base0@2@@std@@QAEAAV01@XZ
_TEXT	SEGMENT
??E?$_Tree_unchecked_const_iterator@V?$_Tree_val@V?$_Tmap_traits@HPAXU?$less@H@std@@V?$allocator@U?$pair@$$CBHPAX@std@@@2@$0A@@std@@@std@@U_Iterator_base0@2@@std@@QAEAAV01@XZ PROC ; std::_Tree_unchecked_const_iterator<std::_Tree_val<std::_Tmap_traits<int,void *,std::less<int>,std::allocator<std::pair<int const ,void *> >,0> >,std::_Iterator_base0>::operator++, COMDAT
; _this$ = ecx

; 58   : 		{	// preincrement

  00000	8b c1		 mov	 eax, ecx

; 59   : 		if (_Mytree::_Isnil(_Ptr))

  00002	8b 10		 mov	 edx, DWORD PTR [eax]
  00004	80 7a 15 00	 cmp	 BYTE PTR [edx+21], 0
  00008	75 40		 jne	 SHORT $LN3@operator

; 60   : 			;	// end() shouldn't be incremented, don't move
; 61   : 		else if (!_Mytree::_Isnil(_Mytree::_Right(_Ptr)))

  0000a	8b 4a 08	 mov	 ecx, DWORD PTR [edx+8]
  0000d	80 79 15 00	 cmp	 BYTE PTR [ecx+21], 0
  00011	75 1a		 jne	 SHORT $LN34@operator

; 62   : 			_Ptr = _Mytree::_Min(
; 63   : 				_Mytree::_Right(_Ptr));	// ==> smallest of right subtree

  00013	8b 11		 mov	 edx, DWORD PTR [ecx]
  00015	80 7a 15 00	 cmp	 BYTE PTR [edx+21], 0
  00019	75 0f		 jne	 SHORT $LN17@operator
  0001b	eb 03 8d 49 00	 npad	 5
$LL18@operator:
  00020	8b ca		 mov	 ecx, edx
  00022	8b 11		 mov	 edx, DWORD PTR [ecx]
  00024	80 7a 15 00	 cmp	 BYTE PTR [edx+21], 0
  00028	74 f6		 je	 SHORT $LL18@operator
$LN17@operator:
  0002a	89 08		 mov	 DWORD PTR [eax], ecx

; 71   : 			}
; 72   : 		return (*this);
; 73   : 		}

  0002c	c3		 ret	 0
$LN34@operator:

; 64   : 		else
; 65   : 			{	// climb looking for right subtree
; 66   : 			_Nodeptr _Pnode;
; 67   : 			while (!_Mytree::_Isnil(_Pnode = _Mytree::_Parent(_Ptr))
; 68   : 				&& _Ptr == _Mytree::_Right(_Pnode))

  0002d	8b 52 04	 mov	 edx, DWORD PTR [edx+4]
  00030	80 7a 15 00	 cmp	 BYTE PTR [edx+21], 0
  00034	75 12		 jne	 SHORT $LN1@operator
$LL2@operator:
  00036	8b 08		 mov	 ecx, DWORD PTR [eax]
  00038	3b 4a 08	 cmp	 ecx, DWORD PTR [edx+8]
  0003b	75 0b		 jne	 SHORT $LN1@operator

; 69   : 				_Ptr = _Pnode;	// ==> parent while right subtree

  0003d	89 10		 mov	 DWORD PTR [eax], edx
  0003f	8b 52 04	 mov	 edx, DWORD PTR [edx+4]
  00042	80 7a 15 00	 cmp	 BYTE PTR [edx+21], 0
  00046	74 ee		 je	 SHORT $LL2@operator
$LN1@operator:

; 70   : 			_Ptr = _Pnode;	// ==> parent (head if end())

  00048	89 10		 mov	 DWORD PTR [eax], edx
$LN3@operator:

; 71   : 			}
; 72   : 		return (*this);
; 73   : 		}

  0004a	c3		 ret	 0
??E?$_Tree_unchecked_const_iterator@V?$_Tree_val@V?$_Tmap_traits@HPAXU?$less@H@std@@V?$allocator@U?$pair@$$CBHPAX@std@@@2@$0A@@std@@@std@@U_Iterator_base0@2@@std@@QAEAAV01@XZ ENDP ; std::_Tree_unchecked_const_iterator<std::_Tree_val<std::_Tmap_traits<int,void *,std::less<int>,std::allocator<std::pair<int const ,void *> >,0> >,std::_Iterator_base0>::operator++
_TEXT	ENDS
PUBLIC	??$addressof@$$CBUEVENT_ID_TIME@@@std@@YAPBUEVENT_ID_TIME@@ABU1@@Z ; std::addressof<EVENT_ID_TIME const >
; Function compile flags: /Ogtp
; File c:\program files (x86)\microsoft visual studio 10.0\vc\include\xmemory
;	COMDAT ??$addressof@$$CBUEVENT_ID_TIME@@@std@@YAPBUEVENT_ID_TIME@@ABU1@@Z
_TEXT	SEGMENT
__Val$ = 8						; size = 4
??$addressof@$$CBUEVENT_ID_TIME@@@std@@YAPBUEVENT_ID_TIME@@ABU1@@Z PROC ; std::addressof<EVENT_ID_TIME const >, COMDAT

; 110  : 	{	// return address of _Val

  00000	55		 push	 ebp
  00001	8b ec		 mov	 ebp, esp

; 111  : 	return ((_Ty *) &(char&)_Val);

  00003	8b 45 08	 mov	 eax, DWORD PTR __Val$[ebp]

; 112  : 	}

  00006	5d		 pop	 ebp
  00007	c3		 ret	 0
??$addressof@$$CBUEVENT_ID_TIME@@@std@@YAPBUEVENT_ID_TIME@@ABU1@@Z ENDP ; std::addressof<EVENT_ID_TIME const >
_TEXT	ENDS
PUBLIC	??$addressof@U?$pair@$$CBHPAX@std@@@std@@YAPAU?$pair@$$CBHPAX@0@AAU10@@Z ; std::addressof<std::pair<int const ,void *> >
; Function compile flags: /Ogtp
;	COMDAT ??$addressof@U?$pair@$$CBHPAX@std@@@std@@YAPAU?$pair@$$CBHPAX@0@AAU10@@Z
_TEXT	SEGMENT
__Val$ = 8						; size = 4
??$addressof@U?$pair@$$CBHPAX@std@@@std@@YAPAU?$pair@$$CBHPAX@0@AAU10@@Z PROC ; std::addressof<std::pair<int const ,void *> >, COMDAT

; 110  : 	{	// return address of _Val

  00000	55		 push	 ebp
  00001	8b ec		 mov	 ebp, esp

; 111  : 	return ((_Ty *) &(char&)_Val);

  00003	8b 45 08	 mov	 eax, DWORD PTR __Val$[ebp]

; 112  : 	}

  00006	5d		 pop	 ebp
  00007	c3		 ret	 0
??$addressof@U?$pair@$$CBHPAX@std@@@std@@YAPAU?$pair@$$CBHPAX@0@AAU10@@Z ENDP ; std::addressof<std::pair<int const ,void *> >
_TEXT	ENDS
PUBLIC	??$_Kfn@$$CBHPAX@?$_Tmap_traits@HPAXU?$less@H@std@@V?$allocator@U?$pair@$$CBHPAX@std@@@2@$0A@@std@@SAABHABU?$pair@$$CBHPAX@1@@Z ; std::_Tmap_traits<int,void *,std::less<int>,std::allocator<std::pair<int const ,void *> >,0>::_Kfn<int const ,void *>
; Function compile flags: /Ogtp
; File c:\program files (x86)\microsoft visual studio 10.0\vc\include\map
;	COMDAT ??$_Kfn@$$CBHPAX@?$_Tmap_traits@HPAXU?$less@H@std@@V?$allocator@U?$pair@$$CBHPAX@std@@@2@$0A@@std@@SAABHABU?$pair@$$CBHPAX@1@@Z
_TEXT	SEGMENT
__Val$ = 8						; size = 4
??$_Kfn@$$CBHPAX@?$_Tmap_traits@HPAXU?$less@H@std@@V?$allocator@U?$pair@$$CBHPAX@std@@@2@$0A@@std@@SAABHABU?$pair@$$CBHPAX@1@@Z PROC ; std::_Tmap_traits<int,void *,std::less<int>,std::allocator<std::pair<int const ,void *> >,0>::_Kfn<int const ,void *>, COMDAT

; 66   : 		static const _Kty& _Kfn(const _STD pair<_Ty1, _Ty2>& _Val)

  00000	55		 push	 ebp
  00001	8b ec		 mov	 ebp, esp

; 67   : 		{	// extract key from element value
; 68   : 		return (_Val.first);

  00003	8b 45 08	 mov	 eax, DWORD PTR __Val$[ebp]

; 69   : 		}

  00006	5d		 pop	 ebp
  00007	c3		 ret	 0
??$_Kfn@$$CBHPAX@?$_Tmap_traits@HPAXU?$less@H@std@@V?$allocator@U?$pair@$$CBHPAX@std@@@2@$0A@@std@@SAABHABU?$pair@$$CBHPAX@1@@Z ENDP ; std::_Tmap_traits<int,void *,std::less<int>,std::allocator<std::pair<int const ,void *> >,0>::_Kfn<int const ,void *>
_TEXT	ENDS
PUBLIC	??$?0U?$pair@$$CBHPAX@std@@@?$allocator@U_Node@?$_Tree_nod@V?$_Tmap_traits@HPAXU?$less@H@std@@V?$allocator@U?$pair@$$CBHPAX@std@@@2@$0A@@std@@@std@@@std@@QAE@ABV?$allocator@U?$pair@$$CBHPAX@std@@@1@@Z ; std::allocator<std::_Tree_nod<std::_Tmap_traits<int,void *,std::less<int>,std::allocator<std::pair<int const ,void *> >,0> >::_Node>::allocator<std::_Tree_nod<std::_Tmap_traits<int,void *,std::less<int>,std::allocator<std::pair<int const ,void *> >,0> >::_Node><std::pair<int const ,void *> >
; Function compile flags: /Ogtp
; File c:\program files (x86)\microsoft visual studio 10.0\vc\include\xmemory
;	COMDAT ??$?0U?$pair@$$CBHPAX@std@@@?$allocator@U_Node@?$_Tree_nod@V?$_Tmap_traits@HPAXU?$less@H@std@@V?$allocator@U?$pair@$$CBHPAX@std@@@2@$0A@@std@@@std@@@std@@QAE@ABV?$allocator@U?$pair@$$CBHPAX@std@@@1@@Z
_TEXT	SEGMENT
___formal$ = 8						; size = 4
??$?0U?$pair@$$CBHPAX@std@@@?$allocator@U_Node@?$_Tree_nod@V?$_Tmap_traits@HPAXU?$less@H@std@@V?$allocator@U?$pair@$$CBHPAX@std@@@2@$0A@@std@@@std@@@std@@QAE@ABV?$allocator@U?$pair@$$CBHPAX@std@@@1@@Z PROC ; std::allocator<std::_Tree_nod<std::_Tmap_traits<int,void *,std::less<int>,std::allocator<std::pair<int const ,void *> >,0> >::_Node>::allocator<std::_Tree_nod<std::_Tmap_traits<int,void *,std::less<int>,std::allocator<std::pair<int const ,void *> >,0> >::_Node><std::pair<int const ,void *> >, COMDAT
; _this$ = ecx

; 170  : 		_ALLOCATOR(const _ALLOCATOR<_Other>&) _THROW0()

  00000	8b c1		 mov	 eax, ecx

; 171  : 		{	// construct from a related allocator (do nothing)
; 172  : 		}

  00002	c2 04 00	 ret	 4
??$?0U?$pair@$$CBHPAX@std@@@?$allocator@U_Node@?$_Tree_nod@V?$_Tmap_traits@HPAXU?$less@H@std@@V?$allocator@U?$pair@$$CBHPAX@std@@@2@$0A@@std@@@std@@@std@@QAE@ABV?$allocator@U?$pair@$$CBHPAX@std@@@1@@Z ENDP ; std::allocator<std::_Tree_nod<std::_Tmap_traits<int,void *,std::less<int>,std::allocator<std::pair<int const ,void *> >,0> >::_Node>::allocator<std::_Tree_nod<std::_Tmap_traits<int,void *,std::less<int>,std::allocator<std::pair<int const ,void *> >,0> >::_Node><std::pair<int const ,void *> >
_TEXT	ENDS
PUBLIC	?max_size@?$allocator@U?$pair@$$CBHPAX@std@@@std@@QBEIXZ ; std::allocator<std::pair<int const ,void *> >::max_size
; Function compile flags: /Ogtp
;	COMDAT ?max_size@?$allocator@U?$pair@$$CBHPAX@std@@@std@@QBEIXZ
_TEXT	SEGMENT
?max_size@?$allocator@U?$pair@$$CBHPAX@std@@@std@@QBEIXZ PROC ; std::allocator<std::pair<int const ,void *> >::max_size, COMDAT
; _this$ = ecx

; 218  : 		_SIZT _Count = (_SIZT)(-1) / sizeof (_Ty);
; 219  : 		return (0 < _Count ? _Count : 1);

  00000	b8 ff ff ff 1f	 mov	 eax, 536870911		; 1fffffffH

; 220  : 		}

  00005	c3		 ret	 0
?max_size@?$allocator@U?$pair@$$CBHPAX@std@@@std@@QBEIXZ ENDP ; std::allocator<std::pair<int const ,void *> >::max_size
_TEXT	ENDS
PUBLIC	??F?$_Tree_unchecked_const_iterator@V?$_Tree_val@V?$_Tmap_traits@HPAXU?$less@H@std@@V?$allocator@U?$pair@$$CBHPAX@std@@@2@$0A@@std@@@std@@U_Iterator_base0@2@@std@@QAEAAV01@XZ ; std::_Tree_unchecked_const_iterator<std::_Tree_val<std::_Tmap_traits<int,void *,std::less<int>,std::allocator<std::pair<int const ,void *> >,0> >,std::_Iterator_base0>::operator--
; Function compile flags: /Ogtp
; File c:\program files (x86)\microsoft visual studio 10.0\vc\include\xtree
;	COMDAT ??F?$_Tree_unchecked_const_iterator@V?$_Tree_val@V?$_Tmap_traits@HPAXU?$less@H@std@@V?$allocator@U?$pair@$$CBHPAX@std@@@2@$0A@@std@@@std@@U_Iterator_base0@2@@std@@QAEAAV01@XZ
_TEXT	SEGMENT
??F?$_Tree_unchecked_const_iterator@V?$_Tree_val@V?$_Tmap_traits@HPAXU?$less@H@std@@V?$allocator@U?$pair@$$CBHPAX@std@@@2@$0A@@std@@@std@@U_Iterator_base0@2@@std@@QAEAAV01@XZ PROC ; std::_Tree_unchecked_const_iterator<std::_Tree_val<std::_Tmap_traits<int,void *,std::less<int>,std::allocator<std::pair<int const ,void *> >,0> >,std::_Iterator_base0>::operator--, COMDAT
; _this$ = ecx

; 83   : 		{	// predecrement

  00000	8b c1		 mov	 eax, ecx

; 84   : 		if (_Mytree::_Isnil(_Ptr))

  00002	8b 08		 mov	 ecx, DWORD PTR [eax]
  00004	80 79 15 00	 cmp	 BYTE PTR [ecx+21], 0
  00008	74 06		 je	 SHORT $LN8@operator@2

; 85   : 			_Ptr = _Mytree::_Right(_Ptr);	// end() ==> rightmost

  0000a	8b 49 08	 mov	 ecx, DWORD PTR [ecx+8]
  0000d	89 08		 mov	 DWORD PTR [eax], ecx

; 99   : 			}
; 100  : 		return (*this);
; 101  : 		}

  0000f	c3		 ret	 0
$LN8@operator@2:

; 86   : 		else if (!_Mytree::_Isnil(_Mytree::_Left(_Ptr)))

  00010	8b 11		 mov	 edx, DWORD PTR [ecx]
  00012	80 7a 15 00	 cmp	 BYTE PTR [edx+21], 0
  00016	75 17		 jne	 SHORT $LN40@operator@2

; 87   : 			_Ptr = _Mytree::_Max(
; 88   : 				_Mytree::_Left(_Ptr));	// ==> largest of left subtree

  00018	8b 4a 08	 mov	 ecx, DWORD PTR [edx+8]
  0001b	80 79 15 00	 cmp	 BYTE PTR [ecx+21], 0
  0001f	75 30		 jne	 SHORT $LN21@operator@2
$LL22@operator@2:
  00021	8b d1		 mov	 edx, ecx
  00023	8b 4a 08	 mov	 ecx, DWORD PTR [edx+8]
  00026	80 79 15 00	 cmp	 BYTE PTR [ecx+21], 0
  0002a	74 f5		 je	 SHORT $LL22@operator@2

; 96   : 				;	// begin() shouldn't be decremented, don't move
; 97   : 			else
; 98   : 				_Ptr = _Pnode;	// ==> parent if not head

  0002c	89 10		 mov	 DWORD PTR [eax], edx

; 99   : 			}
; 100  : 		return (*this);
; 101  : 		}

  0002e	c3		 ret	 0
$LN40@operator@2:

; 89   : 		else
; 90   : 			{	// climb looking for left subtree
; 91   : 			_Nodeptr _Pnode;
; 92   : 			while (!_Mytree::_Isnil(_Pnode = _Mytree::_Parent(_Ptr))
; 93   : 				&& _Ptr == _Mytree::_Left(_Pnode))

  0002f	8b 51 04	 mov	 edx, DWORD PTR [ecx+4]
  00032	80 7a 15 00	 cmp	 BYTE PTR [edx+21], 0
  00036	75 11		 jne	 SHORT $LN3@operator@2
$LL4@operator@2:
  00038	8b 08		 mov	 ecx, DWORD PTR [eax]
  0003a	3b 0a		 cmp	 ecx, DWORD PTR [edx]
  0003c	75 0b		 jne	 SHORT $LN3@operator@2

; 94   : 				_Ptr = _Pnode;	// ==> parent while left subtree

  0003e	89 10		 mov	 DWORD PTR [eax], edx
  00040	8b 52 04	 mov	 edx, DWORD PTR [edx+4]
  00043	80 7a 15 00	 cmp	 BYTE PTR [edx+21], 0
  00047	74 ef		 je	 SHORT $LL4@operator@2
$LN3@operator@2:

; 95   : 			if (_Mytree::_Isnil(_Ptr))

  00049	8b 08		 mov	 ecx, DWORD PTR [eax]
  0004b	80 79 15 00	 cmp	 BYTE PTR [ecx+21], 0
  0004f	75 02		 jne	 SHORT $LN1@operator@2

; 87   : 			_Ptr = _Mytree::_Max(
; 88   : 				_Mytree::_Left(_Ptr));	// ==> largest of left subtree

$LN21@operator@2:

; 96   : 				;	// begin() shouldn't be decremented, don't move
; 97   : 			else
; 98   : 				_Ptr = _Pnode;	// ==> parent if not head

  00051	89 10		 mov	 DWORD PTR [eax], edx
$LN1@operator@2:

; 99   : 			}
; 100  : 		return (*this);
; 101  : 		}

  00053	c3		 ret	 0
??F?$_Tree_unchecked_const_iterator@V?$_Tree_val@V?$_Tmap_traits@HPAXU?$less@H@std@@V?$allocator@U?$pair@$$CBHPAX@std@@@2@$0A@@std@@@std@@U_Iterator_base0@2@@std@@QAEAAV01@XZ ENDP ; std::_Tree_unchecked_const_iterator<std::_Tree_val<std::_Tmap_traits<int,void *,std::less<int>,std::allocator<std::pair<int const ,void *> >,0> >,std::_Iterator_base0>::operator--
_TEXT	ENDS
PUBLIC	??$forward@AAH@std@@YAAAHAAH@Z			; std::forward<int &>
; Function compile flags: /Ogtp
; File c:\program files (x86)\microsoft visual studio 10.0\vc\include\utility
;	COMDAT ??$forward@AAH@std@@YAAAHAAH@Z
_TEXT	SEGMENT
__Arg$ = 8						; size = 4
??$forward@AAH@std@@YAAAHAAH@Z PROC			; std::forward<int &>, COMDAT

; 78   : 	{	// forward _Arg, given explicitly specified type parameter

  00000	55		 push	 ebp
  00001	8b ec		 mov	 ebp, esp

; 79   : 	return ((_Ty&&)_Arg);

  00003	8b 45 08	 mov	 eax, DWORD PTR __Arg$[ebp]

; 80   : 	}

  00006	5d		 pop	 ebp
  00007	c3		 ret	 0
??$forward@AAH@std@@YAAAHAAH@Z ENDP			; std::forward<int &>
_TEXT	ENDS
PUBLIC	??$forward@AAPAX@std@@YAAAPAXAAPAX@Z		; std::forward<void * &>
; Function compile flags: /Ogtp
;	COMDAT ??$forward@AAPAX@std@@YAAAPAXAAPAX@Z
_TEXT	SEGMENT
__Arg$ = 8						; size = 4
??$forward@AAPAX@std@@YAAAPAXAAPAX@Z PROC		; std::forward<void * &>, COMDAT

; 78   : 	{	// forward _Arg, given explicitly specified type parameter

  00000	55		 push	 ebp
  00001	8b ec		 mov	 ebp, esp

; 79   : 	return ((_Ty&&)_Arg);

  00003	8b 45 08	 mov	 eax, DWORD PTR __Arg$[ebp]

; 80   : 	}

  00006	5d		 pop	 ebp
  00007	c3		 ret	 0
??$forward@AAPAX@std@@YAAAPAXAAPAX@Z ENDP		; std::forward<void * &>
_TEXT	ENDS
PUBLIC	??$?0AAHAAPAX@?$_Pair_base@HPAX@std@@QAE@AAHAAPAX@Z ; std::_Pair_base<int,void *>::_Pair_base<int,void *><int &,void * &>
; Function compile flags: /Ogtp
;	COMDAT ??$?0AAHAAPAX@?$_Pair_base@HPAX@std@@QAE@AAHAAPAX@Z
_TEXT	SEGMENT
__Val1$ = 8						; size = 4
__Val2$ = 12						; size = 4
??$?0AAHAAPAX@?$_Pair_base@HPAX@std@@QAE@AAHAAPAX@Z PROC ; std::_Pair_base<int,void *>::_Pair_base<int,void *><int &,void * &>, COMDAT
; _this$ = ecx

; 163  : 		{	// construct from moved values

  00000	55		 push	 ebp
  00001	8b ec		 mov	 ebp, esp
  00003	8b c1		 mov	 eax, ecx
  00005	8b 4d 08	 mov	 ecx, DWORD PTR __Val1$[ebp]
  00008	8b 11		 mov	 edx, DWORD PTR [ecx]
  0000a	8b 4d 0c	 mov	 ecx, DWORD PTR __Val2$[ebp]
  0000d	89 10		 mov	 DWORD PTR [eax], edx
  0000f	8b 11		 mov	 edx, DWORD PTR [ecx]
  00011	89 50 04	 mov	 DWORD PTR [eax+4], edx

; 164  : 		}

  00014	5d		 pop	 ebp
  00015	c2 08 00	 ret	 8
??$?0AAHAAPAX@?$_Pair_base@HPAX@std@@QAE@AAHAAPAX@Z ENDP ; std::_Pair_base<int,void *>::_Pair_base<int,void *><int &,void * &>
_TEXT	ENDS
PUBLIC	??$forward@U?$pair@HPAX@std@@@std@@YA$$QAU?$pair@HPAX@0@AAU10@@Z ; std::forward<std::pair<int,void *> >
; Function compile flags: /Ogtp
;	COMDAT ??$forward@U?$pair@HPAX@std@@@std@@YA$$QAU?$pair@HPAX@0@AAU10@@Z
_TEXT	SEGMENT
__Arg$ = 8						; size = 4
??$forward@U?$pair@HPAX@std@@@std@@YA$$QAU?$pair@HPAX@0@AAU10@@Z PROC ; std::forward<std::pair<int,void *> >, COMDAT

; 78   : 	{	// forward _Arg, given explicitly specified type parameter

  00000	55		 push	 ebp
  00001	8b ec		 mov	 ebp, esp

; 79   : 	return ((_Ty&&)_Arg);

  00003	8b 45 08	 mov	 eax, DWORD PTR __Arg$[ebp]

; 80   : 	}

  00006	5d		 pop	 ebp
  00007	c3		 ret	 0
??$forward@U?$pair@HPAX@std@@@std@@YA$$QAU?$pair@HPAX@0@AAU10@@Z ENDP ; std::forward<std::pair<int,void *> >
_TEXT	ENDS
PUBLIC	??$forward@AAUEVENT_ID_TIME@@@std@@YAAAUEVENT_ID_TIME@@AAU1@@Z ; std::forward<EVENT_ID_TIME &>
; Function compile flags: /Ogtp
;	COMDAT ??$forward@AAUEVENT_ID_TIME@@@std@@YAAAUEVENT_ID_TIME@@AAU1@@Z
_TEXT	SEGMENT
__Arg$ = 8						; size = 4
??$forward@AAUEVENT_ID_TIME@@@std@@YAAAUEVENT_ID_TIME@@AAU1@@Z PROC ; std::forward<EVENT_ID_TIME &>, COMDAT

; 78   : 	{	// forward _Arg, given explicitly specified type parameter

  00000	55		 push	 ebp
  00001	8b ec		 mov	 ebp, esp

; 79   : 	return ((_Ty&&)_Arg);

  00003	8b 45 08	 mov	 eax, DWORD PTR __Arg$[ebp]

; 80   : 	}

  00006	5d		 pop	 ebp
  00007	c3		 ret	 0
??$forward@AAUEVENT_ID_TIME@@@std@@YAAAUEVENT_ID_TIME@@AAU1@@Z ENDP ; std::forward<EVENT_ID_TIME &>
_TEXT	ENDS
PUBLIC	??$construct@AAUEVENT_ID_TIME@@@?$allocator@UEVENT_ID_TIME@@@std@@QAEXPAUEVENT_ID_TIME@@AAU2@@Z ; std::allocator<EVENT_ID_TIME>::construct<EVENT_ID_TIME &>
; Function compile flags: /Ogtp
; File c:\program files (x86)\microsoft visual studio 10.0\vc\include\xmemory
;	COMDAT ??$construct@AAUEVENT_ID_TIME@@@?$allocator@UEVENT_ID_TIME@@@std@@QAEXPAUEVENT_ID_TIME@@AAU2@@Z
_TEXT	SEGMENT
__Ptr$ = 8						; size = 4
__Val$ = 12						; size = 4
??$construct@AAUEVENT_ID_TIME@@@?$allocator@UEVENT_ID_TIME@@@std@@QAEXPAUEVENT_ID_TIME@@AAU2@@Z PROC ; std::allocator<EVENT_ID_TIME>::construct<EVENT_ID_TIME &>, COMDAT
; _this$ = ecx

; 206  : 		void construct(pointer _Ptr, _Other&& _Val)

  00000	55		 push	 ebp
  00001	8b ec		 mov	 ebp, esp

; 207  : 		{	// construct object at _Ptr with value _Val
; 208  : 		::new ((void _FARQ *)_Ptr) _Ty(_STD forward<_Other>(_Val));

  00003	8b 45 08	 mov	 eax, DWORD PTR __Ptr$[ebp]
  00006	85 c0		 test	 eax, eax
  00008	74 19		 je	 SHORT $LN3@construct
  0000a	8b 4d 0c	 mov	 ecx, DWORD PTR __Val$[ebp]
  0000d	8b 11		 mov	 edx, DWORD PTR [ecx]
  0000f	89 10		 mov	 DWORD PTR [eax], edx
  00011	8b 51 04	 mov	 edx, DWORD PTR [ecx+4]
  00014	89 50 04	 mov	 DWORD PTR [eax+4], edx
  00017	8b 51 08	 mov	 edx, DWORD PTR [ecx+8]
  0001a	89 50 08	 mov	 DWORD PTR [eax+8], edx
  0001d	8b 49 0c	 mov	 ecx, DWORD PTR [ecx+12]
  00020	89 48 0c	 mov	 DWORD PTR [eax+12], ecx
$LN3@construct:

; 209  : 		}

  00023	5d		 pop	 ebp
  00024	c2 08 00	 ret	 8
??$construct@AAUEVENT_ID_TIME@@@?$allocator@UEVENT_ID_TIME@@@std@@QAEXPAUEVENT_ID_TIME@@AAU2@@Z ENDP ; std::allocator<EVENT_ID_TIME>::construct<EVENT_ID_TIME &>
_TEXT	ENDS
PUBLIC	??$forward@ABUEVENT_ID_TIME@@@std@@YAABUEVENT_ID_TIME@@ABU1@@Z ; std::forward<EVENT_ID_TIME const &>
; Function compile flags: /Ogtp
; File c:\program files (x86)\microsoft visual studio 10.0\vc\include\utility
;	COMDAT ??$forward@ABUEVENT_ID_TIME@@@std@@YAABUEVENT_ID_TIME@@ABU1@@Z
_TEXT	SEGMENT
__Arg$ = 8						; size = 4
??$forward@ABUEVENT_ID_TIME@@@std@@YAABUEVENT_ID_TIME@@ABU1@@Z PROC ; std::forward<EVENT_ID_TIME const &>, COMDAT

; 78   : 	{	// forward _Arg, given explicitly specified type parameter

  00000	55		 push	 ebp
  00001	8b ec		 mov	 ebp, esp

; 79   : 	return ((_Ty&&)_Arg);

  00003	8b 45 08	 mov	 eax, DWORD PTR __Arg$[ebp]

; 80   : 	}

  00006	5d		 pop	 ebp
  00007	c3		 ret	 0
??$forward@ABUEVENT_ID_TIME@@@std@@YAABUEVENT_ID_TIME@@ABU1@@Z ENDP ; std::forward<EVENT_ID_TIME const &>
_TEXT	ENDS
PUBLIC	??$_Ptr_cat@UEVENT_ID_TIME@@U1@@std@@YA?AU_Nonscalar_ptr_iterator_tag@0@PAUEVENT_ID_TIME@@0@Z ; std::_Ptr_cat<EVENT_ID_TIME,EVENT_ID_TIME>
; Function compile flags: /Ogtp
; File c:\program files (x86)\microsoft visual studio 10.0\vc\include\xutility
;	COMDAT ??$_Ptr_cat@UEVENT_ID_TIME@@U1@@std@@YA?AU_Nonscalar_ptr_iterator_tag@0@PAUEVENT_ID_TIME@@0@Z
_TEXT	SEGMENT
__Cat$ = -1						; size = 1
___formal$ = 8						; size = 4
___formal$ = 12						; size = 4
??$_Ptr_cat@UEVENT_ID_TIME@@U1@@std@@YA?AU_Nonscalar_ptr_iterator_tag@0@PAUEVENT_ID_TIME@@0@Z PROC ; std::_Ptr_cat<EVENT_ID_TIME,EVENT_ID_TIME>, COMDAT

; 516  : 	{	// return pointer category from pointers

  00000	55		 push	 ebp
  00001	8b ec		 mov	 ebp, esp
  00003	51		 push	 ecx

; 517  : 	typename _Ptr_cat_helper<_Elem1, _Elem2>::_Type _Cat;
; 518  : 	return (_Cat);

  00004	8a 45 ff	 mov	 al, BYTE PTR __Cat$[ebp]

; 519  : 	}

  00007	8b e5		 mov	 esp, ebp
  00009	5d		 pop	 ebp
  0000a	c3		 ret	 0
??$_Ptr_cat@UEVENT_ID_TIME@@U1@@std@@YA?AU_Nonscalar_ptr_iterator_tag@0@PAUEVENT_ID_TIME@@0@Z ENDP ; std::_Ptr_cat<EVENT_ID_TIME,EVENT_ID_TIME>
_TEXT	ENDS
PUBLIC	??$_Construct@UEVENT_ID_TIME@@ABU1@@std@@YAXPAUEVENT_ID_TIME@@ABU1@@Z ; std::_Construct<EVENT_ID_TIME,EVENT_ID_TIME const &>
; Function compile flags: /Ogtp
; File c:\program files (x86)\microsoft visual studio 10.0\vc\include\xmemory
;	COMDAT ??$_Construct@UEVENT_ID_TIME@@ABU1@@std@@YAXPAUEVENT_ID_TIME@@ABU1@@Z
_TEXT	SEGMENT
__Ptr$ = 8						; size = 4
__Val$ = 12						; size = 4
??$_Construct@UEVENT_ID_TIME@@ABU1@@std@@YAXPAUEVENT_ID_TIME@@ABU1@@Z PROC ; std::_Construct<EVENT_ID_TIME,EVENT_ID_TIME const &>, COMDAT

; 46   : 	{	// construct object at _Ptr with value _Val

  00000	55		 push	 ebp
  00001	8b ec		 mov	 ebp, esp

; 47   : 	void _FARQ *_Vptr = _Ptr;
; 48   : 	::new (_Vptr) _Ty1(_STD forward<_Ty2>(_Val));

  00003	8b 45 08	 mov	 eax, DWORD PTR __Ptr$[ebp]
  00006	85 c0		 test	 eax, eax
  00008	74 19		 je	 SHORT $LN3@Construct
  0000a	8b 4d 0c	 mov	 ecx, DWORD PTR __Val$[ebp]
  0000d	8b 11		 mov	 edx, DWORD PTR [ecx]
  0000f	89 10		 mov	 DWORD PTR [eax], edx
  00011	8b 51 04	 mov	 edx, DWORD PTR [ecx+4]
  00014	89 50 04	 mov	 DWORD PTR [eax+4], edx
  00017	8b 51 08	 mov	 edx, DWORD PTR [ecx+8]
  0001a	89 50 08	 mov	 DWORD PTR [eax+8], edx
  0001d	8b 49 0c	 mov	 ecx, DWORD PTR [ecx+12]
  00020	89 48 0c	 mov	 DWORD PTR [eax+12], ecx
$LN3@Construct:

; 49   : 	}

  00023	5d		 pop	 ebp
  00024	c3		 ret	 0
??$_Construct@UEVENT_ID_TIME@@ABU1@@std@@YAXPAUEVENT_ID_TIME@@ABU1@@Z ENDP ; std::_Construct<EVENT_ID_TIME,EVENT_ID_TIME const &>
_TEXT	ENDS
PUBLIC	??$_Destroy@U?$pair@$$CBHPAX@std@@@std@@YAXPAU?$pair@$$CBHPAX@0@@Z ; std::_Destroy<std::pair<int const ,void *> >
; Function compile flags: /Ogtp
;	COMDAT ??$_Destroy@U?$pair@$$CBHPAX@std@@@std@@YAXPAU?$pair@$$CBHPAX@0@@Z
_TEXT	SEGMENT
__Ptr$ = 8						; size = 4
??$_Destroy@U?$pair@$$CBHPAX@std@@@std@@YAXPAU?$pair@$$CBHPAX@0@@Z PROC ; std::_Destroy<std::pair<int const ,void *> >, COMDAT

; 63   : 	_Ptr->~_Ty();
; 64   : 	}

  00000	c3		 ret	 0
??$_Destroy@U?$pair@$$CBHPAX@std@@@std@@YAXPAU?$pair@$$CBHPAX@0@@Z ENDP ; std::_Destroy<std::pair<int const ,void *> >
_TEXT	ENDS
PUBLIC	??$move@AAV?$_Tree_iterator@V?$_Tree_val@V?$_Tmap_traits@HPAXU?$less@H@std@@V?$allocator@U?$pair@$$CBHPAX@std@@@2@$0A@@std@@@std@@@std@@@std@@YA$$QAV?$_Tree_iterator@V?$_Tree_val@V?$_Tmap_traits@HPAXU?$less@H@std@@V?$allocator@U?$pair@$$CBHPAX@std@@@2@$0A@@std@@@std@@@0@AAV10@@Z ; std::move<std::_Tree_iterator<std::_Tree_val<std::_Tmap_traits<int,void *,std::less<int>,std::allocator<std::pair<int const ,void *> >,0> > > &>
; Function compile flags: /Ogtp
; File c:\program files (x86)\microsoft visual studio 10.0\vc\include\utility
;	COMDAT ??$move@AAV?$_Tree_iterator@V?$_Tree_val@V?$_Tmap_traits@HPAXU?$less@H@std@@V?$allocator@U?$pair@$$CBHPAX@std@@@2@$0A@@std@@@std@@@std@@@std@@YA$$QAV?$_Tree_iterator@V?$_Tree_val@V?$_Tmap_traits@HPAXU?$less@H@std@@V?$allocator@U?$pair@$$CBHPAX@std@@@2@$0A@@std@@@std@@@0@AAV10@@Z
_TEXT	SEGMENT
__Arg$ = 8						; size = 4
??$move@AAV?$_Tree_iterator@V?$_Tree_val@V?$_Tmap_traits@HPAXU?$less@H@std@@V?$allocator@U?$pair@$$CBHPAX@std@@@2@$0A@@std@@@std@@@std@@@std@@YA$$QAV?$_Tree_iterator@V?$_Tree_val@V?$_Tmap_traits@HPAXU?$less@H@std@@V?$allocator@U?$pair@$$CBHPAX@std@@@2@$0A@@std@@@std@@@0@AAV10@@Z PROC ; std::move<std::_Tree_iterator<std::_Tree_val<std::_Tmap_traits<int,void *,std::less<int>,std::allocator<std::pair<int const ,void *> >,0> > > &>, COMDAT

; 86   : 	{	// forward _Arg as movable

  00000	55		 push	 ebp
  00001	8b ec		 mov	 ebp, esp

; 87   : 	return ((typename tr1::_Remove_reference<_Ty>::_Type&&)_Arg);

  00003	8b 45 08	 mov	 eax, DWORD PTR __Arg$[ebp]

; 88   : 	}

  00006	5d		 pop	 ebp
  00007	c3		 ret	 0
??$move@AAV?$_Tree_iterator@V?$_Tree_val@V?$_Tmap_traits@HPAXU?$less@H@std@@V?$allocator@U?$pair@$$CBHPAX@std@@@2@$0A@@std@@@std@@@std@@@std@@YA$$QAV?$_Tree_iterator@V?$_Tree_val@V?$_Tmap_traits@HPAXU?$less@H@std@@V?$allocator@U?$pair@$$CBHPAX@std@@@2@$0A@@std@@@std@@@0@AAV10@@Z ENDP ; std::move<std::_Tree_iterator<std::_Tree_val<std::_Tmap_traits<int,void *,std::less<int>,std::allocator<std::pair<int const ,void *> >,0> > > &>
_TEXT	ENDS
PUBLIC	??$move@AAUEVENT_ID_TIME@@@std@@YA$$QAUEVENT_ID_TIME@@AAU1@@Z ; std::move<EVENT_ID_TIME &>
; Function compile flags: /Ogtp
;	COMDAT ??$move@AAUEVENT_ID_TIME@@@std@@YA$$QAUEVENT_ID_TIME@@AAU1@@Z
_TEXT	SEGMENT
__Arg$ = 8						; size = 4
??$move@AAUEVENT_ID_TIME@@@std@@YA$$QAUEVENT_ID_TIME@@AAU1@@Z PROC ; std::move<EVENT_ID_TIME &>, COMDAT

; 86   : 	{	// forward _Arg as movable

  00000	55		 push	 ebp
  00001	8b ec		 mov	 ebp, esp

; 87   : 	return ((typename tr1::_Remove_reference<_Ty>::_Type&&)_Arg);

  00003	8b 45 08	 mov	 eax, DWORD PTR __Arg$[ebp]

; 88   : 	}

  00006	5d		 pop	 ebp
  00007	c3		 ret	 0
??$move@AAUEVENT_ID_TIME@@@std@@YA$$QAUEVENT_ID_TIME@@AAU1@@Z ENDP ; std::move<EVENT_ID_TIME &>
_TEXT	ENDS
PUBLIC	??$_Val_type@PAUEVENT_ID_TIME@@@std@@YAPAUEVENT_ID_TIME@@PAU1@@Z ; std::_Val_type<EVENT_ID_TIME *>
; Function compile flags: /Ogtp
; File c:\program files (x86)\microsoft visual studio 10.0\vc\include\xutility
;	COMDAT ??$_Val_type@PAUEVENT_ID_TIME@@@std@@YAPAUEVENT_ID_TIME@@PAU1@@Z
_TEXT	SEGMENT
___formal$ = 8						; size = 4
??$_Val_type@PAUEVENT_ID_TIME@@@std@@YAPAUEVENT_ID_TIME@@PAU1@@Z PROC ; std::_Val_type<EVENT_ID_TIME *>, COMDAT

; 790  : 	return (0);

  00000	33 c0		 xor	 eax, eax

; 791  : 	}

  00002	c3		 ret	 0
??$_Val_type@PAUEVENT_ID_TIME@@@std@@YAPAUEVENT_ID_TIME@@PAU1@@Z ENDP ; std::_Val_type<EVENT_ID_TIME *>
_TEXT	ENDS
PUBLIC	??$forward@AAV?$_Tree_iterator@V?$_Tree_val@V?$_Tmap_traits@HPAXU?$less@H@std@@V?$allocator@U?$pair@$$CBHPAX@std@@@2@$0A@@std@@@std@@@std@@@std@@YAAAV?$_Tree_iterator@V?$_Tree_val@V?$_Tmap_traits@HPAXU?$less@H@std@@V?$allocator@U?$pair@$$CBHPAX@std@@@2@$0A@@std@@@std@@@0@AAV10@@Z ; std::forward<std::_Tree_iterator<std::_Tree_val<std::_Tmap_traits<int,void *,std::less<int>,std::allocator<std::pair<int const ,void *> >,0> > > &>
; Function compile flags: /Ogtp
; File c:\program files (x86)\microsoft visual studio 10.0\vc\include\utility
;	COMDAT ??$forward@AAV?$_Tree_iterator@V?$_Tree_val@V?$_Tmap_traits@HPAXU?$less@H@std@@V?$allocator@U?$pair@$$CBHPAX@std@@@2@$0A@@std@@@std@@@std@@@std@@YAAAV?$_Tree_iterator@V?$_Tree_val@V?$_Tmap_traits@HPAXU?$less@H@std@@V?$allocator@U?$pair@$$CBHPAX@std@@@2@$0A@@std@@@std@@@0@AAV10@@Z
_TEXT	SEGMENT
__Arg$ = 8						; size = 4
??$forward@AAV?$_Tree_iterator@V?$_Tree_val@V?$_Tmap_traits@HPAXU?$less@H@std@@V?$allocator@U?$pair@$$CBHPAX@std@@@2@$0A@@std@@@std@@@std@@@std@@YAAAV?$_Tree_iterator@V?$_Tree_val@V?$_Tmap_traits@HPAXU?$less@H@std@@V?$allocator@U?$pair@$$CBHPAX@std@@@2@$0A@@std@@@std@@@0@AAV10@@Z PROC ; std::forward<std::_Tree_iterator<std::_Tree_val<std::_Tmap_traits<int,void *,std::less<int>,std::allocator<std::pair<int const ,void *> >,0> > > &>, COMDAT

; 78   : 	{	// forward _Arg, given explicitly specified type parameter

  00000	55		 push	 ebp
  00001	8b ec		 mov	 ebp, esp

; 79   : 	return ((_Ty&&)_Arg);

  00003	8b 45 08	 mov	 eax, DWORD PTR __Arg$[ebp]

; 80   : 	}

  00006	5d		 pop	 ebp
  00007	c3		 ret	 0
??$forward@AAV?$_Tree_iterator@V?$_Tree_val@V?$_Tmap_traits@HPAXU?$less@H@std@@V?$allocator@U?$pair@$$CBHPAX@std@@@2@$0A@@std@@@std@@@std@@@std@@YAAAV?$_Tree_iterator@V?$_Tree_val@V?$_Tmap_traits@HPAXU?$less@H@std@@V?$allocator@U?$pair@$$CBHPAX@std@@@2@$0A@@std@@@std@@@0@AAV10@@Z ENDP ; std::forward<std::_Tree_iterator<std::_Tree_val<std::_Tmap_traits<int,void *,std::less<int>,std::allocator<std::pair<int const ,void *> >,0> > > &>
_TEXT	ENDS
PUBLIC	??$_Destroy@UEVENT_ID_TIME@@@std@@YAXPAUEVENT_ID_TIME@@@Z ; std::_Destroy<EVENT_ID_TIME>
; Function compile flags: /Ogtp
; File c:\program files (x86)\microsoft visual studio 10.0\vc\include\xmemory
;	COMDAT ??$_Destroy@UEVENT_ID_TIME@@@std@@YAXPAUEVENT_ID_TIME@@@Z
_TEXT	SEGMENT
__Ptr$ = 8						; size = 4
??$_Destroy@UEVENT_ID_TIME@@@std@@YAXPAUEVENT_ID_TIME@@@Z PROC ; std::_Destroy<EVENT_ID_TIME>, COMDAT

; 63   : 	_Ptr->~_Ty();
; 64   : 	}

  00000	c3		 ret	 0
??$_Destroy@UEVENT_ID_TIME@@@std@@YAXPAUEVENT_ID_TIME@@@Z ENDP ; std::_Destroy<EVENT_ID_TIME>
_TEXT	ENDS
PUBLIC	??$forward@UEVENT_ID_TIME@@@std@@YA$$QAUEVENT_ID_TIME@@AAU1@@Z ; std::forward<EVENT_ID_TIME>
; Function compile flags: /Ogtp
; File c:\program files (x86)\microsoft visual studio 10.0\vc\include\utility
;	COMDAT ??$forward@UEVENT_ID_TIME@@@std@@YA$$QAUEVENT_ID_TIME@@AAU1@@Z
_TEXT	SEGMENT
__Arg$ = 8						; size = 4
??$forward@UEVENT_ID_TIME@@@std@@YA$$QAUEVENT_ID_TIME@@AAU1@@Z PROC ; std::forward<EVENT_ID_TIME>, COMDAT

; 78   : 	{	// forward _Arg, given explicitly specified type parameter

  00000	55		 push	 ebp
  00001	8b ec		 mov	 ebp, esp

; 79   : 	return ((_Ty&&)_Arg);

  00003	8b 45 08	 mov	 eax, DWORD PTR __Arg$[ebp]

; 80   : 	}

  00006	5d		 pop	 ebp
  00007	c3		 ret	 0
??$forward@UEVENT_ID_TIME@@@std@@YA$$QAUEVENT_ID_TIME@@AAU1@@Z ENDP ; std::forward<EVENT_ID_TIME>
_TEXT	ENDS
PUBLIC	??$forward@H@std@@YA$$QAHAAH@Z			; std::forward<int>
; Function compile flags: /Ogtp
;	COMDAT ??$forward@H@std@@YA$$QAHAAH@Z
_TEXT	SEGMENT
__Arg$ = 8						; size = 4
??$forward@H@std@@YA$$QAHAAH@Z PROC			; std::forward<int>, COMDAT

; 78   : 	{	// forward _Arg, given explicitly specified type parameter

  00000	55		 push	 ebp
  00001	8b ec		 mov	 ebp, esp

; 79   : 	return ((_Ty&&)_Arg);

  00003	8b 45 08	 mov	 eax, DWORD PTR __Arg$[ebp]

; 80   : 	}

  00006	5d		 pop	 ebp
  00007	c3		 ret	 0
??$forward@H@std@@YA$$QAHAAH@Z ENDP			; std::forward<int>
_TEXT	ENDS
PUBLIC	??$forward@PAX@std@@YA$$QAPAXAAPAX@Z		; std::forward<void *>
; Function compile flags: /Ogtp
;	COMDAT ??$forward@PAX@std@@YA$$QAPAXAAPAX@Z
_TEXT	SEGMENT
__Arg$ = 8						; size = 4
??$forward@PAX@std@@YA$$QAPAXAAPAX@Z PROC		; std::forward<void *>, COMDAT

; 78   : 	{	// forward _Arg, given explicitly specified type parameter

  00000	55		 push	 ebp
  00001	8b ec		 mov	 ebp, esp

; 79   : 	return ((_Ty&&)_Arg);

  00003	8b 45 08	 mov	 eax, DWORD PTR __Arg$[ebp]

; 80   : 	}

  00006	5d		 pop	 ebp
  00007	c3		 ret	 0
??$forward@PAX@std@@YA$$QAPAXAAPAX@Z ENDP		; std::forward<void *>
_TEXT	ENDS
PUBLIC	??$?0HPAX@?$_Pair_base@$$CBHPAX@std@@QAE@$$QAH$$QAPAX@Z ; std::_Pair_base<int const ,void *>::_Pair_base<int const ,void *><int,void *>
; Function compile flags: /Ogtp
;	COMDAT ??$?0HPAX@?$_Pair_base@$$CBHPAX@std@@QAE@$$QAH$$QAPAX@Z
_TEXT	SEGMENT
__Val1$ = 8						; size = 4
__Val2$ = 12						; size = 4
??$?0HPAX@?$_Pair_base@$$CBHPAX@std@@QAE@$$QAH$$QAPAX@Z PROC ; std::_Pair_base<int const ,void *>::_Pair_base<int const ,void *><int,void *>, COMDAT
; _this$ = ecx

; 163  : 		{	// construct from moved values

  00000	55		 push	 ebp
  00001	8b ec		 mov	 ebp, esp
  00003	8b c1		 mov	 eax, ecx
  00005	8b 4d 08	 mov	 ecx, DWORD PTR __Val1$[ebp]
  00008	8b 11		 mov	 edx, DWORD PTR [ecx]
  0000a	8b 4d 0c	 mov	 ecx, DWORD PTR __Val2$[ebp]
  0000d	89 10		 mov	 DWORD PTR [eax], edx
  0000f	8b 11		 mov	 edx, DWORD PTR [ecx]
  00011	89 50 04	 mov	 DWORD PTR [eax+4], edx

; 164  : 		}

  00014	5d		 pop	 ebp
  00015	c2 08 00	 ret	 8
??$?0HPAX@?$_Pair_base@$$CBHPAX@std@@QAE@$$QAH$$QAPAX@Z ENDP ; std::_Pair_base<int const ,void *>::_Pair_base<int const ,void *><int,void *>
_TEXT	ENDS
PUBLIC	??_7bad_alloc@std@@6B@				; std::bad_alloc::`vftable'
PUBLIC	??0bad_alloc@std@@QAE@PBD@Z			; std::bad_alloc::bad_alloc
PUBLIC	??_R4bad_alloc@std@@6B@				; std::bad_alloc::`RTTI Complete Object Locator'
PUBLIC	??_R0?AVbad_alloc@std@@@8			; std::bad_alloc `RTTI Type Descriptor'
PUBLIC	??_R3bad_alloc@std@@8				; std::bad_alloc::`RTTI Class Hierarchy Descriptor'
PUBLIC	??_R2bad_alloc@std@@8				; std::bad_alloc::`RTTI Base Class Array'
PUBLIC	??_R1A@?0A@EA@bad_alloc@std@@8			; std::bad_alloc::`RTTI Base Class Descriptor at (0,-1,0,64)'
PUBLIC	??_R1A@?0A@EA@exception@std@@8			; std::exception::`RTTI Base Class Descriptor at (0,-1,0,64)'
PUBLIC	??_R0?AVexception@std@@@8			; std::exception `RTTI Type Descriptor'
PUBLIC	??_R3exception@std@@8				; std::exception::`RTTI Class Hierarchy Descriptor'
PUBLIC	??_R2exception@std@@8				; std::exception::`RTTI Base Class Array'
EXTRN	??0exception@std@@QAE@ABQBD@Z:PROC		; std::exception::exception
EXTRN	??_7type_info@@6B@:QWORD			; type_info::`vftable'
EXTRN	??_Ebad_alloc@std@@UAEPAXI@Z:PROC		; std::bad_alloc::`vector deleting destructor'
EXTRN	?what@exception@std@@UBEPBDXZ:PROC		; std::exception::what
;	COMDAT ??_R2exception@std@@8
; File c:\program files (x86)\microsoft visual studio 10.0\vc\include\exception
rdata$r	SEGMENT
??_R2exception@std@@8 DD FLAT:??_R1A@?0A@EA@exception@std@@8 ; std::exception::`RTTI Base Class Array'
rdata$r	ENDS
;	COMDAT ??_R3exception@std@@8
rdata$r	SEGMENT
??_R3exception@std@@8 DD 00H				; std::exception::`RTTI Class Hierarchy Descriptor'
	DD	00H
	DD	01H
	DD	FLAT:??_R2exception@std@@8
rdata$r	ENDS
;	COMDAT ??_R0?AVexception@std@@@8
_DATA	SEGMENT
??_R0?AVexception@std@@@8 DD FLAT:??_7type_info@@6B@	; std::exception `RTTI Type Descriptor'
	DD	00H
	DB	'.?AVexception@std@@', 00H
_DATA	ENDS
;	COMDAT ??_R1A@?0A@EA@exception@std@@8
rdata$r	SEGMENT
??_R1A@?0A@EA@exception@std@@8 DD FLAT:??_R0?AVexception@std@@@8 ; std::exception::`RTTI Base Class Descriptor at (0,-1,0,64)'
	DD	00H
	DD	00H
	DD	0ffffffffH
	DD	00H
	DD	040H
	DD	FLAT:??_R3exception@std@@8
rdata$r	ENDS
;	COMDAT ??_R1A@?0A@EA@bad_alloc@std@@8
rdata$r	SEGMENT
??_R1A@?0A@EA@bad_alloc@std@@8 DD FLAT:??_R0?AVbad_alloc@std@@@8 ; std::bad_alloc::`RTTI Base Class Descriptor at (0,-1,0,64)'
	DD	01H
	DD	00H
	DD	0ffffffffH
	DD	00H
	DD	040H
	DD	FLAT:??_R3bad_alloc@std@@8
rdata$r	ENDS
;	COMDAT ??_R2bad_alloc@std@@8
rdata$r	SEGMENT
??_R2bad_alloc@std@@8 DD FLAT:??_R1A@?0A@EA@bad_alloc@std@@8 ; std::bad_alloc::`RTTI Base Class Array'
	DD	FLAT:??_R1A@?0A@EA@exception@std@@8
rdata$r	ENDS
;	COMDAT ??_R3bad_alloc@std@@8
rdata$r	SEGMENT
??_R3bad_alloc@std@@8 DD 00H				; std::bad_alloc::`RTTI Class Hierarchy Descriptor'
	DD	00H
	DD	02H
	DD	FLAT:??_R2bad_alloc@std@@8
rdata$r	ENDS
;	COMDAT ??_R0?AVbad_alloc@std@@@8
_DATA	SEGMENT
??_R0?AVbad_alloc@std@@@8 DD FLAT:??_7type_info@@6B@	; std::bad_alloc `RTTI Type Descriptor'
	DD	00H
	DB	'.?AVbad_alloc@std@@', 00H
_DATA	ENDS
;	COMDAT ??_R4bad_alloc@std@@6B@
rdata$r	SEGMENT
??_R4bad_alloc@std@@6B@ DD 00H				; std::bad_alloc::`RTTI Complete Object Locator'
	DD	00H
	DD	00H
	DD	FLAT:??_R0?AVbad_alloc@std@@@8
	DD	FLAT:??_R3bad_alloc@std@@8
rdata$r	ENDS
;	COMDAT ??_7bad_alloc@std@@6B@
CONST	SEGMENT
??_7bad_alloc@std@@6B@ DD FLAT:??_R4bad_alloc@std@@6B@	; std::bad_alloc::`vftable'
	DD	FLAT:??_Ebad_alloc@std@@UAEPAXI@Z
	DD	FLAT:?what@exception@std@@UBEPBDXZ
; Function compile flags: /Ogtp
CONST	ENDS
;	COMDAT ??0bad_alloc@std@@QAE@PBD@Z
_TEXT	SEGMENT
__Message$ = 8						; size = 4
??0bad_alloc@std@@QAE@PBD@Z PROC			; std::bad_alloc::bad_alloc, COMDAT
; _this$ = ecx

; 345  : 		{	// construct from message string

  00000	55		 push	 ebp
  00001	8b ec		 mov	 ebp, esp
  00003	56		 push	 esi
  00004	8d 45 08	 lea	 eax, DWORD PTR __Message$[ebp]
  00007	50		 push	 eax
  00008	8b f1		 mov	 esi, ecx
  0000a	e8 00 00 00 00	 call	 ??0exception@std@@QAE@ABQBD@Z ; std::exception::exception
  0000f	c7 06 00 00 00
	00		 mov	 DWORD PTR [esi], OFFSET ??_7bad_alloc@std@@6B@

; 346  : 		}

  00015	8b c6		 mov	 eax, esi
  00017	5e		 pop	 esi
  00018	5d		 pop	 ebp
  00019	c2 04 00	 ret	 4
??0bad_alloc@std@@QAE@PBD@Z ENDP			; std::bad_alloc::bad_alloc
_TEXT	ENDS
PUBLIC	??1bad_alloc@std@@UAE@XZ			; std::bad_alloc::~bad_alloc
EXTRN	??1exception@std@@UAE@XZ:PROC			; std::exception::~exception
; Function compile flags: /Ogtp
;	COMDAT ??1bad_alloc@std@@UAE@XZ
_TEXT	SEGMENT
??1bad_alloc@std@@UAE@XZ PROC				; std::bad_alloc::~bad_alloc, COMDAT
; _this$ = ecx

; 354  : 		{	// destroy the object

  00000	c7 01 00 00 00
	00		 mov	 DWORD PTR [ecx], OFFSET ??_7bad_alloc@std@@6B@

; 355  : 		}

  00006	e9 00 00 00 00	 jmp	 ??1exception@std@@UAE@XZ ; std::exception::~exception
??1bad_alloc@std@@UAE@XZ ENDP				; std::bad_alloc::~bad_alloc
; Function compile flags: /Ogtp
_TEXT	ENDS
;	COMDAT ??_Gbad_alloc@std@@UAEPAXI@Z
_TEXT	SEGMENT
___flags$ = 8						; size = 4
??_Gbad_alloc@std@@UAEPAXI@Z PROC			; std::bad_alloc::`scalar deleting destructor', COMDAT
; _this$ = ecx
  00000	55		 push	 ebp
  00001	8b ec		 mov	 ebp, esp
  00003	56		 push	 esi
  00004	8b f1		 mov	 esi, ecx
  00006	c7 06 00 00 00
	00		 mov	 DWORD PTR [esi], OFFSET ??_7bad_alloc@std@@6B@
  0000c	e8 00 00 00 00	 call	 ??1exception@std@@UAE@XZ ; std::exception::~exception
  00011	f6 45 08 01	 test	 BYTE PTR ___flags$[ebp], 1
  00015	74 09		 je	 SHORT $LN6@scalar
  00017	56		 push	 esi
  00018	e8 00 00 00 00	 call	 ??3@YAXPAX@Z		; operator delete
  0001d	83 c4 04	 add	 esp, 4
$LN6@scalar:
  00020	8b c6		 mov	 eax, esi
  00022	5e		 pop	 esi
  00023	5d		 pop	 ebp
  00024	c2 04 00	 ret	 4
??_Gbad_alloc@std@@UAEPAXI@Z ENDP			; std::bad_alloc::`scalar deleting destructor'
_TEXT	ENDS
PUBLIC	?_Orphan_all@_Container_base0@std@@QAEXXZ	; std::_Container_base0::_Orphan_all
; Function compile flags: /Ogtp
; File c:\program files (x86)\microsoft visual studio 10.0\vc\include\xutility
;	COMDAT ?_Orphan_all@_Container_base0@std@@QAEXXZ
_TEXT	SEGMENT
?_Orphan_all@_Container_base0@std@@QAEXXZ PROC		; std::_Container_base0::_Orphan_all, COMDAT
; _this$ = ecx

; 38   : 		}

  00000	c3		 ret	 0
?_Orphan_all@_Container_base0@std@@QAEXXZ ENDP		; std::_Container_base0::_Orphan_all
_TEXT	ENDS
PUBLIC	?_Adopt@_Iterator_base0@std@@QAEXPBX@Z		; std::_Iterator_base0::_Adopt
; Function compile flags: /Ogtp
;	COMDAT ?_Adopt@_Iterator_base0@std@@QAEXPBX@Z
_TEXT	SEGMENT
___formal$ = 8						; size = 4
?_Adopt@_Iterator_base0@std@@QAEXPBX@Z PROC		; std::_Iterator_base0::_Adopt, COMDAT
; _this$ = ecx

; 49   : 		}

  00000	c2 04 00	 ret	 4
?_Adopt@_Iterator_base0@std@@QAEXPBX@Z ENDP		; std::_Iterator_base0::_Adopt
_TEXT	ENDS
PUBLIC	?SetMenualStart@CDragonEvent@@QAEXH@Z		; CDragonEvent::SetMenualStart
; Function compile flags: /Ogtp
; File c:\users\faelhs\mu-1.1\emu - gameserver sapphire s0\gameserver\dragonevent.h
;	COMDAT ?SetMenualStart@CDragonEvent@@QAEXH@Z
_TEXT	SEGMENT
_bMenualStart$ = 8					; size = 4
?SetMenualStart@CDragonEvent@@QAEXH@Z PROC		; CDragonEvent::SetMenualStart, COMDAT
; _this$ = ecx

; 26   : 	void SetMenualStart(BOOL bMenualStart){this->m_bMenualStart = bMenualStart;}

  00000	55		 push	 ebp
  00001	8b ec		 mov	 ebp, esp
  00003	8b 45 08	 mov	 eax, DWORD PTR _bMenualStart$[ebp]
  00006	89 41 10	 mov	 DWORD PTR [ecx+16], eax
  00009	5d		 pop	 ebp
  0000a	c2 04 00	 ret	 4
?SetMenualStart@CDragonEvent@@QAEXH@Z ENDP		; CDragonEvent::SetMenualStart
_TEXT	ENDS
PUBLIC	?SetMenualStart@CAttackEvent@@QAEXH@Z		; CAttackEvent::SetMenualStart
; Function compile flags: /Ogtp
; File c:\users\faelhs\mu-1.1\emu - gameserver sapphire s0\gameserver\attackevent.h
;	COMDAT ?SetMenualStart@CAttackEvent@@QAEXH@Z
_TEXT	SEGMENT
_bMenualStart$ = 8					; size = 4
?SetMenualStart@CAttackEvent@@QAEXH@Z PROC		; CAttackEvent::SetMenualStart, COMDAT
; _this$ = ecx

; 26   : 	void SetMenualStart(BOOL bMenualStart){this->m_bMenualStart = bMenualStart;};	// line : 39

  00000	55		 push	 ebp
  00001	8b ec		 mov	 ebp, esp
  00003	8b 45 08	 mov	 eax, DWORD PTR _bMenualStart$[ebp]
  00006	89 41 28	 mov	 DWORD PTR [ecx+40], eax
  00009	5d		 pop	 ebp
  0000a	c2 04 00	 ret	 4
?SetMenualStart@CAttackEvent@@QAEXH@Z ENDP		; CAttackEvent::SetMenualStart
_TEXT	ENDS
PUBLIC	??$_Move@AAD@std@@YA$$QADAAD@Z			; std::_Move<char &>
; Function compile flags: /Ogtp
; File c:\program files (x86)\microsoft visual studio 10.0\vc\include\utility
;	COMDAT ??$_Move@AAD@std@@YA$$QADAAD@Z
_TEXT	SEGMENT
__Arg$ = 8						; size = 4
??$_Move@AAD@std@@YA$$QADAAD@Z PROC			; std::_Move<char &>, COMDAT

; 94   : 	{	// forward _Arg as movable

  00000	55		 push	 ebp
  00001	8b ec		 mov	 ebp, esp

; 95   : 	return ((typename tr1::_Remove_reference<_Ty>::_Type&&)_Arg);

  00003	8b 45 08	 mov	 eax, DWORD PTR __Arg$[ebp]

; 96   : 	}

  00006	5d		 pop	 ebp
  00007	c3		 ret	 0
??$_Move@AAD@std@@YA$$QADAAD@Z ENDP			; std::_Move<char &>
_TEXT	ENDS
PUBLIC	??$move@AA_N@std@@YA$$QA_NAA_N@Z		; std::move<bool &>
; Function compile flags: /Ogtp
;	COMDAT ??$move@AA_N@std@@YA$$QA_NAA_N@Z
_TEXT	SEGMENT
__Arg$ = 8						; size = 4
??$move@AA_N@std@@YA$$QA_NAA_N@Z PROC			; std::move<bool &>, COMDAT

; 86   : 	{	// forward _Arg as movable

  00000	55		 push	 ebp
  00001	8b ec		 mov	 ebp, esp

; 87   : 	return ((typename tr1::_Remove_reference<_Ty>::_Type&&)_Arg);

  00003	8b 45 08	 mov	 eax, DWORD PTR __Arg$[ebp]

; 88   : 	}

  00006	5d		 pop	 ebp
  00007	c3		 ret	 0
??$move@AA_N@std@@YA$$QA_NAA_N@Z ENDP			; std::move<bool &>
_TEXT	ENDS
PUBLIC	??$forward@_N@std@@YA$$QA_NAA_N@Z		; std::forward<bool>
; Function compile flags: /Ogtp
;	COMDAT ??$forward@_N@std@@YA$$QA_NAA_N@Z
_TEXT	SEGMENT
__Arg$ = 8						; size = 4
??$forward@_N@std@@YA$$QA_NAA_N@Z PROC			; std::forward<bool>, COMDAT

; 78   : 	{	// forward _Arg, given explicitly specified type parameter

  00000	55		 push	 ebp
  00001	8b ec		 mov	 ebp, esp

; 79   : 	return ((_Ty&&)_Arg);

  00003	8b 45 08	 mov	 eax, DWORD PTR __Arg$[ebp]

; 80   : 	}

  00006	5d		 pop	 ebp
  00007	c3		 ret	 0
??$forward@_N@std@@YA$$QA_NAA_N@Z ENDP			; std::forward<bool>
_TEXT	ENDS
PUBLIC	??9?$_Tree_const_iterator@V?$_Tree_val@V?$_Tmap_traits@HPAXU?$less@H@std@@V?$allocator@U?$pair@$$CBHPAX@std@@@2@$0A@@std@@@std@@@std@@QBE_NABV01@@Z ; std::_Tree_const_iterator<std::_Tree_val<std::_Tmap_traits<int,void *,std::less<int>,std::allocator<std::pair<int const ,void *> >,0> > >::operator!=
; Function compile flags: /Ogtp
; File c:\program files (x86)\microsoft visual studio 10.0\vc\include\xtree
;	COMDAT ??9?$_Tree_const_iterator@V?$_Tree_val@V?$_Tmap_traits@HPAXU?$less@H@std@@V?$allocator@U?$pair@$$CBHPAX@std@@@2@$0A@@std@@@std@@@std@@QBE_NABV01@@Z
_TEXT	SEGMENT
__Right$ = 8						; size = 4
??9?$_Tree_const_iterator@V?$_Tree_val@V?$_Tmap_traits@HPAXU?$less@H@std@@V?$allocator@U?$pair@$$CBHPAX@std@@@2@$0A@@std@@@std@@@std@@QBE_NABV01@@Z PROC ; std::_Tree_const_iterator<std::_Tree_val<std::_Tmap_traits<int,void *,std::less<int>,std::allocator<std::pair<int const ,void *> >,0> > >::operator!=, COMDAT
; _this$ = ecx

; 334  : 		{	// test for iterator inequality

  00000	55		 push	 ebp
  00001	8b ec		 mov	 ebp, esp

; 335  : 		return (!(*this == _Right));

  00003	8b 01		 mov	 eax, DWORD PTR [ecx]
  00005	8b 55 08	 mov	 edx, DWORD PTR __Right$[ebp]
  00008	33 c9		 xor	 ecx, ecx
  0000a	3b 02		 cmp	 eax, DWORD PTR [edx]
  0000c	0f 95 c0	 setne	 al

; 336  : 		}

  0000f	5d		 pop	 ebp
  00010	c2 04 00	 ret	 4
??9?$_Tree_const_iterator@V?$_Tree_val@V?$_Tmap_traits@HPAXU?$less@H@std@@V?$allocator@U?$pair@$$CBHPAX@std@@@2@$0A@@std@@@std@@@std@@QBE_NABV01@@Z ENDP ; std::_Tree_const_iterator<std::_Tree_val<std::_Tmap_traits<int,void *,std::less<int>,std::allocator<std::pair<int const ,void *> >,0> > >::operator!=
_TEXT	ENDS
PUBLIC	??0?$_Vector_iterator@V?$_Vector_val@UEVENT_ID_TIME@@V?$allocator@UEVENT_ID_TIME@@@std@@@std@@@std@@QAE@XZ ; std::_Vector_iterator<std::_Vector_val<EVENT_ID_TIME,std::allocator<EVENT_ID_TIME> > >::_Vector_iterator<std::_Vector_val<EVENT_ID_TIME,std::allocator<EVENT_ID_TIME> > >
; Function compile flags: /Ogtp
; File c:\program files (x86)\microsoft visual studio 10.0\vc\include\vector
;	COMDAT ??0?$_Vector_iterator@V?$_Vector_val@UEVENT_ID_TIME@@V?$allocator@UEVENT_ID_TIME@@@std@@@std@@@std@@QAE@XZ
_TEXT	SEGMENT
??0?$_Vector_iterator@V?$_Vector_val@UEVENT_ID_TIME@@V?$allocator@UEVENT_ID_TIME@@@std@@@std@@@std@@QAE@XZ PROC ; std::_Vector_iterator<std::_Vector_val<EVENT_ID_TIME,std::allocator<EVENT_ID_TIME> > >::_Vector_iterator<std::_Vector_val<EVENT_ID_TIME,std::allocator<EVENT_ID_TIME> > >, COMDAT
; _this$ = ecx

; 298  : 	_Vector_iterator()

  00000	8b c1		 mov	 eax, ecx
  00002	c7 00 00 00 00
	00		 mov	 DWORD PTR [eax], 0

; 299  : 		{	// construct with null vector pointer
; 300  : 		}

  00008	c3		 ret	 0
??0?$_Vector_iterator@V?$_Vector_val@UEVENT_ID_TIME@@V?$allocator@UEVENT_ID_TIME@@@std@@@std@@@std@@QAE@XZ ENDP ; std::_Vector_iterator<std::_Vector_val<EVENT_ID_TIME,std::allocator<EVENT_ID_TIME> > >::_Vector_iterator<std::_Vector_val<EVENT_ID_TIME,std::allocator<EVENT_ID_TIME> > >
_TEXT	ENDS
PUBLIC	??D?$_Vector_iterator@V?$_Vector_val@UEVENT_ID_TIME@@V?$allocator@UEVENT_ID_TIME@@@std@@@std@@@std@@QBEAAUEVENT_ID_TIME@@XZ ; std::_Vector_iterator<std::_Vector_val<EVENT_ID_TIME,std::allocator<EVENT_ID_TIME> > >::operator*
; Function compile flags: /Ogtp
;	COMDAT ??D?$_Vector_iterator@V?$_Vector_val@UEVENT_ID_TIME@@V?$allocator@UEVENT_ID_TIME@@@std@@@std@@@std@@QBEAAUEVENT_ID_TIME@@XZ
_TEXT	SEGMENT
??D?$_Vector_iterator@V?$_Vector_val@UEVENT_ID_TIME@@V?$allocator@UEVENT_ID_TIME@@@std@@@std@@@std@@QBEAAUEVENT_ID_TIME@@XZ PROC ; std::_Vector_iterator<std::_Vector_val<EVENT_ID_TIME,std::allocator<EVENT_ID_TIME> > >::operator*, COMDAT
; _this$ = ecx

; 322  : 		return ((reference)**(_Mybase *)this);

  00000	8b 01		 mov	 eax, DWORD PTR [ecx]

; 323  : 		}

  00002	c3		 ret	 0
??D?$_Vector_iterator@V?$_Vector_val@UEVENT_ID_TIME@@V?$allocator@UEVENT_ID_TIME@@@std@@@std@@@std@@QBEAAUEVENT_ID_TIME@@XZ ENDP ; std::_Vector_iterator<std::_Vector_val<EVENT_ID_TIME,std::allocator<EVENT_ID_TIME> > >::operator*
_TEXT	ENDS
PUBLIC	??0?$_Vector_val@UEVENT_ID_TIME@@V?$allocator@UEVENT_ID_TIME@@@std@@@std@@QAE@V?$allocator@UEVENT_ID_TIME@@@1@@Z ; std::_Vector_val<EVENT_ID_TIME,std::allocator<EVENT_ID_TIME> >::_Vector_val<EVENT_ID_TIME,std::allocator<EVENT_ID_TIME> >
; Function compile flags: /Ogtp
;	COMDAT ??0?$_Vector_val@UEVENT_ID_TIME@@V?$allocator@UEVENT_ID_TIME@@@std@@@std@@QAE@V?$allocator@UEVENT_ID_TIME@@@1@@Z
_TEXT	SEGMENT
__Al$ = 8						; size = 1
??0?$_Vector_val@UEVENT_ID_TIME@@V?$allocator@UEVENT_ID_TIME@@@std@@@std@@QAE@V?$allocator@UEVENT_ID_TIME@@@1@@Z PROC ; std::_Vector_val<EVENT_ID_TIME,std::allocator<EVENT_ID_TIME> >::_Vector_val<EVENT_ID_TIME,std::allocator<EVENT_ID_TIME> >, COMDAT
; _this$ = ecx

; 426  : 		{	// construct allocator from _Al

  00000	8b c1		 mov	 eax, ecx

; 427  : 		_Myfirst = 0;

  00002	33 c9		 xor	 ecx, ecx
  00004	89 08		 mov	 DWORD PTR [eax], ecx

; 428  : 		_Mylast = 0;

  00006	89 48 04	 mov	 DWORD PTR [eax+4], ecx

; 429  : 		_Myend = 0;

  00009	89 48 08	 mov	 DWORD PTR [eax+8], ecx

; 430  : 		}

  0000c	c2 04 00	 ret	 4
??0?$_Vector_val@UEVENT_ID_TIME@@V?$allocator@UEVENT_ID_TIME@@@std@@@std@@QAE@V?$allocator@UEVENT_ID_TIME@@@1@@Z ENDP ; std::_Vector_val<EVENT_ID_TIME,std::allocator<EVENT_ID_TIME> >::_Vector_val<EVENT_ID_TIME,std::allocator<EVENT_ID_TIME> >
_TEXT	ENDS
PUBLIC	?_Lmost@?$_Tree@V?$_Tmap_traits@HPAXU?$less@H@std@@V?$allocator@U?$pair@$$CBHPAX@std@@@2@$0A@@std@@@std@@IBEAAPAU_Node@?$_Tree_nod@V?$_Tmap_traits@HPAXU?$less@H@std@@V?$allocator@U?$pair@$$CBHPAX@std@@@2@$0A@@std@@@2@XZ ; std::_Tree<std::_Tmap_traits<int,void *,std::less<int>,std::allocator<std::pair<int const ,void *> >,0> >::_Lmost
; Function compile flags: /Ogtp
; File c:\program files (x86)\microsoft visual studio 10.0\vc\include\xtree
;	COMDAT ?_Lmost@?$_Tree@V?$_Tmap_traits@HPAXU?$less@H@std@@V?$allocator@U?$pair@$$CBHPAX@std@@@2@$0A@@std@@@std@@IBEAAPAU_Node@?$_Tree_nod@V?$_Tmap_traits@HPAXU?$less@H@std@@V?$allocator@U?$pair@$$CBHPAX@std@@@2@$0A@@std@@@2@XZ
_TEXT	SEGMENT
?_Lmost@?$_Tree@V?$_Tmap_traits@HPAXU?$less@H@std@@V?$allocator@U?$pair@$$CBHPAX@std@@@2@$0A@@std@@@std@@IBEAAPAU_Node@?$_Tree_nod@V?$_Tmap_traits@HPAXU?$less@H@std@@V?$allocator@U?$pair@$$CBHPAX@std@@@2@$0A@@std@@@2@XZ PROC ; std::_Tree<std::_Tmap_traits<int,void *,std::less<int>,std::allocator<std::pair<int const ,void *> >,0> >::_Lmost, COMDAT
; _this$ = ecx

; 1759 : 		return (this->_Left(this->_Myhead));

  00000	8b 41 04	 mov	 eax, DWORD PTR [ecx+4]

; 1760 : 		}

  00003	c3		 ret	 0
?_Lmost@?$_Tree@V?$_Tmap_traits@HPAXU?$less@H@std@@V?$allocator@U?$pair@$$CBHPAX@std@@@2@$0A@@std@@@std@@IBEAAPAU_Node@?$_Tree_nod@V?$_Tmap_traits@HPAXU?$less@H@std@@V?$allocator@U?$pair@$$CBHPAX@std@@@2@$0A@@std@@@2@XZ ENDP ; std::_Tree<std::_Tmap_traits<int,void *,std::less<int>,std::allocator<std::pair<int const ,void *> >,0> >::_Lmost
_TEXT	ENDS
PUBLIC	?_Rmost@?$_Tree@V?$_Tmap_traits@HPAXU?$less@H@std@@V?$allocator@U?$pair@$$CBHPAX@std@@@2@$0A@@std@@@std@@IBEAAPAU_Node@?$_Tree_nod@V?$_Tmap_traits@HPAXU?$less@H@std@@V?$allocator@U?$pair@$$CBHPAX@std@@@2@$0A@@std@@@2@XZ ; std::_Tree<std::_Tmap_traits<int,void *,std::less<int>,std::allocator<std::pair<int const ,void *> >,0> >::_Rmost
; Function compile flags: /Ogtp
;	COMDAT ?_Rmost@?$_Tree@V?$_Tmap_traits@HPAXU?$less@H@std@@V?$allocator@U?$pair@$$CBHPAX@std@@@2@$0A@@std@@@std@@IBEAAPAU_Node@?$_Tree_nod@V?$_Tmap_traits@HPAXU?$less@H@std@@V?$allocator@U?$pair@$$CBHPAX@std@@@2@$0A@@std@@@2@XZ
_TEXT	SEGMENT
?_Rmost@?$_Tree@V?$_Tmap_traits@HPAXU?$less@H@std@@V?$allocator@U?$pair@$$CBHPAX@std@@@2@$0A@@std@@@std@@IBEAAPAU_Node@?$_Tree_nod@V?$_Tmap_traits@HPAXU?$less@H@std@@V?$allocator@U?$pair@$$CBHPAX@std@@@2@$0A@@std@@@2@XZ PROC ; std::_Tree<std::_Tmap_traits<int,void *,std::less<int>,std::allocator<std::pair<int const ,void *> >,0> >::_Rmost, COMDAT
; _this$ = ecx

; 1784 : 		return (this->_Right(this->_Myhead));

  00000	8b 41 04	 mov	 eax, DWORD PTR [ecx+4]
  00003	83 c0 08	 add	 eax, 8

; 1785 : 		}

  00006	c3		 ret	 0
?_Rmost@?$_Tree@V?$_Tmap_traits@HPAXU?$less@H@std@@V?$allocator@U?$pair@$$CBHPAX@std@@@2@$0A@@std@@@std@@IBEAAPAU_Node@?$_Tree_nod@V?$_Tmap_traits@HPAXU?$less@H@std@@V?$allocator@U?$pair@$$CBHPAX@std@@@2@$0A@@std@@@2@XZ ENDP ; std::_Tree<std::_Tmap_traits<int,void *,std::less<int>,std::allocator<std::pair<int const ,void *> >,0> >::_Rmost
_TEXT	ENDS
PUBLIC	?_Root@?$_Tree@V?$_Tmap_traits@HPAXU?$less@H@std@@V?$allocator@U?$pair@$$CBHPAX@std@@@2@$0A@@std@@@std@@IBEAAPAU_Node@?$_Tree_nod@V?$_Tmap_traits@HPAXU?$less@H@std@@V?$allocator@U?$pair@$$CBHPAX@std@@@2@$0A@@std@@@2@XZ ; std::_Tree<std::_Tmap_traits<int,void *,std::less<int>,std::allocator<std::pair<int const ,void *> >,0> >::_Root
; Function compile flags: /Ogtp
;	COMDAT ?_Root@?$_Tree@V?$_Tmap_traits@HPAXU?$less@H@std@@V?$allocator@U?$pair@$$CBHPAX@std@@@2@$0A@@std@@@std@@IBEAAPAU_Node@?$_Tree_nod@V?$_Tmap_traits@HPAXU?$less@H@std@@V?$allocator@U?$pair@$$CBHPAX@std@@@2@$0A@@std@@@2@XZ
_TEXT	SEGMENT
?_Root@?$_Tree@V?$_Tmap_traits@HPAXU?$less@H@std@@V?$allocator@U?$pair@$$CBHPAX@std@@@2@$0A@@std@@@std@@IBEAAPAU_Node@?$_Tree_nod@V?$_Tmap_traits@HPAXU?$less@H@std@@V?$allocator@U?$pair@$$CBHPAX@std@@@2@$0A@@std@@@2@XZ PROC ; std::_Tree<std::_Tmap_traits<int,void *,std::less<int>,std::allocator<std::pair<int const ,void *> >,0> >::_Root, COMDAT
; _this$ = ecx

; 1789 : 		return (this->_Parent(this->_Myhead));

  00000	8b 41 04	 mov	 eax, DWORD PTR [ecx+4]
  00003	83 c0 04	 add	 eax, 4

; 1790 : 		}

  00006	c3		 ret	 0
?_Root@?$_Tree@V?$_Tmap_traits@HPAXU?$less@H@std@@V?$allocator@U?$pair@$$CBHPAX@std@@@2@$0A@@std@@@std@@IBEAAPAU_Node@?$_Tree_nod@V?$_Tmap_traits@HPAXU?$less@H@std@@V?$allocator@U?$pair@$$CBHPAX@std@@@2@$0A@@std@@@2@XZ ENDP ; std::_Tree<std::_Tmap_traits<int,void *,std::less<int>,std::allocator<std::pair<int const ,void *> >,0> >::_Root
_TEXT	ENDS
PUBLIC	??1?$_Tree_val@V?$_Tmap_traits@HPAXU?$less@H@std@@V?$allocator@U?$pair@$$CBHPAX@std@@@2@$0A@@std@@@std@@QAE@XZ ; std::_Tree_val<std::_Tmap_traits<int,void *,std::less<int>,std::allocator<std::pair<int const ,void *> >,0> >::~_Tree_val<std::_Tmap_traits<int,void *,std::less<int>,std::allocator<std::pair<int const ,void *> >,0> >
; Function compile flags: /Ogtp
;	COMDAT ??1?$_Tree_val@V?$_Tmap_traits@HPAXU?$less@H@std@@V?$allocator@U?$pair@$$CBHPAX@std@@@2@$0A@@std@@@std@@QAE@XZ
_TEXT	SEGMENT
??1?$_Tree_val@V?$_Tmap_traits@HPAXU?$less@H@std@@V?$allocator@U?$pair@$$CBHPAX@std@@@2@$0A@@std@@@std@@QAE@XZ PROC ; std::_Tree_val<std::_Tmap_traits<int,void *,std::less<int>,std::allocator<std::pair<int const ,void *> >,0> >::~_Tree_val<std::_Tmap_traits<int,void *,std::less<int>,std::allocator<std::pair<int const ,void *> >,0> >, COMDAT
; _this$ = ecx

; 555  : 		this->_Alnod.deallocate(this->_Myhead, 1);

  00000	8b 41 04	 mov	 eax, DWORD PTR [ecx+4]
  00003	50		 push	 eax
  00004	e8 00 00 00 00	 call	 ??3@YAXPAX@Z		; operator delete
  00009	59		 pop	 ecx

; 556  : 		}

  0000a	c3		 ret	 0
??1?$_Tree_val@V?$_Tmap_traits@HPAXU?$less@H@std@@V?$allocator@U?$pair@$$CBHPAX@std@@@2@$0A@@std@@@std@@QAE@XZ ENDP ; std::_Tree_val<std::_Tmap_traits<int,void *,std::less<int>,std::allocator<std::pair<int const ,void *> >,0> >::~_Tree_val<std::_Tmap_traits<int,void *,std::less<int>,std::allocator<std::pair<int const ,void *> >,0> >
_TEXT	ENDS
PUBLIC	?_Key@?$_Tree_val@V?$_Tmap_traits@HPAXU?$less@H@std@@V?$allocator@U?$pair@$$CBHPAX@std@@@2@$0A@@std@@@std@@SAAAHPAU_Node@?$_Tree_nod@V?$_Tmap_traits@HPAXU?$less@H@std@@V?$allocator@U?$pair@$$CBHPAX@std@@@2@$0A@@std@@@2@@Z ; std::_Tree_val<std::_Tmap_traits<int,void *,std::less<int>,std::allocator<std::pair<int const ,void *> >,0> >::_Key
; Function compile flags: /Ogtp
;	COMDAT ?_Key@?$_Tree_val@V?$_Tmap_traits@HPAXU?$less@H@std@@V?$allocator@U?$pair@$$CBHPAX@std@@@2@$0A@@std@@@std@@SAAAHPAU_Node@?$_Tree_nod@V?$_Tmap_traits@HPAXU?$less@H@std@@V?$allocator@U?$pair@$$CBHPAX@std@@@2@$0A@@std@@@2@@Z
_TEXT	SEGMENT
__Pnode$ = 8						; size = 4
?_Key@?$_Tree_val@V?$_Tmap_traits@HPAXU?$less@H@std@@V?$allocator@U?$pair@$$CBHPAX@std@@@2@$0A@@std@@@std@@SAAAHPAU_Node@?$_Tree_nod@V?$_Tmap_traits@HPAXU?$less@H@std@@V?$allocator@U?$pair@$$CBHPAX@std@@@2@$0A@@std@@@2@@Z PROC ; std::_Tree_val<std::_Tmap_traits<int,void *,std::less<int>,std::allocator<std::pair<int const ,void *> >,0> >::_Key, COMDAT

; 616  : 		{	// return reference to key in node

  00000	55		 push	 ebp
  00001	8b ec		 mov	 ebp, esp

; 617  : 		return ((key_type&)_Traits::_Kfn(_Myval(_Pnode)));

  00003	8b 45 08	 mov	 eax, DWORD PTR __Pnode$[ebp]
  00006	83 c0 0c	 add	 eax, 12			; 0000000cH

; 618  : 		}

  00009	5d		 pop	 ebp
  0000a	c3		 ret	 0
?_Key@?$_Tree_val@V?$_Tmap_traits@HPAXU?$less@H@std@@V?$allocator@U?$pair@$$CBHPAX@std@@@2@$0A@@std@@@std@@SAAAHPAU_Node@?$_Tree_nod@V?$_Tmap_traits@HPAXU?$less@H@std@@V?$allocator@U?$pair@$$CBHPAX@std@@@2@$0A@@std@@@2@@Z ENDP ; std::_Tree_val<std::_Tmap_traits<int,void *,std::less<int>,std::allocator<std::pair<int const ,void *> >,0> >::_Key
_TEXT	ENDS
PUBLIC	??D?$_Tree_iterator@V?$_Tree_val@V?$_Tmap_traits@HPAXU?$less@H@std@@V?$allocator@U?$pair@$$CBHPAX@std@@@2@$0A@@std@@@std@@@std@@QBEAAU?$pair@$$CBHPAX@1@XZ ; std::_Tree_iterator<std::_Tree_val<std::_Tmap_traits<int,void *,std::less<int>,std::allocator<std::pair<int const ,void *> >,0> > >::operator*
; Function compile flags: /Ogtp
;	COMDAT ??D?$_Tree_iterator@V?$_Tree_val@V?$_Tmap_traits@HPAXU?$less@H@std@@V?$allocator@U?$pair@$$CBHPAX@std@@@2@$0A@@std@@@std@@@std@@QBEAAU?$pair@$$CBHPAX@1@XZ
_TEXT	SEGMENT
??D?$_Tree_iterator@V?$_Tree_val@V?$_Tmap_traits@HPAXU?$less@H@std@@V?$allocator@U?$pair@$$CBHPAX@std@@@2@$0A@@std@@@std@@@std@@QBEAAU?$pair@$$CBHPAX@1@XZ PROC ; std::_Tree_iterator<std::_Tree_val<std::_Tmap_traits<int,void *,std::less<int>,std::allocator<std::pair<int const ,void *> >,0> > >::operator*, COMDAT
; _this$ = ecx

; 396  : 		return ((reference)**(_Mybase *)this);

  00000	8b 01		 mov	 eax, DWORD PTR [ecx]
  00002	83 c0 0c	 add	 eax, 12			; 0000000cH

; 397  : 		}

  00005	c3		 ret	 0
??D?$_Tree_iterator@V?$_Tree_val@V?$_Tmap_traits@HPAXU?$less@H@std@@V?$allocator@U?$pair@$$CBHPAX@std@@@2@$0A@@std@@@std@@@std@@QBEAAU?$pair@$$CBHPAX@1@XZ ENDP ; std::_Tree_iterator<std::_Tree_val<std::_Tmap_traits<int,void *,std::less<int>,std::allocator<std::pair<int const ,void *> >,0> > >::operator*
_TEXT	ENDS
PUBLIC	??0?$_Tree_const_iterator@V?$_Tree_val@V?$_Tmap_traits@HPAXU?$less@H@std@@V?$allocator@U?$pair@$$CBHPAX@std@@@2@$0A@@std@@@std@@@std@@QAE@XZ ; std::_Tree_const_iterator<std::_Tree_val<std::_Tmap_traits<int,void *,std::less<int>,std::allocator<std::pair<int const ,void *> >,0> > >::_Tree_const_iterator<std::_Tree_val<std::_Tmap_traits<int,void *,std::less<int>,std::allocator<std::pair<int const ,void *> >,0> > >
; Function compile flags: /Ogtp
;	COMDAT ??0?$_Tree_const_iterator@V?$_Tree_val@V?$_Tmap_traits@HPAXU?$less@H@std@@V?$allocator@U?$pair@$$CBHPAX@std@@@2@$0A@@std@@@std@@@std@@QAE@XZ
_TEXT	SEGMENT
??0?$_Tree_const_iterator@V?$_Tree_val@V?$_Tmap_traits@HPAXU?$less@H@std@@V?$allocator@U?$pair@$$CBHPAX@std@@@2@$0A@@std@@@std@@@std@@QAE@XZ PROC ; std::_Tree_const_iterator<std::_Tree_val<std::_Tmap_traits<int,void *,std::less<int>,std::allocator<std::pair<int const ,void *> >,0> > >::_Tree_const_iterator<std::_Tree_val<std::_Tmap_traits<int,void *,std::less<int>,std::allocator<std::pair<int const ,void *> >,0> > >, COMDAT
; _this$ = ecx

; 208  : 		{	// construct with null node pointer

  00000	8b c1		 mov	 eax, ecx
  00002	c7 00 00 00 00
	00		 mov	 DWORD PTR [eax], 0

; 209  : 		}

  00008	c3		 ret	 0
??0?$_Tree_const_iterator@V?$_Tree_val@V?$_Tmap_traits@HPAXU?$less@H@std@@V?$allocator@U?$pair@$$CBHPAX@std@@@2@$0A@@std@@@std@@@std@@QAE@XZ ENDP ; std::_Tree_const_iterator<std::_Tree_val<std::_Tmap_traits<int,void *,std::less<int>,std::allocator<std::pair<int const ,void *> >,0> > >::_Tree_const_iterator<std::_Tree_val<std::_Tmap_traits<int,void *,std::less<int>,std::allocator<std::pair<int const ,void *> >,0> > >
_TEXT	ENDS
PUBLIC	??E?$_Vector_iterator@V?$_Vector_val@UEVENT_ID_TIME@@V?$allocator@UEVENT_ID_TIME@@@std@@@std@@@std@@QAEAAV01@XZ ; std::_Vector_iterator<std::_Vector_val<EVENT_ID_TIME,std::allocator<EVENT_ID_TIME> > >::operator++
; Function compile flags: /Ogtp
; File c:\program files (x86)\microsoft visual studio 10.0\vc\include\vector
;	COMDAT ??E?$_Vector_iterator@V?$_Vector_val@UEVENT_ID_TIME@@V?$allocator@UEVENT_ID_TIME@@@std@@@std@@@std@@QAEAAV01@XZ
_TEXT	SEGMENT
??E?$_Vector_iterator@V?$_Vector_val@UEVENT_ID_TIME@@V?$allocator@UEVENT_ID_TIME@@@std@@@std@@@std@@QAEAAV01@XZ PROC ; std::_Vector_iterator<std::_Vector_val<EVENT_ID_TIME,std::allocator<EVENT_ID_TIME> > >::operator++, COMDAT
; _this$ = ecx

; 331  : 		{	// preincrement

  00000	8b c1		 mov	 eax, ecx

; 332  : 		++*(_Mybase *)this;

  00002	83 00 10	 add	 DWORD PTR [eax], 16	; 00000010H

; 333  : 		return (*this);
; 334  : 		}

  00005	c3		 ret	 0
??E?$_Vector_iterator@V?$_Vector_val@UEVENT_ID_TIME@@V?$allocator@UEVENT_ID_TIME@@@std@@@std@@@std@@QAEAAV01@XZ ENDP ; std::_Vector_iterator<std::_Vector_val<EVENT_ID_TIME,std::allocator<EVENT_ID_TIME> > >::operator++
_TEXT	ENDS
PUBLIC	??8?$_Vector_const_iterator@V?$_Vector_val@UEVENT_ID_TIME@@V?$allocator@UEVENT_ID_TIME@@@std@@@std@@@std@@QBE_NABV01@@Z ; std::_Vector_const_iterator<std::_Vector_val<EVENT_ID_TIME,std::allocator<EVENT_ID_TIME> > >::operator==
; Function compile flags: /Ogtp
;	COMDAT ??8?$_Vector_const_iterator@V?$_Vector_val@UEVENT_ID_TIME@@V?$allocator@UEVENT_ID_TIME@@@std@@@std@@@std@@QBE_NABV01@@Z
_TEXT	SEGMENT
__Right$ = 8						; size = 4
??8?$_Vector_const_iterator@V?$_Vector_val@UEVENT_ID_TIME@@V?$allocator@UEVENT_ID_TIME@@@std@@@std@@@std@@QBE_NABV01@@Z PROC ; std::_Vector_const_iterator<std::_Vector_val<EVENT_ID_TIME,std::allocator<EVENT_ID_TIME> > >::operator==, COMDAT
; _this$ = ecx

; 201  : 		{	// test for iterator equality

  00000	55		 push	 ebp
  00001	8b ec		 mov	 ebp, esp

; 202  : 		_Compat(_Right);
; 203  : 		return (this->_Ptr == _Right._Ptr);

  00003	8b 01		 mov	 eax, DWORD PTR [ecx]
  00005	8b 55 08	 mov	 edx, DWORD PTR __Right$[ebp]
  00008	33 c9		 xor	 ecx, ecx
  0000a	3b 02		 cmp	 eax, DWORD PTR [edx]
  0000c	0f 94 c0	 sete	 al

; 204  : 		}

  0000f	5d		 pop	 ebp
  00010	c2 04 00	 ret	 4
??8?$_Vector_const_iterator@V?$_Vector_val@UEVENT_ID_TIME@@V?$allocator@UEVENT_ID_TIME@@@std@@@std@@@std@@QBE_NABV01@@Z ENDP ; std::_Vector_const_iterator<std::_Vector_val<EVENT_ID_TIME,std::allocator<EVENT_ID_TIME> > >::operator==
_TEXT	ENDS
PUBLIC	?max_size@?$vector@UEVENT_ID_TIME@@V?$allocator@UEVENT_ID_TIME@@@std@@@std@@QBEIXZ ; std::vector<EVENT_ID_TIME,std::allocator<EVENT_ID_TIME> >::max_size
; Function compile flags: /Ogtp
;	COMDAT ?max_size@?$vector@UEVENT_ID_TIME@@V?$allocator@UEVENT_ID_TIME@@@std@@@std@@QBEIXZ
_TEXT	SEGMENT
?max_size@?$vector@UEVENT_ID_TIME@@V?$allocator@UEVENT_ID_TIME@@@std@@@std@@QBEIXZ PROC ; std::vector<EVENT_ID_TIME,std::allocator<EVENT_ID_TIME> >::max_size, COMDAT
; _this$ = ecx

; 884  : 		return (this->_Alval.max_size());

  00000	b8 ff ff ff 0f	 mov	 eax, 268435455		; 0fffffffH

; 885  : 		}

  00005	c3		 ret	 0
?max_size@?$vector@UEVENT_ID_TIME@@V?$allocator@UEVENT_ID_TIME@@@std@@@std@@QBEIXZ ENDP ; std::vector<EVENT_ID_TIME,std::allocator<EVENT_ID_TIME> >::max_size
_TEXT	ENDS
PUBLIC	?_Grow_to@?$vector@UEVENT_ID_TIME@@V?$allocator@UEVENT_ID_TIME@@@std@@@std@@IBEII@Z ; std::vector<EVENT_ID_TIME,std::allocator<EVENT_ID_TIME> >::_Grow_to
; Function compile flags: /Ogtp
;	COMDAT ?_Grow_to@?$vector@UEVENT_ID_TIME@@V?$allocator@UEVENT_ID_TIME@@@std@@@std@@IBEII@Z
_TEXT	SEGMENT
__Count$ = 8						; size = 4
?_Grow_to@?$vector@UEVENT_ID_TIME@@V?$allocator@UEVENT_ID_TIME@@@std@@@std@@IBEII@Z PROC ; std::vector<EVENT_ID_TIME,std::allocator<EVENT_ID_TIME> >::_Grow_to, COMDAT
; _this$ = ecx

; 1274 : 		{	// grow by 50% or at least to _Count

  00000	55		 push	 ebp
  00001	8b ec		 mov	 ebp, esp

; 1275 : 		size_type _Capacity = capacity();

  00003	8b 41 08	 mov	 eax, DWORD PTR [ecx+8]
  00006	2b 01		 sub	 eax, DWORD PTR [ecx]

; 1276 : 
; 1277 : 		_Capacity = max_size() - _Capacity / 2 < _Capacity
; 1278 : 			? 0 : _Capacity + _Capacity / 2;	// try to grow by 50%

  00008	ba ff ff ff 0f	 mov	 edx, 268435455		; 0fffffffH
  0000d	c1 f8 04	 sar	 eax, 4
  00010	8b c8		 mov	 ecx, eax
  00012	d1 e9		 shr	 ecx, 1
  00014	2b d1		 sub	 edx, ecx
  00016	3b d0		 cmp	 edx, eax
  00018	73 04		 jae	 SHORT $LN4@Grow_to
  0001a	33 c0		 xor	 eax, eax
  0001c	eb 02		 jmp	 SHORT $LN5@Grow_to
$LN4@Grow_to:
  0001e	03 c1		 add	 eax, ecx
$LN5@Grow_to:

; 1279 : 		if (_Capacity < _Count)

  00020	8b 4d 08	 mov	 ecx, DWORD PTR __Count$[ebp]
  00023	3b c1		 cmp	 eax, ecx
  00025	73 02		 jae	 SHORT $LN1@Grow_to

; 1280 : 			_Capacity = _Count;
; 1281 : 		return (_Capacity);

  00027	8b c1		 mov	 eax, ecx
$LN1@Grow_to:

; 1282 : 		}

  00029	5d		 pop	 ebp
  0002a	c2 04 00	 ret	 4
?_Grow_to@?$vector@UEVENT_ID_TIME@@V?$allocator@UEVENT_ID_TIME@@@std@@@std@@IBEII@Z ENDP ; std::vector<EVENT_ID_TIME,std::allocator<EVENT_ID_TIME> >::_Grow_to
_TEXT	ENDS
PUBLIC	?_Lbound@?$_Tree@V?$_Tmap_traits@HPAXU?$less@H@std@@V?$allocator@U?$pair@$$CBHPAX@std@@@2@$0A@@std@@@std@@IAEPAU_Node@?$_Tree_nod@V?$_Tmap_traits@HPAXU?$less@H@std@@V?$allocator@U?$pair@$$CBHPAX@std@@@2@$0A@@std@@@2@ABH@Z ; std::_Tree<std::_Tmap_traits<int,void *,std::less<int>,std::allocator<std::pair<int const ,void *> >,0> >::_Lbound
; Function compile flags: /Ogtp
; File c:\program files (x86)\microsoft visual studio 10.0\vc\include\xtree
;	COMDAT ?_Lbound@?$_Tree@V?$_Tmap_traits@HPAXU?$less@H@std@@V?$allocator@U?$pair@$$CBHPAX@std@@@2@$0A@@std@@@std@@IAEPAU_Node@?$_Tree_nod@V?$_Tmap_traits@HPAXU?$less@H@std@@V?$allocator@U?$pair@$$CBHPAX@std@@@2@$0A@@std@@@2@ABH@Z
_TEXT	SEGMENT
__Keyval$ = 8						; size = 4
?_Lbound@?$_Tree@V?$_Tmap_traits@HPAXU?$less@H@std@@V?$allocator@U?$pair@$$CBHPAX@std@@@2@$0A@@std@@@std@@IAEPAU_Node@?$_Tree_nod@V?$_Tmap_traits@HPAXU?$less@H@std@@V?$allocator@U?$pair@$$CBHPAX@std@@@2@$0A@@std@@@2@ABH@Z PROC ; std::_Tree<std::_Tmap_traits<int,void *,std::less<int>,std::allocator<std::pair<int const ,void *> >,0> >::_Lbound, COMDAT
; _this$ = ecx

; 1741 : 		{	// find leftmost node not less than _Keyval

  00000	55		 push	 ebp
  00001	8b ec		 mov	 ebp, esp

; 1742 : 		_Nodeptr _Pnode = _Root();

  00003	8b 41 04	 mov	 eax, DWORD PTR [ecx+4]
  00006	8b 48 04	 mov	 ecx, DWORD PTR [eax+4]

; 1743 : 		_Nodeptr _Wherenode = this->_Myhead;	// end() if search fails
; 1744 : 
; 1745 : 		while (!this->_Isnil(_Pnode))

  00009	80 79 15 00	 cmp	 BYTE PTR [ecx+21], 0
  0000d	75 19		 jne	 SHORT $LN3@Lbound
  0000f	8b 55 08	 mov	 edx, DWORD PTR __Keyval$[ebp]
  00012	8b 12		 mov	 edx, DWORD PTR [edx]
$LL4@Lbound:

; 1746 : 			if (_DEBUG_LT_PRED(this->comp, this->_Key(_Pnode), _Keyval))

  00014	39 51 0c	 cmp	 DWORD PTR [ecx+12], edx
  00017	7d 05		 jge	 SHORT $LN2@Lbound

; 1747 : 				_Pnode = this->_Right(_Pnode);	// descend right subtree

  00019	8b 49 08	 mov	 ecx, DWORD PTR [ecx+8]

; 1748 : 			else

  0001c	eb 04		 jmp	 SHORT $LN1@Lbound
$LN2@Lbound:

; 1749 : 				{	// _Pnode not less than _Keyval, remember it
; 1750 : 				_Wherenode = _Pnode;

  0001e	8b c1		 mov	 eax, ecx

; 1751 : 				_Pnode = this->_Left(_Pnode);	// descend left subtree

  00020	8b 09		 mov	 ecx, DWORD PTR [ecx]
$LN1@Lbound:

; 1743 : 		_Nodeptr _Wherenode = this->_Myhead;	// end() if search fails
; 1744 : 
; 1745 : 		while (!this->_Isnil(_Pnode))

  00022	80 79 15 00	 cmp	 BYTE PTR [ecx+21], 0
  00026	74 ec		 je	 SHORT $LL4@Lbound
$LN3@Lbound:

; 1752 : 				}
; 1753 : 
; 1754 : 		return (_Wherenode);	// return best remembered candidate
; 1755 : 		}

  00028	5d		 pop	 ebp
  00029	c2 04 00	 ret	 4
?_Lbound@?$_Tree@V?$_Tmap_traits@HPAXU?$less@H@std@@V?$allocator@U?$pair@$$CBHPAX@std@@@2@$0A@@std@@@std@@IAEPAU_Node@?$_Tree_nod@V?$_Tmap_traits@HPAXU?$less@H@std@@V?$allocator@U?$pair@$$CBHPAX@std@@@2@$0A@@std@@@2@ABH@Z ENDP ; std::_Tree<std::_Tmap_traits<int,void *,std::less<int>,std::allocator<std::pair<int const ,void *> >,0> >::_Lbound
_TEXT	ENDS
PUBLIC	??0?$_Vector_const_iterator@V?$_Vector_val@UEVENT_ID_TIME@@V?$allocator@UEVENT_ID_TIME@@@std@@@std@@@std@@QAE@PAUEVENT_ID_TIME@@PBU_Container_base0@1@@Z ; std::_Vector_const_iterator<std::_Vector_val<EVENT_ID_TIME,std::allocator<EVENT_ID_TIME> > >::_Vector_const_iterator<std::_Vector_val<EVENT_ID_TIME,std::allocator<EVENT_ID_TIME> > >
; Function compile flags: /Ogtp
; File c:\program files (x86)\microsoft visual studio 10.0\vc\include\vector
;	COMDAT ??0?$_Vector_const_iterator@V?$_Vector_val@UEVENT_ID_TIME@@V?$allocator@UEVENT_ID_TIME@@@std@@@std@@@std@@QAE@PAUEVENT_ID_TIME@@PBU_Container_base0@1@@Z
_TEXT	SEGMENT
__Parg$ = 8						; size = 4
__Pvector$ = 12						; size = 4
??0?$_Vector_const_iterator@V?$_Vector_val@UEVENT_ID_TIME@@V?$allocator@UEVENT_ID_TIME@@@std@@@std@@@std@@QAE@PAUEVENT_ID_TIME@@PBU_Container_base0@1@@Z PROC ; std::_Vector_const_iterator<std::_Vector_val<EVENT_ID_TIME,std::allocator<EVENT_ID_TIME> > >::_Vector_const_iterator<std::_Vector_val<EVENT_ID_TIME,std::allocator<EVENT_ID_TIME> > >, COMDAT
; _this$ = ecx

; 45   : 		{	// construct with pointer _Parg

  00000	55		 push	 ebp
  00001	8b ec		 mov	 ebp, esp
  00003	8b c1		 mov	 eax, ecx
  00005	8b 4d 08	 mov	 ecx, DWORD PTR __Parg$[ebp]
  00008	89 08		 mov	 DWORD PTR [eax], ecx

; 46   : 		this->_Adopt(_Pvector);
; 47   : 		}

  0000a	5d		 pop	 ebp
  0000b	c2 08 00	 ret	 8
??0?$_Vector_const_iterator@V?$_Vector_val@UEVENT_ID_TIME@@V?$allocator@UEVENT_ID_TIME@@@std@@@std@@@std@@QAE@PAUEVENT_ID_TIME@@PBU_Container_base0@1@@Z ENDP ; std::_Vector_const_iterator<std::_Vector_val<EVENT_ID_TIME,std::allocator<EVENT_ID_TIME> > >::_Vector_const_iterator<std::_Vector_val<EVENT_ID_TIME,std::allocator<EVENT_ID_TIME> > >
_TEXT	ENDS
PUBLIC	??0?$_Tree_nod@V?$_Tmap_traits@HPAXU?$less@H@std@@V?$allocator@U?$pair@$$CBHPAX@std@@@2@$0A@@std@@@std@@QAE@ABU?$less@H@1@V?$allocator@U?$pair@$$CBHPAX@std@@@1@@Z ; std::_Tree_nod<std::_Tmap_traits<int,void *,std::less<int>,std::allocator<std::pair<int const ,void *> >,0> >::_Tree_nod<std::_Tmap_traits<int,void *,std::less<int>,std::allocator<std::pair<int const ,void *> >,0> >
; Function compile flags: /Ogtp
; File c:\program files (x86)\microsoft visual studio 10.0\vc\include\xtree
;	COMDAT ??0?$_Tree_nod@V?$_Tmap_traits@HPAXU?$less@H@std@@V?$allocator@U?$pair@$$CBHPAX@std@@@2@$0A@@std@@@std@@QAE@ABU?$less@H@1@V?$allocator@U?$pair@$$CBHPAX@std@@@1@@Z
_TEXT	SEGMENT
__Parg$ = 8						; size = 4
__Al$ = 12						; size = 1
??0?$_Tree_nod@V?$_Tmap_traits@HPAXU?$less@H@std@@V?$allocator@U?$pair@$$CBHPAX@std@@@2@$0A@@std@@@std@@QAE@ABU?$less@H@1@V?$allocator@U?$pair@$$CBHPAX@std@@@1@@Z PROC ; std::_Tree_nod<std::_Tmap_traits<int,void *,std::less<int>,std::allocator<std::pair<int const ,void *> >,0> >::_Tree_nod<std::_Tmap_traits<int,void *,std::less<int>,std::allocator<std::pair<int const ,void *> >,0> >, COMDAT
; _this$ = ecx

; 482  : 		{	// construct traits from _Parg and allocators from _Al

  00000	8b c1		 mov	 eax, ecx

; 483  : 		}

  00002	c2 08 00	 ret	 8
??0?$_Tree_nod@V?$_Tmap_traits@HPAXU?$less@H@std@@V?$allocator@U?$pair@$$CBHPAX@std@@@2@$0A@@std@@@std@@QAE@ABU?$less@H@1@V?$allocator@U?$pair@$$CBHPAX@std@@@1@@Z ENDP ; std::_Tree_nod<std::_Tmap_traits<int,void *,std::less<int>,std::allocator<std::pair<int const ,void *> >,0> >::_Tree_nod<std::_Tmap_traits<int,void *,std::less<int>,std::allocator<std::pair<int const ,void *> >,0> >
_TEXT	ENDS
PUBLIC	??0?$_Tree_unchecked_const_iterator@V?$_Tree_val@V?$_Tmap_traits@HPAXU?$less@H@std@@V?$allocator@U?$pair@$$CBHPAX@std@@@2@$0A@@std@@@std@@U_Iterator_base0@2@@std@@QAE@PAU_Node@?$_Tree_nod@V?$_Tmap_traits@HPAXU?$less@H@std@@V?$allocator@U?$pair@$$CBHPAX@std@@@2@$0A@@std@@@1@PBV?$_Tree_val@V?$_Tmap_traits@HPAXU?$less@H@std@@V?$allocator@U?$pair@$$CBHPAX@std@@@2@$0A@@std@@@1@@Z ; std::_Tree_unchecked_const_iterator<std::_Tree_val<std::_Tmap_traits<int,void *,std::less<int>,std::allocator<std::pair<int const ,void *> >,0> >,std::_Iterator_base0>::_Tree_unchecked_const_iterator<std::_Tree_val<std::_Tmap_traits<int,void *,std::less<int>,std::allocator<std::pair<int const ,void *> >,0> >,std::_Iterator_base0>
; Function compile flags: /Ogtp
;	COMDAT ??0?$_Tree_unchecked_const_iterator@V?$_Tree_val@V?$_Tmap_traits@HPAXU?$less@H@std@@V?$allocator@U?$pair@$$CBHPAX@std@@@2@$0A@@std@@@std@@U_Iterator_base0@2@@std@@QAE@PAU_Node@?$_Tree_nod@V?$_Tmap_traits@HPAXU?$less@H@std@@V?$allocator@U?$pair@$$CBHPAX@std@@@2@$0A@@std@@@1@PBV?$_Tree_val@V?$_Tmap_traits@HPAXU?$less@H@std@@V?$allocator@U?$pair@$$CBHPAX@std@@@2@$0A@@std@@@1@@Z
_TEXT	SEGMENT
__Pnode$ = 8						; size = 4
__Plist$ = 12						; size = 4
??0?$_Tree_unchecked_const_iterator@V?$_Tree_val@V?$_Tmap_traits@HPAXU?$less@H@std@@V?$allocator@U?$pair@$$CBHPAX@std@@@2@$0A@@std@@@std@@U_Iterator_base0@2@@std@@QAE@PAU_Node@?$_Tree_nod@V?$_Tmap_traits@HPAXU?$less@H@std@@V?$allocator@U?$pair@$$CBHPAX@std@@@2@$0A@@std@@@1@PBV?$_Tree_val@V?$_Tmap_traits@HPAXU?$less@H@std@@V?$allocator@U?$pair@$$CBHPAX@std@@@2@$0A@@std@@@1@@Z PROC ; std::_Tree_unchecked_const_iterator<std::_Tree_val<std::_Tmap_traits<int,void *,std::less<int>,std::allocator<std::pair<int const ,void *> >,0> >,std::_Iterator_base0>::_Tree_unchecked_const_iterator<std::_Tree_val<std::_Tmap_traits<int,void *,std::less<int>,std::allocator<std::pair<int const ,void *> >,0> >,std::_Iterator_base0>, COMDAT
; _this$ = ecx

; 43   : 		{	// construct with node pointer _Pnode

  00000	55		 push	 ebp
  00001	8b ec		 mov	 ebp, esp
  00003	8b c1		 mov	 eax, ecx
  00005	8b 4d 08	 mov	 ecx, DWORD PTR __Pnode$[ebp]
  00008	89 08		 mov	 DWORD PTR [eax], ecx

; 44   : 		this->_Adopt(_Plist);
; 45   : 		}

  0000a	5d		 pop	 ebp
  0000b	c2 08 00	 ret	 8
??0?$_Tree_unchecked_const_iterator@V?$_Tree_val@V?$_Tmap_traits@HPAXU?$less@H@std@@V?$allocator@U?$pair@$$CBHPAX@std@@@2@$0A@@std@@@std@@U_Iterator_base0@2@@std@@QAE@PAU_Node@?$_Tree_nod@V?$_Tmap_traits@HPAXU?$less@H@std@@V?$allocator@U?$pair@$$CBHPAX@std@@@2@$0A@@std@@@1@PBV?$_Tree_val@V?$_Tmap_traits@HPAXU?$less@H@std@@V?$allocator@U?$pair@$$CBHPAX@std@@@2@$0A@@std@@@1@@Z ENDP ; std::_Tree_unchecked_const_iterator<std::_Tree_val<std::_Tmap_traits<int,void *,std::less<int>,std::allocator<std::pair<int const ,void *> >,0> >,std::_Iterator_base0>::_Tree_unchecked_const_iterator<std::_Tree_val<std::_Tmap_traits<int,void *,std::less<int>,std::allocator<std::pair<int const ,void *> >,0> >,std::_Iterator_base0>
_TEXT	ENDS
PUBLIC	?_Lrotate@?$_Tree@V?$_Tmap_traits@HPAXU?$less@H@std@@V?$allocator@U?$pair@$$CBHPAX@std@@@2@$0A@@std@@@std@@IAEXPAU_Node@?$_Tree_nod@V?$_Tmap_traits@HPAXU?$less@H@std@@V?$allocator@U?$pair@$$CBHPAX@std@@@2@$0A@@std@@@2@@Z ; std::_Tree<std::_Tmap_traits<int,void *,std::less<int>,std::allocator<std::pair<int const ,void *> >,0> >::_Lrotate
; Function compile flags: /Ogtp
;	COMDAT ?_Lrotate@?$_Tree@V?$_Tmap_traits@HPAXU?$less@H@std@@V?$allocator@U?$pair@$$CBHPAX@std@@@2@$0A@@std@@@std@@IAEXPAU_Node@?$_Tree_nod@V?$_Tmap_traits@HPAXU?$less@H@std@@V?$allocator@U?$pair@$$CBHPAX@std@@@2@$0A@@std@@@2@@Z
_TEXT	SEGMENT
__Wherenode$ = 8					; size = 4
?_Lrotate@?$_Tree@V?$_Tmap_traits@HPAXU?$less@H@std@@V?$allocator@U?$pair@$$CBHPAX@std@@@2@$0A@@std@@@std@@IAEXPAU_Node@?$_Tree_nod@V?$_Tmap_traits@HPAXU?$less@H@std@@V?$allocator@U?$pair@$$CBHPAX@std@@@2@$0A@@std@@@2@@Z PROC ; std::_Tree<std::_Tmap_traits<int,void *,std::less<int>,std::allocator<std::pair<int const ,void *> >,0> >::_Lrotate, COMDAT
; _this$ = ecx

; 1763 : 		{	// promote right node to root of subtree

  00000	55		 push	 ebp
  00001	8b ec		 mov	 ebp, esp

; 1764 : 		_Nodeptr _Pnode = this->_Right(_Wherenode);

  00003	8b 55 08	 mov	 edx, DWORD PTR __Wherenode$[ebp]
  00006	8b 42 08	 mov	 eax, DWORD PTR [edx+8]
  00009	56		 push	 esi

; 1765 : 		this->_Right(_Wherenode) = this->_Left(_Pnode);

  0000a	8b 30		 mov	 esi, DWORD PTR [eax]
  0000c	89 72 08	 mov	 DWORD PTR [edx+8], esi

; 1766 : 
; 1767 : 		if (!this->_Isnil(this->_Left(_Pnode)))

  0000f	8b 30		 mov	 esi, DWORD PTR [eax]
  00011	80 7e 15 00	 cmp	 BYTE PTR [esi+21], 0
  00015	75 03		 jne	 SHORT $LN5@Lrotate

; 1768 : 			this->_Parent(this->_Left(_Pnode)) = _Wherenode;

  00017	89 56 04	 mov	 DWORD PTR [esi+4], edx
$LN5@Lrotate:

; 1769 : 		this->_Parent(_Pnode) = this->_Parent(_Wherenode);

  0001a	8b 72 04	 mov	 esi, DWORD PTR [edx+4]
  0001d	89 70 04	 mov	 DWORD PTR [eax+4], esi

; 1770 : 
; 1771 : 		if (_Wherenode == _Root())

  00020	8b 49 04	 mov	 ecx, DWORD PTR [ecx+4]
  00023	5e		 pop	 esi
  00024	3b 51 04	 cmp	 edx, DWORD PTR [ecx+4]
  00027	75 0c		 jne	 SHORT $LN4@Lrotate

; 1772 : 			_Root() = _Pnode;

  00029	89 41 04	 mov	 DWORD PTR [ecx+4], eax

; 1777 : 
; 1778 : 		this->_Left(_Pnode) = _Wherenode;

  0002c	89 10		 mov	 DWORD PTR [eax], edx

; 1779 : 		this->_Parent(_Wherenode) = _Pnode;

  0002e	89 42 04	 mov	 DWORD PTR [edx+4], eax

; 1780 : 		}

  00031	5d		 pop	 ebp
  00032	c2 04 00	 ret	 4
$LN4@Lrotate:

; 1773 : 		else if (_Wherenode == this->_Left(this->_Parent(_Wherenode)))

  00035	8b 4a 04	 mov	 ecx, DWORD PTR [edx+4]
  00038	3b 11		 cmp	 edx, DWORD PTR [ecx]
  0003a	75 0b		 jne	 SHORT $LN2@Lrotate

; 1774 : 			this->_Left(this->_Parent(_Wherenode)) = _Pnode;

  0003c	89 01		 mov	 DWORD PTR [ecx], eax

; 1777 : 
; 1778 : 		this->_Left(_Pnode) = _Wherenode;

  0003e	89 10		 mov	 DWORD PTR [eax], edx

; 1779 : 		this->_Parent(_Wherenode) = _Pnode;

  00040	89 42 04	 mov	 DWORD PTR [edx+4], eax

; 1780 : 		}

  00043	5d		 pop	 ebp
  00044	c2 04 00	 ret	 4
$LN2@Lrotate:

; 1775 : 		else
; 1776 : 			this->_Right(this->_Parent(_Wherenode)) = _Pnode;

  00047	89 41 08	 mov	 DWORD PTR [ecx+8], eax

; 1777 : 
; 1778 : 		this->_Left(_Pnode) = _Wherenode;

  0004a	89 10		 mov	 DWORD PTR [eax], edx

; 1779 : 		this->_Parent(_Wherenode) = _Pnode;

  0004c	89 42 04	 mov	 DWORD PTR [edx+4], eax

; 1780 : 		}

  0004f	5d		 pop	 ebp
  00050	c2 04 00	 ret	 4
?_Lrotate@?$_Tree@V?$_Tmap_traits@HPAXU?$less@H@std@@V?$allocator@U?$pair@$$CBHPAX@std@@@2@$0A@@std@@@std@@IAEXPAU_Node@?$_Tree_nod@V?$_Tmap_traits@HPAXU?$less@H@std@@V?$allocator@U?$pair@$$CBHPAX@std@@@2@$0A@@std@@@2@@Z ENDP ; std::_Tree<std::_Tmap_traits<int,void *,std::less<int>,std::allocator<std::pair<int const ,void *> >,0> >::_Lrotate
_TEXT	ENDS
PUBLIC	?_Rrotate@?$_Tree@V?$_Tmap_traits@HPAXU?$less@H@std@@V?$allocator@U?$pair@$$CBHPAX@std@@@2@$0A@@std@@@std@@IAEXPAU_Node@?$_Tree_nod@V?$_Tmap_traits@HPAXU?$less@H@std@@V?$allocator@U?$pair@$$CBHPAX@std@@@2@$0A@@std@@@2@@Z ; std::_Tree<std::_Tmap_traits<int,void *,std::less<int>,std::allocator<std::pair<int const ,void *> >,0> >::_Rrotate
; Function compile flags: /Ogtp
;	COMDAT ?_Rrotate@?$_Tree@V?$_Tmap_traits@HPAXU?$less@H@std@@V?$allocator@U?$pair@$$CBHPAX@std@@@2@$0A@@std@@@std@@IAEXPAU_Node@?$_Tree_nod@V?$_Tmap_traits@HPAXU?$less@H@std@@V?$allocator@U?$pair@$$CBHPAX@std@@@2@$0A@@std@@@2@@Z
_TEXT	SEGMENT
__Wherenode$ = 8					; size = 4
?_Rrotate@?$_Tree@V?$_Tmap_traits@HPAXU?$less@H@std@@V?$allocator@U?$pair@$$CBHPAX@std@@@2@$0A@@std@@@std@@IAEXPAU_Node@?$_Tree_nod@V?$_Tmap_traits@HPAXU?$less@H@std@@V?$allocator@U?$pair@$$CBHPAX@std@@@2@$0A@@std@@@2@@Z PROC ; std::_Tree<std::_Tmap_traits<int,void *,std::less<int>,std::allocator<std::pair<int const ,void *> >,0> >::_Rrotate, COMDAT
; _this$ = ecx

; 1793 : 		{	// promote left node to root of subtree

  00000	55		 push	 ebp
  00001	8b ec		 mov	 ebp, esp

; 1794 : 		_Nodeptr _Pnode = this->_Left(_Wherenode);

  00003	8b 55 08	 mov	 edx, DWORD PTR __Wherenode$[ebp]
  00006	8b 02		 mov	 eax, DWORD PTR [edx]
  00008	56		 push	 esi

; 1795 : 		this->_Left(_Wherenode) = this->_Right(_Pnode);

  00009	8b 70 08	 mov	 esi, DWORD PTR [eax+8]
  0000c	89 32		 mov	 DWORD PTR [edx], esi

; 1796 : 
; 1797 : 		if (!this->_Isnil(this->_Right(_Pnode)))

  0000e	8b 70 08	 mov	 esi, DWORD PTR [eax+8]
  00011	80 7e 15 00	 cmp	 BYTE PTR [esi+21], 0
  00015	75 03		 jne	 SHORT $LN5@Rrotate

; 1798 : 			this->_Parent(this->_Right(_Pnode)) = _Wherenode;

  00017	89 56 04	 mov	 DWORD PTR [esi+4], edx
$LN5@Rrotate:

; 1799 : 		this->_Parent(_Pnode) = this->_Parent(_Wherenode);

  0001a	8b 72 04	 mov	 esi, DWORD PTR [edx+4]
  0001d	89 70 04	 mov	 DWORD PTR [eax+4], esi

; 1800 : 
; 1801 : 		if (_Wherenode == _Root())

  00020	8b 49 04	 mov	 ecx, DWORD PTR [ecx+4]
  00023	5e		 pop	 esi
  00024	3b 51 04	 cmp	 edx, DWORD PTR [ecx+4]
  00027	75 0d		 jne	 SHORT $LN4@Rrotate

; 1802 : 			_Root() = _Pnode;

  00029	89 41 04	 mov	 DWORD PTR [ecx+4], eax

; 1807 : 
; 1808 : 		this->_Right(_Pnode) = _Wherenode;

  0002c	89 50 08	 mov	 DWORD PTR [eax+8], edx

; 1809 : 		this->_Parent(_Wherenode) = _Pnode;

  0002f	89 42 04	 mov	 DWORD PTR [edx+4], eax

; 1810 : 		}

  00032	5d		 pop	 ebp
  00033	c2 04 00	 ret	 4
$LN4@Rrotate:

; 1803 : 		else if (_Wherenode == this->_Right(this->_Parent(_Wherenode)))

  00036	8b 4a 04	 mov	 ecx, DWORD PTR [edx+4]
  00039	3b 51 08	 cmp	 edx, DWORD PTR [ecx+8]
  0003c	75 0d		 jne	 SHORT $LN2@Rrotate

; 1804 : 			this->_Right(this->_Parent(_Wherenode)) = _Pnode;

  0003e	89 41 08	 mov	 DWORD PTR [ecx+8], eax

; 1807 : 
; 1808 : 		this->_Right(_Pnode) = _Wherenode;

  00041	89 50 08	 mov	 DWORD PTR [eax+8], edx

; 1809 : 		this->_Parent(_Wherenode) = _Pnode;

  00044	89 42 04	 mov	 DWORD PTR [edx+4], eax

; 1810 : 		}

  00047	5d		 pop	 ebp
  00048	c2 04 00	 ret	 4
$LN2@Rrotate:

; 1805 : 		else
; 1806 : 			this->_Left(this->_Parent(_Wherenode)) = _Pnode;

  0004b	89 01		 mov	 DWORD PTR [ecx], eax

; 1807 : 
; 1808 : 		this->_Right(_Pnode) = _Wherenode;

  0004d	89 50 08	 mov	 DWORD PTR [eax+8], edx

; 1809 : 		this->_Parent(_Wherenode) = _Pnode;

  00050	89 42 04	 mov	 DWORD PTR [edx+4], eax

; 1810 : 		}

  00053	5d		 pop	 ebp
  00054	c2 04 00	 ret	 4
?_Rrotate@?$_Tree@V?$_Tmap_traits@HPAXU?$less@H@std@@V?$allocator@U?$pair@$$CBHPAX@std@@@2@$0A@@std@@@std@@IAEXPAU_Node@?$_Tree_nod@V?$_Tmap_traits@HPAXU?$less@H@std@@V?$allocator@U?$pair@$$CBHPAX@std@@@2@$0A@@std@@@2@@Z ENDP ; std::_Tree<std::_Tmap_traits<int,void *,std::less<int>,std::allocator<std::pair<int const ,void *> >,0> >::_Rrotate
_TEXT	ENDS
PUBLIC	??E?$_Tree_const_iterator@V?$_Tree_val@V?$_Tmap_traits@HPAXU?$less@H@std@@V?$allocator@U?$pair@$$CBHPAX@std@@@2@$0A@@std@@@std@@@std@@QAEAAV01@XZ ; std::_Tree_const_iterator<std::_Tree_val<std::_Tmap_traits<int,void *,std::less<int>,std::allocator<std::pair<int const ,void *> >,0> > >::operator++
; Function compile flags: /Ogtp
;	COMDAT ??E?$_Tree_const_iterator@V?$_Tree_val@V?$_Tmap_traits@HPAXU?$less@H@std@@V?$allocator@U?$pair@$$CBHPAX@std@@@2@$0A@@std@@@std@@@std@@QAEAAV01@XZ
_TEXT	SEGMENT
??E?$_Tree_const_iterator@V?$_Tree_val@V?$_Tmap_traits@HPAXU?$less@H@std@@V?$allocator@U?$pair@$$CBHPAX@std@@@2@$0A@@std@@@std@@@std@@QAEAAV01@XZ PROC ; std::_Tree_const_iterator<std::_Tree_val<std::_Tmap_traits<int,void *,std::less<int>,std::allocator<std::pair<int const ,void *> >,0> > >::operator++, COMDAT
; _this$ = ecx

; 250  : 		{	// preincrement

  00000	56		 push	 esi
  00001	8b f1		 mov	 esi, ecx

; 251  :  #if _ITERATOR_DEBUG_LEVEL == 2
; 252  : 		if (this->_Getcont() == 0
; 253  : 			|| this->_Ptr == 0
; 254  : 			|| _Mytree::_Isnil(this->_Ptr))
; 255  : 			{	// report error
; 256  : 			_DEBUG_ERROR("map/set iterator not incrementable");
; 257  : 			_SCL_SECURE_OUT_OF_RANGE;
; 258  : 			}
; 259  : 
; 260  :  #elif _ITERATOR_DEBUG_LEVEL == 1
; 261  : 		_SCL_SECURE_VALIDATE(this->_Getcont() != 0 && this->_Ptr != 0);
; 262  : 		_SCL_SECURE_VALIDATE_RANGE(!_Mytree::_Isnil(this->_Ptr));
; 263  :  #endif /* _ITERATOR_DEBUG_LEVEL */
; 264  : 
; 265  : 		++(*(_Mybase *)this);

  00003	e8 00 00 00 00	 call	 ??E?$_Tree_unchecked_const_iterator@V?$_Tree_val@V?$_Tmap_traits@HPAXU?$less@H@std@@V?$allocator@U?$pair@$$CBHPAX@std@@@2@$0A@@std@@@std@@U_Iterator_base0@2@@std@@QAEAAV01@XZ ; std::_Tree_unchecked_const_iterator<std::_Tree_val<std::_Tmap_traits<int,void *,std::less<int>,std::allocator<std::pair<int const ,void *> >,0> >,std::_Iterator_base0>::operator++

; 266  : 		return (*this);

  00008	8b c6		 mov	 eax, esi
  0000a	5e		 pop	 esi

; 267  : 		}

  0000b	c3		 ret	 0
??E?$_Tree_const_iterator@V?$_Tree_val@V?$_Tmap_traits@HPAXU?$less@H@std@@V?$allocator@U?$pair@$$CBHPAX@std@@@2@$0A@@std@@@std@@@std@@QAEAAV01@XZ ENDP ; std::_Tree_const_iterator<std::_Tree_val<std::_Tmap_traits<int,void *,std::less<int>,std::allocator<std::pair<int const ,void *> >,0> > >::operator++
_TEXT	ENDS
PUBLIC	??$?0AAHAAPAX@?$pair@HPAX@std@@QAE@AAHAAPAX@Z	; std::pair<int,void *>::pair<int,void *><int &,void * &>
; Function compile flags: /Ogtp
; File c:\program files (x86)\microsoft visual studio 10.0\vc\include\utility
;	COMDAT ??$?0AAHAAPAX@?$pair@HPAX@std@@QAE@AAHAAPAX@Z
_TEXT	SEGMENT
__Val1$ = 8						; size = 4
__Val2$ = 12						; size = 4
??$?0AAHAAPAX@?$pair@HPAX@std@@QAE@AAHAAPAX@Z PROC	; std::pair<int,void *>::pair<int,void *><int &,void * &>, COMDAT
; _this$ = ecx

; 247  : 		{	// construct from moved values

  00000	55		 push	 ebp
  00001	8b ec		 mov	 ebp, esp
  00003	8b c1		 mov	 eax, ecx
  00005	8b 4d 08	 mov	 ecx, DWORD PTR __Val1$[ebp]
  00008	8b 11		 mov	 edx, DWORD PTR [ecx]
  0000a	8b 4d 0c	 mov	 ecx, DWORD PTR __Val2$[ebp]
  0000d	89 10		 mov	 DWORD PTR [eax], edx
  0000f	8b 11		 mov	 edx, DWORD PTR [ecx]
  00011	89 50 04	 mov	 DWORD PTR [eax+4], edx

; 248  : 		}

  00014	5d		 pop	 ebp
  00015	c2 08 00	 ret	 8
??$?0AAHAAPAX@?$pair@HPAX@std@@QAE@AAHAAPAX@Z ENDP	; std::pair<int,void *>::pair<int,void *><int &,void * &>
_TEXT	ENDS
PUBLIC	??$_Cons_val@V?$allocator@UEVENT_ID_TIME@@@std@@UEVENT_ID_TIME@@AAU3@@std@@YAXAAV?$allocator@UEVENT_ID_TIME@@@0@PAUEVENT_ID_TIME@@AAU2@@Z ; std::_Cons_val<std::allocator<EVENT_ID_TIME>,EVENT_ID_TIME,EVENT_ID_TIME &>
; Function compile flags: /Ogtp
; File c:\program files (x86)\microsoft visual studio 10.0\vc\include\xmemory
;	COMDAT ??$_Cons_val@V?$allocator@UEVENT_ID_TIME@@@std@@UEVENT_ID_TIME@@AAU3@@std@@YAXAAV?$allocator@UEVENT_ID_TIME@@@0@PAUEVENT_ID_TIME@@AAU2@@Z
_TEXT	SEGMENT
__Alval$ = 8						; size = 4
__Pdest$ = 12						; size = 4
__Src$ = 16						; size = 4
??$_Cons_val@V?$allocator@UEVENT_ID_TIME@@@std@@UEVENT_ID_TIME@@AAU3@@std@@YAXAAV?$allocator@UEVENT_ID_TIME@@@0@PAUEVENT_ID_TIME@@AAU2@@Z PROC ; std::_Cons_val<std::allocator<EVENT_ID_TIME>,EVENT_ID_TIME,EVENT_ID_TIME &>, COMDAT

; 279  : 	{	// construct using allocator

  00000	55		 push	 ebp
  00001	8b ec		 mov	 ebp, esp

; 280  : 	_Alval.construct(_Pdest, _STD forward<_Ty2>(_Src));

  00003	8b 45 0c	 mov	 eax, DWORD PTR __Pdest$[ebp]
  00006	85 c0		 test	 eax, eax
  00008	74 19		 je	 SHORT $LN7@Cons_val
  0000a	8b 4d 10	 mov	 ecx, DWORD PTR __Src$[ebp]
  0000d	8b 11		 mov	 edx, DWORD PTR [ecx]
  0000f	89 10		 mov	 DWORD PTR [eax], edx
  00011	8b 51 04	 mov	 edx, DWORD PTR [ecx+4]
  00014	89 50 04	 mov	 DWORD PTR [eax+4], edx
  00017	8b 51 08	 mov	 edx, DWORD PTR [ecx+8]
  0001a	89 50 08	 mov	 DWORD PTR [eax+8], edx
  0001d	8b 49 0c	 mov	 ecx, DWORD PTR [ecx+12]
  00020	89 48 0c	 mov	 DWORD PTR [eax+12], ecx
$LN7@Cons_val:

; 281  : 	}

  00023	5d		 pop	 ebp
  00024	c3		 ret	 0
??$_Cons_val@V?$allocator@UEVENT_ID_TIME@@@std@@UEVENT_ID_TIME@@AAU3@@std@@YAXAAV?$allocator@UEVENT_ID_TIME@@@0@PAUEVENT_ID_TIME@@AAU2@@Z ENDP ; std::_Cons_val<std::allocator<EVENT_ID_TIME>,EVENT_ID_TIME,EVENT_ID_TIME &>
_TEXT	ENDS
PUBLIC	__TI2?AVbad_alloc@std@@
PUBLIC	??$_Allocate@UEVENT_ID_TIME@@@std@@YAPAUEVENT_ID_TIME@@IPAU1@@Z ; std::_Allocate<EVENT_ID_TIME>
PUBLIC	__CTA2?AVbad_alloc@std@@
PUBLIC	__CT??_R0?AVbad_alloc@std@@@8??0bad_alloc@std@@QAE@ABV01@@Z12
PUBLIC	??0bad_alloc@std@@QAE@ABV01@@Z			; std::bad_alloc::bad_alloc
PUBLIC	__CT??_R0?AVexception@std@@@8??0exception@std@@QAE@ABV01@@Z12
EXTRN	??2@YAPAXI@Z:PROC				; operator new
EXTRN	__CxxThrowException@8:PROC
EXTRN	??0exception@std@@QAE@ABV01@@Z:PROC		; std::exception::exception
;	COMDAT __CT??_R0?AVexception@std@@@8??0exception@std@@QAE@ABV01@@Z12
; File c:\program files (x86)\microsoft visual studio 10.0\vc\include\exception
xdata$x	SEGMENT
__CT??_R0?AVexception@std@@@8??0exception@std@@QAE@ABV01@@Z12 DD 00H
	DD	FLAT:??_R0?AVexception@std@@@8
	DD	00H
	DD	0ffffffffH
	ORG $+4
	DD	0cH
	DD	FLAT:??0exception@std@@QAE@ABV01@@Z
xdata$x	ENDS
;	COMDAT __CT??_R0?AVbad_alloc@std@@@8??0bad_alloc@std@@QAE@ABV01@@Z12
xdata$x	SEGMENT
__CT??_R0?AVbad_alloc@std@@@8??0bad_alloc@std@@QAE@ABV01@@Z12 DD 00H
	DD	FLAT:??_R0?AVbad_alloc@std@@@8
	DD	00H
	DD	0ffffffffH
	ORG $+4
	DD	0cH
	DD	FLAT:??0bad_alloc@std@@QAE@ABV01@@Z
xdata$x	ENDS
;	COMDAT __CTA2?AVbad_alloc@std@@
xdata$x	SEGMENT
__CTA2?AVbad_alloc@std@@ DD 02H
	DD	FLAT:__CT??_R0?AVbad_alloc@std@@@8??0bad_alloc@std@@QAE@ABV01@@Z12
	DD	FLAT:__CT??_R0?AVexception@std@@@8??0exception@std@@QAE@ABV01@@Z12
xdata$x	ENDS
;	COMDAT __TI2?AVbad_alloc@std@@
xdata$x	SEGMENT
__TI2?AVbad_alloc@std@@ DD 00H
	DD	FLAT:??1bad_alloc@std@@UAE@XZ
	DD	00H
	DD	FLAT:__CTA2?AVbad_alloc@std@@
; Function compile flags: /Ogtp
; File c:\program files (x86)\microsoft visual studio 10.0\vc\include\xmemory
xdata$x	ENDS
;	COMDAT ??$_Allocate@UEVENT_ID_TIME@@@std@@YAPAUEVENT_ID_TIME@@IPAU1@@Z
_TEXT	SEGMENT
$T159307 = -12						; size = 12
$T159312 = 8						; size = 4
__Count$ = 8						; size = 4
___formal$ = 12						; size = 4
??$_Allocate@UEVENT_ID_TIME@@@std@@YAPAUEVENT_ID_TIME@@IPAU1@@Z PROC ; std::_Allocate<EVENT_ID_TIME>, COMDAT

; 30   : 	{	// allocate storage for _Count elements of type _Ty

  00000	55		 push	 ebp
  00001	8b ec		 mov	 ebp, esp

; 31   : 	void *_Ptr = 0;
; 32   : 
; 33   : 	if (_Count <= 0)

  00003	8b 4d 08	 mov	 ecx, DWORD PTR __Count$[ebp]
  00006	83 ec 0c	 sub	 esp, 12			; 0000000cH
  00009	33 c0		 xor	 eax, eax
  0000b	85 c9		 test	 ecx, ecx

; 34   : 		_Count = 0;
; 35   : 	else if (((_SIZT)(-1) / sizeof (_Ty) < _Count)

  0000d	74 40		 je	 SHORT $LN5@Allocate

; 36   : 		|| (_Ptr = ::operator new(_Count * sizeof (_Ty))) == 0)

  0000f	81 f9 ff ff ff
	0f		 cmp	 ecx, 268435455		; 0fffffffH
  00015	77 10		 ja	 SHORT $LN1@Allocate
  00017	c1 e1 04	 shl	 ecx, 4
  0001a	51		 push	 ecx
  0001b	e8 00 00 00 00	 call	 ??2@YAPAXI@Z		; operator new
  00020	83 c4 04	 add	 esp, 4
  00023	85 c0		 test	 eax, eax

; 38   : 
; 39   : 	return ((_Ty _FARQ *)_Ptr);

  00025	75 28		 jne	 SHORT $LN5@Allocate
$LN1@Allocate:

; 37   : 		_THROW_NCEE(bad_alloc, 0);

  00027	8d 45 08	 lea	 eax, DWORD PTR $T159312[ebp]
  0002a	50		 push	 eax
  0002b	8d 4d f4	 lea	 ecx, DWORD PTR $T159307[ebp]
  0002e	c7 45 08 00 00
	00 00		 mov	 DWORD PTR $T159312[ebp], 0
  00035	e8 00 00 00 00	 call	 ??0exception@std@@QAE@ABQBD@Z ; std::exception::exception
  0003a	68 00 00 00 00	 push	 OFFSET __TI2?AVbad_alloc@std@@
  0003f	8d 4d f4	 lea	 ecx, DWORD PTR $T159307[ebp]
  00042	51		 push	 ecx
  00043	c7 45 f4 00 00
	00 00		 mov	 DWORD PTR $T159307[ebp], OFFSET ??_7bad_alloc@std@@6B@
  0004a	e8 00 00 00 00	 call	 __CxxThrowException@8
$LN10@Allocate:
$LN5@Allocate:

; 40   : 	}

  0004f	8b e5		 mov	 esp, ebp
  00051	5d		 pop	 ebp
  00052	c3		 ret	 0
$LN9@Allocate:
??$_Allocate@UEVENT_ID_TIME@@@std@@YAPAUEVENT_ID_TIME@@IPAU1@@Z ENDP ; std::_Allocate<EVENT_ID_TIME>
; Function compile flags: /Ogtp
_TEXT	ENDS
;	COMDAT ??0bad_alloc@std@@QAE@ABV01@@Z
_TEXT	SEGMENT
___that$ = 8						; size = 4
??0bad_alloc@std@@QAE@ABV01@@Z PROC			; std::bad_alloc::bad_alloc, COMDAT
; _this$ = ecx
  00000	55		 push	 ebp
  00001	8b ec		 mov	 ebp, esp
  00003	8b 45 08	 mov	 eax, DWORD PTR ___that$[ebp]
  00006	56		 push	 esi
  00007	50		 push	 eax
  00008	8b f1		 mov	 esi, ecx
  0000a	e8 00 00 00 00	 call	 ??0exception@std@@QAE@ABV01@@Z ; std::exception::exception
  0000f	c7 06 00 00 00
	00		 mov	 DWORD PTR [esi], OFFSET ??_7bad_alloc@std@@6B@
  00015	8b c6		 mov	 eax, esi
  00017	5e		 pop	 esi
  00018	5d		 pop	 ebp
  00019	c2 04 00	 ret	 4
??0bad_alloc@std@@QAE@ABV01@@Z ENDP			; std::bad_alloc::bad_alloc
_TEXT	ENDS
PUBLIC	??$_Allocate@U_Node@?$_Tree_nod@V?$_Tmap_traits@HPAXU?$less@H@std@@V?$allocator@U?$pair@$$CBHPAX@std@@@2@$0A@@std@@@std@@@std@@YAPAU_Node@?$_Tree_nod@V?$_Tmap_traits@HPAXU?$less@H@std@@V?$allocator@U?$pair@$$CBHPAX@std@@@2@$0A@@std@@@0@IPAU120@@Z ; std::_Allocate<std::_Tree_nod<std::_Tmap_traits<int,void *,std::less<int>,std::allocator<std::pair<int const ,void *> >,0> >::_Node>
; Function compile flags: /Ogtp
;	COMDAT ??$_Allocate@U_Node@?$_Tree_nod@V?$_Tmap_traits@HPAXU?$less@H@std@@V?$allocator@U?$pair@$$CBHPAX@std@@@2@$0A@@std@@@std@@@std@@YAPAU_Node@?$_Tree_nod@V?$_Tmap_traits@HPAXU?$less@H@std@@V?$allocator@U?$pair@$$CBHPAX@std@@@2@$0A@@std@@@0@IPAU120@@Z
_TEXT	SEGMENT
$T159320 = -12						; size = 12
$T159324 = 8						; size = 4
__Count$ = 8						; size = 4
___formal$ = 12						; size = 4
??$_Allocate@U_Node@?$_Tree_nod@V?$_Tmap_traits@HPAXU?$less@H@std@@V?$allocator@U?$pair@$$CBHPAX@std@@@2@$0A@@std@@@std@@@std@@YAPAU_Node@?$_Tree_nod@V?$_Tmap_traits@HPAXU?$less@H@std@@V?$allocator@U?$pair@$$CBHPAX@std@@@2@$0A@@std@@@0@IPAU120@@Z PROC ; std::_Allocate<std::_Tree_nod<std::_Tmap_traits<int,void *,std::less<int>,std::allocator<std::pair<int const ,void *> >,0> >::_Node>, COMDAT

; 30   : 	{	// allocate storage for _Count elements of type _Ty

  00000	55		 push	 ebp
  00001	8b ec		 mov	 ebp, esp

; 31   : 	void *_Ptr = 0;
; 32   : 
; 33   : 	if (_Count <= 0)

  00003	8b 4d 08	 mov	 ecx, DWORD PTR __Count$[ebp]
  00006	83 ec 0c	 sub	 esp, 12			; 0000000cH
  00009	33 c0		 xor	 eax, eax
  0000b	85 c9		 test	 ecx, ecx

; 34   : 		_Count = 0;
; 35   : 	else if (((_SIZT)(-1) / sizeof (_Ty) < _Count)

  0000d	74 46		 je	 SHORT $LN5@Allocate@2

; 36   : 		|| (_Ptr = ::operator new(_Count * sizeof (_Ty))) == 0)

  0000f	81 f9 aa aa aa
	0a		 cmp	 ecx, 178956970		; 0aaaaaaaH
  00015	77 16		 ja	 SHORT $LN1@Allocate@2
  00017	8d 04 49	 lea	 eax, DWORD PTR [ecx+ecx*2]
  0001a	03 c0		 add	 eax, eax
  0001c	03 c0		 add	 eax, eax
  0001e	03 c0		 add	 eax, eax
  00020	50		 push	 eax
  00021	e8 00 00 00 00	 call	 ??2@YAPAXI@Z		; operator new
  00026	83 c4 04	 add	 esp, 4
  00029	85 c0		 test	 eax, eax

; 38   : 
; 39   : 	return ((_Ty _FARQ *)_Ptr);

  0002b	75 28		 jne	 SHORT $LN5@Allocate@2
$LN1@Allocate@2:

; 37   : 		_THROW_NCEE(bad_alloc, 0);

  0002d	8d 4d 08	 lea	 ecx, DWORD PTR $T159324[ebp]
  00030	51		 push	 ecx
  00031	8d 4d f4	 lea	 ecx, DWORD PTR $T159320[ebp]
  00034	c7 45 08 00 00
	00 00		 mov	 DWORD PTR $T159324[ebp], 0
  0003b	e8 00 00 00 00	 call	 ??0exception@std@@QAE@ABQBD@Z ; std::exception::exception
  00040	68 00 00 00 00	 push	 OFFSET __TI2?AVbad_alloc@std@@
  00045	8d 55 f4	 lea	 edx, DWORD PTR $T159320[ebp]
  00048	52		 push	 edx
  00049	c7 45 f4 00 00
	00 00		 mov	 DWORD PTR $T159320[ebp], OFFSET ??_7bad_alloc@std@@6B@
  00050	e8 00 00 00 00	 call	 __CxxThrowException@8
$LN10@Allocate@2:
$LN5@Allocate@2:

; 40   : 	}

  00055	8b e5		 mov	 esp, ebp
  00057	5d		 pop	 ebp
  00058	c3		 ret	 0
$LN9@Allocate@2:
??$_Allocate@U_Node@?$_Tree_nod@V?$_Tmap_traits@HPAXU?$less@H@std@@V?$allocator@U?$pair@$$CBHPAX@std@@@2@$0A@@std@@@std@@@std@@YAPAU_Node@?$_Tree_nod@V?$_Tmap_traits@HPAXU?$less@H@std@@V?$allocator@U?$pair@$$CBHPAX@std@@@2@$0A@@std@@@0@IPAU120@@Z ENDP ; std::_Allocate<std::_Tree_nod<std::_Tmap_traits<int,void *,std::less<int>,std::allocator<std::pair<int const ,void *> >,0> >::_Node>
_TEXT	ENDS
PUBLIC	?construct@?$allocator@UEVENT_ID_TIME@@@std@@QAEXPAUEVENT_ID_TIME@@ABU3@@Z ; std::allocator<EVENT_ID_TIME>::construct
; Function compile flags: /Ogtp
;	COMDAT ?construct@?$allocator@UEVENT_ID_TIME@@@std@@QAEXPAUEVENT_ID_TIME@@ABU3@@Z
_TEXT	SEGMENT
__Ptr$ = 8						; size = 4
__Val$ = 12						; size = 4
?construct@?$allocator@UEVENT_ID_TIME@@@std@@QAEXPAUEVENT_ID_TIME@@ABU3@@Z PROC ; std::allocator<EVENT_ID_TIME>::construct, COMDAT
; _this$ = ecx

; 196  : 		{	// construct object at _Ptr with value _Val

  00000	55		 push	 ebp
  00001	8b ec		 mov	 ebp, esp

; 197  : 		_Construct(_Ptr, _Val);

  00003	8b 45 08	 mov	 eax, DWORD PTR __Ptr$[ebp]
  00006	85 c0		 test	 eax, eax
  00008	74 19		 je	 SHORT $LN5@construct@2
  0000a	8b 4d 0c	 mov	 ecx, DWORD PTR __Val$[ebp]
  0000d	8b 11		 mov	 edx, DWORD PTR [ecx]
  0000f	89 10		 mov	 DWORD PTR [eax], edx
  00011	8b 51 04	 mov	 edx, DWORD PTR [ecx+4]
  00014	89 50 04	 mov	 DWORD PTR [eax+4], edx
  00017	8b 51 08	 mov	 edx, DWORD PTR [ecx+8]
  0001a	89 50 08	 mov	 DWORD PTR [eax+8], edx
  0001d	8b 49 0c	 mov	 ecx, DWORD PTR [ecx+12]
  00020	89 48 0c	 mov	 DWORD PTR [eax+12], ecx
$LN5@construct@2:

; 198  : 		}

  00023	5d		 pop	 ebp
  00024	c2 08 00	 ret	 8
?construct@?$allocator@UEVENT_ID_TIME@@@std@@QAEXPAUEVENT_ID_TIME@@ABU3@@Z ENDP ; std::allocator<EVENT_ID_TIME>::construct
_TEXT	ENDS
PUBLIC	?destroy@?$allocator@U?$pair@$$CBHPAX@std@@@std@@QAEXPAU?$pair@$$CBHPAX@2@@Z ; std::allocator<std::pair<int const ,void *> >::destroy
; Function compile flags: /Ogtp
;	COMDAT ?destroy@?$allocator@U?$pair@$$CBHPAX@std@@@std@@QAEXPAU?$pair@$$CBHPAX@2@@Z
_TEXT	SEGMENT
__Ptr$ = 8						; size = 4
?destroy@?$allocator@U?$pair@$$CBHPAX@std@@@std@@QAEXPAU?$pair@$$CBHPAX@2@@Z PROC ; std::allocator<std::pair<int const ,void *> >::destroy, COMDAT
; _this$ = ecx

; 213  : 		_Destroy(_Ptr);
; 214  : 		}

  00000	c2 04 00	 ret	 4
?destroy@?$allocator@U?$pair@$$CBHPAX@std@@@std@@QAEXPAU?$pair@$$CBHPAX@2@@Z ENDP ; std::allocator<std::pair<int const ,void *> >::destroy
_TEXT	ENDS
PUBLIC	?max_size@?$_Tree@V?$_Tmap_traits@HPAXU?$less@H@std@@V?$allocator@U?$pair@$$CBHPAX@std@@@2@$0A@@std@@@std@@QBEIXZ ; std::_Tree<std::_Tmap_traits<int,void *,std::less<int>,std::allocator<std::pair<int const ,void *> >,0> >::max_size
; Function compile flags: /Ogtp
; File c:\program files (x86)\microsoft visual studio 10.0\vc\include\xtree
;	COMDAT ?max_size@?$_Tree@V?$_Tmap_traits@HPAXU?$less@H@std@@V?$allocator@U?$pair@$$CBHPAX@std@@@2@$0A@@std@@@std@@QBEIXZ
_TEXT	SEGMENT
?max_size@?$_Tree@V?$_Tmap_traits@HPAXU?$less@H@std@@V?$allocator@U?$pair@$$CBHPAX@std@@@2@$0A@@std@@@std@@QBEIXZ PROC ; std::_Tree<std::_Tmap_traits<int,void *,std::less<int>,std::allocator<std::pair<int const ,void *> >,0> >::max_size, COMDAT
; _this$ = ecx

; 874  : 		return (this->_Alval.max_size());

  00000	b8 ff ff ff 1f	 mov	 eax, 536870911		; 1fffffffH

; 875  : 		}

  00005	c3		 ret	 0
?max_size@?$_Tree@V?$_Tmap_traits@HPAXU?$less@H@std@@V?$allocator@U?$pair@$$CBHPAX@std@@@2@$0A@@std@@@std@@QBEIXZ ENDP ; std::_Tree<std::_Tmap_traits<int,void *,std::less<int>,std::allocator<std::pair<int const ,void *> >,0> >::max_size
_TEXT	ENDS
PUBLIC	??F?$_Tree_const_iterator@V?$_Tree_val@V?$_Tmap_traits@HPAXU?$less@H@std@@V?$allocator@U?$pair@$$CBHPAX@std@@@2@$0A@@std@@@std@@@std@@QAEAAV01@XZ ; std::_Tree_const_iterator<std::_Tree_val<std::_Tmap_traits<int,void *,std::less<int>,std::allocator<std::pair<int const ,void *> >,0> > >::operator--
; Function compile flags: /Ogtp
;	COMDAT ??F?$_Tree_const_iterator@V?$_Tree_val@V?$_Tmap_traits@HPAXU?$less@H@std@@V?$allocator@U?$pair@$$CBHPAX@std@@@2@$0A@@std@@@std@@@std@@QAEAAV01@XZ
_TEXT	SEGMENT
??F?$_Tree_const_iterator@V?$_Tree_val@V?$_Tmap_traits@HPAXU?$less@H@std@@V?$allocator@U?$pair@$$CBHPAX@std@@@2@$0A@@std@@@std@@@std@@QAEAAV01@XZ PROC ; std::_Tree_const_iterator<std::_Tree_val<std::_Tmap_traits<int,void *,std::less<int>,std::allocator<std::pair<int const ,void *> >,0> > >::operator--, COMDAT
; _this$ = ecx

; 277  : 		{	// predecrement

  00000	56		 push	 esi
  00001	8b f1		 mov	 esi, ecx

; 278  :  #if _ITERATOR_DEBUG_LEVEL == 2
; 279  : 		if (this->_Getcont() == 0
; 280  : 			|| this->_Ptr == 0)
; 281  : 			{	// report error
; 282  : 			_DEBUG_ERROR("map/set iterator not decrementable");
; 283  : 			_SCL_SECURE_OUT_OF_RANGE;
; 284  : 			}
; 285  : 
; 286  : 		_Nodeptr _Ptrsav = this->_Ptr;
; 287  : 		--(*(_Mybase *)this);
; 288  : 		if (_Ptrsav == this->_Ptr)
; 289  : 			{	// report error
; 290  : 			_DEBUG_ERROR("map/set iterator not decrementable");
; 291  : 			_SCL_SECURE_OUT_OF_RANGE;
; 292  : 			}
; 293  : 
; 294  :  #elif _ITERATOR_DEBUG_LEVEL == 1
; 295  : 		_SCL_SECURE_VALIDATE(this->_Getcont() != 0 && this->_Ptr != 0);
; 296  : 
; 297  : 		_Nodeptr _Ptrsav = this->_Ptr;
; 298  : 		--(*(_Mybase *)this);
; 299  : 		_SCL_SECURE_VALIDATE(_Ptrsav != this->_Ptr);
; 300  : 
; 301  :  #else /* _ITERATOR_DEBUG_LEVEL == 0 */
; 302  : 		--(*(_Mybase *)this);

  00003	e8 00 00 00 00	 call	 ??F?$_Tree_unchecked_const_iterator@V?$_Tree_val@V?$_Tmap_traits@HPAXU?$less@H@std@@V?$allocator@U?$pair@$$CBHPAX@std@@@2@$0A@@std@@@std@@U_Iterator_base0@2@@std@@QAEAAV01@XZ ; std::_Tree_unchecked_const_iterator<std::_Tree_val<std::_Tmap_traits<int,void *,std::less<int>,std::allocator<std::pair<int const ,void *> >,0> >,std::_Iterator_base0>::operator--

; 303  :  #endif /* _ITERATOR_DEBUG_LEVEL */
; 304  : 
; 305  : 		return (*this);

  00008	8b c6		 mov	 eax, esi
  0000a	5e		 pop	 esi

; 306  : 		}

  0000b	c3		 ret	 0
??F?$_Tree_const_iterator@V?$_Tree_val@V?$_Tmap_traits@HPAXU?$less@H@std@@V?$allocator@U?$pair@$$CBHPAX@std@@@2@$0A@@std@@@std@@@std@@QAEAAV01@XZ ENDP ; std::_Tree_const_iterator<std::_Tree_val<std::_Tmap_traits<int,void *,std::less<int>,std::allocator<std::pair<int const ,void *> >,0> > >::operator--
_TEXT	ENDS
PUBLIC	??0?$_Pair_base@V?$_Tree_iterator@V?$_Tree_val@V?$_Tmap_traits@HPAXU?$less@H@std@@V?$allocator@U?$pair@$$CBHPAX@std@@@2@$0A@@std@@@std@@@std@@_N@std@@QAE@$$QAV?$_Tree_iterator@V?$_Tree_val@V?$_Tmap_traits@HPAXU?$less@H@std@@V?$allocator@U?$pair@$$CBHPAX@std@@@2@$0A@@std@@@std@@@1@$$QA_N@Z ; std::_Pair_base<std::_Tree_iterator<std::_Tree_val<std::_Tmap_traits<int,void *,std::less<int>,std::allocator<std::pair<int const ,void *> >,0> > >,bool>::_Pair_base<std::_Tree_iterator<std::_Tree_val<std::_Tmap_traits<int,void *,std::less<int>,std::allocator<std::pair<int const ,void *> >,0> > >,bool>
; Function compile flags: /Ogtp
; File c:\program files (x86)\microsoft visual studio 10.0\vc\include\utility
;	COMDAT ??0?$_Pair_base@V?$_Tree_iterator@V?$_Tree_val@V?$_Tmap_traits@HPAXU?$less@H@std@@V?$allocator@U?$pair@$$CBHPAX@std@@@2@$0A@@std@@@std@@@std@@_N@std@@QAE@$$QAV?$_Tree_iterator@V?$_Tree_val@V?$_Tmap_traits@HPAXU?$less@H@std@@V?$allocator@U?$pair@$$CBHPAX@std@@@2@$0A@@std@@@std@@@1@$$QA_N@Z
_TEXT	SEGMENT
__Val1$ = 8						; size = 4
__Val2$ = 12						; size = 4
??0?$_Pair_base@V?$_Tree_iterator@V?$_Tree_val@V?$_Tmap_traits@HPAXU?$less@H@std@@V?$allocator@U?$pair@$$CBHPAX@std@@@2@$0A@@std@@@std@@@std@@_N@std@@QAE@$$QAV?$_Tree_iterator@V?$_Tree_val@V?$_Tmap_traits@HPAXU?$less@H@std@@V?$allocator@U?$pair@$$CBHPAX@std@@@2@$0A@@std@@@std@@@1@$$QA_N@Z PROC ; std::_Pair_base<std::_Tree_iterator<std::_Tree_val<std::_Tmap_traits<int,void *,std::less<int>,std::allocator<std::pair<int const ,void *> >,0> > >,bool>::_Pair_base<std::_Tree_iterator<std::_Tree_val<std::_Tmap_traits<int,void *,std::less<int>,std::allocator<std::pair<int const ,void *> >,0> > >,bool>, COMDAT
; _this$ = ecx

; 145  : 		{	// construct from specified values

  00000	55		 push	 ebp
  00001	8b ec		 mov	 ebp, esp
  00003	8b c1		 mov	 eax, ecx
  00005	8b 4d 08	 mov	 ecx, DWORD PTR __Val1$[ebp]
  00008	8b 11		 mov	 edx, DWORD PTR [ecx]
  0000a	8b 4d 0c	 mov	 ecx, DWORD PTR __Val2$[ebp]
  0000d	89 10		 mov	 DWORD PTR [eax], edx
  0000f	8a 11		 mov	 dl, BYTE PTR [ecx]
  00011	88 50 04	 mov	 BYTE PTR [eax+4], dl

; 146  : 		}

  00014	5d		 pop	 ebp
  00015	c2 08 00	 ret	 8
??0?$_Pair_base@V?$_Tree_iterator@V?$_Tree_val@V?$_Tmap_traits@HPAXU?$less@H@std@@V?$allocator@U?$pair@$$CBHPAX@std@@@2@$0A@@std@@@std@@@std@@_N@std@@QAE@$$QAV?$_Tree_iterator@V?$_Tree_val@V?$_Tmap_traits@HPAXU?$less@H@std@@V?$allocator@U?$pair@$$CBHPAX@std@@@2@$0A@@std@@@std@@@1@$$QA_N@Z ENDP ; std::_Pair_base<std::_Tree_iterator<std::_Tree_val<std::_Tmap_traits<int,void *,std::less<int>,std::allocator<std::pair<int const ,void *> >,0> > >,bool>::_Pair_base<std::_Tree_iterator<std::_Tree_val<std::_Tmap_traits<int,void *,std::less<int>,std::allocator<std::pair<int const ,void *> >,0> > >,bool>
_TEXT	ENDS
PUBLIC	??$_Move@PAUEVENT_ID_TIME@@PAU1@@std@@YAPAUEVENT_ID_TIME@@PAU1@00U_Nonscalar_ptr_iterator_tag@0@@Z ; std::_Move<EVENT_ID_TIME *,EVENT_ID_TIME *>
; Function compile flags: /Ogtp
; File c:\program files (x86)\microsoft visual studio 10.0\vc\include\xutility
;	COMDAT ??$_Move@PAUEVENT_ID_TIME@@PAU1@@std@@YAPAUEVENT_ID_TIME@@PAU1@00U_Nonscalar_ptr_iterator_tag@0@@Z
_TEXT	SEGMENT
__First$ = 8						; size = 4
__Last$ = 12						; size = 4
__Dest$ = 16						; size = 4
___formal$ = 20						; size = 1
??$_Move@PAUEVENT_ID_TIME@@PAU1@@std@@YAPAUEVENT_ID_TIME@@PAU1@00U_Nonscalar_ptr_iterator_tag@0@@Z PROC ; std::_Move<EVENT_ID_TIME *,EVENT_ID_TIME *>, COMDAT

; 2512 : 	{	// move [_First, _Last) to [_Dest, ...), arbitrary iterators

  00000	55		 push	 ebp
  00001	8b ec		 mov	 ebp, esp

; 2513 : 	for (; _First != _Last; ++_Dest, ++_First)

  00003	8b 4d 08	 mov	 ecx, DWORD PTR __First$[ebp]
  00006	8b 55 0c	 mov	 edx, DWORD PTR __Last$[ebp]
  00009	8b 45 10	 mov	 eax, DWORD PTR __Dest$[ebp]
  0000c	3b ca		 cmp	 ecx, edx
  0000e	74 22		 je	 SHORT $LN1@Move
  00010	56		 push	 esi
$LL3@Move:

; 2514 : 		*_Dest = _STD move(*_First);

  00011	8b 31		 mov	 esi, DWORD PTR [ecx]
  00013	89 30		 mov	 DWORD PTR [eax], esi
  00015	8b 71 04	 mov	 esi, DWORD PTR [ecx+4]
  00018	89 70 04	 mov	 DWORD PTR [eax+4], esi
  0001b	8b 71 08	 mov	 esi, DWORD PTR [ecx+8]
  0001e	89 70 08	 mov	 DWORD PTR [eax+8], esi
  00021	8b 71 0c	 mov	 esi, DWORD PTR [ecx+12]
  00024	89 70 0c	 mov	 DWORD PTR [eax+12], esi
  00027	83 c1 10	 add	 ecx, 16			; 00000010H
  0002a	83 c0 10	 add	 eax, 16			; 00000010H
  0002d	3b ca		 cmp	 ecx, edx
  0002f	75 e0		 jne	 SHORT $LL3@Move
  00031	5e		 pop	 esi
$LN1@Move:

; 2515 : 	return (_Dest);
; 2516 : 	}

  00032	5d		 pop	 ebp
  00033	c3		 ret	 0
??$_Move@PAUEVENT_ID_TIME@@PAU1@@std@@YAPAUEVENT_ID_TIME@@PAU1@00U_Nonscalar_ptr_iterator_tag@0@@Z ENDP ; std::_Move<EVENT_ID_TIME *,EVENT_ID_TIME *>
_TEXT	ENDS
PUBLIC	??$?0AAV?$_Tree_iterator@V?$_Tree_val@V?$_Tmap_traits@HPAXU?$less@H@std@@V?$allocator@U?$pair@$$CBHPAX@std@@@2@$0A@@std@@@std@@@std@@_N@?$_Pair_base@V?$_Tree_iterator@V?$_Tree_val@V?$_Tmap_traits@HPAXU?$less@H@std@@V?$allocator@U?$pair@$$CBHPAX@std@@@2@$0A@@std@@@std@@@std@@_N@std@@QAE@AAV?$_Tree_iterator@V?$_Tree_val@V?$_Tmap_traits@HPAXU?$less@H@std@@V?$allocator@U?$pair@$$CBHPAX@std@@@2@$0A@@std@@@std@@@1@$$QA_N@Z ; std::_Pair_base<std::_Tree_iterator<std::_Tree_val<std::_Tmap_traits<int,void *,std::less<int>,std::allocator<std::pair<int const ,void *> >,0> > >,bool>::_Pair_base<std::_Tree_iterator<std::_Tree_val<std::_Tmap_traits<int,void *,std::less<int>,std::allocator<std::pair<int const ,void *> >,0> > >,bool><std::_Tree_iterator<std::_Tree_val<std::_Tmap_traits<int,void *,std::less<int>,std::allocator<std::pair<int const ,void *> >,0> > > &,bool>
; Function compile flags: /Ogtp
; File c:\program files (x86)\microsoft visual studio 10.0\vc\include\utility
;	COMDAT ??$?0AAV?$_Tree_iterator@V?$_Tree_val@V?$_Tmap_traits@HPAXU?$less@H@std@@V?$allocator@U?$pair@$$CBHPAX@std@@@2@$0A@@std@@@std@@@std@@_N@?$_Pair_base@V?$_Tree_iterator@V?$_Tree_val@V?$_Tmap_traits@HPAXU?$less@H@std@@V?$allocator@U?$pair@$$CBHPAX@std@@@2@$0A@@std@@@std@@@std@@_N@std@@QAE@AAV?$_Tree_iterator@V?$_Tree_val@V?$_Tmap_traits@HPAXU?$less@H@std@@V?$allocator@U?$pair@$$CBHPAX@std@@@2@$0A@@std@@@std@@@1@$$QA_N@Z
_TEXT	SEGMENT
__Val1$ = 8						; size = 4
__Val2$ = 12						; size = 4
??$?0AAV?$_Tree_iterator@V?$_Tree_val@V?$_Tmap_traits@HPAXU?$less@H@std@@V?$allocator@U?$pair@$$CBHPAX@std@@@2@$0A@@std@@@std@@@std@@_N@?$_Pair_base@V?$_Tree_iterator@V?$_Tree_val@V?$_Tmap_traits@HPAXU?$less@H@std@@V?$allocator@U?$pair@$$CBHPAX@std@@@2@$0A@@std@@@std@@@std@@_N@std@@QAE@AAV?$_Tree_iterator@V?$_Tree_val@V?$_Tmap_traits@HPAXU?$less@H@std@@V?$allocator@U?$pair@$$CBHPAX@std@@@2@$0A@@std@@@std@@@1@$$QA_N@Z PROC ; std::_Pair_base<std::_Tree_iterator<std::_Tree_val<std::_Tmap_traits<int,void *,std::less<int>,std::allocator<std::pair<int const ,void *> >,0> > >,bool>::_Pair_base<std::_Tree_iterator<std::_Tree_val<std::_Tmap_traits<int,void *,std::less<int>,std::allocator<std::pair<int const ,void *> >,0> > >,bool><std::_Tree_iterator<std::_Tree_val<std::_Tmap_traits<int,void *,std::less<int>,std::allocator<std::pair<int const ,void *> >,0> > > &,bool>, COMDAT
; _this$ = ecx

; 163  : 		{	// construct from moved values

  00000	55		 push	 ebp
  00001	8b ec		 mov	 ebp, esp
  00003	8b c1		 mov	 eax, ecx
  00005	8b 4d 08	 mov	 ecx, DWORD PTR __Val1$[ebp]
  00008	8b 11		 mov	 edx, DWORD PTR [ecx]
  0000a	8b 4d 0c	 mov	 ecx, DWORD PTR __Val2$[ebp]
  0000d	89 10		 mov	 DWORD PTR [eax], edx
  0000f	8a 11		 mov	 dl, BYTE PTR [ecx]
  00011	88 50 04	 mov	 BYTE PTR [eax+4], dl

; 164  : 		}

  00014	5d		 pop	 ebp
  00015	c2 08 00	 ret	 8
??$?0AAV?$_Tree_iterator@V?$_Tree_val@V?$_Tmap_traits@HPAXU?$less@H@std@@V?$allocator@U?$pair@$$CBHPAX@std@@@2@$0A@@std@@@std@@@std@@_N@?$_Pair_base@V?$_Tree_iterator@V?$_Tree_val@V?$_Tmap_traits@HPAXU?$less@H@std@@V?$allocator@U?$pair@$$CBHPAX@std@@@2@$0A@@std@@@std@@@std@@_N@std@@QAE@AAV?$_Tree_iterator@V?$_Tree_val@V?$_Tmap_traits@HPAXU?$less@H@std@@V?$allocator@U?$pair@$$CBHPAX@std@@@2@$0A@@std@@@std@@@1@$$QA_N@Z ENDP ; std::_Pair_base<std::_Tree_iterator<std::_Tree_val<std::_Tmap_traits<int,void *,std::less<int>,std::allocator<std::pair<int const ,void *> >,0> > >,bool>::_Pair_base<std::_Tree_iterator<std::_Tree_val<std::_Tmap_traits<int,void *,std::less<int>,std::allocator<std::pair<int const ,void *> >,0> > >,bool><std::_Tree_iterator<std::_Tree_val<std::_Tmap_traits<int,void *,std::less<int>,std::allocator<std::pair<int const ,void *> >,0> > > &,bool>
_TEXT	ENDS
PUBLIC	?destroy@?$allocator@UEVENT_ID_TIME@@@std@@QAEXPAUEVENT_ID_TIME@@@Z ; std::allocator<EVENT_ID_TIME>::destroy
; Function compile flags: /Ogtp
; File c:\program files (x86)\microsoft visual studio 10.0\vc\include\xmemory
;	COMDAT ?destroy@?$allocator@UEVENT_ID_TIME@@@std@@QAEXPAUEVENT_ID_TIME@@@Z
_TEXT	SEGMENT
__Ptr$ = 8						; size = 4
?destroy@?$allocator@UEVENT_ID_TIME@@@std@@QAEXPAUEVENT_ID_TIME@@@Z PROC ; std::allocator<EVENT_ID_TIME>::destroy, COMDAT
; _this$ = ecx

; 213  : 		_Destroy(_Ptr);
; 214  : 		}

  00000	c2 04 00	 ret	 4
?destroy@?$allocator@UEVENT_ID_TIME@@@std@@QAEXPAUEVENT_ID_TIME@@@Z ENDP ; std::allocator<EVENT_ID_TIME>::destroy
_TEXT	ENDS
PUBLIC	?construct@?$allocator@UEVENT_ID_TIME@@@std@@QAEXPAUEVENT_ID_TIME@@$$QAU3@@Z ; std::allocator<EVENT_ID_TIME>::construct
; Function compile flags: /Ogtp
;	COMDAT ?construct@?$allocator@UEVENT_ID_TIME@@@std@@QAEXPAUEVENT_ID_TIME@@$$QAU3@@Z
_TEXT	SEGMENT
__Ptr$ = 8						; size = 4
__Val$ = 12						; size = 4
?construct@?$allocator@UEVENT_ID_TIME@@@std@@QAEXPAUEVENT_ID_TIME@@$$QAU3@@Z PROC ; std::allocator<EVENT_ID_TIME>::construct, COMDAT
; _this$ = ecx

; 201  : 		{	// construct object at _Ptr with value _Val

  00000	55		 push	 ebp
  00001	8b ec		 mov	 ebp, esp

; 202  : 		::new ((void _FARQ *)_Ptr) _Ty(_STD forward<_Ty>(_Val));

  00003	8b 45 08	 mov	 eax, DWORD PTR __Ptr$[ebp]
  00006	85 c0		 test	 eax, eax
  00008	74 19		 je	 SHORT $LN3@construct@3
  0000a	8b 4d 0c	 mov	 ecx, DWORD PTR __Val$[ebp]
  0000d	8b 11		 mov	 edx, DWORD PTR [ecx]
  0000f	89 10		 mov	 DWORD PTR [eax], edx
  00011	8b 51 04	 mov	 edx, DWORD PTR [ecx+4]
  00014	89 50 04	 mov	 DWORD PTR [eax+4], edx
  00017	8b 51 08	 mov	 edx, DWORD PTR [ecx+8]
  0001a	89 50 08	 mov	 DWORD PTR [eax+8], edx
  0001d	8b 49 0c	 mov	 ecx, DWORD PTR [ecx+12]
  00020	89 48 0c	 mov	 DWORD PTR [eax+12], ecx
$LN3@construct@3:

; 203  : 		}

  00023	5d		 pop	 ebp
  00024	c2 08 00	 ret	 8
?construct@?$allocator@UEVENT_ID_TIME@@@std@@QAEXPAUEVENT_ID_TIME@@$$QAU3@@Z ENDP ; std::allocator<EVENT_ID_TIME>::construct
_TEXT	ENDS
PUBLIC	??$?0HPAX@?$pair@$$CBHPAX@std@@QAE@$$QAU?$pair@HPAX@1@@Z ; std::pair<int const ,void *>::pair<int const ,void *><int,void *>
; Function compile flags: /Ogtp
; File c:\program files (x86)\microsoft visual studio 10.0\vc\include\utility
;	COMDAT ??$?0HPAX@?$pair@$$CBHPAX@std@@QAE@$$QAU?$pair@HPAX@1@@Z
_TEXT	SEGMENT
__Right$ = 8						; size = 4
??$?0HPAX@?$pair@$$CBHPAX@std@@QAE@$$QAU?$pair@HPAX@1@@Z PROC ; std::pair<int const ,void *>::pair<int const ,void *><int,void *>, COMDAT
; _this$ = ecx

; 255  : 		{	// construct from moved compatible pair

  00000	55		 push	 ebp
  00001	8b ec		 mov	 ebp, esp
  00003	8b c1		 mov	 eax, ecx
  00005	8b 4d 08	 mov	 ecx, DWORD PTR __Right$[ebp]
  00008	8b 11		 mov	 edx, DWORD PTR [ecx]
  0000a	89 10		 mov	 DWORD PTR [eax], edx
  0000c	8b 49 04	 mov	 ecx, DWORD PTR [ecx+4]
  0000f	89 48 04	 mov	 DWORD PTR [eax+4], ecx

; 256  : 		}

  00012	5d		 pop	 ebp
  00013	c2 04 00	 ret	 4
??$?0HPAX@?$pair@$$CBHPAX@std@@QAE@$$QAU?$pair@HPAX@1@@Z ENDP ; std::pair<int const ,void *>::pair<int const ,void *><int,void *>
_TEXT	ENDS
PUBLIC	??$swap@D@std@@YAXAAD0@Z			; std::swap<char>
; Function compile flags: /Ogtp
;	COMDAT ??$swap@D@std@@YAXAAD0@Z
_TEXT	SEGMENT
__Left$ = 8						; size = 4
__Right$ = 12						; size = 4
??$swap@D@std@@YAXAAD0@Z PROC				; std::swap<char>, COMDAT

; 101  : 	{	// exchange values stored at _Left and _Right

  00000	55		 push	 ebp
  00001	8b ec		 mov	 ebp, esp

; 102  : 	_Ty _Tmp = _Move(_Left);

  00003	8b 45 08	 mov	 eax, DWORD PTR __Left$[ebp]
  00006	8a 08		 mov	 cl, BYTE PTR [eax]
  00008	56		 push	 esi

; 103  : 	_Left = _Move(_Right);

  00009	8b 75 0c	 mov	 esi, DWORD PTR __Right$[ebp]
  0000c	8a 16		 mov	 dl, BYTE PTR [esi]
  0000e	88 10		 mov	 BYTE PTR [eax], dl

; 104  : 	_Right = _Move(_Tmp);

  00010	88 0e		 mov	 BYTE PTR [esi], cl
  00012	5e		 pop	 esi

; 105  : 	}

  00013	5d		 pop	 ebp
  00014	c3		 ret	 0
??$swap@D@std@@YAXAAD0@Z ENDP				; std::swap<char>
_TEXT	ENDS
PUBLIC	??0?$vector@UEVENT_ID_TIME@@V?$allocator@UEVENT_ID_TIME@@@std@@@std@@QAE@XZ ; std::vector<EVENT_ID_TIME,std::allocator<EVENT_ID_TIME> >::vector<EVENT_ID_TIME,std::allocator<EVENT_ID_TIME> >
; Function compile flags: /Ogtp
; File c:\program files (x86)\microsoft visual studio 10.0\vc\include\vector
;	COMDAT ??0?$vector@UEVENT_ID_TIME@@V?$allocator@UEVENT_ID_TIME@@@std@@@std@@QAE@XZ
_TEXT	SEGMENT
??0?$vector@UEVENT_ID_TIME@@V?$allocator@UEVENT_ID_TIME@@@std@@@std@@QAE@XZ PROC ; std::vector<EVENT_ID_TIME,std::allocator<EVENT_ID_TIME> >::vector<EVENT_ID_TIME,std::allocator<EVENT_ID_TIME> >, COMDAT
; _this$ = ecx

; 507  : 		{	// construct empty vector

  00000	8b c1		 mov	 eax, ecx
  00002	33 c9		 xor	 ecx, ecx
  00004	89 08		 mov	 DWORD PTR [eax], ecx
  00006	89 48 04	 mov	 DWORD PTR [eax+4], ecx
  00009	89 48 08	 mov	 DWORD PTR [eax+8], ecx

; 508  : 		}

  0000c	c3		 ret	 0
??0?$vector@UEVENT_ID_TIME@@V?$allocator@UEVENT_ID_TIME@@@std@@@std@@QAE@XZ ENDP ; std::vector<EVENT_ID_TIME,std::allocator<EVENT_ID_TIME> >::vector<EVENT_ID_TIME,std::allocator<EVENT_ID_TIME> >
_TEXT	ENDS
PUBLIC	??0?$_Tree_iterator@V?$_Tree_val@V?$_Tmap_traits@HPAXU?$less@H@std@@V?$allocator@U?$pair@$$CBHPAX@std@@@2@$0A@@std@@@std@@@std@@QAE@XZ ; std::_Tree_iterator<std::_Tree_val<std::_Tmap_traits<int,void *,std::less<int>,std::allocator<std::pair<int const ,void *> >,0> > >::_Tree_iterator<std::_Tree_val<std::_Tmap_traits<int,void *,std::less<int>,std::allocator<std::pair<int const ,void *> >,0> > >
; Function compile flags: /Ogtp
; File c:\program files (x86)\microsoft visual studio 10.0\vc\include\xtree
;	COMDAT ??0?$_Tree_iterator@V?$_Tree_val@V?$_Tmap_traits@HPAXU?$less@H@std@@V?$allocator@U?$pair@$$CBHPAX@std@@@2@$0A@@std@@@std@@@std@@QAE@XZ
_TEXT	SEGMENT
??0?$_Tree_iterator@V?$_Tree_val@V?$_Tmap_traits@HPAXU?$less@H@std@@V?$allocator@U?$pair@$$CBHPAX@std@@@2@$0A@@std@@@std@@@std@@QAE@XZ PROC ; std::_Tree_iterator<std::_Tree_val<std::_Tmap_traits<int,void *,std::less<int>,std::allocator<std::pair<int const ,void *> >,0> > >::_Tree_iterator<std::_Tree_val<std::_Tmap_traits<int,void *,std::less<int>,std::allocator<std::pair<int const ,void *> >,0> > >, COMDAT
; _this$ = ecx

; 372  : 	_Tree_iterator()

  00000	8b c1		 mov	 eax, ecx
  00002	c7 00 00 00 00
	00		 mov	 DWORD PTR [eax], 0

; 373  : 		{	// construct with null node
; 374  : 		}

  00008	c3		 ret	 0
??0?$_Tree_iterator@V?$_Tree_val@V?$_Tmap_traits@HPAXU?$less@H@std@@V?$allocator@U?$pair@$$CBHPAX@std@@@2@$0A@@std@@@std@@@std@@QAE@XZ ENDP ; std::_Tree_iterator<std::_Tree_val<std::_Tmap_traits<int,void *,std::less<int>,std::allocator<std::pair<int const ,void *> >,0> > >::_Tree_iterator<std::_Tree_val<std::_Tmap_traits<int,void *,std::less<int>,std::allocator<std::pair<int const ,void *> >,0> > >
_TEXT	ENDS
PUBLIC	??C?$_Tree_iterator@V?$_Tree_val@V?$_Tmap_traits@HPAXU?$less@H@std@@V?$allocator@U?$pair@$$CBHPAX@std@@@2@$0A@@std@@@std@@@std@@QBEPAU?$pair@$$CBHPAX@1@XZ ; std::_Tree_iterator<std::_Tree_val<std::_Tmap_traits<int,void *,std::less<int>,std::allocator<std::pair<int const ,void *> >,0> > >::operator->
; Function compile flags: /Ogtp
;	COMDAT ??C?$_Tree_iterator@V?$_Tree_val@V?$_Tmap_traits@HPAXU?$less@H@std@@V?$allocator@U?$pair@$$CBHPAX@std@@@2@$0A@@std@@@std@@@std@@QBEPAU?$pair@$$CBHPAX@1@XZ
_TEXT	SEGMENT
??C?$_Tree_iterator@V?$_Tree_val@V?$_Tmap_traits@HPAXU?$less@H@std@@V?$allocator@U?$pair@$$CBHPAX@std@@@2@$0A@@std@@@std@@@std@@QBEPAU?$pair@$$CBHPAX@1@XZ PROC ; std::_Tree_iterator<std::_Tree_val<std::_Tmap_traits<int,void *,std::less<int>,std::allocator<std::pair<int const ,void *> >,0> > >::operator->, COMDAT
; _this$ = ecx

; 401  : 		return (&**this);

  00000	8b 01		 mov	 eax, DWORD PTR [ecx]
  00002	83 c0 0c	 add	 eax, 12			; 0000000cH

; 402  : 		}

  00005	c3		 ret	 0
??C?$_Tree_iterator@V?$_Tree_val@V?$_Tmap_traits@HPAXU?$less@H@std@@V?$allocator@U?$pair@$$CBHPAX@std@@@2@$0A@@std@@@std@@@std@@QBEPAU?$pair@$$CBHPAX@1@XZ ENDP ; std::_Tree_iterator<std::_Tree_val<std::_Tmap_traits<int,void *,std::less<int>,std::allocator<std::pair<int const ,void *> >,0> > >::operator->
_TEXT	ENDS
PUBLIC	??E?$_Vector_iterator@V?$_Vector_val@UEVENT_ID_TIME@@V?$allocator@UEVENT_ID_TIME@@@std@@@std@@@std@@QAE?AV01@H@Z ; std::_Vector_iterator<std::_Vector_val<EVENT_ID_TIME,std::allocator<EVENT_ID_TIME> > >::operator++
; Function compile flags: /Ogtp
; File c:\program files (x86)\microsoft visual studio 10.0\vc\include\vector
;	COMDAT ??E?$_Vector_iterator@V?$_Vector_val@UEVENT_ID_TIME@@V?$allocator@UEVENT_ID_TIME@@@std@@@std@@@std@@QAE?AV01@H@Z
_TEXT	SEGMENT
___$ReturnUdt$ = 8					; size = 4
___formal$ = 12						; size = 4
??E?$_Vector_iterator@V?$_Vector_val@UEVENT_ID_TIME@@V?$allocator@UEVENT_ID_TIME@@@std@@@std@@@std@@QAE?AV01@H@Z PROC ; std::_Vector_iterator<std::_Vector_val<EVENT_ID_TIME,std::allocator<EVENT_ID_TIME> > >::operator++, COMDAT
; _this$ = ecx

; 337  : 		{	// postincrement

  00000	55		 push	 ebp
  00001	8b ec		 mov	 ebp, esp

; 338  : 		_Myiter _Tmp = *this;

  00003	8b 11		 mov	 edx, DWORD PTR [ecx]
  00005	8b 45 08	 mov	 eax, DWORD PTR ___$ReturnUdt$[ebp]
  00008	89 10		 mov	 DWORD PTR [eax], edx

; 339  : 		++*this;

  0000a	83 c2 10	 add	 edx, 16			; 00000010H
  0000d	89 11		 mov	 DWORD PTR [ecx], edx

; 340  : 		return (_Tmp);
; 341  : 		}

  0000f	5d		 pop	 ebp
  00010	c2 08 00	 ret	 8
??E?$_Vector_iterator@V?$_Vector_val@UEVENT_ID_TIME@@V?$allocator@UEVENT_ID_TIME@@@std@@@std@@@std@@QAE?AV01@H@Z ENDP ; std::_Vector_iterator<std::_Vector_val<EVENT_ID_TIME,std::allocator<EVENT_ID_TIME> > >::operator++
_TEXT	ENDS
PUBLIC	??9?$_Vector_const_iterator@V?$_Vector_val@UEVENT_ID_TIME@@V?$allocator@UEVENT_ID_TIME@@@std@@@std@@@std@@QBE_NABV01@@Z ; std::_Vector_const_iterator<std::_Vector_val<EVENT_ID_TIME,std::allocator<EVENT_ID_TIME> > >::operator!=
; Function compile flags: /Ogtp
;	COMDAT ??9?$_Vector_const_iterator@V?$_Vector_val@UEVENT_ID_TIME@@V?$allocator@UEVENT_ID_TIME@@@std@@@std@@@std@@QBE_NABV01@@Z
_TEXT	SEGMENT
__Right$ = 8						; size = 4
??9?$_Vector_const_iterator@V?$_Vector_val@UEVENT_ID_TIME@@V?$allocator@UEVENT_ID_TIME@@@std@@@std@@@std@@QBE_NABV01@@Z PROC ; std::_Vector_const_iterator<std::_Vector_val<EVENT_ID_TIME,std::allocator<EVENT_ID_TIME> > >::operator!=, COMDAT
; _this$ = ecx

; 207  : 		{	// test for iterator inequality

  00000	55		 push	 ebp
  00001	8b ec		 mov	 ebp, esp

; 208  : 		return (!(*this == _Right));

  00003	8b 01		 mov	 eax, DWORD PTR [ecx]
  00005	8b 55 08	 mov	 edx, DWORD PTR __Right$[ebp]
  00008	33 c9		 xor	 ecx, ecx
  0000a	3b 02		 cmp	 eax, DWORD PTR [edx]
  0000c	0f 95 c0	 setne	 al

; 209  : 		}

  0000f	5d		 pop	 ebp
  00010	c2 04 00	 ret	 4
??9?$_Vector_const_iterator@V?$_Vector_val@UEVENT_ID_TIME@@V?$allocator@UEVENT_ID_TIME@@@std@@@std@@@std@@QBE_NABV01@@Z ENDP ; std::_Vector_const_iterator<std::_Vector_val<EVENT_ID_TIME,std::allocator<EVENT_ID_TIME> > >::operator!=
_TEXT	ENDS
PUBLIC	??0?$_Vector_iterator@V?$_Vector_val@UEVENT_ID_TIME@@V?$allocator@UEVENT_ID_TIME@@@std@@@std@@@std@@QAE@PAUEVENT_ID_TIME@@PBU_Container_base0@1@@Z ; std::_Vector_iterator<std::_Vector_val<EVENT_ID_TIME,std::allocator<EVENT_ID_TIME> > >::_Vector_iterator<std::_Vector_val<EVENT_ID_TIME,std::allocator<EVENT_ID_TIME> > >
; Function compile flags: /Ogtp
;	COMDAT ??0?$_Vector_iterator@V?$_Vector_val@UEVENT_ID_TIME@@V?$allocator@UEVENT_ID_TIME@@@std@@@std@@@std@@QAE@PAUEVENT_ID_TIME@@PBU_Container_base0@1@@Z
_TEXT	SEGMENT
__Parg$ = 8						; size = 4
__Pvector$ = 12						; size = 4
??0?$_Vector_iterator@V?$_Vector_val@UEVENT_ID_TIME@@V?$allocator@UEVENT_ID_TIME@@@std@@@std@@@std@@QAE@PAUEVENT_ID_TIME@@PBU_Container_base0@1@@Z PROC ; std::_Vector_iterator<std::_Vector_val<EVENT_ID_TIME,std::allocator<EVENT_ID_TIME> > >::_Vector_iterator<std::_Vector_val<EVENT_ID_TIME,std::allocator<EVENT_ID_TIME> > >, COMDAT
; _this$ = ecx

; 304  : 		{	// construct with pointer _Parg

  00000	55		 push	 ebp
  00001	8b ec		 mov	 ebp, esp
  00003	8b c1		 mov	 eax, ecx
  00005	8b 4d 08	 mov	 ecx, DWORD PTR __Parg$[ebp]
  00008	89 08		 mov	 DWORD PTR [eax], ecx

; 305  : 		}

  0000a	5d		 pop	 ebp
  0000b	c2 08 00	 ret	 8
??0?$_Vector_iterator@V?$_Vector_val@UEVENT_ID_TIME@@V?$allocator@UEVENT_ID_TIME@@@std@@@std@@@std@@QAE@PAUEVENT_ID_TIME@@PBU_Container_base0@1@@Z ENDP ; std::_Vector_iterator<std::_Vector_val<EVENT_ID_TIME,std::allocator<EVENT_ID_TIME> > >::_Vector_iterator<std::_Vector_val<EVENT_ID_TIME,std::allocator<EVENT_ID_TIME> > >
_TEXT	ENDS
PUBLIC	?_Make_iter@?$vector@UEVENT_ID_TIME@@V?$allocator@UEVENT_ID_TIME@@@std@@@std@@QBE?AV?$_Vector_iterator@V?$_Vector_val@UEVENT_ID_TIME@@V?$allocator@UEVENT_ID_TIME@@@std@@@std@@@2@V?$_Vector_const_iterator@V?$_Vector_val@UEVENT_ID_TIME@@V?$allocator@UEVENT_ID_TIME@@@std@@@std@@@2@@Z ; std::vector<EVENT_ID_TIME,std::allocator<EVENT_ID_TIME> >::_Make_iter
; Function compile flags: /Ogtp
;	COMDAT ?_Make_iter@?$vector@UEVENT_ID_TIME@@V?$allocator@UEVENT_ID_TIME@@@std@@@std@@QBE?AV?$_Vector_iterator@V?$_Vector_val@UEVENT_ID_TIME@@V?$allocator@UEVENT_ID_TIME@@@std@@@std@@@2@V?$_Vector_const_iterator@V?$_Vector_val@UEVENT_ID_TIME@@V?$allocator@UEVENT_ID_TIME@@@std@@@std@@@2@@Z
_TEXT	SEGMENT
___$ReturnUdt$ = 8					; size = 4
__Where$ = 12						; size = 4
?_Make_iter@?$vector@UEVENT_ID_TIME@@V?$allocator@UEVENT_ID_TIME@@@std@@@std@@QBE?AV?$_Vector_iterator@V?$_Vector_val@UEVENT_ID_TIME@@V?$allocator@UEVENT_ID_TIME@@@std@@@std@@@2@V?$_Vector_const_iterator@V?$_Vector_val@UEVENT_ID_TIME@@V?$allocator@UEVENT_ID_TIME@@@std@@@std@@@2@@Z PROC ; std::vector<EVENT_ID_TIME,std::allocator<EVENT_ID_TIME> >::_Make_iter, COMDAT
; _this$ = ecx

; 801  : 		{	// make iterator from const_iterator

  00000	55		 push	 ebp
  00001	8b ec		 mov	 ebp, esp

; 802  : 		return (iterator(_Where._Ptr, this));

  00003	8b 45 08	 mov	 eax, DWORD PTR ___$ReturnUdt$[ebp]
  00006	8b 4d 0c	 mov	 ecx, DWORD PTR __Where$[ebp]
  00009	89 08		 mov	 DWORD PTR [eax], ecx

; 803  : 		}

  0000b	5d		 pop	 ebp
  0000c	c2 08 00	 ret	 8
?_Make_iter@?$vector@UEVENT_ID_TIME@@V?$allocator@UEVENT_ID_TIME@@@std@@@std@@QBE?AV?$_Vector_iterator@V?$_Vector_val@UEVENT_ID_TIME@@V?$allocator@UEVENT_ID_TIME@@@std@@@std@@@2@V?$_Vector_const_iterator@V?$_Vector_val@UEVENT_ID_TIME@@V?$allocator@UEVENT_ID_TIME@@@std@@@std@@@2@@Z ENDP ; std::vector<EVENT_ID_TIME,std::allocator<EVENT_ID_TIME> >::_Make_iter
_TEXT	ENDS
PUBLIC	??0?$_Tree_const_iterator@V?$_Tree_val@V?$_Tmap_traits@HPAXU?$less@H@std@@V?$allocator@U?$pair@$$CBHPAX@std@@@2@$0A@@std@@@std@@@std@@QAE@PAU_Node@?$_Tree_nod@V?$_Tmap_traits@HPAXU?$less@H@std@@V?$allocator@U?$pair@$$CBHPAX@std@@@2@$0A@@std@@@1@PBV?$_Tree_val@V?$_Tmap_traits@HPAXU?$less@H@std@@V?$allocator@U?$pair@$$CBHPAX@std@@@2@$0A@@std@@@1@@Z ; std::_Tree_const_iterator<std::_Tree_val<std::_Tmap_traits<int,void *,std::less<int>,std::allocator<std::pair<int const ,void *> >,0> > >::_Tree_const_iterator<std::_Tree_val<std::_Tmap_traits<int,void *,std::less<int>,std::allocator<std::pair<int const ,void *> >,0> > >
; Function compile flags: /Ogtp
; File c:\program files (x86)\microsoft visual studio 10.0\vc\include\xtree
;	COMDAT ??0?$_Tree_const_iterator@V?$_Tree_val@V?$_Tmap_traits@HPAXU?$less@H@std@@V?$allocator@U?$pair@$$CBHPAX@std@@@2@$0A@@std@@@std@@@std@@QAE@PAU_Node@?$_Tree_nod@V?$_Tmap_traits@HPAXU?$less@H@std@@V?$allocator@U?$pair@$$CBHPAX@std@@@2@$0A@@std@@@1@PBV?$_Tree_val@V?$_Tmap_traits@HPAXU?$less@H@std@@V?$allocator@U?$pair@$$CBHPAX@std@@@2@$0A@@std@@@1@@Z
_TEXT	SEGMENT
__Pnode$ = 8						; size = 4
__Plist$ = 12						; size = 4
??0?$_Tree_const_iterator@V?$_Tree_val@V?$_Tmap_traits@HPAXU?$less@H@std@@V?$allocator@U?$pair@$$CBHPAX@std@@@2@$0A@@std@@@std@@@std@@QAE@PAU_Node@?$_Tree_nod@V?$_Tmap_traits@HPAXU?$less@H@std@@V?$allocator@U?$pair@$$CBHPAX@std@@@2@$0A@@std@@@1@PBV?$_Tree_val@V?$_Tmap_traits@HPAXU?$less@H@std@@V?$allocator@U?$pair@$$CBHPAX@std@@@2@$0A@@std@@@1@@Z PROC ; std::_Tree_const_iterator<std::_Tree_val<std::_Tmap_traits<int,void *,std::less<int>,std::allocator<std::pair<int const ,void *> >,0> > >::_Tree_const_iterator<std::_Tree_val<std::_Tmap_traits<int,void *,std::less<int>,std::allocator<std::pair<int const ,void *> >,0> > >, COMDAT
; _this$ = ecx

; 213  : 		{	// construct with node pointer _Pnode

  00000	55		 push	 ebp
  00001	8b ec		 mov	 ebp, esp
  00003	8b c1		 mov	 eax, ecx
  00005	8b 4d 08	 mov	 ecx, DWORD PTR __Pnode$[ebp]
  00008	89 08		 mov	 DWORD PTR [eax], ecx

; 214  : 		}

  0000a	5d		 pop	 ebp
  0000b	c2 08 00	 ret	 8
??0?$_Tree_const_iterator@V?$_Tree_val@V?$_Tmap_traits@HPAXU?$less@H@std@@V?$allocator@U?$pair@$$CBHPAX@std@@@2@$0A@@std@@@std@@@std@@QAE@PAU_Node@?$_Tree_nod@V?$_Tmap_traits@HPAXU?$less@H@std@@V?$allocator@U?$pair@$$CBHPAX@std@@@2@$0A@@std@@@1@PBV?$_Tree_val@V?$_Tmap_traits@HPAXU?$less@H@std@@V?$allocator@U?$pair@$$CBHPAX@std@@@2@$0A@@std@@@1@@Z ENDP ; std::_Tree_const_iterator<std::_Tree_val<std::_Tmap_traits<int,void *,std::less<int>,std::allocator<std::pair<int const ,void *> >,0> > >::_Tree_const_iterator<std::_Tree_val<std::_Tmap_traits<int,void *,std::less<int>,std::allocator<std::pair<int const ,void *> >,0> > >
_TEXT	ENDS
PUBLIC	?allocate@?$allocator@UEVENT_ID_TIME@@@std@@QAEPAUEVENT_ID_TIME@@I@Z ; std::allocator<EVENT_ID_TIME>::allocate
; Function compile flags: /Ogtp
; File c:\program files (x86)\microsoft visual studio 10.0\vc\include\xmemory
;	COMDAT ?allocate@?$allocator@UEVENT_ID_TIME@@@std@@QAEPAUEVENT_ID_TIME@@I@Z
_TEXT	SEGMENT
$T159564 = -12						; size = 12
$T159556 = 8						; size = 4
__Count$ = 8						; size = 4
?allocate@?$allocator@UEVENT_ID_TIME@@@std@@QAEPAUEVENT_ID_TIME@@I@Z PROC ; std::allocator<EVENT_ID_TIME>::allocate, COMDAT
; _this$ = ecx

; 186  : 		{	// allocate array of _Count elements

  00000	55		 push	 ebp
  00001	8b ec		 mov	 ebp, esp

; 187  : 		return (_Allocate(_Count, (pointer)0));

  00003	8b 4d 08	 mov	 ecx, DWORD PTR __Count$[ebp]
  00006	83 ec 0c	 sub	 esp, 12			; 0000000cH
  00009	33 c0		 xor	 eax, eax
  0000b	85 c9		 test	 ecx, ecx
  0000d	74 40		 je	 SHORT $LN1@allocate
  0000f	81 f9 ff ff ff
	0f		 cmp	 ecx, 268435455		; 0fffffffH
  00015	77 10		 ja	 SHORT $LN3@allocate
  00017	c1 e1 04	 shl	 ecx, 4
  0001a	51		 push	 ecx
  0001b	e8 00 00 00 00	 call	 ??2@YAPAXI@Z		; operator new
  00020	83 c4 04	 add	 esp, 4
  00023	85 c0		 test	 eax, eax
  00025	75 28		 jne	 SHORT $LN1@allocate
$LN3@allocate:
  00027	8d 45 08	 lea	 eax, DWORD PTR $T159556[ebp]
  0002a	50		 push	 eax
  0002b	8d 4d f4	 lea	 ecx, DWORD PTR $T159564[ebp]
  0002e	c7 45 08 00 00
	00 00		 mov	 DWORD PTR $T159556[ebp], 0
  00035	e8 00 00 00 00	 call	 ??0exception@std@@QAE@ABQBD@Z ; std::exception::exception
  0003a	68 00 00 00 00	 push	 OFFSET __TI2?AVbad_alloc@std@@
  0003f	8d 4d f4	 lea	 ecx, DWORD PTR $T159564[ebp]
  00042	51		 push	 ecx
  00043	c7 45 f4 00 00
	00 00		 mov	 DWORD PTR $T159564[ebp], OFFSET ??_7bad_alloc@std@@6B@
  0004a	e8 00 00 00 00	 call	 __CxxThrowException@8
$LN13@allocate:
$LN1@allocate:

; 188  : 		}

  0004f	8b e5		 mov	 esp, ebp
  00051	5d		 pop	 ebp
  00052	c2 04 00	 ret	 4
$LN12@allocate:
?allocate@?$allocator@UEVENT_ID_TIME@@@std@@QAEPAUEVENT_ID_TIME@@I@Z ENDP ; std::allocator<EVENT_ID_TIME>::allocate
_TEXT	ENDS
PUBLIC	?allocate@?$allocator@U_Node@?$_Tree_nod@V?$_Tmap_traits@HPAXU?$less@H@std@@V?$allocator@U?$pair@$$CBHPAX@std@@@2@$0A@@std@@@std@@@std@@QAEPAU_Node@?$_Tree_nod@V?$_Tmap_traits@HPAXU?$less@H@std@@V?$allocator@U?$pair@$$CBHPAX@std@@@2@$0A@@std@@@2@I@Z ; std::allocator<std::_Tree_nod<std::_Tmap_traits<int,void *,std::less<int>,std::allocator<std::pair<int const ,void *> >,0> >::_Node>::allocate
; Function compile flags: /Ogtp
;	COMDAT ?allocate@?$allocator@U_Node@?$_Tree_nod@V?$_Tmap_traits@HPAXU?$less@H@std@@V?$allocator@U?$pair@$$CBHPAX@std@@@2@$0A@@std@@@std@@@std@@QAEPAU_Node@?$_Tree_nod@V?$_Tmap_traits@HPAXU?$less@H@std@@V?$allocator@U?$pair@$$CBHPAX@std@@@2@$0A@@std@@@2@I@Z
_TEXT	SEGMENT
$T159587 = -12						; size = 12
$T159579 = 8						; size = 4
__Count$ = 8						; size = 4
?allocate@?$allocator@U_Node@?$_Tree_nod@V?$_Tmap_traits@HPAXU?$less@H@std@@V?$allocator@U?$pair@$$CBHPAX@std@@@2@$0A@@std@@@std@@@std@@QAEPAU_Node@?$_Tree_nod@V?$_Tmap_traits@HPAXU?$less@H@std@@V?$allocator@U?$pair@$$CBHPAX@std@@@2@$0A@@std@@@2@I@Z PROC ; std::allocator<std::_Tree_nod<std::_Tmap_traits<int,void *,std::less<int>,std::allocator<std::pair<int const ,void *> >,0> >::_Node>::allocate, COMDAT
; _this$ = ecx

; 186  : 		{	// allocate array of _Count elements

  00000	55		 push	 ebp
  00001	8b ec		 mov	 ebp, esp

; 187  : 		return (_Allocate(_Count, (pointer)0));

  00003	8b 4d 08	 mov	 ecx, DWORD PTR __Count$[ebp]
  00006	83 ec 0c	 sub	 esp, 12			; 0000000cH
  00009	33 c0		 xor	 eax, eax
  0000b	85 c9		 test	 ecx, ecx
  0000d	74 46		 je	 SHORT $LN1@allocate@2
  0000f	81 f9 aa aa aa
	0a		 cmp	 ecx, 178956970		; 0aaaaaaaH
  00015	77 16		 ja	 SHORT $LN3@allocate@2
  00017	8d 04 49	 lea	 eax, DWORD PTR [ecx+ecx*2]
  0001a	03 c0		 add	 eax, eax
  0001c	03 c0		 add	 eax, eax
  0001e	03 c0		 add	 eax, eax
  00020	50		 push	 eax
  00021	e8 00 00 00 00	 call	 ??2@YAPAXI@Z		; operator new
  00026	83 c4 04	 add	 esp, 4
  00029	85 c0		 test	 eax, eax
  0002b	75 28		 jne	 SHORT $LN1@allocate@2
$LN3@allocate@2:
  0002d	8d 4d 08	 lea	 ecx, DWORD PTR $T159579[ebp]
  00030	51		 push	 ecx
  00031	8d 4d f4	 lea	 ecx, DWORD PTR $T159587[ebp]
  00034	c7 45 08 00 00
	00 00		 mov	 DWORD PTR $T159579[ebp], 0
  0003b	e8 00 00 00 00	 call	 ??0exception@std@@QAE@ABQBD@Z ; std::exception::exception
  00040	68 00 00 00 00	 push	 OFFSET __TI2?AVbad_alloc@std@@
  00045	8d 55 f4	 lea	 edx, DWORD PTR $T159587[ebp]
  00048	52		 push	 edx
  00049	c7 45 f4 00 00
	00 00		 mov	 DWORD PTR $T159587[ebp], OFFSET ??_7bad_alloc@std@@6B@
  00050	e8 00 00 00 00	 call	 __CxxThrowException@8
$LN13@allocate@2:
$LN1@allocate@2:

; 188  : 		}

  00055	8b e5		 mov	 esp, ebp
  00057	5d		 pop	 ebp
  00058	c2 04 00	 ret	 4
$LN12@allocate@2:
?allocate@?$allocator@U_Node@?$_Tree_nod@V?$_Tmap_traits@HPAXU?$less@H@std@@V?$allocator@U?$pair@$$CBHPAX@std@@@2@$0A@@std@@@std@@@std@@QAEPAU_Node@?$_Tree_nod@V?$_Tmap_traits@HPAXU?$less@H@std@@V?$allocator@U?$pair@$$CBHPAX@std@@@2@$0A@@std@@@2@I@Z ENDP ; std::allocator<std::_Tree_nod<std::_Tmap_traits<int,void *,std::less<int>,std::allocator<std::pair<int const ,void *> >,0> >::_Node>::allocate
_TEXT	ENDS
PUBLIC	??E?$_Tree_const_iterator@V?$_Tree_val@V?$_Tmap_traits@HPAXU?$less@H@std@@V?$allocator@U?$pair@$$CBHPAX@std@@@2@$0A@@std@@@std@@@std@@QAE?AV01@H@Z ; std::_Tree_const_iterator<std::_Tree_val<std::_Tmap_traits<int,void *,std::less<int>,std::allocator<std::pair<int const ,void *> >,0> > >::operator++
; Function compile flags: /Ogtp
; File c:\program files (x86)\microsoft visual studio 10.0\vc\include\xtree
;	COMDAT ??E?$_Tree_const_iterator@V?$_Tree_val@V?$_Tmap_traits@HPAXU?$less@H@std@@V?$allocator@U?$pair@$$CBHPAX@std@@@2@$0A@@std@@@std@@@std@@QAE?AV01@H@Z
_TEXT	SEGMENT
___$ReturnUdt$ = 8					; size = 4
___formal$ = 12						; size = 4
??E?$_Tree_const_iterator@V?$_Tree_val@V?$_Tmap_traits@HPAXU?$less@H@std@@V?$allocator@U?$pair@$$CBHPAX@std@@@2@$0A@@std@@@std@@@std@@QAE?AV01@H@Z PROC ; std::_Tree_const_iterator<std::_Tree_val<std::_Tmap_traits<int,void *,std::less<int>,std::allocator<std::pair<int const ,void *> >,0> > >::operator++, COMDAT
; _this$ = ecx

; 270  : 		{	// postincrement

  00000	55		 push	 ebp
  00001	8b ec		 mov	 ebp, esp

; 271  : 		_Myiter _Tmp = *this;

  00003	8b 01		 mov	 eax, DWORD PTR [ecx]
  00005	56		 push	 esi
  00006	8b 75 08	 mov	 esi, DWORD PTR ___$ReturnUdt$[ebp]
  00009	89 06		 mov	 DWORD PTR [esi], eax

; 272  : 		++*this;

  0000b	e8 00 00 00 00	 call	 ??E?$_Tree_unchecked_const_iterator@V?$_Tree_val@V?$_Tmap_traits@HPAXU?$less@H@std@@V?$allocator@U?$pair@$$CBHPAX@std@@@2@$0A@@std@@@std@@U_Iterator_base0@2@@std@@QAEAAV01@XZ ; std::_Tree_unchecked_const_iterator<std::_Tree_val<std::_Tmap_traits<int,void *,std::less<int>,std::allocator<std::pair<int const ,void *> >,0> >,std::_Iterator_base0>::operator++

; 273  : 		return (_Tmp);

  00010	8b c6		 mov	 eax, esi
  00012	5e		 pop	 esi

; 274  : 		}

  00013	5d		 pop	 ebp
  00014	c2 08 00	 ret	 8
??E?$_Tree_const_iterator@V?$_Tree_val@V?$_Tmap_traits@HPAXU?$less@H@std@@V?$allocator@U?$pair@$$CBHPAX@std@@@2@$0A@@std@@@std@@@std@@QAE?AV01@H@Z ENDP ; std::_Tree_const_iterator<std::_Tree_val<std::_Tmap_traits<int,void *,std::less<int>,std::allocator<std::pair<int const ,void *> >,0> > >::operator++
_TEXT	ENDS
PUBLIC	??$_Cons_val@V?$allocator@UEVENT_ID_TIME@@@std@@UEVENT_ID_TIME@@ABU3@@std@@YAXAAV?$allocator@UEVENT_ID_TIME@@@0@PAUEVENT_ID_TIME@@ABU2@@Z ; std::_Cons_val<std::allocator<EVENT_ID_TIME>,EVENT_ID_TIME,EVENT_ID_TIME const &>
; Function compile flags: /Ogtp
; File c:\program files (x86)\microsoft visual studio 10.0\vc\include\xmemory
;	COMDAT ??$_Cons_val@V?$allocator@UEVENT_ID_TIME@@@std@@UEVENT_ID_TIME@@ABU3@@std@@YAXAAV?$allocator@UEVENT_ID_TIME@@@0@PAUEVENT_ID_TIME@@ABU2@@Z
_TEXT	SEGMENT
__Alval$ = 8						; size = 4
__Pdest$ = 12						; size = 4
__Src$ = 16						; size = 4
??$_Cons_val@V?$allocator@UEVENT_ID_TIME@@@std@@UEVENT_ID_TIME@@ABU3@@std@@YAXAAV?$allocator@UEVENT_ID_TIME@@@0@PAUEVENT_ID_TIME@@ABU2@@Z PROC ; std::_Cons_val<std::allocator<EVENT_ID_TIME>,EVENT_ID_TIME,EVENT_ID_TIME const &>, COMDAT

; 279  : 	{	// construct using allocator

  00000	55		 push	 ebp
  00001	8b ec		 mov	 ebp, esp

; 280  : 	_Alval.construct(_Pdest, _STD forward<_Ty2>(_Src));

  00003	8b 45 0c	 mov	 eax, DWORD PTR __Pdest$[ebp]
  00006	85 c0		 test	 eax, eax
  00008	74 19		 je	 SHORT $LN9@Cons_val@2
  0000a	8b 4d 10	 mov	 ecx, DWORD PTR __Src$[ebp]
  0000d	8b 11		 mov	 edx, DWORD PTR [ecx]
  0000f	89 10		 mov	 DWORD PTR [eax], edx
  00011	8b 51 04	 mov	 edx, DWORD PTR [ecx+4]
  00014	89 50 04	 mov	 DWORD PTR [eax+4], edx
  00017	8b 51 08	 mov	 edx, DWORD PTR [ecx+8]
  0001a	89 50 08	 mov	 DWORD PTR [eax+8], edx
  0001d	8b 49 0c	 mov	 ecx, DWORD PTR [ecx+12]
  00020	89 48 0c	 mov	 DWORD PTR [eax+12], ecx
$LN9@Cons_val@2:

; 281  : 	}

  00023	5d		 pop	 ebp
  00024	c3		 ret	 0
??$_Cons_val@V?$allocator@UEVENT_ID_TIME@@@std@@UEVENT_ID_TIME@@ABU3@@std@@YAXAAV?$allocator@UEVENT_ID_TIME@@@0@PAUEVENT_ID_TIME@@ABU2@@Z ENDP ; std::_Cons_val<std::allocator<EVENT_ID_TIME>,EVENT_ID_TIME,EVENT_ID_TIME const &>
_TEXT	ENDS
PUBLIC	??$_Move@PAUEVENT_ID_TIME@@PAU1@@std@@YAPAUEVENT_ID_TIME@@PAU1@00@Z ; std::_Move<EVENT_ID_TIME *,EVENT_ID_TIME *>
; Function compile flags: /Ogtp
; File c:\program files (x86)\microsoft visual studio 10.0\vc\include\xutility
;	COMDAT ??$_Move@PAUEVENT_ID_TIME@@PAU1@@std@@YAPAUEVENT_ID_TIME@@PAU1@00@Z
_TEXT	SEGMENT
__First$ = 8						; size = 4
__Last$ = 12						; size = 4
__Dest$ = 16						; size = 4
??$_Move@PAUEVENT_ID_TIME@@PAU1@@std@@YAPAUEVENT_ID_TIME@@PAU1@00@Z PROC ; std::_Move<EVENT_ID_TIME *,EVENT_ID_TIME *>, COMDAT

; 2533 : 	{	// move [_First, _Last) to [_Dest, ...), unchecked

  00000	55		 push	 ebp
  00001	8b ec		 mov	 ebp, esp

; 2534 : 	return (_Move(_First, _Last,
; 2535 : 		_Dest, _Ptr_cat(_First, _Dest)));

  00003	8b 4d 08	 mov	 ecx, DWORD PTR __First$[ebp]
  00006	8b 55 0c	 mov	 edx, DWORD PTR __Last$[ebp]
  00009	8b 45 10	 mov	 eax, DWORD PTR __Dest$[ebp]
  0000c	3b ca		 cmp	 ecx, edx
  0000e	74 22		 je	 SHORT $LN5@Move@2
  00010	56		 push	 esi
$LL7@Move@2:
  00011	8b 31		 mov	 esi, DWORD PTR [ecx]
  00013	89 30		 mov	 DWORD PTR [eax], esi
  00015	8b 71 04	 mov	 esi, DWORD PTR [ecx+4]
  00018	89 70 04	 mov	 DWORD PTR [eax+4], esi
  0001b	8b 71 08	 mov	 esi, DWORD PTR [ecx+8]
  0001e	89 70 08	 mov	 DWORD PTR [eax+8], esi
  00021	8b 71 0c	 mov	 esi, DWORD PTR [ecx+12]
  00024	89 70 0c	 mov	 DWORD PTR [eax+12], esi
  00027	83 c1 10	 add	 ecx, 16			; 00000010H
  0002a	83 c0 10	 add	 eax, 16			; 00000010H
  0002d	3b ca		 cmp	 ecx, edx
  0002f	75 e0		 jne	 SHORT $LL7@Move@2
  00031	5e		 pop	 esi
$LN5@Move@2:

; 2536 : 	}

  00032	5d		 pop	 ebp
  00033	c3		 ret	 0
??$_Move@PAUEVENT_ID_TIME@@PAU1@@std@@YAPAUEVENT_ID_TIME@@PAU1@00@Z ENDP ; std::_Move<EVENT_ID_TIME *,EVENT_ID_TIME *>
_TEXT	ENDS
PUBLIC	??$_Dest_val@V?$allocator@U?$pair@$$CBHPAX@std@@@std@@U?$pair@$$CBHPAX@2@@std@@YAXAAV?$allocator@U?$pair@$$CBHPAX@std@@@0@PAU?$pair@$$CBHPAX@0@@Z ; std::_Dest_val<std::allocator<std::pair<int const ,void *> >,std::pair<int const ,void *> >
; Function compile flags: /Ogtp
; File c:\program files (x86)\microsoft visual studio 10.0\vc\include\xmemory
;	COMDAT ??$_Dest_val@V?$allocator@U?$pair@$$CBHPAX@std@@@std@@U?$pair@$$CBHPAX@2@@std@@YAXAAV?$allocator@U?$pair@$$CBHPAX@std@@@0@PAU?$pair@$$CBHPAX@0@@Z
_TEXT	SEGMENT
__Alval$ = 8						; size = 4
__Pdest$ = 12						; size = 4
??$_Dest_val@V?$allocator@U?$pair@$$CBHPAX@std@@@std@@U?$pair@$$CBHPAX@2@@std@@YAXAAV?$allocator@U?$pair@$$CBHPAX@std@@@0@PAU?$pair@$$CBHPAX@0@@Z PROC ; std::_Dest_val<std::allocator<std::pair<int const ,void *> >,std::pair<int const ,void *> >, COMDAT

; 287  : 	_Alval.destroy(_Pdest);
; 288  : 	}

  00000	c3		 ret	 0
??$_Dest_val@V?$allocator@U?$pair@$$CBHPAX@std@@@std@@U?$pair@$$CBHPAX@2@@std@@YAXAAV?$allocator@U?$pair@$$CBHPAX@std@@@0@PAU?$pair@$$CBHPAX@0@@Z ENDP ; std::_Dest_val<std::allocator<std::pair<int const ,void *> >,std::pair<int const ,void *> >
_TEXT	ENDS
PUBLIC	??F?$_Tree_iterator@V?$_Tree_val@V?$_Tmap_traits@HPAXU?$less@H@std@@V?$allocator@U?$pair@$$CBHPAX@std@@@2@$0A@@std@@@std@@@std@@QAEAAV01@XZ ; std::_Tree_iterator<std::_Tree_val<std::_Tmap_traits<int,void *,std::less<int>,std::allocator<std::pair<int const ,void *> >,0> > >::operator--
; Function compile flags: /Ogtp
; File c:\program files (x86)\microsoft visual studio 10.0\vc\include\xtree
;	COMDAT ??F?$_Tree_iterator@V?$_Tree_val@V?$_Tmap_traits@HPAXU?$less@H@std@@V?$allocator@U?$pair@$$CBHPAX@std@@@2@$0A@@std@@@std@@@std@@QAEAAV01@XZ
_TEXT	SEGMENT
??F?$_Tree_iterator@V?$_Tree_val@V?$_Tmap_traits@HPAXU?$less@H@std@@V?$allocator@U?$pair@$$CBHPAX@std@@@2@$0A@@std@@@std@@@std@@QAEAAV01@XZ PROC ; std::_Tree_iterator<std::_Tree_val<std::_Tmap_traits<int,void *,std::less<int>,std::allocator<std::pair<int const ,void *> >,0> > >::operator--, COMDAT
; _this$ = ecx

; 418  : 		{	// predecrement

  00000	56		 push	 esi
  00001	8b f1		 mov	 esi, ecx

; 419  : 		--(*(_Mybase *)this);

  00003	e8 00 00 00 00	 call	 ??F?$_Tree_unchecked_const_iterator@V?$_Tree_val@V?$_Tmap_traits@HPAXU?$less@H@std@@V?$allocator@U?$pair@$$CBHPAX@std@@@2@$0A@@std@@@std@@U_Iterator_base0@2@@std@@QAEAAV01@XZ ; std::_Tree_unchecked_const_iterator<std::_Tree_val<std::_Tmap_traits<int,void *,std::less<int>,std::allocator<std::pair<int const ,void *> >,0> >,std::_Iterator_base0>::operator--

; 420  : 		return (*this);

  00008	8b c6		 mov	 eax, esi
  0000a	5e		 pop	 esi

; 421  : 		}

  0000b	c3		 ret	 0
??F?$_Tree_iterator@V?$_Tree_val@V?$_Tmap_traits@HPAXU?$less@H@std@@V?$allocator@U?$pair@$$CBHPAX@std@@@2@$0A@@std@@@std@@@std@@QAEAAV01@XZ ENDP ; std::_Tree_iterator<std::_Tree_val<std::_Tmap_traits<int,void *,std::less<int>,std::allocator<std::pair<int const ,void *> >,0> > >::operator--
_TEXT	ENDS
PUBLIC	??0?$pair@V?$_Tree_iterator@V?$_Tree_val@V?$_Tmap_traits@HPAXU?$less@H@std@@V?$allocator@U?$pair@$$CBHPAX@std@@@2@$0A@@std@@@std@@@std@@_N@std@@QAE@$$QAV?$_Tree_iterator@V?$_Tree_val@V?$_Tmap_traits@HPAXU?$less@H@std@@V?$allocator@U?$pair@$$CBHPAX@std@@@2@$0A@@std@@@std@@@1@$$QA_N@Z ; std::pair<std::_Tree_iterator<std::_Tree_val<std::_Tmap_traits<int,void *,std::less<int>,std::allocator<std::pair<int const ,void *> >,0> > >,bool>::pair<std::_Tree_iterator<std::_Tree_val<std::_Tmap_traits<int,void *,std::less<int>,std::allocator<std::pair<int const ,void *> >,0> > >,bool>
; Function compile flags: /Ogtp
; File c:\program files (x86)\microsoft visual studio 10.0\vc\include\utility
;	COMDAT ??0?$pair@V?$_Tree_iterator@V?$_Tree_val@V?$_Tmap_traits@HPAXU?$less@H@std@@V?$allocator@U?$pair@$$CBHPAX@std@@@2@$0A@@std@@@std@@@std@@_N@std@@QAE@$$QAV?$_Tree_iterator@V?$_Tree_val@V?$_Tmap_traits@HPAXU?$less@H@std@@V?$allocator@U?$pair@$$CBHPAX@std@@@2@$0A@@std@@@std@@@1@$$QA_N@Z
_TEXT	SEGMENT
__Val1$ = 8						; size = 4
__Val2$ = 12						; size = 4
??0?$pair@V?$_Tree_iterator@V?$_Tree_val@V?$_Tmap_traits@HPAXU?$less@H@std@@V?$allocator@U?$pair@$$CBHPAX@std@@@2@$0A@@std@@@std@@@std@@_N@std@@QAE@$$QAV?$_Tree_iterator@V?$_Tree_val@V?$_Tmap_traits@HPAXU?$less@H@std@@V?$allocator@U?$pair@$$CBHPAX@std@@@2@$0A@@std@@@std@@@1@$$QA_N@Z PROC ; std::pair<std::_Tree_iterator<std::_Tree_val<std::_Tmap_traits<int,void *,std::less<int>,std::allocator<std::pair<int const ,void *> >,0> > >,bool>::pair<std::_Tree_iterator<std::_Tree_val<std::_Tmap_traits<int,void *,std::less<int>,std::allocator<std::pair<int const ,void *> >,0> > >,bool>, COMDAT
; _this$ = ecx

; 227  : 		{	// construct from specified values

  00000	55		 push	 ebp
  00001	8b ec		 mov	 ebp, esp
  00003	8b c1		 mov	 eax, ecx
  00005	8b 4d 08	 mov	 ecx, DWORD PTR __Val1$[ebp]
  00008	8b 11		 mov	 edx, DWORD PTR [ecx]
  0000a	8b 4d 0c	 mov	 ecx, DWORD PTR __Val2$[ebp]
  0000d	89 10		 mov	 DWORD PTR [eax], edx
  0000f	8a 11		 mov	 dl, BYTE PTR [ecx]
  00011	88 50 04	 mov	 BYTE PTR [eax+4], dl

; 228  : 		}

  00014	5d		 pop	 ebp
  00015	c2 08 00	 ret	 8
??0?$pair@V?$_Tree_iterator@V?$_Tree_val@V?$_Tmap_traits@HPAXU?$less@H@std@@V?$allocator@U?$pair@$$CBHPAX@std@@@2@$0A@@std@@@std@@@std@@_N@std@@QAE@$$QAV?$_Tree_iterator@V?$_Tree_val@V?$_Tmap_traits@HPAXU?$less@H@std@@V?$allocator@U?$pair@$$CBHPAX@std@@@2@$0A@@std@@@std@@@1@$$QA_N@Z ENDP ; std::pair<std::_Tree_iterator<std::_Tree_val<std::_Tmap_traits<int,void *,std::less<int>,std::allocator<std::pair<int const ,void *> >,0> > >,bool>::pair<std::_Tree_iterator<std::_Tree_val<std::_Tmap_traits<int,void *,std::less<int>,std::allocator<std::pair<int const ,void *> >,0> > >,bool>
_TEXT	ENDS
PUBLIC	??$?0AAV?$_Tree_iterator@V?$_Tree_val@V?$_Tmap_traits@HPAXU?$less@H@std@@V?$allocator@U?$pair@$$CBHPAX@std@@@2@$0A@@std@@@std@@@std@@_N@?$pair@V?$_Tree_iterator@V?$_Tree_val@V?$_Tmap_traits@HPAXU?$less@H@std@@V?$allocator@U?$pair@$$CBHPAX@std@@@2@$0A@@std@@@std@@@std@@_N@std@@QAE@AAV?$_Tree_iterator@V?$_Tree_val@V?$_Tmap_traits@HPAXU?$less@H@std@@V?$allocator@U?$pair@$$CBHPAX@std@@@2@$0A@@std@@@std@@@1@$$QA_N@Z ; std::pair<std::_Tree_iterator<std::_Tree_val<std::_Tmap_traits<int,void *,std::less<int>,std::allocator<std::pair<int const ,void *> >,0> > >,bool>::pair<std::_Tree_iterator<std::_Tree_val<std::_Tmap_traits<int,void *,std::less<int>,std::allocator<std::pair<int const ,void *> >,0> > >,bool><std::_Tree_iterator<std::_Tree_val<std::_Tmap_traits<int,void *,std::less<int>,std::allocator<std::pair<int const ,void *> >,0> > > &,bool>
; Function compile flags: /Ogtp
;	COMDAT ??$?0AAV?$_Tree_iterator@V?$_Tree_val@V?$_Tmap_traits@HPAXU?$less@H@std@@V?$allocator@U?$pair@$$CBHPAX@std@@@2@$0A@@std@@@std@@@std@@_N@?$pair@V?$_Tree_iterator@V?$_Tree_val@V?$_Tmap_traits@HPAXU?$less@H@std@@V?$allocator@U?$pair@$$CBHPAX@std@@@2@$0A@@std@@@std@@@std@@_N@std@@QAE@AAV?$_Tree_iterator@V?$_Tree_val@V?$_Tmap_traits@HPAXU?$less@H@std@@V?$allocator@U?$pair@$$CBHPAX@std@@@2@$0A@@std@@@std@@@1@$$QA_N@Z
_TEXT	SEGMENT
__Val1$ = 8						; size = 4
__Val2$ = 12						; size = 4
??$?0AAV?$_Tree_iterator@V?$_Tree_val@V?$_Tmap_traits@HPAXU?$less@H@std@@V?$allocator@U?$pair@$$CBHPAX@std@@@2@$0A@@std@@@std@@@std@@_N@?$pair@V?$_Tree_iterator@V?$_Tree_val@V?$_Tmap_traits@HPAXU?$less@H@std@@V?$allocator@U?$pair@$$CBHPAX@std@@@2@$0A@@std@@@std@@@std@@_N@std@@QAE@AAV?$_Tree_iterator@V?$_Tree_val@V?$_Tmap_traits@HPAXU?$less@H@std@@V?$allocator@U?$pair@$$CBHPAX@std@@@2@$0A@@std@@@std@@@1@$$QA_N@Z PROC ; std::pair<std::_Tree_iterator<std::_Tree_val<std::_Tmap_traits<int,void *,std::less<int>,std::allocator<std::pair<int const ,void *> >,0> > >,bool>::pair<std::_Tree_iterator<std::_Tree_val<std::_Tmap_traits<int,void *,std::less<int>,std::allocator<std::pair<int const ,void *> >,0> > >,bool><std::_Tree_iterator<std::_Tree_val<std::_Tmap_traits<int,void *,std::less<int>,std::allocator<std::pair<int const ,void *> >,0> > > &,bool>, COMDAT
; _this$ = ecx

; 247  : 		{	// construct from moved values

  00000	55		 push	 ebp
  00001	8b ec		 mov	 ebp, esp
  00003	8b c1		 mov	 eax, ecx
  00005	8b 4d 08	 mov	 ecx, DWORD PTR __Val1$[ebp]
  00008	8b 11		 mov	 edx, DWORD PTR [ecx]
  0000a	8b 4d 0c	 mov	 ecx, DWORD PTR __Val2$[ebp]
  0000d	89 10		 mov	 DWORD PTR [eax], edx
  0000f	8a 11		 mov	 dl, BYTE PTR [ecx]
  00011	88 50 04	 mov	 BYTE PTR [eax+4], dl

; 248  : 		}

  00014	5d		 pop	 ebp
  00015	c2 08 00	 ret	 8
??$?0AAV?$_Tree_iterator@V?$_Tree_val@V?$_Tmap_traits@HPAXU?$less@H@std@@V?$allocator@U?$pair@$$CBHPAX@std@@@2@$0A@@std@@@std@@@std@@_N@?$pair@V?$_Tree_iterator@V?$_Tree_val@V?$_Tmap_traits@HPAXU?$less@H@std@@V?$allocator@U?$pair@$$CBHPAX@std@@@2@$0A@@std@@@std@@@std@@_N@std@@QAE@AAV?$_Tree_iterator@V?$_Tree_val@V?$_Tmap_traits@HPAXU?$less@H@std@@V?$allocator@U?$pair@$$CBHPAX@std@@@2@$0A@@std@@@std@@@1@$$QA_N@Z ENDP ; std::pair<std::_Tree_iterator<std::_Tree_val<std::_Tmap_traits<int,void *,std::less<int>,std::allocator<std::pair<int const ,void *> >,0> > >,bool>::pair<std::_Tree_iterator<std::_Tree_val<std::_Tmap_traits<int,void *,std::less<int>,std::allocator<std::pair<int const ,void *> >,0> > >,bool><std::_Tree_iterator<std::_Tree_val<std::_Tmap_traits<int,void *,std::less<int>,std::allocator<std::pair<int const ,void *> >,0> > > &,bool>
_TEXT	ENDS
PUBLIC	?_Buynode@?$_Tree_val@V?$_Tmap_traits@HPAXU?$less@H@std@@V?$allocator@U?$pair@$$CBHPAX@std@@@2@$0A@@std@@@std@@QAEPAU_Node@?$_Tree_nod@V?$_Tmap_traits@HPAXU?$less@H@std@@V?$allocator@U?$pair@$$CBHPAX@std@@@2@$0A@@std@@@2@XZ ; std::_Tree_val<std::_Tmap_traits<int,void *,std::less<int>,std::allocator<std::pair<int const ,void *> >,0> >::_Buynode
; Function compile flags: /Ogtp
; File c:\program files (x86)\microsoft visual studio 10.0\vc\include\xtree
;	COMDAT ?_Buynode@?$_Tree_val@V?$_Tmap_traits@HPAXU?$less@H@std@@V?$allocator@U?$pair@$$CBHPAX@std@@@2@$0A@@std@@@std@@QAEPAU_Node@?$_Tree_nod@V?$_Tmap_traits@HPAXU?$less@H@std@@V?$allocator@U?$pair@$$CBHPAX@std@@@2@$0A@@std@@@2@XZ
_TEXT	SEGMENT
$T159746 = -16						; size = 12
$T159723 = -4						; size = 4
?_Buynode@?$_Tree_val@V?$_Tmap_traits@HPAXU?$less@H@std@@V?$allocator@U?$pair@$$CBHPAX@std@@@2@$0A@@std@@@std@@QAEPAU_Node@?$_Tree_nod@V?$_Tmap_traits@HPAXU?$less@H@std@@V?$allocator@U?$pair@$$CBHPAX@std@@@2@$0A@@std@@@2@XZ PROC ; std::_Tree_val<std::_Tmap_traits<int,void *,std::less<int>,std::allocator<std::pair<int const ,void *> >,0> >::_Buynode, COMDAT
; _this$ = ecx

; 559  : 		{	// allocate a node

  00000	55		 push	 ebp
  00001	8b ec		 mov	 ebp, esp
  00003	83 ec 10	 sub	 esp, 16			; 00000010H
  00006	56		 push	 esi

; 560  : 		_Nodeptr _Wherenode = this->_Alnod.allocate(1);

  00007	6a 18		 push	 24			; 00000018H
  00009	8b f1		 mov	 esi, ecx
  0000b	e8 00 00 00 00	 call	 ??2@YAPAXI@Z		; operator new
  00010	33 c9		 xor	 ecx, ecx
  00012	83 c4 04	 add	 esp, 4
  00015	3b c1		 cmp	 eax, ecx
  00017	74 1a		 je	 SHORT $LN5@Buynode

; 561  : 
; 562  : 		this->_Left(_Wherenode) = this->_Myhead;

  00019	8b 56 04	 mov	 edx, DWORD PTR [esi+4]
  0001c	89 10		 mov	 DWORD PTR [eax], edx

; 563  : 		this->_Parent(_Wherenode) = this->_Myhead;

  0001e	8b 56 04	 mov	 edx, DWORD PTR [esi+4]
  00021	89 50 04	 mov	 DWORD PTR [eax+4], edx

; 564  : 		this->_Right(_Wherenode) = this->_Myhead;

  00024	8b 56 04	 mov	 edx, DWORD PTR [esi+4]
  00027	89 50 08	 mov	 DWORD PTR [eax+8], edx

; 565  : 		this->_Color(_Wherenode) = this->_Red;

  0002a	66 89 48 14	 mov	 WORD PTR [eax+20], cx
  0002e	5e		 pop	 esi

; 566  : 		this->_Isnil(_Wherenode) = false;
; 567  : 		return (_Wherenode);
; 568  : 		}

  0002f	8b e5		 mov	 esp, ebp
  00031	5d		 pop	 ebp
  00032	c3		 ret	 0

; 560  : 		_Nodeptr _Wherenode = this->_Alnod.allocate(1);

$LN5@Buynode:
  00033	8d 45 fc	 lea	 eax, DWORD PTR $T159723[ebp]
  00036	89 4d fc	 mov	 DWORD PTR $T159723[ebp], ecx
  00039	50		 push	 eax
  0003a	8d 4d f0	 lea	 ecx, DWORD PTR $T159746[ebp]
  0003d	e8 00 00 00 00	 call	 ??0exception@std@@QAE@ABQBD@Z ; std::exception::exception
  00042	68 00 00 00 00	 push	 OFFSET __TI2?AVbad_alloc@std@@
  00047	8d 4d f0	 lea	 ecx, DWORD PTR $T159746[ebp]
  0004a	51		 push	 ecx
  0004b	c7 45 f0 00 00
	00 00		 mov	 DWORD PTR $T159746[ebp], OFFSET ??_7bad_alloc@std@@6B@
  00052	e8 00 00 00 00	 call	 __CxxThrowException@8
$LN27@Buynode:
$LN26@Buynode:
  00057	cc		 int	 3
?_Buynode@?$_Tree_val@V?$_Tmap_traits@HPAXU?$less@H@std@@V?$allocator@U?$pair@$$CBHPAX@std@@@2@$0A@@std@@@std@@QAEPAU_Node@?$_Tree_nod@V?$_Tmap_traits@HPAXU?$less@H@std@@V?$allocator@U?$pair@$$CBHPAX@std@@@2@$0A@@std@@@2@XZ ENDP ; std::_Tree_val<std::_Tmap_traits<int,void *,std::less<int>,std::allocator<std::pair<int const ,void *> >,0> >::_Buynode
_TEXT	ENDS
PUBLIC	??$_Dest_val@V?$allocator@UEVENT_ID_TIME@@@std@@UEVENT_ID_TIME@@@std@@YAXAAV?$allocator@UEVENT_ID_TIME@@@0@PAUEVENT_ID_TIME@@@Z ; std::_Dest_val<std::allocator<EVENT_ID_TIME>,EVENT_ID_TIME>
; Function compile flags: /Ogtp
; File c:\program files (x86)\microsoft visual studio 10.0\vc\include\xmemory
;	COMDAT ??$_Dest_val@V?$allocator@UEVENT_ID_TIME@@@std@@UEVENT_ID_TIME@@@std@@YAXAAV?$allocator@UEVENT_ID_TIME@@@0@PAUEVENT_ID_TIME@@@Z
_TEXT	SEGMENT
__Alval$ = 8						; size = 4
__Pdest$ = 12						; size = 4
??$_Dest_val@V?$allocator@UEVENT_ID_TIME@@@std@@UEVENT_ID_TIME@@@std@@YAXAAV?$allocator@UEVENT_ID_TIME@@@0@PAUEVENT_ID_TIME@@@Z PROC ; std::_Dest_val<std::allocator<EVENT_ID_TIME>,EVENT_ID_TIME>, COMDAT

; 287  : 	_Alval.destroy(_Pdest);
; 288  : 	}

  00000	c3		 ret	 0
??$_Dest_val@V?$allocator@UEVENT_ID_TIME@@@std@@UEVENT_ID_TIME@@@std@@YAXAAV?$allocator@UEVENT_ID_TIME@@@0@PAUEVENT_ID_TIME@@@Z ENDP ; std::_Dest_val<std::allocator<EVENT_ID_TIME>,EVENT_ID_TIME>
_TEXT	ENDS
PUBLIC	??$construct@U?$pair@HPAX@std@@@?$allocator@U?$pair@$$CBHPAX@std@@@std@@QAEXPAU?$pair@$$CBHPAX@1@$$QAU?$pair@HPAX@1@@Z ; std::allocator<std::pair<int const ,void *> >::construct<std::pair<int,void *> >
; Function compile flags: /Ogtp
;	COMDAT ??$construct@U?$pair@HPAX@std@@@?$allocator@U?$pair@$$CBHPAX@std@@@std@@QAEXPAU?$pair@$$CBHPAX@1@$$QAU?$pair@HPAX@1@@Z
_TEXT	SEGMENT
__Ptr$ = 8						; size = 4
__Val$ = 12						; size = 4
??$construct@U?$pair@HPAX@std@@@?$allocator@U?$pair@$$CBHPAX@std@@@std@@QAEXPAU?$pair@$$CBHPAX@1@$$QAU?$pair@HPAX@1@@Z PROC ; std::allocator<std::pair<int const ,void *> >::construct<std::pair<int,void *> >, COMDAT
; _this$ = ecx

; 206  : 		void construct(pointer _Ptr, _Other&& _Val)

  00000	55		 push	 ebp
  00001	8b ec		 mov	 ebp, esp

; 207  : 		{	// construct object at _Ptr with value _Val
; 208  : 		::new ((void _FARQ *)_Ptr) _Ty(_STD forward<_Other>(_Val));

  00003	8b 45 08	 mov	 eax, DWORD PTR __Ptr$[ebp]
  00006	85 c0		 test	 eax, eax
  00008	74 0d		 je	 SHORT $LN3@construct@4
  0000a	8b 4d 0c	 mov	 ecx, DWORD PTR __Val$[ebp]
  0000d	8b 11		 mov	 edx, DWORD PTR [ecx]
  0000f	89 10		 mov	 DWORD PTR [eax], edx
  00011	8b 49 04	 mov	 ecx, DWORD PTR [ecx+4]
  00014	89 48 04	 mov	 DWORD PTR [eax+4], ecx
$LN3@construct@4:

; 209  : 		}

  00017	5d		 pop	 ebp
  00018	c2 08 00	 ret	 8
??$construct@U?$pair@HPAX@std@@@?$allocator@U?$pair@$$CBHPAX@std@@@std@@QAEXPAU?$pair@$$CBHPAX@1@$$QAU?$pair@HPAX@1@@Z ENDP ; std::allocator<std::pair<int const ,void *> >::construct<std::pair<int,void *> >
_TEXT	ENDS
PUBLIC	??$_Cons_val@V?$allocator@UEVENT_ID_TIME@@@std@@UEVENT_ID_TIME@@U3@@std@@YAXAAV?$allocator@UEVENT_ID_TIME@@@0@PAUEVENT_ID_TIME@@$$QAU2@@Z ; std::_Cons_val<std::allocator<EVENT_ID_TIME>,EVENT_ID_TIME,EVENT_ID_TIME>
; Function compile flags: /Ogtp
;	COMDAT ??$_Cons_val@V?$allocator@UEVENT_ID_TIME@@@std@@UEVENT_ID_TIME@@U3@@std@@YAXAAV?$allocator@UEVENT_ID_TIME@@@0@PAUEVENT_ID_TIME@@$$QAU2@@Z
_TEXT	SEGMENT
__Alval$ = 8						; size = 4
__Pdest$ = 12						; size = 4
__Src$ = 16						; size = 4
??$_Cons_val@V?$allocator@UEVENT_ID_TIME@@@std@@UEVENT_ID_TIME@@U3@@std@@YAXAAV?$allocator@UEVENT_ID_TIME@@@0@PAUEVENT_ID_TIME@@$$QAU2@@Z PROC ; std::_Cons_val<std::allocator<EVENT_ID_TIME>,EVENT_ID_TIME,EVENT_ID_TIME>, COMDAT

; 279  : 	{	// construct using allocator

  00000	55		 push	 ebp
  00001	8b ec		 mov	 ebp, esp

; 280  : 	_Alval.construct(_Pdest, _STD forward<_Ty2>(_Src));

  00003	8b 45 0c	 mov	 eax, DWORD PTR __Pdest$[ebp]
  00006	85 c0		 test	 eax, eax
  00008	74 19		 je	 SHORT $LN7@Cons_val@3
  0000a	8b 4d 10	 mov	 ecx, DWORD PTR __Src$[ebp]
  0000d	8b 11		 mov	 edx, DWORD PTR [ecx]
  0000f	89 10		 mov	 DWORD PTR [eax], edx
  00011	8b 51 04	 mov	 edx, DWORD PTR [ecx+4]
  00014	89 50 04	 mov	 DWORD PTR [eax+4], edx
  00017	8b 51 08	 mov	 edx, DWORD PTR [ecx+8]
  0001a	89 50 08	 mov	 DWORD PTR [eax+8], edx
  0001d	8b 49 0c	 mov	 ecx, DWORD PTR [ecx+12]
  00020	89 48 0c	 mov	 DWORD PTR [eax+12], ecx
$LN7@Cons_val@3:

; 281  : 	}

  00023	5d		 pop	 ebp
  00024	c3		 ret	 0
??$_Cons_val@V?$allocator@UEVENT_ID_TIME@@@std@@UEVENT_ID_TIME@@U3@@std@@YAXAAV?$allocator@UEVENT_ID_TIME@@@0@PAUEVENT_ID_TIME@@$$QAU2@@Z ENDP ; std::_Cons_val<std::allocator<EVENT_ID_TIME>,EVENT_ID_TIME,EVENT_ID_TIME>
_TEXT	ENDS
PUBLIC	?begin@?$vector@UEVENT_ID_TIME@@V?$allocator@UEVENT_ID_TIME@@@std@@@std@@QAE?AV?$_Vector_iterator@V?$_Vector_val@UEVENT_ID_TIME@@V?$allocator@UEVENT_ID_TIME@@@std@@@std@@@2@XZ ; std::vector<EVENT_ID_TIME,std::allocator<EVENT_ID_TIME> >::begin
; Function compile flags: /Ogtp
; File c:\program files (x86)\microsoft visual studio 10.0\vc\include\vector
;	COMDAT ?begin@?$vector@UEVENT_ID_TIME@@V?$allocator@UEVENT_ID_TIME@@@std@@@std@@QAE?AV?$_Vector_iterator@V?$_Vector_val@UEVENT_ID_TIME@@V?$allocator@UEVENT_ID_TIME@@@std@@@std@@@2@XZ
_TEXT	SEGMENT
___$ReturnUdt$ = 8					; size = 4
?begin@?$vector@UEVENT_ID_TIME@@V?$allocator@UEVENT_ID_TIME@@@std@@@std@@QAE?AV?$_Vector_iterator@V?$_Vector_val@UEVENT_ID_TIME@@V?$allocator@UEVENT_ID_TIME@@@std@@@std@@@2@XZ PROC ; std::vector<EVENT_ID_TIME,std::allocator<EVENT_ID_TIME> >::begin, COMDAT
; _this$ = ecx

; 781  : 		{	// return iterator for beginning of mutable sequence

  00000	55		 push	 ebp
  00001	8b ec		 mov	 ebp, esp

; 782  : 		return (iterator(this->_Myfirst, this));

  00003	8b 09		 mov	 ecx, DWORD PTR [ecx]
  00005	8b 45 08	 mov	 eax, DWORD PTR ___$ReturnUdt$[ebp]
  00008	89 08		 mov	 DWORD PTR [eax], ecx

; 783  : 		}

  0000a	5d		 pop	 ebp
  0000b	c2 04 00	 ret	 4
?begin@?$vector@UEVENT_ID_TIME@@V?$allocator@UEVENT_ID_TIME@@@std@@@std@@QAE?AV?$_Vector_iterator@V?$_Vector_val@UEVENT_ID_TIME@@V?$allocator@UEVENT_ID_TIME@@@std@@@std@@@2@XZ ENDP ; std::vector<EVENT_ID_TIME,std::allocator<EVENT_ID_TIME> >::begin
_TEXT	ENDS
PUBLIC	?end@?$vector@UEVENT_ID_TIME@@V?$allocator@UEVENT_ID_TIME@@@std@@@std@@QAE?AV?$_Vector_iterator@V?$_Vector_val@UEVENT_ID_TIME@@V?$allocator@UEVENT_ID_TIME@@@std@@@std@@@2@XZ ; std::vector<EVENT_ID_TIME,std::allocator<EVENT_ID_TIME> >::end
; Function compile flags: /Ogtp
;	COMDAT ?end@?$vector@UEVENT_ID_TIME@@V?$allocator@UEVENT_ID_TIME@@@std@@@std@@QAE?AV?$_Vector_iterator@V?$_Vector_val@UEVENT_ID_TIME@@V?$allocator@UEVENT_ID_TIME@@@std@@@std@@@2@XZ
_TEXT	SEGMENT
___$ReturnUdt$ = 8					; size = 4
?end@?$vector@UEVENT_ID_TIME@@V?$allocator@UEVENT_ID_TIME@@@std@@@std@@QAE?AV?$_Vector_iterator@V?$_Vector_val@UEVENT_ID_TIME@@V?$allocator@UEVENT_ID_TIME@@@std@@@std@@@2@XZ PROC ; std::vector<EVENT_ID_TIME,std::allocator<EVENT_ID_TIME> >::end, COMDAT
; _this$ = ecx

; 791  : 		{	// return iterator for end of mutable sequence

  00000	55		 push	 ebp
  00001	8b ec		 mov	 ebp, esp

; 792  : 		return (iterator(this->_Mylast, this));

  00003	8b 49 04	 mov	 ecx, DWORD PTR [ecx+4]
  00006	8b 45 08	 mov	 eax, DWORD PTR ___$ReturnUdt$[ebp]
  00009	89 08		 mov	 DWORD PTR [eax], ecx

; 793  : 		}

  0000b	5d		 pop	 ebp
  0000c	c2 04 00	 ret	 4
?end@?$vector@UEVENT_ID_TIME@@V?$allocator@UEVENT_ID_TIME@@@std@@@std@@QAE?AV?$_Vector_iterator@V?$_Vector_val@UEVENT_ID_TIME@@V?$allocator@UEVENT_ID_TIME@@@std@@@std@@@2@XZ ENDP ; std::vector<EVENT_ID_TIME,std::allocator<EVENT_ID_TIME> >::end
_TEXT	ENDS
PUBLIC	?_Erase@?$_Tree@V?$_Tmap_traits@HPAXU?$less@H@std@@V?$allocator@U?$pair@$$CBHPAX@std@@@2@$0A@@std@@@std@@IAEXPAU_Node@?$_Tree_nod@V?$_Tmap_traits@HPAXU?$less@H@std@@V?$allocator@U?$pair@$$CBHPAX@std@@@2@$0A@@std@@@2@@Z ; std::_Tree<std::_Tmap_traits<int,void *,std::less<int>,std::allocator<std::pair<int const ,void *> >,0> >::_Erase
; Function compile flags: /Ogtp
; File c:\program files (x86)\microsoft visual studio 10.0\vc\include\xtree
;	COMDAT ?_Erase@?$_Tree@V?$_Tmap_traits@HPAXU?$less@H@std@@V?$allocator@U?$pair@$$CBHPAX@std@@@2@$0A@@std@@@std@@IAEXPAU_Node@?$_Tree_nod@V?$_Tmap_traits@HPAXU?$less@H@std@@V?$allocator@U?$pair@$$CBHPAX@std@@@2@$0A@@std@@@2@@Z
_TEXT	SEGMENT
__Rootnode$ = 8						; size = 4
?_Erase@?$_Tree@V?$_Tmap_traits@HPAXU?$less@H@std@@V?$allocator@U?$pair@$$CBHPAX@std@@@2@$0A@@std@@@std@@IAEXPAU_Node@?$_Tree_nod@V?$_Tmap_traits@HPAXU?$less@H@std@@V?$allocator@U?$pair@$$CBHPAX@std@@@2@$0A@@std@@@2@@Z PROC ; std::_Tree<std::_Tmap_traits<int,void *,std::less<int>,std::allocator<std::pair<int const ,void *> >,0> >::_Erase, COMDAT
; _this$ = ecx

; 1610 : 		{	// free entire subtree, recursively

  00000	55		 push	 ebp
  00001	8b ec		 mov	 ebp, esp
  00003	53		 push	 ebx
  00004	56		 push	 esi
  00005	57		 push	 edi

; 1611 : 		for (_Nodeptr _Pnode = _Rootnode;

  00006	8b 7d 08	 mov	 edi, DWORD PTR __Rootnode$[ebp]

; 1612 : 			!this->_Isnil(_Pnode); _Rootnode = _Pnode)

  00009	80 7f 15 00	 cmp	 BYTE PTR [edi+21], 0
  0000d	8b d9		 mov	 ebx, ecx
  0000f	8b f7		 mov	 esi, edi
  00011	75 1e		 jne	 SHORT $LN1@Erase
$LL3@Erase:

; 1613 : 			{	// free subtrees, then node
; 1614 : 			_Erase(this->_Right(_Pnode));

  00013	8b 46 08	 mov	 eax, DWORD PTR [esi+8]
  00016	50		 push	 eax
  00017	8b cb		 mov	 ecx, ebx
  00019	e8 00 00 00 00	 call	 ?_Erase@?$_Tree@V?$_Tmap_traits@HPAXU?$less@H@std@@V?$allocator@U?$pair@$$CBHPAX@std@@@2@$0A@@std@@@std@@IAEXPAU_Node@?$_Tree_nod@V?$_Tmap_traits@HPAXU?$less@H@std@@V?$allocator@U?$pair@$$CBHPAX@std@@@2@$0A@@std@@@2@@Z ; std::_Tree<std::_Tmap_traits<int,void *,std::less<int>,std::allocator<std::pair<int const ,void *> >,0> >::_Erase

; 1615 : 			_Pnode = this->_Left(_Pnode);

  0001e	8b 36		 mov	 esi, DWORD PTR [esi]

; 1616 : 			_Dest_val(this->_Alval,
; 1617 : 				_STD addressof(this->_Myval(_Rootnode)));
; 1618 : 
; 1619 : 			this->_Alnod.deallocate(_Rootnode, 1);

  00020	57		 push	 edi
  00021	e8 00 00 00 00	 call	 ??3@YAXPAX@Z		; operator delete
  00026	83 c4 04	 add	 esp, 4
  00029	80 7e 15 00	 cmp	 BYTE PTR [esi+21], 0
  0002d	8b fe		 mov	 edi, esi
  0002f	74 e2		 je	 SHORT $LL3@Erase
$LN1@Erase:
  00031	5f		 pop	 edi
  00032	5e		 pop	 esi
  00033	5b		 pop	 ebx

; 1620 : 			}
; 1621 : 		}

  00034	5d		 pop	 ebp
  00035	c2 04 00	 ret	 4
?_Erase@?$_Tree@V?$_Tmap_traits@HPAXU?$less@H@std@@V?$allocator@U?$pair@$$CBHPAX@std@@@2@$0A@@std@@@std@@IAEXPAU_Node@?$_Tree_nod@V?$_Tmap_traits@HPAXU?$less@H@std@@V?$allocator@U?$pair@$$CBHPAX@std@@@2@$0A@@std@@@2@@Z ENDP ; std::_Tree<std::_Tmap_traits<int,void *,std::less<int>,std::allocator<std::pair<int const ,void *> >,0> >::_Erase
_TEXT	ENDS
PUBLIC	??0?$_Tree_iterator@V?$_Tree_val@V?$_Tmap_traits@HPAXU?$less@H@std@@V?$allocator@U?$pair@$$CBHPAX@std@@@2@$0A@@std@@@std@@@std@@QAE@PAU_Node@?$_Tree_nod@V?$_Tmap_traits@HPAXU?$less@H@std@@V?$allocator@U?$pair@$$CBHPAX@std@@@2@$0A@@std@@@1@PBV?$_Tree_val@V?$_Tmap_traits@HPAXU?$less@H@std@@V?$allocator@U?$pair@$$CBHPAX@std@@@2@$0A@@std@@@1@@Z ; std::_Tree_iterator<std::_Tree_val<std::_Tmap_traits<int,void *,std::less<int>,std::allocator<std::pair<int const ,void *> >,0> > >::_Tree_iterator<std::_Tree_val<std::_Tmap_traits<int,void *,std::less<int>,std::allocator<std::pair<int const ,void *> >,0> > >
; Function compile flags: /Ogtp
;	COMDAT ??0?$_Tree_iterator@V?$_Tree_val@V?$_Tmap_traits@HPAXU?$less@H@std@@V?$allocator@U?$pair@$$CBHPAX@std@@@2@$0A@@std@@@std@@@std@@QAE@PAU_Node@?$_Tree_nod@V?$_Tmap_traits@HPAXU?$less@H@std@@V?$allocator@U?$pair@$$CBHPAX@std@@@2@$0A@@std@@@1@PBV?$_Tree_val@V?$_Tmap_traits@HPAXU?$less@H@std@@V?$allocator@U?$pair@$$CBHPAX@std@@@2@$0A@@std@@@1@@Z
_TEXT	SEGMENT
__Pnode$ = 8						; size = 4
__Plist$ = 12						; size = 4
??0?$_Tree_iterator@V?$_Tree_val@V?$_Tmap_traits@HPAXU?$less@H@std@@V?$allocator@U?$pair@$$CBHPAX@std@@@2@$0A@@std@@@std@@@std@@QAE@PAU_Node@?$_Tree_nod@V?$_Tmap_traits@HPAXU?$less@H@std@@V?$allocator@U?$pair@$$CBHPAX@std@@@2@$0A@@std@@@1@PBV?$_Tree_val@V?$_Tmap_traits@HPAXU?$less@H@std@@V?$allocator@U?$pair@$$CBHPAX@std@@@2@$0A@@std@@@1@@Z PROC ; std::_Tree_iterator<std::_Tree_val<std::_Tmap_traits<int,void *,std::less<int>,std::allocator<std::pair<int const ,void *> >,0> > >::_Tree_iterator<std::_Tree_val<std::_Tmap_traits<int,void *,std::less<int>,std::allocator<std::pair<int const ,void *> >,0> > >, COMDAT
; _this$ = ecx

; 378  : 		{	// construct with node pointer _Pnode

  00000	55		 push	 ebp
  00001	8b ec		 mov	 ebp, esp
  00003	8b c1		 mov	 eax, ecx
  00005	8b 4d 08	 mov	 ecx, DWORD PTR __Pnode$[ebp]
  00008	89 08		 mov	 DWORD PTR [eax], ecx

; 379  : 		}

  0000a	5d		 pop	 ebp
  0000b	c2 08 00	 ret	 8
??0?$_Tree_iterator@V?$_Tree_val@V?$_Tmap_traits@HPAXU?$less@H@std@@V?$allocator@U?$pair@$$CBHPAX@std@@@2@$0A@@std@@@std@@@std@@QAE@PAU_Node@?$_Tree_nod@V?$_Tmap_traits@HPAXU?$less@H@std@@V?$allocator@U?$pair@$$CBHPAX@std@@@2@$0A@@std@@@1@PBV?$_Tree_val@V?$_Tmap_traits@HPAXU?$less@H@std@@V?$allocator@U?$pair@$$CBHPAX@std@@@2@$0A@@std@@@1@@Z ENDP ; std::_Tree_iterator<std::_Tree_val<std::_Tmap_traits<int,void *,std::less<int>,std::allocator<std::pair<int const ,void *> >,0> > >::_Tree_iterator<std::_Tree_val<std::_Tmap_traits<int,void *,std::less<int>,std::allocator<std::pair<int const ,void *> >,0> > >
_TEXT	ENDS
PUBLIC	?begin@?$_Tree@V?$_Tmap_traits@HPAXU?$less@H@std@@V?$allocator@U?$pair@$$CBHPAX@std@@@2@$0A@@std@@@std@@QAE?AV?$_Tree_iterator@V?$_Tree_val@V?$_Tmap_traits@HPAXU?$less@H@std@@V?$allocator@U?$pair@$$CBHPAX@std@@@2@$0A@@std@@@std@@@2@XZ ; std::_Tree<std::_Tmap_traits<int,void *,std::less<int>,std::allocator<std::pair<int const ,void *> >,0> >::begin
; Function compile flags: /Ogtp
;	COMDAT ?begin@?$_Tree@V?$_Tmap_traits@HPAXU?$less@H@std@@V?$allocator@U?$pair@$$CBHPAX@std@@@2@$0A@@std@@@std@@QAE?AV?$_Tree_iterator@V?$_Tree_val@V?$_Tmap_traits@HPAXU?$less@H@std@@V?$allocator@U?$pair@$$CBHPAX@std@@@2@$0A@@std@@@std@@@2@XZ
_TEXT	SEGMENT
___$ReturnUdt$ = 8					; size = 4
?begin@?$_Tree@V?$_Tmap_traits@HPAXU?$less@H@std@@V?$allocator@U?$pair@$$CBHPAX@std@@@2@$0A@@std@@@std@@QAE?AV?$_Tree_iterator@V?$_Tree_val@V?$_Tmap_traits@HPAXU?$less@H@std@@V?$allocator@U?$pair@$$CBHPAX@std@@@2@$0A@@std@@@std@@@2@XZ PROC ; std::_Tree<std::_Tmap_traits<int,void *,std::less<int>,std::allocator<std::pair<int const ,void *> >,0> >::begin, COMDAT
; _this$ = ecx

; 806  : 		{	// return iterator for beginning of mutable sequence

  00000	55		 push	 ebp
  00001	8b ec		 mov	 ebp, esp

; 807  : 		return (iterator(_Lmost(), this));

  00003	8b 41 04	 mov	 eax, DWORD PTR [ecx+4]
  00006	8b 08		 mov	 ecx, DWORD PTR [eax]
  00008	8b 45 08	 mov	 eax, DWORD PTR ___$ReturnUdt$[ebp]
  0000b	89 08		 mov	 DWORD PTR [eax], ecx

; 808  : 		}

  0000d	5d		 pop	 ebp
  0000e	c2 04 00	 ret	 4
?begin@?$_Tree@V?$_Tmap_traits@HPAXU?$less@H@std@@V?$allocator@U?$pair@$$CBHPAX@std@@@2@$0A@@std@@@std@@QAE?AV?$_Tree_iterator@V?$_Tree_val@V?$_Tmap_traits@HPAXU?$less@H@std@@V?$allocator@U?$pair@$$CBHPAX@std@@@2@$0A@@std@@@std@@@2@XZ ENDP ; std::_Tree<std::_Tmap_traits<int,void *,std::less<int>,std::allocator<std::pair<int const ,void *> >,0> >::begin
_TEXT	ENDS
PUBLIC	??0?$_Tree_val@V?$_Tmap_traits@HPAXU?$less@H@std@@V?$allocator@U?$pair@$$CBHPAX@std@@@2@$0A@@std@@@std@@QAE@ABU?$less@H@1@V?$allocator@U?$pair@$$CBHPAX@std@@@1@@Z ; std::_Tree_val<std::_Tmap_traits<int,void *,std::less<int>,std::allocator<std::pair<int const ,void *> >,0> >::_Tree_val<std::_Tmap_traits<int,void *,std::less<int>,std::allocator<std::pair<int const ,void *> >,0> >
; Function compile flags: /Ogtp
;	COMDAT ??0?$_Tree_val@V?$_Tmap_traits@HPAXU?$less@H@std@@V?$allocator@U?$pair@$$CBHPAX@std@@@2@$0A@@std@@@std@@QAE@ABU?$less@H@1@V?$allocator@U?$pair@$$CBHPAX@std@@@1@@Z
_TEXT	SEGMENT
$T160007 = -16						; size = 12
$T159985 = -4						; size = 4
__Parg$ = 8						; size = 4
__Al$ = 12						; size = 1
??0?$_Tree_val@V?$_Tmap_traits@HPAXU?$less@H@std@@V?$allocator@U?$pair@$$CBHPAX@std@@@2@$0A@@std@@@std@@QAE@ABU?$less@H@1@V?$allocator@U?$pair@$$CBHPAX@std@@@1@@Z PROC ; std::_Tree_val<std::_Tmap_traits<int,void *,std::less<int>,std::allocator<std::pair<int const ,void *> >,0> >::_Tree_val<std::_Tmap_traits<int,void *,std::less<int>,std::allocator<std::pair<int const ,void *> >,0> >, COMDAT
; _this$ = ecx

; 542  : 		{	// construct base, and allocator from _Al

  00000	55		 push	 ebp
  00001	8b ec		 mov	 ebp, esp
  00003	83 ec 10	 sub	 esp, 16			; 00000010H
  00006	56		 push	 esi
  00007	8b f1		 mov	 esi, ecx

; 543  : 		this->_Mysize = 0;
; 544  : 		this->_Myhead = this->_Alnod.allocate(1);

  00009	6a 18		 push	 24			; 00000018H
  0000b	c7 46 08 00 00
	00 00		 mov	 DWORD PTR [esi+8], 0
  00012	e8 00 00 00 00	 call	 ??2@YAPAXI@Z		; operator new
  00017	83 c4 04	 add	 esp, 4
  0001a	85 c0		 test	 eax, eax
  0001c	74 28		 je	 SHORT $LN15@Tree_val
  0001e	89 46 04	 mov	 DWORD PTR [esi+4], eax

; 545  : 
; 546  : 		this->_Left(this->_Myhead) = this->_Myhead;

  00021	89 00		 mov	 DWORD PTR [eax], eax

; 547  : 		this->_Parent(this->_Myhead) = this->_Myhead;

  00023	8b 46 04	 mov	 eax, DWORD PTR [esi+4]
  00026	89 40 04	 mov	 DWORD PTR [eax+4], eax

; 548  : 		this->_Right(this->_Myhead) = this->_Myhead;

  00029	8b 46 04	 mov	 eax, DWORD PTR [esi+4]
  0002c	89 40 08	 mov	 DWORD PTR [eax+8], eax

; 549  : 		this->_Color(this->_Myhead) = this->_Black;

  0002f	8b 4e 04	 mov	 ecx, DWORD PTR [esi+4]
  00032	b0 01		 mov	 al, 1
  00034	88 41 14	 mov	 BYTE PTR [ecx+20], al

; 550  : 		this->_Isnil(this->_Myhead) = true;

  00037	8b 56 04	 mov	 edx, DWORD PTR [esi+4]
  0003a	88 42 15	 mov	 BYTE PTR [edx+21], al

; 551  : 		}

  0003d	8b c6		 mov	 eax, esi
  0003f	5e		 pop	 esi
  00040	8b e5		 mov	 esp, ebp
  00042	5d		 pop	 ebp
  00043	c2 08 00	 ret	 8

; 543  : 		this->_Mysize = 0;
; 544  : 		this->_Myhead = this->_Alnod.allocate(1);

$LN15@Tree_val:
  00046	8d 45 fc	 lea	 eax, DWORD PTR $T159985[ebp]
  00049	50		 push	 eax
  0004a	8d 4d f0	 lea	 ecx, DWORD PTR $T160007[ebp]
  0004d	c7 45 fc 00 00
	00 00		 mov	 DWORD PTR $T159985[ebp], 0
  00054	e8 00 00 00 00	 call	 ??0exception@std@@QAE@ABQBD@Z ; std::exception::exception
  00059	68 00 00 00 00	 push	 OFFSET __TI2?AVbad_alloc@std@@
  0005e	8d 4d f0	 lea	 ecx, DWORD PTR $T160007[ebp]
  00061	51		 push	 ecx
  00062	c7 45 f0 00 00
	00 00		 mov	 DWORD PTR $T160007[ebp], OFFSET ??_7bad_alloc@std@@6B@
  00069	e8 00 00 00 00	 call	 __CxxThrowException@8
$LN37@Tree_val:
$LN36@Tree_val:
  0006e	cc		 int	 3
??0?$_Tree_val@V?$_Tmap_traits@HPAXU?$less@H@std@@V?$allocator@U?$pair@$$CBHPAX@std@@@2@$0A@@std@@@std@@QAE@ABU?$less@H@1@V?$allocator@U?$pair@$$CBHPAX@std@@@1@@Z ENDP ; std::_Tree_val<std::_Tmap_traits<int,void *,std::less<int>,std::allocator<std::pair<int const ,void *> >,0> >::_Tree_val<std::_Tmap_traits<int,void *,std::less<int>,std::allocator<std::pair<int const ,void *> >,0> >
_TEXT	ENDS
PUBLIC	??_C@_0BM@PAPJHAGI@invalid?5map?1set?$DMT?$DO?5iterator?$AA@ ; `string'
PUBLIC	?erase@?$_Tree@V?$_Tmap_traits@HPAXU?$less@H@std@@V?$allocator@U?$pair@$$CBHPAX@std@@@2@$0A@@std@@@std@@QAE?AV?$_Tree_iterator@V?$_Tree_val@V?$_Tmap_traits@HPAXU?$less@H@std@@V?$allocator@U?$pair@$$CBHPAX@std@@@2@$0A@@std@@@std@@@2@V?$_Tree_const_iterator@V?$_Tree_val@V?$_Tmap_traits@HPAXU?$less@H@std@@V?$allocator@U?$pair@$$CBHPAX@std@@@2@$0A@@std@@@std@@@2@@Z ; std::_Tree<std::_Tmap_traits<int,void *,std::less<int>,std::allocator<std::pair<int const ,void *> >,0> >::erase
EXTRN	?_Xout_of_range@std@@YAXPBD@Z:PROC		; std::_Xout_of_range
;	COMDAT ??_C@_0BM@PAPJHAGI@invalid?5map?1set?$DMT?$DO?5iterator?$AA@
; File c:\program files (x86)\microsoft visual studio 10.0\vc\include\xutility
CONST	SEGMENT
??_C@_0BM@PAPJHAGI@invalid?5map?1set?$DMT?$DO?5iterator?$AA@ DB 'invalid '
	DB	'map/set<T> iterator', 00H			; `string'
; Function compile flags: /Ogtp
; File c:\program files (x86)\microsoft visual studio 10.0\vc\include\xtree
CONST	ENDS
;	COMDAT ?erase@?$_Tree@V?$_Tmap_traits@HPAXU?$less@H@std@@V?$allocator@U?$pair@$$CBHPAX@std@@@2@$0A@@std@@@std@@QAE?AV?$_Tree_iterator@V?$_Tree_val@V?$_Tmap_traits@HPAXU?$less@H@std@@V?$allocator@U?$pair@$$CBHPAX@std@@@2@$0A@@std@@@std@@@2@V?$_Tree_const_iterator@V?$_Tree_val@V?$_Tmap_traits@HPAXU?$less@H@std@@V?$allocator@U?$pair@$$CBHPAX@std@@@2@$0A@@std@@@std@@@2@@Z
_TEXT	SEGMENT
tv795 = -12						; size = 4
__Erasednode$ = -8					; size = 4
_this$ = -4						; size = 4
___$ReturnUdt$ = 8					; size = 4
__Where$ = 12						; size = 4
?erase@?$_Tree@V?$_Tmap_traits@HPAXU?$less@H@std@@V?$allocator@U?$pair@$$CBHPAX@std@@@2@$0A@@std@@@std@@QAE?AV?$_Tree_iterator@V?$_Tree_val@V?$_Tmap_traits@HPAXU?$less@H@std@@V?$allocator@U?$pair@$$CBHPAX@std@@@2@$0A@@std@@@std@@@2@V?$_Tree_const_iterator@V?$_Tree_val@V?$_Tmap_traits@HPAXU?$less@H@std@@V?$allocator@U?$pair@$$CBHPAX@std@@@2@$0A@@std@@@std@@@2@@Z PROC ; std::_Tree<std::_Tmap_traits<int,void *,std::less<int>,std::allocator<std::pair<int const ,void *> >,0> >::erase, COMDAT
; _this$ = ecx

; 1195 : 		{	// erase element at _Where

  00000	55		 push	 ebp
  00001	8b ec		 mov	 ebp, esp
  00003	83 ec 0c	 sub	 esp, 12			; 0000000cH
  00006	53		 push	 ebx

; 1196 :  #if _ITERATOR_DEBUG_LEVEL == 2
; 1197 : 		if (_Where._Getcont() != this || this->_Isnil(_Where._Mynode()))
; 1198 : 			_DEBUG_ERROR("map/set erase iterator outside range");
; 1199 : 		_Nodeptr _Erasednode = _Where._Mynode();	// node to erase
; 1200 : 		++_Where;	// save successor iterator for return
; 1201 : 		_Orphan_ptr(*this, _Erasednode);
; 1202 : 
; 1203 :  #else /* _ITERATOR_DEBUG_LEVEL == 2 */
; 1204 : 		if (this->_Isnil(_Where._Mynode()))

  00007	8b 5d 0c	 mov	 ebx, DWORD PTR __Where$[ebp]
  0000a	80 7b 15 00	 cmp	 BYTE PTR [ebx+21], 0
  0000e	56		 push	 esi
  0000f	57		 push	 edi
  00010	89 4d fc	 mov	 DWORD PTR _this$[ebp], ecx
  00013	74 0a		 je	 SHORT $LN40@erase

; 1205 : 			_Xout_of_range("invalid map/set<T> iterator");

  00015	68 00 00 00 00	 push	 OFFSET ??_C@_0BM@PAPJHAGI@invalid?5map?1set?$DMT?$DO?5iterator?$AA@
  0001a	e8 00 00 00 00	 call	 ?_Xout_of_range@std@@YAXPBD@Z ; std::_Xout_of_range
$LN295@erase:
$LN40@erase:

; 1206 : 		_Nodeptr _Erasednode = _Where._Mynode();	// node to erase
; 1207 : 		++_Where;	// save successor iterator for return

  0001f	8d 4d 0c	 lea	 ecx, DWORD PTR __Where$[ebp]
  00022	89 5d f8	 mov	 DWORD PTR __Erasednode$[ebp], ebx
  00025	e8 00 00 00 00	 call	 ??E?$_Tree_unchecked_const_iterator@V?$_Tree_val@V?$_Tmap_traits@HPAXU?$less@H@std@@V?$allocator@U?$pair@$$CBHPAX@std@@@2@$0A@@std@@@std@@U_Iterator_base0@2@@std@@QAEAAV01@XZ ; std::_Tree_unchecked_const_iterator<std::_Tree_val<std::_Tmap_traits<int,void *,std::less<int>,std::allocator<std::pair<int const ,void *> >,0> >,std::_Iterator_base0>::operator++

; 1208 :  #endif /* _ITERATOR_DEBUG_LEVEL == 2 */
; 1209 : 
; 1210 : 		_Nodeptr _Fixnode;	// the node to recolor as needed
; 1211 : 		_Nodeptr _Fixnodeparent;	// parent of _Fixnode (which may be nil)
; 1212 : 		_Nodeptr _Pnode = _Erasednode;
; 1213 : 
; 1214 : 		if (this->_Isnil(this->_Left(_Pnode)))

  0002a	8b 0b		 mov	 ecx, DWORD PTR [ebx]
  0002c	80 79 15 00	 cmp	 BYTE PTR [ecx+21], 0
  00030	74 05		 je	 SHORT $LN39@erase

; 1215 : 			_Fixnode = this->_Right(_Pnode);	// stitch up right subtree

  00032	8b 7b 08	 mov	 edi, DWORD PTR [ebx+8]

; 1216 : 		else if (this->_Isnil(this->_Right(_Pnode)))

  00035	eb 17		 jmp	 SHORT $LN291@erase
$LN39@erase:
  00037	8b 43 08	 mov	 eax, DWORD PTR [ebx+8]
  0003a	80 78 15 00	 cmp	 BYTE PTR [eax+21], 0
  0003e	74 04		 je	 SHORT $LN37@erase

; 1217 : 			_Fixnode = this->_Left(_Pnode);	// stitch up left subtree

  00040	8b f9		 mov	 edi, ecx

; 1218 : 		else

  00042	eb 0a		 jmp	 SHORT $LN291@erase
$LN37@erase:

; 1219 : 			{	// two subtrees, must lift successor node to replace erased
; 1220 : 			_Pnode = _Where._Mynode();	// _Pnode is successor node

  00044	8b 45 0c	 mov	 eax, DWORD PTR __Where$[ebp]

; 1221 : 			_Fixnode = this->_Right(_Pnode);	// _Fixnode is only subtree

  00047	8b 78 08	 mov	 edi, DWORD PTR [eax+8]

; 1222 : 			}
; 1223 : 
; 1224 : 		if (_Pnode == _Erasednode)

  0004a	3b c3		 cmp	 eax, ebx
  0004c	75 72		 jne	 SHORT $LN35@erase
$LN291@erase:

; 1225 : 			{	// at most one subtree, relink it
; 1226 : 			_Fixnodeparent = this->_Parent(_Erasednode);
; 1227 : 			if (!this->_Isnil(_Fixnode))

  0004e	80 7f 15 00	 cmp	 BYTE PTR [edi+21], 0
  00052	8b 73 04	 mov	 esi, DWORD PTR [ebx+4]
  00055	75 03		 jne	 SHORT $LN34@erase

; 1228 : 				this->_Parent(_Fixnode) = _Fixnodeparent;	// link up

  00057	89 77 04	 mov	 DWORD PTR [edi+4], esi
$LN34@erase:

; 1229 : 
; 1230 : 			if (_Root() == _Erasednode)

  0005a	8b 4d fc	 mov	 ecx, DWORD PTR _this$[ebp]
  0005d	8b 41 04	 mov	 eax, DWORD PTR [ecx+4]
  00060	39 58 04	 cmp	 DWORD PTR [eax+4], ebx
  00063	75 05		 jne	 SHORT $LN33@erase

; 1231 : 				_Root() = _Fixnode;	// link down from root

  00065	89 78 04	 mov	 DWORD PTR [eax+4], edi

; 1232 : 			else if (this->_Left(_Fixnodeparent) == _Erasednode)

  00068	eb 0b		 jmp	 SHORT $LN30@erase
$LN33@erase:
  0006a	39 1e		 cmp	 DWORD PTR [esi], ebx
  0006c	75 04		 jne	 SHORT $LN31@erase

; 1233 : 				this->_Left(_Fixnodeparent) = _Fixnode;	// link down to left

  0006e	89 3e		 mov	 DWORD PTR [esi], edi

; 1234 : 			else

  00070	eb 03		 jmp	 SHORT $LN30@erase
$LN31@erase:

; 1235 : 				this->_Right(_Fixnodeparent) =
; 1236 : 					_Fixnode;	// link down to right

  00072	89 7e 08	 mov	 DWORD PTR [esi+8], edi
$LN30@erase:

; 1237 : 
; 1238 : 			if (_Lmost() == _Erasednode)

  00075	8b 41 04	 mov	 eax, DWORD PTR [ecx+4]
  00078	39 18		 cmp	 DWORD PTR [eax], ebx
  0007a	75 1b		 jne	 SHORT $LN29@erase

; 1239 : 				_Lmost() = this->_Isnil(_Fixnode)
; 1240 : 					? _Fixnodeparent	// smallest is parent of erased node
; 1241 : 					: this->_Min(_Fixnode);	// smallest in relinked subtree

  0007c	80 7f 15 00	 cmp	 BYTE PTR [edi+21], 0
  00080	74 04		 je	 SHORT $LN43@erase
  00082	8b c6		 mov	 eax, esi
  00084	eb 0c		 jmp	 SHORT $LN44@erase
$LN43@erase:
  00086	57		 push	 edi
  00087	e8 00 00 00 00	 call	 ?_Min@?$_Tree_val@V?$_Tmap_traits@HPAXU?$less@H@std@@V?$allocator@U?$pair@$$CBHPAX@std@@@2@$0A@@std@@@std@@SAPAU_Node@?$_Tree_nod@V?$_Tmap_traits@HPAXU?$less@H@std@@V?$allocator@U?$pair@$$CBHPAX@std@@@2@$0A@@std@@@2@PAU342@@Z ; std::_Tree_val<std::_Tmap_traits<int,void *,std::less<int>,std::allocator<std::pair<int const ,void *> >,0> >::_Min
  0008c	8b 4d fc	 mov	 ecx, DWORD PTR _this$[ebp]
  0008f	83 c4 04	 add	 esp, 4
$LN44@erase:
  00092	8b 51 04	 mov	 edx, DWORD PTR [ecx+4]
  00095	89 02		 mov	 DWORD PTR [edx], eax
$LN29@erase:

; 1242 : 
; 1243 : 			if (_Rmost() == _Erasednode)

  00097	8b 49 04	 mov	 ecx, DWORD PTR [ecx+4]
  0009a	89 4d f4	 mov	 DWORD PTR tv795[ebp], ecx
  0009d	39 59 08	 cmp	 DWORD PTR [ecx+8], ebx
  000a0	75 78		 jne	 SHORT $LN165@erase

; 1244 : 				_Rmost() = this->_Isnil(_Fixnode)
; 1245 : 					? _Fixnodeparent	// largest is parent of erased node
; 1246 : 					: this->_Max(_Fixnode);	// largest in relinked subtree

  000a2	80 7f 15 00	 cmp	 BYTE PTR [edi+21], 0
  000a6	74 07		 je	 SHORT $LN45@erase
  000a8	8b c6		 mov	 eax, esi
  000aa	89 41 08	 mov	 DWORD PTR [ecx+8], eax

; 1247 : 			}
; 1248 : 		else

  000ad	eb 6b		 jmp	 SHORT $LN165@erase
$LN45@erase:

; 1244 : 				_Rmost() = this->_Isnil(_Fixnode)
; 1245 : 					? _Fixnodeparent	// largest is parent of erased node
; 1246 : 					: this->_Max(_Fixnode);	// largest in relinked subtree

  000af	57		 push	 edi
  000b0	e8 00 00 00 00	 call	 ?_Max@?$_Tree_val@V?$_Tmap_traits@HPAXU?$less@H@std@@V?$allocator@U?$pair@$$CBHPAX@std@@@2@$0A@@std@@@std@@SAPAU_Node@?$_Tree_nod@V?$_Tmap_traits@HPAXU?$less@H@std@@V?$allocator@U?$pair@$$CBHPAX@std@@@2@$0A@@std@@@2@PAU342@@Z ; std::_Tree_val<std::_Tmap_traits<int,void *,std::less<int>,std::allocator<std::pair<int const ,void *> >,0> >::_Max
  000b5	8b 4d f4	 mov	 ecx, DWORD PTR tv795[ebp]
  000b8	83 c4 04	 add	 esp, 4
  000bb	89 41 08	 mov	 DWORD PTR [ecx+8], eax

; 1247 : 			}
; 1248 : 		else

  000be	eb 5a		 jmp	 SHORT $LN165@erase
$LN35@erase:

; 1249 : 			{	// erased has two subtrees, _Pnode is successor to erased
; 1250 : 			this->_Parent(this->_Left(_Erasednode)) =
; 1251 : 				_Pnode;	// link left up

  000c0	89 41 04	 mov	 DWORD PTR [ecx+4], eax

; 1252 : 			this->_Left(_Pnode) =
; 1253 : 				this->_Left(_Erasednode);	// link successor down

  000c3	8b 0b		 mov	 ecx, DWORD PTR [ebx]
  000c5	89 08		 mov	 DWORD PTR [eax], ecx

; 1254 : 
; 1255 : 			if (_Pnode == this->_Right(_Erasednode))

  000c7	3b 43 08	 cmp	 eax, DWORD PTR [ebx+8]
  000ca	75 04		 jne	 SHORT $LN26@erase

; 1256 : 				_Fixnodeparent = _Pnode;	// successor is next to erased

  000cc	8b f0		 mov	 esi, eax

; 1257 : 			else

  000ce	eb 1a		 jmp	 SHORT $LN25@erase
$LN26@erase:

; 1258 : 				{	// successor further down, link in place of erased
; 1259 : 				_Fixnodeparent =
; 1260 : 					this->_Parent(_Pnode);	// parent is successor's
; 1261 : 				if (!this->_Isnil(_Fixnode))

  000d0	80 7f 15 00	 cmp	 BYTE PTR [edi+21], 0
  000d4	8b 70 04	 mov	 esi, DWORD PTR [eax+4]
  000d7	75 03		 jne	 SHORT $LN24@erase

; 1262 : 					this->_Parent(_Fixnode) = _Fixnodeparent;	// link fix up

  000d9	89 77 04	 mov	 DWORD PTR [edi+4], esi
$LN24@erase:

; 1263 : 				this->_Left(_Fixnodeparent) = _Fixnode;	// link fix down

  000dc	89 3e		 mov	 DWORD PTR [esi], edi

; 1264 : 				this->_Right(_Pnode) =
; 1265 : 					this->_Right(_Erasednode);	// link next down

  000de	8b 4b 08	 mov	 ecx, DWORD PTR [ebx+8]
  000e1	89 48 08	 mov	 DWORD PTR [eax+8], ecx

; 1266 : 				this->_Parent(this->_Right(_Erasednode)) =
; 1267 : 					_Pnode;	// right up

  000e4	8b 53 08	 mov	 edx, DWORD PTR [ebx+8]
  000e7	89 42 04	 mov	 DWORD PTR [edx+4], eax
$LN25@erase:

; 1268 : 				}
; 1269 : 
; 1270 : 			if (_Root() == _Erasednode)

  000ea	8b 4d fc	 mov	 ecx, DWORD PTR _this$[ebp]
  000ed	8b 49 04	 mov	 ecx, DWORD PTR [ecx+4]
  000f0	39 59 04	 cmp	 DWORD PTR [ecx+4], ebx
  000f3	75 05		 jne	 SHORT $LN23@erase

; 1271 : 				_Root() = _Pnode;	// link down from root

  000f5	89 41 04	 mov	 DWORD PTR [ecx+4], eax

; 1272 : 			else if (this->_Left(this->_Parent(_Erasednode)) == _Erasednode)

  000f8	eb 0e		 jmp	 SHORT $LN20@erase
$LN23@erase:
  000fa	8b 4b 04	 mov	 ecx, DWORD PTR [ebx+4]
  000fd	39 19		 cmp	 DWORD PTR [ecx], ebx
  000ff	75 04		 jne	 SHORT $LN21@erase

; 1273 : 				this->_Left(this->_Parent(_Erasednode)) =
; 1274 : 					_Pnode;	// link down to left

  00101	89 01		 mov	 DWORD PTR [ecx], eax

; 1275 : 			else

  00103	eb 03		 jmp	 SHORT $LN20@erase
$LN21@erase:

; 1276 : 				this->_Right(this->_Parent(_Erasednode)) =
; 1277 : 					_Pnode;	// link down to right

  00105	89 41 08	 mov	 DWORD PTR [ecx+8], eax
$LN20@erase:

; 1278 : 
; 1279 : 			this->_Parent(_Pnode) =
; 1280 : 				this->_Parent(_Erasednode);	// link successor up

  00108	8b 53 04	 mov	 edx, DWORD PTR [ebx+4]
  0010b	89 50 04	 mov	 DWORD PTR [eax+4], edx

; 1281 : 			_STD swap(this->_Color(_Pnode),
; 1282 : 				this->_Color(_Erasednode));	// recolor it

  0010e	8a 53 14	 mov	 dl, BYTE PTR [ebx+20]
  00111	8a 48 14	 mov	 cl, BYTE PTR [eax+20]
  00114	88 50 14	 mov	 BYTE PTR [eax+20], dl
  00117	88 4b 14	 mov	 BYTE PTR [ebx+20], cl
$LN165@erase:

; 1283 : 			}
; 1284 : 
; 1285 : 		if (this->_Color(_Erasednode) == this->_Black)

  0011a	8b 45 f8	 mov	 eax, DWORD PTR __Erasednode$[ebp]
  0011d	b3 01		 mov	 bl, 1
  0011f	38 58 14	 cmp	 BYTE PTR [eax+20], bl
  00122	0f 85 fa 00 00
	00		 jne	 $LN19@erase

; 1286 : 			{	// erasing black link, must recolor/rebalance tree
; 1287 : 			for (; _Fixnode != _Root()
; 1288 : 				&& this->_Color(_Fixnode) == this->_Black;
; 1289 : 				_Fixnodeparent = this->_Parent(_Fixnode))

  00128	8b 4d fc	 mov	 ecx, DWORD PTR _this$[ebp]
  0012b	8b 51 04	 mov	 edx, DWORD PTR [ecx+4]
  0012e	3b 7a 04	 cmp	 edi, DWORD PTR [edx+4]
  00131	0f 84 e8 00 00
	00		 je	 $LN16@erase
$LL18@erase:
  00137	38 5f 14	 cmp	 BYTE PTR [edi+20], bl
  0013a	0f 85 df 00 00
	00		 jne	 $LN16@erase

; 1290 : 				if (_Fixnode == this->_Left(_Fixnodeparent))

  00140	8b 06		 mov	 eax, DWORD PTR [esi]
  00142	3b f8		 cmp	 edi, eax
  00144	75 65		 jne	 SHORT $LN15@erase

; 1291 : 					{	// fixup left subtree
; 1292 : 					_Pnode = this->_Right(_Fixnodeparent);

  00146	8b 46 08	 mov	 eax, DWORD PTR [esi+8]

; 1293 : 					if (this->_Color(_Pnode) == this->_Red)

  00149	80 78 14 00	 cmp	 BYTE PTR [eax+20], 0
  0014d	75 13		 jne	 SHORT $LN14@erase

; 1294 : 						{	// rotate red up from right subtree
; 1295 : 						this->_Color(_Pnode) = this->_Black;

  0014f	88 58 14	 mov	 BYTE PTR [eax+20], bl

; 1296 : 						this->_Color(_Fixnodeparent) = this->_Red;
; 1297 : 						_Lrotate(_Fixnodeparent);

  00152	56		 push	 esi
  00153	c6 46 14 00	 mov	 BYTE PTR [esi+20], 0
  00157	e8 00 00 00 00	 call	 ?_Lrotate@?$_Tree@V?$_Tmap_traits@HPAXU?$less@H@std@@V?$allocator@U?$pair@$$CBHPAX@std@@@2@$0A@@std@@@std@@IAEXPAU_Node@?$_Tree_nod@V?$_Tmap_traits@HPAXU?$less@H@std@@V?$allocator@U?$pair@$$CBHPAX@std@@@2@$0A@@std@@@2@@Z ; std::_Tree<std::_Tmap_traits<int,void *,std::less<int>,std::allocator<std::pair<int const ,void *> >,0> >::_Lrotate

; 1298 : 						_Pnode = this->_Right(_Fixnodeparent);

  0015c	8b 46 08	 mov	 eax, DWORD PTR [esi+8]
  0015f	8b 4d fc	 mov	 ecx, DWORD PTR _this$[ebp]
$LN14@erase:

; 1299 : 						}
; 1300 : 
; 1301 : 					if (this->_Isnil(_Pnode))

  00162	80 78 15 00	 cmp	 BYTE PTR [eax+21], 0

; 1302 : 						_Fixnode = _Fixnodeparent;	// shouldn't happen
; 1303 : 					else if (this->_Color(this->_Left(_Pnode)) == this->_Black

  00166	75 74		 jne	 SHORT $LN293@erase

; 1304 : 						&& this->_Color(this->_Right(_Pnode)) == this->_Black)

  00168	8b 10		 mov	 edx, DWORD PTR [eax]
  0016a	38 5a 14	 cmp	 BYTE PTR [edx+20], bl
  0016d	75 08		 jne	 SHORT $LN11@erase
  0016f	8b 50 08	 mov	 edx, DWORD PTR [eax+8]
  00172	38 5a 14	 cmp	 BYTE PTR [edx+20], bl
  00175	74 61		 je	 SHORT $LN294@erase
$LN11@erase:

; 1305 : 						{	// redden right subtree with black children
; 1306 : 						this->_Color(_Pnode) = this->_Red;
; 1307 : 						_Fixnode = _Fixnodeparent;
; 1308 : 						}
; 1309 : 					else
; 1310 : 						{	// must rearrange right subtree
; 1311 : 						if (this->_Color(this->_Right(_Pnode))
; 1312 : 							== this->_Black)

  00177	8b 50 08	 mov	 edx, DWORD PTR [eax+8]
  0017a	38 5a 14	 cmp	 BYTE PTR [edx+20], bl
  0017d	75 15		 jne	 SHORT $LN9@erase

; 1313 : 							{	// rotate red up from left sub-subtree
; 1314 : 							this->_Color(this->_Left(_Pnode)) = this->_Black;

  0017f	8b 10		 mov	 edx, DWORD PTR [eax]
  00181	88 5a 14	 mov	 BYTE PTR [edx+20], bl

; 1315 : 							this->_Color(_Pnode) = this->_Red;
; 1316 : 							_Rrotate(_Pnode);

  00184	50		 push	 eax
  00185	c6 40 14 00	 mov	 BYTE PTR [eax+20], 0
  00189	e8 00 00 00 00	 call	 ?_Rrotate@?$_Tree@V?$_Tmap_traits@HPAXU?$less@H@std@@V?$allocator@U?$pair@$$CBHPAX@std@@@2@$0A@@std@@@std@@IAEXPAU_Node@?$_Tree_nod@V?$_Tmap_traits@HPAXU?$less@H@std@@V?$allocator@U?$pair@$$CBHPAX@std@@@2@$0A@@std@@@2@@Z ; std::_Tree<std::_Tmap_traits<int,void *,std::less<int>,std::allocator<std::pair<int const ,void *> >,0> >::_Rrotate

; 1317 : 							_Pnode = this->_Right(_Fixnodeparent);

  0018e	8b 46 08	 mov	 eax, DWORD PTR [esi+8]
  00191	8b 4d fc	 mov	 ecx, DWORD PTR _this$[ebp]
$LN9@erase:

; 1318 : 							}
; 1319 : 
; 1320 : 						this->_Color(_Pnode) = this->_Color(_Fixnodeparent);

  00194	8a 56 14	 mov	 dl, BYTE PTR [esi+20]
  00197	88 50 14	 mov	 BYTE PTR [eax+20], dl

; 1321 : 						this->_Color(_Fixnodeparent) = this->_Black;

  0019a	88 5e 14	 mov	 BYTE PTR [esi+20], bl

; 1322 : 						this->_Color(this->_Right(_Pnode)) = this->_Black;

  0019d	8b 40 08	 mov	 eax, DWORD PTR [eax+8]

; 1323 : 						_Lrotate(_Fixnodeparent);

  001a0	56		 push	 esi
  001a1	88 58 14	 mov	 BYTE PTR [eax+20], bl
  001a4	e8 00 00 00 00	 call	 ?_Lrotate@?$_Tree@V?$_Tmap_traits@HPAXU?$less@H@std@@V?$allocator@U?$pair@$$CBHPAX@std@@@2@$0A@@std@@@std@@IAEXPAU_Node@?$_Tree_nod@V?$_Tmap_traits@HPAXU?$less@H@std@@V?$allocator@U?$pair@$$CBHPAX@std@@@2@$0A@@std@@@2@@Z ; std::_Tree<std::_Tmap_traits<int,void *,std::less<int>,std::allocator<std::pair<int const ,void *> >,0> >::_Lrotate

; 1324 : 						break;	// tree now recolored/rebalanced

  001a9	eb 74		 jmp	 SHORT $LN16@erase
$LN15@erase:

; 1325 : 						}
; 1326 : 					}
; 1327 : 				else
; 1328 : 					{	// fixup right subtree
; 1329 : 					_Pnode = this->_Left(_Fixnodeparent);
; 1330 : 					if (this->_Color(_Pnode) == this->_Red)

  001ab	80 78 14 00	 cmp	 BYTE PTR [eax+20], 0
  001af	75 12		 jne	 SHORT $LN7@erase

; 1331 : 						{	// rotate red up from left subtree
; 1332 : 						this->_Color(_Pnode) = this->_Black;

  001b1	88 58 14	 mov	 BYTE PTR [eax+20], bl

; 1333 : 						this->_Color(_Fixnodeparent) = this->_Red;
; 1334 : 						_Rrotate(_Fixnodeparent);

  001b4	56		 push	 esi
  001b5	c6 46 14 00	 mov	 BYTE PTR [esi+20], 0
  001b9	e8 00 00 00 00	 call	 ?_Rrotate@?$_Tree@V?$_Tmap_traits@HPAXU?$less@H@std@@V?$allocator@U?$pair@$$CBHPAX@std@@@2@$0A@@std@@@std@@IAEXPAU_Node@?$_Tree_nod@V?$_Tmap_traits@HPAXU?$less@H@std@@V?$allocator@U?$pair@$$CBHPAX@std@@@2@$0A@@std@@@2@@Z ; std::_Tree<std::_Tmap_traits<int,void *,std::less<int>,std::allocator<std::pair<int const ,void *> >,0> >::_Rrotate

; 1335 : 						_Pnode = this->_Left(_Fixnodeparent);

  001be	8b 06		 mov	 eax, DWORD PTR [esi]
  001c0	8b 4d fc	 mov	 ecx, DWORD PTR _this$[ebp]
$LN7@erase:

; 1336 : 						}
; 1337 : 					if (this->_Isnil(_Pnode))

  001c3	80 78 15 00	 cmp	 BYTE PTR [eax+21], 0

; 1338 : 						_Fixnode = _Fixnodeparent;	// shouldn't happen
; 1339 : 					else if (this->_Color(this->_Right(_Pnode)) ==

  001c7	75 13		 jne	 SHORT $LN293@erase

; 1340 : 						this->_Black
; 1341 : 						&& this->_Color(this->_Left(_Pnode)) == this->_Black)

  001c9	8b 50 08	 mov	 edx, DWORD PTR [eax+8]
  001cc	38 5a 14	 cmp	 BYTE PTR [edx+20], bl
  001cf	75 1e		 jne	 SHORT $LN4@erase
  001d1	8b 10		 mov	 edx, DWORD PTR [eax]
  001d3	38 5a 14	 cmp	 BYTE PTR [edx+20], bl
  001d6	75 17		 jne	 SHORT $LN4@erase
$LN294@erase:

; 1342 : 						{	// redden left subtree with black children
; 1343 : 						this->_Color(_Pnode) = this->_Red;

  001d8	c6 40 14 00	 mov	 BYTE PTR [eax+20], 0
$LN293@erase:

; 1286 : 			{	// erasing black link, must recolor/rebalance tree
; 1287 : 			for (; _Fixnode != _Root()
; 1288 : 				&& this->_Color(_Fixnode) == this->_Black;
; 1289 : 				_Fixnodeparent = this->_Parent(_Fixnode))

  001dc	8b 41 04	 mov	 eax, DWORD PTR [ecx+4]

; 1344 : 						_Fixnode = _Fixnodeparent;

  001df	8b fe		 mov	 edi, esi
  001e1	8b 76 04	 mov	 esi, DWORD PTR [esi+4]
  001e4	3b 78 04	 cmp	 edi, DWORD PTR [eax+4]
  001e7	0f 85 4a ff ff
	ff		 jne	 $LL18@erase

; 1286 : 			{	// erasing black link, must recolor/rebalance tree
; 1287 : 			for (; _Fixnode != _Root()
; 1288 : 				&& this->_Color(_Fixnode) == this->_Black;
; 1289 : 				_Fixnodeparent = this->_Parent(_Fixnode))

  001ed	eb 30		 jmp	 SHORT $LN16@erase
$LN4@erase:

; 1345 : 						}
; 1346 : 					else
; 1347 : 						{	// must rearrange left subtree
; 1348 : 						if (this->_Color(this->_Left(_Pnode)) == this->_Black)

  001ef	8b 10		 mov	 edx, DWORD PTR [eax]
  001f1	38 5a 14	 cmp	 BYTE PTR [edx+20], bl
  001f4	75 15		 jne	 SHORT $LN2@erase

; 1349 : 							{	// rotate red up from right sub-subtree
; 1350 : 							this->_Color(this->_Right(_Pnode)) = this->_Black;

  001f6	8b 50 08	 mov	 edx, DWORD PTR [eax+8]
  001f9	88 5a 14	 mov	 BYTE PTR [edx+20], bl

; 1351 : 							this->_Color(_Pnode) = this->_Red;
; 1352 : 							_Lrotate(_Pnode);

  001fc	50		 push	 eax
  001fd	c6 40 14 00	 mov	 BYTE PTR [eax+20], 0
  00201	e8 00 00 00 00	 call	 ?_Lrotate@?$_Tree@V?$_Tmap_traits@HPAXU?$less@H@std@@V?$allocator@U?$pair@$$CBHPAX@std@@@2@$0A@@std@@@std@@IAEXPAU_Node@?$_Tree_nod@V?$_Tmap_traits@HPAXU?$less@H@std@@V?$allocator@U?$pair@$$CBHPAX@std@@@2@$0A@@std@@@2@@Z ; std::_Tree<std::_Tmap_traits<int,void *,std::less<int>,std::allocator<std::pair<int const ,void *> >,0> >::_Lrotate

; 1353 : 							_Pnode = this->_Left(_Fixnodeparent);

  00206	8b 06		 mov	 eax, DWORD PTR [esi]
  00208	8b 4d fc	 mov	 ecx, DWORD PTR _this$[ebp]
$LN2@erase:

; 1354 : 							}
; 1355 : 
; 1356 : 						this->_Color(_Pnode) = this->_Color(_Fixnodeparent);

  0020b	8a 56 14	 mov	 dl, BYTE PTR [esi+20]
  0020e	88 50 14	 mov	 BYTE PTR [eax+20], dl

; 1357 : 						this->_Color(_Fixnodeparent) = this->_Black;

  00211	88 5e 14	 mov	 BYTE PTR [esi+20], bl

; 1358 : 						this->_Color(this->_Left(_Pnode)) = this->_Black;

  00214	8b 00		 mov	 eax, DWORD PTR [eax]

; 1359 : 						_Rrotate(_Fixnodeparent);

  00216	56		 push	 esi
  00217	88 58 14	 mov	 BYTE PTR [eax+20], bl
  0021a	e8 00 00 00 00	 call	 ?_Rrotate@?$_Tree@V?$_Tmap_traits@HPAXU?$less@H@std@@V?$allocator@U?$pair@$$CBHPAX@std@@@2@$0A@@std@@@std@@IAEXPAU_Node@?$_Tree_nod@V?$_Tmap_traits@HPAXU?$less@H@std@@V?$allocator@U?$pair@$$CBHPAX@std@@@2@$0A@@std@@@2@@Z ; std::_Tree<std::_Tmap_traits<int,void *,std::less<int>,std::allocator<std::pair<int const ,void *> >,0> >::_Rrotate
$LN16@erase:

; 1360 : 						break;	// tree now recolored/rebalanced
; 1361 : 						}
; 1362 : 					}
; 1363 : 
; 1364 : 			this->_Color(_Fixnode) = this->_Black;	// stopping node is black

  0021f	88 5f 14	 mov	 BYTE PTR [edi+20], bl
$LN19@erase:

; 1365 : 			}
; 1366 : 
; 1367 : 		_Dest_val(this->_Alval,
; 1368 : 			_STD addressof(this->_Myval(_Erasednode)));	// delete erased node
; 1369 : 
; 1370 : 		this->_Alnod.deallocate(_Erasednode, 1);

  00222	8b 4d f8	 mov	 ecx, DWORD PTR __Erasednode$[ebp]
  00225	51		 push	 ecx
  00226	e8 00 00 00 00	 call	 ??3@YAXPAX@Z		; operator delete

; 1371 : 
; 1372 : 		if (0 < this->_Mysize)

  0022b	8b 4d fc	 mov	 ecx, DWORD PTR _this$[ebp]
  0022e	8b 41 08	 mov	 eax, DWORD PTR [ecx+8]
  00231	83 c4 04	 add	 esp, 4
  00234	5f		 pop	 edi
  00235	5e		 pop	 esi
  00236	5b		 pop	 ebx
  00237	85 c0		 test	 eax, eax
  00239	74 04		 je	 SHORT $LN1@erase

; 1373 : 			--this->_Mysize;

  0023b	48		 dec	 eax
  0023c	89 41 08	 mov	 DWORD PTR [ecx+8], eax
$LN1@erase:

; 1374 : 
; 1375 : 		return (iterator(_Where._Ptr, this));	// return successor iterator

  0023f	8b 45 08	 mov	 eax, DWORD PTR ___$ReturnUdt$[ebp]
  00242	8b 55 0c	 mov	 edx, DWORD PTR __Where$[ebp]
  00245	89 10		 mov	 DWORD PTR [eax], edx

; 1376 : 		}

  00247	8b e5		 mov	 esp, ebp
  00249	5d		 pop	 ebp
  0024a	c2 08 00	 ret	 8
$LN292@erase:
?erase@?$_Tree@V?$_Tmap_traits@HPAXU?$less@H@std@@V?$allocator@U?$pair@$$CBHPAX@std@@@2@$0A@@std@@@std@@QAE?AV?$_Tree_iterator@V?$_Tree_val@V?$_Tmap_traits@HPAXU?$less@H@std@@V?$allocator@U?$pair@$$CBHPAX@std@@@2@$0A@@std@@@std@@@2@V?$_Tree_const_iterator@V?$_Tree_val@V?$_Tmap_traits@HPAXU?$less@H@std@@V?$allocator@U?$pair@$$CBHPAX@std@@@2@$0A@@std@@@std@@@2@@Z ENDP ; std::_Tree<std::_Tmap_traits<int,void *,std::less<int>,std::allocator<std::pair<int const ,void *> >,0> >::erase
_TEXT	ENDS
PUBLIC	??_C@_0BE@JONHPENG@map?1set?$DMT?$DO?5too?5long?$AA@ ; `string'
PUBLIC	?_Insert@?$_Tree@V?$_Tmap_traits@HPAXU?$less@H@std@@V?$allocator@U?$pair@$$CBHPAX@std@@@2@$0A@@std@@@std@@IAE?AV?$_Tree_iterator@V?$_Tree_val@V?$_Tmap_traits@HPAXU?$less@H@std@@V?$allocator@U?$pair@$$CBHPAX@std@@@2@$0A@@std@@@std@@@2@_NPAU_Node@?$_Tree_nod@V?$_Tmap_traits@HPAXU?$less@H@std@@V?$allocator@U?$pair@$$CBHPAX@std@@@2@$0A@@std@@@2@1@Z ; std::_Tree<std::_Tmap_traits<int,void *,std::less<int>,std::allocator<std::pair<int const ,void *> >,0> >::_Insert
;	COMDAT ??_C@_0BE@JONHPENG@map?1set?$DMT?$DO?5too?5long?$AA@
; File c:\program files (x86)\microsoft visual studio 10.0\vc\include\xutility
CONST	SEGMENT
??_C@_0BE@JONHPENG@map?1set?$DMT?$DO?5too?5long?$AA@ DB 'map/set<T> too l'
	DB	'ong', 00H					; `string'
; Function compile flags: /Ogtp
; File c:\program files (x86)\microsoft visual studio 10.0\vc\include\xtree
CONST	ENDS
;	COMDAT ?_Insert@?$_Tree@V?$_Tmap_traits@HPAXU?$less@H@std@@V?$allocator@U?$pair@$$CBHPAX@std@@@2@$0A@@std@@@std@@IAE?AV?$_Tree_iterator@V?$_Tree_val@V?$_Tmap_traits@HPAXU?$less@H@std@@V?$allocator@U?$pair@$$CBHPAX@std@@@2@$0A@@std@@@std@@@2@_NPAU_Node@?$_Tree_nod@V?$_Tmap_traits@HPAXU?$less@H@std@@V?$allocator@U?$pair@$$CBHPAX@std@@@2@$0A@@std@@@2@1@Z
_TEXT	SEGMENT
___$ReturnUdt$ = 8					; size = 4
__Addleft$ = 12						; size = 1
__Wherenode$ = 16					; size = 4
__Newnode$ = 20						; size = 4
?_Insert@?$_Tree@V?$_Tmap_traits@HPAXU?$less@H@std@@V?$allocator@U?$pair@$$CBHPAX@std@@@2@$0A@@std@@@std@@IAE?AV?$_Tree_iterator@V?$_Tree_val@V?$_Tmap_traits@HPAXU?$less@H@std@@V?$allocator@U?$pair@$$CBHPAX@std@@@2@$0A@@std@@@std@@@2@_NPAU_Node@?$_Tree_nod@V?$_Tmap_traits@HPAXU?$less@H@std@@V?$allocator@U?$pair@$$CBHPAX@std@@@2@$0A@@std@@@2@1@Z PROC ; std::_Tree<std::_Tmap_traits<int,void *,std::less<int>,std::allocator<std::pair<int const ,void *> >,0> >::_Insert, COMDAT
; _this$ = ecx

; 1631 : 		{	// add node with value next to _Wherenode, to left if _Addleft

  00000	55		 push	 ebp
  00001	8b ec		 mov	 ebp, esp

; 1632 : 		if (max_size() - 1 <= this->_Mysize)

  00003	8b 41 08	 mov	 eax, DWORD PTR [ecx+8]
  00006	3d fe ff ff 1f	 cmp	 eax, 536870910		; 1ffffffeH
  0000b	72 16		 jb	 SHORT $LN17@Insert

; 1633 : 			{	// tree would get too big, fail
; 1634 : 			_Dest_val(this->_Alval,
; 1635 : 				_STD addressof(this->_Myval(_Newnode)));
; 1636 : 
; 1637 : 			this->_Alnod.deallocate(_Newnode, 1);

  0000d	8b 45 14	 mov	 eax, DWORD PTR __Newnode$[ebp]
  00010	50		 push	 eax
  00011	e8 00 00 00 00	 call	 ??3@YAXPAX@Z		; operator delete
  00016	83 c4 04	 add	 esp, 4

; 1638 : 
; 1639 : 			_Xlength_error("map/set<T> too long");

  00019	68 00 00 00 00	 push	 OFFSET ??_C@_0BE@JONHPENG@map?1set?$DMT?$DO?5too?5long?$AA@
  0001e	e8 00 00 00 00	 call	 ?_Xlength_error@std@@YAXPBD@Z ; std::_Xlength_error
$LN377@Insert:
$LN17@Insert:

; 1640 : 			}
; 1641 : 		++this->_Mysize;

  00023	40		 inc	 eax
  00024	53		 push	 ebx
  00025	89 41 08	 mov	 DWORD PTR [ecx+8], eax

; 1642 : 		_Newnode->_Parent = _Wherenode;

  00028	8b 45 10	 mov	 eax, DWORD PTR __Wherenode$[ebp]
  0002b	57		 push	 edi
  0002c	8b 7d 14	 mov	 edi, DWORD PTR __Newnode$[ebp]
  0002f	89 47 04	 mov	 DWORD PTR [edi+4], eax

; 1643 : 
; 1644 : 		if (_Wherenode == this->_Myhead)

  00032	8b 51 04	 mov	 edx, DWORD PTR [ecx+4]
  00035	32 db		 xor	 bl, bl
  00037	3b c2		 cmp	 eax, edx
  00039	75 10		 jne	 SHORT $LN16@Insert

; 1645 : 			{	// first node in tree, just set head values
; 1646 : 			_Root() = _Newnode;

  0003b	89 7a 04	 mov	 DWORD PTR [edx+4], edi

; 1647 : 			_Lmost() = _Newnode;

  0003e	8b 51 04	 mov	 edx, DWORD PTR [ecx+4]
  00041	89 3a		 mov	 DWORD PTR [edx], edi

; 1648 : 			_Rmost() = _Newnode;

  00043	8b 41 04	 mov	 eax, DWORD PTR [ecx+4]
  00046	89 78 08	 mov	 DWORD PTR [eax+8], edi
  00049	eb 20		 jmp	 SHORT $LN11@Insert
$LN16@Insert:

; 1649 : 			}
; 1650 : 		else if (_Addleft)

  0004b	38 5d 0c	 cmp	 BYTE PTR __Addleft$[ebp], bl
  0004e	74 0d		 je	 SHORT $LN14@Insert

; 1651 : 			{	// add to left of _Wherenode
; 1652 : 			this->_Left(_Wherenode) = _Newnode;

  00050	89 38		 mov	 DWORD PTR [eax], edi

; 1653 : 			if (_Wherenode == _Lmost())

  00052	8b 51 04	 mov	 edx, DWORD PTR [ecx+4]
  00055	3b 02		 cmp	 eax, DWORD PTR [edx]
  00057	75 12		 jne	 SHORT $LN11@Insert

; 1654 : 				_Lmost() = _Newnode;

  00059	89 3a		 mov	 DWORD PTR [edx], edi

; 1655 : 			}
; 1656 : 		else

  0005b	eb 0e		 jmp	 SHORT $LN11@Insert
$LN14@Insert:

; 1657 : 			{	// add to right of _Wherenode
; 1658 : 			this->_Right(_Wherenode) = _Newnode;

  0005d	89 78 08	 mov	 DWORD PTR [eax+8], edi

; 1659 : 			if (_Wherenode == _Rmost())

  00060	8b 51 04	 mov	 edx, DWORD PTR [ecx+4]
  00063	3b 42 08	 cmp	 eax, DWORD PTR [edx+8]
  00066	75 03		 jne	 SHORT $LN11@Insert

; 1660 : 				_Rmost() = _Newnode;

  00068	89 7a 08	 mov	 DWORD PTR [edx+8], edi
$LN11@Insert:

; 1661 : 			}
; 1662 : 
; 1663 : 		for (_Nodeptr _Pnode = _Newnode;
; 1664 : 			this->_Color(this->_Parent(_Pnode)) == this->_Red; )

  0006b	8b 57 04	 mov	 edx, DWORD PTR [edi+4]
  0006e	8b c7		 mov	 eax, edi
  00070	38 5a 14	 cmp	 BYTE PTR [edx+20], bl
  00073	0f 85 97 01 00
	00		 jne	 $LN9@Insert
  00079	56		 push	 esi
  0007a	8d 9b 00 00 00
	00		 npad	 6
$LL10@Insert:

; 1665 : 			if (this->_Parent(_Pnode)
; 1666 : 				== this->_Left(this->_Parent(this->_Parent(_Pnode))))

  00080	8b 50 04	 mov	 edx, DWORD PTR [eax+4]
  00083	8b 72 04	 mov	 esi, DWORD PTR [edx+4]
  00086	3b 16		 cmp	 edx, DWORD PTR [esi]
  00088	0f 85 c1 00 00
	00		 jne	 $LN8@Insert

; 1667 : 				{	// fixup red-red in left subtree
; 1668 : 				_Wherenode =
; 1669 : 					this->_Right(this->_Parent(this->_Parent(_Pnode)));

  0008e	8b 76 08	 mov	 esi, DWORD PTR [esi+8]

; 1670 : 				if (this->_Color(_Wherenode) == this->_Red)

  00091	38 5e 14	 cmp	 BYTE PTR [esi+20], bl
  00094	75 1c		 jne	 SHORT $LN7@Insert

; 1671 : 					{	// parent has two red children, blacken both
; 1672 : 					this->_Color(this->_Parent(_Pnode)) = this->_Black;

  00096	c6 42 14 01	 mov	 BYTE PTR [edx+20], 1

; 1673 : 					this->_Color(_Wherenode) = this->_Black;

  0009a	c6 46 14 01	 mov	 BYTE PTR [esi+20], 1

; 1674 : 					this->_Color(this->_Parent(this->_Parent(_Pnode)))
; 1675 : 						= this->_Red;

  0009e	8b 50 04	 mov	 edx, DWORD PTR [eax+4]
  000a1	8b 52 04	 mov	 edx, DWORD PTR [edx+4]
  000a4	88 5a 14	 mov	 BYTE PTR [edx+20], bl

; 1676 : 					_Pnode = this->_Parent(this->_Parent(_Pnode));

  000a7	8b 40 04	 mov	 eax, DWORD PTR [eax+4]
  000aa	8b 40 04	 mov	 eax, DWORD PTR [eax+4]

; 1677 : 					}
; 1678 : 				else

  000ad	e9 51 01 00 00	 jmp	 $LN316@Insert
$LN7@Insert:

; 1679 : 					{	// parent has red and black children
; 1680 : 					if (_Pnode == this->_Right(this->_Parent(_Pnode)))

  000b2	3b 42 08	 cmp	 eax, DWORD PTR [edx+8]
  000b5	75 3a		 jne	 SHORT $LN111@Insert

; 1681 : 						{	// rotate right child to left
; 1682 : 						_Pnode = this->_Parent(_Pnode);

  000b7	8b c2		 mov	 eax, edx

; 1683 : 						_Lrotate(_Pnode);

  000b9	8b 50 08	 mov	 edx, DWORD PTR [eax+8]
  000bc	8b 32		 mov	 esi, DWORD PTR [edx]
  000be	89 70 08	 mov	 DWORD PTR [eax+8], esi
  000c1	8b 32		 mov	 esi, DWORD PTR [edx]
  000c3	38 5e 15	 cmp	 BYTE PTR [esi+21], bl
  000c6	75 03		 jne	 SHORT $LN110@Insert
  000c8	89 46 04	 mov	 DWORD PTR [esi+4], eax
$LN110@Insert:
  000cb	8b 70 04	 mov	 esi, DWORD PTR [eax+4]
  000ce	89 72 04	 mov	 DWORD PTR [edx+4], esi
  000d1	8b 71 04	 mov	 esi, DWORD PTR [ecx+4]
  000d4	3b 46 04	 cmp	 eax, DWORD PTR [esi+4]
  000d7	75 05		 jne	 SHORT $LN109@Insert
  000d9	89 56 04	 mov	 DWORD PTR [esi+4], edx
  000dc	eb 0e		 jmp	 SHORT $LN106@Insert
$LN109@Insert:
  000de	8b 70 04	 mov	 esi, DWORD PTR [eax+4]
  000e1	3b 06		 cmp	 eax, DWORD PTR [esi]
  000e3	75 04		 jne	 SHORT $LN107@Insert
  000e5	89 16		 mov	 DWORD PTR [esi], edx
  000e7	eb 03		 jmp	 SHORT $LN106@Insert
$LN107@Insert:
  000e9	89 56 08	 mov	 DWORD PTR [esi+8], edx
$LN106@Insert:
  000ec	89 02		 mov	 DWORD PTR [edx], eax
  000ee	89 50 04	 mov	 DWORD PTR [eax+4], edx
$LN111@Insert:

; 1684 : 						}
; 1685 : 					this->_Color(this->_Parent(_Pnode)) =
; 1686 : 						this->_Black;	// propagate red up

  000f1	8b 50 04	 mov	 edx, DWORD PTR [eax+4]
  000f4	c6 42 14 01	 mov	 BYTE PTR [edx+20], 1

; 1687 : 					this->_Color(this->_Parent(this->_Parent(_Pnode))) =
; 1688 : 						this->_Red;

  000f8	8b 50 04	 mov	 edx, DWORD PTR [eax+4]
  000fb	8b 52 04	 mov	 edx, DWORD PTR [edx+4]
  000fe	88 5a 14	 mov	 BYTE PTR [edx+20], bl

; 1689 : 					_Rrotate(this->_Parent(this->_Parent(_Pnode)));

  00101	8b 50 04	 mov	 edx, DWORD PTR [eax+4]
  00104	8b 52 04	 mov	 edx, DWORD PTR [edx+4]
  00107	8b 32		 mov	 esi, DWORD PTR [edx]
  00109	8b 7e 08	 mov	 edi, DWORD PTR [esi+8]
  0010c	89 3a		 mov	 DWORD PTR [edx], edi
  0010e	8b 7e 08	 mov	 edi, DWORD PTR [esi+8]
  00111	38 5f 15	 cmp	 BYTE PTR [edi+21], bl
  00114	75 03		 jne	 SHORT $LN173@Insert
  00116	89 57 04	 mov	 DWORD PTR [edi+4], edx
$LN173@Insert:
  00119	8b 7a 04	 mov	 edi, DWORD PTR [edx+4]
  0011c	89 7e 04	 mov	 DWORD PTR [esi+4], edi
  0011f	8b 79 04	 mov	 edi, DWORD PTR [ecx+4]
  00122	3b 57 04	 cmp	 edx, DWORD PTR [edi+4]
  00125	75 0b		 jne	 SHORT $LN172@Insert
  00127	89 77 04	 mov	 DWORD PTR [edi+4], esi
  0012a	89 56 08	 mov	 DWORD PTR [esi+8], edx

; 1690 : 					}
; 1691 : 				}
; 1692 : 			else

  0012d	e9 cb 00 00 00	 jmp	 $LN376@Insert

; 1689 : 					_Rrotate(this->_Parent(this->_Parent(_Pnode)));

$LN172@Insert:
  00132	8b 7a 04	 mov	 edi, DWORD PTR [edx+4]
  00135	3b 57 08	 cmp	 edx, DWORD PTR [edi+8]
  00138	75 0b		 jne	 SHORT $LN170@Insert
  0013a	89 77 08	 mov	 DWORD PTR [edi+8], esi
  0013d	89 56 08	 mov	 DWORD PTR [esi+8], edx

; 1690 : 					}
; 1691 : 				}
; 1692 : 			else

  00140	e9 b8 00 00 00	 jmp	 $LN376@Insert

; 1689 : 					_Rrotate(this->_Parent(this->_Parent(_Pnode)));

$LN170@Insert:
  00145	89 37		 mov	 DWORD PTR [edi], esi
  00147	89 56 08	 mov	 DWORD PTR [esi+8], edx

; 1690 : 					}
; 1691 : 				}
; 1692 : 			else

  0014a	e9 ae 00 00 00	 jmp	 $LN376@Insert
$LN8@Insert:

; 1693 : 				{	// fixup red-red in right subtree
; 1694 : 				_Wherenode =
; 1695 : 					this->_Left(this->_Parent(this->_Parent(_Pnode)));

  0014f	8b 36		 mov	 esi, DWORD PTR [esi]

; 1696 : 				if (this->_Color(_Wherenode) == this->_Red)

  00151	38 5e 14	 cmp	 BYTE PTR [esi+20], bl
  00154	75 1c		 jne	 SHORT $LN3@Insert

; 1697 : 					{	// parent has two red children, blacken both
; 1698 : 					this->_Color(this->_Parent(_Pnode)) = this->_Black;

  00156	c6 42 14 01	 mov	 BYTE PTR [edx+20], 1

; 1699 : 					this->_Color(_Wherenode) = this->_Black;

  0015a	c6 46 14 01	 mov	 BYTE PTR [esi+20], 1

; 1700 : 					this->_Color(this->_Parent(this->_Parent(_Pnode))) =
; 1701 : 						this->_Red;

  0015e	8b 50 04	 mov	 edx, DWORD PTR [eax+4]
  00161	8b 52 04	 mov	 edx, DWORD PTR [edx+4]
  00164	88 5a 14	 mov	 BYTE PTR [edx+20], bl

; 1702 : 					_Pnode = this->_Parent(this->_Parent(_Pnode));

  00167	8b 40 04	 mov	 eax, DWORD PTR [eax+4]
  0016a	8b 40 04	 mov	 eax, DWORD PTR [eax+4]

; 1703 : 					}
; 1704 : 				else

  0016d	e9 91 00 00 00	 jmp	 $LN316@Insert
$LN3@Insert:

; 1705 : 					{	// parent has red and black children
; 1706 : 					if (_Pnode == this->_Left(this->_Parent(_Pnode)))

  00172	3b 02		 cmp	 eax, DWORD PTR [edx]
  00174	75 3c		 jne	 SHORT $LN253@Insert

; 1707 : 						{	// rotate left child to right
; 1708 : 						_Pnode = this->_Parent(_Pnode);

  00176	8b c2		 mov	 eax, edx

; 1709 : 						_Rrotate(_Pnode);

  00178	8b 10		 mov	 edx, DWORD PTR [eax]
  0017a	8b 72 08	 mov	 esi, DWORD PTR [edx+8]
  0017d	89 30		 mov	 DWORD PTR [eax], esi
  0017f	8b 72 08	 mov	 esi, DWORD PTR [edx+8]
  00182	38 5e 15	 cmp	 BYTE PTR [esi+21], bl
  00185	75 03		 jne	 SHORT $LN252@Insert
  00187	89 46 04	 mov	 DWORD PTR [esi+4], eax
$LN252@Insert:
  0018a	8b 70 04	 mov	 esi, DWORD PTR [eax+4]
  0018d	89 72 04	 mov	 DWORD PTR [edx+4], esi
  00190	8b 71 04	 mov	 esi, DWORD PTR [ecx+4]
  00193	3b 46 04	 cmp	 eax, DWORD PTR [esi+4]
  00196	75 05		 jne	 SHORT $LN251@Insert
  00198	89 56 04	 mov	 DWORD PTR [esi+4], edx
  0019b	eb 0f		 jmp	 SHORT $LN248@Insert
$LN251@Insert:
  0019d	8b 70 04	 mov	 esi, DWORD PTR [eax+4]
  001a0	3b 46 08	 cmp	 eax, DWORD PTR [esi+8]
  001a3	75 05		 jne	 SHORT $LN249@Insert
  001a5	89 56 08	 mov	 DWORD PTR [esi+8], edx
  001a8	eb 02		 jmp	 SHORT $LN248@Insert
$LN249@Insert:
  001aa	89 16		 mov	 DWORD PTR [esi], edx
$LN248@Insert:
  001ac	89 42 08	 mov	 DWORD PTR [edx+8], eax
  001af	89 50 04	 mov	 DWORD PTR [eax+4], edx
$LN253@Insert:

; 1710 : 						}
; 1711 : 					this->_Color(this->_Parent(_Pnode)) =
; 1712 : 						this->_Black;	// propagate red up

  001b2	8b 50 04	 mov	 edx, DWORD PTR [eax+4]
  001b5	c6 42 14 01	 mov	 BYTE PTR [edx+20], 1

; 1713 : 					this->_Color(this->_Parent(this->_Parent(_Pnode))) =
; 1714 : 						this->_Red;

  001b9	8b 50 04	 mov	 edx, DWORD PTR [eax+4]
  001bc	8b 52 04	 mov	 edx, DWORD PTR [edx+4]
  001bf	88 5a 14	 mov	 BYTE PTR [edx+20], bl

; 1715 : 					_Lrotate(this->_Parent(this->_Parent(_Pnode)));

  001c2	8b 50 04	 mov	 edx, DWORD PTR [eax+4]
  001c5	8b 52 04	 mov	 edx, DWORD PTR [edx+4]
  001c8	8b 72 08	 mov	 esi, DWORD PTR [edx+8]
  001cb	8b 3e		 mov	 edi, DWORD PTR [esi]
  001cd	89 7a 08	 mov	 DWORD PTR [edx+8], edi
  001d0	8b 3e		 mov	 edi, DWORD PTR [esi]
  001d2	38 5f 15	 cmp	 BYTE PTR [edi+21], bl
  001d5	75 03		 jne	 SHORT $LN315@Insert
  001d7	89 57 04	 mov	 DWORD PTR [edi+4], edx
$LN315@Insert:
  001da	8b 7a 04	 mov	 edi, DWORD PTR [edx+4]
  001dd	89 7e 04	 mov	 DWORD PTR [esi+4], edi
  001e0	8b 79 04	 mov	 edi, DWORD PTR [ecx+4]
  001e3	3b 57 04	 cmp	 edx, DWORD PTR [edi+4]
  001e6	75 05		 jne	 SHORT $LN314@Insert
  001e8	89 77 04	 mov	 DWORD PTR [edi+4], esi
  001eb	eb 0e		 jmp	 SHORT $LN311@Insert
$LN314@Insert:
  001ed	8b 7a 04	 mov	 edi, DWORD PTR [edx+4]
  001f0	3b 17		 cmp	 edx, DWORD PTR [edi]
  001f2	75 04		 jne	 SHORT $LN312@Insert
  001f4	89 37		 mov	 DWORD PTR [edi], esi
  001f6	eb 03		 jmp	 SHORT $LN311@Insert
$LN312@Insert:
  001f8	89 77 08	 mov	 DWORD PTR [edi+8], esi
$LN311@Insert:
  001fb	89 16		 mov	 DWORD PTR [esi], edx
$LN376@Insert:
  001fd	8b 7d 14	 mov	 edi, DWORD PTR __Newnode$[ebp]
  00200	89 72 04	 mov	 DWORD PTR [edx+4], esi
$LN316@Insert:

; 1661 : 			}
; 1662 : 
; 1663 : 		for (_Nodeptr _Pnode = _Newnode;
; 1664 : 			this->_Color(this->_Parent(_Pnode)) == this->_Red; )

  00203	8b 50 04	 mov	 edx, DWORD PTR [eax+4]
  00206	38 5a 14	 cmp	 BYTE PTR [edx+20], bl
  00209	0f 84 71 fe ff
	ff		 je	 $LL10@Insert
  0020f	5e		 pop	 esi
$LN9@Insert:

; 1716 : 					}
; 1717 : 				}
; 1718 : 
; 1719 : 		this->_Color(_Root()) = this->_Black;	// root is always black

  00210	8b 41 04	 mov	 eax, DWORD PTR [ecx+4]
  00213	8b 48 04	 mov	 ecx, DWORD PTR [eax+4]

; 1720 : 		return (iterator(_Newnode, this));

  00216	8b 45 08	 mov	 eax, DWORD PTR ___$ReturnUdt$[ebp]
  00219	89 38		 mov	 DWORD PTR [eax], edi
  0021b	5f		 pop	 edi
  0021c	c6 41 14 01	 mov	 BYTE PTR [ecx+20], 1
  00220	5b		 pop	 ebx

; 1721 : 		}

  00221	5d		 pop	 ebp
  00222	c2 10 00	 ret	 16			; 00000010H
$LN375@Insert:
?_Insert@?$_Tree@V?$_Tmap_traits@HPAXU?$less@H@std@@V?$allocator@U?$pair@$$CBHPAX@std@@@2@$0A@@std@@@std@@IAE?AV?$_Tree_iterator@V?$_Tree_val@V?$_Tmap_traits@HPAXU?$less@H@std@@V?$allocator@U?$pair@$$CBHPAX@std@@@2@$0A@@std@@@std@@@2@_NPAU_Node@?$_Tree_nod@V?$_Tmap_traits@HPAXU?$less@H@std@@V?$allocator@U?$pair@$$CBHPAX@std@@@2@$0A@@std@@@2@1@Z ENDP ; std::_Tree<std::_Tmap_traits<int,void *,std::less<int>,std::allocator<std::pair<int const ,void *> >,0> >::_Insert
_TEXT	ENDS
PUBLIC	??$_Destroy_range@V?$allocator@UEVENT_ID_TIME@@@std@@@std@@YAXPAUEVENT_ID_TIME@@0AAV?$allocator@UEVENT_ID_TIME@@@0@U_Nonscalar_ptr_iterator_tag@0@@Z ; std::_Destroy_range<std::allocator<EVENT_ID_TIME> >
; Function compile flags: /Ogtp
; File c:\program files (x86)\microsoft visual studio 10.0\vc\include\xmemory
;	COMDAT ??$_Destroy_range@V?$allocator@UEVENT_ID_TIME@@@std@@@std@@YAXPAUEVENT_ID_TIME@@0AAV?$allocator@UEVENT_ID_TIME@@@0@U_Nonscalar_ptr_iterator_tag@0@@Z
_TEXT	SEGMENT
__First$ = 8						; size = 4
__Last$ = 12						; size = 4
__Al$ = 16						; size = 4
___formal$ = 20						; size = 1
??$_Destroy_range@V?$allocator@UEVENT_ID_TIME@@@std@@@std@@YAXPAUEVENT_ID_TIME@@0AAV?$allocator@UEVENT_ID_TIME@@@0@U_Nonscalar_ptr_iterator_tag@0@@Z PROC ; std::_Destroy_range<std::allocator<EVENT_ID_TIME> >, COMDAT

; 96   : 	for (; _First != _Last; ++_First)
; 97   : 		_Dest_val(_Al, _First);
; 98   : 	}

  00000	c3		 ret	 0
??$_Destroy_range@V?$allocator@UEVENT_ID_TIME@@@std@@@std@@YAXPAUEVENT_ID_TIME@@0AAV?$allocator@UEVENT_ID_TIME@@@0@U_Nonscalar_ptr_iterator_tag@0@@Z ENDP ; std::_Destroy_range<std::allocator<EVENT_ID_TIME> >
_TEXT	ENDS
PUBLIC	??$_Cons_val@V?$allocator@U?$pair@$$CBHPAX@std@@@std@@U?$pair@$$CBHPAX@2@U?$pair@HPAX@2@@std@@YAXAAV?$allocator@U?$pair@$$CBHPAX@std@@@0@PAU?$pair@$$CBHPAX@0@$$QAU?$pair@HPAX@0@@Z ; std::_Cons_val<std::allocator<std::pair<int const ,void *> >,std::pair<int const ,void *>,std::pair<int,void *> >
; Function compile flags: /Ogtp
;	COMDAT ??$_Cons_val@V?$allocator@U?$pair@$$CBHPAX@std@@@std@@U?$pair@$$CBHPAX@2@U?$pair@HPAX@2@@std@@YAXAAV?$allocator@U?$pair@$$CBHPAX@std@@@0@PAU?$pair@$$CBHPAX@0@$$QAU?$pair@HPAX@0@@Z
_TEXT	SEGMENT
__Alval$ = 8						; size = 4
__Pdest$ = 12						; size = 4
__Src$ = 16						; size = 4
??$_Cons_val@V?$allocator@U?$pair@$$CBHPAX@std@@@std@@U?$pair@$$CBHPAX@2@U?$pair@HPAX@2@@std@@YAXAAV?$allocator@U?$pair@$$CBHPAX@std@@@0@PAU?$pair@$$CBHPAX@0@$$QAU?$pair@HPAX@0@@Z PROC ; std::_Cons_val<std::allocator<std::pair<int const ,void *> >,std::pair<int const ,void *>,std::pair<int,void *> >, COMDAT

; 279  : 	{	// construct using allocator

  00000	55		 push	 ebp
  00001	8b ec		 mov	 ebp, esp

; 280  : 	_Alval.construct(_Pdest, _STD forward<_Ty2>(_Src));

  00003	8b 45 0c	 mov	 eax, DWORD PTR __Pdest$[ebp]
  00006	85 c0		 test	 eax, eax
  00008	74 0d		 je	 SHORT $LN7@Cons_val@4
  0000a	8b 4d 10	 mov	 ecx, DWORD PTR __Src$[ebp]
  0000d	8b 11		 mov	 edx, DWORD PTR [ecx]
  0000f	89 10		 mov	 DWORD PTR [eax], edx
  00011	8b 49 04	 mov	 ecx, DWORD PTR [ecx+4]
  00014	89 48 04	 mov	 DWORD PTR [eax+4], ecx
$LN7@Cons_val@4:

; 281  : 	}

  00017	5d		 pop	 ebp
  00018	c3		 ret	 0
??$_Cons_val@V?$allocator@U?$pair@$$CBHPAX@std@@@std@@U?$pair@$$CBHPAX@2@U?$pair@HPAX@2@@std@@YAXAAV?$allocator@U?$pair@$$CBHPAX@std@@@0@PAU?$pair@$$CBHPAX@0@$$QAU?$pair@HPAX@0@@Z ENDP ; std::_Cons_val<std::allocator<std::pair<int const ,void *> >,std::pair<int const ,void *>,std::pair<int,void *> >
_TEXT	ENDS
PUBLIC	??$_Uninit_move@PAUEVENT_ID_TIME@@PAU1@V?$allocator@UEVENT_ID_TIME@@@std@@U1@@std@@YAPAUEVENT_ID_TIME@@PAU1@00AAV?$allocator@UEVENT_ID_TIME@@@0@0U_Nonscalar_ptr_iterator_tag@0@@Z ; std::_Uninit_move<EVENT_ID_TIME *,EVENT_ID_TIME *,std::allocator<EVENT_ID_TIME>,EVENT_ID_TIME>
; Function compile flags: /Ogtp
; File c:\program files (x86)\microsoft visual studio 10.0\vc\include\memory
;	COMDAT ??$_Uninit_move@PAUEVENT_ID_TIME@@PAU1@V?$allocator@UEVENT_ID_TIME@@@std@@U1@@std@@YAPAUEVENT_ID_TIME@@PAU1@00AAV?$allocator@UEVENT_ID_TIME@@@0@0U_Nonscalar_ptr_iterator_tag@0@@Z
_TEXT	SEGMENT
__First$ = 8						; size = 4
__Last$ = 12						; size = 4
__Dest$ = 16						; size = 4
__Al$ = 20						; size = 4
___formal$ = 24						; size = 4
___formal$ = 28						; size = 1
??$_Uninit_move@PAUEVENT_ID_TIME@@PAU1@V?$allocator@UEVENT_ID_TIME@@@std@@U1@@std@@YAPAUEVENT_ID_TIME@@PAU1@00AAV?$allocator@UEVENT_ID_TIME@@@0@0U_Nonscalar_ptr_iterator_tag@0@@Z PROC ; std::_Uninit_move<EVENT_ID_TIME *,EVENT_ID_TIME *,std::allocator<EVENT_ID_TIME>,EVENT_ID_TIME>, COMDAT

; 424  : 	{	// move [_First, _Last) to raw _Dest, using _Al, arbitrary type

  00000	55		 push	 ebp
  00001	8b ec		 mov	 ebp, esp
  00003	53		 push	 ebx

; 425  : 	_DEBUG_RANGE(_First, _Last);
; 426  : 	_DEBUG_POINTER(_Dest);
; 427  : 	_FwdIt _Next = _Dest;
; 428  : 
; 429  : 	_TRY_BEGIN
; 430  : 	for (; _First != _Last; ++_Dest, ++_First)

  00004	8b 5d 0c	 mov	 ebx, DWORD PTR __Last$[ebp]
  00007	56		 push	 esi
  00008	8b 75 08	 mov	 esi, DWORD PTR __First$[ebp]
  0000b	3b f3		 cmp	 esi, ebx
  0000d	74 23		 je	 SHORT $LN17@Uninit_mov
  0000f	57		 push	 edi
  00010	8b 7d 10	 mov	 edi, DWORD PTR __Dest$[ebp]
$LL6@Uninit_mov:

; 431  : 		_Cons_val(_Al, _Dest, (_Valty &&)*_First);

  00013	8b 45 14	 mov	 eax, DWORD PTR __Al$[ebp]
  00016	56		 push	 esi
  00017	57		 push	 edi
  00018	50		 push	 eax
  00019	e8 00 00 00 00	 call	 ??$_Cons_val@V?$allocator@UEVENT_ID_TIME@@@std@@UEVENT_ID_TIME@@U3@@std@@YAXAAV?$allocator@UEVENT_ID_TIME@@@0@PAUEVENT_ID_TIME@@$$QAU2@@Z ; std::_Cons_val<std::allocator<EVENT_ID_TIME>,EVENT_ID_TIME,EVENT_ID_TIME>
  0001e	83 c6 10	 add	 esi, 16			; 00000010H
  00021	83 c4 0c	 add	 esp, 12			; 0000000cH
  00024	83 c7 10	 add	 edi, 16			; 00000010H
  00027	3b f3		 cmp	 esi, ebx
  00029	75 e8		 jne	 SHORT $LL6@Uninit_mov

; 432  : 	_CATCH_ALL
; 433  : 	for (; _Next != _Dest; ++_Next)
; 434  : 		_Dest_val(_Al, _Next);
; 435  : 	_RERAISE;
; 436  : 	_CATCH_END
; 437  : 	return (_Dest);

  0002b	8b c7		 mov	 eax, edi
  0002d	5f		 pop	 edi
  0002e	5e		 pop	 esi
  0002f	5b		 pop	 ebx

; 438  : 	}

  00030	5d		 pop	 ebp
  00031	c3		 ret	 0
$LN17@Uninit_mov:

; 432  : 	_CATCH_ALL
; 433  : 	for (; _Next != _Dest; ++_Next)
; 434  : 		_Dest_val(_Al, _Next);
; 435  : 	_RERAISE;
; 436  : 	_CATCH_END
; 437  : 	return (_Dest);

  00032	8b 45 10	 mov	 eax, DWORD PTR __Dest$[ebp]
  00035	5e		 pop	 esi
  00036	5b		 pop	 ebx

; 438  : 	}

  00037	5d		 pop	 ebp
  00038	c3		 ret	 0
??$_Uninit_move@PAUEVENT_ID_TIME@@PAU1@V?$allocator@UEVENT_ID_TIME@@@std@@U1@@std@@YAPAUEVENT_ID_TIME@@PAU1@00AAV?$allocator@UEVENT_ID_TIME@@@0@0U_Nonscalar_ptr_iterator_tag@0@@Z ENDP ; std::_Uninit_move<EVENT_ID_TIME *,EVENT_ID_TIME *,std::allocator<EVENT_ID_TIME>,EVENT_ID_TIME>
_TEXT	ENDS
PUBLIC	?end@?$_Tree@V?$_Tmap_traits@HPAXU?$less@H@std@@V?$allocator@U?$pair@$$CBHPAX@std@@@2@$0A@@std@@@std@@QAE?AV?$_Tree_iterator@V?$_Tree_val@V?$_Tmap_traits@HPAXU?$less@H@std@@V?$allocator@U?$pair@$$CBHPAX@std@@@2@$0A@@std@@@std@@@2@XZ ; std::_Tree<std::_Tmap_traits<int,void *,std::less<int>,std::allocator<std::pair<int const ,void *> >,0> >::end
; Function compile flags: /Ogtp
; File c:\program files (x86)\microsoft visual studio 10.0\vc\include\xtree
;	COMDAT ?end@?$_Tree@V?$_Tmap_traits@HPAXU?$less@H@std@@V?$allocator@U?$pair@$$CBHPAX@std@@@2@$0A@@std@@@std@@QAE?AV?$_Tree_iterator@V?$_Tree_val@V?$_Tmap_traits@HPAXU?$less@H@std@@V?$allocator@U?$pair@$$CBHPAX@std@@@2@$0A@@std@@@std@@@2@XZ
_TEXT	SEGMENT
___$ReturnUdt$ = 8					; size = 4
?end@?$_Tree@V?$_Tmap_traits@HPAXU?$less@H@std@@V?$allocator@U?$pair@$$CBHPAX@std@@@2@$0A@@std@@@std@@QAE?AV?$_Tree_iterator@V?$_Tree_val@V?$_Tmap_traits@HPAXU?$less@H@std@@V?$allocator@U?$pair@$$CBHPAX@std@@@2@$0A@@std@@@std@@@2@XZ PROC ; std::_Tree<std::_Tmap_traits<int,void *,std::less<int>,std::allocator<std::pair<int const ,void *> >,0> >::end, COMDAT
; _this$ = ecx

; 816  : 		{	// return iterator for end of mutable sequence

  00000	55		 push	 ebp
  00001	8b ec		 mov	 ebp, esp

; 817  : 		return (iterator(this->_Myhead, this));

  00003	8b 49 04	 mov	 ecx, DWORD PTR [ecx+4]
  00006	8b 45 08	 mov	 eax, DWORD PTR ___$ReturnUdt$[ebp]
  00009	89 08		 mov	 DWORD PTR [eax], ecx

; 818  : 		}

  0000b	5d		 pop	 ebp
  0000c	c2 04 00	 ret	 4
?end@?$_Tree@V?$_Tmap_traits@HPAXU?$less@H@std@@V?$allocator@U?$pair@$$CBHPAX@std@@@2@$0A@@std@@@std@@QAE?AV?$_Tree_iterator@V?$_Tree_val@V?$_Tmap_traits@HPAXU?$less@H@std@@V?$allocator@U?$pair@$$CBHPAX@std@@@2@$0A@@std@@@std@@@2@XZ ENDP ; std::_Tree<std::_Tmap_traits<int,void *,std::less<int>,std::allocator<std::pair<int const ,void *> >,0> >::end
_TEXT	ENDS
PUBLIC	?clear@?$_Tree@V?$_Tmap_traits@HPAXU?$less@H@std@@V?$allocator@U?$pair@$$CBHPAX@std@@@2@$0A@@std@@@std@@QAEXXZ ; std::_Tree<std::_Tmap_traits<int,void *,std::less<int>,std::allocator<std::pair<int const ,void *> >,0> >::clear
; Function compile flags: /Ogtp
;	COMDAT ?clear@?$_Tree@V?$_Tmap_traits@HPAXU?$less@H@std@@V?$allocator@U?$pair@$$CBHPAX@std@@@2@$0A@@std@@@std@@QAEXXZ
_TEXT	SEGMENT
?clear@?$_Tree@V?$_Tmap_traits@HPAXU?$less@H@std@@V?$allocator@U?$pair@$$CBHPAX@std@@@2@$0A@@std@@@std@@QAEXXZ PROC ; std::_Tree<std::_Tmap_traits<int,void *,std::less<int>,std::allocator<std::pair<int const ,void *> >,0> >::clear, COMDAT
; _this$ = ecx

; 1410 : 		{	// erase all

  00000	53		 push	 ebx
  00001	56		 push	 esi
  00002	57		 push	 edi
  00003	8b f9		 mov	 edi, ecx

; 1411 :  #if _ITERATOR_DEBUG_LEVEL == 2
; 1412 : 		this->_Orphan_ptr(*this, 0);
; 1413 :  #endif /* _ITERATOR_DEBUG_LEVEL == 2 */
; 1414 : 
; 1415 : 		_Erase(_Root());

  00005	8b 47 04	 mov	 eax, DWORD PTR [edi+4]
  00008	8b 58 04	 mov	 ebx, DWORD PTR [eax+4]
  0000b	80 7b 15 00	 cmp	 BYTE PTR [ebx+21], 0
  0000f	8b f3		 mov	 esi, ebx
  00011	75 1e		 jne	 SHORT $LN7@clear
$LL9@clear:
  00013	8b 4e 08	 mov	 ecx, DWORD PTR [esi+8]
  00016	51		 push	 ecx
  00017	8b cf		 mov	 ecx, edi
  00019	e8 00 00 00 00	 call	 ?_Erase@?$_Tree@V?$_Tmap_traits@HPAXU?$less@H@std@@V?$allocator@U?$pair@$$CBHPAX@std@@@2@$0A@@std@@@std@@IAEXPAU_Node@?$_Tree_nod@V?$_Tmap_traits@HPAXU?$less@H@std@@V?$allocator@U?$pair@$$CBHPAX@std@@@2@$0A@@std@@@2@@Z ; std::_Tree<std::_Tmap_traits<int,void *,std::less<int>,std::allocator<std::pair<int const ,void *> >,0> >::_Erase
  0001e	8b 36		 mov	 esi, DWORD PTR [esi]
  00020	53		 push	 ebx
  00021	e8 00 00 00 00	 call	 ??3@YAXPAX@Z		; operator delete
  00026	83 c4 04	 add	 esp, 4
  00029	80 7e 15 00	 cmp	 BYTE PTR [esi+21], 0
  0002d	8b de		 mov	 ebx, esi
  0002f	74 e2		 je	 SHORT $LL9@clear
$LN7@clear:

; 1416 : 		_Root() = this->_Myhead;

  00031	8b 47 04	 mov	 eax, DWORD PTR [edi+4]
  00034	89 40 04	 mov	 DWORD PTR [eax+4], eax

; 1417 : 		_Lmost() = this->_Myhead;

  00037	8b 47 04	 mov	 eax, DWORD PTR [edi+4]
  0003a	89 00		 mov	 DWORD PTR [eax], eax

; 1418 : 		_Rmost() = this->_Myhead;

  0003c	8b 47 04	 mov	 eax, DWORD PTR [edi+4]
  0003f	89 40 08	 mov	 DWORD PTR [eax+8], eax

; 1419 : 		this->_Mysize = 0;

  00042	c7 47 08 00 00
	00 00		 mov	 DWORD PTR [edi+8], 0
  00049	5f		 pop	 edi
  0004a	5e		 pop	 esi
  0004b	5b		 pop	 ebx

; 1420 : 		}

  0004c	c3		 ret	 0
?clear@?$_Tree@V?$_Tmap_traits@HPAXU?$less@H@std@@V?$allocator@U?$pair@$$CBHPAX@std@@@2@$0A@@std@@@std@@QAEXXZ ENDP ; std::_Tree<std::_Tmap_traits<int,void *,std::less<int>,std::allocator<std::pair<int const ,void *> >,0> >::clear
_TEXT	ENDS
PUBLIC	??0?$_Tree@V?$_Tmap_traits@HPAXU?$less@H@std@@V?$allocator@U?$pair@$$CBHPAX@std@@@2@$0A@@std@@@std@@QAE@ABU?$less@H@1@ABV?$allocator@U?$pair@$$CBHPAX@std@@@1@@Z ; std::_Tree<std::_Tmap_traits<int,void *,std::less<int>,std::allocator<std::pair<int const ,void *> >,0> >::_Tree<std::_Tmap_traits<int,void *,std::less<int>,std::allocator<std::pair<int const ,void *> >,0> >
; Function compile flags: /Ogtp
;	COMDAT ??0?$_Tree@V?$_Tmap_traits@HPAXU?$less@H@std@@V?$allocator@U?$pair@$$CBHPAX@std@@@2@$0A@@std@@@std@@QAE@ABU?$less@H@1@ABV?$allocator@U?$pair@$$CBHPAX@std@@@1@@Z
_TEXT	SEGMENT
$T161512 = -16						; size = 12
$T161447 = -4						; size = 4
__Parg$ = 8						; size = 4
__Al$ = 12						; size = 4
??0?$_Tree@V?$_Tmap_traits@HPAXU?$less@H@std@@V?$allocator@U?$pair@$$CBHPAX@std@@@2@$0A@@std@@@std@@QAE@ABU?$less@H@1@ABV?$allocator@U?$pair@$$CBHPAX@std@@@1@@Z PROC ; std::_Tree<std::_Tmap_traits<int,void *,std::less<int>,std::allocator<std::pair<int const ,void *> >,0> >::_Tree<std::_Tmap_traits<int,void *,std::less<int>,std::allocator<std::pair<int const ,void *> >,0> >, COMDAT
; _this$ = ecx

; 698  : 		{	// construct empty tree

  00000	55		 push	 ebp
  00001	8b ec		 mov	 ebp, esp
  00003	83 ec 10	 sub	 esp, 16			; 00000010H
  00006	56		 push	 esi
  00007	8b f1		 mov	 esi, ecx
  00009	6a 18		 push	 24			; 00000018H
  0000b	c7 46 08 00 00
	00 00		 mov	 DWORD PTR [esi+8], 0
  00012	e8 00 00 00 00	 call	 ??2@YAPAXI@Z		; operator new
  00017	83 c4 04	 add	 esp, 4
  0001a	85 c0		 test	 eax, eax
  0001c	74 28		 je	 SHORT $LN20@Tree
  0001e	89 46 04	 mov	 DWORD PTR [esi+4], eax
  00021	89 00		 mov	 DWORD PTR [eax], eax
  00023	8b 46 04	 mov	 eax, DWORD PTR [esi+4]
  00026	89 40 04	 mov	 DWORD PTR [eax+4], eax
  00029	8b 46 04	 mov	 eax, DWORD PTR [esi+4]
  0002c	89 40 08	 mov	 DWORD PTR [eax+8], eax
  0002f	8b 4e 04	 mov	 ecx, DWORD PTR [esi+4]
  00032	b0 01		 mov	 al, 1
  00034	88 41 14	 mov	 BYTE PTR [ecx+20], al
  00037	8b 56 04	 mov	 edx, DWORD PTR [esi+4]
  0003a	88 42 15	 mov	 BYTE PTR [edx+21], al

; 699  : 		}

  0003d	8b c6		 mov	 eax, esi
  0003f	5e		 pop	 esi
  00040	8b e5		 mov	 esp, ebp
  00042	5d		 pop	 ebp
  00043	c2 08 00	 ret	 8

; 698  : 		{	// construct empty tree

$LN20@Tree:
  00046	8d 45 fc	 lea	 eax, DWORD PTR $T161447[ebp]
  00049	50		 push	 eax
  0004a	8d 4d f0	 lea	 ecx, DWORD PTR $T161512[ebp]
  0004d	c7 45 fc 00 00
	00 00		 mov	 DWORD PTR $T161447[ebp], 0
  00054	e8 00 00 00 00	 call	 ??0exception@std@@QAE@ABQBD@Z ; std::exception::exception
  00059	68 00 00 00 00	 push	 OFFSET __TI2?AVbad_alloc@std@@
  0005e	8d 4d f0	 lea	 ecx, DWORD PTR $T161512[ebp]
  00061	51		 push	 ecx
  00062	c7 45 f0 00 00
	00 00		 mov	 DWORD PTR $T161512[ebp], OFFSET ??_7bad_alloc@std@@6B@
  00069	e8 00 00 00 00	 call	 __CxxThrowException@8
$LN43@Tree:
$LN42@Tree:
  0006e	cc		 int	 3
??0?$_Tree@V?$_Tmap_traits@HPAXU?$less@H@std@@V?$allocator@U?$pair@$$CBHPAX@std@@@2@$0A@@std@@@std@@QAE@ABU?$less@H@1@ABV?$allocator@U?$pair@$$CBHPAX@std@@@1@@Z ENDP ; std::_Tree<std::_Tmap_traits<int,void *,std::less<int>,std::allocator<std::pair<int const ,void *> >,0> >::_Tree<std::_Tmap_traits<int,void *,std::less<int>,std::allocator<std::pair<int const ,void *> >,0> >
_TEXT	ENDS
PUBLIC	?lower_bound@?$_Tree@V?$_Tmap_traits@HPAXU?$less@H@std@@V?$allocator@U?$pair@$$CBHPAX@std@@@2@$0A@@std@@@std@@QAE?AV?$_Tree_iterator@V?$_Tree_val@V?$_Tmap_traits@HPAXU?$less@H@std@@V?$allocator@U?$pair@$$CBHPAX@std@@@2@$0A@@std@@@std@@@2@ABH@Z ; std::_Tree<std::_Tmap_traits<int,void *,std::less<int>,std::allocator<std::pair<int const ,void *> >,0> >::lower_bound
; Function compile flags: /Ogtp
;	COMDAT ?lower_bound@?$_Tree@V?$_Tmap_traits@HPAXU?$less@H@std@@V?$allocator@U?$pair@$$CBHPAX@std@@@2@$0A@@std@@@std@@QAE?AV?$_Tree_iterator@V?$_Tree_val@V?$_Tmap_traits@HPAXU?$less@H@std@@V?$allocator@U?$pair@$$CBHPAX@std@@@2@$0A@@std@@@std@@@2@ABH@Z
_TEXT	SEGMENT
___$ReturnUdt$ = 8					; size = 4
__Keyval$ = 12						; size = 4
?lower_bound@?$_Tree@V?$_Tmap_traits@HPAXU?$less@H@std@@V?$allocator@U?$pair@$$CBHPAX@std@@@2@$0A@@std@@@std@@QAE?AV?$_Tree_iterator@V?$_Tree_val@V?$_Tmap_traits@HPAXU?$less@H@std@@V?$allocator@U?$pair@$$CBHPAX@std@@@2@$0A@@std@@@std@@@2@ABH@Z PROC ; std::_Tree<std::_Tmap_traits<int,void *,std::less<int>,std::allocator<std::pair<int const ,void *> >,0> >::lower_bound, COMDAT
; _this$ = ecx

; 1449 : 		{	// find leftmost node not less than _Keyval in mutable tree

  00000	55		 push	 ebp
  00001	8b ec		 mov	 ebp, esp

; 1450 : 		return (iterator(_Lbound(_Keyval), this));

  00003	8b 49 04	 mov	 ecx, DWORD PTR [ecx+4]
  00006	8b 41 04	 mov	 eax, DWORD PTR [ecx+4]
  00009	80 78 15 00	 cmp	 BYTE PTR [eax+21], 0
  0000d	75 19		 jne	 SHORT $LN36@lower_boun
  0000f	8b 55 0c	 mov	 edx, DWORD PTR __Keyval$[ebp]
  00012	8b 12		 mov	 edx, DWORD PTR [edx]
$LL6@lower_boun:
  00014	39 50 0c	 cmp	 DWORD PTR [eax+12], edx
  00017	7d 05		 jge	 SHORT $LN4@lower_boun
  00019	8b 40 08	 mov	 eax, DWORD PTR [eax+8]
  0001c	eb 04		 jmp	 SHORT $LN3@lower_boun
$LN4@lower_boun:
  0001e	8b c8		 mov	 ecx, eax
  00020	8b 00		 mov	 eax, DWORD PTR [eax]
$LN3@lower_boun:
  00022	80 78 15 00	 cmp	 BYTE PTR [eax+21], 0
  00026	74 ec		 je	 SHORT $LL6@lower_boun
$LN36@lower_boun:
  00028	8b 45 08	 mov	 eax, DWORD PTR ___$ReturnUdt$[ebp]
  0002b	89 08		 mov	 DWORD PTR [eax], ecx

; 1451 : 		}

  0002d	5d		 pop	 ebp
  0002e	c2 08 00	 ret	 8
?lower_bound@?$_Tree@V?$_Tmap_traits@HPAXU?$less@H@std@@V?$allocator@U?$pair@$$CBHPAX@std@@@2@$0A@@std@@@std@@QAE?AV?$_Tree_iterator@V?$_Tree_val@V?$_Tmap_traits@HPAXU?$less@H@std@@V?$allocator@U?$pair@$$CBHPAX@std@@@2@$0A@@std@@@std@@@2@ABH@Z ENDP ; std::_Tree<std::_Tmap_traits<int,void *,std::less<int>,std::allocator<std::pair<int const ,void *> >,0> >::lower_bound
_TEXT	ENDS
PUBLIC	?erase@?$_Tree@V?$_Tmap_traits@HPAXU?$less@H@std@@V?$allocator@U?$pair@$$CBHPAX@std@@@2@$0A@@std@@@std@@QAE?AV?$_Tree_iterator@V?$_Tree_val@V?$_Tmap_traits@HPAXU?$less@H@std@@V?$allocator@U?$pair@$$CBHPAX@std@@@2@$0A@@std@@@std@@@2@V?$_Tree_const_iterator@V?$_Tree_val@V?$_Tmap_traits@HPAXU?$less@H@std@@V?$allocator@U?$pair@$$CBHPAX@std@@@2@$0A@@std@@@std@@@2@0@Z ; std::_Tree<std::_Tmap_traits<int,void *,std::less<int>,std::allocator<std::pair<int const ,void *> >,0> >::erase
; Function compile flags: /Ogtp
;	COMDAT ?erase@?$_Tree@V?$_Tmap_traits@HPAXU?$less@H@std@@V?$allocator@U?$pair@$$CBHPAX@std@@@2@$0A@@std@@@std@@QAE?AV?$_Tree_iterator@V?$_Tree_val@V?$_Tmap_traits@HPAXU?$less@H@std@@V?$allocator@U?$pair@$$CBHPAX@std@@@2@$0A@@std@@@std@@@2@V?$_Tree_const_iterator@V?$_Tree_val@V?$_Tmap_traits@HPAXU?$less@H@std@@V?$allocator@U?$pair@$$CBHPAX@std@@@2@$0A@@std@@@std@@@2@0@Z
_TEXT	SEGMENT
$T161624 = -4						; size = 4
___$ReturnUdt$ = 8					; size = 4
__First$ = 12						; size = 4
__Last$ = 16						; size = 4
?erase@?$_Tree@V?$_Tmap_traits@HPAXU?$less@H@std@@V?$allocator@U?$pair@$$CBHPAX@std@@@2@$0A@@std@@@std@@QAE?AV?$_Tree_iterator@V?$_Tree_val@V?$_Tmap_traits@HPAXU?$less@H@std@@V?$allocator@U?$pair@$$CBHPAX@std@@@2@$0A@@std@@@std@@@2@V?$_Tree_const_iterator@V?$_Tree_val@V?$_Tmap_traits@HPAXU?$less@H@std@@V?$allocator@U?$pair@$$CBHPAX@std@@@2@$0A@@std@@@std@@@2@0@Z PROC ; std::_Tree<std::_Tmap_traits<int,void *,std::less<int>,std::allocator<std::pair<int const ,void *> >,0> >::erase, COMDAT
; _this$ = ecx

; 1379 : 		{	// erase [_First, _Last)

  00000	55		 push	 ebp
  00001	8b ec		 mov	 ebp, esp
  00003	51		 push	 ecx

; 1380 : 		if (_First == begin() && _Last == end())

  00004	8b 55 10	 mov	 edx, DWORD PTR __Last$[ebp]
  00007	56		 push	 esi
  00008	8b f1		 mov	 esi, ecx
  0000a	8b 46 04	 mov	 eax, DWORD PTR [esi+4]
  0000d	8b 4d 0c	 mov	 ecx, DWORD PTR __First$[ebp]
  00010	3b 08		 cmp	 ecx, DWORD PTR [eax]
  00012	75 1c		 jne	 SHORT $LN97@erase@2
  00014	3b d0		 cmp	 edx, eax
  00016	75 18		 jne	 SHORT $LN97@erase@2

; 1381 : 			{	// erase all
; 1382 : 			clear();

  00018	8b ce		 mov	 ecx, esi
  0001a	e8 00 00 00 00	 call	 ?clear@?$_Tree@V?$_Tmap_traits@HPAXU?$less@H@std@@V?$allocator@U?$pair@$$CBHPAX@std@@@2@$0A@@std@@@std@@QAEXXZ ; std::_Tree<std::_Tmap_traits<int,void *,std::less<int>,std::allocator<std::pair<int const ,void *> >,0> >::clear

; 1383 : 			return (begin());

  0001f	8b 46 04	 mov	 eax, DWORD PTR [esi+4]
  00022	8b 08		 mov	 ecx, DWORD PTR [eax]

; 1389 : 			return (iterator(_First._Ptr, this));

  00024	8b 45 08	 mov	 eax, DWORD PTR ___$ReturnUdt$[ebp]
  00027	89 08		 mov	 DWORD PTR [eax], ecx
  00029	5e		 pop	 esi

; 1390 : 			}
; 1391 : 		}

  0002a	8b e5		 mov	 esp, ebp
  0002c	5d		 pop	 ebp
  0002d	c2 0c 00	 ret	 12			; 0000000cH
$LN97@erase@2:

; 1384 : 			}
; 1385 : 		else
; 1386 : 			{	// partial erase, one at a time
; 1387 : 			while (_First != _Last)

  00030	3b ca		 cmp	 ecx, edx
  00032	74 5e		 je	 SHORT $LN1@erase@2
$LL2@erase@2:

; 1388 : 				erase(_First++);

  00034	80 79 15 00	 cmp	 BYTE PTR [ecx+21], 0
  00038	8b d1		 mov	 edx, ecx
  0003a	75 42		 jne	 SHORT $LN59@erase@2
  0003c	8b 41 08	 mov	 eax, DWORD PTR [ecx+8]
  0003f	80 78 15 00	 cmp	 BYTE PTR [eax+21], 0
  00043	75 1a		 jne	 SHORT $LN99@erase@2
  00045	8b c8		 mov	 ecx, eax
  00047	8b 01		 mov	 eax, DWORD PTR [ecx]
  00049	80 78 15 00	 cmp	 BYTE PTR [eax+21], 0
  0004d	75 0b		 jne	 SHORT $LN73@erase@2
  0004f	90		 npad	 1
$LL74@erase@2:
  00050	8b c8		 mov	 ecx, eax
  00052	8b 01		 mov	 eax, DWORD PTR [ecx]
  00054	80 78 15 00	 cmp	 BYTE PTR [eax+21], 0
  00058	74 f6		 je	 SHORT $LL74@erase@2
$LN73@erase@2:
  0005a	89 4d 0c	 mov	 DWORD PTR __First$[ebp], ecx
  0005d	eb 1f		 jmp	 SHORT $LN59@erase@2
$LN99@erase@2:
  0005f	8b 41 04	 mov	 eax, DWORD PTR [ecx+4]
  00062	80 78 15 00	 cmp	 BYTE PTR [eax+21], 0
  00066	75 13		 jne	 SHORT $LN57@erase@2
$LL58@erase@2:
  00068	3b 48 08	 cmp	 ecx, DWORD PTR [eax+8]
  0006b	75 0e		 jne	 SHORT $LN57@erase@2
  0006d	8b c8		 mov	 ecx, eax
  0006f	89 4d 0c	 mov	 DWORD PTR __First$[ebp], ecx
  00072	8b 40 04	 mov	 eax, DWORD PTR [eax+4]
  00075	80 78 15 00	 cmp	 BYTE PTR [eax+21], 0
  00079	74 ed		 je	 SHORT $LL58@erase@2
$LN57@erase@2:
  0007b	89 45 0c	 mov	 DWORD PTR __First$[ebp], eax
$LN59@erase@2:
  0007e	52		 push	 edx
  0007f	8d 55 fc	 lea	 edx, DWORD PTR $T161624[ebp]
  00082	52		 push	 edx
  00083	8b ce		 mov	 ecx, esi
  00085	e8 00 00 00 00	 call	 ?erase@?$_Tree@V?$_Tmap_traits@HPAXU?$less@H@std@@V?$allocator@U?$pair@$$CBHPAX@std@@@2@$0A@@std@@@std@@QAE?AV?$_Tree_iterator@V?$_Tree_val@V?$_Tmap_traits@HPAXU?$less@H@std@@V?$allocator@U?$pair@$$CBHPAX@std@@@2@$0A@@std@@@std@@@2@V?$_Tree_const_iterator@V?$_Tree_val@V?$_Tmap_traits@HPAXU?$less@H@std@@V?$allocator@U?$pair@$$CBHPAX@std@@@2@$0A@@std@@@std@@@2@@Z ; std::_Tree<std::_Tmap_traits<int,void *,std::less<int>,std::allocator<std::pair<int const ,void *> >,0> >::erase
  0008a	8b 4d 0c	 mov	 ecx, DWORD PTR __First$[ebp]
  0008d	3b 4d 10	 cmp	 ecx, DWORD PTR __Last$[ebp]
  00090	75 a2		 jne	 SHORT $LL2@erase@2
$LN1@erase@2:

; 1389 : 			return (iterator(_First._Ptr, this));

  00092	8b 45 08	 mov	 eax, DWORD PTR ___$ReturnUdt$[ebp]
  00095	89 08		 mov	 DWORD PTR [eax], ecx
  00097	5e		 pop	 esi

; 1390 : 			}
; 1391 : 		}

  00098	8b e5		 mov	 esp, ebp
  0009a	5d		 pop	 ebp
  0009b	c2 0c 00	 ret	 12			; 0000000cH
?erase@?$_Tree@V?$_Tmap_traits@HPAXU?$less@H@std@@V?$allocator@U?$pair@$$CBHPAX@std@@@2@$0A@@std@@@std@@QAE?AV?$_Tree_iterator@V?$_Tree_val@V?$_Tmap_traits@HPAXU?$less@H@std@@V?$allocator@U?$pair@$$CBHPAX@std@@@2@$0A@@std@@@std@@@2@V?$_Tree_const_iterator@V?$_Tree_val@V?$_Tmap_traits@HPAXU?$less@H@std@@V?$allocator@U?$pair@$$CBHPAX@std@@@2@$0A@@std@@@std@@@2@0@Z ENDP ; std::_Tree<std::_Tmap_traits<int,void *,std::less<int>,std::allocator<std::pair<int const ,void *> >,0> >::erase
_TEXT	ENDS
PUBLIC	??$_Destroy_range@V?$allocator@UEVENT_ID_TIME@@@std@@@std@@YAXPAUEVENT_ID_TIME@@0AAV?$allocator@UEVENT_ID_TIME@@@0@@Z ; std::_Destroy_range<std::allocator<EVENT_ID_TIME> >
; Function compile flags: /Ogtp
; File c:\program files (x86)\microsoft visual studio 10.0\vc\include\xmemory
;	COMDAT ??$_Destroy_range@V?$allocator@UEVENT_ID_TIME@@@std@@@std@@YAXPAUEVENT_ID_TIME@@0AAV?$allocator@UEVENT_ID_TIME@@@0@@Z
_TEXT	SEGMENT
__First$ = 8						; size = 4
__Last$ = 12						; size = 4
__Al$ = 16						; size = 4
??$_Destroy_range@V?$allocator@UEVENT_ID_TIME@@@std@@@std@@YAXPAUEVENT_ID_TIME@@0AAV?$allocator@UEVENT_ID_TIME@@@0@@Z PROC ; std::_Destroy_range<std::allocator<EVENT_ID_TIME> >, COMDAT

; 88   : 	_Destroy_range(_First, _Last, _Al, _Ptr_cat(_First, _Last));
; 89   : 	}

  00000	c3		 ret	 0
??$_Destroy_range@V?$allocator@UEVENT_ID_TIME@@@std@@@std@@YAXPAUEVENT_ID_TIME@@0AAV?$allocator@UEVENT_ID_TIME@@@0@@Z ENDP ; std::_Destroy_range<std::allocator<EVENT_ID_TIME> >
_TEXT	ENDS
PUBLIC	?_Linsert@?$_Tree@V?$_Tmap_traits@HPAXU?$less@H@std@@V?$allocator@U?$pair@$$CBHPAX@std@@@2@$0A@@std@@@std@@QAE?AU?$pair@V?$_Tree_iterator@V?$_Tree_val@V?$_Tmap_traits@HPAXU?$less@H@std@@V?$allocator@U?$pair@$$CBHPAX@std@@@2@$0A@@std@@@std@@@std@@_N@2@PAU_Node@?$_Tree_nod@V?$_Tmap_traits@HPAXU?$less@H@std@@V?$allocator@U?$pair@$$CBHPAX@std@@@2@$0A@@std@@@2@_N@Z ; std::_Tree<std::_Tmap_traits<int,void *,std::less<int>,std::allocator<std::pair<int const ,void *> >,0> >::_Linsert
; Function compile flags: /Ogtp
; File c:\program files (x86)\microsoft visual studio 10.0\vc\include\xtree
;	COMDAT ?_Linsert@?$_Tree@V?$_Tmap_traits@HPAXU?$less@H@std@@V?$allocator@U?$pair@$$CBHPAX@std@@@2@$0A@@std@@@std@@QAE?AU?$pair@V?$_Tree_iterator@V?$_Tree_val@V?$_Tmap_traits@HPAXU?$less@H@std@@V?$allocator@U?$pair@$$CBHPAX@std@@@2@$0A@@std@@@std@@@std@@_N@2@PAU_Node@?$_Tree_nod@V?$_Tmap_traits@HPAXU?$less@H@std@@V?$allocator@U?$pair@$$CBHPAX@std@@@2@$0A@@std@@@2@_N@Z
_TEXT	SEGMENT
__Addleft$ = -4						; size = 1
___$ReturnUdt$ = 8					; size = 4
__Node$ = 12						; size = 4
$T161973 = 16						; size = 4
$T161971 = 16						; size = 4
__Where$157940 = 16					; size = 4
__Leftish$ = 16						; size = 1
?_Linsert@?$_Tree@V?$_Tmap_traits@HPAXU?$less@H@std@@V?$allocator@U?$pair@$$CBHPAX@std@@@2@$0A@@std@@@std@@QAE?AU?$pair@V?$_Tree_iterator@V?$_Tree_val@V?$_Tmap_traits@HPAXU?$less@H@std@@V?$allocator@U?$pair@$$CBHPAX@std@@@2@$0A@@std@@@std@@@std@@_N@2@PAU_Node@?$_Tree_nod@V?$_Tmap_traits@HPAXU?$less@H@std@@V?$allocator@U?$pair@$$CBHPAX@std@@@2@$0A@@std@@@2@_N@Z PROC ; std::_Tree<std::_Tmap_traits<int,void *,std::less<int>,std::allocator<std::pair<int const ,void *> >,0> >::_Linsert, COMDAT
; _this$ = ecx

; 944  : 		{	// try to insert node at _Node, on left if _Leftish

  00000	55		 push	 ebp
  00001	8b ec		 mov	 ebp, esp
  00003	51		 push	 ecx

; 945  : 		const value_type& _Val = this->_Myval(_Node);
; 946  : 
; 947  : 		_Nodeptr _Trynode = _Root();
; 948  : 		_Nodeptr _Wherenode = this->_Myhead;
; 949  : 		bool _Addleft = true;	// add to left of head if tree empty
; 950  : 		while (!this->_Isnil(_Trynode))

  00004	8b 55 0c	 mov	 edx, DWORD PTR __Node$[ebp]
  00007	53		 push	 ebx
  00008	8b d9		 mov	 ebx, ecx
  0000a	8b 4b 04	 mov	 ecx, DWORD PTR [ebx+4]
  0000d	8b 41 04	 mov	 eax, DWORD PTR [ecx+4]
  00010	80 78 15 00	 cmp	 BYTE PTR [eax+21], 0
  00014	56		 push	 esi
  00015	8b f1		 mov	 esi, ecx
  00017	b1 01		 mov	 cl, 1
  00019	57		 push	 edi
  0001a	88 4d fc	 mov	 BYTE PTR __Addleft$[ebp], cl
  0001d	75 2d		 jne	 SHORT $LN11@Linsert
  0001f	8b 7a 0c	 mov	 edi, DWORD PTR [edx+12]
$LL12@Linsert:

; 951  : 			{	// look for leaf to insert before (_Addleft) or after
; 952  : 			_Wherenode = _Trynode;
; 953  : 			if (_Leftish)

  00022	80 7d 10 00	 cmp	 BYTE PTR __Leftish$[ebp], 0
  00026	8b f0		 mov	 esi, eax
  00028	74 08		 je	 SHORT $LN10@Linsert

; 954  : 				_Addleft = !_DEBUG_LT_PRED(this->comp,

  0002a	39 78 0c	 cmp	 DWORD PTR [eax+12], edi
  0002d	0f 9d c1	 setge	 cl

; 955  : 					this->_Key(_Trynode),
; 956  : 					this->_Kfn(_Val));	// favor left end
; 957  : 			else

  00030	eb 06		 jmp	 SHORT $LN146@Linsert
$LN10@Linsert:

; 958  : 				_Addleft = _DEBUG_LT_PRED(this->comp,

  00032	3b 78 0c	 cmp	 edi, DWORD PTR [eax+12]
  00035	0f 9c c1	 setl	 cl
$LN146@Linsert:
  00038	88 4d fc	 mov	 BYTE PTR __Addleft$[ebp], cl

; 959  : 					this->_Kfn(_Val),
; 960  : 					this->_Key(_Trynode));	// favor right end
; 961  : 			_Trynode = _Addleft ? this->_Left(_Trynode)
; 962  : 				: this->_Right(_Trynode);

  0003b	84 c9		 test	 cl, cl
  0003d	74 04		 je	 SHORT $LN15@Linsert
  0003f	8b 00		 mov	 eax, DWORD PTR [eax]
  00041	eb 03		 jmp	 SHORT $LN16@Linsert
$LN15@Linsert:
  00043	8b 40 08	 mov	 eax, DWORD PTR [eax+8]
$LN16@Linsert:

; 945  : 		const value_type& _Val = this->_Myval(_Node);
; 946  : 
; 947  : 		_Nodeptr _Trynode = _Root();
; 948  : 		_Nodeptr _Wherenode = this->_Myhead;
; 949  : 		bool _Addleft = true;	// add to left of head if tree empty
; 950  : 		while (!this->_Isnil(_Trynode))

  00046	80 78 15 00	 cmp	 BYTE PTR [eax+21], 0
  0004a	74 d6		 je	 SHORT $LL12@Linsert
$LN11@Linsert:

; 963  : 			}
; 964  : 
; 965  : 		if (this->_Multi)
; 966  : 			return (_Pairib(_Insert(_Addleft, _Wherenode, _Node), true));
; 967  : 		else
; 968  : 			{	// insert only if unique
; 969  : 			iterator _Where = iterator(_Wherenode, this);

  0004c	8b fe		 mov	 edi, esi
  0004e	89 7d 10	 mov	 DWORD PTR __Where$157940[ebp], edi

; 970  : 			if (!_Addleft)

  00051	84 c9		 test	 cl, cl
  00053	74 35		 je	 SHORT $LN99@Linsert

; 971  : 				;	// need to test if insert after is okay
; 972  : 			else if (_Where == begin())

  00055	8b 43 04	 mov	 eax, DWORD PTR [ebx+4]

; 973  : 				return (_Pairib(_Insert(true, _Wherenode, _Node), true));

  00058	8d 4d 10	 lea	 ecx, DWORD PTR $T161971[ebp]
  0005b	3b 30		 cmp	 esi, DWORD PTR [eax]
  0005d	75 20		 jne	 SHORT $LN4@Linsert
  0005f	52		 push	 edx
  00060	56		 push	 esi
  00061	6a 01		 push	 1
  00063	51		 push	 ecx
  00064	8b cb		 mov	 ecx, ebx
  00066	e8 00 00 00 00	 call	 ?_Insert@?$_Tree@V?$_Tmap_traits@HPAXU?$less@H@std@@V?$allocator@U?$pair@$$CBHPAX@std@@@2@$0A@@std@@@std@@IAE?AV?$_Tree_iterator@V?$_Tree_val@V?$_Tmap_traits@HPAXU?$less@H@std@@V?$allocator@U?$pair@$$CBHPAX@std@@@2@$0A@@std@@@std@@@2@_NPAU_Node@?$_Tree_nod@V?$_Tmap_traits@HPAXU?$less@H@std@@V?$allocator@U?$pair@$$CBHPAX@std@@@2@$0A@@std@@@2@1@Z ; std::_Tree<std::_Tmap_traits<int,void *,std::less<int>,std::allocator<std::pair<int const ,void *> >,0> >::_Insert
  0006b	8b 10		 mov	 edx, DWORD PTR [eax]
  0006d	8b 45 08	 mov	 eax, DWORD PTR ___$ReturnUdt$[ebp]
  00070	5f		 pop	 edi
  00071	5e		 pop	 esi
  00072	89 10		 mov	 DWORD PTR [eax], edx
  00074	c6 40 04 01	 mov	 BYTE PTR [eax+4], 1
  00078	5b		 pop	 ebx

; 989  : 				}
; 990  : 			}
; 991  : 		}

  00079	8b e5		 mov	 esp, ebp
  0007b	5d		 pop	 ebp
  0007c	c2 0c 00	 ret	 12			; 0000000cH
$LN4@Linsert:

; 974  : 			else
; 975  : 				--_Where;	// need to test if insert before is okay

  0007f	e8 00 00 00 00	 call	 ??F?$_Tree_unchecked_const_iterator@V?$_Tree_val@V?$_Tmap_traits@HPAXU?$less@H@std@@V?$allocator@U?$pair@$$CBHPAX@std@@@2@$0A@@std@@@std@@U_Iterator_base0@2@@std@@QAEAAV01@XZ ; std::_Tree_unchecked_const_iterator<std::_Tree_val<std::_Tmap_traits<int,void *,std::less<int>,std::allocator<std::pair<int const ,void *> >,0> >,std::_Iterator_base0>::operator--
  00084	8b 7d 10	 mov	 edi, DWORD PTR __Where$157940[ebp]
  00087	8b 55 0c	 mov	 edx, DWORD PTR __Node$[ebp]
$LN99@Linsert:

; 976  : 
; 977  : 			if (_DEBUG_LT_PRED(this->comp,

  0008a	8b 47 0c	 mov	 eax, DWORD PTR [edi+12]

; 978  : 				this->_Key(_Where._Mynode()),
; 979  : 				this->_Kfn(_Val)))
; 980  : 				return (_Pairib(_Insert(_Addleft, _Wherenode, _Node), true));

  0008d	52		 push	 edx
  0008e	3b 42 0c	 cmp	 eax, DWORD PTR [edx+12]
  00091	7d 24		 jge	 SHORT $LN2@Linsert
  00093	8b 4d fc	 mov	 ecx, DWORD PTR __Addleft$[ebp]
  00096	56		 push	 esi
  00097	51		 push	 ecx
  00098	8d 55 10	 lea	 edx, DWORD PTR $T161973[ebp]
  0009b	52		 push	 edx
  0009c	8b cb		 mov	 ecx, ebx
  0009e	e8 00 00 00 00	 call	 ?_Insert@?$_Tree@V?$_Tmap_traits@HPAXU?$less@H@std@@V?$allocator@U?$pair@$$CBHPAX@std@@@2@$0A@@std@@@std@@IAE?AV?$_Tree_iterator@V?$_Tree_val@V?$_Tmap_traits@HPAXU?$less@H@std@@V?$allocator@U?$pair@$$CBHPAX@std@@@2@$0A@@std@@@std@@@2@_NPAU_Node@?$_Tree_nod@V?$_Tmap_traits@HPAXU?$less@H@std@@V?$allocator@U?$pair@$$CBHPAX@std@@@2@$0A@@std@@@2@1@Z ; std::_Tree<std::_Tmap_traits<int,void *,std::less<int>,std::allocator<std::pair<int const ,void *> >,0> >::_Insert
  000a3	8b 08		 mov	 ecx, DWORD PTR [eax]
  000a5	8b 45 08	 mov	 eax, DWORD PTR ___$ReturnUdt$[ebp]
  000a8	5f		 pop	 edi
  000a9	5e		 pop	 esi
  000aa	89 08		 mov	 DWORD PTR [eax], ecx
  000ac	c6 40 04 01	 mov	 BYTE PTR [eax+4], 1
  000b0	5b		 pop	 ebx

; 989  : 				}
; 990  : 			}
; 991  : 		}

  000b1	8b e5		 mov	 esp, ebp
  000b3	5d		 pop	 ebp
  000b4	c2 0c 00	 ret	 12			; 0000000cH
$LN2@Linsert:

; 981  : 			else
; 982  : 				{	// duplicate, don't insert
; 983  : 				_Dest_val(this->_Alval,
; 984  : 					_STD addressof(this->_Myval(_Node)));
; 985  : 
; 986  : 				this->_Alnod.deallocate(_Node, 1);

  000b7	e8 00 00 00 00	 call	 ??3@YAXPAX@Z		; operator delete

; 987  : 
; 988  : 				return (_Pairib(_Where, false));

  000bc	8b 45 08	 mov	 eax, DWORD PTR ___$ReturnUdt$[ebp]
  000bf	83 c4 04	 add	 esp, 4
  000c2	89 38		 mov	 DWORD PTR [eax], edi
  000c4	5f		 pop	 edi
  000c5	5e		 pop	 esi
  000c6	c6 40 04 00	 mov	 BYTE PTR [eax+4], 0
  000ca	5b		 pop	 ebx

; 989  : 				}
; 990  : 			}
; 991  : 		}

  000cb	8b e5		 mov	 esp, ebp
  000cd	5d		 pop	 ebp
  000ce	c2 0c 00	 ret	 12			; 0000000cH
?_Linsert@?$_Tree@V?$_Tmap_traits@HPAXU?$less@H@std@@V?$allocator@U?$pair@$$CBHPAX@std@@@2@$0A@@std@@@std@@QAE?AU?$pair@V?$_Tree_iterator@V?$_Tree_val@V?$_Tmap_traits@HPAXU?$less@H@std@@V?$allocator@U?$pair@$$CBHPAX@std@@@2@$0A@@std@@@std@@@std@@_N@2@PAU_Node@?$_Tree_nod@V?$_Tmap_traits@HPAXU?$less@H@std@@V?$allocator@U?$pair@$$CBHPAX@std@@@2@$0A@@std@@@2@_N@Z ENDP ; std::_Tree<std::_Tmap_traits<int,void *,std::less<int>,std::allocator<std::pair<int const ,void *> >,0> >::_Linsert
_TEXT	ENDS
PUBLIC	??$_Buynode@U?$pair@HPAX@std@@@?$_Tree_val@V?$_Tmap_traits@HPAXU?$less@H@std@@V?$allocator@U?$pair@$$CBHPAX@std@@@2@$0A@@std@@@std@@QAEPAU_Node@?$_Tree_nod@V?$_Tmap_traits@HPAXU?$less@H@std@@V?$allocator@U?$pair@$$CBHPAX@std@@@2@$0A@@std@@@1@$$QAU?$pair@HPAX@1@@Z ; std::_Tree_val<std::_Tmap_traits<int,void *,std::less<int>,std::allocator<std::pair<int const ,void *> >,0> >::_Buynode<std::pair<int,void *> >
; Function compile flags: /Ogtp
;	COMDAT ??$_Buynode@U?$pair@HPAX@std@@@?$_Tree_val@V?$_Tmap_traits@HPAXU?$less@H@std@@V?$allocator@U?$pair@$$CBHPAX@std@@@2@$0A@@std@@@std@@QAEPAU_Node@?$_Tree_nod@V?$_Tmap_traits@HPAXU?$less@H@std@@V?$allocator@U?$pair@$$CBHPAX@std@@@2@$0A@@std@@@1@$$QAU?$pair@HPAX@1@@Z
_TEXT	SEGMENT
$T162349 = -12						; size = 12
$T162296 = 8						; size = 4
__Val$ = 8						; size = 4
??$_Buynode@U?$pair@HPAX@std@@@?$_Tree_val@V?$_Tmap_traits@HPAXU?$less@H@std@@V?$allocator@U?$pair@$$CBHPAX@std@@@2@$0A@@std@@@std@@QAEPAU_Node@?$_Tree_nod@V?$_Tmap_traits@HPAXU?$less@H@std@@V?$allocator@U?$pair@$$CBHPAX@std@@@2@$0A@@std@@@1@$$QAU?$pair@HPAX@1@@Z PROC ; std::_Tree_val<std::_Tmap_traits<int,void *,std::less<int>,std::allocator<std::pair<int const ,void *> >,0> >::_Buynode<std::pair<int,void *> >, COMDAT
; _this$ = ecx

; 586  : 		_Nodeptr _Buynode(_Valty&& _Val)

  00000	55		 push	 ebp
  00001	8b ec		 mov	 ebp, esp
  00003	83 ec 0c	 sub	 esp, 12			; 0000000cH
  00006	56		 push	 esi
  00007	57		 push	 edi

; 587  : 		{	// allocate a node with defaults
; 588  : 		_Nodeptr _Wherenode = _Buynode();

  00008	6a 18		 push	 24			; 00000018H
  0000a	8b f9		 mov	 edi, ecx
  0000c	e8 00 00 00 00	 call	 ??2@YAPAXI@Z		; operator new
  00011	8b f0		 mov	 esi, eax
  00013	33 c0		 xor	 eax, eax
  00015	83 c4 04	 add	 esp, 4
  00018	3b f0		 cmp	 esi, eax
  0001a	74 33		 je	 SHORT $LN12@Buynode@2
  0001c	8b 4f 04	 mov	 ecx, DWORD PTR [edi+4]
  0001f	89 0e		 mov	 DWORD PTR [esi], ecx
  00021	8b 57 04	 mov	 edx, DWORD PTR [edi+4]
  00024	89 56 04	 mov	 DWORD PTR [esi+4], edx
  00027	8b 4f 04	 mov	 ecx, DWORD PTR [edi+4]

; 589  : 
; 590  : 		_TRY_BEGIN
; 591  : 		_Cons_val(this->_Alval, _STD addressof(this->_Myval(_Wherenode)),
; 592  : 			_STD forward<_Valty>(_Val));

  0002a	8b 55 08	 mov	 edx, DWORD PTR __Val$[ebp]
  0002d	66 89 46 14	 mov	 WORD PTR [esi+20], ax
  00031	52		 push	 edx
  00032	8d 46 0c	 lea	 eax, DWORD PTR [esi+12]
  00035	50		 push	 eax
  00036	83 c7 0d	 add	 edi, 13			; 0000000dH
  00039	57		 push	 edi
  0003a	89 4e 08	 mov	 DWORD PTR [esi+8], ecx
  0003d	e8 00 00 00 00	 call	 ??$_Cons_val@V?$allocator@U?$pair@$$CBHPAX@std@@@std@@U?$pair@$$CBHPAX@2@U?$pair@HPAX@2@@std@@YAXAAV?$allocator@U?$pair@$$CBHPAX@std@@@0@PAU?$pair@$$CBHPAX@0@$$QAU?$pair@HPAX@0@@Z ; std::_Cons_val<std::allocator<std::pair<int const ,void *> >,std::pair<int const ,void *>,std::pair<int,void *> >
  00042	83 c4 0c	 add	 esp, 12			; 0000000cH
  00045	5f		 pop	 edi

; 593  : 		_CATCH_ALL
; 594  : 		this->_Alnod.deallocate(_Wherenode, 1);
; 595  : 		_RERAISE;
; 596  : 		_CATCH_END
; 597  : 
; 598  : 		return (_Wherenode);

  00046	8b c6		 mov	 eax, esi
  00048	5e		 pop	 esi

; 599  : 		}

  00049	8b e5		 mov	 esp, ebp
  0004b	5d		 pop	 ebp
  0004c	c2 04 00	 ret	 4

; 587  : 		{	// allocate a node with defaults
; 588  : 		_Nodeptr _Wherenode = _Buynode();

$LN12@Buynode@2:
  0004f	8d 4d 08	 lea	 ecx, DWORD PTR $T162296[ebp]
  00052	51		 push	 ecx
  00053	8d 4d f4	 lea	 ecx, DWORD PTR $T162349[ebp]
  00056	89 45 08	 mov	 DWORD PTR $T162296[ebp], eax
  00059	e8 00 00 00 00	 call	 ??0exception@std@@QAE@ABQBD@Z ; std::exception::exception
  0005e	68 00 00 00 00	 push	 OFFSET __TI2?AVbad_alloc@std@@
  00063	8d 55 f4	 lea	 edx, DWORD PTR $T162349[ebp]
  00066	52		 push	 edx
  00067	c7 45 f4 00 00
	00 00		 mov	 DWORD PTR $T162349[ebp], OFFSET ??_7bad_alloc@std@@6B@
  0006e	e8 00 00 00 00	 call	 __CxxThrowException@8
$LN44@Buynode@2:
$LN43@Buynode@2:
  00073	cc		 int	 3
??$_Buynode@U?$pair@HPAX@std@@@?$_Tree_val@V?$_Tmap_traits@HPAXU?$less@H@std@@V?$allocator@U?$pair@$$CBHPAX@std@@@2@$0A@@std@@@std@@QAEPAU_Node@?$_Tree_nod@V?$_Tmap_traits@HPAXU?$less@H@std@@V?$allocator@U?$pair@$$CBHPAX@std@@@2@$0A@@std@@@1@$$QAU?$pair@HPAX@1@@Z ENDP ; std::_Tree_val<std::_Tmap_traits<int,void *,std::less<int>,std::allocator<std::pair<int const ,void *> >,0> >::_Buynode<std::pair<int,void *> >
_TEXT	ENDS
PUBLIC	??$_Uninitialized_move@PAUEVENT_ID_TIME@@PAU1@V?$allocator@UEVENT_ID_TIME@@@std@@@std@@YAPAUEVENT_ID_TIME@@PAU1@00AAV?$allocator@UEVENT_ID_TIME@@@0@@Z ; std::_Uninitialized_move<EVENT_ID_TIME *,EVENT_ID_TIME *,std::allocator<EVENT_ID_TIME> >
; Function compile flags: /Ogtp
; File c:\program files (x86)\microsoft visual studio 10.0\vc\include\memory
;	COMDAT ??$_Uninitialized_move@PAUEVENT_ID_TIME@@PAU1@V?$allocator@UEVENT_ID_TIME@@@std@@@std@@YAPAUEVENT_ID_TIME@@PAU1@00AAV?$allocator@UEVENT_ID_TIME@@@0@@Z
_TEXT	SEGMENT
__Cat$162387 = -4					; size = 1
__First$ = 8						; size = 4
__Last$ = 12						; size = 4
__Dest$ = 16						; size = 4
__Al$ = 20						; size = 4
??$_Uninitialized_move@PAUEVENT_ID_TIME@@PAU1@V?$allocator@UEVENT_ID_TIME@@@std@@@std@@YAPAUEVENT_ID_TIME@@PAU1@00AAV?$allocator@UEVENT_ID_TIME@@@0@@Z PROC ; std::_Uninitialized_move<EVENT_ID_TIME *,EVENT_ID_TIME *,std::allocator<EVENT_ID_TIME> >, COMDAT

; 469  : 	{	// move [_First, _Last) to raw _Dest, using _Al

  00000	55		 push	 ebp
  00001	8b ec		 mov	 ebp, esp
  00003	51		 push	 ecx

; 470  : 	return (_Uninit_move(_First, _Last, _Dest, _Al,
; 471  : 		_Val_type(_First), _Ptr_cat(_First, _Dest)));

  00004	8b 45 fc	 mov	 eax, DWORD PTR __Cat$162387[ebp]
  00007	8b 4d 14	 mov	 ecx, DWORD PTR __Al$[ebp]
  0000a	8b 55 10	 mov	 edx, DWORD PTR __Dest$[ebp]
  0000d	50		 push	 eax
  0000e	8b 45 0c	 mov	 eax, DWORD PTR __Last$[ebp]
  00011	6a 00		 push	 0
  00013	51		 push	 ecx
  00014	8b 4d 08	 mov	 ecx, DWORD PTR __First$[ebp]
  00017	52		 push	 edx
  00018	50		 push	 eax
  00019	51		 push	 ecx
  0001a	e8 00 00 00 00	 call	 ??$_Uninit_move@PAUEVENT_ID_TIME@@PAU1@V?$allocator@UEVENT_ID_TIME@@@std@@U1@@std@@YAPAUEVENT_ID_TIME@@PAU1@00AAV?$allocator@UEVENT_ID_TIME@@@0@0U_Nonscalar_ptr_iterator_tag@0@@Z ; std::_Uninit_move<EVENT_ID_TIME *,EVENT_ID_TIME *,std::allocator<EVENT_ID_TIME>,EVENT_ID_TIME>
  0001f	83 c4 18	 add	 esp, 24			; 00000018H

; 472  : 	}

  00022	8b e5		 mov	 esp, ebp
  00024	5d		 pop	 ebp
  00025	c3		 ret	 0
??$_Uninitialized_move@PAUEVENT_ID_TIME@@PAU1@V?$allocator@UEVENT_ID_TIME@@@std@@@std@@YAPAUEVENT_ID_TIME@@PAU1@00AAV?$allocator@UEVENT_ID_TIME@@@0@@Z ENDP ; std::_Uninitialized_move<EVENT_ID_TIME *,EVENT_ID_TIME *,std::allocator<EVENT_ID_TIME> >
_TEXT	ENDS
PUBLIC	?find@?$_Tree@V?$_Tmap_traits@HPAXU?$less@H@std@@V?$allocator@U?$pair@$$CBHPAX@std@@@2@$0A@@std@@@std@@QAE?AV?$_Tree_iterator@V?$_Tree_val@V?$_Tmap_traits@HPAXU?$less@H@std@@V?$allocator@U?$pair@$$CBHPAX@std@@@2@$0A@@std@@@std@@@2@ABH@Z ; std::_Tree<std::_Tmap_traits<int,void *,std::less<int>,std::allocator<std::pair<int const ,void *> >,0> >::find
; Function compile flags: /Ogtp
; File c:\program files (x86)\microsoft visual studio 10.0\vc\include\xtree
;	COMDAT ?find@?$_Tree@V?$_Tmap_traits@HPAXU?$less@H@std@@V?$allocator@U?$pair@$$CBHPAX@std@@@2@$0A@@std@@@std@@QAE?AV?$_Tree_iterator@V?$_Tree_val@V?$_Tmap_traits@HPAXU?$less@H@std@@V?$allocator@U?$pair@$$CBHPAX@std@@@2@$0A@@std@@@std@@@2@ABH@Z
_TEXT	SEGMENT
$T162397 = -4						; size = 4
___$ReturnUdt$ = 8					; size = 4
__Where$ = 12						; size = 4
__Keyval$ = 12						; size = 4
?find@?$_Tree@V?$_Tmap_traits@HPAXU?$less@H@std@@V?$allocator@U?$pair@$$CBHPAX@std@@@2@$0A@@std@@@std@@QAE?AV?$_Tree_iterator@V?$_Tree_val@V?$_Tmap_traits@HPAXU?$less@H@std@@V?$allocator@U?$pair@$$CBHPAX@std@@@2@$0A@@std@@@std@@@2@ABH@Z PROC ; std::_Tree<std::_Tmap_traits<int,void *,std::less<int>,std::allocator<std::pair<int const ,void *> >,0> >::find, COMDAT
; _this$ = ecx

; 1423 : 		{	// find an element in mutable sequence that matches _Keyval

  00000	55		 push	 ebp
  00001	8b ec		 mov	 ebp, esp
  00003	51		 push	 ecx

; 1424 : 		iterator _Where = lower_bound(_Keyval);

  00004	8b 51 04	 mov	 edx, DWORD PTR [ecx+4]
  00007	8b 42 04	 mov	 eax, DWORD PTR [edx+4]
  0000a	80 78 15 00	 cmp	 BYTE PTR [eax+21], 0
  0000e	57		 push	 edi
  0000f	8b 7d 0c	 mov	 edi, DWORD PTR __Keyval$[ebp]
  00012	75 18		 jne	 SHORT $LN9@find
  00014	56		 push	 esi
  00015	8b 37		 mov	 esi, DWORD PTR [edi]
$LL10@find:
  00017	39 70 0c	 cmp	 DWORD PTR [eax+12], esi
  0001a	7d 05		 jge	 SHORT $LN8@find
  0001c	8b 40 08	 mov	 eax, DWORD PTR [eax+8]
  0001f	eb 04		 jmp	 SHORT $LN7@find
$LN8@find:
  00021	8b d0		 mov	 edx, eax
  00023	8b 00		 mov	 eax, DWORD PTR [eax]
$LN7@find:
  00025	80 78 15 00	 cmp	 BYTE PTR [eax+21], 0
  00029	74 ec		 je	 SHORT $LL10@find
  0002b	5e		 pop	 esi
$LN9@find:

; 1425 : 		return (_Where == end()
; 1426 : 			|| _DEBUG_LT_PRED(this->comp,
; 1427 : 				_Keyval, this->_Key(_Where._Mynode()))
; 1428 : 					? end() : _Where);

  0002c	8b 41 04	 mov	 eax, DWORD PTR [ecx+4]
  0002f	89 55 0c	 mov	 DWORD PTR __Where$[ebp], edx
  00032	3b d0		 cmp	 edx, eax
  00034	74 18		 je	 SHORT $LN3@find
  00036	8b 0f		 mov	 ecx, DWORD PTR [edi]
  00038	3b 4a 0c	 cmp	 ecx, DWORD PTR [edx+12]
  0003b	7c 11		 jl	 SHORT $LN3@find
  0003d	8d 45 0c	 lea	 eax, DWORD PTR __Where$[ebp]
  00040	8b 10		 mov	 edx, DWORD PTR [eax]
  00042	8b 45 08	 mov	 eax, DWORD PTR ___$ReturnUdt$[ebp]
  00045	89 10		 mov	 DWORD PTR [eax], edx
  00047	5f		 pop	 edi

; 1429 : 		}

  00048	8b e5		 mov	 esp, ebp
  0004a	5d		 pop	 ebp
  0004b	c2 08 00	 ret	 8
$LN3@find:

; 1425 : 		return (_Where == end()
; 1426 : 			|| _DEBUG_LT_PRED(this->comp,
; 1427 : 				_Keyval, this->_Key(_Where._Mynode()))
; 1428 : 					? end() : _Where);

  0004e	89 45 fc	 mov	 DWORD PTR $T162397[ebp], eax
  00051	8d 45 fc	 lea	 eax, DWORD PTR $T162397[ebp]
  00054	8b 10		 mov	 edx, DWORD PTR [eax]
  00056	8b 45 08	 mov	 eax, DWORD PTR ___$ReturnUdt$[ebp]
  00059	89 10		 mov	 DWORD PTR [eax], edx
  0005b	5f		 pop	 edi

; 1429 : 		}

  0005c	8b e5		 mov	 esp, ebp
  0005e	5d		 pop	 ebp
  0005f	c2 08 00	 ret	 8
?find@?$_Tree@V?$_Tmap_traits@HPAXU?$less@H@std@@V?$allocator@U?$pair@$$CBHPAX@std@@@2@$0A@@std@@@std@@QAE?AV?$_Tree_iterator@V?$_Tree_val@V?$_Tmap_traits@HPAXU?$less@H@std@@V?$allocator@U?$pair@$$CBHPAX@std@@@2@$0A@@std@@@std@@@2@ABH@Z ENDP ; std::_Tree<std::_Tmap_traits<int,void *,std::less<int>,std::allocator<std::pair<int const ,void *> >,0> >::find
_TEXT	ENDS
PUBLIC	?_Tidy@?$_Tree@V?$_Tmap_traits@HPAXU?$less@H@std@@V?$allocator@U?$pair@$$CBHPAX@std@@@2@$0A@@std@@@std@@IAEXXZ ; std::_Tree<std::_Tmap_traits<int,void *,std::less<int>,std::allocator<std::pair<int const ,void *> >,0> >::_Tidy
; Function compile flags: /Ogtp
;	COMDAT ?_Tidy@?$_Tree@V?$_Tmap_traits@HPAXU?$less@H@std@@V?$allocator@U?$pair@$$CBHPAX@std@@@2@$0A@@std@@@std@@IAEXXZ
_TEXT	SEGMENT
$T162621 = -4						; size = 4
?_Tidy@?$_Tree@V?$_Tmap_traits@HPAXU?$less@H@std@@V?$allocator@U?$pair@$$CBHPAX@std@@@2@$0A@@std@@@std@@IAEXXZ PROC ; std::_Tree<std::_Tmap_traits<int,void *,std::less<int>,std::allocator<std::pair<int const ,void *> >,0> >::_Tidy, COMDAT
; _this$ = ecx

; 1865 : 		{	// free all storage

  00000	55		 push	 ebp
  00001	8b ec		 mov	 ebp, esp
  00003	51		 push	 ecx

; 1866 : 		erase(begin(), end());

  00004	8b 41 04	 mov	 eax, DWORD PTR [ecx+4]
  00007	8b 10		 mov	 edx, DWORD PTR [eax]
  00009	50		 push	 eax
  0000a	52		 push	 edx
  0000b	8d 45 fc	 lea	 eax, DWORD PTR $T162621[ebp]
  0000e	50		 push	 eax
  0000f	e8 00 00 00 00	 call	 ?erase@?$_Tree@V?$_Tmap_traits@HPAXU?$less@H@std@@V?$allocator@U?$pair@$$CBHPAX@std@@@2@$0A@@std@@@std@@QAE?AV?$_Tree_iterator@V?$_Tree_val@V?$_Tmap_traits@HPAXU?$less@H@std@@V?$allocator@U?$pair@$$CBHPAX@std@@@2@$0A@@std@@@std@@@2@V?$_Tree_const_iterator@V?$_Tree_val@V?$_Tmap_traits@HPAXU?$less@H@std@@V?$allocator@U?$pair@$$CBHPAX@std@@@2@$0A@@std@@@std@@@2@0@Z ; std::_Tree<std::_Tmap_traits<int,void *,std::less<int>,std::allocator<std::pair<int const ,void *> >,0> >::erase

; 1867 : 		}

  00014	8b e5		 mov	 esp, ebp
  00016	5d		 pop	 ebp
  00017	c3		 ret	 0
?_Tidy@?$_Tree@V?$_Tmap_traits@HPAXU?$less@H@std@@V?$allocator@U?$pair@$$CBHPAX@std@@@2@$0A@@std@@@std@@IAEXXZ ENDP ; std::_Tree<std::_Tmap_traits<int,void *,std::less<int>,std::allocator<std::pair<int const ,void *> >,0> >::_Tidy
_TEXT	ENDS
PUBLIC	?_Destroy@?$vector@UEVENT_ID_TIME@@V?$allocator@UEVENT_ID_TIME@@@std@@@std@@IAEXPAUEVENT_ID_TIME@@0@Z ; std::vector<EVENT_ID_TIME,std::allocator<EVENT_ID_TIME> >::_Destroy
; Function compile flags: /Ogtp
; File c:\program files (x86)\microsoft visual studio 10.0\vc\include\vector
;	COMDAT ?_Destroy@?$vector@UEVENT_ID_TIME@@V?$allocator@UEVENT_ID_TIME@@@std@@@std@@IAEXPAUEVENT_ID_TIME@@0@Z
_TEXT	SEGMENT
__First$ = 8						; size = 4
__Last$ = 12						; size = 4
?_Destroy@?$vector@UEVENT_ID_TIME@@V?$allocator@UEVENT_ID_TIME@@@std@@@std@@IAEXPAUEVENT_ID_TIME@@0@Z PROC ; std::vector<EVENT_ID_TIME,std::allocator<EVENT_ID_TIME> >::_Destroy, COMDAT
; _this$ = ecx

; 1270 : 		_Destroy_range(_First, _Last, this->_Alval);
; 1271 : 		}

  00000	c2 08 00	 ret	 8
?_Destroy@?$vector@UEVENT_ID_TIME@@V?$allocator@UEVENT_ID_TIME@@@std@@@std@@IAEXPAUEVENT_ID_TIME@@0@Z ENDP ; std::vector<EVENT_ID_TIME,std::allocator<EVENT_ID_TIME> >::_Destroy
_TEXT	ENDS
PUBLIC	??$insert@U?$pair@HPAX@std@@@?$_Tree@V?$_Tmap_traits@HPAXU?$less@H@std@@V?$allocator@U?$pair@$$CBHPAX@std@@@2@$0A@@std@@@std@@QAE?AU?$pair@V?$_Tree_iterator@V?$_Tree_val@V?$_Tmap_traits@HPAXU?$less@H@std@@V?$allocator@U?$pair@$$CBHPAX@std@@@2@$0A@@std@@@std@@@std@@_N@1@$$QAU?$pair@HPAX@1@@Z ; std::_Tree<std::_Tmap_traits<int,void *,std::less<int>,std::allocator<std::pair<int const ,void *> >,0> >::insert<std::pair<int,void *> >
; Function compile flags: /Ogtp
; File c:\program files (x86)\microsoft visual studio 10.0\vc\include\xtree
;	COMDAT ??$insert@U?$pair@HPAX@std@@@?$_Tree@V?$_Tmap_traits@HPAXU?$less@H@std@@V?$allocator@U?$pair@$$CBHPAX@std@@@2@$0A@@std@@@std@@QAE?AU?$pair@V?$_Tree_iterator@V?$_Tree_val@V?$_Tmap_traits@HPAXU?$less@H@std@@V?$allocator@U?$pair@$$CBHPAX@std@@@2@$0A@@std@@@std@@@std@@_N@1@$$QAU?$pair@HPAX@1@@Z
_TEXT	SEGMENT
___$ReturnUdt$ = 8					; size = 4
__Val$ = 12						; size = 4
??$insert@U?$pair@HPAX@std@@@?$_Tree@V?$_Tmap_traits@HPAXU?$less@H@std@@V?$allocator@U?$pair@$$CBHPAX@std@@@2@$0A@@std@@@std@@QAE?AU?$pair@V?$_Tree_iterator@V?$_Tree_val@V?$_Tmap_traits@HPAXU?$less@H@std@@V?$allocator@U?$pair@$$CBHPAX@std@@@2@$0A@@std@@@std@@@std@@_N@1@$$QAU?$pair@HPAX@1@@Z PROC ; std::_Tree<std::_Tmap_traits<int,void *,std::less<int>,std::allocator<std::pair<int const ,void *> >,0> >::insert<std::pair<int,void *> >, COMDAT
; _this$ = ecx

; 753  : 		_Pairib insert(_Valty&& _Val)

  00000	55		 push	 ebp
  00001	8b ec		 mov	 ebp, esp

; 754  : 		{	// try to insert node with value _Val, favoring right side
; 755  : 		return (_Linsert(this->_Buynode(_STD forward<_Valty>(_Val)),
; 756  : 			false));

  00003	8b 45 0c	 mov	 eax, DWORD PTR __Val$[ebp]
  00006	56		 push	 esi
  00007	57		 push	 edi
  00008	6a 00		 push	 0
  0000a	50		 push	 eax
  0000b	8b f1		 mov	 esi, ecx
  0000d	e8 00 00 00 00	 call	 ??$_Buynode@U?$pair@HPAX@std@@@?$_Tree_val@V?$_Tmap_traits@HPAXU?$less@H@std@@V?$allocator@U?$pair@$$CBHPAX@std@@@2@$0A@@std@@@std@@QAEPAU_Node@?$_Tree_nod@V?$_Tmap_traits@HPAXU?$less@H@std@@V?$allocator@U?$pair@$$CBHPAX@std@@@2@$0A@@std@@@1@$$QAU?$pair@HPAX@1@@Z ; std::_Tree_val<std::_Tmap_traits<int,void *,std::less<int>,std::allocator<std::pair<int const ,void *> >,0> >::_Buynode<std::pair<int,void *> >
  00012	8b 7d 08	 mov	 edi, DWORD PTR ___$ReturnUdt$[ebp]
  00015	50		 push	 eax
  00016	57		 push	 edi
  00017	8b ce		 mov	 ecx, esi
  00019	e8 00 00 00 00	 call	 ?_Linsert@?$_Tree@V?$_Tmap_traits@HPAXU?$less@H@std@@V?$allocator@U?$pair@$$CBHPAX@std@@@2@$0A@@std@@@std@@QAE?AU?$pair@V?$_Tree_iterator@V?$_Tree_val@V?$_Tmap_traits@HPAXU?$less@H@std@@V?$allocator@U?$pair@$$CBHPAX@std@@@2@$0A@@std@@@std@@@std@@_N@2@PAU_Node@?$_Tree_nod@V?$_Tmap_traits@HPAXU?$less@H@std@@V?$allocator@U?$pair@$$CBHPAX@std@@@2@$0A@@std@@@2@_N@Z ; std::_Tree<std::_Tmap_traits<int,void *,std::less<int>,std::allocator<std::pair<int const ,void *> >,0> >::_Linsert
  0001e	8b c7		 mov	 eax, edi
  00020	5f		 pop	 edi
  00021	5e		 pop	 esi

; 757  : 		}

  00022	5d		 pop	 ebp
  00023	c2 08 00	 ret	 8
??$insert@U?$pair@HPAX@std@@@?$_Tree@V?$_Tmap_traits@HPAXU?$less@H@std@@V?$allocator@U?$pair@$$CBHPAX@std@@@2@$0A@@std@@@std@@QAE?AU?$pair@V?$_Tree_iterator@V?$_Tree_val@V?$_Tmap_traits@HPAXU?$less@H@std@@V?$allocator@U?$pair@$$CBHPAX@std@@@2@$0A@@std@@@std@@@std@@_N@1@$$QAU?$pair@HPAX@1@@Z ENDP ; std::_Tree<std::_Tmap_traits<int,void *,std::less<int>,std::allocator<std::pair<int const ,void *> >,0> >::insert<std::pair<int,void *> >
_TEXT	ENDS
PUBLIC	??$_Umove@PAUEVENT_ID_TIME@@@?$vector@UEVENT_ID_TIME@@V?$allocator@UEVENT_ID_TIME@@@std@@@std@@IAEPAUEVENT_ID_TIME@@PAU2@00@Z ; std::vector<EVENT_ID_TIME,std::allocator<EVENT_ID_TIME> >::_Umove<EVENT_ID_TIME *>
; Function compile flags: /Ogtp
; File c:\program files (x86)\microsoft visual studio 10.0\vc\include\vector
;	COMDAT ??$_Umove@PAUEVENT_ID_TIME@@@?$vector@UEVENT_ID_TIME@@V?$allocator@UEVENT_ID_TIME@@@std@@@std@@IAEPAUEVENT_ID_TIME@@PAU2@00@Z
_TEXT	SEGMENT
__First$ = 8						; size = 4
__Last$ = 12						; size = 4
__Cat$162730 = 16					; size = 1
__Ptr$ = 16						; size = 4
??$_Umove@PAUEVENT_ID_TIME@@@?$vector@UEVENT_ID_TIME@@V?$allocator@UEVENT_ID_TIME@@@std@@@std@@IAEPAUEVENT_ID_TIME@@PAU2@00@Z PROC ; std::vector<EVENT_ID_TIME,std::allocator<EVENT_ID_TIME> >::_Umove<EVENT_ID_TIME *>, COMDAT
; _this$ = ecx

; 1322 : 		pointer _Umove(_Iter _First, _Iter _Last, pointer _Ptr)

  00000	55		 push	 ebp
  00001	8b ec		 mov	 ebp, esp

; 1323 : 		{	// move initializing [_First, _Last), using allocator
; 1324 : 		return (_Uninitialized_move(_First, _Last,
; 1325 : 			_Ptr, this->_Alval));

  00003	8b 45 10	 mov	 eax, DWORD PTR __Cat$162730[ebp]
  00006	8b 55 0c	 mov	 edx, DWORD PTR __Last$[ebp]
  00009	50		 push	 eax
  0000a	8b 45 08	 mov	 eax, DWORD PTR __First$[ebp]
  0000d	6a 00		 push	 0
  0000f	83 c1 0c	 add	 ecx, 12			; 0000000cH
  00012	51		 push	 ecx
  00013	8b 4d 10	 mov	 ecx, DWORD PTR __Ptr$[ebp]
  00016	51		 push	 ecx
  00017	52		 push	 edx
  00018	50		 push	 eax
  00019	e8 00 00 00 00	 call	 ??$_Uninit_move@PAUEVENT_ID_TIME@@PAU1@V?$allocator@UEVENT_ID_TIME@@@std@@U1@@std@@YAPAUEVENT_ID_TIME@@PAU1@00AAV?$allocator@UEVENT_ID_TIME@@@0@0U_Nonscalar_ptr_iterator_tag@0@@Z ; std::_Uninit_move<EVENT_ID_TIME *,EVENT_ID_TIME *,std::allocator<EVENT_ID_TIME>,EVENT_ID_TIME>
  0001e	83 c4 18	 add	 esp, 24			; 00000018H

; 1326 : 		}

  00021	5d		 pop	 ebp
  00022	c2 0c 00	 ret	 12			; 0000000cH
??$_Umove@PAUEVENT_ID_TIME@@@?$vector@UEVENT_ID_TIME@@V?$allocator@UEVENT_ID_TIME@@@std@@@std@@IAEPAUEVENT_ID_TIME@@PAU2@00@Z ENDP ; std::vector<EVENT_ID_TIME,std::allocator<EVENT_ID_TIME> >::_Umove<EVENT_ID_TIME *>
_TEXT	ENDS
PUBLIC	__$ArrayPad$
PUBLIC	?Init@CEventManagement@@QAEXH@Z			; CEventManagement::Init
EXTRN	__imp__GetLocalTime@4:PROC
; Function compile flags: /Ogtp
; File c:\users\faelhs\mu-1.1\emu - gameserver sapphire s0\gameserver\eventmanagement.cpp
;	COMDAT ?Init@CEventManagement@@QAEXH@Z
_TEXT	SEGMENT
$T163816 = -28						; size = 4
__Where$163369 = -28					; size = 4
$T162767 = -28						; size = 4
$T162764 = -28						; size = 4
$T162761 = -28						; size = 4
$T162758 = -28						; size = 4
$T162742 = -28						; size = 4
$T162737 = -28						; size = 4
__Where$163811 = -24					; size = 4
$T163347 = -24						; size = 4
$T162766 = -24						; size = 4
$T162763 = -24						; size = 4
$T162760 = -24						; size = 4
$T162757 = -24						; size = 4
$T162743 = -24						; size = 4
$T162738 = -24						; size = 4
_sysTime$156001 = -20					; size = 16
__$ArrayPad$ = -4					; size = 4
_bEventStart$ = 8					; size = 4
?Init@CEventManagement@@QAEXH@Z PROC			; CEventManagement::Init, COMDAT
; _this$ = ecx

; 40   : {

  00000	55		 push	 ebp
  00001	8b ec		 mov	 ebp, esp
  00003	83 ec 1c	 sub	 esp, 28			; 0000001cH
  00006	a1 00 00 00 00	 mov	 eax, DWORD PTR ___security_cookie
  0000b	33 c5		 xor	 eax, ebp
  0000d	89 45 fc	 mov	 DWORD PTR __$ArrayPad$[ebp], eax

; 41   : 	this->m_bEventStart = bEventStart;

  00010	8b 45 08	 mov	 eax, DWORD PTR _bEventStart$[ebp]
  00013	53		 push	 ebx
  00014	56		 push	 esi
  00015	8b f1		 mov	 esi, ecx

; 42   : 
; 43   : 	if ( this->m_bHasData != false && this->m_bEventStart != false )

  00017	33 db		 xor	 ebx, ebx
  00019	57		 push	 edi
  0001a	89 46 04	 mov	 DWORD PTR [esi+4], eax
  0001d	39 5e 08	 cmp	 DWORD PTR [esi+8], ebx
  00020	0f 84 95 01 00
	00		 je	 $LN26@Init
  00026	3b c3		 cmp	 eax, ebx
  00028	0f 84 8d 01 00
	00		 je	 $LN26@Init

; 44   : 	{
; 45   : 		SYSTEMTIME sysTime;
; 46   : 
; 47   : 		GetLocalTime(&sysTime);

  0002e	8d 45 ec	 lea	 eax, DWORD PTR _sysTime$156001[ebp]
  00031	50		 push	 eax
  00032	ff 15 00 00 00
	00		 call	 DWORD PTR __imp__GetLocalTime@4

; 48   : 		this->m_wToday_Year = sysTime.wYear;

  00038	66 8b 4d ec	 mov	 cx, WORD PTR _sysTime$156001[ebp]

; 49   : 		this->m_wToday_Month = sysTime.wMonth;

  0003c	66 8b 55 ee	 mov	 dx, WORD PTR _sysTime$156001[ebp+2]

; 50   : 		this->m_wToday_Day = sysTime.wDay;

  00040	66 8b 45 f2	 mov	 ax, WORD PTR _sysTime$156001[ebp+6]
  00044	66 89 4e 2c	 mov	 WORD PTR [esi+44], cx

; 51   : 
; 52   : 		std::map<int, void *>::iterator _Itor;
; 53   : 		
; 54   : 		_Itor = this->m_mapEventObj.find(EVENT_ID_DRAGONHERD);

  00048	8d 4d e4	 lea	 ecx, DWORD PTR $T162737[ebp]
  0004b	66 89 56 2e	 mov	 WORD PTR [esi+46], dx
  0004f	51		 push	 ecx
  00050	8d 55 e8	 lea	 edx, DWORD PTR $T162738[ebp]
  00053	52		 push	 edx
  00054	8d 4e 1c	 lea	 ecx, DWORD PTR [esi+28]
  00057	66 89 46 30	 mov	 WORD PTR [esi+48], ax
  0005b	89 5d e4	 mov	 DWORD PTR $T162737[ebp], ebx
  0005e	e8 00 00 00 00	 call	 ?find@?$_Tree@V?$_Tmap_traits@HPAXU?$less@H@std@@V?$allocator@U?$pair@$$CBHPAX@std@@@2@$0A@@std@@@std@@QAE?AV?$_Tree_iterator@V?$_Tree_val@V?$_Tmap_traits@HPAXU?$less@H@std@@V?$allocator@U?$pair@$$CBHPAX@std@@@2@$0A@@std@@@std@@@2@ABH@Z ; std::_Tree<std::_Tmap_traits<int,void *,std::less<int>,std::allocator<std::pair<int const ,void *> >,0> >::find
  00063	8b 00		 mov	 eax, DWORD PTR [eax]

; 55   : 
; 56   : 		if ( _Itor != this->m_mapEventObj.end() )

  00065	3b 46 20	 cmp	 eax, DWORD PTR [esi+32]
  00068	74 21		 je	 SHORT $LN22@Init

; 57   : 		{
; 58   : 			CDragonEvent * lpEvent = (CDragonEvent *)_Itor->second;

  0006a	8b 48 10	 mov	 ecx, DWORD PTR [eax+16]

; 59   : 			lpEvent->SetMenualStart(FALSE);

  0006d	89 59 10	 mov	 DWORD PTR [ecx+16], ebx

; 60   : 
; 61   : 			for (std::vector<EVENT_ID_TIME>::iterator it = this->m_vtEventTime.begin() ; it != this->m_vtEventTime.end(); it++)

  00070	8b 46 0c	 mov	 eax, DWORD PTR [esi+12]
  00073	3b 46 10	 cmp	 eax, DWORD PTR [esi+16]
  00076	74 13		 je	 SHORT $LN22@Init
$LL71@Init:

; 62   : 			{
; 63   : 				if ( (*(it)).m_eEventKind == EVENT_ID_DRAGONHERD )

  00078	39 18		 cmp	 DWORD PTR [eax], ebx
  0007a	75 07		 jne	 SHORT $LN23@Init

; 64   : 				{
; 65   : 					lpEvent->SetMenualStart(TRUE);

  0007c	c7 41 10 01 00
	00 00		 mov	 DWORD PTR [ecx+16], 1
$LN23@Init:

; 60   : 
; 61   : 			for (std::vector<EVENT_ID_TIME>::iterator it = this->m_vtEventTime.begin() ; it != this->m_vtEventTime.end(); it++)

  00083	83 c0 10	 add	 eax, 16			; 00000010H
  00086	3b 46 10	 cmp	 eax, DWORD PTR [esi+16]
  00089	75 ed		 jne	 SHORT $LL71@Init
$LN22@Init:

; 66   : 				}
; 67   : 			}
; 68   : 		}
; 69   : 
; 70   : 		_Itor = this->m_mapEventObj.find(EVENT_ID_UNDERTROOP);

  0008b	8d 45 e4	 lea	 eax, DWORD PTR $T162742[ebp]
  0008e	50		 push	 eax
  0008f	8d 4d e8	 lea	 ecx, DWORD PTR $T162743[ebp]
  00092	51		 push	 ecx
  00093	8d 4e 1c	 lea	 ecx, DWORD PTR [esi+28]
  00096	c7 45 e4 01 00
	00 00		 mov	 DWORD PTR $T162742[ebp], 1
  0009d	e8 00 00 00 00	 call	 ?find@?$_Tree@V?$_Tmap_traits@HPAXU?$less@H@std@@V?$allocator@U?$pair@$$CBHPAX@std@@@2@$0A@@std@@@std@@QAE?AV?$_Tree_iterator@V?$_Tree_val@V?$_Tmap_traits@HPAXU?$less@H@std@@V?$allocator@U?$pair@$$CBHPAX@std@@@2@$0A@@std@@@std@@@2@ABH@Z ; std::_Tree<std::_Tmap_traits<int,void *,std::less<int>,std::allocator<std::pair<int const ,void *> >,0> >::find
  000a2	8b 00		 mov	 eax, DWORD PTR [eax]

; 71   : 
; 72   : 		if ( _Itor != this->m_mapEventObj.end() )

  000a4	3b 46 20	 cmp	 eax, DWORD PTR [esi+32]
  000a7	74 24		 je	 SHORT $LN531@Init

; 73   : 		{
; 74   : 			CAttackEvent * lpEvent = (CAttackEvent *)_Itor->second;

  000a9	8b 48 10	 mov	 ecx, DWORD PTR [eax+16]

; 75   : 			lpEvent->SetMenualStart(FALSE);

  000ac	89 59 28	 mov	 DWORD PTR [ecx+40], ebx

; 76   : 
; 77   : 			for (std::vector<EVENT_ID_TIME>::iterator it = this->m_vtEventTime.begin() ; it != this->m_vtEventTime.end(); it++)

  000af	8b 46 0c	 mov	 eax, DWORD PTR [esi+12]
  000b2	3b 46 10	 cmp	 eax, DWORD PTR [esi+16]
  000b5	74 16		 je	 SHORT $LN531@Init
$LL132@Init:

; 78   : 			{
; 79   : 				if ( (*(it)).m_eEventKind == EVENT_ID_UNDERTROOP )

  000b7	ba 01 00 00 00	 mov	 edx, 1
  000bc	39 10		 cmp	 DWORD PTR [eax], edx
  000be	75 03		 jne	 SHORT $LN18@Init

; 80   : 				{
; 81   : 					lpEvent->SetMenualStart(TRUE);

  000c0	89 51 28	 mov	 DWORD PTR [ecx+40], edx
$LN18@Init:

; 76   : 
; 77   : 			for (std::vector<EVENT_ID_TIME>::iterator it = this->m_vtEventTime.begin() ; it != this->m_vtEventTime.end(); it++)

  000c3	83 c0 10	 add	 eax, 16			; 00000010H
  000c6	3b 46 10	 cmp	 eax, DWORD PTR [esi+16]
  000c9	75 ec		 jne	 SHORT $LL132@Init
  000cb	eb 05		 jmp	 SHORT $LN17@Init
$LN531@Init:
  000cd	ba 01 00 00 00	 mov	 edx, 1
$LN17@Init:

; 82   : 				}
; 83   : 			}
; 84   : 		}
; 85   : 
; 86   : 		_Itor = this->m_mapEventObj.find(EVENT_ID_ELDORADO);

  000d2	8b 4e 20	 mov	 ecx, DWORD PTR [esi+32]
  000d5	8b 41 04	 mov	 eax, DWORD PTR [ecx+4]
  000d8	38 58 15	 cmp	 BYTE PTR [eax+21], bl
  000db	75 17		 jne	 SHORT $LN532@Init
  000dd	8d 49 00	 npad	 3
$LL166@Init:
  000e0	83 78 0c 02	 cmp	 DWORD PTR [eax+12], 2
  000e4	7d 05		 jge	 SHORT $LN164@Init
  000e6	8b 40 08	 mov	 eax, DWORD PTR [eax+8]
  000e9	eb 04		 jmp	 SHORT $LN163@Init
$LN164@Init:
  000eb	8b c8		 mov	 ecx, eax
  000ed	8b 00		 mov	 eax, DWORD PTR [eax]
$LN163@Init:
  000ef	38 58 15	 cmp	 BYTE PTR [eax+21], bl
  000f2	74 ec		 je	 SHORT $LL166@Init
$LN532@Init:
  000f4	8b 46 20	 mov	 eax, DWORD PTR [esi+32]
  000f7	89 4d e4	 mov	 DWORD PTR __Where$163369[ebp], ecx
  000fa	3b c8		 cmp	 ecx, eax
  000fc	74 0b		 je	 SHORT $LN159@Init
  000fe	83 79 0c 02	 cmp	 DWORD PTR [ecx+12], 2
  00102	7f 05		 jg	 SHORT $LN159@Init
  00104	8d 45 e4	 lea	 eax, DWORD PTR __Where$163369[ebp]
  00107	eb 06		 jmp	 SHORT $LN160@Init
$LN159@Init:
  00109	89 45 e8	 mov	 DWORD PTR $T163347[ebp], eax
  0010c	8d 45 e8	 lea	 eax, DWORD PTR $T163347[ebp]
$LN160@Init:
  0010f	8b 00		 mov	 eax, DWORD PTR [eax]

; 87   : 
; 88   : 		if ( _Itor != this->m_mapEventObj.end() )

  00111	3b 46 20	 cmp	 eax, DWORD PTR [esi+32]
  00114	74 1e		 je	 SHORT $LN12@Init

; 89   : 		{
; 90   : 			CEledoradoEvent * lpEvent = (CEledoradoEvent *)_Itor->second;

  00116	8b 48 10	 mov	 ecx, DWORD PTR [eax+16]

; 91   : 			lpEvent->SetMenualStart(FALSE);

  00119	89 59 40	 mov	 DWORD PTR [ecx+64], ebx

; 92   : 
; 93   : 			for (std::vector<EVENT_ID_TIME>::iterator it = this->m_vtEventTime.begin() ; it != this->m_vtEventTime.end(); it++)

  0011c	8b 46 0c	 mov	 eax, DWORD PTR [esi+12]
  0011f	3b 46 10	 cmp	 eax, DWORD PTR [esi+16]
  00122	74 10		 je	 SHORT $LN12@Init
$LL263@Init:

; 94   : 			{
; 95   : 				if ( (*(it)).m_eEventKind == EVENT_ID_ELDORADO )

  00124	83 38 02	 cmp	 DWORD PTR [eax], 2
  00127	75 03		 jne	 SHORT $LN13@Init

; 96   : 				{
; 97   : 					lpEvent->SetMenualStart(TRUE);

  00129	89 51 40	 mov	 DWORD PTR [ecx+64], edx
$LN13@Init:

; 92   : 
; 93   : 			for (std::vector<EVENT_ID_TIME>::iterator it = this->m_vtEventTime.begin() ; it != this->m_vtEventTime.end(); it++)

  0012c	83 c0 10	 add	 eax, 16			; 00000010H
  0012f	3b 46 10	 cmp	 eax, DWORD PTR [esi+16]
  00132	75 f0		 jne	 SHORT $LL263@Init
$LN12@Init:

; 98   : 				}
; 99   : 			}
; 100  : 		}
; 101  : 
; 102  : 
; 103  : 		_Itor = this->m_mapEventObj.find(EVENT_ID_WHITEMAGE);

  00134	8b 4e 20	 mov	 ecx, DWORD PTR [esi+32]
  00137	8b 41 04	 mov	 eax, DWORD PTR [ecx+4]
  0013a	ba 03 00 00 00	 mov	 edx, 3
  0013f	38 58 15	 cmp	 BYTE PTR [eax+21], bl
  00142	75 13		 jne	 SHORT $LN296@Init
$LL297@Init:
  00144	39 50 0c	 cmp	 DWORD PTR [eax+12], edx
  00147	7d 05		 jge	 SHORT $LN295@Init
  00149	8b 40 08	 mov	 eax, DWORD PTR [eax+8]
  0014c	eb 04		 jmp	 SHORT $LN294@Init
$LN295@Init:
  0014e	8b c8		 mov	 ecx, eax
  00150	8b 00		 mov	 eax, DWORD PTR [eax]
$LN294@Init:
  00152	38 58 15	 cmp	 BYTE PTR [eax+21], bl
  00155	74 ed		 je	 SHORT $LL297@Init
$LN296@Init:
  00157	8b 46 20	 mov	 eax, DWORD PTR [esi+32]
  0015a	89 4d e8	 mov	 DWORD PTR __Where$163811[ebp], ecx
  0015d	3b c8		 cmp	 ecx, eax
  0015f	74 0a		 je	 SHORT $LN290@Init
  00161	39 51 0c	 cmp	 DWORD PTR [ecx+12], edx
  00164	7f 05		 jg	 SHORT $LN290@Init
  00166	8d 45 e8	 lea	 eax, DWORD PTR __Where$163811[ebp]
  00169	eb 06		 jmp	 SHORT $LN291@Init
$LN290@Init:
  0016b	89 45 e4	 mov	 DWORD PTR $T163816[ebp], eax
  0016e	8d 45 e4	 lea	 eax, DWORD PTR $T163816[ebp]
$LN291@Init:
  00171	8b 00		 mov	 eax, DWORD PTR [eax]

; 104  : 
; 105  : 		if ( _Itor != this->m_mapEventObj.end() )

  00173	3b 46 20	 cmp	 eax, DWORD PTR [esi+32]
  00176	0f 84 ce 00 00
	00		 je	 $LN519@Init

; 106  : 		{
; 107  : 			CRingAttackEvent * lpEvent = (CRingAttackEvent *)_Itor->second;

  0017c	8b 48 10	 mov	 ecx, DWORD PTR [eax+16]

; 108  : 			lpEvent->SetMenualStart(FALSE);

  0017f	89 99 54 01 00
	00		 mov	 DWORD PTR [ecx+340], ebx

; 109  : 
; 110  : 			for (std::vector<EVENT_ID_TIME>::iterator it = this->m_vtEventTime.begin() ; it != this->m_vtEventTime.end(); it++)

  00185	8b 46 0c	 mov	 eax, DWORD PTR [esi+12]
  00188	3b 46 10	 cmp	 eax, DWORD PTR [esi+16]
  0018b	0f 84 b9 00 00
	00		 je	 $LN519@Init
$LL394@Init:

; 111  : 			{
; 112  : 				if ( (*(it)).m_eEventKind == EVENT_ID_ELDORADO )	// #error Deathway Fix Here (GS says ELEDORADO

  00191	83 38 02	 cmp	 DWORD PTR [eax], 2
  00194	75 0a		 jne	 SHORT $LN8@Init

; 113  : 				{
; 114  : 					lpEvent->SetMenualStart(TRUE);

  00196	c7 81 54 01 00
	00 01 00 00 00	 mov	 DWORD PTR [ecx+340], 1
$LN8@Init:

; 109  : 
; 110  : 			for (std::vector<EVENT_ID_TIME>::iterator it = this->m_vtEventTime.begin() ; it != this->m_vtEventTime.end(); it++)

  001a0	83 c0 10	 add	 eax, 16			; 00000010H
  001a3	3b 46 10	 cmp	 eax, DWORD PTR [esi+16]
  001a6	75 e9		 jne	 SHORT $LL394@Init
  001a8	5f		 pop	 edi
  001a9	5e		 pop	 esi
  001aa	5b		 pop	 ebx

; 155  : 		}
; 156  : 	}
; 157  : }

  001ab	8b 4d fc	 mov	 ecx, DWORD PTR __$ArrayPad$[ebp]
  001ae	33 cd		 xor	 ecx, ebp
  001b0	e8 00 00 00 00	 call	 @__security_check_cookie@4
  001b5	8b e5		 mov	 esp, ebp
  001b7	5d		 pop	 ebp
  001b8	c2 04 00	 ret	 4
$LN26@Init:

; 115  : 				}
; 116  : 			}
; 117  : 		}
; 118  : 
; 119  : 	}
; 120  : 	else
; 121  : 	{
; 122  : 		std::map<int, void *>::iterator _Itor;
; 123  : 		
; 124  : 		_Itor = this->m_mapEventObj.find(EVENT_ID_DRAGONHERD);

  001bb	8d 55 e8	 lea	 edx, DWORD PTR $T162757[ebp]
  001be	52		 push	 edx
  001bf	8d 45 e4	 lea	 eax, DWORD PTR $T162758[ebp]
  001c2	50		 push	 eax
  001c3	8d 4e 1c	 lea	 ecx, DWORD PTR [esi+28]
  001c6	89 5d e8	 mov	 DWORD PTR $T162757[ebp], ebx
  001c9	e8 00 00 00 00	 call	 ?find@?$_Tree@V?$_Tmap_traits@HPAXU?$less@H@std@@V?$allocator@U?$pair@$$CBHPAX@std@@@2@$0A@@std@@@std@@QAE?AV?$_Tree_iterator@V?$_Tree_val@V?$_Tmap_traits@HPAXU?$less@H@std@@V?$allocator@U?$pair@$$CBHPAX@std@@@2@$0A@@std@@@std@@@2@ABH@Z ; std::_Tree<std::_Tmap_traits<int,void *,std::less<int>,std::allocator<std::pair<int const ,void *> >,0> >::find
  001ce	8b 00		 mov	 eax, DWORD PTR [eax]

; 125  : 		
; 126  : 		if ( _Itor != this->m_mapEventObj.end() )

  001d0	3b 46 20	 cmp	 eax, DWORD PTR [esi+32]
  001d3	74 06		 je	 SHORT $LN447@Init

; 127  : 		{
; 128  : 			CDragonEvent * lpEvent = (CDragonEvent *)_Itor->second;
; 129  : 			lpEvent->SetMenualStart(FALSE);

  001d5	8b 48 10	 mov	 ecx, DWORD PTR [eax+16]
  001d8	89 59 10	 mov	 DWORD PTR [ecx+16], ebx
$LN447@Init:

; 130  : 		}
; 131  : 
; 132  : 	
; 133  : 		_Itor = this->m_mapEventObj.find(EVENT_ID_UNDERTROOP);

  001db	8d 55 e8	 lea	 edx, DWORD PTR $T162760[ebp]
  001de	52		 push	 edx
  001df	8d 45 e4	 lea	 eax, DWORD PTR $T162761[ebp]
  001e2	50		 push	 eax
  001e3	8d 4e 1c	 lea	 ecx, DWORD PTR [esi+28]
  001e6	c7 45 e8 01 00
	00 00		 mov	 DWORD PTR $T162760[ebp], 1
  001ed	e8 00 00 00 00	 call	 ?find@?$_Tree@V?$_Tmap_traits@HPAXU?$less@H@std@@V?$allocator@U?$pair@$$CBHPAX@std@@@2@$0A@@std@@@std@@QAE?AV?$_Tree_iterator@V?$_Tree_val@V?$_Tmap_traits@HPAXU?$less@H@std@@V?$allocator@U?$pair@$$CBHPAX@std@@@2@$0A@@std@@@std@@@2@ABH@Z ; std::_Tree<std::_Tmap_traits<int,void *,std::less<int>,std::allocator<std::pair<int const ,void *> >,0> >::find
  001f2	8b 00		 mov	 eax, DWORD PTR [eax]

; 134  : 		
; 135  : 		if ( _Itor != this->m_mapEventObj.end() )

  001f4	3b 46 20	 cmp	 eax, DWORD PTR [esi+32]
  001f7	74 06		 je	 SHORT $LN471@Init

; 136  : 		{
; 137  : 			CAttackEvent * lpEvent = (CAttackEvent *)_Itor->second;
; 138  : 			lpEvent->SetMenualStart(FALSE);

  001f9	8b 48 10	 mov	 ecx, DWORD PTR [eax+16]
  001fc	89 59 28	 mov	 DWORD PTR [ecx+40], ebx
$LN471@Init:

; 139  : 		}
; 140  : 
; 141  : 		_Itor = this->m_mapEventObj.find(EVENT_ID_ELDORADO);

  001ff	8d 55 e8	 lea	 edx, DWORD PTR $T162763[ebp]
  00202	52		 push	 edx
  00203	8d 45 e4	 lea	 eax, DWORD PTR $T162764[ebp]
  00206	50		 push	 eax
  00207	8d 4e 1c	 lea	 ecx, DWORD PTR [esi+28]
  0020a	c7 45 e8 02 00
	00 00		 mov	 DWORD PTR $T162763[ebp], 2
  00211	e8 00 00 00 00	 call	 ?find@?$_Tree@V?$_Tmap_traits@HPAXU?$less@H@std@@V?$allocator@U?$pair@$$CBHPAX@std@@@2@$0A@@std@@@std@@QAE?AV?$_Tree_iterator@V?$_Tree_val@V?$_Tmap_traits@HPAXU?$less@H@std@@V?$allocator@U?$pair@$$CBHPAX@std@@@2@$0A@@std@@@std@@@2@ABH@Z ; std::_Tree<std::_Tmap_traits<int,void *,std::less<int>,std::allocator<std::pair<int const ,void *> >,0> >::find
  00216	8b 00		 mov	 eax, DWORD PTR [eax]

; 142  : 		
; 143  : 		if ( _Itor != this->m_mapEventObj.end() )

  00218	3b 46 20	 cmp	 eax, DWORD PTR [esi+32]
  0021b	74 06		 je	 SHORT $LN495@Init

; 144  : 		{
; 145  : 			CEledoradoEvent * lpEvent = (CEledoradoEvent *)_Itor->second;
; 146  : 			lpEvent->SetMenualStart(FALSE);

  0021d	8b 48 10	 mov	 ecx, DWORD PTR [eax+16]
  00220	89 59 40	 mov	 DWORD PTR [ecx+64], ebx
$LN495@Init:

; 147  : 		}
; 148  : 
; 149  : 		_Itor = this->m_mapEventObj.find(EVENT_ID_WHITEMAGE);

  00223	8d 55 e8	 lea	 edx, DWORD PTR $T162766[ebp]
  00226	52		 push	 edx
  00227	8d 45 e4	 lea	 eax, DWORD PTR $T162767[ebp]
  0022a	50		 push	 eax
  0022b	8d 4e 1c	 lea	 ecx, DWORD PTR [esi+28]
  0022e	c7 45 e8 03 00
	00 00		 mov	 DWORD PTR $T162766[ebp], 3
  00235	e8 00 00 00 00	 call	 ?find@?$_Tree@V?$_Tmap_traits@HPAXU?$less@H@std@@V?$allocator@U?$pair@$$CBHPAX@std@@@2@$0A@@std@@@std@@QAE?AV?$_Tree_iterator@V?$_Tree_val@V?$_Tmap_traits@HPAXU?$less@H@std@@V?$allocator@U?$pair@$$CBHPAX@std@@@2@$0A@@std@@@std@@@2@ABH@Z ; std::_Tree<std::_Tmap_traits<int,void *,std::less<int>,std::allocator<std::pair<int const ,void *> >,0> >::find
  0023a	8b 00		 mov	 eax, DWORD PTR [eax]

; 150  : 		
; 151  : 		if ( _Itor != this->m_mapEventObj.end() )

  0023c	3b 46 20	 cmp	 eax, DWORD PTR [esi+32]
  0023f	74 09		 je	 SHORT $LN519@Init

; 152  : 		{
; 153  : 			CRingAttackEvent * lpEvent = (CRingAttackEvent *)_Itor->second;
; 154  : 			lpEvent->SetMenualStart(FALSE);

  00241	8b 48 10	 mov	 ecx, DWORD PTR [eax+16]
  00244	89 99 54 01 00
	00		 mov	 DWORD PTR [ecx+340], ebx
$LN519@Init:

; 155  : 		}
; 156  : 	}
; 157  : }

  0024a	8b 4d fc	 mov	 ecx, DWORD PTR __$ArrayPad$[ebp]
  0024d	5f		 pop	 edi
  0024e	5e		 pop	 esi
  0024f	33 cd		 xor	 ecx, ebp
  00251	5b		 pop	 ebx
  00252	e8 00 00 00 00	 call	 @__security_check_cookie@4
  00257	8b e5		 mov	 esp, ebp
  00259	5d		 pop	 ebp
  0025a	c2 04 00	 ret	 4
?Init@CEventManagement@@QAEXH@Z ENDP			; CEventManagement::Init
_TEXT	ENDS
PUBLIC	?StartEvent@CEventManagement@@QAEXH@Z		; CEventManagement::StartEvent
EXTRN	?Start_Menual@CRingAttackEvent@@QAEXXZ:PROC	; CRingAttackEvent::Start_Menual
EXTRN	?Start_Menual@CEledoradoEvent@@QAEXXZ:PROC	; CEledoradoEvent::Start_Menual
EXTRN	?Start_Menual@CAttackEvent@@QAEXXZ:PROC		; CAttackEvent::Start_Menual
EXTRN	?Start_Menual@CDragonEvent@@QAEXXZ:PROC		; CDragonEvent::Start_Menual
; Function compile flags: /Ogtp
;	COMDAT ?StartEvent@CEventManagement@@QAEXH@Z
_TEXT	SEGMENT
__Itor$156684 = -4					; size = 4
__Itor$156663 = -4					; size = 4
__Itor$156642 = -4					; size = 4
__Itor$156621 = -4					; size = 4
$T164376 = 8						; size = 4
$T164374 = 8						; size = 4
$T164372 = 8						; size = 4
$T164370 = 8						; size = 4
_eEventKind$ = 8					; size = 4
?StartEvent@CEventManagement@@QAEXH@Z PROC		; CEventManagement::StartEvent, COMDAT
; _this$ = ecx

; 201  : {

  00000	55		 push	 ebp
  00001	8b ec		 mov	 ebp, esp
  00003	51		 push	 ecx

; 202  : 	switch ( eEventKind )

  00004	8b 45 08	 mov	 eax, DWORD PTR _eEventKind$[ebp]
  00007	56		 push	 esi
  00008	8b f1		 mov	 esi, ecx
  0000a	83 f8 03	 cmp	 eax, 3
  0000d	0f 87 bc 00 00
	00		 ja	 $LN1@StartEvent
  00013	ff 24 85 00 00
	00 00		 jmp	 DWORD PTR $LN101@StartEvent[eax*4]
$LN8@StartEvent:

; 203  : 	{
; 204  : 		case EVENT_ID_DRAGONHERD:
; 205  : 			{
; 206  : 				std::map<int, void *>::iterator _Itor = this->m_mapEventObj.find(EVENT_ID_DRAGONHERD);

  0001a	8d 45 08	 lea	 eax, DWORD PTR $T164370[ebp]
  0001d	50		 push	 eax
  0001e	8d 4d fc	 lea	 ecx, DWORD PTR __Itor$156621[ebp]
  00021	51		 push	 ecx
  00022	8d 4e 1c	 lea	 ecx, DWORD PTR [esi+28]
  00025	c7 45 08 00 00
	00 00		 mov	 DWORD PTR $T164370[ebp], 0
  0002c	e8 00 00 00 00	 call	 ?find@?$_Tree@V?$_Tmap_traits@HPAXU?$less@H@std@@V?$allocator@U?$pair@$$CBHPAX@std@@@2@$0A@@std@@@std@@QAE?AV?$_Tree_iterator@V?$_Tree_val@V?$_Tmap_traits@HPAXU?$less@H@std@@V?$allocator@U?$pair@$$CBHPAX@std@@@2@$0A@@std@@@std@@@2@ABH@Z ; std::_Tree<std::_Tmap_traits<int,void *,std::less<int>,std::allocator<std::pair<int const ,void *> >,0> >::find

; 207  : 
; 208  : 				if ( _Itor != this->m_mapEventObj.end() )

  00031	8b 45 fc	 mov	 eax, DWORD PTR __Itor$156621[ebp]
  00034	3b 46 20	 cmp	 eax, DWORD PTR [esi+32]
  00037	0f 84 92 00 00
	00		 je	 $LN1@StartEvent

; 209  : 				{
; 210  : 					CDragonEvent * lpEvent = (CDragonEvent *)_Itor->second;
; 211  : 					lpEvent->Start_Menual();

  0003d	8b 48 10	 mov	 ecx, DWORD PTR [eax+16]
  00040	e8 00 00 00 00	 call	 ?Start_Menual@CDragonEvent@@QAEXXZ ; CDragonEvent::Start_Menual
  00045	5e		 pop	 esi

; 248  : 				}
; 249  : 			}
; 250  : 			break;
; 251  : 	}
; 252  : }

  00046	8b e5		 mov	 esp, ebp
  00048	5d		 pop	 ebp
  00049	c2 04 00	 ret	 4
$LN6@StartEvent:

; 212  : 				}
; 213  : 			}
; 214  : 			break;
; 215  : 
; 216  : 		case EVENT_ID_UNDERTROOP:
; 217  : 			{
; 218  : 				std::map<int, void *>::iterator _Itor = this->m_mapEventObj.find(EVENT_ID_UNDERTROOP);

  0004c	8d 55 08	 lea	 edx, DWORD PTR $T164372[ebp]
  0004f	52		 push	 edx
  00050	8d 45 fc	 lea	 eax, DWORD PTR __Itor$156642[ebp]
  00053	50		 push	 eax
  00054	8d 4e 1c	 lea	 ecx, DWORD PTR [esi+28]
  00057	c7 45 08 01 00
	00 00		 mov	 DWORD PTR $T164372[ebp], 1
  0005e	e8 00 00 00 00	 call	 ?find@?$_Tree@V?$_Tmap_traits@HPAXU?$less@H@std@@V?$allocator@U?$pair@$$CBHPAX@std@@@2@$0A@@std@@@std@@QAE?AV?$_Tree_iterator@V?$_Tree_val@V?$_Tmap_traits@HPAXU?$less@H@std@@V?$allocator@U?$pair@$$CBHPAX@std@@@2@$0A@@std@@@std@@@2@ABH@Z ; std::_Tree<std::_Tmap_traits<int,void *,std::less<int>,std::allocator<std::pair<int const ,void *> >,0> >::find

; 219  : 
; 220  : 				if ( _Itor != this->m_mapEventObj.end() )

  00063	8b 45 fc	 mov	 eax, DWORD PTR __Itor$156642[ebp]
  00066	3b 46 20	 cmp	 eax, DWORD PTR [esi+32]
  00069	74 64		 je	 SHORT $LN1@StartEvent

; 221  : 				{
; 222  : 					CAttackEvent * lpEvent = (CAttackEvent *)_Itor->second;
; 223  : 					lpEvent->Start_Menual();

  0006b	8b 48 10	 mov	 ecx, DWORD PTR [eax+16]
  0006e	e8 00 00 00 00	 call	 ?Start_Menual@CAttackEvent@@QAEXXZ ; CAttackEvent::Start_Menual
  00073	5e		 pop	 esi

; 248  : 				}
; 249  : 			}
; 250  : 			break;
; 251  : 	}
; 252  : }

  00074	8b e5		 mov	 esp, ebp
  00076	5d		 pop	 ebp
  00077	c2 04 00	 ret	 4
$LN4@StartEvent:

; 224  : 				}
; 225  : 			}
; 226  : 			break;
; 227  : 
; 228  : 		case EVENT_ID_ELDORADO:
; 229  : 			{
; 230  : 				std::map<int, void *>::iterator _Itor = this->m_mapEventObj.find(EVENT_ID_ELDORADO);

  0007a	8d 4d 08	 lea	 ecx, DWORD PTR $T164374[ebp]
  0007d	51		 push	 ecx
  0007e	8d 55 fc	 lea	 edx, DWORD PTR __Itor$156663[ebp]
  00081	52		 push	 edx
  00082	8d 4e 1c	 lea	 ecx, DWORD PTR [esi+28]
  00085	c7 45 08 02 00
	00 00		 mov	 DWORD PTR $T164374[ebp], 2
  0008c	e8 00 00 00 00	 call	 ?find@?$_Tree@V?$_Tmap_traits@HPAXU?$less@H@std@@V?$allocator@U?$pair@$$CBHPAX@std@@@2@$0A@@std@@@std@@QAE?AV?$_Tree_iterator@V?$_Tree_val@V?$_Tmap_traits@HPAXU?$less@H@std@@V?$allocator@U?$pair@$$CBHPAX@std@@@2@$0A@@std@@@std@@@2@ABH@Z ; std::_Tree<std::_Tmap_traits<int,void *,std::less<int>,std::allocator<std::pair<int const ,void *> >,0> >::find

; 231  : 
; 232  : 				if ( _Itor != this->m_mapEventObj.end() )

  00091	8b 45 fc	 mov	 eax, DWORD PTR __Itor$156663[ebp]
  00094	3b 46 20	 cmp	 eax, DWORD PTR [esi+32]
  00097	74 36		 je	 SHORT $LN1@StartEvent

; 233  : 				{
; 234  : 					CEledoradoEvent * lpEvent = (CEledoradoEvent *)_Itor->second;
; 235  : 					lpEvent->Start_Menual();

  00099	8b 48 10	 mov	 ecx, DWORD PTR [eax+16]
  0009c	e8 00 00 00 00	 call	 ?Start_Menual@CEledoradoEvent@@QAEXXZ ; CEledoradoEvent::Start_Menual
  000a1	5e		 pop	 esi

; 248  : 				}
; 249  : 			}
; 250  : 			break;
; 251  : 	}
; 252  : }

  000a2	8b e5		 mov	 esp, ebp
  000a4	5d		 pop	 ebp
  000a5	c2 04 00	 ret	 4
$LN2@StartEvent:

; 236  : 				}
; 237  : 			}
; 238  : 			break;
; 239  : 
; 240  : 		case EVENT_ID_WHITEMAGE:
; 241  : 			{
; 242  : 				std::map<int, void *>::iterator _Itor = this->m_mapEventObj.find(EVENT_ID_WHITEMAGE);

  000a8	8d 45 08	 lea	 eax, DWORD PTR $T164376[ebp]
  000ab	50		 push	 eax
  000ac	8d 4d fc	 lea	 ecx, DWORD PTR __Itor$156684[ebp]
  000af	51		 push	 ecx
  000b0	8d 4e 1c	 lea	 ecx, DWORD PTR [esi+28]
  000b3	c7 45 08 03 00
	00 00		 mov	 DWORD PTR $T164376[ebp], 3
  000ba	e8 00 00 00 00	 call	 ?find@?$_Tree@V?$_Tmap_traits@HPAXU?$less@H@std@@V?$allocator@U?$pair@$$CBHPAX@std@@@2@$0A@@std@@@std@@QAE?AV?$_Tree_iterator@V?$_Tree_val@V?$_Tmap_traits@HPAXU?$less@H@std@@V?$allocator@U?$pair@$$CBHPAX@std@@@2@$0A@@std@@@std@@@2@ABH@Z ; std::_Tree<std::_Tmap_traits<int,void *,std::less<int>,std::allocator<std::pair<int const ,void *> >,0> >::find

; 243  : 
; 244  : 				if ( _Itor != this->m_mapEventObj.end() )

  000bf	8b 45 fc	 mov	 eax, DWORD PTR __Itor$156684[ebp]
  000c2	3b 46 20	 cmp	 eax, DWORD PTR [esi+32]
  000c5	74 08		 je	 SHORT $LN1@StartEvent

; 245  : 				{
; 246  : 					CRingAttackEvent * lpEvent = (CRingAttackEvent *)_Itor->second;
; 247  : 					lpEvent->Start_Menual();

  000c7	8b 48 10	 mov	 ecx, DWORD PTR [eax+16]
  000ca	e8 00 00 00 00	 call	 ?Start_Menual@CRingAttackEvent@@QAEXXZ ; CRingAttackEvent::Start_Menual
$LN1@StartEvent:
  000cf	5e		 pop	 esi

; 248  : 				}
; 249  : 			}
; 250  : 			break;
; 251  : 	}
; 252  : }

  000d0	8b e5		 mov	 esp, ebp
  000d2	5d		 pop	 ebp
  000d3	c2 04 00	 ret	 4
  000d6	8b ff		 npad	 2
$LN101@StartEvent:
  000d8	00 00 00 00	 DD	 $LN8@StartEvent
  000dc	00 00 00 00	 DD	 $LN6@StartEvent
  000e0	00 00 00 00	 DD	 $LN4@StartEvent
  000e4	00 00 00 00	 DD	 $LN2@StartEvent
?StartEvent@CEventManagement@@QAEXH@Z ENDP		; CEventManagement::StartEvent
_TEXT	ENDS
PUBLIC	?RegEvent@CEventManagement@@QAEXHPAX@Z		; CEventManagement::RegEvent
; Function compile flags: /Ogtp
;	COMDAT ?RegEvent@CEventManagement@@QAEXHPAX@Z
_TEXT	SEGMENT
$T164654 = -8						; size = 8
$T164653 = -8						; size = 8
_eEventKind$ = 8					; size = 4
_lpEventObj$ = 12					; size = 4
?RegEvent@CEventManagement@@QAEXHPAX@Z PROC		; CEventManagement::RegEvent, COMDAT
; _this$ = ecx

; 324  : {

  00000	55		 push	 ebp
  00001	8b ec		 mov	 ebp, esp
  00003	83 ec 08	 sub	 esp, 8

; 325  : 	this->m_mapEventObj.insert( std::pair<int, void *>(eEventKind, lpEventObj) );

  00006	8b 45 08	 mov	 eax, DWORD PTR _eEventKind$[ebp]
  00009	8b 55 0c	 mov	 edx, DWORD PTR _lpEventObj$[ebp]
  0000c	56		 push	 esi
  0000d	89 45 f8	 mov	 DWORD PTR $T164653[ebp], eax
  00010	8d 71 1c	 lea	 esi, DWORD PTR [ecx+28]
  00013	6a 00		 push	 0
  00015	8d 45 f8	 lea	 eax, DWORD PTR $T164653[ebp]
  00018	50		 push	 eax
  00019	8b ce		 mov	 ecx, esi
  0001b	89 55 fc	 mov	 DWORD PTR $T164653[ebp+4], edx
  0001e	e8 00 00 00 00	 call	 ??$_Buynode@U?$pair@HPAX@std@@@?$_Tree_val@V?$_Tmap_traits@HPAXU?$less@H@std@@V?$allocator@U?$pair@$$CBHPAX@std@@@2@$0A@@std@@@std@@QAEPAU_Node@?$_Tree_nod@V?$_Tmap_traits@HPAXU?$less@H@std@@V?$allocator@U?$pair@$$CBHPAX@std@@@2@$0A@@std@@@1@$$QAU?$pair@HPAX@1@@Z ; std::_Tree_val<std::_Tmap_traits<int,void *,std::less<int>,std::allocator<std::pair<int const ,void *> >,0> >::_Buynode<std::pair<int,void *> >
  00023	50		 push	 eax
  00024	8d 4d f8	 lea	 ecx, DWORD PTR $T164654[ebp]
  00027	51		 push	 ecx
  00028	8b ce		 mov	 ecx, esi
  0002a	e8 00 00 00 00	 call	 ?_Linsert@?$_Tree@V?$_Tmap_traits@HPAXU?$less@H@std@@V?$allocator@U?$pair@$$CBHPAX@std@@@2@$0A@@std@@@std@@QAE?AU?$pair@V?$_Tree_iterator@V?$_Tree_val@V?$_Tmap_traits@HPAXU?$less@H@std@@V?$allocator@U?$pair@$$CBHPAX@std@@@2@$0A@@std@@@std@@@std@@_N@2@PAU_Node@?$_Tree_nod@V?$_Tmap_traits@HPAXU?$less@H@std@@V?$allocator@U?$pair@$$CBHPAX@std@@@2@$0A@@std@@@2@_N@Z ; std::_Tree<std::_Tmap_traits<int,void *,std::less<int>,std::allocator<std::pair<int const ,void *> >,0> >::_Linsert
  0002f	5e		 pop	 esi

; 326  : }

  00030	8b e5		 mov	 esp, ebp
  00032	5d		 pop	 ebp
  00033	c2 08 00	 ret	 8
?RegEvent@CEventManagement@@QAEXHPAX@Z ENDP		; CEventManagement::RegEvent
_TEXT	ENDS
PUBLIC	??1?$_Tree@V?$_Tmap_traits@HPAXU?$less@H@std@@V?$allocator@U?$pair@$$CBHPAX@std@@@2@$0A@@std@@@std@@QAE@XZ ; std::_Tree<std::_Tmap_traits<int,void *,std::less<int>,std::allocator<std::pair<int const ,void *> >,0> >::~_Tree<std::_Tmap_traits<int,void *,std::less<int>,std::allocator<std::pair<int const ,void *> >,0> >
EXTRN	___CxxFrameHandler3:PROC
;	COMDAT xdata$x
; File c:\program files (x86)\microsoft visual studio 10.0\vc\include\xmemory
xdata$x	SEGMENT
__unwindtable$??1?$_Tree@V?$_Tmap_traits@HPAXU?$less@H@std@@V?$allocator@U?$pair@$$CBHPAX@std@@@2@$0A@@std@@@std@@QAE@XZ DD 0ffffffffH
	DD	FLAT:__unwindfunclet$??1?$_Tree@V?$_Tmap_traits@HPAXU?$less@H@std@@V?$allocator@U?$pair@$$CBHPAX@std@@@2@$0A@@std@@@std@@QAE@XZ$0
__ehfuncinfo$??1?$_Tree@V?$_Tmap_traits@HPAXU?$less@H@std@@V?$allocator@U?$pair@$$CBHPAX@std@@@2@$0A@@std@@@std@@QAE@XZ DD 019930522H
	DD	01H
	DD	FLAT:__unwindtable$??1?$_Tree@V?$_Tmap_traits@HPAXU?$less@H@std@@V?$allocator@U?$pair@$$CBHPAX@std@@@2@$0A@@std@@@std@@QAE@XZ
	DD	2 DUP(00H)
	DD	2 DUP(00H)
	DD	00H
	DD	01H
; Function compile flags: /Ogtp
; File c:\program files (x86)\microsoft visual studio 10.0\vc\include\xtree
xdata$x	ENDS
;	COMDAT ??1?$_Tree@V?$_Tmap_traits@HPAXU?$less@H@std@@V?$allocator@U?$pair@$$CBHPAX@std@@@2@$0A@@std@@@std@@QAE@XZ
_TEXT	SEGMENT
$T164796 = -20						; size = 4
_this$ = -16						; size = 4
__$EHRec$ = -12						; size = 12
??1?$_Tree@V?$_Tmap_traits@HPAXU?$less@H@std@@V?$allocator@U?$pair@$$CBHPAX@std@@@2@$0A@@std@@@std@@QAE@XZ PROC ; std::_Tree<std::_Tmap_traits<int,void *,std::less<int>,std::allocator<std::pair<int const ,void *> >,0> >::~_Tree<std::_Tmap_traits<int,void *,std::less<int>,std::allocator<std::pair<int const ,void *> >,0> >, COMDAT
; _this$ = ecx

; 790  : 		{	// destroy tree

  00000	55		 push	 ebp
  00001	8b ec		 mov	 ebp, esp
  00003	6a ff		 push	 -1
  00005	68 00 00 00 00	 push	 __ehhandler$??1?$_Tree@V?$_Tmap_traits@HPAXU?$less@H@std@@V?$allocator@U?$pair@$$CBHPAX@std@@@2@$0A@@std@@@std@@QAE@XZ
  0000a	64 a1 00 00 00
	00		 mov	 eax, DWORD PTR fs:0
  00010	50		 push	 eax
  00011	83 ec 08	 sub	 esp, 8
  00014	56		 push	 esi
  00015	a1 00 00 00 00	 mov	 eax, DWORD PTR ___security_cookie
  0001a	33 c5		 xor	 eax, ebp
  0001c	50		 push	 eax
  0001d	8d 45 f4	 lea	 eax, DWORD PTR __$EHRec$[ebp]
  00020	64 a3 00 00 00
	00		 mov	 DWORD PTR fs:0, eax
  00026	8b f1		 mov	 esi, ecx
  00028	89 75 f0	 mov	 DWORD PTR _this$[ebp], esi

; 791  : 		_Tidy();

  0002b	8b 46 04	 mov	 eax, DWORD PTR [esi+4]
  0002e	8b 08		 mov	 ecx, DWORD PTR [eax]
  00030	50		 push	 eax
  00031	51		 push	 ecx
  00032	8d 45 ec	 lea	 eax, DWORD PTR $T164796[ebp]
  00035	50		 push	 eax
  00036	8b ce		 mov	 ecx, esi
  00038	c7 45 fc 00 00
	00 00		 mov	 DWORD PTR __$EHRec$[ebp+8], 0
  0003f	e8 00 00 00 00	 call	 ?erase@?$_Tree@V?$_Tmap_traits@HPAXU?$less@H@std@@V?$allocator@U?$pair@$$CBHPAX@std@@@2@$0A@@std@@@std@@QAE?AV?$_Tree_iterator@V?$_Tree_val@V?$_Tmap_traits@HPAXU?$less@H@std@@V?$allocator@U?$pair@$$CBHPAX@std@@@2@$0A@@std@@@std@@@2@V?$_Tree_const_iterator@V?$_Tree_val@V?$_Tmap_traits@HPAXU?$less@H@std@@V?$allocator@U?$pair@$$CBHPAX@std@@@2@$0A@@std@@@std@@@2@0@Z ; std::_Tree<std::_Tmap_traits<int,void *,std::less<int>,std::allocator<std::pair<int const ,void *> >,0> >::erase

; 792  : 		}

  00044	8b 4e 04	 mov	 ecx, DWORD PTR [esi+4]
  00047	51		 push	 ecx
  00048	e8 00 00 00 00	 call	 ??3@YAXPAX@Z		; operator delete
  0004d	83 c4 04	 add	 esp, 4
  00050	8b 4d f4	 mov	 ecx, DWORD PTR __$EHRec$[ebp]
  00053	64 89 0d 00 00
	00 00		 mov	 DWORD PTR fs:0, ecx
  0005a	59		 pop	 ecx
  0005b	5e		 pop	 esi
  0005c	8b e5		 mov	 esp, ebp
  0005e	5d		 pop	 ebp
  0005f	c3		 ret	 0
_TEXT	ENDS
;	COMDAT text$x
text$x	SEGMENT
__unwindfunclet$??1?$_Tree@V?$_Tmap_traits@HPAXU?$less@H@std@@V?$allocator@U?$pair@$$CBHPAX@std@@@2@$0A@@std@@@std@@QAE@XZ$0:
  00000	8b 4d f0	 mov	 ecx, DWORD PTR _this$[ebp]
  00003	e9 00 00 00 00	 jmp	 ??1?$_Tree_val@V?$_Tmap_traits@HPAXU?$less@H@std@@V?$allocator@U?$pair@$$CBHPAX@std@@@2@$0A@@std@@@std@@QAE@XZ ; std::_Tree_val<std::_Tmap_traits<int,void *,std::less<int>,std::allocator<std::pair<int const ,void *> >,0> >::~_Tree_val<std::_Tmap_traits<int,void *,std::less<int>,std::allocator<std::pair<int const ,void *> >,0> >
__ehhandler$??1?$_Tree@V?$_Tmap_traits@HPAXU?$less@H@std@@V?$allocator@U?$pair@$$CBHPAX@std@@@2@$0A@@std@@@std@@QAE@XZ:
  00008	8b 54 24 08	 mov	 edx, DWORD PTR [esp+8]
  0000c	8d 42 0c	 lea	 eax, DWORD PTR [edx+12]
  0000f	8b 4a f0	 mov	 ecx, DWORD PTR [edx-16]
  00012	33 c8		 xor	 ecx, eax
  00014	e8 00 00 00 00	 call	 @__security_check_cookie@4
  00019	b8 00 00 00 00	 mov	 eax, OFFSET __ehfuncinfo$??1?$_Tree@V?$_Tmap_traits@HPAXU?$less@H@std@@V?$allocator@U?$pair@$$CBHPAX@std@@@2@$0A@@std@@@std@@QAE@XZ
  0001e	e9 00 00 00 00	 jmp	 ___CxxFrameHandler3
text$x	ENDS
??1?$_Tree@V?$_Tmap_traits@HPAXU?$less@H@std@@V?$allocator@U?$pair@$$CBHPAX@std@@@2@$0A@@std@@@std@@QAE@XZ ENDP ; std::_Tree<std::_Tmap_traits<int,void *,std::less<int>,std::allocator<std::pair<int const ,void *> >,0> >::~_Tree<std::_Tmap_traits<int,void *,std::less<int>,std::allocator<std::pair<int const ,void *> >,0> >
PUBLIC	?erase@?$vector@UEVENT_ID_TIME@@V?$allocator@UEVENT_ID_TIME@@@std@@@std@@QAE?AV?$_Vector_iterator@V?$_Vector_val@UEVENT_ID_TIME@@V?$allocator@UEVENT_ID_TIME@@@std@@@std@@@2@V?$_Vector_const_iterator@V?$_Vector_val@UEVENT_ID_TIME@@V?$allocator@UEVENT_ID_TIME@@@std@@@std@@@2@0@Z ; std::vector<EVENT_ID_TIME,std::allocator<EVENT_ID_TIME> >::erase
; Function compile flags: /Ogtp
; File c:\program files (x86)\microsoft visual studio 10.0\vc\include\vector
;	COMDAT ?erase@?$vector@UEVENT_ID_TIME@@V?$allocator@UEVENT_ID_TIME@@@std@@@std@@QAE?AV?$_Vector_iterator@V?$_Vector_val@UEVENT_ID_TIME@@V?$allocator@UEVENT_ID_TIME@@@std@@@std@@@2@V?$_Vector_const_iterator@V?$_Vector_val@UEVENT_ID_TIME@@V?$allocator@UEVENT_ID_TIME@@@std@@@std@@@2@0@Z
_TEXT	SEGMENT
___$ReturnUdt$ = 8					; size = 4
__First_arg$ = 12					; size = 4
__Last_arg$ = 16					; size = 4
?erase@?$vector@UEVENT_ID_TIME@@V?$allocator@UEVENT_ID_TIME@@@std@@@std@@QAE?AV?$_Vector_iterator@V?$_Vector_val@UEVENT_ID_TIME@@V?$allocator@UEVENT_ID_TIME@@@std@@@std@@@2@V?$_Vector_const_iterator@V?$_Vector_val@UEVENT_ID_TIME@@V?$allocator@UEVENT_ID_TIME@@@std@@@std@@@2@0@Z PROC ; std::vector<EVENT_ID_TIME,std::allocator<EVENT_ID_TIME> >::erase, COMDAT
; _this$ = ecx

; 1190 : 		{	// erase [_First, _Last)

  00000	55		 push	 ebp
  00001	8b ec		 mov	 ebp, esp

; 1191 : 		iterator _First = _Make_iter(_First_arg);
; 1192 : 		iterator _Last = _Make_iter(_Last_arg);
; 1193 : 
; 1194 : 		if (_First != _Last)

  00003	8b 55 10	 mov	 edx, DWORD PTR __Last_arg$[ebp]
  00006	8b 45 08	 mov	 eax, DWORD PTR ___$ReturnUdt$[ebp]
  00009	56		 push	 esi
  0000a	8b 75 0c	 mov	 esi, DWORD PTR __First_arg$[ebp]
  0000d	89 30		 mov	 DWORD PTR [eax], esi
  0000f	3b f2		 cmp	 esi, edx
  00011	74 32		 je	 SHORT $LN1@erase@3

; 1195 : 			{	// worth doing, copy down over hole
; 1196 :  #if _ITERATOR_DEBUG_LEVEL == 2
; 1197 : 			if (_Last < _First || _VICONT(_First) != this
; 1198 : 				|| _VIPTR(_First) < this->_Myfirst
; 1199 : 				|| this->_Mylast < _VIPTR(_Last))
; 1200 : 				_DEBUG_ERROR("vector erase iterator outside range");
; 1201 : 			pointer _Ptr = _Move(_VIPTR(_Last), this->_Mylast,
; 1202 : 				_VIPTR(_First));
; 1203 : 			_Orphan_range(_VIPTR(_First), this->_Mylast);
; 1204 : 
; 1205 :  #else /* _ITERATOR_DEBUG_LEVEL == 2 */
; 1206 : 			pointer _Ptr = _Move(_VIPTR(_Last), this->_Mylast,
; 1207 : 				_VIPTR(_First));

  00013	57		 push	 edi
  00014	8b 79 04	 mov	 edi, DWORD PTR [ecx+4]
  00017	3b d7		 cmp	 edx, edi
  00019	74 26		 je	 SHORT $LN30@erase@3
  0001b	53		 push	 ebx
  0001c	8d 64 24 00	 npad	 4
$LL32@erase@3:
  00020	8b 1a		 mov	 ebx, DWORD PTR [edx]
  00022	89 1e		 mov	 DWORD PTR [esi], ebx
  00024	8b 5a 04	 mov	 ebx, DWORD PTR [edx+4]
  00027	89 5e 04	 mov	 DWORD PTR [esi+4], ebx
  0002a	8b 5a 08	 mov	 ebx, DWORD PTR [edx+8]
  0002d	89 5e 08	 mov	 DWORD PTR [esi+8], ebx
  00030	8b 5a 0c	 mov	 ebx, DWORD PTR [edx+12]
  00033	89 5e 0c	 mov	 DWORD PTR [esi+12], ebx
  00036	83 c2 10	 add	 edx, 16			; 00000010H
  00039	83 c6 10	 add	 esi, 16			; 00000010H
  0003c	3b d7		 cmp	 edx, edi
  0003e	75 e0		 jne	 SHORT $LL32@erase@3
  00040	5b		 pop	 ebx
$LN30@erase@3:

; 1208 :  #endif /* _ITERATOR_DEBUG_LEVEL == 2 */
; 1209 : 
; 1210 : 			_Destroy(_Ptr, this->_Mylast);
; 1211 : 			this->_Mylast = _Ptr;

  00041	89 71 04	 mov	 DWORD PTR [ecx+4], esi
  00044	5f		 pop	 edi
$LN1@erase@3:
  00045	5e		 pop	 esi

; 1212 : 			}
; 1213 : 		return (_First);
; 1214 : 		}

  00046	5d		 pop	 ebp
  00047	c2 0c 00	 ret	 12			; 0000000cH
?erase@?$vector@UEVENT_ID_TIME@@V?$allocator@UEVENT_ID_TIME@@@std@@@std@@QAE?AV?$_Vector_iterator@V?$_Vector_val@UEVENT_ID_TIME@@V?$allocator@UEVENT_ID_TIME@@@std@@@std@@@2@V?$_Vector_const_iterator@V?$_Vector_val@UEVENT_ID_TIME@@V?$allocator@UEVENT_ID_TIME@@@std@@@std@@@2@0@Z ENDP ; std::vector<EVENT_ID_TIME,std::allocator<EVENT_ID_TIME> >::erase
_TEXT	ENDS
PUBLIC	?_Tidy@?$vector@UEVENT_ID_TIME@@V?$allocator@UEVENT_ID_TIME@@@std@@@std@@IAEXXZ ; std::vector<EVENT_ID_TIME,std::allocator<EVENT_ID_TIME> >::_Tidy
; Function compile flags: /Ogtp
;	COMDAT ?_Tidy@?$vector@UEVENT_ID_TIME@@V?$allocator@UEVENT_ID_TIME@@@std@@@std@@IAEXXZ
_TEXT	SEGMENT
?_Tidy@?$vector@UEVENT_ID_TIME@@V?$allocator@UEVENT_ID_TIME@@@std@@@std@@IAEXXZ PROC ; std::vector<EVENT_ID_TIME,std::allocator<EVENT_ID_TIME> >::_Tidy, COMDAT
; _this$ = ecx

; 1301 : 		{	// free all storage

  00000	56		 push	 esi
  00001	8b f1		 mov	 esi, ecx

; 1302 : 		if (this->_Myfirst != 0)

  00003	8b 06		 mov	 eax, DWORD PTR [esi]
  00005	85 c0		 test	 eax, eax
  00007	74 09		 je	 SHORT $LN6@Tidy

; 1303 : 			{	// something to free, destroy and deallocate it
; 1304 : 			this->_Orphan_all();
; 1305 : 			_Destroy(this->_Myfirst, this->_Mylast);
; 1306 : 			this->_Alval.deallocate(this->_Myfirst,
; 1307 : 				this->_Myend - this->_Myfirst);

  00009	50		 push	 eax
  0000a	e8 00 00 00 00	 call	 ??3@YAXPAX@Z		; operator delete
  0000f	83 c4 04	 add	 esp, 4
$LN6@Tidy:

; 1308 : 			}
; 1309 : 		this->_Myfirst = 0;

  00012	c7 06 00 00 00
	00		 mov	 DWORD PTR [esi], 0

; 1310 : 		this->_Mylast = 0;

  00018	c7 46 04 00 00
	00 00		 mov	 DWORD PTR [esi+4], 0

; 1311 : 		this->_Myend = 0;

  0001f	c7 46 08 00 00
	00 00		 mov	 DWORD PTR [esi+8], 0
  00026	5e		 pop	 esi

; 1312 : 		}

  00027	c3		 ret	 0
?_Tidy@?$vector@UEVENT_ID_TIME@@V?$allocator@UEVENT_ID_TIME@@@std@@@std@@IAEXXZ ENDP ; std::vector<EVENT_ID_TIME,std::allocator<EVENT_ID_TIME> >::_Tidy
_TEXT	ENDS
PUBLIC	?reserve@?$vector@UEVENT_ID_TIME@@V?$allocator@UEVENT_ID_TIME@@@std@@@std@@QAEXI@Z ; std::vector<EVENT_ID_TIME,std::allocator<EVENT_ID_TIME> >::reserve
;	COMDAT xdata$x
; File c:\program files (x86)\microsoft visual studio 10.0\vc\include\xutility
xdata$x	SEGMENT
__catchsym$?reserve@?$vector@UEVENT_ID_TIME@@V?$allocator@UEVENT_ID_TIME@@@std@@@std@@QAEXI@Z$2 DD 040H
	DD	00H
	DD	00H
	DD	FLAT:__catch$?reserve@?$vector@UEVENT_ID_TIME@@V?$allocator@UEVENT_ID_TIME@@@std@@@std@@QAEXI@Z$0
__unwindtable$?reserve@?$vector@UEVENT_ID_TIME@@V?$allocator@UEVENT_ID_TIME@@@std@@@std@@QAEXI@Z DD 0ffffffffH
	DD	00H
	DD	0ffffffffH
	DD	00H
__tryblocktable$?reserve@?$vector@UEVENT_ID_TIME@@V?$allocator@UEVENT_ID_TIME@@@std@@@std@@QAEXI@Z DD 00H
	DD	00H
	DD	01H
	DD	01H
	DD	FLAT:__catchsym$?reserve@?$vector@UEVENT_ID_TIME@@V?$allocator@UEVENT_ID_TIME@@@std@@@std@@QAEXI@Z$2
__ehfuncinfo$?reserve@?$vector@UEVENT_ID_TIME@@V?$allocator@UEVENT_ID_TIME@@@std@@@std@@QAEXI@Z DD 019930522H
	DD	02H
	DD	FLAT:__unwindtable$?reserve@?$vector@UEVENT_ID_TIME@@V?$allocator@UEVENT_ID_TIME@@@std@@@std@@QAEXI@Z
	DD	01H
	DD	FLAT:__tryblocktable$?reserve@?$vector@UEVENT_ID_TIME@@V?$allocator@UEVENT_ID_TIME@@@std@@@std@@QAEXI@Z
	DD	2 DUP(00H)
	DD	00H
	DD	01H
; Function compile flags: /Ogtp
; File c:\program files (x86)\microsoft visual studio 10.0\vc\include\vector
xdata$x	ENDS
;	COMDAT ?reserve@?$vector@UEVENT_ID_TIME@@V?$allocator@UEVENT_ID_TIME@@@std@@@std@@QAEXI@Z
_TEXT	SEGMENT
__Ptr$157264 = -20					; size = 4
__$EHRec$ = -16						; size = 16
__Cat$165003 = 8					; size = 1
__Count$ = 8						; size = 4
?reserve@?$vector@UEVENT_ID_TIME@@V?$allocator@UEVENT_ID_TIME@@@std@@@std@@QAEXI@Z PROC ; std::vector<EVENT_ID_TIME,std::allocator<EVENT_ID_TIME> >::reserve, COMDAT
; _this$ = ecx

; 746  : 		{	// determine new minimum length of allocated storage

  00000	55		 push	 ebp
  00001	8b ec		 mov	 ebp, esp
  00003	6a ff		 push	 -1
  00005	68 00 00 00 00	 push	 __ehhandler$?reserve@?$vector@UEVENT_ID_TIME@@V?$allocator@UEVENT_ID_TIME@@@std@@@std@@QAEXI@Z
  0000a	64 a1 00 00 00
	00		 mov	 eax, DWORD PTR fs:0
  00010	50		 push	 eax
  00011	83 ec 08	 sub	 esp, 8
  00014	53		 push	 ebx
  00015	56		 push	 esi
  00016	57		 push	 edi
  00017	a1 00 00 00 00	 mov	 eax, DWORD PTR ___security_cookie
  0001c	33 c5		 xor	 eax, ebp
  0001e	50		 push	 eax
  0001f	8d 45 f4	 lea	 eax, DWORD PTR __$EHRec$[ebp+4]
  00022	64 a3 00 00 00
	00		 mov	 DWORD PTR fs:0, eax
  00028	89 65 f0	 mov	 DWORD PTR __$EHRec$[ebp], esp
  0002b	8b f1		 mov	 esi, ecx

; 747  : 		if (max_size() < _Count)

  0002d	8b 45 08	 mov	 eax, DWORD PTR __Count$[ebp]
  00030	3d ff ff ff 0f	 cmp	 eax, 268435455		; 0fffffffH
  00035	76 0a		 jbe	 SHORT $LN5@reserve

; 748  : 			_Xlen();	// result too long

  00037	68 00 00 00 00	 push	 OFFSET ??_C@_0BD@OLBABOEK@vector?$DMT?$DO?5too?5long?$AA@
  0003c	e8 00 00 00 00	 call	 ?_Xlength_error@std@@YAXPBD@Z ; std::_Xlength_error
$LN42@reserve:
$LN5@reserve:

; 749  : 		else if (capacity() < _Count)

  00041	8b 4e 08	 mov	 ecx, DWORD PTR [esi+8]
  00044	2b 0e		 sub	 ecx, DWORD PTR [esi]
  00046	c1 f9 04	 sar	 ecx, 4
  00049	3b c8		 cmp	 ecx, eax
  0004b	73 57		 jae	 SHORT $LN3@reserve

; 750  : 			{	// not enough room, reallocate
; 751  : 			pointer _Ptr = this->_Alval.allocate(_Count);

  0004d	8d 7e 0c	 lea	 edi, DWORD PTR [esi+12]
  00050	50		 push	 eax
  00051	8b cf		 mov	 ecx, edi
  00053	e8 00 00 00 00	 call	 ?allocate@?$allocator@UEVENT_ID_TIME@@@std@@QAEPAUEVENT_ID_TIME@@I@Z ; std::allocator<EVENT_ID_TIME>::allocate

; 752  : 
; 753  : 			_TRY_BEGIN
; 754  : 			_Umove(this->_Myfirst, this->_Mylast, _Ptr);

  00058	8b 55 08	 mov	 edx, DWORD PTR __Cat$165003[ebp]
  0005b	8b 0e		 mov	 ecx, DWORD PTR [esi]
  0005d	52		 push	 edx
  0005e	6a 00		 push	 0
  00060	8b d8		 mov	 ebx, eax
  00062	8b 46 04	 mov	 eax, DWORD PTR [esi+4]
  00065	57		 push	 edi
  00066	53		 push	 ebx
  00067	50		 push	 eax
  00068	51		 push	 ecx
  00069	89 5d ec	 mov	 DWORD PTR __Ptr$157264[ebp], ebx
  0006c	c7 45 fc 00 00
	00 00		 mov	 DWORD PTR __$EHRec$[ebp+12], 0
  00073	e8 00 00 00 00	 call	 ??$_Uninit_move@PAUEVENT_ID_TIME@@PAU1@V?$allocator@UEVENT_ID_TIME@@@std@@U1@@std@@YAPAUEVENT_ID_TIME@@PAU1@00AAV?$allocator@UEVENT_ID_TIME@@@0@0U_Nonscalar_ptr_iterator_tag@0@@Z ; std::_Uninit_move<EVENT_ID_TIME *,EVENT_ID_TIME *,std::allocator<EVENT_ID_TIME>,EVENT_ID_TIME>

; 758  : 			_CATCH_END
; 759  : 
; 760  : 			size_type _Size = size();

  00078	8b 06		 mov	 eax, DWORD PTR [esi]
  0007a	8b 7e 04	 mov	 edi, DWORD PTR [esi+4]
  0007d	83 c4 18	 add	 esp, 24			; 00000018H
  00080	2b f8		 sub	 edi, eax

; 761  : 			if (this->_Myfirst != 0)

  00082	85 c0		 test	 eax, eax
  00084	74 09		 je	 SHORT $LN35@reserve

; 762  : 				{	// destroy and deallocate old array
; 763  : 				_Destroy(this->_Myfirst, this->_Mylast);
; 764  : 				this->_Alval.deallocate(this->_Myfirst,
; 765  : 					this->_Myend - this->_Myfirst);

  00086	50		 push	 eax
  00087	e8 00 00 00 00	 call	 ??3@YAXPAX@Z		; operator delete
  0008c	83 c4 04	 add	 esp, 4
$LN35@reserve:

; 766  : 				}
; 767  : 
; 768  : 			this->_Orphan_all();
; 769  : 			this->_Myend = _Ptr + _Count;

  0008f	8b 45 08	 mov	 eax, DWORD PTR __Count$[ebp]
  00092	c1 e0 04	 shl	 eax, 4
  00095	03 c3		 add	 eax, ebx

; 770  : 			this->_Mylast = _Ptr + _Size;

  00097	83 e7 f0	 and	 edi, -16		; fffffff0H
  0009a	03 fb		 add	 edi, ebx
  0009c	89 46 08	 mov	 DWORD PTR [esi+8], eax
  0009f	89 7e 04	 mov	 DWORD PTR [esi+4], edi

; 771  : 			this->_Myfirst = _Ptr;

  000a2	89 1e		 mov	 DWORD PTR [esi], ebx
$LN3@reserve:

; 772  : 			}
; 773  : 		}

  000a4	8b 4d f4	 mov	 ecx, DWORD PTR __$EHRec$[ebp+4]
  000a7	64 89 0d 00 00
	00 00		 mov	 DWORD PTR fs:0, ecx
  000ae	59		 pop	 ecx
  000af	5f		 pop	 edi
  000b0	5e		 pop	 esi
  000b1	5b		 pop	 ebx
  000b2	8b e5		 mov	 esp, ebp
  000b4	5d		 pop	 ebp
  000b5	c2 04 00	 ret	 4
__catch$?reserve@?$vector@UEVENT_ID_TIME@@V?$allocator@UEVENT_ID_TIME@@@std@@@std@@QAEXI@Z$0:

; 755  : 			_CATCH_ALL
; 756  : 			this->_Alval.deallocate(_Ptr, _Count);

  000b8	8b 45 ec	 mov	 eax, DWORD PTR __Ptr$157264[ebp]
  000bb	50		 push	 eax
  000bc	e8 00 00 00 00	 call	 ??3@YAXPAX@Z		; operator delete
  000c1	83 c4 04	 add	 esp, 4

; 757  : 			_RERAISE;

  000c4	6a 00		 push	 0
  000c6	6a 00		 push	 0
  000c8	e8 00 00 00 00	 call	 __CxxThrowException@8
$LN43@reserve:
$LN41@reserve:
  000cd	cc		 int	 3
_TEXT	ENDS
;	COMDAT text$x
text$x	SEGMENT
__ehhandler$?reserve@?$vector@UEVENT_ID_TIME@@V?$allocator@UEVENT_ID_TIME@@@std@@@std@@QAEXI@Z:
  00000	8b 54 24 08	 mov	 edx, DWORD PTR [esp+8]
  00004	8d 42 0c	 lea	 eax, DWORD PTR [edx+12]
  00007	8b 4a e8	 mov	 ecx, DWORD PTR [edx-24]
  0000a	33 c8		 xor	 ecx, eax
  0000c	e8 00 00 00 00	 call	 @__security_check_cookie@4
  00011	b8 00 00 00 00	 mov	 eax, OFFSET __ehfuncinfo$?reserve@?$vector@UEVENT_ID_TIME@@V?$allocator@UEVENT_ID_TIME@@@std@@@std@@QAEXI@Z
  00016	e9 00 00 00 00	 jmp	 ___CxxFrameHandler3
text$x	ENDS
?reserve@?$vector@UEVENT_ID_TIME@@V?$allocator@UEVENT_ID_TIME@@@std@@@std@@QAEXI@Z ENDP ; std::vector<EVENT_ID_TIME,std::allocator<EVENT_ID_TIME> >::reserve
PUBLIC	??1?$map@HPAXU?$less@H@std@@V?$allocator@U?$pair@$$CBHPAX@std@@@2@@std@@QAE@XZ ; std::map<int,void *,std::less<int>,std::allocator<std::pair<int const ,void *> > >::~map<int,void *,std::less<int>,std::allocator<std::pair<int const ,void *> > >
;	COMDAT xdata$x
xdata$x	SEGMENT
__unwindtable$??1?$map@HPAXU?$less@H@std@@V?$allocator@U?$pair@$$CBHPAX@std@@@2@@std@@QAE@XZ DD 0ffffffffH
	DD	FLAT:__unwindfunclet$??1?$map@HPAXU?$less@H@std@@V?$allocator@U?$pair@$$CBHPAX@std@@@2@@std@@QAE@XZ$1
__ehfuncinfo$??1?$map@HPAXU?$less@H@std@@V?$allocator@U?$pair@$$CBHPAX@std@@@2@@std@@QAE@XZ DD 019930522H
	DD	01H
	DD	FLAT:__unwindtable$??1?$map@HPAXU?$less@H@std@@V?$allocator@U?$pair@$$CBHPAX@std@@@2@@std@@QAE@XZ
	DD	2 DUP(00H)
	DD	2 DUP(00H)
	DD	00H
	DD	01H
; Function compile flags: /Ogtp
xdata$x	ENDS
;	COMDAT ??1?$map@HPAXU?$less@H@std@@V?$allocator@U?$pair@$$CBHPAX@std@@@2@@std@@QAE@XZ
_TEXT	SEGMENT
$T165178 = -20						; size = 4
_this$ = -16						; size = 4
__$EHRec$ = -12						; size = 12
??1?$map@HPAXU?$less@H@std@@V?$allocator@U?$pair@$$CBHPAX@std@@@2@@std@@QAE@XZ PROC ; std::map<int,void *,std::less<int>,std::allocator<std::pair<int const ,void *> > >::~map<int,void *,std::less<int>,std::allocator<std::pair<int const ,void *> > >, COMDAT
; _this$ = ecx
  00000	55		 push	 ebp
  00001	8b ec		 mov	 ebp, esp
  00003	6a ff		 push	 -1
  00005	68 00 00 00 00	 push	 __ehhandler$??1?$map@HPAXU?$less@H@std@@V?$allocator@U?$pair@$$CBHPAX@std@@@2@@std@@QAE@XZ
  0000a	64 a1 00 00 00
	00		 mov	 eax, DWORD PTR fs:0
  00010	50		 push	 eax
  00011	83 ec 08	 sub	 esp, 8
  00014	56		 push	 esi
  00015	a1 00 00 00 00	 mov	 eax, DWORD PTR ___security_cookie
  0001a	33 c5		 xor	 eax, ebp
  0001c	50		 push	 eax
  0001d	8d 45 f4	 lea	 eax, DWORD PTR __$EHRec$[ebp]
  00020	64 a3 00 00 00
	00		 mov	 DWORD PTR fs:0, eax
  00026	8b f1		 mov	 esi, ecx
  00028	89 75 f0	 mov	 DWORD PTR _this$[ebp], esi
  0002b	8b 46 04	 mov	 eax, DWORD PTR [esi+4]
  0002e	8b 08		 mov	 ecx, DWORD PTR [eax]
  00030	50		 push	 eax
  00031	51		 push	 ecx
  00032	8d 45 ec	 lea	 eax, DWORD PTR $T165178[ebp]
  00035	50		 push	 eax
  00036	8b ce		 mov	 ecx, esi
  00038	c7 45 fc 00 00
	00 00		 mov	 DWORD PTR __$EHRec$[ebp+8], 0
  0003f	e8 00 00 00 00	 call	 ?erase@?$_Tree@V?$_Tmap_traits@HPAXU?$less@H@std@@V?$allocator@U?$pair@$$CBHPAX@std@@@2@$0A@@std@@@std@@QAE?AV?$_Tree_iterator@V?$_Tree_val@V?$_Tmap_traits@HPAXU?$less@H@std@@V?$allocator@U?$pair@$$CBHPAX@std@@@2@$0A@@std@@@std@@@2@V?$_Tree_const_iterator@V?$_Tree_val@V?$_Tmap_traits@HPAXU?$less@H@std@@V?$allocator@U?$pair@$$CBHPAX@std@@@2@$0A@@std@@@std@@@2@0@Z ; std::_Tree<std::_Tmap_traits<int,void *,std::less<int>,std::allocator<std::pair<int const ,void *> >,0> >::erase
  00044	8b 4e 04	 mov	 ecx, DWORD PTR [esi+4]
  00047	51		 push	 ecx
  00048	e8 00 00 00 00	 call	 ??3@YAXPAX@Z		; operator delete
  0004d	83 c4 04	 add	 esp, 4
  00050	8b 4d f4	 mov	 ecx, DWORD PTR __$EHRec$[ebp]
  00053	64 89 0d 00 00
	00 00		 mov	 DWORD PTR fs:0, ecx
  0005a	59		 pop	 ecx
  0005b	5e		 pop	 esi
  0005c	8b e5		 mov	 esp, ebp
  0005e	5d		 pop	 ebp
  0005f	c3		 ret	 0
_TEXT	ENDS
;	COMDAT text$x
text$x	SEGMENT
__unwindfunclet$??1?$map@HPAXU?$less@H@std@@V?$allocator@U?$pair@$$CBHPAX@std@@@2@@std@@QAE@XZ$1:
  00000	8b 4d f0	 mov	 ecx, DWORD PTR _this$[ebp]
  00003	e9 00 00 00 00	 jmp	 ??1?$_Tree_val@V?$_Tmap_traits@HPAXU?$less@H@std@@V?$allocator@U?$pair@$$CBHPAX@std@@@2@$0A@@std@@@std@@QAE@XZ ; std::_Tree_val<std::_Tmap_traits<int,void *,std::less<int>,std::allocator<std::pair<int const ,void *> >,0> >::~_Tree_val<std::_Tmap_traits<int,void *,std::less<int>,std::allocator<std::pair<int const ,void *> >,0> >
__ehhandler$??1?$map@HPAXU?$less@H@std@@V?$allocator@U?$pair@$$CBHPAX@std@@@2@@std@@QAE@XZ:
  00008	8b 54 24 08	 mov	 edx, DWORD PTR [esp+8]
  0000c	8d 42 0c	 lea	 eax, DWORD PTR [edx+12]
  0000f	8b 4a f0	 mov	 ecx, DWORD PTR [edx-16]
  00012	33 c8		 xor	 ecx, eax
  00014	e8 00 00 00 00	 call	 @__security_check_cookie@4
  00019	b8 00 00 00 00	 mov	 eax, OFFSET __ehfuncinfo$??1?$map@HPAXU?$less@H@std@@V?$allocator@U?$pair@$$CBHPAX@std@@@2@@std@@QAE@XZ
  0001e	e9 00 00 00 00	 jmp	 ___CxxFrameHandler3
text$x	ENDS
??1?$map@HPAXU?$less@H@std@@V?$allocator@U?$pair@$$CBHPAX@std@@@2@@std@@QAE@XZ ENDP ; std::map<int,void *,std::less<int>,std::allocator<std::pair<int const ,void *> > >::~map<int,void *,std::less<int>,std::allocator<std::pair<int const ,void *> > >
PUBLIC	??_C@_0DP@MCJNEPAH@?$KB?$NL?$KB?$NM?$FLEvent?5Management?$FN?5?$MA?L?$LK?$KF?F?$KO?$LN?C?$MA@ ; `string'
PUBLIC	??_C@_0DD@KCCAIPNL@?$KB?$NL?$KB?$NM?$FLEvent?5Management?$FN?5?$LD?$KP?B?$KF?5?$LK?$KP?$LA?f@ ; `string'
PUBLIC	__$ArrayPad$
PUBLIC	?Run@CEventManagement@@QAEXXZ			; CEventManagement::Run
EXTRN	?LogAdd@@YAXW4eLogColor@@PADZZ:PROC		; LogAdd
;	COMDAT ??_C@_0DP@MCJNEPAH@?$KB?$NL?$KB?$NM?$FLEvent?5Management?$FN?5?$MA?L?$LK?$KF?F?$KO?$LN?C?$MA@
CONST	SEGMENT
??_C@_0DP@MCJNEPAH@?$KB?$NL?$KB?$NM?$FLEvent?5Management?$FN?5?$MA?L?$LK?$KF?F?$KO?$LN?C?$MA@ DB 0a1H
	DB	0dbH, 0a1H, 0dcH, '[Event Management] ', 0c0H, 0ccH, 0baH, 0a5H
	DB	0c6H, 0aeH, 0bdH, 0c3H, 0c0H, 0dbH, 0c7H, 0d4H, '. (%d) %02d %'
	DB	'02d (state=%d)', 00H			; `string'
CONST	ENDS
;	COMDAT ??_C@_0DD@KCCAIPNL@?$KB?$NL?$KB?$NM?$FLEvent?5Management?$FN?5?$LD?$KP?B?$KF?5?$LK?$KP?$LA?f@
CONST	SEGMENT
??_C@_0DD@KCCAIPNL@?$KB?$NL?$KB?$NM?$FLEvent?5Management?$FN?5?$LD?$KP?B?$KF?5?$LK?$KP?$LA?f@ DB 0a1H
	DB	0dbH, 0a1H, 0dcH, '[Event Management] ', 0b3H, 0afH, 0c2H, 0a5H
	DB	' ', 0baH, 0afH, 0b0H, 0e6H, 0b5H, 0caH, '. %02d %02d %02d', 00H ; `string'
; Function compile flags: /Ogtp
; File c:\users\faelhs\mu-1.1\emu - gameserver sapphire s0\gameserver\eventmanagement.cpp
CONST	ENDS
;	COMDAT ?Run@CEventManagement@@QAEXXZ
_TEXT	SEGMENT
_sysTime$ = -20						; size = 16
__$ArrayPad$ = -4					; size = 4
?Run@CEventManagement@@QAEXXZ PROC			; CEventManagement::Run, COMDAT
; _this$ = ecx

; 162  : {

  00000	55		 push	 ebp
  00001	8b ec		 mov	 ebp, esp
  00003	83 ec 14	 sub	 esp, 20			; 00000014H
  00006	a1 00 00 00 00	 mov	 eax, DWORD PTR ___security_cookie
  0000b	33 c5		 xor	 eax, ebp
  0000d	89 45 fc	 mov	 DWORD PTR __$ArrayPad$[ebp], eax
  00010	57		 push	 edi
  00011	8b f9		 mov	 edi, ecx

; 163  : 	if ( this->m_bEventStart == false || this->m_bHasData == false || this->m_vtEventTime.empty() != FALSE )

  00013	83 7f 04 00	 cmp	 DWORD PTR [edi+4], 0
  00017	0f 84 da 00 00
	00		 je	 $LN10@Run
  0001d	83 7f 08 00	 cmp	 DWORD PTR [edi+8], 0
  00021	0f 84 d0 00 00
	00		 je	 $LN10@Run
  00027	8b 47 0c	 mov	 eax, DWORD PTR [edi+12]
  0002a	3b 47 10	 cmp	 eax, DWORD PTR [edi+16]
  0002d	0f 84 c4 00 00
	00		 je	 $LN10@Run

; 164  : 	{
; 165  : 		return;
; 166  : 	}
; 167  : 
; 168  : 	SYSTEMTIME sysTime;
; 169  : 	std::vector<EVENT_ID_TIME>::iterator it;
; 170  : 
; 171  : 	GetLocalTime(&sysTime);

  00033	8d 4d ec	 lea	 ecx, DWORD PTR _sysTime$[ebp]
  00036	51		 push	 ecx
  00037	ff 15 00 00 00
	00		 call	 DWORD PTR __imp__GetLocalTime@4

; 172  : 
; 173  : 	if ( this->m_wToday_Year != sysTime.wYear || this->m_wToday_Month != sysTime.wMonth || this->m_wToday_Day != sysTime.wDay )

  0003d	66 8b 57 2c	 mov	 dx, WORD PTR [edi+44]
  00041	66 3b 55 ec	 cmp	 dx, WORD PTR _sysTime$[ebp]
  00045	75 14		 jne	 SHORT $LN8@Run
  00047	66 8b 47 2e	 mov	 ax, WORD PTR [edi+46]
  0004b	66 3b 45 ee	 cmp	 ax, WORD PTR _sysTime$[ebp+2]
  0004f	75 0a		 jne	 SHORT $LN8@Run
  00051	66 8b 4f 30	 mov	 cx, WORD PTR [edi+48]
  00055	66 3b 4d f2	 cmp	 cx, WORD PTR _sysTime$[ebp+6]
  00059	74 4a		 je	 SHORT $LN9@Run
$LN8@Run:

; 174  : 	{
; 175  : 		for ( it = this->m_vtEventTime.begin() ; it != this->m_vtEventTime.end() ; it++ )

  0005b	8b 47 0c	 mov	 eax, DWORD PTR [edi+12]
  0005e	3b 47 10	 cmp	 eax, DWORD PTR [edi+16]
  00061	74 0c		 je	 SHORT $LN5@Run
$LL32@Run:

; 176  : 		{
; 177  : 			(*(it)).m_bEventStarted = false;

  00063	c6 40 0c 00	 mov	 BYTE PTR [eax+12], 0
  00067	83 c0 10	 add	 eax, 16			; 00000010H
  0006a	3b 47 10	 cmp	 eax, DWORD PTR [edi+16]
  0006d	75 f4		 jne	 SHORT $LL32@Run
$LN5@Run:

; 178  : 		}
; 179  : 
; 180  : 		LogAdd(LOG_BLACK, "[Event Management]  . %02d %02d %02d", this->m_wToday_Year, this->m_wToday_Month, this->m_wToday_Day);	// Deathway Need Translation

  0006f	0f b7 57 30	 movzx	 edx, WORD PTR [edi+48]
  00073	0f b7 47 2e	 movzx	 eax, WORD PTR [edi+46]
  00077	0f b7 4f 2c	 movzx	 ecx, WORD PTR [edi+44]
  0007b	52		 push	 edx
  0007c	50		 push	 eax
  0007d	51		 push	 ecx
  0007e	68 00 00 00 00	 push	 OFFSET ??_C@_0DD@KCCAIPNL@?$KB?$NL?$KB?$NM?$FLEvent?5Management?$FN?5?$LD?$KP?B?$KF?5?$LK?$KP?$LA?f@
  00083	6a 00		 push	 0
  00085	e8 00 00 00 00	 call	 ?LogAdd@@YAXW4eLogColor@@PADZZ ; LogAdd

; 181  : 
; 182  : 		this->m_wToday_Year = sysTime.wYear;

  0008a	66 8b 55 ec	 mov	 dx, WORD PTR _sysTime$[ebp]

; 183  : 		this->m_wToday_Month = sysTime.wMonth;

  0008e	66 8b 45 ee	 mov	 ax, WORD PTR _sysTime$[ebp+2]

; 184  : 		this->m_wToday_Day = sysTime.wDay;

  00092	66 8b 4d f2	 mov	 cx, WORD PTR _sysTime$[ebp+6]
  00096	83 c4 14	 add	 esp, 20			; 00000014H
  00099	66 89 57 2c	 mov	 WORD PTR [edi+44], dx
  0009d	66 89 47 2e	 mov	 WORD PTR [edi+46], ax
  000a1	66 89 4f 30	 mov	 WORD PTR [edi+48], cx
$LN9@Run:

; 185  : 	}
; 186  : 
; 187  : 	for ( it = this->m_vtEventTime.begin() ; it != this->m_vtEventTime.end() ; it++ )

  000a5	56		 push	 esi
  000a6	8b 77 0c	 mov	 esi, DWORD PTR [edi+12]
  000a9	3b 77 10	 cmp	 esi, DWORD PTR [edi+16]
  000ac	74 48		 je	 SHORT $LN143@Run
  000ae	8b ff		 npad	 2
$LL67@Run:

; 188  : 	{
; 189  : 		if ( sysTime.wHour == (*(it)).m_iHour && sysTime.wMinute == (*(it)).m_iMinute && (*(it)).m_bEventStarted == false )

  000b0	0f b7 55 f4	 movzx	 edx, WORD PTR _sysTime$[ebp+8]
  000b4	8b 4e 04	 mov	 ecx, DWORD PTR [esi+4]
  000b7	3b d1		 cmp	 edx, ecx
  000b9	75 33		 jne	 SHORT $LN3@Run
  000bb	0f b7 45 f6	 movzx	 eax, WORD PTR _sysTime$[ebp+10]
  000bf	3b 46 08	 cmp	 eax, DWORD PTR [esi+8]
  000c2	75 2a		 jne	 SHORT $LN3@Run
  000c4	80 7e 0c 00	 cmp	 BYTE PTR [esi+12], 0
  000c8	75 24		 jne	 SHORT $LN3@Run

; 190  : 		{
; 191  : 			LogAdd(LOG_BLACK, "[Event Management] . (%d) %02d %02d (state=%d)",
; 192  : 				(*(it)).m_eEventKind , (*(it)).m_iHour, sysTime.wMinute , (*(it)).m_bEventStarted);	// #error Deathway Need Translation

  000ca	6a 00		 push	 0
  000cc	50		 push	 eax
  000cd	8b 06		 mov	 eax, DWORD PTR [esi]
  000cf	51		 push	 ecx
  000d0	50		 push	 eax
  000d1	68 00 00 00 00	 push	 OFFSET ??_C@_0DP@MCJNEPAH@?$KB?$NL?$KB?$NM?$FLEvent?5Management?$FN?5?$MA?L?$LK?$KF?F?$KO?$LN?C?$MA@
  000d6	6a 00		 push	 0
  000d8	e8 00 00 00 00	 call	 ?LogAdd@@YAXW4eLogColor@@PADZZ ; LogAdd

; 193  : 
; 194  : 			(*(it)).m_bEventStarted = true;
; 195  : 			this->StartEvent((*(it)).m_eEventKind);

  000dd	8b 0e		 mov	 ecx, DWORD PTR [esi]
  000df	83 c4 18	 add	 esp, 24			; 00000018H
  000e2	51		 push	 ecx
  000e3	8b cf		 mov	 ecx, edi
  000e5	c6 46 0c 01	 mov	 BYTE PTR [esi+12], 1
  000e9	e8 00 00 00 00	 call	 ?StartEvent@CEventManagement@@QAEXH@Z ; CEventManagement::StartEvent
$LN3@Run:

; 185  : 	}
; 186  : 
; 187  : 	for ( it = this->m_vtEventTime.begin() ; it != this->m_vtEventTime.end() ; it++ )

  000ee	83 c6 10	 add	 esi, 16			; 00000010H
  000f1	3b 77 10	 cmp	 esi, DWORD PTR [edi+16]
  000f4	75 ba		 jne	 SHORT $LL67@Run
$LN143@Run:
  000f6	5e		 pop	 esi
$LN10@Run:

; 196  : 		}
; 197  : 	}
; 198  : }

  000f7	8b 4d fc	 mov	 ecx, DWORD PTR __$ArrayPad$[ebp]
  000fa	33 cd		 xor	 ecx, ebp
  000fc	5f		 pop	 edi
  000fd	e8 00 00 00 00	 call	 @__security_check_cookie@4
  00102	8b e5		 mov	 esp, ebp
  00104	5d		 pop	 ebp
  00105	c3		 ret	 0
?Run@CEventManagement@@QAEXXZ ENDP			; CEventManagement::Run
_TEXT	ENDS
PUBLIC	??1?$vector@UEVENT_ID_TIME@@V?$allocator@UEVENT_ID_TIME@@@std@@@std@@QAE@XZ ; std::vector<EVENT_ID_TIME,std::allocator<EVENT_ID_TIME> >::~vector<EVENT_ID_TIME,std::allocator<EVENT_ID_TIME> >
; Function compile flags: /Ogtp
; File c:\program files (x86)\microsoft visual studio 10.0\vc\include\vector
;	COMDAT ??1?$vector@UEVENT_ID_TIME@@V?$allocator@UEVENT_ID_TIME@@@std@@@std@@QAE@XZ
_TEXT	SEGMENT
??1?$vector@UEVENT_ID_TIME@@V?$allocator@UEVENT_ID_TIME@@@std@@@std@@QAE@XZ PROC ; std::vector<EVENT_ID_TIME,std::allocator<EVENT_ID_TIME> >::~vector<EVENT_ID_TIME,std::allocator<EVENT_ID_TIME> >, COMDAT
; _this$ = ecx

; 704  : 		{	// destroy the object

  00000	56		 push	 esi
  00001	8b f1		 mov	 esi, ecx

; 705  : 		_Tidy();

  00003	8b 06		 mov	 eax, DWORD PTR [esi]
  00005	85 c0		 test	 eax, eax
  00007	74 09		 je	 SHORT $LN8@vector
  00009	50		 push	 eax
  0000a	e8 00 00 00 00	 call	 ??3@YAXPAX@Z		; operator delete
  0000f	83 c4 04	 add	 esp, 4
$LN8@vector:
  00012	c7 06 00 00 00
	00		 mov	 DWORD PTR [esi], 0
  00018	c7 46 04 00 00
	00 00		 mov	 DWORD PTR [esi+4], 0
  0001f	c7 46 08 00 00
	00 00		 mov	 DWORD PTR [esi+8], 0
  00026	5e		 pop	 esi

; 706  : 		}

  00027	c3		 ret	 0
??1?$vector@UEVENT_ID_TIME@@V?$allocator@UEVENT_ID_TIME@@@std@@@std@@QAE@XZ ENDP ; std::vector<EVENT_ID_TIME,std::allocator<EVENT_ID_TIME> >::~vector<EVENT_ID_TIME,std::allocator<EVENT_ID_TIME> >
_TEXT	ENDS
PUBLIC	?clear@?$vector@UEVENT_ID_TIME@@V?$allocator@UEVENT_ID_TIME@@@std@@@std@@QAEXXZ ; std::vector<EVENT_ID_TIME,std::allocator<EVENT_ID_TIME> >::clear
; Function compile flags: /Ogtp
;	COMDAT ?clear@?$vector@UEVENT_ID_TIME@@V?$allocator@UEVENT_ID_TIME@@@std@@@std@@QAEXXZ
_TEXT	SEGMENT
?clear@?$vector@UEVENT_ID_TIME@@V?$allocator@UEVENT_ID_TIME@@@std@@@std@@QAEXXZ PROC ; std::vector<EVENT_ID_TIME,std::allocator<EVENT_ID_TIME> >::clear, COMDAT
; _this$ = ecx

; 1218 : 		erase(begin(), end());

  00000	8b 11		 mov	 edx, DWORD PTR [ecx]
  00002	56		 push	 esi
  00003	8b 71 04	 mov	 esi, DWORD PTR [ecx+4]
  00006	3b d6		 cmp	 edx, esi
  00008	74 2b		 je	 SHORT $LN19@clear@2
  0000a	8b c6		 mov	 eax, esi
  0000c	3b f6		 cmp	 esi, esi
  0000e	74 22		 je	 SHORT $LN48@clear@2
  00010	57		 push	 edi
$LL50@clear@2:
  00011	8b 38		 mov	 edi, DWORD PTR [eax]
  00013	89 3a		 mov	 DWORD PTR [edx], edi
  00015	8b 78 04	 mov	 edi, DWORD PTR [eax+4]
  00018	89 7a 04	 mov	 DWORD PTR [edx+4], edi
  0001b	8b 78 08	 mov	 edi, DWORD PTR [eax+8]
  0001e	89 7a 08	 mov	 DWORD PTR [edx+8], edi
  00021	8b 78 0c	 mov	 edi, DWORD PTR [eax+12]
  00024	89 7a 0c	 mov	 DWORD PTR [edx+12], edi
  00027	83 c0 10	 add	 eax, 16			; 00000010H
  0002a	83 c2 10	 add	 edx, 16			; 00000010H
  0002d	3b c6		 cmp	 eax, esi
  0002f	75 e0		 jne	 SHORT $LL50@clear@2
  00031	5f		 pop	 edi
$LN48@clear@2:
  00032	89 51 04	 mov	 DWORD PTR [ecx+4], edx
$LN19@clear@2:
  00035	5e		 pop	 esi

; 1219 : 		}

  00036	c3		 ret	 0
?clear@?$vector@UEVENT_ID_TIME@@V?$allocator@UEVENT_ID_TIME@@@std@@@std@@QAEXXZ ENDP ; std::vector<EVENT_ID_TIME,std::allocator<EVENT_ID_TIME> >::clear
_TEXT	ENDS
PUBLIC	??0?$map@HPAXU?$less@H@std@@V?$allocator@U?$pair@$$CBHPAX@std@@@2@@std@@QAE@XZ ; std::map<int,void *,std::less<int>,std::allocator<std::pair<int const ,void *> > >::map<int,void *,std::less<int>,std::allocator<std::pair<int const ,void *> > >
; Function compile flags: /Ogtp
; File c:\program files (x86)\microsoft visual studio 10.0\vc\include\map
;	COMDAT ??0?$map@HPAXU?$less@H@std@@V?$allocator@U?$pair@$$CBHPAX@std@@@2@@std@@QAE@XZ
_TEXT	SEGMENT
$T165906 = -16						; size = 12
$T165798 = -4						; size = 4
??0?$map@HPAXU?$less@H@std@@V?$allocator@U?$pair@$$CBHPAX@std@@@2@@std@@QAE@XZ PROC ; std::map<int,void *,std::less<int>,std::allocator<std::pair<int const ,void *> > >::map<int,void *,std::less<int>,std::allocator<std::pair<int const ,void *> > >, COMDAT
; _this$ = ecx

; 106  : 		{	// construct empty map from defaults

  00000	55		 push	 ebp
  00001	8b ec		 mov	 ebp, esp
  00003	83 ec 10	 sub	 esp, 16			; 00000010H
  00006	56		 push	 esi
  00007	8b f1		 mov	 esi, ecx
  00009	6a 18		 push	 24			; 00000018H
  0000b	c7 46 08 00 00
	00 00		 mov	 DWORD PTR [esi+8], 0
  00012	e8 00 00 00 00	 call	 ??2@YAPAXI@Z		; operator new
  00017	83 c4 04	 add	 esp, 4
  0001a	85 c0		 test	 eax, eax
  0001c	74 26		 je	 SHORT $LN25@map
  0001e	89 46 04	 mov	 DWORD PTR [esi+4], eax
  00021	89 00		 mov	 DWORD PTR [eax], eax
  00023	8b 46 04	 mov	 eax, DWORD PTR [esi+4]
  00026	89 40 04	 mov	 DWORD PTR [eax+4], eax
  00029	8b 46 04	 mov	 eax, DWORD PTR [esi+4]
  0002c	89 40 08	 mov	 DWORD PTR [eax+8], eax
  0002f	8b 4e 04	 mov	 ecx, DWORD PTR [esi+4]
  00032	b0 01		 mov	 al, 1
  00034	88 41 14	 mov	 BYTE PTR [ecx+20], al
  00037	8b 56 04	 mov	 edx, DWORD PTR [esi+4]
  0003a	88 42 15	 mov	 BYTE PTR [edx+21], al

; 107  : 		}

  0003d	8b c6		 mov	 eax, esi
  0003f	5e		 pop	 esi
  00040	8b e5		 mov	 esp, ebp
  00042	5d		 pop	 ebp
  00043	c3		 ret	 0

; 106  : 		{	// construct empty map from defaults

$LN25@map:
  00044	8d 45 fc	 lea	 eax, DWORD PTR $T165798[ebp]
  00047	50		 push	 eax
  00048	8d 4d f0	 lea	 ecx, DWORD PTR $T165906[ebp]
  0004b	c7 45 fc 00 00
	00 00		 mov	 DWORD PTR $T165798[ebp], 0
  00052	e8 00 00 00 00	 call	 ??0exception@std@@QAE@ABQBD@Z ; std::exception::exception
  00057	68 00 00 00 00	 push	 OFFSET __TI2?AVbad_alloc@std@@
  0005c	8d 4d f0	 lea	 ecx, DWORD PTR $T165906[ebp]
  0005f	51		 push	 ecx
  00060	c7 45 f0 00 00
	00 00		 mov	 DWORD PTR $T165906[ebp], OFFSET ??_7bad_alloc@std@@6B@
  00067	e8 00 00 00 00	 call	 __CxxThrowException@8
$LN49@map:
$LN48@map:
  0006c	cc		 int	 3
??0?$map@HPAXU?$less@H@std@@V?$allocator@U?$pair@$$CBHPAX@std@@@2@@std@@QAE@XZ ENDP ; std::map<int,void *,std::less<int>,std::allocator<std::pair<int const ,void *> > >::map<int,void *,std::less<int>,std::allocator<std::pair<int const ,void *> > >
_TEXT	ENDS
PUBLIC	?_Reserve@?$vector@UEVENT_ID_TIME@@V?$allocator@UEVENT_ID_TIME@@@std@@@std@@IAEXI@Z ; std::vector<EVENT_ID_TIME,std::allocator<EVENT_ID_TIME> >::_Reserve
; Function compile flags: /Ogtp
; File c:\program files (x86)\microsoft visual studio 10.0\vc\include\vector
;	COMDAT ?_Reserve@?$vector@UEVENT_ID_TIME@@V?$allocator@UEVENT_ID_TIME@@@std@@@std@@IAEXI@Z
_TEXT	SEGMENT
__Count$ = 8						; size = 4
?_Reserve@?$vector@UEVENT_ID_TIME@@V?$allocator@UEVENT_ID_TIME@@@std@@@std@@IAEXI@Z PROC ; std::vector<EVENT_ID_TIME,std::allocator<EVENT_ID_TIME> >::_Reserve, COMDAT
; _this$ = ecx

; 1290 : 		{	// ensure room for _Count new elements, grow exponentially

  00000	55		 push	 ebp
  00001	8b ec		 mov	 ebp, esp

; 1291 : 		size_type _Size = size();

  00003	8b 41 04	 mov	 eax, DWORD PTR [ecx+4]

; 1292 : 		if (max_size() - _Count < _Size)

  00006	8b 55 08	 mov	 edx, DWORD PTR __Count$[ebp]
  00009	56		 push	 esi
  0000a	8b 31		 mov	 esi, DWORD PTR [ecx]
  0000c	57		 push	 edi
  0000d	2b c6		 sub	 eax, esi
  0000f	bf ff ff ff 0f	 mov	 edi, 268435455		; 0fffffffH
  00014	c1 f8 04	 sar	 eax, 4
  00017	2b fa		 sub	 edi, edx
  00019	3b f8		 cmp	 edi, eax
  0001b	73 0a		 jae	 SHORT $LN4@Reserve

; 1293 : 			_Xlen();

  0001d	68 00 00 00 00	 push	 OFFSET ??_C@_0BD@OLBABOEK@vector?$DMT?$DO?5too?5long?$AA@
  00022	e8 00 00 00 00	 call	 ?_Xlength_error@std@@YAXPBD@Z ; std::_Xlength_error
$LN34@Reserve:
$LN4@Reserve:

; 1294 : 		else if ((_Size += _Count) <= capacity())

  00027	03 c2		 add	 eax, edx
  00029	8b 51 08	 mov	 edx, DWORD PTR [ecx+8]
  0002c	2b d6		 sub	 edx, esi
  0002e	c1 fa 04	 sar	 edx, 4
  00031	3b c2		 cmp	 eax, edx
  00033	76 21		 jbe	 SHORT $LN1@Reserve

; 1295 : 			;
; 1296 : 		else
; 1297 : 			reserve(_Grow_to(_Size));

  00035	8b f2		 mov	 esi, edx
  00037	d1 ee		 shr	 esi, 1
  00039	bf ff ff ff 0f	 mov	 edi, 268435455		; 0fffffffH
  0003e	2b fe		 sub	 edi, esi
  00040	3b fa		 cmp	 edi, edx
  00042	73 04		 jae	 SHORT $LN23@Reserve
  00044	33 d2		 xor	 edx, edx
  00046	eb 02		 jmp	 SHORT $LN24@Reserve
$LN23@Reserve:
  00048	03 d6		 add	 edx, esi
$LN24@Reserve:
  0004a	3b d0		 cmp	 edx, eax
  0004c	73 02		 jae	 SHORT $LN20@Reserve
  0004e	8b d0		 mov	 edx, eax
$LN20@Reserve:
  00050	52		 push	 edx
  00051	e8 00 00 00 00	 call	 ?reserve@?$vector@UEVENT_ID_TIME@@V?$allocator@UEVENT_ID_TIME@@@std@@@std@@QAEXI@Z ; std::vector<EVENT_ID_TIME,std::allocator<EVENT_ID_TIME> >::reserve
$LN1@Reserve:
  00056	5f		 pop	 edi
  00057	5e		 pop	 esi

; 1298 : 		}

  00058	5d		 pop	 ebp
  00059	c2 04 00	 ret	 4
$LN33@Reserve:
?_Reserve@?$vector@UEVENT_ID_TIME@@V?$allocator@UEVENT_ID_TIME@@@std@@@std@@IAEXI@Z ENDP ; std::vector<EVENT_ID_TIME,std::allocator<EVENT_ID_TIME> >::_Reserve
_TEXT	ENDS
PUBLIC	??_7CEventManagement@@6B@			; CEventManagement::`vftable'
PUBLIC	??1CEventManagement@@UAE@XZ			; CEventManagement::~CEventManagement
PUBLIC	??_R4CEventManagement@@6B@			; CEventManagement::`RTTI Complete Object Locator'
PUBLIC	??_R0?AVCEventManagement@@@8			; CEventManagement `RTTI Type Descriptor'
PUBLIC	??_R3CEventManagement@@8			; CEventManagement::`RTTI Class Hierarchy Descriptor'
PUBLIC	??_R2CEventManagement@@8			; CEventManagement::`RTTI Base Class Array'
PUBLIC	??_R1A@?0A@EA@CEventManagement@@8		; CEventManagement::`RTTI Base Class Descriptor at (0,-1,0,64)'
EXTRN	??_ECEventManagement@@UAEPAXI@Z:PROC		; CEventManagement::`vector deleting destructor'
;	COMDAT ??_R1A@?0A@EA@CEventManagement@@8
rdata$r	SEGMENT
??_R1A@?0A@EA@CEventManagement@@8 DD FLAT:??_R0?AVCEventManagement@@@8 ; CEventManagement::`RTTI Base Class Descriptor at (0,-1,0,64)'
	DD	00H
	DD	00H
	DD	0ffffffffH
	DD	00H
	DD	040H
	DD	FLAT:??_R3CEventManagement@@8
rdata$r	ENDS
;	COMDAT ??_R2CEventManagement@@8
rdata$r	SEGMENT
??_R2CEventManagement@@8 DD FLAT:??_R1A@?0A@EA@CEventManagement@@8 ; CEventManagement::`RTTI Base Class Array'
rdata$r	ENDS
;	COMDAT ??_R3CEventManagement@@8
rdata$r	SEGMENT
??_R3CEventManagement@@8 DD 00H				; CEventManagement::`RTTI Class Hierarchy Descriptor'
	DD	00H
	DD	01H
	DD	FLAT:??_R2CEventManagement@@8
rdata$r	ENDS
;	COMDAT ??_R0?AVCEventManagement@@@8
_DATA	SEGMENT
??_R0?AVCEventManagement@@@8 DD FLAT:??_7type_info@@6B@	; CEventManagement `RTTI Type Descriptor'
	DD	00H
	DB	'.?AVCEventManagement@@', 00H
_DATA	ENDS
;	COMDAT ??_R4CEventManagement@@6B@
rdata$r	SEGMENT
??_R4CEventManagement@@6B@ DD 00H			; CEventManagement::`RTTI Complete Object Locator'
	DD	00H
	DD	00H
	DD	FLAT:??_R0?AVCEventManagement@@@8
	DD	FLAT:??_R3CEventManagement@@8
rdata$r	ENDS
;	COMDAT ??_7CEventManagement@@6B@
CONST	SEGMENT
??_7CEventManagement@@6B@ DD FLAT:??_R4CEventManagement@@6B@ ; CEventManagement::`vftable'
	DD	FLAT:??_ECEventManagement@@UAEPAXI@Z
CONST	ENDS
;	COMDAT xdata$x
xdata$x	SEGMENT
__unwindtable$??1CEventManagement@@UAE@XZ DD 0ffffffffH
	DD	FLAT:__unwindfunclet$??1CEventManagement@@UAE@XZ$0
	DD	00H
	DD	FLAT:__unwindfunclet$??1CEventManagement@@UAE@XZ$3
__ehfuncinfo$??1CEventManagement@@UAE@XZ DD 019930522H
	DD	02H
	DD	FLAT:__unwindtable$??1CEventManagement@@UAE@XZ
	DD	2 DUP(00H)
	DD	2 DUP(00H)
	DD	00H
	DD	01H
; Function compile flags: /Ogtp
; File c:\users\faelhs\mu-1.1\emu - gameserver sapphire s0\gameserver\eventmanagement.cpp
xdata$x	ENDS
;	COMDAT ??1CEventManagement@@UAE@XZ
_TEXT	SEGMENT
$T166173 = -24						; size = 4
$T166205 = -20						; size = 4
_this$ = -16						; size = 4
__$EHRec$ = -12						; size = 12
??1CEventManagement@@UAE@XZ PROC			; CEventManagement::~CEventManagement, COMDAT
; _this$ = ecx

; 26   : {

  00000	55		 push	 ebp
  00001	8b ec		 mov	 ebp, esp
  00003	6a ff		 push	 -1
  00005	68 00 00 00 00	 push	 __ehhandler$??1CEventManagement@@UAE@XZ
  0000a	64 a1 00 00 00
	00		 mov	 eax, DWORD PTR fs:0
  00010	50		 push	 eax
  00011	83 ec 0c	 sub	 esp, 12			; 0000000cH
  00014	53		 push	 ebx
  00015	56		 push	 esi
  00016	57		 push	 edi
  00017	a1 00 00 00 00	 mov	 eax, DWORD PTR ___security_cookie
  0001c	33 c5		 xor	 eax, ebp
  0001e	50		 push	 eax
  0001f	8d 45 f4	 lea	 eax, DWORD PTR __$EHRec$[ebp]
  00022	64 a3 00 00 00
	00		 mov	 DWORD PTR fs:0, eax
  00028	8b f1		 mov	 esi, ecx
  0002a	89 75 f0	 mov	 DWORD PTR _this$[ebp], esi
  0002d	c7 06 00 00 00
	00		 mov	 DWORD PTR [esi], OFFSET ??_7CEventManagement@@6B@
  00033	33 db		 xor	 ebx, ebx

; 27   : 	return;
; 28   : }

  00035	8d 7e 1c	 lea	 edi, DWORD PTR [esi+28]
  00038	89 5d fc	 mov	 DWORD PTR __$EHRec$[ebp+8], ebx
  0003b	89 7d ec	 mov	 DWORD PTR $T166205[ebp], edi
  0003e	8b 47 04	 mov	 eax, DWORD PTR [edi+4]
  00041	8b 08		 mov	 ecx, DWORD PTR [eax]
  00043	50		 push	 eax
  00044	51		 push	 ecx
  00045	8d 45 e8	 lea	 eax, DWORD PTR $T166173[ebp]
  00048	50		 push	 eax
  00049	8b cf		 mov	 ecx, edi
  0004b	c6 45 fc 01	 mov	 BYTE PTR __$EHRec$[ebp+8], 1
  0004f	e8 00 00 00 00	 call	 ?erase@?$_Tree@V?$_Tmap_traits@HPAXU?$less@H@std@@V?$allocator@U?$pair@$$CBHPAX@std@@@2@$0A@@std@@@std@@QAE?AV?$_Tree_iterator@V?$_Tree_val@V?$_Tmap_traits@HPAXU?$less@H@std@@V?$allocator@U?$pair@$$CBHPAX@std@@@2@$0A@@std@@@std@@@2@V?$_Tree_const_iterator@V?$_Tree_val@V?$_Tmap_traits@HPAXU?$less@H@std@@V?$allocator@U?$pair@$$CBHPAX@std@@@2@$0A@@std@@@std@@@2@0@Z ; std::_Tree<std::_Tmap_traits<int,void *,std::less<int>,std::allocator<std::pair<int const ,void *> >,0> >::erase
  00054	8b 4f 04	 mov	 ecx, DWORD PTR [edi+4]
  00057	51		 push	 ecx
  00058	e8 00 00 00 00	 call	 ??3@YAXPAX@Z		; operator delete
  0005d	8b 46 0c	 mov	 eax, DWORD PTR [esi+12]
  00060	83 c4 04	 add	 esp, 4
  00063	3b c3		 cmp	 eax, ebx
  00065	74 09		 je	 SHORT $LN48@CEventMana
  00067	50		 push	 eax
  00068	e8 00 00 00 00	 call	 ??3@YAXPAX@Z		; operator delete
  0006d	83 c4 04	 add	 esp, 4
$LN48@CEventMana:
  00070	89 5e 0c	 mov	 DWORD PTR [esi+12], ebx
  00073	89 5e 10	 mov	 DWORD PTR [esi+16], ebx
  00076	89 5e 14	 mov	 DWORD PTR [esi+20], ebx
  00079	8b 4d f4	 mov	 ecx, DWORD PTR __$EHRec$[ebp]
  0007c	64 89 0d 00 00
	00 00		 mov	 DWORD PTR fs:0, ecx
  00083	59		 pop	 ecx
  00084	5f		 pop	 edi
  00085	5e		 pop	 esi
  00086	5b		 pop	 ebx
  00087	8b e5		 mov	 esp, ebp
  00089	5d		 pop	 ebp
  0008a	c3		 ret	 0
_TEXT	ENDS
;	COMDAT text$x
text$x	SEGMENT
__unwindfunclet$??1CEventManagement@@UAE@XZ$0:
  00000	8b 4d f0	 mov	 ecx, DWORD PTR _this$[ebp]
  00003	83 c1 0c	 add	 ecx, 12			; 0000000cH
  00006	e9 00 00 00 00	 jmp	 ??1?$vector@UEVENT_ID_TIME@@V?$allocator@UEVENT_ID_TIME@@@std@@@std@@QAE@XZ ; std::vector<EVENT_ID_TIME,std::allocator<EVENT_ID_TIME> >::~vector<EVENT_ID_TIME,std::allocator<EVENT_ID_TIME> >
__unwindfunclet$??1CEventManagement@@UAE@XZ$3:
  0000b	8b 4d ec	 mov	 ecx, DWORD PTR $T166205[ebp]
  0000e	e9 00 00 00 00	 jmp	 ??1?$_Tree_val@V?$_Tmap_traits@HPAXU?$less@H@std@@V?$allocator@U?$pair@$$CBHPAX@std@@@2@$0A@@std@@@std@@QAE@XZ ; std::_Tree_val<std::_Tmap_traits<int,void *,std::less<int>,std::allocator<std::pair<int const ,void *> >,0> >::~_Tree_val<std::_Tmap_traits<int,void *,std::less<int>,std::allocator<std::pair<int const ,void *> >,0> >
__ehhandler$??1CEventManagement@@UAE@XZ:
  00013	8b 54 24 08	 mov	 edx, DWORD PTR [esp+8]
  00017	8d 42 0c	 lea	 eax, DWORD PTR [edx+12]
  0001a	8b 4a e4	 mov	 ecx, DWORD PTR [edx-28]
  0001d	33 c8		 xor	 ecx, eax
  0001f	e8 00 00 00 00	 call	 @__security_check_cookie@4
  00024	b8 00 00 00 00	 mov	 eax, OFFSET __ehfuncinfo$??1CEventManagement@@UAE@XZ
  00029	e9 00 00 00 00	 jmp	 ___CxxFrameHandler3
text$x	ENDS
??1CEventManagement@@UAE@XZ ENDP			; CEventManagement::~CEventManagement
PUBLIC	?Clear@CEventManagement@@QAEXXZ			; CEventManagement::Clear
; Function compile flags: /Ogtp
;	COMDAT ?Clear@CEventManagement@@QAEXXZ
_TEXT	SEGMENT
?Clear@CEventManagement@@QAEXXZ PROC			; CEventManagement::Clear, COMDAT
; _this$ = ecx

; 31   : {

  00000	56		 push	 esi
  00001	8b f1		 mov	 esi, ecx

; 32   : 	this->m_vtEventTime.clear();

  00003	8b 4e 0c	 mov	 ecx, DWORD PTR [esi+12]
  00006	8b 56 10	 mov	 edx, DWORD PTR [esi+16]
  00009	3b ca		 cmp	 ecx, edx
  0000b	74 2b		 je	 SHORT $LN21@Clear
  0000d	8b c2		 mov	 eax, edx
  0000f	3b d2		 cmp	 edx, edx
  00011	74 22		 je	 SHORT $LN50@Clear
  00013	57		 push	 edi
$LL52@Clear:
  00014	8b 38		 mov	 edi, DWORD PTR [eax]
  00016	89 39		 mov	 DWORD PTR [ecx], edi
  00018	8b 78 04	 mov	 edi, DWORD PTR [eax+4]
  0001b	89 79 04	 mov	 DWORD PTR [ecx+4], edi
  0001e	8b 78 08	 mov	 edi, DWORD PTR [eax+8]
  00021	89 79 08	 mov	 DWORD PTR [ecx+8], edi
  00024	8b 78 0c	 mov	 edi, DWORD PTR [eax+12]
  00027	89 79 0c	 mov	 DWORD PTR [ecx+12], edi
  0002a	83 c0 10	 add	 eax, 16			; 00000010H
  0002d	83 c1 10	 add	 ecx, 16			; 00000010H
  00030	3b c2		 cmp	 eax, edx
  00032	75 e0		 jne	 SHORT $LL52@Clear
  00034	5f		 pop	 edi
$LN50@Clear:
  00035	89 4e 10	 mov	 DWORD PTR [esi+16], ecx
$LN21@Clear:

; 33   : 	this->m_mapEventObj.clear();

  00038	8d 4e 1c	 lea	 ecx, DWORD PTR [esi+28]
  0003b	e8 00 00 00 00	 call	 ?clear@?$_Tree@V?$_Tmap_traits@HPAXU?$less@H@std@@V?$allocator@U?$pair@$$CBHPAX@std@@@2@$0A@@std@@@std@@QAEXXZ ; std::_Tree<std::_Tmap_traits<int,void *,std::less<int>,std::allocator<std::pair<int const ,void *> >,0> >::clear

; 34   : 	this->m_wToday_Year = 0;

  00040	33 c0		 xor	 eax, eax

; 35   : 	this->m_wToday_Month = 0;
; 36   : 	this->m_wToday_Day = 0;

  00042	33 d2		 xor	 edx, edx
  00044	89 46 2c	 mov	 DWORD PTR [esi+44], eax
  00047	66 89 56 30	 mov	 WORD PTR [esi+48], dx
  0004b	5e		 pop	 esi

; 37   : }

  0004c	c3		 ret	 0
?Clear@CEventManagement@@QAEXXZ ENDP			; CEventManagement::Clear
_TEXT	ENDS
PUBLIC	?push_back@?$vector@UEVENT_ID_TIME@@V?$allocator@UEVENT_ID_TIME@@@std@@@std@@QAEXABUEVENT_ID_TIME@@@Z ; std::vector<EVENT_ID_TIME,std::allocator<EVENT_ID_TIME> >::push_back
; Function compile flags: /Ogtp
; File c:\program files (x86)\microsoft visual studio 10.0\vc\include\vector
;	COMDAT ?push_back@?$vector@UEVENT_ID_TIME@@V?$allocator@UEVENT_ID_TIME@@@std@@@std@@QAEXABUEVENT_ID_TIME@@@Z
_TEXT	SEGMENT
__Val$ = 8						; size = 4
?push_back@?$vector@UEVENT_ID_TIME@@V?$allocator@UEVENT_ID_TIME@@@std@@@std@@QAEXABUEVENT_ID_TIME@@@Z PROC ; std::vector<EVENT_ID_TIME,std::allocator<EVENT_ID_TIME> >::push_back, COMDAT
; _this$ = ecx

; 976  : 		{	// insert element at end

  00000	55		 push	 ebp
  00001	8b ec		 mov	 ebp, esp
  00003	56		 push	 esi
  00004	8b f1		 mov	 esi, ecx

; 977  : 		if (_Inside(_STD addressof(_Val)))

  00006	8b 46 04	 mov	 eax, DWORD PTR [esi+4]
  00009	57		 push	 edi
  0000a	8b 7d 08	 mov	 edi, DWORD PTR __Val$[ebp]
  0000d	3b f8		 cmp	 edi, eax
  0000f	73 36		 jae	 SHORT $LN4@push_back
  00011	8b 0e		 mov	 ecx, DWORD PTR [esi]
  00013	3b cf		 cmp	 ecx, edi
  00015	77 30		 ja	 SHORT $LN4@push_back

; 978  : 			{	// push back an element
; 979  : 			size_type _Idx = _STD addressof(_Val) - this->_Myfirst;

  00017	2b f9		 sub	 edi, ecx

; 980  : 			if (this->_Mylast == this->_Myend)

  00019	3b 46 08	 cmp	 eax, DWORD PTR [esi+8]
  0001c	75 09		 jne	 SHORT $LN3@push_back

; 981  : 				_Reserve(1);

  0001e	6a 01		 push	 1
  00020	8b ce		 mov	 ecx, esi
  00022	e8 00 00 00 00	 call	 ?_Reserve@?$vector@UEVENT_ID_TIME@@V?$allocator@UEVENT_ID_TIME@@@std@@@std@@IAEXI@Z ; std::vector<EVENT_ID_TIME,std::allocator<EVENT_ID_TIME> >::_Reserve
$LN3@push_back:

; 982  : 			_Orphan_range(this->_Mylast, this->_Mylast);
; 983  : 			_Cons_val(this->_Alval,
; 984  : 				this->_Mylast,
; 985  : 				this->_Myfirst[_Idx]);

  00027	8b 46 04	 mov	 eax, DWORD PTR [esi+4]
  0002a	83 e7 f0	 and	 edi, -16		; fffffff0H
  0002d	03 3e		 add	 edi, DWORD PTR [esi]
  0002f	8d 4e 0c	 lea	 ecx, DWORD PTR [esi+12]
  00032	57		 push	 edi
  00033	50		 push	 eax
  00034	51		 push	 ecx
  00035	e8 00 00 00 00	 call	 ??$_Cons_val@V?$allocator@UEVENT_ID_TIME@@@std@@UEVENT_ID_TIME@@AAU3@@std@@YAXAAV?$allocator@UEVENT_ID_TIME@@@0@PAUEVENT_ID_TIME@@AAU2@@Z ; std::_Cons_val<std::allocator<EVENT_ID_TIME>,EVENT_ID_TIME,EVENT_ID_TIME &>

; 992  : 			_Orphan_range(this->_Mylast, this->_Mylast);
; 993  : 			_Cons_val(this->_Alval,
; 994  : 				this->_Mylast,
; 995  : 				_Val);

  0003a	83 c4 0c	 add	 esp, 12			; 0000000cH

; 996  : 			++this->_Mylast;

  0003d	83 46 04 10	 add	 DWORD PTR [esi+4], 16	; 00000010H
  00041	5f		 pop	 edi
  00042	5e		 pop	 esi

; 997  : 			}
; 998  : 		}

  00043	5d		 pop	 ebp
  00044	c2 04 00	 ret	 4
$LN4@push_back:

; 986  : 			++this->_Mylast;
; 987  : 			}
; 988  : 		else
; 989  : 			{	// push back a non-element
; 990  : 			if (this->_Mylast == this->_Myend)

  00047	3b 46 08	 cmp	 eax, DWORD PTR [esi+8]
  0004a	75 09		 jne	 SHORT $LN1@push_back

; 991  : 				_Reserve(1);

  0004c	6a 01		 push	 1
  0004e	8b ce		 mov	 ecx, esi
  00050	e8 00 00 00 00	 call	 ?_Reserve@?$vector@UEVENT_ID_TIME@@V?$allocator@UEVENT_ID_TIME@@@std@@@std@@IAEXI@Z ; std::vector<EVENT_ID_TIME,std::allocator<EVENT_ID_TIME> >::_Reserve
$LN1@push_back:

; 992  : 			_Orphan_range(this->_Mylast, this->_Mylast);
; 993  : 			_Cons_val(this->_Alval,
; 994  : 				this->_Mylast,
; 995  : 				_Val);

  00055	8b 56 04	 mov	 edx, DWORD PTR [esi+4]
  00058	57		 push	 edi
  00059	52		 push	 edx
  0005a	8d 46 0c	 lea	 eax, DWORD PTR [esi+12]
  0005d	50		 push	 eax
  0005e	e8 00 00 00 00	 call	 ??$_Cons_val@V?$allocator@UEVENT_ID_TIME@@@std@@UEVENT_ID_TIME@@ABU3@@std@@YAXAAV?$allocator@UEVENT_ID_TIME@@@0@PAUEVENT_ID_TIME@@ABU2@@Z ; std::_Cons_val<std::allocator<EVENT_ID_TIME>,EVENT_ID_TIME,EVENT_ID_TIME const &>
  00063	83 c4 0c	 add	 esp, 12			; 0000000cH

; 996  : 			++this->_Mylast;

  00066	83 46 04 10	 add	 DWORD PTR [esi+4], 16	; 00000010H
  0006a	5f		 pop	 edi
  0006b	5e		 pop	 esi

; 997  : 			}
; 998  : 		}

  0006c	5d		 pop	 ebp
  0006d	c2 04 00	 ret	 4
?push_back@?$vector@UEVENT_ID_TIME@@V?$allocator@UEVENT_ID_TIME@@@std@@@std@@QAEXABUEVENT_ID_TIME@@@Z ENDP ; std::vector<EVENT_ID_TIME,std::allocator<EVENT_ID_TIME> >::push_back
_TEXT	ENDS
PUBLIC	??0CEventManagement@@QAE@XZ			; CEventManagement::CEventManagement
;	COMDAT xdata$x
; File c:\program files (x86)\microsoft visual studio 10.0\vc\include\xtree
xdata$x	SEGMENT
__unwindtable$??0CEventManagement@@QAE@XZ DD 0ffffffffH
	DD	FLAT:__unwindfunclet$??0CEventManagement@@QAE@XZ$0
	DD	00H
	DD	FLAT:__unwindfunclet$??0CEventManagement@@QAE@XZ$1
__ehfuncinfo$??0CEventManagement@@QAE@XZ DD 019930522H
	DD	02H
	DD	FLAT:__unwindtable$??0CEventManagement@@QAE@XZ
	DD	2 DUP(00H)
	DD	2 DUP(00H)
	DD	00H
	DD	01H
; Function compile flags: /Ogtp
; File c:\users\faelhs\mu-1.1\emu - gameserver sapphire s0\gameserver\eventmanagement.cpp
xdata$x	ENDS
;	COMDAT ??0CEventManagement@@QAE@XZ
_TEXT	SEGMENT
$T166761 = -32						; size = 12
_this$ = -20						; size = 4
$T166607 = -16						; size = 4
__$EHRec$ = -12						; size = 12
??0CEventManagement@@QAE@XZ PROC			; CEventManagement::CEventManagement, COMDAT
; _this$ = ecx

; 19   : {

  00000	55		 push	 ebp
  00001	8b ec		 mov	 ebp, esp
  00003	6a ff		 push	 -1
  00005	68 00 00 00 00	 push	 __ehhandler$??0CEventManagement@@QAE@XZ
  0000a	64 a1 00 00 00
	00		 mov	 eax, DWORD PTR fs:0
  00010	50		 push	 eax
  00011	83 ec 14	 sub	 esp, 20			; 00000014H
  00014	56		 push	 esi
  00015	57		 push	 edi
  00016	a1 00 00 00 00	 mov	 eax, DWORD PTR ___security_cookie
  0001b	33 c5		 xor	 eax, ebp
  0001d	50		 push	 eax
  0001e	8d 45 f4	 lea	 eax, DWORD PTR __$EHRec$[ebp]
  00021	64 a3 00 00 00
	00		 mov	 DWORD PTR fs:0, eax
  00027	8b f1		 mov	 esi, ecx
  00029	89 75 ec	 mov	 DWORD PTR _this$[ebp], esi
  0002c	33 ff		 xor	 edi, edi
  0002e	c7 06 00 00 00
	00		 mov	 DWORD PTR [esi], OFFSET ??_7CEventManagement@@6B@
  00034	89 7e 0c	 mov	 DWORD PTR [esi+12], edi
  00037	89 7e 10	 mov	 DWORD PTR [esi+16], edi
  0003a	89 7e 14	 mov	 DWORD PTR [esi+20], edi
  0003d	6a 18		 push	 24			; 00000018H
  0003f	89 7d fc	 mov	 DWORD PTR __$EHRec$[ebp+8], edi
  00042	89 7e 24	 mov	 DWORD PTR [esi+36], edi
  00045	e8 00 00 00 00	 call	 ??2@YAPAXI@Z		; operator new
  0004a	83 c4 04	 add	 esp, 4
  0004d	3b c7		 cmp	 eax, edi
  0004f	74 42		 je	 SHORT $LN37@CEventMana@2
  00051	89 46 20	 mov	 DWORD PTR [esi+32], eax
  00054	89 00		 mov	 DWORD PTR [eax], eax
  00056	8b 46 20	 mov	 eax, DWORD PTR [esi+32]
  00059	89 40 04	 mov	 DWORD PTR [eax+4], eax
  0005c	8b 46 20	 mov	 eax, DWORD PTR [esi+32]
  0005f	89 40 08	 mov	 DWORD PTR [eax+8], eax
  00062	8b 4e 20	 mov	 ecx, DWORD PTR [esi+32]
  00065	b0 01		 mov	 al, 1
  00067	88 41 14	 mov	 BYTE PTR [ecx+20], al
  0006a	8b 56 20	 mov	 edx, DWORD PTR [esi+32]
  0006d	88 42 15	 mov	 BYTE PTR [edx+21], al

; 20   : 	this->m_bEventStart = false;
; 21   : 	this->m_bHasData = false;
; 22   : 	this->Clear();

  00070	8b ce		 mov	 ecx, esi
  00072	88 45 fc	 mov	 BYTE PTR __$EHRec$[ebp+8], al
  00075	89 7e 04	 mov	 DWORD PTR [esi+4], edi
  00078	89 7e 08	 mov	 DWORD PTR [esi+8], edi
  0007b	e8 00 00 00 00	 call	 ?Clear@CEventManagement@@QAEXXZ ; CEventManagement::Clear

; 23   : }

  00080	8b c6		 mov	 eax, esi
  00082	8b 4d f4	 mov	 ecx, DWORD PTR __$EHRec$[ebp]
  00085	64 89 0d 00 00
	00 00		 mov	 DWORD PTR fs:0, ecx
  0008c	59		 pop	 ecx
  0008d	5f		 pop	 edi
  0008e	5e		 pop	 esi
  0008f	8b e5		 mov	 esp, ebp
  00091	5d		 pop	 ebp
  00092	c3		 ret	 0

; 19   : {

$LN37@CEventMana@2:
  00093	8d 45 f0	 lea	 eax, DWORD PTR $T166607[ebp]
  00096	50		 push	 eax
  00097	8d 4d e0	 lea	 ecx, DWORD PTR $T166761[ebp]
  0009a	89 7d f0	 mov	 DWORD PTR $T166607[ebp], edi
  0009d	e8 00 00 00 00	 call	 ??0exception@std@@QAE@ABQBD@Z ; std::exception::exception
  000a2	68 00 00 00 00	 push	 OFFSET __TI2?AVbad_alloc@std@@
  000a7	8d 4d e0	 lea	 ecx, DWORD PTR $T166761[ebp]
  000aa	51		 push	 ecx
  000ab	c7 45 e0 00 00
	00 00		 mov	 DWORD PTR $T166761[ebp], OFFSET ??_7bad_alloc@std@@6B@
  000b2	e8 00 00 00 00	 call	 __CxxThrowException@8
$LN63@CEventMana@2:
$LN62@CEventMana@2:
  000b7	cc		 int	 3
_TEXT	ENDS
;	COMDAT text$x
text$x	SEGMENT
__unwindfunclet$??0CEventManagement@@QAE@XZ$0:
  00000	8b 4d ec	 mov	 ecx, DWORD PTR _this$[ebp]
  00003	83 c1 0c	 add	 ecx, 12			; 0000000cH
  00006	e9 00 00 00 00	 jmp	 ??1?$vector@UEVENT_ID_TIME@@V?$allocator@UEVENT_ID_TIME@@@std@@@std@@QAE@XZ ; std::vector<EVENT_ID_TIME,std::allocator<EVENT_ID_TIME> >::~vector<EVENT_ID_TIME,std::allocator<EVENT_ID_TIME> >
__unwindfunclet$??0CEventManagement@@QAE@XZ$1:
  0000b	8b 4d ec	 mov	 ecx, DWORD PTR _this$[ebp]
  0000e	83 c1 1c	 add	 ecx, 28			; 0000001cH
  00011	e9 00 00 00 00	 jmp	 ??1?$map@HPAXU?$less@H@std@@V?$allocator@U?$pair@$$CBHPAX@std@@@2@@std@@QAE@XZ
__ehhandler$??0CEventManagement@@QAE@XZ:
  00016	8b 54 24 08	 mov	 edx, DWORD PTR [esp+8]
  0001a	8d 42 0c	 lea	 eax, DWORD PTR [edx+12]
  0001d	8b 4a e0	 mov	 ecx, DWORD PTR [edx-32]
  00020	33 c8		 xor	 ecx, eax
  00022	e8 00 00 00 00	 call	 @__security_check_cookie@4
  00027	b8 00 00 00 00	 mov	 eax, OFFSET __ehfuncinfo$??0CEventManagement@@QAE@XZ
  0002c	e9 00 00 00 00	 jmp	 ___CxxFrameHandler3
text$x	ENDS
??0CEventManagement@@QAE@XZ ENDP			; CEventManagement::CEventManagement
; Function compile flags: /Ogtp
;	COMDAT ??_GCEventManagement@@UAEPAXI@Z
_TEXT	SEGMENT
___flags$ = 8						; size = 4
??_GCEventManagement@@UAEPAXI@Z PROC			; CEventManagement::`scalar deleting destructor', COMDAT
; _this$ = ecx
  00000	55		 push	 ebp
  00001	8b ec		 mov	 ebp, esp
  00003	56		 push	 esi
  00004	8b f1		 mov	 esi, ecx
  00006	e8 00 00 00 00	 call	 ??1CEventManagement@@UAE@XZ ; CEventManagement::~CEventManagement
  0000b	f6 45 08 01	 test	 BYTE PTR ___flags$[ebp], 1
  0000f	74 09		 je	 SHORT $LN4@scalar@2
  00011	56		 push	 esi
  00012	e8 00 00 00 00	 call	 ??3@YAXPAX@Z		; operator delete
  00017	83 c4 04	 add	 esp, 4
$LN4@scalar@2:
  0001a	8b c6		 mov	 eax, esi
  0001c	5e		 pop	 esi
  0001d	5d		 pop	 ebp
  0001e	c2 04 00	 ret	 4
??_GCEventManagement@@UAEPAXI@Z ENDP			; CEventManagement::`scalar deleting destructor'
_TEXT	ENDS
PUBLIC	??_C@_0BF@ENKDDIBD@?$FLDOTH?$FN?5?$CFs?5file?5load?$CB?$AA@ ; `string'
PUBLIC	??_C@_03JBJLGPFL@end?$AA@			; `string'
PUBLIC	??_C@_0CA@JEMAOPLJ@?$FLDOTH?$FN?5Info?5file?5Load?5Fail?5?$FL?$CFs?$FN?$AA@ ; `string'
PUBLIC	??_C@_01KDCPPGHE@r?$AA@				; `string'
PUBLIC	_lpszFileName$GSCopy$
PUBLIC	_this$GSCopy$
PUBLIC	__$ArrayPad$
PUBLIC	?Load@CEventManagement@@QAE_NPAD@Z		; CEventManagement::Load
EXTRN	_fclose:PROC
EXTRN	?MsgBox@@YAXPADZZ:PROC				; MsgBox
EXTRN	_fopen:PROC
EXTRN	__ftol2_sse:PROC
;	COMDAT ??_C@_0BF@ENKDDIBD@?$FLDOTH?$FN?5?$CFs?5file?5load?$CB?$AA@
; File c:\program files (x86)\microsoft visual studio 10.0\vc\include\vector
CONST	SEGMENT
??_C@_0BF@ENKDDIBD@?$FLDOTH?$FN?5?$CFs?5file?5load?$CB?$AA@ DB '[DOTH] %s'
	DB	' file load!', 00H				; `string'
CONST	ENDS
;	COMDAT ??_C@_03JBJLGPFL@end?$AA@
CONST	SEGMENT
??_C@_03JBJLGPFL@end?$AA@ DB 'end', 00H			; `string'
CONST	ENDS
;	COMDAT ??_C@_0CA@JEMAOPLJ@?$FLDOTH?$FN?5Info?5file?5Load?5Fail?5?$FL?$CFs?$FN?$AA@
CONST	SEGMENT
??_C@_0CA@JEMAOPLJ@?$FLDOTH?$FN?5Info?5file?5Load?5Fail?5?$FL?$CFs?$FN?$AA@ DB '['
	DB	'DOTH] Info file Load Fail [%s]', 00H	; `string'
CONST	ENDS
;	COMDAT ??_C@_01KDCPPGHE@r?$AA@
CONST	SEGMENT
??_C@_01KDCPPGHE@r?$AA@ DB 'r', 00H			; `string'
; Function compile flags: /Ogtp
; File c:\users\faelhs\mu-1.1\emu - gameserver sapphire s0\gameserver\eventmanagement.cpp
CONST	ENDS
;	COMDAT ?Load@CEventManagement@@QAE_NPAD@Z
_TEXT	SEGMENT
_type$ = -32						; size = 4
_lpszFileName$GSCopy$ = -28				; size = 4
_this$GSCopy$ = -24					; size = 4
_EIT$156709 = -20					; size = 16
__$ArrayPad$ = -4					; size = 4
_lpszFileName$ = 8					; size = 4
?Load@CEventManagement@@QAE_NPAD@Z PROC			; CEventManagement::Load, COMDAT
; _this$ = ecx

; 255  : {

  00000	55		 push	 ebp
  00001	8b ec		 mov	 ebp, esp
  00003	83 ec 20	 sub	 esp, 32			; 00000020H
  00006	a1 00 00 00 00	 mov	 eax, DWORD PTR ___security_cookie
  0000b	33 c5		 xor	 eax, ebp
  0000d	89 45 fc	 mov	 DWORD PTR __$ArrayPad$[ebp], eax
  00010	53		 push	 ebx
  00011	56		 push	 esi
  00012	8b 75 08	 mov	 esi, DWORD PTR _lpszFileName$[ebp]
  00015	8b d9		 mov	 ebx, ecx

; 302  : 
; 303  : 				EIT.m_bEventStarted = false;
; 304  : 
; 305  : 				this->m_vtEventTime.push_back(EIT);

  00017	89 5d e8	 mov	 DWORD PTR _this$GSCopy$[ebp], ebx
  0001a	89 75 e4	 mov	 DWORD PTR _lpszFileName$GSCopy$[ebp], esi
  0001d	c7 43 08 00 00
	00 00		 mov	 DWORD PTR [ebx+8], 0
  00024	e8 00 00 00 00	 call	 ?Clear@CEventManagement@@QAEXXZ ; CEventManagement::Clear
  00029	68 00 00 00 00	 push	 OFFSET ??_C@_01KDCPPGHE@r?$AA@
  0002e	56		 push	 esi
  0002f	e8 00 00 00 00	 call	 _fopen
  00034	83 c4 08	 add	 esp, 8
  00037	a3 00 00 00 00	 mov	 DWORD PTR _SMDFile, eax
  0003c	85 c0		 test	 eax, eax
  0003e	75 22		 jne	 SHORT $LN8@Load

; 256  : 	this->m_bHasData = false;
; 257  : 	this->Clear();
; 258  : 
; 259  : 	SMDFile = fopen(lpszFileName, "r");
; 260  : 
; 261  : 	if ( SMDFile == NULL )
; 262  : 	{
; 263  : 		MsgBox("[DOTH] Info file Load Fail [%s]", lpszFileName);

  00040	56		 push	 esi
  00041	68 00 00 00 00	 push	 OFFSET ??_C@_0CA@JEMAOPLJ@?$FLDOTH?$FN?5Info?5file?5Load?5Fail?5?$FL?$CFs?$FN?$AA@
  00046	e8 00 00 00 00	 call	 ?MsgBox@@YAXPADZZ	; MsgBox
  0004b	83 c4 08	 add	 esp, 8
  0004e	5e		 pop	 esi

; 264  : 
; 265  : 		return false;

  0004f	32 c0		 xor	 al, al
  00051	5b		 pop	 ebx

; 312  : 
; 313  : 	this->m_bHasData = true;
; 314  : 
; 315  : 	return true;
; 316  : }

  00052	8b 4d fc	 mov	 ecx, DWORD PTR __$ArrayPad$[ebp]
  00055	33 cd		 xor	 ecx, ebp
  00057	e8 00 00 00 00	 call	 @__security_check_cookie@4
  0005c	8b e5		 mov	 esp, ebp
  0005e	5d		 pop	 ebp
  0005f	c2 04 00	 ret	 4
$LN8@Load:

; 266  : 	}
; 267  : 
; 268  : 	int Token;
; 269  : 	int type = -1;
; 270  : 
; 271  : 	while ( true )
; 272  : 	{
; 273  : 		Token = GetToken();

  00062	e8 00 00 00 00	 call	 ?GetToken@@YA?AW4SMDToken@@XZ ; GetToken

; 274  : 
; 275  : 		if ( Token == 2 )

  00067	83 f8 02	 cmp	 eax, 2
  0006a	0f 84 7c 01 00
	00		 je	 $LN102@Load
  00070	57		 push	 edi
$LL7@Load:

; 276  : 		{
; 277  : 			break;
; 278  : 		}
; 279  : 
; 280  : 		type = TokenNumber;

  00071	d9 05 00 00 00
	00		 fld	 DWORD PTR _TokenNumber
  00077	e8 00 00 00 00	 call	 __ftol2_sse
  0007c	89 45 e0	 mov	 DWORD PTR _type$[ebp], eax
  0007f	90		 npad	 1
$LL4@Load:

; 281  : 
; 282  : 		while ( true )
; 283  : 		{
; 284  : 			if ( type == 0 )

  00080	83 7d e0 00	 cmp	 DWORD PTR _type$[ebp], 0
  00084	75 fa		 jne	 SHORT $LL4@Load

; 285  : 			{
; 286  : 				Token = GetToken();

  00086	e8 00 00 00 00	 call	 ?GetToken@@YA?AW4SMDToken@@XZ ; GetToken

; 287  : 
; 288  : 				if ( strcmp("end", TokenString) == 0 )

  0008b	b9 00 00 00 00	 mov	 ecx, OFFSET _TokenString
  00090	b8 00 00 00 00	 mov	 eax, OFFSET ??_C@_03JBJLGPFL@end?$AA@
$LL104@Load:
  00095	8a 10		 mov	 dl, BYTE PTR [eax]
  00097	3a 11		 cmp	 dl, BYTE PTR [ecx]
  00099	75 1a		 jne	 SHORT $LN105@Load
  0009b	84 d2		 test	 dl, dl
  0009d	74 12		 je	 SHORT $LN108@Load
  0009f	8a 50 01	 mov	 dl, BYTE PTR [eax+1]
  000a2	3a 51 01	 cmp	 dl, BYTE PTR [ecx+1]
  000a5	75 0e		 jne	 SHORT $LN105@Load
  000a7	83 c0 02	 add	 eax, 2
  000aa	83 c1 02	 add	 ecx, 2
  000ad	84 d2		 test	 dl, dl
  000af	75 e4		 jne	 SHORT $LL104@Load
$LN108@Load:
  000b1	33 c0		 xor	 eax, eax
  000b3	eb 05		 jmp	 SHORT $LN107@Load
$LN105@Load:
  000b5	1b c0		 sbb	 eax, eax
  000b7	83 d8 ff	 sbb	 eax, -1
$LN107@Load:
  000ba	85 c0		 test	 eax, eax
  000bc	0f 84 18 01 00
	00		 je	 $LN99@Load

; 289  : 				{
; 290  : 					break;
; 291  : 				}
; 292  : 
; 293  : 				EVENT_ID_TIME EIT;
; 294  : 
; 295  : 				EIT.m_eEventKind = TokenNumber;

  000c2	d9 05 00 00 00
	00		 fld	 DWORD PTR _TokenNumber
  000c8	e8 00 00 00 00	 call	 __ftol2_sse
  000cd	89 45 ec	 mov	 DWORD PTR _EIT$156709[ebp], eax

; 296  : 
; 297  : 				Token = GetToken();

  000d0	e8 00 00 00 00	 call	 ?GetToken@@YA?AW4SMDToken@@XZ ; GetToken

; 298  : 				EIT.m_iHour = TokenNumber;

  000d5	d9 05 00 00 00
	00		 fld	 DWORD PTR _TokenNumber
  000db	e8 00 00 00 00	 call	 __ftol2_sse
  000e0	89 45 f0	 mov	 DWORD PTR _EIT$156709[ebp+4], eax

; 299  : 
; 300  : 				Token = GetToken();

  000e3	e8 00 00 00 00	 call	 ?GetToken@@YA?AW4SMDToken@@XZ ; GetToken

; 301  : 				EIT.m_iMinute = TokenNumber;

  000e8	d9 05 00 00 00
	00		 fld	 DWORD PTR _TokenNumber
  000ee	e8 00 00 00 00	 call	 __ftol2_sse

; 302  : 
; 303  : 				EIT.m_bEventStarted = false;
; 304  : 
; 305  : 				this->m_vtEventTime.push_back(EIT);

  000f3	8d 73 0c	 lea	 esi, DWORD PTR [ebx+12]
  000f6	89 45 f4	 mov	 DWORD PTR _EIT$156709[ebp+8], eax
  000f9	8b 46 04	 mov	 eax, DWORD PTR [esi+4]
  000fc	8d 4d ec	 lea	 ecx, DWORD PTR _EIT$156709[ebp]
  000ff	c6 45 f8 00	 mov	 BYTE PTR _EIT$156709[ebp+12], 0
  00103	3b c8		 cmp	 ecx, eax
  00105	73 70		 jae	 SHORT $LN14@Load
  00107	8b 16		 mov	 edx, DWORD PTR [esi]
  00109	3b d1		 cmp	 edx, ecx
  0010b	77 6a		 ja	 SHORT $LN14@Load
  0010d	8b f9		 mov	 edi, ecx
  0010f	8b 4e 08	 mov	 ecx, DWORD PTR [esi+8]
  00112	2b fa		 sub	 edi, edx
  00114	3b c1		 cmp	 eax, ecx
  00116	75 40		 jne	 SHORT $LN25@Load
  00118	2b c2		 sub	 eax, edx
  0011a	c1 f8 04	 sar	 eax, 4
  0011d	3d fe ff ff 0f	 cmp	 eax, 268435454		; 0ffffffeH
  00122	0f 87 fb 00 00
	00		 ja	 $LN100@Load
  00128	2b ca		 sub	 ecx, edx
  0012a	40		 inc	 eax
  0012b	c1 f9 04	 sar	 ecx, 4
  0012e	3b c1		 cmp	 eax, ecx
  00130	76 26		 jbe	 SHORT $LN25@Load
  00132	8b d1		 mov	 edx, ecx
  00134	d1 ea		 shr	 edx, 1
  00136	bb ff ff ff 0f	 mov	 ebx, 268435455		; 0fffffffH
  0013b	2b da		 sub	 ebx, edx
  0013d	3b d9		 cmp	 ebx, ecx
  0013f	73 04		 jae	 SHORT $LN47@Load
  00141	33 c9		 xor	 ecx, ecx
  00143	eb 02		 jmp	 SHORT $LN48@Load
$LN47@Load:
  00145	03 ca		 add	 ecx, edx
$LN48@Load:
  00147	3b c8		 cmp	 ecx, eax
  00149	73 02		 jae	 SHORT $LN44@Load
  0014b	8b c8		 mov	 ecx, eax
$LN44@Load:
  0014d	51		 push	 ecx
  0014e	8b ce		 mov	 ecx, esi
  00150	e8 00 00 00 00	 call	 ?reserve@?$vector@UEVENT_ID_TIME@@V?$allocator@UEVENT_ID_TIME@@@std@@@std@@QAEXI@Z ; std::vector<EVENT_ID_TIME,std::allocator<EVENT_ID_TIME> >::reserve
  00155	8b 5d e8	 mov	 ebx, DWORD PTR _this$GSCopy$[ebp]
$LN25@Load:
  00158	8b 56 04	 mov	 edx, DWORD PTR [esi+4]
  0015b	83 e7 f0	 and	 edi, -16		; fffffff0H
  0015e	03 3e		 add	 edi, DWORD PTR [esi]
  00160	8d 46 0c	 lea	 eax, DWORD PTR [esi+12]
  00163	57		 push	 edi
  00164	52		 push	 edx
  00165	50		 push	 eax
  00166	e8 00 00 00 00	 call	 ??$_Cons_val@V?$allocator@UEVENT_ID_TIME@@@std@@UEVENT_ID_TIME@@AAU3@@std@@YAXAAV?$allocator@UEVENT_ID_TIME@@@0@PAUEVENT_ID_TIME@@AAU2@@Z ; std::_Cons_val<std::allocator<EVENT_ID_TIME>,EVENT_ID_TIME,EVENT_ID_TIME &>
  0016b	83 c4 0c	 add	 esp, 12			; 0000000cH
  0016e	83 46 04 10	 add	 DWORD PTR [esi+4], 16	; 00000010H
  00172	e9 09 ff ff ff	 jmp	 $LL4@Load
$LN14@Load:
  00177	8b 4e 08	 mov	 ecx, DWORD PTR [esi+8]
  0017a	3b c1		 cmp	 eax, ecx
  0017c	75 3f		 jne	 SHORT $LN60@Load
  0017e	8b 16		 mov	 edx, DWORD PTR [esi]
  00180	2b c2		 sub	 eax, edx
  00182	c1 f8 04	 sar	 eax, 4
  00185	3d fe ff ff 0f	 cmp	 eax, 268435454		; 0ffffffeH
  0018a	0f 87 93 00 00
	00		 ja	 $LN100@Load
  00190	2b ca		 sub	 ecx, edx
  00192	40		 inc	 eax
  00193	c1 f9 04	 sar	 ecx, 4
  00196	3b c1		 cmp	 eax, ecx
  00198	76 23		 jbe	 SHORT $LN60@Load
  0019a	8b d1		 mov	 edx, ecx
  0019c	d1 ea		 shr	 edx, 1
  0019e	bf ff ff ff 0f	 mov	 edi, 268435455		; 0fffffffH
  001a3	2b fa		 sub	 edi, edx
  001a5	3b f9		 cmp	 edi, ecx
  001a7	73 04		 jae	 SHORT $LN82@Load
  001a9	33 c9		 xor	 ecx, ecx
  001ab	eb 02		 jmp	 SHORT $LN83@Load
$LN82@Load:
  001ad	03 ca		 add	 ecx, edx
$LN83@Load:
  001af	3b c8		 cmp	 ecx, eax
  001b1	73 02		 jae	 SHORT $LN79@Load
  001b3	8b c8		 mov	 ecx, eax
$LN79@Load:
  001b5	51		 push	 ecx
  001b6	8b ce		 mov	 ecx, esi
  001b8	e8 00 00 00 00	 call	 ?reserve@?$vector@UEVENT_ID_TIME@@V?$allocator@UEVENT_ID_TIME@@@std@@@std@@QAEXI@Z ; std::vector<EVENT_ID_TIME,std::allocator<EVENT_ID_TIME> >::reserve
$LN60@Load:
  001bd	8b 56 04	 mov	 edx, DWORD PTR [esi+4]
  001c0	8d 4d ec	 lea	 ecx, DWORD PTR _EIT$156709[ebp]
  001c3	51		 push	 ecx
  001c4	52		 push	 edx
  001c5	8d 46 0c	 lea	 eax, DWORD PTR [esi+12]
  001c8	50		 push	 eax
  001c9	e8 00 00 00 00	 call	 ??$_Cons_val@V?$allocator@UEVENT_ID_TIME@@@std@@UEVENT_ID_TIME@@ABU3@@std@@YAXAAV?$allocator@UEVENT_ID_TIME@@@0@PAUEVENT_ID_TIME@@ABU2@@Z ; std::_Cons_val<std::allocator<EVENT_ID_TIME>,EVENT_ID_TIME,EVENT_ID_TIME const &>
  001ce	83 c4 0c	 add	 esp, 12			; 0000000cH
  001d1	83 46 04 10	 add	 DWORD PTR [esi+4], 16	; 00000010H

; 306  : 			}
; 307  : 		}

  001d5	e9 a6 fe ff ff	 jmp	 $LL4@Load
$LN99@Load:

; 266  : 	}
; 267  : 
; 268  : 	int Token;
; 269  : 	int type = -1;
; 270  : 
; 271  : 	while ( true )
; 272  : 	{
; 273  : 		Token = GetToken();

  001da	e8 00 00 00 00	 call	 ?GetToken@@YA?AW4SMDToken@@XZ ; GetToken

; 274  : 
; 275  : 		if ( Token == 2 )

  001df	83 f8 02	 cmp	 eax, 2
  001e2	0f 85 89 fe ff
	ff		 jne	 $LL7@Load
  001e8	8b 75 e4	 mov	 esi, DWORD PTR _lpszFileName$GSCopy$[ebp]
  001eb	5f		 pop	 edi
$LN102@Load:

; 308  : 	}
; 309  : 
; 310  : 	fclose(SMDFile);

  001ec	8b 0d 00 00 00
	00		 mov	 ecx, DWORD PTR _SMDFile
  001f2	51		 push	 ecx
  001f3	e8 00 00 00 00	 call	 _fclose

; 311  : 	LogAdd(LOG_BLACK, "[DOTH] %s file load!", lpszFileName);

  001f8	56		 push	 esi
  001f9	68 00 00 00 00	 push	 OFFSET ??_C@_0BF@ENKDDIBD@?$FLDOTH?$FN?5?$CFs?5file?5load?$CB?$AA@
  001fe	6a 00		 push	 0
  00200	e8 00 00 00 00	 call	 ?LogAdd@@YAXW4eLogColor@@PADZZ ; LogAdd

; 312  : 
; 313  : 	this->m_bHasData = true;
; 314  : 
; 315  : 	return true;
; 316  : }

  00205	8b 4d fc	 mov	 ecx, DWORD PTR __$ArrayPad$[ebp]
  00208	83 c4 10	 add	 esp, 16			; 00000010H
  0020b	5e		 pop	 esi
  0020c	c7 43 08 01 00
	00 00		 mov	 DWORD PTR [ebx+8], 1
  00213	33 cd		 xor	 ecx, ebp
  00215	b0 01		 mov	 al, 1
  00217	5b		 pop	 ebx
  00218	e8 00 00 00 00	 call	 @__security_check_cookie@4
  0021d	8b e5		 mov	 esp, ebp
  0021f	5d		 pop	 ebp
  00220	c2 04 00	 ret	 4
$LN100@Load:

; 302  : 
; 303  : 				EIT.m_bEventStarted = false;
; 304  : 
; 305  : 				this->m_vtEventTime.push_back(EIT);

  00223	68 00 00 00 00	 push	 OFFSET ??_C@_0BD@OLBABOEK@vector?$DMT?$DO?5too?5long?$AA@
  00228	e8 00 00 00 00	 call	 ?_Xlength_error@std@@YAXPBD@Z ; std::_Xlength_error
$LN110@Load:
$LN109@Load:
  0022d	cc		 int	 3
?Load@CEventManagement@@QAE_NPAD@Z ENDP			; CEventManagement::Load
_TEXT	ENDS
EXTRN	_atexit:PROC
; Function compile flags: /Ogtp
;	COMDAT ??__Eg_EventManager@@YAXXZ
text$yc	SEGMENT
??__Eg_EventManager@@YAXXZ PROC				; `dynamic initializer for 'g_EventManager'', COMDAT

; 14   : CEventManagement g_EventManager;

  00000	b9 00 00 00 00	 mov	 ecx, OFFSET ?g_EventManager@@3VCEventManagement@@A ; g_EventManager
  00005	e8 00 00 00 00	 call	 ??0CEventManagement@@QAE@XZ ; CEventManagement::CEventManagement
  0000a	68 00 00 00 00	 push	 OFFSET ??__Fg_EventManager@@YAXXZ ; `dynamic atexit destructor for 'g_EventManager''
  0000f	e8 00 00 00 00	 call	 _atexit
  00014	59		 pop	 ecx
  00015	c3		 ret	 0
??__Eg_EventManager@@YAXXZ ENDP				; `dynamic initializer for 'g_EventManager''
; Function compile flags: /Ogtp
text$yc	ENDS
;	COMDAT ??__Fg_EventManager@@YAXXZ
text$yd	SEGMENT
??__Fg_EventManager@@YAXXZ PROC				; `dynamic atexit destructor for 'g_EventManager'', COMDAT
  00000	b9 00 00 00 00	 mov	 ecx, OFFSET ?g_EventManager@@3VCEventManagement@@A ; g_EventManager
  00005	e9 00 00 00 00	 jmp	 ??1CEventManagement@@UAE@XZ ; CEventManagement::~CEventManagement
??__Fg_EventManager@@YAXXZ ENDP				; `dynamic atexit destructor for 'g_EventManager''
text$yd	ENDS
PUBLIC	?g_EventManager@@3VCEventManagement@@A		; g_EventManager
_BSS	SEGMENT
?g_EventManager@@3VCEventManagement@@A DB 034H DUP (?)	; g_EventManager
_BSS	ENDS
CRT$XCU	SEGMENT
_g_EventManager$initializer$ DD FLAT:??__Eg_EventManager@@YAXXZ
CRT$XCU	ENDS
END
