; Listing generated by Microsoft (R) Optimizing Compiler Version 16.00.30319.01 

	TITLE	C:\Users\faelhs\mu-1.1\eMu - GameServer Sapphire S0\GameServer\GameServer.cpp
	.686P
	.XMM
	include listing.inc
	.model	flat

INCLUDELIB LIBCMT
INCLUDELIB OLDNAMES

PUBLIC	?gServerReady@@3HA				; gServerReady
PUBLIC	?gCloseMsg@@3HA					; gCloseMsg
PUBLIC	?gCloseMsgTime@@3HA				; gCloseMsgTime
PUBLIC	?gCurPaintPlayer@@3HA				; gCurPaintPlayer
PUBLIC	?gCurPaintType@@3HA				; gCurPaintType
PUBLIC	?gCurPaintMapNumber@@3HA			; gCurPaintMapNumber
PUBLIC	?hInst@@3PAUHINSTANCE__@@A			; hInst
PUBLIC	?ghWnd@@3PAUHWND__@@A				; ghWnd
PUBLIC	?szTitle@@3PADA					; szTitle
PUBLIC	?szWindowClass@@3PADA				; szWindowClass
PUBLIC	?g_hCsLogDlgProc@@3PAUHWND__@@A			; g_hCsLogDlgProc
_BSS	SEGMENT
?gServerReady@@3HA DD 01H DUP (?)			; gServerReady
?gCloseMsg@@3HA DD 01H DUP (?)				; gCloseMsg
?gCloseMsgTime@@3HA DD 01H DUP (?)			; gCloseMsgTime
?gCurPaintPlayer@@3HA DD 01H DUP (?)			; gCurPaintPlayer
?gCurPaintType@@3HA DD 01H DUP (?)			; gCurPaintType
?gCurPaintMapNumber@@3HA DD 01H DUP (?)			; gCurPaintMapNumber
?hInst@@3PAUHINSTANCE__@@A DD 01H DUP (?)		; hInst
?ghWnd@@3PAUHWND__@@A DD 01H DUP (?)			; ghWnd
?szTitle@@3PADA DB 064H DUP (?)				; szTitle
?szWindowClass@@3PADA DB 040H DUP (?)			; szWindowClass
?g_hCsLogDlgProc@@3PAUHWND__@@A DD 01H DUP (?)		; g_hCsLogDlgProc
_BSS	ENDS
_DATA	SEGMENT
_g_sttBLOODCASTLE_LEVEL DD 0fH
	DD	050H
	DD	0aH
	DD	03cH
	DD	051H
	DD	082H
	DD	03dH
	DD	06eH
	DD	083H
	DD	0b4H
	DD	06fH
	DD	0a0H
	DD	0b5H
	DD	0e6H
	DD	0a1H
	DD	0d2H
	DD	0e7H
	DD	0118H
	DD	0d3H
	DD	0104H
	DD	0119H
	DD	014aH
	DD	0105H
	DD	0136H
	DD	014bH
	DD	0190H
	DD	0137H
	DD	0190H
_g_sttCHAOSCASTLE_LEVEL DD 0aH
	DD	031H
	DD	0aH
	DD	01dH
	DD	032H
	DD	077H
	DD	01eH
	DD	063H
	DD	078H
	DD	0b3H
	DD	064H
	DD	09fH
	DD	0b4H
	DD	0efH
	DD	0a0H
	DD	0dbH
	DD	0f0H
	DD	012bH
	DD	0dcH
	DD	0117H
	DD	012cH
	DD	0190H
	DD	0118H
	DD	0190H
_g_iChaosCastle_BlowOutDistance DD 03H
	DD	04H
	DD	03H
	DD	04H
	DD	02H
	DD	03H
	DD	00H
	DD	01H
_g_iChaosCastle_BlowOutDamage DD 0fH
	DD	0fH
	DD	0aH
	DD	05H
_g_iChaosCastle_EnterCost DD 061a8H
	DD	013880H
	DD	0249f0H
	DD	03d090H
	DD	061a80H
	DD	09eb10H
_g_iChaosCastle_GuardSetValue DD 09c4H
	DD	09c4H
	DD	09c4H
	DD	09c4H
	DD	09c4H
	DD	09c4H
_g_iChaosCastle_MonsterItems DD 01c0dH
	DD	01H
	DD	01c0eH
	DD	01H
	DD	01c0dH
	DD	01H
	DD	01c0eH
	DD	01H
	DD	01c0dH
	DD	01H
	DD	01c0eH
	DD	01H
	DD	01c0dH
	DD	01H
	DD	01c0eH
	DD	01H
	DD	01c0dH
	DD	01H
	DD	01c0eH
	DD	02H
	DD	01c0dH
	DD	01H
	DD	01c0eH
	DD	02H
_g_iChaosCastle_GroundAxis DD 017H
	DD	04bH
	DD	02cH
	DD	06cH
_g_iChaosCastle_DamageAxis DD 017H
	DD	04bH
	DD	02cH
	DD	06cH
	DD	019H
	DD	04dH
	DD	02aH
	DD	06aH
	DD	01bH
	DD	04fH
	DD	028H
	DD	068H
	DD	01dH
	DD	051H
	DD	026H
	DD	066H
_g_iChaosCastle_MapHollowZone DD 017H
	DD	04bH
	DD	02cH
	DD	04cH
	DD	02bH
	DD	04dH
	DD	02cH
	DD	06cH
	DD	017H
	DD	06bH
	DD	02aH
	DD	06cH
	DD	017H
	DD	04dH
	DD	018H
	DD	06aH
	DD	017H
	DD	04bH
	DD	02cH
	DD	04cH
	DD	02bH
	DD	04dH
	DD	02cH
	DD	06cH
	DD	017H
	DD	06bH
	DD	02aH
	DD	06cH
	DD	017H
	DD	04dH
	DD	018H
	DD	06aH
	DD	019H
	DD	04dH
	DD	02aH
	DD	04eH
	DD	029H
	DD	04fH
	DD	02aH
	DD	06aH
	DD	019H
	DD	069H
	DD	028H
	DD	06aH
	DD	019H
	DD	04fH
	DD	01aH
	DD	068H
	DD	01bH
	DD	04fH
	DD	028H
	DD	050H
	DD	027H
	DD	051H
	DD	028H
	DD	068H
	DD	01bH
	DD	067H
	DD	026H
	DD	068H
	DD	01bH
	DD	051H
	DD	01cH
	DD	066H
_DATA	ENDS
PUBLIC	??_C@_0CE@BLIFEFJH@Event?5Chip?5Server?5is?5not?5respomd@ ; `string'
PUBLIC	??_C@_0CB@PBIKDJDO@Ranking?5Server?5is?5not?5respomding@ ; `string'
PUBLIC	?AllServerStart@@YAHXZ				; AllServerStart
EXTRN	?Connect@DBSockMng@@QAEXXZ:PROC			; DBSockMng::Connect
EXTRN	?cDBSMng@@3VDBSockMng@@A:BYTE			; cDBSMng
EXTRN	?GMEventChipServerConnect@@YAHPADK@Z:PROC	; GMEventChipServerConnect
EXTRN	?gEventChipServerIp@@3PADA:BYTE			; gEventChipServerIp
EXTRN	?IsEventChipServerConnected@@3HA:DWORD		; IsEventChipServerConnected
EXTRN	?EventChipServerConnect@@3HA:DWORD		; EventChipServerConnect
EXTRN	?GMRankingServerConnect@@YAHPADK@Z:PROC		; GMRankingServerConnect
EXTRN	?gDevilSquareEventServerIp@@3PADA:BYTE		; gDevilSquareEventServerIp
EXTRN	?IsDevilSquareEventConnected@@3HA:DWORD		; IsDevilSquareEventConnected
EXTRN	?DevilSquareEventConnect@@3HA:DWORD		; DevilSquareEventConnect
EXTRN	?MsgBox@@YAXPADZZ:PROC				; MsgBox
EXTRN	?Get@CMsg@@QAEPADH@Z:PROC			; CMsg::Get
EXTRN	?lMsg@@3VCMsg@@A:BYTE				; lMsg
EXTRN	?GMJoinServerConnect@@YAHPADK@Z:PROC		; GMJoinServerConnect
EXTRN	?JoinServerIp@@3PADA:BYTE			; JoinServerIp
EXTRN	?JoinServerConnected@@3HA:DWORD			; JoinServerConnected
;	COMDAT ??_C@_0CE@BLIFEFJH@Event?5Chip?5Server?5is?5not?5respomd@
; File c:\users\faelhs\mu-1.1\emu - gameserver sapphire s0\gameserver\gameserver.cpp
CONST	SEGMENT
??_C@_0CE@BLIFEFJH@Event?5Chip?5Server?5is?5not?5respomd@ DB 'Event Chip '
	DB	'Server is not respomding', 00H		; `string'
CONST	ENDS
;	COMDAT ??_C@_0CB@PBIKDJDO@Ranking?5Server?5is?5not?5respomding@
CONST	SEGMENT
??_C@_0CB@PBIKDJDO@Ranking?5Server?5is?5not?5respomding@ DB 'Ranking Serv'
	DB	'er is not respomding', 00H			; `string'
; Function compile flags: /Ogtp
CONST	ENDS
;	COMDAT ?AllServerStart@@YAHXZ
_TEXT	SEGMENT
?AllServerStart@@YAHXZ PROC				; AllServerStart, COMDAT

; 109  : 	if(JoinServerConnected == 0)

  00000	83 3d 00 00 00
	00 00		 cmp	 DWORD PTR ?JoinServerConnected@@3HA, 0 ; JoinServerConnected
  00007	75 31		 jne	 SHORT $LN5@AllServerS

; 110  : 	{
; 111  : 		if(GMJoinServerConnect(JoinServerIp, WM_GM_JOIN_CLIENT_MSG_PROC) == 0)

  00009	68 03 04 00 00	 push	 1027			; 00000403H
  0000e	68 00 00 00 00	 push	 OFFSET ?JoinServerIp@@3PADA ; JoinServerIp
  00013	e8 00 00 00 00	 call	 ?GMJoinServerConnect@@YAHPADK@Z ; GMJoinServerConnect
  00018	83 c4 08	 add	 esp, 8
  0001b	85 c0		 test	 eax, eax
  0001d	75 1b		 jne	 SHORT $LN5@AllServerS

; 112  : 		{	
; 113  : 			MsgBox(lMsg.Get(MSGGET(1, 144)));

  0001f	68 90 01 00 00	 push	 400			; 00000190H
  00024	b9 00 00 00 00	 mov	 ecx, OFFSET ?lMsg@@3VCMsg@@A ; lMsg
  00029	e8 00 00 00 00	 call	 ?Get@CMsg@@QAEPADH@Z	; CMsg::Get
  0002e	50		 push	 eax
  0002f	e8 00 00 00 00	 call	 ?MsgBox@@YAXPADZZ	; MsgBox
  00034	83 c4 04	 add	 esp, 4

; 114  : 			return 0;

  00037	33 c0		 xor	 eax, eax

; 143  : }

  00039	c3		 ret	 0
$LN5@AllServerS:

; 115  : 		}
; 116  : 	}
; 117  : 	// ---
; 118  : 	if((DevilSquareEventConnect == 0) && (IsDevilSquareEventConnected == 0))

  0003a	83 3d 00 00 00
	00 00		 cmp	 DWORD PTR ?DevilSquareEventConnect@@3HA, 0 ; DevilSquareEventConnect
  00041	75 39		 jne	 SHORT $LN4@AllServerS
  00043	83 3d 00 00 00
	00 00		 cmp	 DWORD PTR ?IsDevilSquareEventConnected@@3HA, 0 ; IsDevilSquareEventConnected
  0004a	75 30		 jne	 SHORT $LN4@AllServerS

; 119  : 	{
; 120  : 		if (GMRankingServerConnect(gDevilSquareEventServerIp, WM_GM_RANKING_CLIENT_MSG_PROC) == 0)

  0004c	68 0c 04 00 00	 push	 1036			; 0000040cH
  00051	68 00 00 00 00	 push	 OFFSET ?gDevilSquareEventServerIp@@3PADA ; gDevilSquareEventServerIp
  00056	e8 00 00 00 00	 call	 ?GMRankingServerConnect@@YAHPADK@Z ; GMRankingServerConnect
  0005b	83 c4 08	 add	 esp, 8
  0005e	85 c0		 test	 eax, eax
  00060	75 10		 jne	 SHORT $LN3@AllServerS

; 121  : 		{
; 122  : 			MsgBox("Ranking Server is not respomding");

  00062	68 00 00 00 00	 push	 OFFSET ??_C@_0CB@PBIKDJDO@Ranking?5Server?5is?5not?5respomding@
  00067	e8 00 00 00 00	 call	 ?MsgBox@@YAXPADZZ	; MsgBox
  0006c	83 c4 04	 add	 esp, 4

; 123  : 			return 0;

  0006f	33 c0		 xor	 eax, eax

; 143  : }

  00071	c3		 ret	 0
$LN3@AllServerS:

; 124  : 		}
; 125  : 		// ---
; 126  : 		IsDevilSquareEventConnected = 1;

  00072	c7 05 00 00 00
	00 01 00 00 00	 mov	 DWORD PTR ?IsDevilSquareEventConnected@@3HA, 1 ; IsDevilSquareEventConnected
$LN4@AllServerS:

; 127  : 	}
; 128  : 	// ---
; 129  : 	if((EventChipServerConnect != 0) && (IsEventChipServerConnected == 0))

  0007c	83 3d 00 00 00
	00 00		 cmp	 DWORD PTR ?EventChipServerConnect@@3HA, 0 ; EventChipServerConnect
  00083	74 39		 je	 SHORT $LN2@AllServerS
  00085	83 3d 00 00 00
	00 00		 cmp	 DWORD PTR ?IsEventChipServerConnected@@3HA, 0 ; IsEventChipServerConnected
  0008c	75 30		 jne	 SHORT $LN2@AllServerS

; 130  : 	{
; 131  : 		if (GMEventChipServerConnect(gEventChipServerIp, WM_GM_EVENTCHIP_CLIENT_MSG_PROC) == 0)

  0008e	68 0d 04 00 00	 push	 1037			; 0000040dH
  00093	68 00 00 00 00	 push	 OFFSET ?gEventChipServerIp@@3PADA ; gEventChipServerIp
  00098	e8 00 00 00 00	 call	 ?GMEventChipServerConnect@@YAHPADK@Z ; GMEventChipServerConnect
  0009d	83 c4 08	 add	 esp, 8
  000a0	85 c0		 test	 eax, eax
  000a2	75 10		 jne	 SHORT $LN1@AllServerS

; 132  : 		{
; 133  : 			MsgBox("Event Chip Server is not respomding");

  000a4	68 00 00 00 00	 push	 OFFSET ??_C@_0CE@BLIFEFJH@Event?5Chip?5Server?5is?5not?5respomd@
  000a9	e8 00 00 00 00	 call	 ?MsgBox@@YAXPADZZ	; MsgBox
  000ae	83 c4 04	 add	 esp, 4

; 134  : 			return 0;

  000b1	33 c0		 xor	 eax, eax

; 143  : }

  000b3	c3		 ret	 0
$LN1@AllServerS:

; 135  : 		}
; 136  : 		// ---
; 137  : 		IsEventChipServerConnected = 1;

  000b4	c7 05 00 00 00
	00 01 00 00 00	 mov	 DWORD PTR ?IsEventChipServerConnected@@3HA, 1 ; IsEventChipServerConnected
$LN2@AllServerS:

; 138  : 	}
; 139  : 	// ---
; 140  : 	cDBSMng.Connect();

  000be	b9 00 00 00 00	 mov	 ecx, OFFSET ?cDBSMng@@3VDBSockMng@@A ; cDBSMng
  000c3	e8 00 00 00 00	 call	 ?Connect@DBSockMng@@QAEXXZ ; DBSockMng::Connect

; 141  : 	// ---
; 142  : 	return TRUE;

  000c8	b8 01 00 00 00	 mov	 eax, 1

; 143  : }

  000cd	c3		 ret	 0
?AllServerStart@@YAHXZ ENDP				; AllServerStart
_TEXT	ENDS
PUBLIC	?GameServerStart@@YAHXZ				; GameServerStart
EXTRN	__imp__SetTimer@16:PROC
EXTRN	?CreateGIocp@@YAHH@Z:PROC			; CreateGIocp
EXTRN	?GameServerPort@@3GA:WORD			; GameServerPort
EXTRN	?GameMainServerCreate@@YAHKK@Z:PROC		; GameMainServerCreate
; Function compile flags: /Ogtp
;	COMDAT ?GameServerStart@@YAHXZ
_TEXT	SEGMENT
?GameServerStart@@YAHXZ PROC				; GameServerStart, COMDAT

; 147  : 	if (GameMainServerCreate(WM_GM_SERVER_MSG_PROC, WM_GM_CLIENT_MSG_PROC) == FALSE )

  00000	68 02 04 00 00	 push	 1026			; 00000402H
  00005	68 01 04 00 00	 push	 1025			; 00000401H
  0000a	e8 00 00 00 00	 call	 ?GameMainServerCreate@@YAHKK@Z ; GameMainServerCreate
  0000f	83 c4 08	 add	 esp, 8
  00012	85 c0		 test	 eax, eax
  00014	75 1b		 jne	 SHORT $LN1@GameServer

; 148  : 	{
; 149  : 		MsgBox(lMsg.Get(MSGGET( 1, 142) ));

  00016	68 8e 01 00 00	 push	 398			; 0000018eH
  0001b	b9 00 00 00 00	 mov	 ecx, OFFSET ?lMsg@@3VCMsg@@A ; lMsg
  00020	e8 00 00 00 00	 call	 ?Get@CMsg@@QAEPADH@Z	; CMsg::Get
  00025	50		 push	 eax
  00026	e8 00 00 00 00	 call	 ?MsgBox@@YAXPADZZ	; MsgBox
  0002b	83 c4 04	 add	 esp, 4

; 150  : 		return FALSE;

  0002e	33 c0		 xor	 eax, eax

; 171  : }

  00030	c3		 ret	 0
$LN1@GameServer:

; 151  : 	}
; 152  : 
; 153  : 	CreateGIocp(GameServerPort);

  00031	0f b7 05 00 00
	00 00		 movzx	 eax, WORD PTR ?GameServerPort@@3GA ; GameServerPort
  00038	56		 push	 esi
  00039	50		 push	 eax
  0003a	e8 00 00 00 00	 call	 ?CreateGIocp@@YAHH@Z	; CreateGIocp

; 154  : 
; 155  : 	SetTimer(ghWnd, WM_LOG_PAINT, 2000, NULL);

  0003f	8b 0d 00 00 00
	00		 mov	 ecx, DWORD PTR ?ghWnd@@3PAUHWND__@@A ; ghWnd
  00045	8b 35 00 00 00
	00		 mov	 esi, DWORD PTR __imp__SetTimer@16
  0004b	83 c4 04	 add	 esp, 4
  0004e	6a 00		 push	 0
  00050	68 d0 07 00 00	 push	 2000			; 000007d0H
  00055	6a 64		 push	 100			; 00000064H
  00057	51		 push	 ecx
  00058	ff d6		 call	 esi

; 156  : 	SetTimer(ghWnd, WM_FIRST_MSG_PROCESS, 1000, NULL);

  0005a	8b 15 00 00 00
	00		 mov	 edx, DWORD PTR ?ghWnd@@3PAUHWND__@@A ; ghWnd
  00060	6a 00		 push	 0
  00062	68 e8 03 00 00	 push	 1000			; 000003e8H
  00067	6a 65		 push	 101			; 00000065H
  00069	52		 push	 edx
  0006a	ff d6		 call	 esi

; 157  : 
; 158  : 	SetTimer(ghWnd, WM_SET_DATE, 60000, NULL);

  0006c	a1 00 00 00 00	 mov	 eax, DWORD PTR ?ghWnd@@3PAUHWND__@@A ; ghWnd
  00071	6a 00		 push	 0
  00073	68 60 ea 00 00	 push	 60000			; 0000ea60H
  00078	68 e9 03 00 00	 push	 1001			; 000003e9H
  0007d	50		 push	 eax
  0007e	ff d6		 call	 esi

; 159  : 	SetTimer(ghWnd, WM_CONNECT_DATASERVER, 10000, NULL);

  00080	8b 0d 00 00 00
	00		 mov	 ecx, DWORD PTR ?ghWnd@@3PAUHWND__@@A ; ghWnd
  00086	6a 00		 push	 0
  00088	68 10 27 00 00	 push	 10000			; 00002710H
  0008d	68 ef 03 00 00	 push	 1007			; 000003efH
  00092	51		 push	 ecx
  00093	ff d6		 call	 esi

; 160  : 
; 161  : 	SetTimer(ghWnd, WM_SECOND_MSG_PROCESS, 1000, NULL);

  00095	8b 15 00 00 00
	00		 mov	 edx, DWORD PTR ?ghWnd@@3PAUHWND__@@A ; ghWnd
  0009b	6a 00		 push	 0
  0009d	68 e8 03 00 00	 push	 1000			; 000003e8H
  000a2	68 e8 03 00 00	 push	 1000			; 000003e8H
  000a7	52		 push	 edx
  000a8	ff d6		 call	 esi

; 162  : 	SetTimer(ghWnd, WM_GS_CLOSE, 1000, NULL);

  000aa	a1 00 00 00 00	 mov	 eax, DWORD PTR ?ghWnd@@3PAUHWND__@@A ; ghWnd
  000af	6a 00		 push	 0
  000b1	68 e8 03 00 00	 push	 1000			; 000003e8H
  000b6	68 ea 03 00 00	 push	 1002			; 000003eaH
  000bb	50		 push	 eax
  000bc	ff d6		 call	 esi

; 163  : 	SetTimer(ghWnd, WM_MONSTER_AND_MSG_PROC, 500, NULL);

  000be	8b 0d 00 00 00
	00		 mov	 ecx, DWORD PTR ?ghWnd@@3PAUHWND__@@A ; ghWnd
  000c4	6a 00		 push	 0
  000c6	68 f4 01 00 00	 push	 500			; 000001f4H
  000cb	68 ee 03 00 00	 push	 1006			; 000003eeH
  000d0	51		 push	 ecx
  000d1	ff d6		 call	 esi

; 164  : 
; 165  : 	SetTimer(ghWnd, WM_MOVE_MONSTER_PROC, 300, NULL);

  000d3	8b 15 00 00 00
	00		 mov	 edx, DWORD PTR ?ghWnd@@3PAUHWND__@@A ; ghWnd
  000d9	6a 00		 push	 0
  000db	68 2c 01 00 00	 push	 300			; 0000012cH
  000e0	68 ed 03 00 00	 push	 1005			; 000003edH
  000e5	52		 push	 edx
  000e6	ff d6		 call	 esi

; 166  : 	SetTimer(ghWnd, WM_EVENT_RUN_PROC, 100, NULL);

  000e8	a1 00 00 00 00	 mov	 eax, DWORD PTR ?ghWnd@@3PAUHWND__@@A ; ghWnd
  000ed	6a 00		 push	 0
  000ef	6a 64		 push	 100			; 00000064H
  000f1	68 ec 03 00 00	 push	 1004			; 000003ecH
  000f6	50		 push	 eax
  000f7	ff d6		 call	 esi

; 167  : 
; 168  : 	SetTimer(ghWnd, WM_GUILD_LIST_REQUEST, 1000, NULL);

  000f9	8b 0d 00 00 00
	00		 mov	 ecx, DWORD PTR ?ghWnd@@3PAUHWND__@@A ; ghWnd
  000ff	6a 00		 push	 0
  00101	68 e8 03 00 00	 push	 1000			; 000003e8H
  00106	68 f0 03 00 00	 push	 1008			; 000003f0H
  0010b	51		 push	 ecx
  0010c	ff d6		 call	 esi

; 169  : 
; 170  : 	return TRUE;

  0010e	b8 01 00 00 00	 mov	 eax, 1
  00113	5e		 pop	 esi

; 171  : }

  00114	c3		 ret	 0
?GameServerStart@@YAHXZ ENDP				; GameServerStart
_TEXT	ENDS
PUBLIC	?InitInstance@@YAHPAUHINSTANCE__@@H@Z		; InitInstance
EXTRN	__imp__UpdateWindow@4:PROC
EXTRN	__imp__ShowWindow@8:PROC
EXTRN	__imp__CreateWindowExA@48:PROC
; Function compile flags: /Ogtp
;	COMDAT ?InitInstance@@YAHPAUHINSTANCE__@@H@Z
_TEXT	SEGMENT
_hInstance$ = 8						; size = 4
_nCmdShow$ = 12						; size = 4
?InitInstance@@YAHPAUHINSTANCE__@@H@Z PROC		; InitInstance, COMDAT

; 217  : {

  00000	55		 push	 ebp
  00001	8b ec		 mov	 ebp, esp

; 218  : 	HWND hWnd;
; 219  : 	// ---
; 220  : 	hInst = hInstance;

  00003	8b 45 08	 mov	 eax, DWORD PTR _hInstance$[ebp]
  00006	56		 push	 esi

; 221  : 	// ---
; 222  : 	hWnd = CreateWindowEx(0, szWindowClass, szTitle, WS_OVERLAPPED+WS_CAPTION+WS_SYSMENU+WS_MINIMIZEBOX+WS_VISIBLE, CW_USEDEFAULT, 0, GAMESERVER_WIDTH, GAMESERVER_HEIGHT, NULL, NULL, hInstance, NULL);

  00007	6a 00		 push	 0
  00009	50		 push	 eax
  0000a	6a 00		 push	 0
  0000c	6a 00		 push	 0
  0000e	68 62 02 00 00	 push	 610			; 00000262H
  00013	68 ee 02 00 00	 push	 750			; 000002eeH
  00018	6a 00		 push	 0
  0001a	68 00 00 00 80	 push	 -2147483648		; 80000000H
  0001f	68 00 00 ca 10	 push	 281673728		; 10ca0000H
  00024	68 00 00 00 00	 push	 OFFSET ?szTitle@@3PADA	; szTitle
  00029	68 00 00 00 00	 push	 OFFSET ?szWindowClass@@3PADA ; szWindowClass
  0002e	6a 00		 push	 0
  00030	a3 00 00 00 00	 mov	 DWORD PTR ?hInst@@3PAUHINSTANCE__@@A, eax ; hInst
  00035	ff 15 00 00 00
	00		 call	 DWORD PTR __imp__CreateWindowExA@48
  0003b	8b f0		 mov	 esi, eax

; 223  : 	// ---
; 224  : 	if (hWnd==0) 

  0003d	85 f6		 test	 esi, esi
  0003f	75 03		 jne	 SHORT $LN1@InitInstan
  00041	5e		 pop	 esi

; 236  : }

  00042	5d		 pop	 ebp
  00043	c3		 ret	 0
$LN1@InitInstan:

; 225  : 	{
; 226  : 		return 0;
; 227  : 	}
; 228  : 	// ---
; 229  : 	ShowWindow(hWnd, nCmdShow);

  00044	8b 45 0c	 mov	 eax, DWORD PTR _nCmdShow$[ebp]
  00047	50		 push	 eax
  00048	56		 push	 esi
  00049	ff 15 00 00 00
	00		 call	 DWORD PTR __imp__ShowWindow@8

; 230  : 	// ---
; 231  : 	UpdateWindow(hWnd);

  0004f	56		 push	 esi
  00050	ff 15 00 00 00
	00		 call	 DWORD PTR __imp__UpdateWindow@4

; 232  : 	// ---
; 233  : 	ghWnd = hWnd;

  00056	89 35 00 00 00
	00		 mov	 DWORD PTR ?ghWnd@@3PAUHWND__@@A, esi ; ghWnd

; 234  : 	// ---
; 235  : 	return TRUE;

  0005c	b8 01 00 00 00	 mov	 eax, 1
  00061	5e		 pop	 esi

; 236  : }

  00062	5d		 pop	 ebp
  00063	c3		 ret	 0
?InitInstance@@YAHPAUHINSTANCE__@@H@Z ENDP		; InitInstance
_TEXT	ENDS
PUBLIC	?About@@YGJPAUHWND__@@IIJ@Z			; About
EXTRN	__imp__EndDialog@8:PROC
; Function compile flags: /Ogtp
;	COMDAT ?About@@YGJPAUHWND__@@IIJ@Z
_TEXT	SEGMENT
_hDlg$ = 8						; size = 4
_message$ = 12						; size = 4
_wParam$ = 16						; size = 4
_lParam$ = 20						; size = 4
?About@@YGJPAUHWND__@@IIJ@Z PROC			; About, COMDAT

; 726  : {

  00000	55		 push	 ebp
  00001	8b ec		 mov	 ebp, esp

; 727  : 	switch (message)

  00003	8b 45 0c	 mov	 eax, DWORD PTR _message$[ebp]
  00006	2d 10 01 00 00	 sub	 eax, 272		; 00000110H
  0000b	74 26		 je	 SHORT $LN4@About
  0000d	48		 dec	 eax
  0000e	75 12		 jne	 SHORT $LN2@About

; 731  : 
; 732  : 		case WM_COMMAND:
; 733  : 			if ( ( wParam & 0xFFFF & 0xFFFF ) == IDOK || (wParam & 0xFFFF & 0xFFFF ) == IDCANCEL) 

  00010	8b 45 10	 mov	 eax, DWORD PTR _wParam$[ebp]
  00013	25 ff ff 00 00	 and	 eax, 65535		; 0000ffffH
  00018	83 f8 01	 cmp	 eax, 1
  0001b	74 0b		 je	 SHORT $LN1@About
  0001d	83 f8 02	 cmp	 eax, 2
  00020	74 06		 je	 SHORT $LN1@About
$LN2@About:

; 736  : 				return TRUE;
; 737  : 			}
; 738  : 			break;
; 739  : 	}
; 740  :     return FALSE;

  00022	33 c0		 xor	 eax, eax

; 741  : }

  00024	5d		 pop	 ebp
  00025	c2 10 00	 ret	 16			; 00000010H
$LN1@About:

; 734  : 			{
; 735  : 				EndDialog(hDlg, (wParam& 0xFFFF & 0xFFFF ));

  00028	50		 push	 eax
  00029	8b 45 08	 mov	 eax, DWORD PTR _hDlg$[ebp]
  0002c	50		 push	 eax
  0002d	ff 15 00 00 00
	00		 call	 DWORD PTR __imp__EndDialog@8
$LN4@About:

; 728  : 	{
; 729  : 		case WM_INITDIALOG:
; 730  : 				return TRUE;

  00033	b8 01 00 00 00	 mov	 eax, 1

; 741  : }

  00038	5d		 pop	 ebp
  00039	c2 10 00	 ret	 16			; 00000010H
?About@@YGJPAUHWND__@@IIJ@Z ENDP			; About
_TEXT	ENDS
PUBLIC	?GetState@CDragonEvent@@QAEEXZ			; CDragonEvent::GetState
; Function compile flags: /Ogtp
; File c:\users\faelhs\mu-1.1\emu - gameserver sapphire s0\gameserver\dragonevent.h
;	COMDAT ?GetState@CDragonEvent@@QAEEXZ
_TEXT	SEGMENT
?GetState@CDragonEvent@@QAEEXZ PROC			; CDragonEvent::GetState, COMDAT
; _this$ = ecx

; 19   : 	BYTE GetState(){return this->EventState;}	// Dagon event line 30.h

  00000	8a 41 04	 mov	 al, BYTE PTR [ecx+4]
  00003	c3		 ret	 0
?GetState@CDragonEvent@@QAEEXZ ENDP			; CDragonEvent::GetState
_TEXT	ENDS
PUBLIC	??_C@_0L@DPAHEMHE@Iplist?4dat?$AA@		; `string'
PUBLIC	??_C@_0BC@MBPKGCDH@MapServerInfo?4dat?$AA@	; `string'
PUBLIC	??_C@_0BA@LAAHBEDI@closeplayer?4txt?$AA@	; `string'
PUBLIC	??_C@_06MMLDKFPE@?E?W?$LN?$LK?F?$KO?$AA@	; `string'
PUBLIC	??_C@_0BC@EBEJPBOM@GameServer?5close?$DP?$AA@	; `string'
PUBLIC	??_C@_05LGELBCGM@Close?$AA@			; `string'
PUBLIC	__$ArrayPad$
PUBLIC	?WndProc@@YGJPAUHWND__@@IIJ@Z			; WndProc
EXTRN	__imp__DefWindowProcA@16:PROC
EXTRN	?ExDataClientMsgProc@@YAXIJ@Z:PROC		; ExDataClientMsgProc
EXTRN	?MsgProc@DBSockMng@@QAEHHIJ@Z:PROC		; DBSockMng::MsgProc
EXTRN	?GMEventChipClientMsgProc@@YAXIJ@Z:PROC		; GMEventChipClientMsgProc
EXTRN	?GMRankingClientMsgProc@@YAXIJ@Z:PROC		; GMRankingClientMsgProc
EXTRN	?GMJoinClientMsgProc@@YAXIJ@Z:PROC		; GMJoinClientMsgProc
EXTRN	?GMClientMsgProc@@YAXIJ@Z:PROC			; GMClientMsgProc
EXTRN	?GMServerMsgProc@@YAXIJ@Z:PROC			; GMServerMsgProc
EXTRN	?Load@CLottery@@QAEXXZ:PROC			; CLottery::Load
EXTRN	?gLottery@@3VCLottery@@A:BYTE			; gLottery
EXTRN	?Load@CPrivilege@@QAEXXZ:PROC			; CPrivilege::Load
EXTRN	?gPrivilege@@3VCPrivilege@@A:BYTE		; gPrivilege
EXTRN	?Character@CServerInfo@@QAEXXZ:PROC		; CServerInfo::Character
EXTRN	?Load@CMoves@@QAEXXZ:PROC			; CMoves::Load
EXTRN	?gMoves@@3VCMoves@@A:BYTE			; gMoves
EXTRN	?Load@CCommands@@QAEXXZ:PROC			; CCommands::Load
EXTRN	?gCommands@@3VCCommands@@A:BYTE			; gCommands
EXTRN	?Load@CTips@@QAEXXZ:PROC			; CTips::Load
EXTRN	?gTips@@3VCTips@@A:BYTE				; gTips
EXTRN	?Load@CNews@@QAEXXZ:PROC			; CNews::Load
EXTRN	?gNews@@3VCNews@@A:BYTE				; gNews
EXTRN	?Load@CServerInfo@@QAEXXZ:PROC			; CServerInfo::Load
EXTRN	?gServerInfo@@3VCServerInfo@@A:BYTE		; gServerInfo
EXTRN	?Load@CVip@@QAEXXZ:PROC				; CVip::Load
EXTRN	?gVip@@3VCVip@@A:BYTE				; gVip
EXTRN	?ReadGameEtcInfo@@YAXW4MU_ETC_TYPE@@@Z:PROC	; ReadGameEtcInfo
EXTRN	?ReadEventInfo@@YAXW4MU_EVENT_TYPE@@@Z:PROC	; ReadEventInfo
EXTRN	?gFireCrackerEvent@@3HA:DWORD			; gFireCrackerEvent
EXTRN	?gXMasEvent@@3HA:DWORD				; gXMasEvent
EXTRN	?Start@CDragonEvent@@QAEXXZ:PROC		; CDragonEvent::Start
EXTRN	?End@CDragonEvent@@QAEXXZ:PROC			; CDragonEvent::End
EXTRN	?ReadCommonServerInfo@@YAXXZ:PROC		; ReadCommonServerInfo
EXTRN	?Load@CAcceptIp@@QAEXPAD@Z:PROC			; CAcceptIp::Load
EXTRN	?acceptIP@@3VCAcceptIp@@A:BYTE			; acceptIP
EXTRN	?LoadData@CMapServerManager@@QAEHPAD@Z:PROC	; CMapServerManager::LoadData
EXTRN	?g_MapServerManager@@3VCMapServerManager@@A:BYTE ; g_MapServerManager
EXTRN	?GetNewPath@CDirPath@@QAEPADPAD@Z:PROC		; CDirPath::GetNewPath
EXTRN	?gDirPath@@3VCDirPath@@A:BYTE			; gDirPath
EXTRN	?ShopDataLoad@@YAHXZ:PROC			; ShopDataLoad
EXTRN	?gObjAllDisconnect@@YAXXZ:PROC			; gObjAllDisconnect
EXTRN	??1Ccloseplayer@@UAE@XZ:PROC			; Ccloseplayer::~Ccloseplayer
EXTRN	?Load@Ccloseplayer@@QAEXPAD@Z:PROC		; Ccloseplayer::Load
EXTRN	??0Ccloseplayer@@QAE@XZ:PROC			; Ccloseplayer::Ccloseplayer
EXTRN	?GameMonsterAllCloseAndReLoad@@YAXXZ:PROC	; GameMonsterAllCloseAndReLoad
EXTRN	__imp__DialogBoxParamA@20:PROC
EXTRN	__imp__SendMessageA@16:PROC
EXTRN	?gObjCheckAllUserDuelStop@@YAXXZ:PROC		; gObjCheckAllUserDuelStop
EXTRN	?TimeCheckCashDelete@CWhisperCash@@QAEXXZ:PROC	; CWhisperCash::TimeCheckCashDelete
EXTRN	?WhisperCash@@3VCWhisperCash@@A:BYTE		; WhisperCash
EXTRN	?gSetDate@@YAXXZ:PROC				; gSetDate
EXTRN	?AdjustTributeMoney@CCastleSiegeSync@@QAEXXZ:PROC ; CCastleSiegeSync::AdjustTributeMoney
EXTRN	?g_CastleSiegeSync@@3VCCastleSiegeSync@@A:BYTE	; g_CastleSiegeSync
EXTRN	?gObjSecondProc@@YAXXZ:PROC			; gObjSecondProc
EXTRN	?gObjAllLogOut@@YAXXZ:PROC			; gObjAllLogOut
EXTRN	__imp__wsprintfA:PROC
EXTRN	?LogAdd@@YAXW4eLogColor@@PADZZ:PROC		; LogAdd
EXTRN	?AllSendServerMsg@@YAXPAD@Z:PROC		; AllSendServerMsg
EXTRN	?WeaponAttackProc@CWeapon@@QAEXXZ:PROC		; CWeapon::WeaponAttackProc
EXTRN	?g_CsNPC_Weapon@@3VCWeapon@@A:BYTE		; g_CsNPC_Weapon
EXTRN	?Run@CChaosCastle@@QAEXXZ:PROC			; CChaosCastle::Run
EXTRN	?g_ChaosCastle@@3VCChaosCastle@@A:BYTE		; g_ChaosCastle
EXTRN	?Run@CRingAttackEvent@@QAEXXZ:PROC		; CRingAttackEvent::Run
EXTRN	?Run@CBloodCastle@@QAEXXZ:PROC			; CBloodCastle::Run
EXTRN	?g_BloodCastle@@3VCBloodCastle@@A:BYTE		; g_BloodCastle
EXTRN	?MoveMonsterProc@@YAXXZ:PROC			; MoveMonsterProc
EXTRN	?MonsterAndMsgProc@@YAXXZ:PROC			; MonsterAndMsgProc
EXTRN	__imp__KillTimer@8:PROC
EXTRN	?DGGuildListRequest@@YAXXZ:PROC			; DGGuildListRequest
EXTRN	?Run@CEventManagement@@QAEXXZ:PROC		; CEventManagement::Run
EXTRN	?g_EventManager@@3VCEventManagement@@A:BYTE	; g_EventManager
EXTRN	?Run@CEledoradoEvent@@QAEXXZ:PROC		; CEledoradoEvent::Run
EXTRN	?gEledoradoEvent@@3VCEledoradoEvent@@A:BYTE	; gEledoradoEvent
EXTRN	?Run@CAttackEvent@@QAEXXZ:PROC			; CAttackEvent::Run
EXTRN	?AttackEvent@@3PAVCAttackEvent@@A:DWORD		; AttackEvent
EXTRN	?Run@CDragonEvent@@QAEXXZ:PROC			; CDragonEvent::Run
EXTRN	?DragonEvent@@3PAVCDragonEvent@@A:DWORD		; DragonEvent
EXTRN	?wsGServer@@3VCwsGameServer@@A:BYTE		; wsGServer
EXTRN	?WeatherVariationProcess@MapClass@@QAEXXZ:PROC	; MapClass::WeatherVariationProcess
EXTRN	?MapC@@3PAVMapClass@@A:BYTE			; MapC
EXTRN	?GJNotifyMaxUserCount@@YAXXZ:PROC		; GJNotifyMaxUserCount
EXTRN	?Run@CServerDisplayer@@QAEXXZ:PROC		; CServerDisplayer::Run
EXTRN	?gServerDisplayer@@3VCServerDisplayer@@A:BYTE	; gServerDisplayer
EXTRN	?GameServerInfoSend@@YAXXZ:PROC			; GameServerInfoSend
EXTRN	?gObjSetState@@YAXXZ:PROC			; gObjSetState
EXTRN	?gObjUnionUpdateProc@@YAXH@Z:PROC		; gObjUnionUpdateProc
EXTRN	?gObjIsConnected@@YAHH@Z:PROC			; gObjIsConnected
EXTRN	?gObj@@3PAUOBJECTSTRUCT@@A:BYTE			; gObj
EXTRN	?PShop_ViewportListRegenarate@@YAXF@Z:PROC	; PShop_ViewportListRegenarate
EXTRN	?gDoPShopOpen@@3HA:DWORD			; gDoPShopOpen
EXTRN	?gObjViewportListProtocol@@YAXF@Z:PROC		; gObjViewportListProtocol
EXTRN	?gObjViewportListCreate@@YAXF@Z:PROC		; gObjViewportListCreate
EXTRN	?gObjViewportListDestroy@@YAXF@Z:PROC		; gObjViewportListDestroy
EXTRN	?gObjStateSetCreate@@YAXH@Z:PROC		; gObjStateSetCreate
EXTRN	?CGPCharacterMapJoinRequest@@YAXPAUPMSG_CHARMAPJOIN@@H@Z:PROC ; CGPCharacterMapJoinRequest
EXTRN	?gServerMaxUser@@3HA:DWORD			; gServerMaxUser
EXTRN	__imp__PostQuitMessage@4:PROC
EXTRN	?GiocpDelete@@YAXXZ:PROC			; GiocpDelete
EXTRN	?GameMainFree@@YAXXZ:PROC			; GameMainFree
EXTRN	__imp__DestroyWindow@4:PROC
EXTRN	__imp__MessageBoxA@16:PROC
EXTRN	?gLanguage@@3HA:DWORD				; gLanguage
EXTRN	___security_cookie:DWORD
EXTRN	___CxxFrameHandler3:PROC
EXTRN	@__security_check_cookie@4:PROC
;	COMDAT ??_C@_0L@DPAHEMHE@Iplist?4dat?$AA@
CONST	SEGMENT
??_C@_0L@DPAHEMHE@Iplist?4dat?$AA@ DB 'Iplist.dat', 00H	; `string'
CONST	ENDS
;	COMDAT ??_C@_0BC@MBPKGCDH@MapServerInfo?4dat?$AA@
CONST	SEGMENT
??_C@_0BC@MBPKGCDH@MapServerInfo?4dat?$AA@ DB 'MapServerInfo.dat', 00H ; `string'
CONST	ENDS
;	COMDAT ??_C@_0BA@LAAHBEDI@closeplayer?4txt?$AA@
CONST	SEGMENT
??_C@_0BA@LAAHBEDI@closeplayer?4txt?$AA@ DB 'closeplayer.txt', 00H ; `string'
CONST	ENDS
;	COMDAT ??_C@_06MMLDKFPE@?E?W?$LN?$LK?F?$KO?$AA@
CONST	SEGMENT
??_C@_06MMLDKFPE@?E?W?$LN?$LK?F?$KO?$AA@ DB 0c5H, 0d7H, 0bdH, 0baH, 0c6H, 0aeH
	DB	00H						; `string'
CONST	ENDS
;	COMDAT ??_C@_0BC@EBEJPBOM@GameServer?5close?$DP?$AA@
CONST	SEGMENT
??_C@_0BC@EBEJPBOM@GameServer?5close?$DP?$AA@ DB 'GameServer close?', 00H ; `string'
CONST	ENDS
;	COMDAT ??_C@_05LGELBCGM@Close?$AA@
CONST	SEGMENT
??_C@_05LGELBCGM@Close?$AA@ DB 'Close', 00H		; `string'
CONST	ENDS
;	COMDAT xdata$x
xdata$x	SEGMENT
__unwindtable$?WndProc@@YGJPAUHWND__@@IIJ@Z DD 0ffffffffH
	DD	FLAT:__unwindfunclet$?WndProc@@YGJPAUHWND__@@IIJ@Z$0
__ehfuncinfo$?WndProc@@YGJPAUHWND__@@IIJ@Z DD 019930522H
	DD	01H
	DD	FLAT:__unwindtable$?WndProc@@YGJPAUHWND__@@IIJ@Z
	DD	2 DUP(00H)
	DD	2 DUP(00H)
	DD	00H
	DD	01H
; Function compile flags: /Ogtp
; File c:\users\faelhs\mu-1.1\emu - gameserver sapphire s0\gameserver\gameserver.cpp
xdata$x	ENDS
;	COMDAT ?WndProc@@YGJPAUHWND__@@IIJ@Z
_TEXT	SEGMENT
_closeplayer$163119 = -292				; size = 4
_szMsg$163275 = -288					; size = 14
_szTemp$163251 = -272					; size = 256
__$ArrayPad$ = -16					; size = 4
__$EHRec$ = -12						; size = 12
_hWnd$ = 8						; size = 4
_message$ = 12						; size = 4
_wParam$ = 16						; size = 4
_lParam$ = 20						; size = 4
?WndProc@@YGJPAUHWND__@@IIJ@Z PROC			; WndProc, COMDAT

; 251  : {

  00000	55		 push	 ebp
  00001	8b ec		 mov	 ebp, esp
  00003	6a ff		 push	 -1
  00005	68 00 00 00 00	 push	 __ehhandler$?WndProc@@YGJPAUHWND__@@IIJ@Z
  0000a	64 a1 00 00 00
	00		 mov	 eax, DWORD PTR fs:0
  00010	50		 push	 eax
  00011	81 ec 18 01 00
	00		 sub	 esp, 280		; 00000118H
  00017	a1 00 00 00 00	 mov	 eax, DWORD PTR ___security_cookie
  0001c	33 c5		 xor	 eax, ebp
  0001e	89 45 f0	 mov	 DWORD PTR __$ArrayPad$[ebp], eax
  00021	56		 push	 esi
  00022	57		 push	 edi
  00023	50		 push	 eax
  00024	8d 45 f4	 lea	 eax, DWORD PTR __$EHRec$[ebp]
  00027	64 a3 00 00 00
	00		 mov	 DWORD PTR fs:0, eax

; 252  : 	INT wmId, wmEvent;
; 253  : 	
; 254  : 	switch (message) 

  0002d	8b 45 0c	 mov	 eax, DWORD PTR _message$[ebp]
  00030	8b 75 08	 mov	 esi, DWORD PTR _hWnd$[ebp]
  00033	3d 01 04 00 00	 cmp	 eax, 1025		; 00000401H
  00038	0f 87 cc 09 00
	00		 ja	 $LN152@WndProc
  0003e	0f 84 af 09 00
	00		 je	 $LN73@WndProc
  00044	3d 00 01 00 00	 cmp	 eax, 256		; 00000100H
  00049	0f 87 4f 01 00
	00		 ja	 $LN153@WndProc
  0004f	74 66		 je	 SHORT $LN14@WndProc
  00051	8b c8		 mov	 ecx, eax
  00053	49		 dec	 ecx
  00054	0f 84 6e 0a 00
	00		 je	 $LN64@WndProc
  0005a	49		 dec	 ecx
  0005b	74 41		 je	 SHORT $LN2@WndProc
  0005d	83 e9 0e	 sub	 ecx, 14			; 0000000eH
  00060	0f 85 66 0a 00
	00		 jne	 $LN1@WndProc

; 663  : 					break;
; 664  : 			}
; 665  : 			break;
; 666  : 		case WM_CLOSE:
; 667  : 			if ( gLanguage != 3 )

  00066	83 3d 00 00 00
	00 03		 cmp	 DWORD PTR ?gLanguage@@3HA, 3 ; gLanguage
  0006d	74 21		 je	 SHORT $LN17@WndProc

; 668  : 			{
; 669  : 				if (MessageBox(ghWnd, "GameServer close?", "Close", MB_YESNO|MB_APPLMODAL) == IDYES)

  0006f	a1 00 00 00 00	 mov	 eax, DWORD PTR ?ghWnd@@3PAUHWND__@@A ; ghWnd
  00074	6a 04		 push	 4
  00076	68 00 00 00 00	 push	 OFFSET ??_C@_05LGELBCGM@Close?$AA@
  0007b	68 00 00 00 00	 push	 OFFSET ??_C@_0BC@EBEJPBOM@GameServer?5close?$DP?$AA@
  00080	50		 push	 eax
  00081	ff 15 00 00 00
	00		 call	 DWORD PTR __imp__MessageBoxA@16
  00087	83 f8 06	 cmp	 eax, 6
  0008a	0f 85 38 0a 00
	00		 jne	 $LN64@WndProc
$LN17@WndProc:

; 670  : 				{
; 671  : 					DestroyWindow(hWnd);

  00090	56		 push	 esi
  00091	ff 15 00 00 00
	00		 call	 DWORD PTR __imp__DestroyWindow@4

; 719  :    }
; 720  :    return 0;

  00097	33 c0		 xor	 eax, eax
  00099	e9 3e 0a 00 00	 jmp	 $LN147@WndProc
$LN2@WndProc:

; 708  : 					}
; 709  : 					break;
; 710  : 			}
; 711  : 			break;
; 712  : 		case WM_DESTROY:
; 713  : 			GameMainFree();

  0009e	e8 00 00 00 00	 call	 ?GameMainFree@@YAXXZ	; GameMainFree

; 714  : 			GiocpDelete();

  000a3	e8 00 00 00 00	 call	 ?GiocpDelete@@YAXXZ	; GiocpDelete

; 715  : 			PostQuitMessage(0);

  000a8	6a 00		 push	 0
  000aa	ff 15 00 00 00
	00		 call	 DWORD PTR __imp__PostQuitMessage@4

; 719  :    }
; 720  :    return 0;

  000b0	33 c0		 xor	 eax, eax
  000b2	e9 25 0a 00 00	 jmp	 $LN147@WndProc
$LN14@WndProc:

; 672  : 				}
; 673  : 			}
; 674  : 			else
; 675  : 			{
; 676  : 				DestroyWindow(hWnd);
; 677  : 			}
; 678  : 			break;
; 679  : 		case WM_KEYDOWN:
; 680  : 			switch ( wParam )

  000b7	8b 45 10	 mov	 eax, DWORD PTR _wParam$[ebp]
  000ba	83 c0 90	 add	 eax, -112		; ffffff90H
  000bd	83 f8 06	 cmp	 eax, 6
  000c0	0f 87 02 0a 00
	00		 ja	 $LN64@WndProc
  000c6	ff 24 85 00 00
	00 00		 jmp	 DWORD PTR $LN178@WndProc[eax*4]
$LN11@WndProc:

; 681  : 			{
; 682  : 				case VK_F1:
; 683  : 					gCurPaintPlayer--;

  000cd	ff 0d 00 00 00
	00		 dec	 DWORD PTR ?gCurPaintPlayer@@3HA ; gCurPaintPlayer

; 684  : 					if ( gCurPaintPlayer<0)

  000d3	0f 89 ef 09 00
	00		 jns	 $LN64@WndProc

; 685  : 						gCurPaintPlayer=0;

  000d9	c7 05 00 00 00
	00 00 00 00 00	 mov	 DWORD PTR ?gCurPaintPlayer@@3HA, 0 ; gCurPaintPlayer

; 719  :    }
; 720  :    return 0;

  000e3	33 c0		 xor	 eax, eax
  000e5	e9 f2 09 00 00	 jmp	 $LN147@WndProc
$LN9@WndProc:

; 686  : 					break;
; 687  : 				case VK_F2:
; 688  : 					gCurPaintPlayer++;

  000ea	a1 00 00 00 00	 mov	 eax, DWORD PTR ?gCurPaintPlayer@@3HA ; gCurPaintPlayer
  000ef	40		 inc	 eax
  000f0	a3 00 00 00 00	 mov	 DWORD PTR ?gCurPaintPlayer@@3HA, eax ; gCurPaintPlayer

; 689  : 					if ( gCurPaintPlayer > OBJMAX -1 )

  000f5	3d e7 1c 00 00	 cmp	 eax, 7399		; 00001ce7H
  000fa	0f 8e c8 09 00
	00		 jle	 $LN64@WndProc

; 690  : 						gCurPaintPlayer = OBJMAX -1;

  00100	c7 05 00 00 00
	00 e7 1c 00 00	 mov	 DWORD PTR ?gCurPaintPlayer@@3HA, 7399 ; gCurPaintPlayer, 00001ce7H

; 719  :    }
; 720  :    return 0;

  0010a	33 c0		 xor	 eax, eax
  0010c	e9 cb 09 00 00	 jmp	 $LN147@WndProc
$LN7@WndProc:

; 691  : 					break;
; 692  : 				case VK_F5:
; 693  : 					gServerMaxUser -= 10;

  00111	a1 00 00 00 00	 mov	 eax, DWORD PTR ?gServerMaxUser@@3HA ; gServerMaxUser
  00116	83 e8 0a	 sub	 eax, 10			; 0000000aH
  00119	a3 00 00 00 00	 mov	 DWORD PTR ?gServerMaxUser@@3HA, eax ; gServerMaxUser

; 694  : 					if ( gServerMaxUser < 10 )

  0011e	83 f8 0a	 cmp	 eax, 10			; 0000000aH
  00121	0f 8d a1 09 00
	00		 jge	 $LN64@WndProc

; 695  : 						gServerMaxUser = 10;

  00127	c7 05 00 00 00
	00 0a 00 00 00	 mov	 DWORD PTR ?gServerMaxUser@@3HA, 10 ; gServerMaxUser, 0000000aH

; 719  :    }
; 720  :    return 0;

  00131	33 c0		 xor	 eax, eax
  00133	e9 a4 09 00 00	 jmp	 $LN147@WndProc
$LN5@WndProc:

; 696  : 					break;
; 697  : 
; 698  : 				case VK_F6:
; 699  : 					gServerMaxUser += 10;

  00138	a1 00 00 00 00	 mov	 eax, DWORD PTR ?gServerMaxUser@@3HA ; gServerMaxUser
  0013d	83 c0 0a	 add	 eax, 10			; 0000000aH
  00140	a3 00 00 00 00	 mov	 DWORD PTR ?gServerMaxUser@@3HA, eax ; gServerMaxUser

; 700  : 					if ( gServerMaxUser > 1500 )

  00145	3d dc 05 00 00	 cmp	 eax, 1500		; 000005dcH
  0014a	0f 8e 78 09 00
	00		 jle	 $LN64@WndProc

; 701  : 						gServerMaxUser = 1500;

  00150	c7 05 00 00 00
	00 dc 05 00 00	 mov	 DWORD PTR ?gServerMaxUser@@3HA, 1500 ; gServerMaxUser, 000005dcH

; 719  :    }
; 720  :    return 0;

  0015a	33 c0		 xor	 eax, eax
  0015c	e9 7b 09 00 00	 jmp	 $LN147@WndProc
$LN3@WndProc:

; 702  : 					break;
; 703  : 				case VK_F7:
; 704  : 					{
; 705  : 						PMSG_CHARMAPJOIN szMsg;
; 706  : 						strcpy(szMsg.Name, "Å×½ºÆ®");		// Test

  00161	8b 0d 00 00 00
	00		 mov	 ecx, DWORD PTR ??_C@_06MMLDKFPE@?E?W?$LN?$LK?F?$KO?$AA@
  00167	66 8b 15 04 00
	00 00		 mov	 dx, WORD PTR ??_C@_06MMLDKFPE@?E?W?$LN?$LK?F?$KO?$AA@+4
  0016e	a0 06 00 00 00	 mov	 al, BYTE PTR ??_C@_06MMLDKFPE@?E?W?$LN?$LK?F?$KO?$AA@+6
  00173	89 8d e4 fe ff
	ff		 mov	 DWORD PTR _szMsg$163275[ebp+4], ecx

; 707  : 						CGPCharacterMapJoinRequest(&szMsg, 0);

  00179	8d 8d e0 fe ff
	ff		 lea	 ecx, DWORD PTR _szMsg$163275[ebp]
  0017f	6a 00		 push	 0
  00181	51		 push	 ecx
  00182	66 89 95 e8 fe
	ff ff		 mov	 WORD PTR _szMsg$163275[ebp+8], dx
  00189	88 85 ea fe ff
	ff		 mov	 BYTE PTR _szMsg$163275[ebp+10], al
  0018f	e8 00 00 00 00	 call	 ?CGPCharacterMapJoinRequest@@YAXPAUPMSG_CHARMAPJOIN@@H@Z ; CGPCharacterMapJoinRequest
  00194	83 c4 08	 add	 esp, 8

; 719  :    }
; 720  :    return 0;

  00197	33 c0		 xor	 eax, eax
  00199	e9 3e 09 00 00	 jmp	 $LN147@WndProc
$LN153@WndProc:

; 252  : 	INT wmId, wmEvent;
; 253  : 	
; 254  : 	switch (message) 

  0019e	8b c8		 mov	 ecx, eax
  001a0	81 e9 11 01 00
	00		 sub	 ecx, 273		; 00000111H
  001a6	0f 84 27 03 00
	00		 je	 $LN143@WndProc
  001ac	83 e9 02	 sub	 ecx, 2
  001af	0f 85 17 09 00
	00		 jne	 $LN1@WndProc

; 526  : 			break;
; 527  : 		case WM_TIMER:
; 528  : 			switch ( wParam )

  001b5	8b 45 10	 mov	 eax, DWORD PTR _wParam$[ebp]
  001b8	3d e8 03 00 00	 cmp	 eax, 1000		; 000003e8H
  001bd	0f 87 6f 01 00
	00		 ja	 $LN151@WndProc
  001c3	0f 84 f4 00 00
	00		 je	 $LN31@WndProc
  001c9	83 e8 64	 sub	 eax, 100		; 00000064H
  001cc	0f 84 d5 00 00
	00		 je	 $LN59@WndProc
  001d2	48		 dec	 eax
  001d3	0f 85 ef 08 00
	00		 jne	 $LN64@WndProc

; 556  : 					break;
; 557  : 				case WM_FIRST_MSG_PROCESS:
; 558  : 					{
; 559  : 						for ( int n=0;n<OBJMAX;n++)

  001d9	33 f6		 xor	 esi, esi
  001db	eb 03 8d 49 00	 npad	 5
$LL54@WndProc:

; 560  : 						{
; 561  : 							gObjStateSetCreate(n);

  001e0	56		 push	 esi
  001e1	e8 00 00 00 00	 call	 ?gObjStateSetCreate@@YAXH@Z ; gObjStateSetCreate
  001e6	46		 inc	 esi
  001e7	83 c4 04	 add	 esp, 4
  001ea	81 fe e8 1c 00
	00		 cmp	 esi, 7400		; 00001ce8H
  001f0	7c ee		 jl	 SHORT $LL54@WndProc

; 562  : 						}
; 563  : 						for ( int n=0;n<OBJMAX;n++)

  001f2	33 f6		 xor	 esi, esi
$LL51@WndProc:

; 564  : 						{
; 565  : 							gObjViewportListDestroy(n);

  001f4	56		 push	 esi
  001f5	e8 00 00 00 00	 call	 ?gObjViewportListDestroy@@YAXF@Z ; gObjViewportListDestroy
  001fa	46		 inc	 esi
  001fb	83 c4 04	 add	 esp, 4
  001fe	81 fe e8 1c 00
	00		 cmp	 esi, 7400		; 00001ce8H
  00204	7c ee		 jl	 SHORT $LL51@WndProc

; 566  : 						}
; 567  : 						for ( int n=0;n<OBJMAX;n++)

  00206	33 f6		 xor	 esi, esi
$LL48@WndProc:

; 568  : 						{
; 569  : 							gObjViewportListCreate(n);

  00208	56		 push	 esi
  00209	e8 00 00 00 00	 call	 ?gObjViewportListCreate@@YAXF@Z ; gObjViewportListCreate
  0020e	46		 inc	 esi
  0020f	83 c4 04	 add	 esp, 4
  00212	81 fe e8 1c 00
	00		 cmp	 esi, 7400		; 00001ce8H
  00218	7c ee		 jl	 SHORT $LL48@WndProc

; 570  : 						}
; 571  : 						for (int n=0;n<OBJMAX;n++)

  0021a	33 f6		 xor	 esi, esi
  0021c	8d 64 24 00	 npad	 4
$LL45@WndProc:

; 572  : 						{
; 573  : 							gObjViewportListProtocol(n);

  00220	56		 push	 esi
  00221	e8 00 00 00 00	 call	 ?gObjViewportListProtocol@@YAXF@Z ; gObjViewportListProtocol
  00226	46		 inc	 esi
  00227	83 c4 04	 add	 esp, 4
  0022a	81 fe e8 1c 00
	00		 cmp	 esi, 7400		; 00001ce8H
  00230	7c ee		 jl	 SHORT $LL45@WndProc

; 574  : 						}
; 575  : #pragma message("Optimize this loops on WndProc")
; 576  : 						if ( gDoPShopOpen != FALSE )

  00232	83 3d 00 00 00
	00 00		 cmp	 DWORD PTR ?gDoPShopOpen@@3HA, 0 ; gDoPShopOpen
  00239	74 44		 je	 SHORT $LN36@WndProc

; 577  : 						{
; 578  : 							for (int n= OBJ_STARTUSERINDEX;n<OBJMAX;n++)

  0023b	be 00 19 00 00	 mov	 esi, 6400		; 00001900H
$LL41@WndProc:

; 579  : 							{
; 580  : 								PShop_ViewportListRegenarate(n);

  00240	56		 push	 esi
  00241	e8 00 00 00 00	 call	 ?PShop_ViewportListRegenarate@@YAXF@Z ; PShop_ViewportListRegenarate
  00246	46		 inc	 esi
  00247	83 c4 04	 add	 esp, 4
  0024a	81 fe e8 1c 00
	00		 cmp	 esi, 7400		; 00001ce8H
  00250	7c ee		 jl	 SHORT $LL41@WndProc

; 581  : 							}
; 582  : 							for (int n=OBJ_STARTUSERINDEX;n<OBJMAX;n++)

  00252	bf 00 19 00 00	 mov	 edi, 6400		; 00001900H
  00257	be 2a d1 16 02	 mov	 esi, OFFSET ?gObj@@3PAUOBJECTSTRUCT@@A+35049770
  0025c	8d 64 24 00	 npad	 4
$LL38@WndProc:

; 583  : 							{
; 584  : 								if (gObjIsConnected(n) != PLAYER_EMPTY )

  00260	57		 push	 edi
  00261	e8 00 00 00 00	 call	 ?gObjIsConnected@@YAHH@Z ; gObjIsConnected
  00266	83 c4 04	 add	 esp, 4
  00269	85 c0		 test	 eax, eax
  0026b	74 03		 je	 SHORT $LN37@WndProc

; 585  : 								{
; 586  : 									gObj[n].m_bPShopItemChange = false;

  0026d	c6 06 00	 mov	 BYTE PTR [esi], 0
$LN37@WndProc:

; 581  : 							}
; 582  : 							for (int n=OBJ_STARTUSERINDEX;n<OBJMAX;n++)

  00270	81 c6 64 15 00
	00		 add	 esi, 5476		; 00001564H
  00276	47		 inc	 edi
  00277	81 fe ca 5f 6a
	02		 cmp	 esi, OFFSET ?gObj@@3PAUOBJECTSTRUCT@@A+40525770
  0027d	7c e1		 jl	 SHORT $LL38@WndProc
$LN36@WndProc:

; 587  : 								}
; 588  : 							}
; 589  : 						}
; 590  : 						for (int n=OBJ_STARTUSERINDEX;n<OBJMAX;n++)

  0027f	be 00 19 00 00	 mov	 esi, 6400		; 00001900H
$LL34@WndProc:

; 591  : 						{
; 592  : 							gObjUnionUpdateProc(n);

  00284	56		 push	 esi
  00285	e8 00 00 00 00	 call	 ?gObjUnionUpdateProc@@YAXH@Z ; gObjUnionUpdateProc
  0028a	46		 inc	 esi
  0028b	83 c4 04	 add	 esp, 4
  0028e	81 fe e8 1c 00
	00		 cmp	 esi, 7400		; 00001ce8H
  00294	7c ee		 jl	 SHORT $LL34@WndProc

; 593  : 						}
; 594  : 						gObjSetState();

  00296	e8 00 00 00 00	 call	 ?gObjSetState@@YAXXZ	; gObjSetState

; 595  : 						GameServerInfoSend();

  0029b	e8 00 00 00 00	 call	 ?GameServerInfoSend@@YAXXZ ; GameServerInfoSend

; 719  :    }
; 720  :    return 0;

  002a0	33 c0		 xor	 eax, eax
  002a2	e9 35 08 00 00	 jmp	 $LN147@WndProc
$LN59@WndProc:

; 533  : 					break;
; 534  : 				case WM_LOG_PAINT:
; 535  : 					{
; 536  : 						gServerDisplayer.Run();

  002a7	b9 00 00 00 00	 mov	 ecx, OFFSET ?gServerDisplayer@@3VCServerDisplayer@@A ; gServerDisplayer
  002ac	e8 00 00 00 00	 call	 ?Run@CServerDisplayer@@QAEXXZ ; CServerDisplayer::Run

; 537  : 						// ---
; 538  : 						GJNotifyMaxUserCount();

  002b1	e8 00 00 00 00	 call	 ?GJNotifyMaxUserCount@@YAXXZ ; GJNotifyMaxUserCount

; 719  :    }
; 720  :    return 0;

  002b6	33 c0		 xor	 eax, eax
  002b8	e9 1f 08 00 00	 jmp	 $LN147@WndProc
$LN31@WndProc:

; 596  : 					}
; 597  : 					break;
; 598  : 				case WM_SECOND_MSG_PROCESS:
; 599  : 					{
; 600  : 						for (int n = 0;n<MAX_NUMBER_MAP;n++)

  002bd	be 00 00 00 00	 mov	 esi, OFFSET ?MapC@@3PAVMapClass@@A ; MapC
$LL30@WndProc:

; 601  : 						{
; 602  : 							MapC[n].WeatherVariationProcess();

  002c2	8b ce		 mov	 ecx, esi
  002c4	e8 00 00 00 00	 call	 ?WeatherVariationProcess@MapClass@@QAEXXZ ; MapClass::WeatherVariationProcess
  002c9	81 c6 08 07 05
	00		 add	 esi, 329480		; 00050708H
  002cf	81 fe 40 19 c9
	00		 cmp	 esi, OFFSET ?MapC@@3PAVMapClass@@A+13179200
  002d5	7c eb		 jl	 SHORT $LL30@WndProc

; 603  : 						}
; 604  : 						wsGServer.m_SendSec = wsGServer.m_SendSecTmp;

  002d7	8b 15 20 00 00
	00		 mov	 edx, DWORD PTR ?wsGServer@@3VCwsGameServer@@A+32

; 605  : 						wsGServer.m_RecvSec = wsGServer.m_RecvSecTmp;

  002dd	a1 28 00 00 00	 mov	 eax, DWORD PTR ?wsGServer@@3VCwsGameServer@@A+40

; 606  : 						wsGServer.m_SendSecTmp = 0;
; 607  : 						wsGServer.m_RecvSecTmp = 0;
; 608  : 						DragonEvent->Run();

  002e2	8b 0d 00 00 00
	00		 mov	 ecx, DWORD PTR ?DragonEvent@@3PAVCDragonEvent@@A ; DragonEvent
  002e8	89 15 1c 00 00
	00		 mov	 DWORD PTR ?wsGServer@@3VCwsGameServer@@A+28, edx
  002ee	a3 24 00 00 00	 mov	 DWORD PTR ?wsGServer@@3VCwsGameServer@@A+36, eax
  002f3	c7 05 20 00 00
	00 00 00 00 00	 mov	 DWORD PTR ?wsGServer@@3VCwsGameServer@@A+32, 0
  002fd	c7 05 28 00 00
	00 00 00 00 00	 mov	 DWORD PTR ?wsGServer@@3VCwsGameServer@@A+40, 0
  00307	e8 00 00 00 00	 call	 ?Run@CDragonEvent@@QAEXXZ ; CDragonEvent::Run

; 609  : 						AttackEvent->Run();

  0030c	8b 0d 00 00 00
	00		 mov	 ecx, DWORD PTR ?AttackEvent@@3PAVCAttackEvent@@A ; AttackEvent
  00312	e8 00 00 00 00	 call	 ?Run@CAttackEvent@@QAEXXZ ; CAttackEvent::Run

; 610  : 						gEledoradoEvent.Run();

  00317	b9 00 00 00 00	 mov	 ecx, OFFSET ?gEledoradoEvent@@3VCEledoradoEvent@@A ; gEledoradoEvent
  0031c	e8 00 00 00 00	 call	 ?Run@CEledoradoEvent@@QAEXXZ ; CEledoradoEvent::Run

; 611  : 						g_EventManager.Run();

  00321	b9 00 00 00 00	 mov	 ecx, OFFSET ?g_EventManager@@3VCEventManagement@@A ; g_EventManager
  00326	e8 00 00 00 00	 call	 ?Run@CEventManagement@@QAEXXZ ; CEventManagement::Run

; 719  :    }
; 720  :    return 0;

  0032b	33 c0		 xor	 eax, eax
  0032d	e9 aa 07 00 00	 jmp	 $LN147@WndProc
$LN151@WndProc:

; 526  : 			break;
; 527  : 		case WM_TIMER:
; 528  : 			switch ( wParam )

  00332	05 17 fc ff ff	 add	 eax, -1001		; fffffc17H
  00337	83 f8 07	 cmp	 eax, 7
  0033a	0f 87 88 07 00
	00		 ja	 $LN64@WndProc
  00340	ff 24 85 00 00
	00 00		 jmp	 DWORD PTR $LN179@WndProc[eax*4]
$LN60@WndProc:

; 529  : 			{
; 530  : 				case WM_GUILD_LIST_REQUEST:
; 531  : 					DGGuildListRequest();

  00347	e8 00 00 00 00	 call	 ?DGGuildListRequest@@YAXXZ ; DGGuildListRequest

; 532  : 					KillTimer(ghWnd, WM_GUILD_LIST_REQUEST);

  0034c	8b 0d 00 00 00
	00		 mov	 ecx, DWORD PTR ?ghWnd@@3PAUHWND__@@A ; ghWnd
  00352	68 f0 03 00 00	 push	 1008			; 000003f0H
  00357	51		 push	 ecx
  00358	ff 15 00 00 00
	00		 call	 DWORD PTR __imp__KillTimer@8

; 719  :    }
; 720  :    return 0;

  0035e	33 c0		 xor	 eax, eax
  00360	e9 77 07 00 00	 jmp	 $LN147@WndProc
$LN58@WndProc:

; 539  : 					}
; 540  : 					break;
; 541  : 				case WM_MONSTER_AND_MSG_PROC:
; 542  : 					MonsterAndMsgProc();

  00365	e8 00 00 00 00	 call	 ?MonsterAndMsgProc@@YAXXZ ; MonsterAndMsgProc

; 719  :    }
; 720  :    return 0;

  0036a	33 c0		 xor	 eax, eax
  0036c	e9 6b 07 00 00	 jmp	 $LN147@WndProc
$LN57@WndProc:

; 543  : 					break;
; 544  : 				case WM_MOVE_MONSTER_PROC:
; 545  : 					MoveMonsterProc();

  00371	e8 00 00 00 00	 call	 ?MoveMonsterProc@@YAXXZ	; MoveMonsterProc

; 719  :    }
; 720  :    return 0;

  00376	33 c0		 xor	 eax, eax
  00378	e9 5f 07 00 00	 jmp	 $LN147@WndProc
$LN56@WndProc:

; 546  : 					break;
; 547  : 				case WM_EVENT_RUN_PROC:
; 548  : 					g_BloodCastle.Run();

  0037d	b9 00 00 00 00	 mov	 ecx, OFFSET ?g_BloodCastle@@3VCBloodCastle@@A ; g_BloodCastle
  00382	e8 00 00 00 00	 call	 ?Run@CBloodCastle@@QAEXXZ ; CBloodCastle::Run

; 549  : 					g_RingAttackEvent.Run();

  00387	b9 00 00 00 00	 mov	 ecx, OFFSET ?g_RingAttackEvent@@3VCRingAttackEvent@@A ; g_RingAttackEvent
  0038c	e8 00 00 00 00	 call	 ?Run@CRingAttackEvent@@QAEXXZ ; CRingAttackEvent::Run

; 550  : 					g_ChaosCastle.Run();

  00391	b9 00 00 00 00	 mov	 ecx, OFFSET ?g_ChaosCastle@@3VCChaosCastle@@A ; g_ChaosCastle
  00396	e8 00 00 00 00	 call	 ?Run@CChaosCastle@@QAEXXZ ; CChaosCastle::Run

; 551  : #if (GS_CASTLE==1)
; 552  : 					g_CastleSiege.Run();
; 553  : 					g_CastleDeepEvent.Run();
; 554  : #endif
; 555  : 					g_CsNPC_Weapon.WeaponAttackProc();

  0039b	b9 00 00 00 00	 mov	 ecx, OFFSET ?g_CsNPC_Weapon@@3VCWeapon@@A ; g_CsNPC_Weapon
  003a0	e8 00 00 00 00	 call	 ?WeaponAttackProc@CWeapon@@QAEXXZ ; CWeapon::WeaponAttackProc

; 719  :    }
; 720  :    return 0;

  003a5	33 c0		 xor	 eax, eax
  003a7	e9 30 07 00 00	 jmp	 $LN147@WndProc
$LN27@WndProc:

; 612  : 					}
; 613  : 					break;
; 614  : 				case WM_GS_CLOSE:
; 615  : 					if ( gCloseMsg != 0 )

  003ac	83 3d 00 00 00
	00 00		 cmp	 DWORD PTR ?gCloseMsg@@3HA, 0 ; gCloseMsg
  003b3	0f 84 d8 00 00
	00		 je	 $LN21@WndProc

; 616  : 					{
; 617  : 						gCloseMsgTime--;

  003b9	8b 0d 00 00 00
	00		 mov	 ecx, DWORD PTR ?gCloseMsgTime@@3HA ; gCloseMsgTime
  003bf	49		 dec	 ecx
  003c0	89 0d 00 00 00
	00		 mov	 DWORD PTR ?gCloseMsgTime@@3HA, ecx ; gCloseMsgTime

; 618  : 
; 619  : 						if ( gCloseMsgTime <= 1 )

  003c6	83 f9 01	 cmp	 ecx, 1
  003c9	7f 3a		 jg	 SHORT $LN25@WndProc

; 620  : 						{
; 621  : 							if ( gCloseMsgTime == 1 )

  003cb	0f 85 91 00 00
	00		 jne	 $LN22@WndProc

; 622  : 							{
; 623  : 								AllSendServerMsg(lMsg.Get(MSGGET(1, 193)));

  003d1	68 c1 01 00 00	 push	 449			; 000001c1H
  003d6	b9 00 00 00 00	 mov	 ecx, OFFSET ?lMsg@@3VCMsg@@A ; lMsg
  003db	e8 00 00 00 00	 call	 ?Get@CMsg@@QAEPADH@Z	; CMsg::Get
  003e0	50		 push	 eax
  003e1	e8 00 00 00 00	 call	 ?AllSendServerMsg@@YAXPAD@Z ; AllSendServerMsg
  003e6	83 c4 04	 add	 esp, 4

; 624  : 								LogAdd(LOG_RED,  lMsg.Get(MSGGET(1, 193)));

  003e9	68 c1 01 00 00	 push	 449			; 000001c1H
  003ee	b9 00 00 00 00	 mov	 ecx, OFFSET ?lMsg@@3VCMsg@@A ; lMsg
  003f3	e8 00 00 00 00	 call	 ?Get@CMsg@@QAEPADH@Z	; CMsg::Get
  003f8	50		 push	 eax
  003f9	6a 01		 push	 1
  003fb	e8 00 00 00 00	 call	 ?LogAdd@@YAXW4eLogColor@@PADZZ ; LogAdd
  00400	83 c4 08	 add	 esp, 8

; 625  : 							}
; 626  : 						}
; 627  : 						else

  00403	eb 57		 jmp	 SHORT $LN174@WndProc
$LN25@WndProc:

; 628  : 						{
; 629  : 							if ( (gCloseMsgTime % 10) == 0 )

  00405	b8 67 66 66 66	 mov	 eax, 1717986919		; 66666667H
  0040a	f7 e9		 imul	 ecx
  0040c	c1 fa 02	 sar	 edx, 2
  0040f	8b c2		 mov	 eax, edx
  00411	c1 e8 1f	 shr	 eax, 31			; 0000001fH
  00414	03 c2		 add	 eax, edx
  00416	8d 14 80	 lea	 edx, DWORD PTR [eax+eax*4]
  00419	03 d2		 add	 edx, edx
  0041b	8b c1		 mov	 eax, ecx
  0041d	2b c2		 sub	 eax, edx
  0041f	75 41		 jne	 SHORT $LN22@WndProc

; 630  : 							{
; 631  : 								char szTemp[256];
; 632  : 
; 633  : 								wsprintf( szTemp, lMsg.Get(MSGGET(1, 194)), gCloseMsgTime);

  00421	51		 push	 ecx
  00422	68 c2 01 00 00	 push	 450			; 000001c2H
  00427	b9 00 00 00 00	 mov	 ecx, OFFSET ?lMsg@@3VCMsg@@A ; lMsg
  0042c	e8 00 00 00 00	 call	 ?Get@CMsg@@QAEPADH@Z	; CMsg::Get
  00431	50		 push	 eax
  00432	8d 8d f0 fe ff
	ff		 lea	 ecx, DWORD PTR _szTemp$163251[ebp]
  00438	51		 push	 ecx
  00439	ff 15 00 00 00
	00		 call	 DWORD PTR __imp__wsprintfA

; 634  : 								AllSendServerMsg(szTemp);

  0043f	8d 95 f0 fe ff
	ff		 lea	 edx, DWORD PTR _szTemp$163251[ebp]
  00445	52		 push	 edx
  00446	e8 00 00 00 00	 call	 ?AllSendServerMsg@@YAXPAD@Z ; AllSendServerMsg

; 635  : 								LogAdd(LOG_RED,  szTemp);

  0044b	8d 85 f0 fe ff
	ff		 lea	 eax, DWORD PTR _szTemp$163251[ebp]
  00451	50		 push	 eax
  00452	6a 01		 push	 1
  00454	e8 00 00 00 00	 call	 ?LogAdd@@YAXW4eLogColor@@PADZZ ; LogAdd
  00459	83 c4 18	 add	 esp, 24			; 00000018H
$LN174@WndProc:
  0045c	8b 0d 00 00 00
	00		 mov	 ecx, DWORD PTR ?gCloseMsgTime@@3HA ; gCloseMsgTime
$LN22@WndProc:

; 636  : 							}
; 637  : 						}
; 638  : 
; 639  : 						if ( gCloseMsgTime < 0 )

  00462	85 c9		 test	 ecx, ecx
  00464	79 2b		 jns	 SHORT $LN21@WndProc

; 640  : 						{
; 641  : 							KillTimer(ghWnd, WM_GS_CLOSE);

  00466	8b 0d 00 00 00
	00		 mov	 ecx, DWORD PTR ?ghWnd@@3PAUHWND__@@A ; ghWnd
  0046c	68 ea 03 00 00	 push	 1002			; 000003eaH
  00471	51		 push	 ecx
  00472	ff 15 00 00 00
	00		 call	 DWORD PTR __imp__KillTimer@8

; 642  : 							gObjAllLogOut();

  00478	e8 00 00 00 00	 call	 ?gObjAllLogOut@@YAXXZ	; gObjAllLogOut

; 643  : 							gCloseMsgTime = 0;

  0047d	c7 05 00 00 00
	00 00 00 00 00	 mov	 DWORD PTR ?gCloseMsgTime@@3HA, 0 ; gCloseMsgTime

; 644  : 							gCloseMsg = 0;

  00487	c7 05 00 00 00
	00 00 00 00 00	 mov	 DWORD PTR ?gCloseMsg@@3HA, 0 ; gCloseMsg
$LN21@WndProc:

; 645  : 						}
; 646  : 					}
; 647  : 					gObjSecondProc();

  00491	e8 00 00 00 00	 call	 ?gObjSecondProc@@YAXXZ	; gObjSecondProc

; 648  : #if GS_CASTLE == 1
; 649  : 					if ( cDBSMng.GetActiveDS() > -1 && g_CastleSiege.GetDataLoadState() == 2)
; 650  : 						g_CastleSiege.DataRequest();
; 651  : 
; 652  : 					g_CastleSiege.SendCastleStateSync();
; 653  : #endif
; 654  : 					g_CastleSiegeSync.AdjustTributeMoney();

  00496	b9 00 00 00 00	 mov	 ecx, OFFSET ?g_CastleSiegeSync@@3VCCastleSiegeSync@@A ; g_CastleSiegeSync
  0049b	e8 00 00 00 00	 call	 ?AdjustTributeMoney@CCastleSiegeSync@@QAEXXZ ; CCastleSiegeSync::AdjustTributeMoney

; 719  :    }
; 720  :    return 0;

  004a0	33 c0		 xor	 eax, eax
  004a2	e9 35 06 00 00	 jmp	 $LN147@WndProc
$LN20@WndProc:

; 655  : 					break;
; 656  : 				case WM_SET_DATE:
; 657  : 					gSetDate();

  004a7	e8 00 00 00 00	 call	 ?gSetDate@@YAXXZ	; gSetDate

; 658  : 					WhisperCash.TimeCheckCashDelete();

  004ac	b9 00 00 00 00	 mov	 ecx, OFFSET ?WhisperCash@@3VCWhisperCash@@A ; WhisperCash
  004b1	e8 00 00 00 00	 call	 ?TimeCheckCashDelete@CWhisperCash@@QAEXXZ ; CWhisperCash::TimeCheckCashDelete

; 719  :    }
; 720  :    return 0;

  004b6	33 c0		 xor	 eax, eax
  004b8	e9 1f 06 00 00	 jmp	 $LN147@WndProc
$LN19@WndProc:

; 659  : 					break;
; 660  : 				case WM_CONNECT_DATASERVER:
; 661  : 					cDBSMng.Connect();

  004bd	b9 00 00 00 00	 mov	 ecx, OFFSET ?cDBSMng@@3VDBSockMng@@A ; cDBSMng
  004c2	e8 00 00 00 00	 call	 ?Connect@DBSockMng@@QAEXXZ ; DBSockMng::Connect

; 662  : 					gObjCheckAllUserDuelStop();

  004c7	e8 00 00 00 00	 call	 ?gObjCheckAllUserDuelStop@@YAXXZ ; gObjCheckAllUserDuelStop

; 719  :    }
; 720  :    return 0;

  004cc	33 c0		 xor	 eax, eax
  004ce	e9 09 06 00 00	 jmp	 $LN147@WndProc
$LN143@WndProc:

; 255  : 	{
; 256  : 		case WM_CREATE:
; 257  : 			//gWhatsUpDummyServer.Start(hWnd, 55902);
; 258  : #if GS_CASTLE == 1
; 259  : 			g_hCsLogDlgProc = CreateDialogParam(hInst, LPCTSTR(IDD_CASTLE_SIEGE_LOG), hWnd, CsLogDlgProc, 0);
; 260  : #endif
; 261  : 			return 0;
; 262  : 		case WM_COMMAND:
; 263  : 			wmId    = wParam & 0xFFFF & 0xFFFF; 

  004d3	8b 4d 10	 mov	 ecx, DWORD PTR _wParam$[ebp]
  004d6	8b c1		 mov	 eax, ecx
  004d8	25 ff ff 00 00	 and	 eax, 65535		; 0000ffffH

; 264  : 			wmEvent = (wParam >> 16) & 0xFFFF; 
; 265  : 					
; 266  : 			// Parse the menu selections:
; 267  : 			switch (wmId)

  004dd	3d 04 80 00 00	 cmp	 eax, 32772		; 00008004H
  004e2	7f 4a		 jg	 SHORT $LN149@WndProc
  004e4	74 3c		 je	 SHORT $LN135@WndProc
  004e6	83 e8 68	 sub	 eax, 104		; 00000068H
  004e9	74 19		 je	 SHORT $LN140@WndProc
  004eb	48		 dec	 eax
  004ec	0f 85 f2 04 00
	00		 jne	 $LN74@WndProc

; 271  : 				   break;
; 272  : 				case IDM_EXIT:
; 273  : 				   SendMessage(hWnd, WM_CLOSE, 0, 0);

  004f2	50		 push	 eax
  004f3	50		 push	 eax
  004f4	6a 10		 push	 16			; 00000010H
  004f6	56		 push	 esi
  004f7	ff 15 00 00 00
	00		 call	 DWORD PTR __imp__SendMessageA@16

; 719  :    }
; 720  :    return 0;

  004fd	33 c0		 xor	 eax, eax
  004ff	e9 d8 05 00 00	 jmp	 $LN147@WndProc
$LN140@WndProc:

; 268  : 			{
; 269  : 				case IDM_ABOUT:
; 270  : 				   DialogBox(hInst, (LPCTSTR)IDD_ABOUT_BOX, hWnd, (DLGPROC)About);

  00504	8b 15 00 00 00
	00		 mov	 edx, DWORD PTR ?hInst@@3PAUHINSTANCE__@@A ; hInst
  0050a	6a 00		 push	 0
  0050c	68 00 00 00 00	 push	 OFFSET ?About@@YGJPAUHWND__@@IIJ@Z ; About
  00511	56		 push	 esi
  00512	6a 67		 push	 103			; 00000067H
  00514	52		 push	 edx
  00515	ff 15 00 00 00
	00		 call	 DWORD PTR __imp__DialogBoxParamA@20

; 719  :    }
; 720  :    return 0;

  0051b	33 c0		 xor	 eax, eax
  0051d	e9 ba 05 00 00	 jmp	 $LN147@WndProc
$LN135@WndProc:

; 286  : 					break;
; 287  : 				case IDM_MONSTER_POSITION_RELOAD:
; 288  : 					GameMonsterAllCloseAndReLoad();

  00522	e8 00 00 00 00	 call	 ?GameMonsterAllCloseAndReLoad@@YAXXZ ; GameMonsterAllCloseAndReLoad

; 719  :    }
; 720  :    return 0;

  00527	33 c0		 xor	 eax, eax
  00529	e9 ae 05 00 00	 jmp	 $LN147@WndProc
$LN149@WndProc:

; 264  : 			wmEvent = (wParam >> 16) & 0xFFFF; 
; 265  : 					
; 266  : 			// Parse the menu selections:
; 267  : 			switch (wmId)

  0052e	3d 40 9c 00 00	 cmp	 eax, 40000		; 00009c40H
  00533	0f 8f 0e 04 00
	00		 jg	 $LN150@WndProc
  00539	0f 84 f7 03 00
	00		 je	 $LN83@WndProc
  0053f	2d 05 80 00 00	 sub	 eax, 32773		; 00008005H
  00544	83 f8 35	 cmp	 eax, 53			; 00000035H
  00547	0f 87 97 04 00
	00		 ja	 $LN74@WndProc
  0054d	ff 24 85 00 00
	00 00		 jmp	 DWORD PTR $LN180@WndProc[eax*4]
$LN138@WndProc:

; 274  : 				   break;
; 275  : 				case IDM_CLOSE_PLAYER:
; 276  : 					{
; 277  : 						Ccloseplayer closeplayer;

  00554	8d 8d dc fe ff
	ff		 lea	 ecx, DWORD PTR _closeplayer$163119[ebp]
  0055a	e8 00 00 00 00	 call	 ??0Ccloseplayer@@QAE@XZ	; Ccloseplayer::Ccloseplayer

; 278  : 						closeplayer.Load("closeplayer.txt");

  0055f	68 00 00 00 00	 push	 OFFSET ??_C@_0BA@LAAHBEDI@closeplayer?4txt?$AA@
  00564	8d 8d dc fe ff
	ff		 lea	 ecx, DWORD PTR _closeplayer$163119[ebp]
  0056a	c7 45 fc 00 00
	00 00		 mov	 DWORD PTR __$EHRec$[ebp+8], 0
  00571	e8 00 00 00 00	 call	 ?Load@Ccloseplayer@@QAEXPAD@Z ; Ccloseplayer::Load

; 279  : 					}

  00576	8d 8d dc fe ff
	ff		 lea	 ecx, DWORD PTR _closeplayer$163119[ebp]
  0057c	c7 45 fc ff ff
	ff ff		 mov	 DWORD PTR __$EHRec$[ebp+8], -1
  00583	e8 00 00 00 00	 call	 ??1Ccloseplayer@@UAE@XZ	; Ccloseplayer::~Ccloseplayer

; 719  :    }
; 720  :    return 0;

  00588	33 c0		 xor	 eax, eax
  0058a	e9 4d 05 00 00	 jmp	 $LN147@WndProc
$LN137@WndProc:

; 280  : 					break;
; 281  : 				case IDM_ALL_USER_CLOSE:
; 282  : 					gObjAllDisconnect();

  0058f	e8 00 00 00 00	 call	 ?gObjAllDisconnect@@YAXXZ ; gObjAllDisconnect

; 719  :    }
; 720  :    return 0;

  00594	33 c0		 xor	 eax, eax
  00596	e9 41 05 00 00	 jmp	 $LN147@WndProc
$LN136@WndProc:

; 283  : 					break;
; 284  : 				case IDM_ALL_USER_LOGOUT:
; 285  : 					gObjAllLogOut();

  0059b	e8 00 00 00 00	 call	 ?gObjAllLogOut@@YAXXZ	; gObjAllLogOut

; 719  :    }
; 720  :    return 0;

  005a0	33 c0		 xor	 eax, eax
  005a2	e9 35 05 00 00	 jmp	 $LN147@WndProc
$LN134@WndProc:

; 289  : 					break;
; 290  : 				case IDM_SHOP_RELOAD:
; 291  : 					ShopDataLoad();

  005a7	e8 00 00 00 00	 call	 ?ShopDataLoad@@YAHXZ	; ShopDataLoad

; 719  :    }
; 720  :    return 0;

  005ac	33 c0		 xor	 eax, eax
  005ae	e9 29 05 00 00	 jmp	 $LN147@WndProc
$LN133@WndProc:

; 292  : 					break;
; 293  : 				case IDM_MAP_SERVER_INFO_RELOAD:
; 294  : 					g_MapServerManager.LoadData(gDirPath.GetNewPath("MapServerInfo.dat") );

  005b3	68 00 00 00 00	 push	 OFFSET ??_C@_0BC@MBPKGCDH@MapServerInfo?4dat?$AA@
  005b8	b9 00 00 00 00	 mov	 ecx, OFFSET ?gDirPath@@3VCDirPath@@A ; gDirPath
  005bd	e8 00 00 00 00	 call	 ?GetNewPath@CDirPath@@QAEPADPAD@Z ; CDirPath::GetNewPath
  005c2	50		 push	 eax
  005c3	b9 00 00 00 00	 mov	 ecx, OFFSET ?g_MapServerManager@@3VCMapServerManager@@A ; g_MapServerManager
  005c8	e8 00 00 00 00	 call	 ?LoadData@CMapServerManager@@QAEHPAD@Z ; CMapServerManager::LoadData

; 719  :    }
; 720  :    return 0;

  005cd	33 c0		 xor	 eax, eax
  005cf	e9 08 05 00 00	 jmp	 $LN147@WndProc
$LN132@WndProc:

; 295  : 					break;
; 296  : #if GS_CASTLE == 1
; 297  : 				case IDM_CASTLE_SIEGE_RELOAD:
; 298  : 					if ( g_CastleSiege.Ready(g_MapServerManager.GetMapSvrGroup()) == TRUE )
; 299  : 					{
; 300  : 						if ( g_CastleSiege.LoadData(gDirPath.GetNewPath("MuCastleData.dat")) )
; 301  : 						{
; 302  : 							g_CastleSiege.LoadPreFixData(gDirPath.GetNewPath("commonserver.cfg"));
; 303  : 							g_CastleSiege.SetDataLoadState(CASTLESIEGE_DATALOAD_2);
; 304  : 						}
; 305  : 					}
; 306  : 					break;
; 307  : #endif
; 308  : 				case IDM_IP_LOAD:
; 309  : 					acceptIP.Load(gDirPath.GetNewPath("Iplist.dat"));

  005d4	68 00 00 00 00	 push	 OFFSET ??_C@_0L@DPAHEMHE@Iplist?4dat?$AA@
  005d9	b9 00 00 00 00	 mov	 ecx, OFFSET ?gDirPath@@3VCDirPath@@A ; gDirPath
  005de	e8 00 00 00 00	 call	 ?GetNewPath@CDirPath@@QAEPADPAD@Z ; CDirPath::GetNewPath
  005e3	50		 push	 eax
  005e4	b9 00 00 00 00	 mov	 ecx, OFFSET ?acceptIP@@3VCAcceptIp@@A ; acceptIP
  005e9	e8 00 00 00 00	 call	 ?Load@CAcceptIp@@QAEXPAD@Z ; CAcceptIp::Load

; 719  :    }
; 720  :    return 0;

  005ee	33 c0		 xor	 eax, eax
  005f0	e9 e7 04 00 00	 jmp	 $LN147@WndProc
$LN131@WndProc:

; 310  : 					break;
; 311  : 				case IDM_OPTION_RELOAD:
; 312  : 					ReadCommonServerInfo();

  005f5	e8 00 00 00 00	 call	 ?ReadCommonServerInfo@@YAXXZ ; ReadCommonServerInfo

; 719  :    }
; 720  :    return 0;

  005fa	33 c0		 xor	 eax, eax
  005fc	e9 db 04 00 00	 jmp	 $LN147@WndProc
$LN130@WndProc:

; 313  : 					break;
; 314  : 				case IDM_LOG_PAINT:
; 315  : 					gCurPaintType=0;

  00601	c7 05 00 00 00
	00 00 00 00 00	 mov	 DWORD PTR ?gCurPaintType@@3HA, 0 ; gCurPaintType

; 719  :    }
; 720  :    return 0;

  0060b	33 c0		 xor	 eax, eax
  0060d	e9 ca 04 00 00	 jmp	 $LN147@WndProc
$LN129@WndProc:

; 316  : 					break;
; 317  : #if GS_CASTLE == 1
; 318  : 				case IDM_LOG_CASTLESIEGE:
; 319  : 					SendMessage(GetDlgItem(g_hCsLogDlgProc,	IDE_EDIT_LOG), LB_ADDSTRING, 0, (rand() % 2) ? (LONG)"HELLO WORLD" : (LONG)"¿È³Ä");
; 320  : 					ShowWindow(g_hCsLogDlgProc, SW_SHOWNORMAL);
; 321  : 					break;
; 322  : #endif
; 323  : 				case IDM_MAP1:
; 324  : 					gCurPaintMapNumber = 0;	// Lorencia

  00612	c7 05 00 00 00
	00 00 00 00 00	 mov	 DWORD PTR ?gCurPaintMapNumber@@3HA, 0 ; gCurPaintMapNumber

; 325  : 					gCurPaintType=1;

  0061c	c7 05 00 00 00
	00 01 00 00 00	 mov	 DWORD PTR ?gCurPaintType@@3HA, 1 ; gCurPaintType

; 719  :    }
; 720  :    return 0;

  00626	33 c0		 xor	 eax, eax
  00628	e9 af 04 00 00	 jmp	 $LN147@WndProc
$LN128@WndProc:

; 326  : 					break;
; 327  : 				case IDM_MAP2:
; 328  : 					gCurPaintType=1;

  0062d	c7 05 00 00 00
	00 01 00 00 00	 mov	 DWORD PTR ?gCurPaintType@@3HA, 1 ; gCurPaintType

; 329  : 					gCurPaintMapNumber = 1;	// Dungeon

  00637	c7 05 00 00 00
	00 01 00 00 00	 mov	 DWORD PTR ?gCurPaintMapNumber@@3HA, 1 ; gCurPaintMapNumber

; 719  :    }
; 720  :    return 0;

  00641	33 c0		 xor	 eax, eax
  00643	e9 94 04 00 00	 jmp	 $LN147@WndProc
$LN127@WndProc:

; 330  : 					break;
; 331  : 				case IDM_MAP3:
; 332  : 					gCurPaintType=1;

  00648	c7 05 00 00 00
	00 01 00 00 00	 mov	 DWORD PTR ?gCurPaintType@@3HA, 1 ; gCurPaintType

; 333  : 					gCurPaintMapNumber = 2;	// Devias

  00652	c7 05 00 00 00
	00 02 00 00 00	 mov	 DWORD PTR ?gCurPaintMapNumber@@3HA, 2 ; gCurPaintMapNumber

; 719  :    }
; 720  :    return 0;

  0065c	33 c0		 xor	 eax, eax
  0065e	e9 79 04 00 00	 jmp	 $LN147@WndProc
$LN126@WndProc:

; 334  : 					break;
; 335  : 				case IDM_MAP4:
; 336  : 					gCurPaintType=1;

  00663	c7 05 00 00 00
	00 01 00 00 00	 mov	 DWORD PTR ?gCurPaintType@@3HA, 1 ; gCurPaintType

; 337  : 					gCurPaintMapNumber = 3;	// Noria

  0066d	c7 05 00 00 00
	00 03 00 00 00	 mov	 DWORD PTR ?gCurPaintMapNumber@@3HA, 3 ; gCurPaintMapNumber

; 719  :    }
; 720  :    return 0;

  00677	33 c0		 xor	 eax, eax
  00679	e9 5e 04 00 00	 jmp	 $LN147@WndProc
$LN125@WndProc:

; 338  : 					break;
; 339  : 				case IDM_CRYWOLF:
; 340  : 					gCurPaintType=1;

  0067e	c7 05 00 00 00
	00 01 00 00 00	 mov	 DWORD PTR ?gCurPaintType@@3HA, 1 ; gCurPaintType

; 341  : 					gCurPaintMapNumber = 34;	// Crywolf

  00688	c7 05 00 00 00
	00 22 00 00 00	 mov	 DWORD PTR ?gCurPaintMapNumber@@3HA, 34 ; gCurPaintMapNumber, 00000022H

; 719  :    }
; 720  :    return 0;

  00692	33 c0		 xor	 eax, eax
  00694	e9 43 04 00 00	 jmp	 $LN147@WndProc
$LN124@WndProc:

; 342  : 					break;
; 343  : 				case IDM_DRAGON_EVENT:
; 344  : 					if (  DragonEvent->GetState() != 0 )

  00699	8b 0d 00 00 00
	00		 mov	 ecx, DWORD PTR ?DragonEvent@@3PAVCDragonEvent@@A ; DragonEvent
  0069f	80 79 04 00	 cmp	 BYTE PTR [ecx+4], 0
  006a3	74 0c		 je	 SHORT $LN123@WndProc

; 345  : 						DragonEvent->End();

  006a5	e8 00 00 00 00	 call	 ?End@CDragonEvent@@QAEXXZ ; CDragonEvent::End

; 719  :    }
; 720  :    return 0;

  006aa	33 c0		 xor	 eax, eax
  006ac	e9 2b 04 00 00	 jmp	 $LN147@WndProc
$LN123@WndProc:

; 346  : 					else
; 347  : 						DragonEvent->Start();

  006b1	e8 00 00 00 00	 call	 ?Start@CDragonEvent@@QAEXXZ ; CDragonEvent::Start

; 719  :    }
; 720  :    return 0;

  006b6	33 c0		 xor	 eax, eax
  006b8	e9 1f 04 00 00	 jmp	 $LN147@WndProc
$LN121@WndProc:

; 348  : 					break;
; 349  : 				case IDM_STARTOFXMAS_EVENT:
; 350  : 					if ( gXMasEvent != 0 )

  006bd	33 c0		 xor	 eax, eax
  006bf	39 05 00 00 00
	00		 cmp	 DWORD PTR ?gXMasEvent@@3HA, eax ; gXMasEvent
  006c5	0f 94 c0	 sete	 al
  006c8	a3 00 00 00 00	 mov	 DWORD PTR ?gXMasEvent@@3HA, eax ; gXMasEvent

; 719  :    }
; 720  :    return 0;

  006cd	33 c0		 xor	 eax, eax
  006cf	e9 08 04 00 00	 jmp	 $LN147@WndProc
$LN118@WndProc:

; 351  : 						gXMasEvent = 0;
; 352  : 					else
; 353  : 						gXMasEvent=1;
; 354  : 					break;
; 355  : 				case IDM_FIRECRACKER:
; 356  : 					if ( gFireCrackerEvent != 0 )

  006d4	33 c9		 xor	 ecx, ecx
  006d6	39 0d 00 00 00
	00		 cmp	 DWORD PTR ?gFireCrackerEvent@@3HA, ecx ; gFireCrackerEvent
  006dc	0f 94 c1	 sete	 cl

; 719  :    }
; 720  :    return 0;

  006df	33 c0		 xor	 eax, eax
  006e1	89 0d 00 00 00
	00		 mov	 DWORD PTR ?gFireCrackerEvent@@3HA, ecx ; gFireCrackerEvent
  006e7	e9 f0 03 00 00	 jmp	 $LN147@WndProc
$LN115@WndProc:

; 357  : 						gFireCrackerEvent = 0;
; 358  : 					else
; 359  : 						gFireCrackerEvent=1;
; 360  : 					break;
; 361  : 				case IDM_5_MINUTE_CLOSE:
; 362  : 					if ( gCloseMsg == 0 )

  006ec	83 3d 00 00 00
	00 00		 cmp	 DWORD PTR ?gCloseMsg@@3HA, 0 ; gCloseMsg
  006f3	0f 85 cf 03 00
	00		 jne	 $LN64@WndProc

; 363  : 					{
; 364  : 						gCloseMsgTime = 300;

  006f9	c7 05 00 00 00
	00 2c 01 00 00	 mov	 DWORD PTR ?gCloseMsgTime@@3HA, 300 ; gCloseMsgTime, 0000012cH

; 365  : 						gCloseMsg=1;

  00703	c7 05 00 00 00
	00 01 00 00 00	 mov	 DWORD PTR ?gCloseMsg@@3HA, 1 ; gCloseMsg

; 366  : 						AllSendServerMsg( lMsg.Get(MSGGET(4, 104)) );

  0070d	68 68 04 00 00	 push	 1128			; 00000468H
$LN176@WndProc:
  00712	b9 00 00 00 00	 mov	 ecx, OFFSET ?lMsg@@3VCMsg@@A ; lMsg
  00717	e8 00 00 00 00	 call	 ?Get@CMsg@@QAEPADH@Z	; CMsg::Get
  0071c	50		 push	 eax
  0071d	e8 00 00 00 00	 call	 ?AllSendServerMsg@@YAXPAD@Z ; AllSendServerMsg
  00722	83 c4 04	 add	 esp, 4

; 719  :    }
; 720  :    return 0;

  00725	33 c0		 xor	 eax, eax
  00727	e9 b0 03 00 00	 jmp	 $LN147@WndProc
$LN113@WndProc:

; 367  : 					}
; 368  : 					break;
; 369  : 				case IDM_3_MINUTE_CLOSE:
; 370  : 					if ( gCloseMsg == 0 )

  0072c	83 3d 00 00 00
	00 00		 cmp	 DWORD PTR ?gCloseMsg@@3HA, 0 ; gCloseMsg
  00733	0f 85 8f 03 00
	00		 jne	 $LN64@WndProc

; 371  : 					{
; 372  : 						gCloseMsgTime = 180;

  00739	c7 05 00 00 00
	00 b4 00 00 00	 mov	 DWORD PTR ?gCloseMsgTime@@3HA, 180 ; gCloseMsgTime, 000000b4H

; 373  : 						gCloseMsg=2;

  00743	c7 05 00 00 00
	00 02 00 00 00	 mov	 DWORD PTR ?gCloseMsg@@3HA, 2 ; gCloseMsg

; 374  : 						AllSendServerMsg(lMsg.Get(MSGGET(4, 105)) );

  0074d	68 69 04 00 00	 push	 1129			; 00000469H

; 375  : 					}
; 376  : 					break;

  00752	eb be		 jmp	 SHORT $LN176@WndProc
$LN111@WndProc:

; 377  : 				case IDM_1_MINUTE_CLOSE:
; 378  : 					if ( gCloseMsg == 0 )

  00754	83 3d 00 00 00
	00 00		 cmp	 DWORD PTR ?gCloseMsg@@3HA, 0 ; gCloseMsg
  0075b	0f 85 67 03 00
	00		 jne	 $LN64@WndProc

; 379  : 					{
; 380  : 						gCloseMsgTime = 60;

  00761	c7 05 00 00 00
	00 3c 00 00 00	 mov	 DWORD PTR ?gCloseMsgTime@@3HA, 60 ; gCloseMsgTime, 0000003cH

; 381  : 						gCloseMsg=3;

  0076b	c7 05 00 00 00
	00 03 00 00 00	 mov	 DWORD PTR ?gCloseMsg@@3HA, 3 ; gCloseMsg

; 382  : 						AllSendServerMsg(lMsg.Get(MSGGET(4, 106)) );

  00775	68 6a 04 00 00	 push	 1130			; 0000046aH

; 383  : 					}
; 384  : 					break;

  0077a	eb 96		 jmp	 SHORT $LN176@WndProc
$LN109@WndProc:

; 385  : 				case IDM_RELOAD_ALL_EVENT:
; 386  : 					ReadEventInfo(MU_EVENT_ALL );

  0077c	6a 00		 push	 0
  0077e	e8 00 00 00 00	 call	 ?ReadEventInfo@@YAXW4MU_EVENT_TYPE@@@Z ; ReadEventInfo
  00783	83 c4 04	 add	 esp, 4

; 719  :    }
; 720  :    return 0;

  00786	33 c0		 xor	 eax, eax
  00788	e9 4f 03 00 00	 jmp	 $LN147@WndProc
$LN108@WndProc:

; 387  : 					break;
; 388  : 				case IDM_RELOAD_DEVILSQUARE:
; 389  : 					ReadEventInfo(MU_EVENT_DEVILSQUARE );

  0078d	6a 01		 push	 1
  0078f	e8 00 00 00 00	 call	 ?ReadEventInfo@@YAXW4MU_EVENT_TYPE@@@Z ; ReadEventInfo
  00794	83 c4 04	 add	 esp, 4

; 719  :    }
; 720  :    return 0;

  00797	33 c0		 xor	 eax, eax
  00799	e9 3e 03 00 00	 jmp	 $LN147@WndProc
$LN107@WndProc:

; 390  : 					break;
; 391  : 				case IDM_RELOAD_BLOODCASTLE:
; 392  : 					ReadEventInfo(MU_EVENT_BLOODCASTLE );

  0079e	6a 02		 push	 2
  007a0	e8 00 00 00 00	 call	 ?ReadEventInfo@@YAXW4MU_EVENT_TYPE@@@Z ; ReadEventInfo
  007a5	83 c4 04	 add	 esp, 4

; 719  :    }
; 720  :    return 0;

  007a8	33 c0		 xor	 eax, eax
  007aa	e9 2d 03 00 00	 jmp	 $LN147@WndProc
$LN106@WndProc:

; 393  : 					break;
; 394  : 				case IDM_RELOAD_UNDERWORLD_ATTACK:
; 395  : 					ReadEventInfo(MU_EVENT_ATTACKEVENTTROOP );

  007af	6a 03		 push	 3
  007b1	e8 00 00 00 00	 call	 ?ReadEventInfo@@YAXW4MU_EVENT_TYPE@@@Z ; ReadEventInfo
  007b6	83 c4 04	 add	 esp, 4

; 719  :    }
; 720  :    return 0;

  007b9	33 c0		 xor	 eax, eax
  007bb	e9 1c 03 00 00	 jmp	 $LN147@WndProc
$LN105@WndProc:

; 396  : 					break;
; 397  : 				case IDM_RELOAD_GOLDENTROOP_ATTACK:
; 398  : 					ReadEventInfo(MU_EVENT_GOLDENTROOP );

  007c0	6a 04		 push	 4
  007c2	e8 00 00 00 00	 call	 ?ReadEventInfo@@YAXW4MU_EVENT_TYPE@@@Z ; ReadEventInfo
  007c7	83 c4 04	 add	 esp, 4

; 719  :    }
; 720  :    return 0;

  007ca	33 c0		 xor	 eax, eax
  007cc	e9 0b 03 00 00	 jmp	 $LN147@WndProc
$LN104@WndProc:

; 399  : 					break;
; 400  : 				case IDM_RELOAD_WHITEMAGE_ATTACK:
; 401  : 					ReadEventInfo(MU_EVENT_WHITEMAGETROOP );

  007d1	6a 05		 push	 5
  007d3	e8 00 00 00 00	 call	 ?ReadEventInfo@@YAXW4MU_EVENT_TYPE@@@Z ; ReadEventInfo
  007d8	83 c4 04	 add	 esp, 4

; 719  :    }
; 720  :    return 0;

  007db	33 c0		 xor	 eax, eax
  007dd	e9 fa 02 00 00	 jmp	 $LN147@WndProc
$LN103@WndProc:

; 402  : 					break;
; 403  : 				case IDM_RELOAD_LOVE_PANGPANG:
; 404  : 					ReadEventInfo(MU_EVENT_LOVEPANGPANG );

  007e2	6a 06		 push	 6
  007e4	e8 00 00 00 00	 call	 ?ReadEventInfo@@YAXW4MU_EVENT_TYPE@@@Z ; ReadEventInfo
  007e9	83 c4 04	 add	 esp, 4

; 719  :    }
; 720  :    return 0;

  007ec	33 c0		 xor	 eax, eax
  007ee	e9 e9 02 00 00	 jmp	 $LN147@WndProc
$LN102@WndProc:

; 405  : 					break;
; 406  : 				case IDM_RELOAD_FIRECRACKER:
; 407  : 					ReadEventInfo(MU_EVENT_FIRECRACKER );

  007f3	6a 07		 push	 7
  007f5	e8 00 00 00 00	 call	 ?ReadEventInfo@@YAXW4MU_EVENT_TYPE@@@Z ; ReadEventInfo
  007fa	83 c4 04	 add	 esp, 4

; 719  :    }
; 720  :    return 0;

  007fd	33 c0		 xor	 eax, eax
  007ff	e9 d8 02 00 00	 jmp	 $LN147@WndProc
$LN101@WndProc:

; 408  : 					break;
; 409  : 				case IDM_RELOAD_XMAS_STAR:
; 410  : 					ReadEventInfo(MU_EVENT_XMASSTAR );

  00804	6a 09		 push	 9
  00806	e8 00 00 00 00	 call	 ?ReadEventInfo@@YAXW4MU_EVENT_TYPE@@@Z ; ReadEventInfo
  0080b	83 c4 04	 add	 esp, 4

; 719  :    }
; 720  :    return 0;

  0080e	33 c0		 xor	 eax, eax
  00810	e9 c7 02 00 00	 jmp	 $LN147@WndProc
$LN100@WndProc:

; 411  : 					break;
; 412  : 				case IDM_RELOAD_HEART_OF_LOVE:
; 413  : 					ReadEventInfo(MU_EVENT_HEARTOFLOVE );

  00815	6a 0a		 push	 10			; 0000000aH
  00817	e8 00 00 00 00	 call	 ?ReadEventInfo@@YAXW4MU_EVENT_TYPE@@@Z ; ReadEventInfo
  0081c	83 c4 04	 add	 esp, 4

; 719  :    }
; 720  :    return 0;

  0081f	33 c0		 xor	 eax, eax
  00821	e9 b6 02 00 00	 jmp	 $LN147@WndProc
$LN99@WndProc:

; 414  : 					break;
; 415  : 				case IDM_RELOAD_NPC_SAY_HAPPY_NEW_YEAR:
; 416  : 					ReadEventInfo(MU_EVENT_SAY_HAPPYNEWYEAR );

  00826	6a 0b		 push	 11			; 0000000bH
  00828	e8 00 00 00 00	 call	 ?ReadEventInfo@@YAXW4MU_EVENT_TYPE@@@Z ; ReadEventInfo
  0082d	83 c4 04	 add	 esp, 4

; 719  :    }
; 720  :    return 0;

  00830	33 c0		 xor	 eax, eax
  00832	e9 a5 02 00 00	 jmp	 $LN147@WndProc
$LN98@WndProc:

; 417  : 					break;
; 418  : 				case IDM_RELOAD_NPC_SAY_MERRY_XMAS:
; 419  : 					ReadEventInfo(MU_EVENT_SAY_MERRYXMAS );

  00837	6a 0c		 push	 12			; 0000000cH
  00839	e8 00 00 00 00	 call	 ?ReadEventInfo@@YAXW4MU_EVENT_TYPE@@@Z ; ReadEventInfo
  0083e	83 c4 04	 add	 esp, 4

; 719  :    }
; 720  :    return 0;

  00841	33 c0		 xor	 eax, eax
  00843	e9 94 02 00 00	 jmp	 $LN147@WndProc
$LN97@WndProc:

; 420  : 					break;
; 421  : 				case IDM_RELOAD_CHAOSCASTLE:
; 422  : 					ReadEventInfo(MU_EVENT_CHAOSCASTLE );

  00848	6a 0d		 push	 13			; 0000000dH
  0084a	e8 00 00 00 00	 call	 ?ReadEventInfo@@YAXW4MU_EVENT_TYPE@@@Z ; ReadEventInfo
  0084f	83 c4 04	 add	 esp, 4

; 719  :    }
; 720  :    return 0;

  00852	33 c0		 xor	 eax, eax
  00854	e9 83 02 00 00	 jmp	 $LN147@WndProc
$LN96@WndProc:

; 423  : 					break;
; 424  : 				case IDM_RELOAD_CHRISTMAS_RIBBONBOX:
; 425  : 					ReadEventInfo(MU_EVENT_CHRISTMAS_RIBBONBOX );

  00859	6a 0e		 push	 14			; 0000000eH
  0085b	e8 00 00 00 00	 call	 ?ReadEventInfo@@YAXW4MU_EVENT_TYPE@@@Z ; ReadEventInfo
  00860	83 c4 04	 add	 esp, 4

; 719  :    }
; 720  :    return 0;

  00863	33 c0		 xor	 eax, eax
  00865	e9 72 02 00 00	 jmp	 $LN147@WndProc
$LN95@WndProc:

; 426  : 					break;
; 427  : 				case IDM_RELOAD_VALENTINE_DAY_CHOCOLATE_BOX:
; 428  : 					ReadEventInfo(MU_EVENT_VALENTINESDAY_CHOCOLATEBOX );

  0086a	6a 0f		 push	 15			; 0000000fH
  0086c	e8 00 00 00 00	 call	 ?ReadEventInfo@@YAXW4MU_EVENT_TYPE@@@Z ; ReadEventInfo
  00871	83 c4 04	 add	 esp, 4

; 719  :    }
; 720  :    return 0;

  00874	33 c0		 xor	 eax, eax
  00876	e9 61 02 00 00	 jmp	 $LN147@WndProc
$LN94@WndProc:

; 429  : 					break;
; 430  : 				case IDM_RELOAD_WHITE_DAY_CANDY_BOX:
; 431  : 					ReadEventInfo(MU_EVENT_WHITEDAY_CANDYBOX  );

  0087b	6a 10		 push	 16			; 00000010H
  0087d	e8 00 00 00 00	 call	 ?ReadEventInfo@@YAXW4MU_EVENT_TYPE@@@Z ; ReadEventInfo
  00882	83 c4 04	 add	 esp, 4

; 719  :    }
; 720  :    return 0;

  00885	33 c0		 xor	 eax, eax
  00887	e9 50 02 00 00	 jmp	 $LN147@WndProc
$LN93@WndProc:

; 432  : 					break;
; 433  : 				case IDM_RELOAD_ALL_ETC_OPTION:
; 434  : 					ReadGameEtcInfo(MU_ETC_ALL );

  0088c	6a 00		 push	 0
  0088e	e8 00 00 00 00	 call	 ?ReadGameEtcInfo@@YAXW4MU_ETC_TYPE@@@Z ; ReadGameEtcInfo
  00893	83 c4 04	 add	 esp, 4

; 719  :    }
; 720  :    return 0;

  00896	33 c0		 xor	 eax, eax
  00898	e9 3f 02 00 00	 jmp	 $LN147@WndProc
$LN92@WndProc:

; 435  : 					break;
; 436  : 				case IDM_RELOAD_CREATE_CHARACTER:
; 437  : 					ReadGameEtcInfo(MU_ETC_CREATECHARACTER );

  0089d	6a 01		 push	 1
  0089f	e8 00 00 00 00	 call	 ?ReadGameEtcInfo@@YAXW4MU_ETC_TYPE@@@Z ; ReadGameEtcInfo
  008a4	83 c4 04	 add	 esp, 4

; 719  :    }
; 720  :    return 0;

  008a7	33 c0		 xor	 eax, eax
  008a9	e9 2e 02 00 00	 jmp	 $LN147@WndProc
$LN91@WndProc:

; 438  : 					break;
; 439  : 				case IDM_RELOAD_GUILD:
; 440  : 					ReadGameEtcInfo(MU_ETC_GUILD );

  008ae	6a 02		 push	 2
  008b0	e8 00 00 00 00	 call	 ?ReadGameEtcInfo@@YAXW4MU_ETC_TYPE@@@Z ; ReadGameEtcInfo
  008b5	83 c4 04	 add	 esp, 4

; 719  :    }
; 720  :    return 0;

  008b8	33 c0		 xor	 eax, eax
  008ba	e9 1d 02 00 00	 jmp	 $LN147@WndProc
$LN90@WndProc:

; 441  : 					break;
; 442  : 				case IDM_RELOAD_TRADE:
; 443  : 					ReadGameEtcInfo(MU_ETC_TRADE );

  008bf	6a 03		 push	 3
  008c1	e8 00 00 00 00	 call	 ?ReadGameEtcInfo@@YAXW4MU_ETC_TYPE@@@Z ; ReadGameEtcInfo
  008c6	83 c4 04	 add	 esp, 4

; 719  :    }
; 720  :    return 0;

  008c9	33 c0		 xor	 eax, eax
  008cb	e9 0c 02 00 00	 jmp	 $LN147@WndProc
$LN89@WndProc:

; 444  : 					break;
; 445  : 				case IDM_RELOAD_CHAOSBOX:
; 446  : 					ReadGameEtcInfo(MU_ETC_USECHAOSBOX );

  008d0	6a 04		 push	 4
  008d2	e8 00 00 00 00	 call	 ?ReadGameEtcInfo@@YAXW4MU_ETC_TYPE@@@Z ; ReadGameEtcInfo
  008d7	83 c4 04	 add	 esp, 4

; 719  :    }
; 720  :    return 0;

  008da	33 c0		 xor	 eax, eax
  008dc	e9 fb 01 00 00	 jmp	 $LN147@WndProc
$LN88@WndProc:

; 447  : 					break;
; 448  : 				case IDM_RELOAD_PERSONAL_SHOP:
; 449  : 					ReadGameEtcInfo(MU_ETC_PERSONALSHOP );

  008e1	6a 05		 push	 5
  008e3	e8 00 00 00 00	 call	 ?ReadGameEtcInfo@@YAXW4MU_ETC_TYPE@@@Z ; ReadGameEtcInfo
  008e8	83 c4 04	 add	 esp, 4

; 719  :    }
; 720  :    return 0;

  008eb	33 c0		 xor	 eax, eax
  008ed	e9 ea 01 00 00	 jmp	 $LN147@WndProc
$LN87@WndProc:

; 450  : 					break;
; 451  : 				case IDM_RELOAD_PK_ITEM_DROP:
; 452  : 					ReadGameEtcInfo(MU_ETC_PKITEMDROP );

  008f2	6a 06		 push	 6
  008f4	e8 00 00 00 00	 call	 ?ReadGameEtcInfo@@YAXW4MU_ETC_TYPE@@@Z ; ReadGameEtcInfo
  008f9	83 c4 04	 add	 esp, 4

; 719  :    }
; 720  :    return 0;

  008fc	33 c0		 xor	 eax, eax
  008fe	e9 d9 01 00 00	 jmp	 $LN147@WndProc
$LN86@WndProc:

; 453  : 					break;
; 454  : 				case IDM_RELOAD_ITEM_DROP_RATE:
; 455  : 					ReadGameEtcInfo(MU_ETC_ITEMDROPRATE );

  00903	6a 07		 push	 7
  00905	e8 00 00 00 00	 call	 ?ReadGameEtcInfo@@YAXW4MU_ETC_TYPE@@@Z ; ReadGameEtcInfo
  0090a	83 c4 04	 add	 esp, 4

; 719  :    }
; 720  :    return 0;

  0090d	33 c0		 xor	 eax, eax
  0090f	e9 c8 01 00 00	 jmp	 $LN147@WndProc
$LN85@WndProc:

; 456  : 					break;
; 457  : 				case IDM_RELOAD_SPEEDHACK:
; 458  : 					ReadGameEtcInfo(MU_ETC_SPEEDHACK );

  00914	6a 08		 push	 8
  00916	e8 00 00 00 00	 call	 ?ReadGameEtcInfo@@YAXW4MU_ETC_TYPE@@@Z ; ReadGameEtcInfo
  0091b	83 c4 04	 add	 esp, 4

; 719  :    }
; 720  :    return 0;

  0091e	33 c0		 xor	 eax, eax
  00920	e9 b7 01 00 00	 jmp	 $LN147@WndProc
$LN84@WndProc:

; 459  : 					break;
; 460  : 				case IDM_RELOAD_GAMEGUARD_CHECKSUM_CHECK:
; 461  : 					ReadGameEtcInfo(MU_ETC_GAMEGUARD );

  00925	6a 09		 push	 9
  00927	e8 00 00 00 00	 call	 ?ReadGameEtcInfo@@YAXW4MU_ETC_TYPE@@@Z ; ReadGameEtcInfo
  0092c	83 c4 04	 add	 esp, 4

; 719  :    }
; 720  :    return 0;

  0092f	33 c0		 xor	 eax, eax
  00931	e9 a6 01 00 00	 jmp	 $LN147@WndProc
$LN83@WndProc:

; 462  : 					break;
; 463  : 				case HGT_VIP_RELOAD:
; 464  : 					gVip.Load();

  00936	b9 00 00 00 00	 mov	 ecx, OFFSET ?gVip@@3VCVip@@A ; gVip
  0093b	e8 00 00 00 00	 call	 ?Load@CVip@@QAEXXZ	; CVip::Load

; 719  :    }
; 720  :    return 0;

  00940	33 c0		 xor	 eax, eax
  00942	e9 95 01 00 00	 jmp	 $LN147@WndProc
$LN150@WndProc:

; 264  : 			wmEvent = (wParam >> 16) & 0xFFFF; 
; 265  : 					
; 266  : 			// Parse the menu selections:
; 267  : 			switch (wmId)

  00947	2d 41 9c 00 00	 sub	 eax, 40001		; 00009c41H
  0094c	83 f8 07	 cmp	 eax, 7
  0094f	0f 87 8f 00 00
	00		 ja	 $LN74@WndProc
  00955	ff 24 85 00 00
	00 00		 jmp	 DWORD PTR $LN181@WndProc[eax*4]
$LN82@WndProc:

; 465  : 					break;
; 466  : 				case HGT_SERVER_RELOAD:
; 467  : 					gServerInfo.Load();

  0095c	b9 00 00 00 00	 mov	 ecx, OFFSET ?gServerInfo@@3VCServerInfo@@A ; gServerInfo
  00961	e8 00 00 00 00	 call	 ?Load@CServerInfo@@QAEXXZ ; CServerInfo::Load

; 719  :    }
; 720  :    return 0;

  00966	33 c0		 xor	 eax, eax
  00968	e9 6f 01 00 00	 jmp	 $LN147@WndProc
$LN81@WndProc:

; 468  : 					break;
; 469  : 				case HGT_NEWS_RELOAD:
; 470  : 					gNews.Load();

  0096d	b9 00 00 00 00	 mov	 ecx, OFFSET ?gNews@@3VCNews@@A ; gNews
  00972	e8 00 00 00 00	 call	 ?Load@CNews@@QAEXXZ	; CNews::Load

; 719  :    }
; 720  :    return 0;

  00977	33 c0		 xor	 eax, eax
  00979	e9 5e 01 00 00	 jmp	 $LN147@WndProc
$LN80@WndProc:

; 471  : 					break;
; 472  : 				case HGT_TIPS_RELOAD:
; 473  : 					gTips.Load();

  0097e	b9 00 00 00 00	 mov	 ecx, OFFSET ?gTips@@3VCTips@@A ; gTips
  00983	e8 00 00 00 00	 call	 ?Load@CTips@@QAEXXZ	; CTips::Load

; 719  :    }
; 720  :    return 0;

  00988	33 c0		 xor	 eax, eax
  0098a	e9 4d 01 00 00	 jmp	 $LN147@WndProc
$LN79@WndProc:

; 474  : 					break;
; 475  : 				case HGT_COMMANDS_RELOAD:
; 476  : 					gCommands.Load();

  0098f	b9 00 00 00 00	 mov	 ecx, OFFSET ?gCommands@@3VCCommands@@A ; gCommands
  00994	e8 00 00 00 00	 call	 ?Load@CCommands@@QAEXXZ	; CCommands::Load

; 719  :    }
; 720  :    return 0;

  00999	33 c0		 xor	 eax, eax
  0099b	e9 3c 01 00 00	 jmp	 $LN147@WndProc
$LN78@WndProc:

; 477  : 					break;
; 478  : 				case HGT_MOVES_RELOAD:
; 479  : 					gMoves.Load();

  009a0	b9 00 00 00 00	 mov	 ecx, OFFSET ?gMoves@@3VCMoves@@A ; gMoves
  009a5	e8 00 00 00 00	 call	 ?Load@CMoves@@QAEXXZ	; CMoves::Load

; 719  :    }
; 720  :    return 0;

  009aa	33 c0		 xor	 eax, eax
  009ac	e9 2b 01 00 00	 jmp	 $LN147@WndProc
$LN77@WndProc:

; 480  : 					break;
; 481  : 				case HGT_CHARACTER_RELOAD:
; 482  : 					gServerInfo.Character();

  009b1	b9 00 00 00 00	 mov	 ecx, OFFSET ?gServerInfo@@3VCServerInfo@@A ; gServerInfo
  009b6	e8 00 00 00 00	 call	 ?Character@CServerInfo@@QAEXXZ ; CServerInfo::Character

; 719  :    }
; 720  :    return 0;

  009bb	33 c0		 xor	 eax, eax
  009bd	e9 1a 01 00 00	 jmp	 $LN147@WndProc
$LN76@WndProc:

; 483  : 					break;
; 484  : 				case HGT_GM_RELOAD:
; 485  : 					gPrivilege.Load();

  009c2	b9 00 00 00 00	 mov	 ecx, OFFSET ?gPrivilege@@3VCPrivilege@@A ; gPrivilege
  009c7	e8 00 00 00 00	 call	 ?Load@CPrivilege@@QAEXXZ ; CPrivilege::Load

; 719  :    }
; 720  :    return 0;

  009cc	33 c0		 xor	 eax, eax
  009ce	e9 09 01 00 00	 jmp	 $LN147@WndProc
$LN75@WndProc:

; 486  : 					break;
; 487  : 				case HGT_LOTTERY_RELOAD:
; 488  : 					gLottery.Load();

  009d3	b9 00 00 00 00	 mov	 ecx, OFFSET ?gLottery@@3VCLottery@@A ; gLottery
  009d8	e8 00 00 00 00	 call	 ?Load@CLottery@@QAEXXZ	; CLottery::Load

; 719  :    }
; 720  :    return 0;

  009dd	33 c0		 xor	 eax, eax
  009df	e9 f8 00 00 00	 jmp	 $LN147@WndProc
$LN74@WndProc:

; 489  : 					break;
; 490  : 				default:
; 491  : 					return DefWindowProc(hWnd, message, wParam, lParam);

  009e4	8b 55 14	 mov	 edx, DWORD PTR _lParam$[ebp]
  009e7	52		 push	 edx
  009e8	51		 push	 ecx
  009e9	68 11 01 00 00	 push	 273			; 00000111H
  009ee	e9 e2 00 00 00	 jmp	 $LN175@WndProc
$LN73@WndProc:

; 492  : 					break;
; 493  : 			}
; 494  : 			break;
; 495  : 		case WM_GM_SERVER_MSG_PROC:
; 496  : 			GMServerMsgProc(wParam, lParam);

  009f3	8b 45 14	 mov	 eax, DWORD PTR _lParam$[ebp]
  009f6	8b 4d 10	 mov	 ecx, DWORD PTR _wParam$[ebp]
  009f9	50		 push	 eax
  009fa	51		 push	 ecx
  009fb	e8 00 00 00 00	 call	 ?GMServerMsgProc@@YAXIJ@Z ; GMServerMsgProc
  00a00	83 c4 08	 add	 esp, 8

; 719  :    }
; 720  :    return 0;

  00a03	33 c0		 xor	 eax, eax
  00a05	e9 d2 00 00 00	 jmp	 $LN147@WndProc
$LN152@WndProc:

; 252  : 	INT wmId, wmEvent;
; 253  : 	
; 254  : 	switch (message) 

  00a0a	8d 88 fe fb ff
	ff		 lea	 ecx, DWORD PTR [eax-1026]
  00a10	83 f9 0c	 cmp	 ecx, 12			; 0000000cH
  00a13	0f 87 b3 00 00
	00		 ja	 $LN1@WndProc
  00a19	ff 24 8d 00 00
	00 00		 jmp	 DWORD PTR $LN182@WndProc[ecx*4]
$LN72@WndProc:

; 497  : 			break;
; 498  : 		case WM_GM_CLIENT_MSG_PROC:
; 499  : 			{
; 500  : 				int wp = wParam;
; 501  : 				int lp = lParam;
; 502  : 				GMClientMsgProc(wParam, lParam);

  00a20	8b 55 14	 mov	 edx, DWORD PTR _lParam$[ebp]
  00a23	8b 45 10	 mov	 eax, DWORD PTR _wParam$[ebp]
  00a26	52		 push	 edx
  00a27	50		 push	 eax
  00a28	e8 00 00 00 00	 call	 ?GMClientMsgProc@@YAXIJ@Z ; GMClientMsgProc
  00a2d	83 c4 08	 add	 esp, 8

; 719  :    }
; 720  :    return 0;

  00a30	33 c0		 xor	 eax, eax
  00a32	e9 a5 00 00 00	 jmp	 $LN147@WndProc
$LN71@WndProc:

; 503  : 			}
; 504  : 			break;
; 505  : 		case WM_GM_JOIN_CLIENT_MSG_PROC:
; 506  : 			GMJoinClientMsgProc(wParam, lParam);

  00a37	8b 4d 14	 mov	 ecx, DWORD PTR _lParam$[ebp]
  00a3a	8b 55 10	 mov	 edx, DWORD PTR _wParam$[ebp]
  00a3d	51		 push	 ecx
  00a3e	52		 push	 edx
  00a3f	e8 00 00 00 00	 call	 ?GMJoinClientMsgProc@@YAXIJ@Z ; GMJoinClientMsgProc
  00a44	83 c4 08	 add	 esp, 8

; 719  :    }
; 720  :    return 0;

  00a47	33 c0		 xor	 eax, eax
  00a49	e9 8e 00 00 00	 jmp	 $LN147@WndProc
$LN70@WndProc:

; 507  : 			break;
; 508  : 		case WM_GM_RANKING_CLIENT_MSG_PROC:
; 509  : 			GMRankingClientMsgProc(wParam, lParam);

  00a4e	8b 45 14	 mov	 eax, DWORD PTR _lParam$[ebp]
  00a51	8b 4d 10	 mov	 ecx, DWORD PTR _wParam$[ebp]
  00a54	50		 push	 eax
  00a55	51		 push	 ecx
  00a56	e8 00 00 00 00	 call	 ?GMRankingClientMsgProc@@YAXIJ@Z ; GMRankingClientMsgProc
  00a5b	83 c4 08	 add	 esp, 8

; 719  :    }
; 720  :    return 0;

  00a5e	33 c0		 xor	 eax, eax
  00a60	eb 7a		 jmp	 SHORT $LN147@WndProc
$LN69@WndProc:

; 510  : 			break;
; 511  : 		case WM_GM_EVENTCHIP_CLIENT_MSG_PROC:
; 512  : 			GMEventChipClientMsgProc(wParam, lParam);

  00a62	8b 55 14	 mov	 edx, DWORD PTR _lParam$[ebp]
  00a65	8b 45 10	 mov	 eax, DWORD PTR _wParam$[ebp]
  00a68	52		 push	 edx
  00a69	50		 push	 eax
  00a6a	e8 00 00 00 00	 call	 ?GMEventChipClientMsgProc@@YAXIJ@Z ; GMEventChipClientMsgProc
  00a6f	83 c4 08	 add	 esp, 8

; 719  :    }
; 720  :    return 0;

  00a72	33 c0		 xor	 eax, eax
  00a74	eb 66		 jmp	 SHORT $LN147@WndProc
$LN68@WndProc:

; 513  : 			break;
; 514  : 		case WM_GM_DATA1_CLIENT_MSG_PROC:
; 515  : 			cDBSMng.MsgProc(0, wParam, lParam);

  00a76	8b 4d 14	 mov	 ecx, DWORD PTR _lParam$[ebp]
  00a79	8b 55 10	 mov	 edx, DWORD PTR _wParam$[ebp]
  00a7c	51		 push	 ecx
  00a7d	52		 push	 edx
  00a7e	6a 00		 push	 0
  00a80	b9 00 00 00 00	 mov	 ecx, OFFSET ?cDBSMng@@3VDBSockMng@@A ; cDBSMng
  00a85	e8 00 00 00 00	 call	 ?MsgProc@DBSockMng@@QAEHHIJ@Z ; DBSockMng::MsgProc

; 719  :    }
; 720  :    return 0;

  00a8a	33 c0		 xor	 eax, eax
  00a8c	eb 4e		 jmp	 SHORT $LN147@WndProc
$LN67@WndProc:

; 516  : 			break;
; 517  : 		case WM_GM_DATA2_CLIENT_MSG_PROC:
; 518  : 			cDBSMng.MsgProc(1, wParam, lParam);

  00a8e	8b 45 14	 mov	 eax, DWORD PTR _lParam$[ebp]
  00a91	8b 4d 10	 mov	 ecx, DWORD PTR _wParam$[ebp]
  00a94	50		 push	 eax
  00a95	51		 push	 ecx
  00a96	6a 01		 push	 1
  00a98	b9 00 00 00 00	 mov	 ecx, OFFSET ?cDBSMng@@3VDBSockMng@@A ; cDBSMng
  00a9d	e8 00 00 00 00	 call	 ?MsgProc@DBSockMng@@QAEHHIJ@Z ; DBSockMng::MsgProc

; 719  :    }
; 720  :    return 0;

  00aa2	33 c0		 xor	 eax, eax
  00aa4	eb 36		 jmp	 SHORT $LN147@WndProc
$LN66@WndProc:

; 519  : 			break;
; 520  : 		case WM_GM_EXDATA_CLIENT_MSG_PROC:
; 521  : 			ExDataClientMsgProc(wParam, lParam);

  00aa6	8b 55 14	 mov	 edx, DWORD PTR _lParam$[ebp]
  00aa9	8b 45 10	 mov	 eax, DWORD PTR _wParam$[ebp]
  00aac	52		 push	 edx
  00aad	50		 push	 eax
  00aae	e8 00 00 00 00	 call	 ?ExDataClientMsgProc@@YAXIJ@Z ; ExDataClientMsgProc
  00ab3	83 c4 08	 add	 esp, 8

; 719  :    }
; 720  :    return 0;

  00ab6	33 c0		 xor	 eax, eax
  00ab8	eb 22		 jmp	 SHORT $LN147@WndProc
$LN65@WndProc:

; 522  : 			break;
; 523  : 		case WM_START_SERVER:
; 524  : 			if ( gServerReady == 2 )

  00aba	83 3d 00 00 00
	00 02		 cmp	 DWORD PTR ?gServerReady@@3HA, 2 ; gServerReady
  00ac1	75 05		 jne	 SHORT $LN64@WndProc

; 525  : 				GameServerStart();

  00ac3	e8 00 00 00 00	 call	 ?GameServerStart@@YAHXZ	; GameServerStart
$LN64@WndProc:

; 719  :    }
; 720  :    return 0;

  00ac8	33 c0		 xor	 eax, eax
  00aca	eb 10		 jmp	 SHORT $LN147@WndProc
$LN1@WndProc:

; 716  : 			break;
; 717  : 		default:
; 718  : 			return DefWindowProc(hWnd, message, wParam, lParam);

  00acc	8b 4d 14	 mov	 ecx, DWORD PTR _lParam$[ebp]
  00acf	8b 55 10	 mov	 edx, DWORD PTR _wParam$[ebp]
  00ad2	51		 push	 ecx
  00ad3	52		 push	 edx
  00ad4	50		 push	 eax
$LN175@WndProc:
  00ad5	56		 push	 esi
  00ad6	ff 15 00 00 00
	00		 call	 DWORD PTR __imp__DefWindowProcA@16
$LN147@WndProc:

; 721  : }

  00adc	8b 4d f4	 mov	 ecx, DWORD PTR __$EHRec$[ebp]
  00adf	64 89 0d 00 00
	00 00		 mov	 DWORD PTR fs:0, ecx
  00ae6	59		 pop	 ecx
  00ae7	5f		 pop	 edi
  00ae8	5e		 pop	 esi
  00ae9	8b 4d f0	 mov	 ecx, DWORD PTR __$ArrayPad$[ebp]
  00aec	33 cd		 xor	 ecx, ebp
  00aee	e8 00 00 00 00	 call	 @__security_check_cookie@4
  00af3	8b e5		 mov	 esp, ebp
  00af5	5d		 pop	 ebp
  00af6	c2 10 00	 ret	 16			; 00000010H
  00af9	8d 49 00	 npad	 3
$LN178@WndProc:
  00afc	00 00 00 00	 DD	 $LN11@WndProc
  00b00	00 00 00 00	 DD	 $LN9@WndProc
  00b04	00 00 00 00	 DD	 $LN64@WndProc
  00b08	00 00 00 00	 DD	 $LN64@WndProc
  00b0c	00 00 00 00	 DD	 $LN7@WndProc
  00b10	00 00 00 00	 DD	 $LN5@WndProc
  00b14	00 00 00 00	 DD	 $LN3@WndProc
$LN179@WndProc:
  00b18	00 00 00 00	 DD	 $LN20@WndProc
  00b1c	00 00 00 00	 DD	 $LN27@WndProc
  00b20	00 00 00 00	 DD	 $LN64@WndProc
  00b24	00 00 00 00	 DD	 $LN56@WndProc
  00b28	00 00 00 00	 DD	 $LN57@WndProc
  00b2c	00 00 00 00	 DD	 $LN58@WndProc
  00b30	00 00 00 00	 DD	 $LN19@WndProc
  00b34	00 00 00 00	 DD	 $LN60@WndProc
$LN180@WndProc:
  00b38	00 00 00 00	 DD	 $LN129@WndProc
  00b3c	00 00 00 00	 DD	 $LN128@WndProc
  00b40	00 00 00 00	 DD	 $LN134@WndProc
  00b44	00 00 00 00	 DD	 $LN74@WndProc
  00b48	00 00 00 00	 DD	 $LN74@WndProc
  00b4c	00 00 00 00	 DD	 $LN127@WndProc
  00b50	00 00 00 00	 DD	 $LN74@WndProc
  00b54	00 00 00 00	 DD	 $LN130@WndProc
  00b58	00 00 00 00	 DD	 $LN138@WndProc
  00b5c	00 00 00 00	 DD	 $LN137@WndProc
  00b60	00 00 00 00	 DD	 $LN136@WndProc
  00b64	00 00 00 00	 DD	 $LN74@WndProc
  00b68	00 00 00 00	 DD	 $LN115@WndProc
  00b6c	00 00 00 00	 DD	 $LN113@WndProc
  00b70	00 00 00 00	 DD	 $LN111@WndProc
  00b74	00 00 00 00	 DD	 $LN126@WndProc
  00b78	00 00 00 00	 DD	 $LN132@WndProc
  00b7c	00 00 00 00	 DD	 $LN131@WndProc
  00b80	00 00 00 00	 DD	 $LN124@WndProc
  00b84	00 00 00 00	 DD	 $LN118@WndProc
  00b88	00 00 00 00	 DD	 $LN121@WndProc
  00b8c	00 00 00 00	 DD	 $LN109@WndProc
  00b90	00 00 00 00	 DD	 $LN108@WndProc
  00b94	00 00 00 00	 DD	 $LN107@WndProc
  00b98	00 00 00 00	 DD	 $LN74@WndProc
  00b9c	00 00 00 00	 DD	 $LN106@WndProc
  00ba0	00 00 00 00	 DD	 $LN105@WndProc
  00ba4	00 00 00 00	 DD	 $LN104@WndProc
  00ba8	00 00 00 00	 DD	 $LN74@WndProc
  00bac	00 00 00 00	 DD	 $LN103@WndProc
  00bb0	00 00 00 00	 DD	 $LN102@WndProc
  00bb4	00 00 00 00	 DD	 $LN101@WndProc
  00bb8	00 00 00 00	 DD	 $LN100@WndProc
  00bbc	00 00 00 00	 DD	 $LN99@WndProc
  00bc0	00 00 00 00	 DD	 $LN98@WndProc
  00bc4	00 00 00 00	 DD	 $LN93@WndProc
  00bc8	00 00 00 00	 DD	 $LN92@WndProc
  00bcc	00 00 00 00	 DD	 $LN91@WndProc
  00bd0	00 00 00 00	 DD	 $LN90@WndProc
  00bd4	00 00 00 00	 DD	 $LN88@WndProc
  00bd8	00 00 00 00	 DD	 $LN87@WndProc
  00bdc	00 00 00 00	 DD	 $LN86@WndProc
  00be0	00 00 00 00	 DD	 $LN89@WndProc
  00be4	00 00 00 00	 DD	 $LN85@WndProc
  00be8	00 00 00 00	 DD	 $LN84@WndProc
  00bec	00 00 00 00	 DD	 $LN97@WndProc
  00bf0	00 00 00 00	 DD	 $LN74@WndProc
  00bf4	00 00 00 00	 DD	 $LN133@WndProc
  00bf8	00 00 00 00	 DD	 $LN74@WndProc
  00bfc	00 00 00 00	 DD	 $LN74@WndProc
  00c00	00 00 00 00	 DD	 $LN125@WndProc
  00c04	00 00 00 00	 DD	 $LN96@WndProc
  00c08	00 00 00 00	 DD	 $LN95@WndProc
  00c0c	00 00 00 00	 DD	 $LN94@WndProc
$LN181@WndProc:
  00c10	00 00 00 00	 DD	 $LN82@WndProc
  00c14	00 00 00 00	 DD	 $LN81@WndProc
  00c18	00 00 00 00	 DD	 $LN80@WndProc
  00c1c	00 00 00 00	 DD	 $LN79@WndProc
  00c20	00 00 00 00	 DD	 $LN78@WndProc
  00c24	00 00 00 00	 DD	 $LN77@WndProc
  00c28	00 00 00 00	 DD	 $LN76@WndProc
  00c2c	00 00 00 00	 DD	 $LN75@WndProc
$LN182@WndProc:
  00c30	00 00 00 00	 DD	 $LN72@WndProc
  00c34	00 00 00 00	 DD	 $LN71@WndProc
  00c38	00 00 00 00	 DD	 $LN1@WndProc
  00c3c	00 00 00 00	 DD	 $LN65@WndProc
  00c40	00 00 00 00	 DD	 $LN1@WndProc
  00c44	00 00 00 00	 DD	 $LN1@WndProc
  00c48	00 00 00 00	 DD	 $LN1@WndProc
  00c4c	00 00 00 00	 DD	 $LN1@WndProc
  00c50	00 00 00 00	 DD	 $LN68@WndProc
  00c54	00 00 00 00	 DD	 $LN67@WndProc
  00c58	00 00 00 00	 DD	 $LN70@WndProc
  00c5c	00 00 00 00	 DD	 $LN69@WndProc
  00c60	00 00 00 00	 DD	 $LN66@WndProc
_TEXT	ENDS
;	COMDAT text$x
text$x	SEGMENT
__unwindfunclet$?WndProc@@YGJPAUHWND__@@IIJ@Z$0:
  00000	8d 8d dc fe ff
	ff		 lea	 ecx, DWORD PTR _closeplayer$163119[ebp]
  00006	e9 00 00 00 00	 jmp	 ??1Ccloseplayer@@UAE@XZ	; Ccloseplayer::~Ccloseplayer
__ehhandler$?WndProc@@YGJPAUHWND__@@IIJ@Z:
  0000b	8b 54 24 08	 mov	 edx, DWORD PTR [esp+8]
  0000f	8d 42 0c	 lea	 eax, DWORD PTR [edx+12]
  00012	8b 8a dc fe ff
	ff		 mov	 ecx, DWORD PTR [edx-292]
  00018	33 c8		 xor	 ecx, eax
  0001a	e8 00 00 00 00	 call	 @__security_check_cookie@4
  0001f	8b 4a fc	 mov	 ecx, DWORD PTR [edx-4]
  00022	33 c8		 xor	 ecx, eax
  00024	e8 00 00 00 00	 call	 @__security_check_cookie@4
  00029	b8 00 00 00 00	 mov	 eax, OFFSET __ehfuncinfo$?WndProc@@YGJPAUHWND__@@IIJ@Z
  0002e	e9 00 00 00 00	 jmp	 ___CxxFrameHandler3
text$x	ENDS
?WndProc@@YGJPAUHWND__@@IIJ@Z ENDP			; WndProc
PUBLIC	?MyRegisterClass@@YAGPAUHINSTANCE__@@@Z		; MyRegisterClass
EXTRN	__imp__RegisterClassExA@4:PROC
EXTRN	__imp__LoadCursorA@8:PROC
EXTRN	__imp__LoadIconA@8:PROC
; Function compile flags: /Ogtp
;	COMDAT ?MyRegisterClass@@YAGPAUHINSTANCE__@@@Z
_TEXT	SEGMENT
_wcex$ = -48						; size = 48
_hInstance$ = 8						; size = 4
?MyRegisterClass@@YAGPAUHINSTANCE__@@@Z PROC		; MyRegisterClass, COMDAT

; 186  : {

  00000	55		 push	 ebp
  00001	8b ec		 mov	 ebp, esp
  00003	83 ec 30	 sub	 esp, 48			; 00000030H

; 187  : 	WNDCLASSEX wcex;
; 188  : 
; 189  : 	wcex.cbSize = sizeof(WNDCLASSEX); 
; 190  : 
; 191  : 	wcex.style			= CS_HREDRAW | CS_VREDRAW;
; 192  : 	wcex.lpfnWndProc	= (WNDPROC)WndProc;
; 193  : 	wcex.cbClsExtra		= 0;
; 194  : 	wcex.cbWndExtra		= 0;
; 195  : 	wcex.hInstance		= hInstance;

  00006	8b 45 08	 mov	 eax, DWORD PTR _hInstance$[ebp]
  00009	56		 push	 esi

; 196  : 	wcex.hIcon			= LoadIcon(hInstance, (LPCTSTR)IDI_NORMAL_V1);

  0000a	8b 35 00 00 00
	00		 mov	 esi, DWORD PTR __imp__LoadIconA@8
  00010	6a 6b		 push	 107			; 0000006bH
  00012	50		 push	 eax
  00013	c7 45 d0 30 00
	00 00		 mov	 DWORD PTR _wcex$[ebp], 48 ; 00000030H
  0001a	c7 45 d4 03 00
	00 00		 mov	 DWORD PTR _wcex$[ebp+4], 3
  00021	c7 45 d8 00 00
	00 00		 mov	 DWORD PTR _wcex$[ebp+8], OFFSET ?WndProc@@YGJPAUHWND__@@IIJ@Z ; WndProc
  00028	c7 45 dc 00 00
	00 00		 mov	 DWORD PTR _wcex$[ebp+12], 0
  0002f	c7 45 e0 00 00
	00 00		 mov	 DWORD PTR _wcex$[ebp+16], 0
  00036	89 45 e4	 mov	 DWORD PTR _wcex$[ebp+20], eax
  00039	ff d6		 call	 esi

; 197  : 	wcex.hCursor		= LoadCursor(NULL, IDC_ARROW);

  0003b	68 00 7f 00 00	 push	 32512			; 00007f00H
  00040	6a 00		 push	 0
  00042	89 45 e8	 mov	 DWORD PTR _wcex$[ebp+24], eax
  00045	ff 15 00 00 00
	00		 call	 DWORD PTR __imp__LoadCursorA@8
  0004b	89 45 ec	 mov	 DWORD PTR _wcex$[ebp+28], eax

; 198  : 	wcex.hbrBackground	= (HBRUSH)(COLOR_WINDOW+1);
; 199  : 	wcex.lpszMenuName	= (LPCSTR)IDR_MENU;
; 200  : 	wcex.lpszClassName	= szWindowClass;
; 201  : 	wcex.hIconSm		= LoadIcon(wcex.hInstance, (LPCTSTR)IDI_ICON_MINIMIZED);

  0004e	8b 45 e4	 mov	 eax, DWORD PTR _wcex$[ebp+20]
  00051	6a 6c		 push	 108			; 0000006cH
  00053	50		 push	 eax
  00054	c7 45 f0 06 00
	00 00		 mov	 DWORD PTR _wcex$[ebp+32], 6
  0005b	c7 45 f4 6d 00
	00 00		 mov	 DWORD PTR _wcex$[ebp+36], 109 ; 0000006dH
  00062	c7 45 f8 00 00
	00 00		 mov	 DWORD PTR _wcex$[ebp+40], OFFSET ?szWindowClass@@3PADA ; szWindowClass
  00069	ff d6		 call	 esi

; 202  : 
; 203  : 	return RegisterClassEx(&wcex);

  0006b	8d 4d d0	 lea	 ecx, DWORD PTR _wcex$[ebp]
  0006e	51		 push	 ecx
  0006f	89 45 fc	 mov	 DWORD PTR _wcex$[ebp+44], eax
  00072	ff 15 00 00 00
	00		 call	 DWORD PTR __imp__RegisterClassExA@4
  00078	5e		 pop	 esi

; 204  : }

  00079	8b e5		 mov	 esp, ebp
  0007b	5d		 pop	 ebp
  0007c	c3		 ret	 0
?MyRegisterClass@@YAGPAUHINSTANCE__@@@Z ENDP		; MyRegisterClass
_TEXT	ENDS
PUBLIC	_WinMain@16
EXTRN	?Clean@CMiniDump@@SAXXZ:PROC			; CMiniDump::Clean
EXTRN	__imp__DispatchMessageA@4:PROC
EXTRN	__imp__TranslateMessage@4:PROC
EXTRN	__imp__TranslateAcceleratorA@12:PROC
EXTRN	__imp__GetMessageA@16:PROC
EXTRN	?Start@CWhatsUpDummyServer@@QAEHPAUHWND__@@G@Z:PROC ; CWhatsUpDummyServer::Start
EXTRN	?Load@CServerDisplayer@@QAEXPAUHWND__@@@Z:PROC	; CServerDisplayer::Load
EXTRN	?GameMainInit@@YAXPAUHWND__@@@Z:PROC		; GameMainInit
EXTRN	?GiocpInit@@YAXXZ:PROC				; GiocpInit
EXTRN	__imp__LoadAcceleratorsA@8:PROC
EXTRN	__imp__InitCommonControls@0:PROC
EXTRN	__imp__LoadStringA@16:PROC
EXTRN	?Start@CMiniDump@@SAXXZ:PROC			; CMiniDump::Start
; Function compile flags: /Ogtp
;	COMDAT _WinMain@16
_TEXT	SEGMENT
_msg$ = -28						; size = 28
_hInstance$ = 8						; size = 4
_hPrevInstance$ = 12					; size = 4
_lpCmdLine$ = 16					; size = 4
_nCmdShow$ = 20						; size = 4
_WinMain@16 PROC					; COMDAT

; 59   : {

  00000	55		 push	 ebp
  00001	8b ec		 mov	 ebp, esp
  00003	83 ec 1c	 sub	 esp, 28			; 0000001cH
  00006	56		 push	 esi
  00007	57		 push	 edi

; 60   : 	CMiniDump::Start();

  00008	e8 00 00 00 00	 call	 ?Start@CMiniDump@@SAXXZ	; CMiniDump::Start

; 61   : 	// ---
; 62   : 	MSG msg;
; 63   : 	HACCEL hAccelTable;
; 64   : 	// ---
; 65   : 	LoadString(hInstance,IDS_APP_TITLE, szTitle, 100);

  0000d	8b 75 08	 mov	 esi, DWORD PTR _hInstance$[ebp]
  00010	8b 3d 00 00 00
	00		 mov	 edi, DWORD PTR __imp__LoadStringA@16
  00016	6a 64		 push	 100			; 00000064H
  00018	68 00 00 00 00	 push	 OFFSET ?szTitle@@3PADA	; szTitle
  0001d	6a 67		 push	 103			; 00000067H
  0001f	56		 push	 esi
  00020	ff d7		 call	 edi

; 66   : 	LoadString(hInstance,IDS_GAMESERVER, szWindowClass, 100);

  00022	6a 64		 push	 100			; 00000064H
  00024	68 00 00 00 00	 push	 OFFSET ?szWindowClass@@3PADA ; szWindowClass
  00029	6a 6d		 push	 109			; 0000006dH
  0002b	56		 push	 esi
  0002c	ff d7		 call	 edi

; 67   : 	// ---
; 68   : 	MyRegisterClass(hInstance);

  0002e	56		 push	 esi
  0002f	e8 00 00 00 00	 call	 ?MyRegisterClass@@YAGPAUHINSTANCE__@@@Z ; MyRegisterClass
  00034	83 c4 04	 add	 esp, 4

; 69   : 	// ---
; 70   : 	InitCommonControls();

  00037	ff 15 00 00 00
	00		 call	 DWORD PTR __imp__InitCommonControls@0

; 71   : 	// ---
; 72   : 	if (!InitInstance(hInstance, nCmdShow))

  0003d	8b 45 14	 mov	 eax, DWORD PTR _nCmdShow$[ebp]
  00040	50		 push	 eax
  00041	56		 push	 esi
  00042	e8 00 00 00 00	 call	 ?InitInstance@@YAHPAUHINSTANCE__@@H@Z ; InitInstance
  00047	83 c4 08	 add	 esp, 8
  0004a	85 c0		 test	 eax, eax
  0004c	75 08		 jne	 SHORT $LN4@WinMain
  0004e	5f		 pop	 edi
  0004f	5e		 pop	 esi

; 105  : }

  00050	8b e5		 mov	 esp, ebp
  00052	5d		 pop	 ebp
  00053	c2 10 00	 ret	 16			; 00000010H
$LN4@WinMain:

; 73   : 	{
; 74   : 		return 0;
; 75   : 	}
; 76   : 	// ---
; 77   : 	ShowWindow(ghWnd, SW_SHOWNORMAL);

  00056	8b 0d 00 00 00
	00		 mov	 ecx, DWORD PTR ?ghWnd@@3PAUHWND__@@A ; ghWnd
  0005c	6a 01		 push	 1
  0005e	51		 push	 ecx
  0005f	ff 15 00 00 00
	00		 call	 DWORD PTR __imp__ShowWindow@8

; 78   : 	// ---
; 79   : 	hAccelTable = LoadAccelerators(hInstance,(LPCSTR)IDA_GAMESERVER);

  00065	6a 6d		 push	 109			; 0000006dH
  00067	56		 push	 esi
  00068	ff 15 00 00 00
	00		 call	 DWORD PTR __imp__LoadAcceleratorsA@8
  0006e	8b f0		 mov	 esi, eax

; 80   : 	// ---
; 81   : 	GiocpInit();

  00070	e8 00 00 00 00	 call	 ?GiocpInit@@YAXXZ	; GiocpInit

; 82   : 	// ---
; 83   : 	GameMainInit(ghWnd);

  00075	8b 15 00 00 00
	00		 mov	 edx, DWORD PTR ?ghWnd@@3PAUHWND__@@A ; ghWnd
  0007b	52		 push	 edx
  0007c	e8 00 00 00 00	 call	 ?GameMainInit@@YAXPAUHWND__@@@Z ; GameMainInit

; 84   : 	// ---
; 85   : 	gServerDisplayer.Load(ghWnd);

  00081	a1 00 00 00 00	 mov	 eax, DWORD PTR ?ghWnd@@3PAUHWND__@@A ; ghWnd
  00086	83 c4 04	 add	 esp, 4
  00089	50		 push	 eax
  0008a	b9 00 00 00 00	 mov	 ecx, OFFSET ?gServerDisplayer@@3VCServerDisplayer@@A ; gServerDisplayer
  0008f	e8 00 00 00 00	 call	 ?Load@CServerDisplayer@@QAEXPAUHWND__@@@Z ; CServerDisplayer::Load

; 86   : 	// ---
; 87   : 	GameServerPort; 
; 88   : 	// ---
; 89   : 	gWhatsUpDummyServer.Start(ghWnd, GameServerPort+1);

  00094	66 8b 0d 00 00
	00 00		 mov	 cx, WORD PTR ?GameServerPort@@3GA ; GameServerPort
  0009b	a1 00 00 00 00	 mov	 eax, DWORD PTR ?ghWnd@@3PAUHWND__@@A ; ghWnd
  000a0	66 41		 inc	 cx
  000a2	0f b7 d1	 movzx	 edx, cx
  000a5	52		 push	 edx
  000a6	50		 push	 eax
  000a7	b9 00 00 00 00	 mov	 ecx, OFFSET ?gWhatsUpDummyServer@@3VCWhatsUpDummyServer@@A ; gWhatsUpDummyServer
  000ac	e8 00 00 00 00	 call	 ?Start@CWhatsUpDummyServer@@QAEHPAUHWND__@@G@Z ; CWhatsUpDummyServer::Start

; 90   : 	// ---
; 91   : 	AllServerStart();

  000b1	e8 00 00 00 00	 call	 ?AllServerStart@@YAHXZ	; AllServerStart

; 92   : 	// ---
; 93   : 	while(GetMessage(&msg, NULL, 0, 0) != 0)

  000b6	8b 3d 00 00 00
	00		 mov	 edi, DWORD PTR __imp__GetMessageA@16
  000bc	6a 00		 push	 0
  000be	6a 00		 push	 0
  000c0	6a 00		 push	 0
  000c2	8d 4d e4	 lea	 ecx, DWORD PTR _msg$[ebp]
  000c5	51		 push	 ecx
  000c6	ff d7		 call	 edi
  000c8	85 c0		 test	 eax, eax
  000ca	74 3b		 je	 SHORT $LN2@WinMain
  000cc	53		 push	 ebx
  000cd	8b 1d 00 00 00
	00		 mov	 ebx, DWORD PTR __imp__TranslateAcceleratorA@12
$LL3@WinMain:

; 94   : 	{
; 95   : 		if (!TranslateAccelerator(msg.hwnd,hAccelTable,&msg))

  000d3	8b 45 e4	 mov	 eax, DWORD PTR _msg$[ebp]
  000d6	8d 55 e4	 lea	 edx, DWORD PTR _msg$[ebp]
  000d9	52		 push	 edx
  000da	56		 push	 esi
  000db	50		 push	 eax
  000dc	ff d3		 call	 ebx
  000de	85 c0		 test	 eax, eax
  000e0	75 14		 jne	 SHORT $LN1@WinMain

; 96   : 		{
; 97   : 		    TranslateMessage(&msg);

  000e2	8d 4d e4	 lea	 ecx, DWORD PTR _msg$[ebp]
  000e5	51		 push	 ecx
  000e6	ff 15 00 00 00
	00		 call	 DWORD PTR __imp__TranslateMessage@4

; 98   : 		    DispatchMessage(&msg);

  000ec	8d 55 e4	 lea	 edx, DWORD PTR _msg$[ebp]
  000ef	52		 push	 edx
  000f0	ff 15 00 00 00
	00		 call	 DWORD PTR __imp__DispatchMessageA@4
$LN1@WinMain:

; 92   : 	// ---
; 93   : 	while(GetMessage(&msg, NULL, 0, 0) != 0)

  000f6	6a 00		 push	 0
  000f8	6a 00		 push	 0
  000fa	6a 00		 push	 0
  000fc	8d 45 e4	 lea	 eax, DWORD PTR _msg$[ebp]
  000ff	50		 push	 eax
  00100	ff d7		 call	 edi
  00102	85 c0		 test	 eax, eax
  00104	75 cd		 jne	 SHORT $LL3@WinMain
  00106	5b		 pop	 ebx
$LN2@WinMain:

; 99   : 		}
; 100  : 	}
; 101  : 	// ---
; 102  : 	CMiniDump::Clean();

  00107	e8 00 00 00 00	 call	 ?Clean@CMiniDump@@SAXXZ	; CMiniDump::Clean

; 103  : 	// ---
; 104  : 	return msg.wParam;

  0010c	8b 45 ec	 mov	 eax, DWORD PTR _msg$[ebp+8]
  0010f	5f		 pop	 edi
  00110	5e		 pop	 esi

; 105  : }

  00111	8b e5		 mov	 esp, ebp
  00113	5d		 pop	 ebp
  00114	c2 10 00	 ret	 16			; 00000010H
_WinMain@16 ENDP
_TEXT	ENDS
EXTRN	_atexit:PROC
EXTRN	??0CRingMonsterHerd@@QAE@XZ:PROC		; CRingMonsterHerd::CRingMonsterHerd
; Function compile flags: /Ogtp
;	COMDAT ??__Eg_MonsterHerdTest@@YAXXZ
text$yc	SEGMENT
??__Eg_MonsterHerdTest@@YAXXZ PROC			; `dynamic initializer for 'g_MonsterHerdTest'', COMDAT

; 40   : CRingMonsterHerd g_MonsterHerdTest;

  00000	b9 00 00 00 00	 mov	 ecx, OFFSET ?g_MonsterHerdTest@@3VCRingMonsterHerd@@A ; g_MonsterHerdTest
  00005	e8 00 00 00 00	 call	 ??0CRingMonsterHerd@@QAE@XZ ; CRingMonsterHerd::CRingMonsterHerd
  0000a	68 00 00 00 00	 push	 OFFSET ??__Fg_MonsterHerdTest@@YAXXZ ; `dynamic atexit destructor for 'g_MonsterHerdTest''
  0000f	e8 00 00 00 00	 call	 _atexit
  00014	59		 pop	 ecx
  00015	c3		 ret	 0
??__Eg_MonsterHerdTest@@YAXXZ ENDP			; `dynamic initializer for 'g_MonsterHerdTest''
text$yc	ENDS
EXTRN	??0CRingAttackEvent@@QAE@XZ:PROC		; CRingAttackEvent::CRingAttackEvent
; Function compile flags: /Ogtp
;	COMDAT ??__Eg_RingAttackEvent@@YAXXZ
text$yc	SEGMENT
??__Eg_RingAttackEvent@@YAXXZ PROC			; `dynamic initializer for 'g_RingAttackEvent'', COMDAT

; 41   : CRingAttackEvent g_RingAttackEvent;

  00000	b9 00 00 00 00	 mov	 ecx, OFFSET ?g_RingAttackEvent@@3VCRingAttackEvent@@A ; g_RingAttackEvent
  00005	e8 00 00 00 00	 call	 ??0CRingAttackEvent@@QAE@XZ ; CRingAttackEvent::CRingAttackEvent
  0000a	68 00 00 00 00	 push	 OFFSET ??__Fg_RingAttackEvent@@YAXXZ ; `dynamic atexit destructor for 'g_RingAttackEvent''
  0000f	e8 00 00 00 00	 call	 _atexit
  00014	59		 pop	 ecx
  00015	c3		 ret	 0
??__Eg_RingAttackEvent@@YAXXZ ENDP			; `dynamic initializer for 'g_RingAttackEvent''
text$yc	ENDS
EXTRN	??0CWhatsUpDummyServer@@QAE@XZ:PROC		; CWhatsUpDummyServer::CWhatsUpDummyServer
; Function compile flags: /Ogtp
;	COMDAT ??__EgWhatsUpDummyServer@@YAXXZ
text$yc	SEGMENT
??__EgWhatsUpDummyServer@@YAXXZ PROC			; `dynamic initializer for 'gWhatsUpDummyServer'', COMDAT

; 42   : CWhatsUpDummyServer gWhatsUpDummyServer;

  00000	b9 00 00 00 00	 mov	 ecx, OFFSET ?gWhatsUpDummyServer@@3VCWhatsUpDummyServer@@A ; gWhatsUpDummyServer
  00005	e8 00 00 00 00	 call	 ??0CWhatsUpDummyServer@@QAE@XZ ; CWhatsUpDummyServer::CWhatsUpDummyServer
  0000a	68 00 00 00 00	 push	 OFFSET ??__FgWhatsUpDummyServer@@YAXXZ ; `dynamic atexit destructor for 'gWhatsUpDummyServer''
  0000f	e8 00 00 00 00	 call	 _atexit
  00014	59		 pop	 ecx
  00015	c3		 ret	 0
??__EgWhatsUpDummyServer@@YAXXZ ENDP			; `dynamic initializer for 'gWhatsUpDummyServer''
text$yc	ENDS
EXTRN	??1CRingMonsterHerd@@UAE@XZ:PROC		; CRingMonsterHerd::~CRingMonsterHerd
; Function compile flags: /Ogtp
;	COMDAT ??__Fg_MonsterHerdTest@@YAXXZ
text$yd	SEGMENT
??__Fg_MonsterHerdTest@@YAXXZ PROC			; `dynamic atexit destructor for 'g_MonsterHerdTest'', COMDAT
  00000	b9 00 00 00 00	 mov	 ecx, OFFSET ?g_MonsterHerdTest@@3VCRingMonsterHerd@@A ; g_MonsterHerdTest
  00005	e9 00 00 00 00	 jmp	 ??1CRingMonsterHerd@@UAE@XZ ; CRingMonsterHerd::~CRingMonsterHerd
??__Fg_MonsterHerdTest@@YAXXZ ENDP			; `dynamic atexit destructor for 'g_MonsterHerdTest''
text$yd	ENDS
EXTRN	??1CRingAttackEvent@@UAE@XZ:PROC		; CRingAttackEvent::~CRingAttackEvent
; Function compile flags: /Ogtp
;	COMDAT ??__Fg_RingAttackEvent@@YAXXZ
text$yd	SEGMENT
??__Fg_RingAttackEvent@@YAXXZ PROC			; `dynamic atexit destructor for 'g_RingAttackEvent'', COMDAT
  00000	b9 00 00 00 00	 mov	 ecx, OFFSET ?g_RingAttackEvent@@3VCRingAttackEvent@@A ; g_RingAttackEvent
  00005	e9 00 00 00 00	 jmp	 ??1CRingAttackEvent@@UAE@XZ ; CRingAttackEvent::~CRingAttackEvent
??__Fg_RingAttackEvent@@YAXXZ ENDP			; `dynamic atexit destructor for 'g_RingAttackEvent''
text$yd	ENDS
EXTRN	??1CWhatsUpDummyServer@@QAE@XZ:PROC		; CWhatsUpDummyServer::~CWhatsUpDummyServer
; Function compile flags: /Ogtp
;	COMDAT ??__FgWhatsUpDummyServer@@YAXXZ
text$yd	SEGMENT
??__FgWhatsUpDummyServer@@YAXXZ PROC			; `dynamic atexit destructor for 'gWhatsUpDummyServer'', COMDAT
  00000	b9 00 00 00 00	 mov	 ecx, OFFSET ?gWhatsUpDummyServer@@3VCWhatsUpDummyServer@@A ; gWhatsUpDummyServer
  00005	e9 00 00 00 00	 jmp	 ??1CWhatsUpDummyServer@@QAE@XZ ; CWhatsUpDummyServer::~CWhatsUpDummyServer
??__FgWhatsUpDummyServer@@YAXXZ ENDP			; `dynamic atexit destructor for 'gWhatsUpDummyServer''
text$yd	ENDS
PUBLIC	?gWhatsUpDummyServer@@3VCWhatsUpDummyServer@@A	; gWhatsUpDummyServer
PUBLIC	?g_RingAttackEvent@@3VCRingAttackEvent@@A	; g_RingAttackEvent
PUBLIC	?g_MonsterHerdTest@@3VCRingMonsterHerd@@A	; g_MonsterHerdTest
_BSS	SEGMENT
?gWhatsUpDummyServer@@3VCWhatsUpDummyServer@@A DB 0cH DUP (?) ; gWhatsUpDummyServer
?g_RingAttackEvent@@3VCRingAttackEvent@@A DB 0158H DUP (?) ; g_RingAttackEvent
?g_MonsterHerdTest@@3VCRingMonsterHerd@@A DB 04cH DUP (?) ; g_MonsterHerdTest
_BSS	ENDS
CRT$XCU	SEGMENT
_g_MonsterHerdTest$initializer$ DD FLAT:??__Eg_MonsterHerdTest@@YAXXZ
_g_RingAttackEvent$initializer$ DD FLAT:??__Eg_RingAttackEvent@@YAXXZ
_gWhatsUpDummyServer$initializer$ DD FLAT:??__EgWhatsUpDummyServer@@YAXXZ
CRT$XCU	ENDS
END
