; Listing generated by Microsoft (R) Optimizing Compiler Version 16.00.30319.01 

	TITLE	C:\Users\faelhs\mu-1.1\eMu - GameServer Sapphire S0\GameServer\GameMain.cpp
	.686P
	.XMM
	include listing.inc
	.model	flat

INCLUDELIB LIBCMT
INCLUDELIB OLDNAMES

PUBLIC	?JoinServerConnected@@3HA			; JoinServerConnected
PUBLIC	?DataServerConnected@@3HA			; DataServerConnected
PUBLIC	?GameServerCreated@@3HA				; GameServerCreated
PUBLIC	?DevilSquareEventConnect@@3HA			; DevilSquareEventConnect
PUBLIC	?IsDevilSquareEventConnected@@3HA		; IsDevilSquareEventConnected
PUBLIC	?EventChipServerConnect@@3HA			; EventChipServerConnect
PUBLIC	?IsEventChipServerConnected@@3HA		; IsEventChipServerConnected
PUBLIC	?DragonEvent@@3PAVCDragonEvent@@A		; DragonEvent
PUBLIC	?AttackEvent@@3PAVCAttackEvent@@A		; AttackEvent
PUBLIC	?LuckboxItemBag@@3PAVCItemBag@@A		; LuckboxItemBag
PUBLIC	?Mon55@@3PAVCItemBag@@A				; Mon55
PUBLIC	?Mon53@@3PAVCItemBag@@A				; Mon53
PUBLIC	?StarOfXMasItemBag@@3PAVCItemBagEx@@A		; StarOfXMasItemBag
PUBLIC	?FireCrackerItemBag@@3PAVCItemBag@@A		; FireCrackerItemBag
PUBLIC	?HeartOfLoveItemBag@@3PAVCItemBag@@A		; HeartOfLoveItemBag
PUBLIC	?GoldMedalItemBag@@3PAVCItemBag@@A		; GoldMedalItemBag
PUBLIC	?SilverMedalItemBag@@3PAVCItemBag@@A		; SilverMedalItemBag
PUBLIC	?EventChipItemBag@@3PAVCItemBag@@A		; EventChipItemBag
PUBLIC	?GoldGoblenItemBag@@3PAVCItemBag@@A		; GoldGoblenItemBag
PUBLIC	?TitanItemBag@@3PAVCItemBag@@A			; TitanItemBag
PUBLIC	?GoldDerconItemBag@@3PAVCItemBag@@A		; GoldDerconItemBag
PUBLIC	?DevilLizardKingItemBag@@3PAVCItemBag@@A	; DevilLizardKingItemBag
PUBLIC	?KanturItemBag@@3PAVCItemBag@@A			; KanturItemBag
PUBLIC	?RingEventItemBag@@3PAVCItemBag@@A		; RingEventItemBag
PUBLIC	?FriendShipItemBag@@3PAVCItemBag@@A		; FriendShipItemBag
PUBLIC	?DarkLordHeartItemBag@@3PAVCItemBag@@A		; DarkLordHeartItemBag
PUBLIC	?KundunEventItemBag@@3PAVCItemBagEx@@A		; KundunEventItemBag
PUBLIC	?HiddenTreasureBoxItemBag@@3PAVCItemBagEx@@A	; HiddenTreasureBoxItemBag
PUBLIC	?SpeedHackPlayerBlock@@3HA			; SpeedHackPlayerBlock
PUBLIC	?bCanConnectMember@@3HA				; bCanConnectMember
PUBLIC	?gServerType@@3HA				; gServerType
PUBLIC	?gPartition@@3HA				; gPartition
PUBLIC	?gApplyHeroSystem@@3HA				; gApplyHeroSystem
PUBLIC	?gSpeedHackPenalty@@3HA				; gSpeedHackPenalty
PUBLIC	?gEnableEventNPCTalk@@3HA			; gEnableEventNPCTalk
PUBLIC	?gEnableServerDivision@@3HA			; gEnableServerDivision
PUBLIC	?gEvent1@@3HA					; gEvent1
PUBLIC	?gMonsterHp@@3HA				; gMonsterHp
PUBLIC	?gMerryXMasNpcEvent@@3HA			; gMerryXMasNpcEvent
PUBLIC	?gHappyNewYearNpcEvent@@3HA			; gHappyNewYearNpcEvent
PUBLIC	?gEvent1ItemDropTodayCount@@3HA			; gEvent1ItemDropTodayCount
PUBLIC	?gLanguage@@3HA					; gLanguage
PUBLIC	?gChaosEvent@@3HA				; gChaosEvent
PUBLIC	?gChaosEventServerIp@@3PADA			; gChaosEventServerIp
PUBLIC	?gDevilSquareEventServerIp@@3PADA		; gDevilSquareEventServerIp
PUBLIC	?gHackLogServerIp@@3PADA			; gHackLogServerIp
PUBLIC	?gEventChipServerIp@@3PADA			; gEventChipServerIp
PUBLIC	?gStalkProtocolId@@3PADA			; gStalkProtocolId
PUBLIC	?gNonPK@@3HA					; gNonPK
PUBLIC	?gPkLimitFree@@3HA				; gPkLimitFree
PUBLIC	?gXMasEvent@@3HA				; gXMasEvent
PUBLIC	?gFireCrackerEvent@@3HA				; gFireCrackerEvent
PUBLIC	?gHeartOfLoveEvent@@3HA				; gHeartOfLoveEvent
PUBLIC	?gMedalEvent@@3HA				; gMedalEvent
PUBLIC	?gEventChipEvent@@3HA				; gEventChipEvent
PUBLIC	?gDevilSquareEvent@@3HA				; gDevilSquareEvent
PUBLIC	?gWriteSkillLog@@3HA				; gWriteSkillLog
PUBLIC	?g_bStoneItemDrop@@3HA				; g_bStoneItemDrop
PUBLIC	?g_bDoRingEvent@@3HA				; g_bDoRingEvent
PUBLIC	?g_bEventManagerOn@@3HA				; g_bEventManagerOn
PUBLIC	?g_iKundunMarkDropRate@@3HA			; g_iKundunMarkDropRate
PUBLIC	?g_iMarkOfTheLord@@3HA				; g_iMarkOfTheLord
PUBLIC	?g_iJapan1StAnivItemDropRate@@3HA		; g_iJapan1StAnivItemDropRate
PUBLIC	?g_iDarkLordHeartDropRate@@3HA			; g_iDarkLordHeartDropRate
PUBLIC	?g_iDarkLordHeartOffEventRate@@3HA		; g_iDarkLordHeartOffEventRate
PUBLIC	?g_iMysteriousBeadDropRate1@@3HA		; g_iMysteriousBeadDropRate1
PUBLIC	?g_iMysteriousBeadDropRate2@@3HA		; g_iMysteriousBeadDropRate2
PUBLIC	?g_iHiddenTreasureBoxOfflineRate@@3HA		; g_iHiddenTreasureBoxOfflineRate
PUBLIC	?bIsIgnorePacketSpeedHackDetect@@3HA		; bIsIgnorePacketSpeedHackDetect
PUBLIC	?gIsKickDetecHackCountLimit@@3HA		; gIsKickDetecHackCountLimit
PUBLIC	?gTamaJJangEvent@@3HA				; gTamaJJangEvent
PUBLIC	?gAppearTamaJJang@@3HA				; gAppearTamaJJang
PUBLIC	?gTamaJJangTime@@3HA				; gTamaJJangTime
PUBLIC	?gIsItemDropRingOfTransform@@3HA		; gIsItemDropRingOfTransform
PUBLIC	?gIsEledoradoEvent@@3HA				; gIsEledoradoEvent
PUBLIC	?gDoPShopOpen@@3HA				; gDoPShopOpen
PUBLIC	?gWriteChatLog@@3HA				; gWriteChatLog
PUBLIC	?gDisconnectHackUser@@3HA			; gDisconnectHackUser
PUBLIC	?GSInfoSendFlag@@3HA				; GSInfoSendFlag
PUBLIC	?UDPPort@@3GA					; UDPPort
PUBLIC	?EVENT_CHIP_SERVER_PORT@@3GA			; EVENT_CHIP_SERVER_PORT
PUBLIC	?RANKING_SERVER_PORT@@3GA			; RANKING_SERVER_PORT
PUBLIC	?USE_CHECKSUM@@3HA				; USE_CHECKSUM
PUBLIC	?JoinServerIp@@3PADA				; JoinServerIp
PUBLIC	?GUARD_SAY@@3PADA				; GUARD_SAY
PUBLIC	?JoinServerPort@@3GA				; JoinServerPort
PUBLIC	?GameServerPort@@3GA				; GameServerPort
PUBLIC	?DataServerIp@@3PADA				; DataServerIp
PUBLIC	?DataServerIp2@@3PADA				; DataServerIp2
PUBLIC	?ExDbPort@@3GA					; ExDbPort
PUBLIC	?ExDbIp@@3PADA					; ExDbIp
PUBLIC	?DataServerPort@@3GA				; DataServerPort
PUBLIC	?DataServerPort2@@3GA				; DataServerPort2
PUBLIC	?gLevelExperience@@3PAKA			; gLevelExperience
PUBLIC	?szGameServerExeSerial@@3PADA			; szGameServerExeSerial
PUBLIC	?szServerName@@3PADA				; szServerName
PUBLIC	?szKorItemTextFileName@@3PADA			; szKorItemTextFileName
PUBLIC	?szKorSkillTextFileName@@3PADA			; szKorSkillTextFileName
PUBLIC	?szItemTextFileName@@3PADA			; szItemTextFileName
PUBLIC	?szSkillTextFileName@@3PADA			; szSkillTextFileName
PUBLIC	?szQuestTextFileName@@3PADA			; szQuestTextFileName
PUBLIC	?szMoveReqFileName@@3PADA			; szMoveReqFileName
PUBLIC	?szCommonlocIniFileName@@3PADA			; szCommonlocIniFileName
PUBLIC	?szAuthKey@@3PADA				; szAuthKey
PUBLIC	?gIsDropDarkLordItem@@3HA			; gIsDropDarkLordItem
PUBLIC	?gSleeveOfLordDropRate@@3HA			; gSleeveOfLordDropRate
PUBLIC	?gSleeveOfLordDropLevel@@3HA			; gSleeveOfLordDropLevel
PUBLIC	?gSoulOfDarkHorseDropRate@@3HA			; gSoulOfDarkHorseDropRate
PUBLIC	?gSoulOfDarkHorseropLevel@@3HA			; gSoulOfDarkHorseropLevel
PUBLIC	?gSoulOfDarkSpiritDropRate@@3HA			; gSoulOfDarkSpiritDropRate
PUBLIC	?gSoulOfDarkSpiritDropLevel@@3HA		; gSoulOfDarkSpiritDropLevel
PUBLIC	?gDarkSpiritAddExperience@@3MA			; gDarkSpiritAddExperience
PUBLIC	?gIsDropGemOfDefend@@3HA			; gIsDropGemOfDefend
PUBLIC	?gGemOfDefendDropRate@@3HA			; gGemOfDefendDropRate
PUBLIC	?gGemOfDefendDropLevel@@3HA			; gGemOfDefendDropLevel
PUBLIC	?g_iUseCharacterAutoRecuperationSystem@@3HA	; g_iUseCharacterAutoRecuperationSystem
PUBLIC	?g_iCharacterRecuperationMaxLevel@@3HA		; g_iCharacterRecuperationMaxLevel
PUBLIC	?g_iServerGroupGuildChatting@@3HA		; g_iServerGroupGuildChatting
PUBLIC	?g_iServerGroupUnionChatting@@3HA		; g_iServerGroupUnionChatting
PUBLIC	?g_iSkillDistanceCheck@@3HA			; g_iSkillDistanceCheck
PUBLIC	?g_iSkillDistanceCheckTemp@@3HA			; g_iSkillDistanceCheckTemp
PUBLIC	?g_iSkillDistanceKick@@3HA			; g_iSkillDistanceKick
PUBLIC	?g_iSkillDistanceKickCount@@3HA			; g_iSkillDistanceKickCount
PUBLIC	?g_iSkillDiatanceKickCheckTime@@3HA		; g_iSkillDiatanceKickCheckTime
PUBLIC	?dwgCheckSum@@3PAKA				; dwgCheckSum
PUBLIC	?connectserverip@@3PADA				; connectserverip
PUBLIC	?connectserverport@@3HA				; connectserverport
PUBLIC	?gGameServerCode@@3FA				; gGameServerCode
PUBLIC	?gPkTime@@3HA					; gPkTime
PUBLIC	?g_bCastleGuildDestoyLimit@@3HA			; g_bCastleGuildDestoyLimit
PUBLIC	?gItemNumberCount@@3HA				; gItemNumberCount
PUBLIC	?gStalkProtocol@@3HA				; gStalkProtocol
PUBLIC	?gAttackEventRegenTime@@3KA			; gAttackEventRegenTime
PUBLIC	?gYear@@3HA					; gYear
PUBLIC	?gOnlyFireCrackerEffectUse@@3HA			; gOnlyFireCrackerEffectUse
PUBLIC	?g_iRingOrcKillGiftRate@@3HA			; g_iRingOrcKillGiftRate
PUBLIC	?g_iRingDropGiftRate@@3HA			; g_iRingDropGiftRate
PUBLIC	?gEledoradoGoldGoblenItemDropRate@@3HA		; gEledoradoGoldGoblenItemDropRate
PUBLIC	?gEledoradoTitanItemDropRate@@3HA		; gEledoradoTitanItemDropRate
PUBLIC	?gEledoradoGoldDerconItemDropRate@@3HA		; gEledoradoGoldDerconItemDropRate
PUBLIC	?gEledoradoDevilLizardKingItemDropRate@@3HA	; gEledoradoDevilLizardKingItemDropRate
PUBLIC	?gEledoradoDevilTantarosItemDropRate@@3HA	; gEledoradoDevilTantarosItemDropRate
PUBLIC	?gEledoradoGoldGoblenExItemDropRate@@3HA	; gEledoradoGoldGoblenExItemDropRate
PUBLIC	?gEledoradoTitanExItemDropRate@@3HA		; gEledoradoTitanExItemDropRate
PUBLIC	?gEledoradoGoldDerconExItemDropRate@@3HA	; gEledoradoGoldDerconExItemDropRate
PUBLIC	?gEledoradoDevilLizardKingExItemDropRate@@3HA	; gEledoradoDevilLizardKingExItemDropRate
PUBLIC	?gEledoradoDevilTantarosExItemDropRate@@3HA	; gEledoradoDevilTantarosExItemDropRate
PUBLIC	?giKundunRefillHPSec@@3HA			; giKundunRefillHPSec
PUBLIC	?giKundunRefillHP@@3HA				; giKundunRefillHP
PUBLIC	?giKundunRefillHPTime@@3HA			; giKundunRefillHPTime
PUBLIC	?giKundunHPLogSaveTime@@3HA			; giKundunHPLogSaveTime
PUBLIC	?gUseNPGGChecksum@@3HA				; gUseNPGGChecksum
PUBLIC	?g_PKLevelIncreaseOff@@3HA			; g_PKLevelIncreaseOff
PUBLIC	?gMapName@@3PAY0PP@DA				; gMapName
PUBLIC	?g_szMapName@@3PAY0CA@DA			; g_szMapName
PUBLIC	?szGameServerVersion@@3PADA			; szGameServerVersion
PUBLIC	?szClientVersion@@3PADA				; szClientVersion
PUBLIC	?bCanTrade@@3HA					; bCanTrade
PUBLIC	?bCanChaosBox@@3HA				; bCanChaosBox
PUBLIC	?bCanWarehouseLock@@3HA				; bCanWarehouseLock
PUBLIC	?MapMinUserLevel@@3PAHA				; MapMinUserLevel
PUBLIC	?gEnableBattleSoccer@@3HA			; gEnableBattleSoccer
PUBLIC	?gLootingTime@@3HA				; gLootingTime
PUBLIC	?gPkItemDrop@@3HA				; gPkItemDrop
PUBLIC	?gEvent1ItemDropTodayMax@@3HA			; gEvent1ItemDropTodayMax
PUBLIC	?gEvent1ItemDropTodayPercent@@3HA		; gEvent1ItemDropTodayPercent
PUBLIC	?gCountryName@@3PADA				; gCountryName
PUBLIC	?gCharacterDeleteMinLevel@@3HA			; gCharacterDeleteMinLevel
PUBLIC	?gCreateCharacter@@3HA				; gCreateCharacter
PUBLIC	?gGuildCreate@@3HA				; gGuildCreate
PUBLIC	?gGuildDestroy@@3HA				; gGuildDestroy
PUBLIC	?gGuildCreateLevel@@3HA				; gGuildCreateLevel
PUBLIC	?gItemSerialCheck@@3HA				; gItemSerialCheck
PUBLIC	?g_XMasEvent_StarOfXMasDropRate@@3HA		; g_XMasEvent_StarOfXMasDropRate
PUBLIC	?g_XMasEvent_ItemDropRateForStarOfXMas@@3HA	; g_XMasEvent_ItemDropRateForStarOfXMas
PUBLIC	?gFireCrackerDropRate@@3HA			; gFireCrackerDropRate
PUBLIC	?g_ItemDropRateForgFireCracker@@3HA		; g_ItemDropRateForgFireCracker
PUBLIC	?gHeartOfLoveDropRate@@3HA			; gHeartOfLoveDropRate
PUBLIC	?g_ItemDropRateForgHeartOfLove@@3HA		; g_ItemDropRateForgHeartOfLove
PUBLIC	?gGoldMedalDropRate@@3HA			; gGoldMedalDropRate
PUBLIC	?gSilverMedalDropRate@@3HA			; gSilverMedalDropRate
PUBLIC	?g_ItemDropRateForGoldMedal@@3HA		; g_ItemDropRateForGoldMedal
PUBLIC	?g_ItemDropRateForSilverMedal@@3HA		; g_ItemDropRateForSilverMedal
PUBLIC	?gBoxOfGoldDropRate@@3HA			; gBoxOfGoldDropRate
PUBLIC	?g_ItemDropRateForBoxOfGold@@3HA		; g_ItemDropRateForBoxOfGold
PUBLIC	?g_EventChipDropRateForBoxOfGold@@3HA		; g_EventChipDropRateForBoxOfGold
PUBLIC	?gEyesOfDevilSquareDropRate@@3HA		; gEyesOfDevilSquareDropRate
PUBLIC	?gKeyOfDevilSquareDropRate@@3HA			; gKeyOfDevilSquareDropRate
PUBLIC	?gDQChaosSuccessRateLevel1@@3HA			; gDQChaosSuccessRateLevel1
PUBLIC	?gDQChaosSuccessRateLevel2@@3HA			; gDQChaosSuccessRateLevel2
PUBLIC	?gDQChaosSuccessRateLevel3@@3HA			; gDQChaosSuccessRateLevel3
PUBLIC	?gDQChaosSuccessRateLevel4@@3HA			; gDQChaosSuccessRateLevel4
PUBLIC	?gDQChaosSuccessRateLevel5@@3HA			; gDQChaosSuccessRateLevel5
PUBLIC	?gDQChaosSuccessRateLevel6@@3HA			; gDQChaosSuccessRateLevel6
PUBLIC	?g_bBloodCastle@@3HA				; g_bBloodCastle
PUBLIC	?g_iBloodCastle_StartHour@@3HA			; g_iBloodCastle_StartHour
PUBLIC	?g_iStoneDropRate@@3HA				; g_iStoneDropRate
PUBLIC	?g_iAngelKingsPaperDropRate@@3HA		; g_iAngelKingsPaperDropRate
PUBLIC	?g_iBloodBoneDropRate@@3HA			; g_iBloodBoneDropRate
PUBLIC	?g_bChaosCastle@@3HA				; g_bChaosCastle
PUBLIC	?gAttackSpeedTimeLimit@@3KA			; gAttackSpeedTimeLimit
PUBLIC	?gHackCheckCount@@3KA				; gHackCheckCount
PUBLIC	?gDecTimePerAttackSpeed@@3MA			; gDecTimePerAttackSpeed
PUBLIC	?gMinimumAttackSpeedTime@@3HA			; gMinimumAttackSpeedTime
PUBLIC	?gDetectedHackKickCount@@3HA			; gDetectedHackKickCount
PUBLIC	?gTamaJJangKeepTime@@3HA			; gTamaJJangKeepTime
PUBLIC	?gTamaJJangDisappearTime@@3HA			; gTamaJJangDisappearTime
PUBLIC	?gTamaJJangDisappearTimeRandomRange@@3HA	; gTamaJJangDisappearTimeRandomRange
PUBLIC	?gItemDropRingOfTransform@@3HA			; gItemDropRingOfTransform
PUBLIC	?gQuestNPCTeleportTime@@3HA			; gQuestNPCTeleportTime
PUBLIC	?gEledoradoGoldGoblenRegenTime@@3KA		; gEledoradoGoldGoblenRegenTime
PUBLIC	?gEledoradoTitanRegenTime@@3KA			; gEledoradoTitanRegenTime
PUBLIC	?gEledoradoGoldDerconRegenTime@@3KA		; gEledoradoGoldDerconRegenTime
PUBLIC	?gEledoradoDevilLizardKingRegenTime@@3KA	; gEledoradoDevilLizardKingRegenTime
PUBLIC	?gEledoradoDevilTantarosRegenTime@@3KA		; gEledoradoDevilTantarosRegenTime
PUBLIC	?gZenDurationTime@@3HA				; gZenDurationTime
PUBLIC	?gMonsterHPAdjust@@3HA				; gMonsterHPAdjust
PUBLIC	?gEnableCheckPenetrationSkill@@3HA		; gEnableCheckPenetrationSkill
_BSS	SEGMENT
?JoinServerConnected@@3HA DD 01H DUP (?)		; JoinServerConnected
?DataServerConnected@@3HA DD 01H DUP (?)		; DataServerConnected
?GameServerCreated@@3HA DD 01H DUP (?)			; GameServerCreated
?DevilSquareEventConnect@@3HA DD 01H DUP (?)		; DevilSquareEventConnect
?IsDevilSquareEventConnected@@3HA DD 01H DUP (?)	; IsDevilSquareEventConnected
?EventChipServerConnect@@3HA DD 01H DUP (?)		; EventChipServerConnect
?IsEventChipServerConnected@@3HA DD 01H DUP (?)		; IsEventChipServerConnected
?DragonEvent@@3PAVCDragonEvent@@A DD 01H DUP (?)	; DragonEvent
?AttackEvent@@3PAVCAttackEvent@@A DD 01H DUP (?)	; AttackEvent
?LuckboxItemBag@@3PAVCItemBag@@A DD 01H DUP (?)		; LuckboxItemBag
?Mon55@@3PAVCItemBag@@A DD 01H DUP (?)			; Mon55
?Mon53@@3PAVCItemBag@@A DD 01H DUP (?)			; Mon53
?StarOfXMasItemBag@@3PAVCItemBagEx@@A DD 01H DUP (?)	; StarOfXMasItemBag
?FireCrackerItemBag@@3PAVCItemBag@@A DD 01H DUP (?)	; FireCrackerItemBag
?HeartOfLoveItemBag@@3PAVCItemBag@@A DD 01H DUP (?)	; HeartOfLoveItemBag
?GoldMedalItemBag@@3PAVCItemBag@@A DD 01H DUP (?)	; GoldMedalItemBag
?SilverMedalItemBag@@3PAVCItemBag@@A DD 01H DUP (?)	; SilverMedalItemBag
?EventChipItemBag@@3PAVCItemBag@@A DD 01H DUP (?)	; EventChipItemBag
?GoldGoblenItemBag@@3PAVCItemBag@@A DD 01H DUP (?)	; GoldGoblenItemBag
?TitanItemBag@@3PAVCItemBag@@A DD 01H DUP (?)		; TitanItemBag
?GoldDerconItemBag@@3PAVCItemBag@@A DD 01H DUP (?)	; GoldDerconItemBag
?DevilLizardKingItemBag@@3PAVCItemBag@@A DD 01H DUP (?)	; DevilLizardKingItemBag
?KanturItemBag@@3PAVCItemBag@@A DD 01H DUP (?)		; KanturItemBag
?RingEventItemBag@@3PAVCItemBag@@A DD 01H DUP (?)	; RingEventItemBag
?FriendShipItemBag@@3PAVCItemBag@@A DD 01H DUP (?)	; FriendShipItemBag
?DarkLordHeartItemBag@@3PAVCItemBag@@A DD 01H DUP (?)	; DarkLordHeartItemBag
?KundunEventItemBag@@3PAVCItemBagEx@@A DD 01H DUP (?)	; KundunEventItemBag
?HiddenTreasureBoxItemBag@@3PAVCItemBagEx@@A DD 01H DUP (?) ; HiddenTreasureBoxItemBag
?SpeedHackPlayerBlock@@3HA DD 01H DUP (?)		; SpeedHackPlayerBlock
?bCanConnectMember@@3HA DD 01H DUP (?)			; bCanConnectMember
?gServerType@@3HA DD 01H DUP (?)			; gServerType
?gPartition@@3HA DD 01H DUP (?)				; gPartition
?gApplyHeroSystem@@3HA DD 01H DUP (?)			; gApplyHeroSystem
?gSpeedHackPenalty@@3HA DD 01H DUP (?)			; gSpeedHackPenalty
?gEnableEventNPCTalk@@3HA DD 01H DUP (?)		; gEnableEventNPCTalk
?gEnableServerDivision@@3HA DD 01H DUP (?)		; gEnableServerDivision
?gEvent1@@3HA DD 01H DUP (?)				; gEvent1
?gMonsterHp@@3HA DD 01H DUP (?)				; gMonsterHp
?gMerryXMasNpcEvent@@3HA DD 01H DUP (?)			; gMerryXMasNpcEvent
?gHappyNewYearNpcEvent@@3HA DD 01H DUP (?)		; gHappyNewYearNpcEvent
?gEvent1ItemDropTodayCount@@3HA DD 01H DUP (?)		; gEvent1ItemDropTodayCount
?gLanguage@@3HA DD 01H DUP (?)				; gLanguage
?gChaosEvent@@3HA DD 01H DUP (?)			; gChaosEvent
?gChaosEventServerIp@@3PADA DB 014H DUP (?)		; gChaosEventServerIp
?gDevilSquareEventServerIp@@3PADA DB 014H DUP (?)	; gDevilSquareEventServerIp
?gHackLogServerIp@@3PADA DB 014H DUP (?)		; gHackLogServerIp
?gEventChipServerIp@@3PADA DB 014H DUP (?)		; gEventChipServerIp
?gStalkProtocolId@@3PADA DB 0bH DUP (?)			; gStalkProtocolId
	ALIGN	4

?gNonPK@@3HA DD	01H DUP (?)				; gNonPK
?gPkLimitFree@@3HA DD 01H DUP (?)			; gPkLimitFree
?gXMasEvent@@3HA DD 01H DUP (?)				; gXMasEvent
?gFireCrackerEvent@@3HA DD 01H DUP (?)			; gFireCrackerEvent
?gHeartOfLoveEvent@@3HA DD 01H DUP (?)			; gHeartOfLoveEvent
?gMedalEvent@@3HA DD 01H DUP (?)			; gMedalEvent
?gEventChipEvent@@3HA DD 01H DUP (?)			; gEventChipEvent
?gDevilSquareEvent@@3HA DD 01H DUP (?)			; gDevilSquareEvent
?gWriteSkillLog@@3HA DD 01H DUP (?)			; gWriteSkillLog
?g_bStoneItemDrop@@3HA DD 01H DUP (?)			; g_bStoneItemDrop
?g_bDoRingEvent@@3HA DD 01H DUP (?)			; g_bDoRingEvent
?g_bEventManagerOn@@3HA DD 01H DUP (?)			; g_bEventManagerOn
?g_iKundunMarkDropRate@@3HA DD 01H DUP (?)		; g_iKundunMarkDropRate
?g_iMarkOfTheLord@@3HA DD 01H DUP (?)			; g_iMarkOfTheLord
?g_iJapan1StAnivItemDropRate@@3HA DD 01H DUP (?)	; g_iJapan1StAnivItemDropRate
?g_iDarkLordHeartDropRate@@3HA DD 01H DUP (?)		; g_iDarkLordHeartDropRate
?g_iDarkLordHeartOffEventRate@@3HA DD 01H DUP (?)	; g_iDarkLordHeartOffEventRate
?g_iMysteriousBeadDropRate1@@3HA DD 01H DUP (?)		; g_iMysteriousBeadDropRate1
?g_iMysteriousBeadDropRate2@@3HA DD 01H DUP (?)		; g_iMysteriousBeadDropRate2
?g_iHiddenTreasureBoxOfflineRate@@3HA DD 01H DUP (?)	; g_iHiddenTreasureBoxOfflineRate
?bIsIgnorePacketSpeedHackDetect@@3HA DD 01H DUP (?)	; bIsIgnorePacketSpeedHackDetect
?gIsKickDetecHackCountLimit@@3HA DD 01H DUP (?)		; gIsKickDetecHackCountLimit
?gTamaJJangEvent@@3HA DD 01H DUP (?)			; gTamaJJangEvent
?gAppearTamaJJang@@3HA DD 01H DUP (?)			; gAppearTamaJJang
?gTamaJJangTime@@3HA DD 01H DUP (?)			; gTamaJJangTime
?gIsItemDropRingOfTransform@@3HA DD 01H DUP (?)		; gIsItemDropRingOfTransform
?gIsEledoradoEvent@@3HA DD 01H DUP (?)			; gIsEledoradoEvent
?gDoPShopOpen@@3HA DD 01H DUP (?)			; gDoPShopOpen
?gWriteChatLog@@3HA DD 01H DUP (?)			; gWriteChatLog
?gDisconnectHackUser@@3HA DD 01H DUP (?)		; gDisconnectHackUser
?GSInfoSendFlag@@3HA DD 01H DUP (?)			; GSInfoSendFlag
?UDPPort@@3GA DW 01H DUP (?)				; UDPPort
	ALIGN	4

?EVENT_CHIP_SERVER_PORT@@3GA DW 01H DUP (?)		; EVENT_CHIP_SERVER_PORT
	ALIGN	4

?RANKING_SERVER_PORT@@3GA DW 01H DUP (?)		; RANKING_SERVER_PORT
	ALIGN	4

?USE_CHECKSUM@@3HA DD 01H DUP (?)			; USE_CHECKSUM
?JoinServerIp@@3PADA DB 0100H DUP (?)			; JoinServerIp
?GUARD_SAY@@3PADA DB 0100H DUP (?)			; GUARD_SAY
?JoinServerPort@@3GA DW 01H DUP (?)			; JoinServerPort
	ALIGN	4

?GameServerPort@@3GA DW 01H DUP (?)			; GameServerPort
	ALIGN	4

?DataServerIp@@3PADA DB 0100H DUP (?)			; DataServerIp
?DataServerIp2@@3PADA DB 0100H DUP (?)			; DataServerIp2
?ExDbPort@@3GA DW 01H DUP (?)				; ExDbPort
	ALIGN	4

?ExDbIp@@3PADA DB 0100H DUP (?)				; ExDbIp
?DataServerPort@@3GA DW 01H DUP (?)			; DataServerPort
	ALIGN	4

?DataServerPort2@@3GA DW 01H DUP (?)			; DataServerPort2
	ALIGN	4

?gLevelExperience@@3PAKA DD 0191H DUP (?)		; gLevelExperience
?szGameServerExeSerial@@3PADA DB 018H DUP (?)		; szGameServerExeSerial
?szServerName@@3PADA DB 032H DUP (?)			; szServerName
	ALIGN	4

?szKorItemTextFileName@@3PADA DB 0100H DUP (?)		; szKorItemTextFileName
?szKorSkillTextFileName@@3PADA DB 0100H DUP (?)		; szKorSkillTextFileName
?szItemTextFileName@@3PADA DB 0100H DUP (?)		; szItemTextFileName
?szSkillTextFileName@@3PADA DB 0100H DUP (?)		; szSkillTextFileName
?szQuestTextFileName@@3PADA DB 0100H DUP (?)		; szQuestTextFileName
?szMoveReqFileName@@3PADA DB 0100H DUP (?)		; szMoveReqFileName
?szCommonlocIniFileName@@3PADA DB 0100H DUP (?)		; szCommonlocIniFileName
?szAuthKey@@3PADA DB 014H DUP (?)			; szAuthKey
?gIsDropDarkLordItem@@3HA DD 01H DUP (?)		; gIsDropDarkLordItem
?gSleeveOfLordDropRate@@3HA DD 01H DUP (?)		; gSleeveOfLordDropRate
?gSleeveOfLordDropLevel@@3HA DD 01H DUP (?)		; gSleeveOfLordDropLevel
?gSoulOfDarkHorseDropRate@@3HA DD 01H DUP (?)		; gSoulOfDarkHorseDropRate
?gSoulOfDarkHorseropLevel@@3HA DD 01H DUP (?)		; gSoulOfDarkHorseropLevel
?gSoulOfDarkSpiritDropRate@@3HA DD 01H DUP (?)		; gSoulOfDarkSpiritDropRate
?gSoulOfDarkSpiritDropLevel@@3HA DD 01H DUP (?)		; gSoulOfDarkSpiritDropLevel
?gDarkSpiritAddExperience@@3MA DD 01H DUP (?)		; gDarkSpiritAddExperience
?gIsDropGemOfDefend@@3HA DD 01H DUP (?)			; gIsDropGemOfDefend
?gGemOfDefendDropRate@@3HA DD 01H DUP (?)		; gGemOfDefendDropRate
?gGemOfDefendDropLevel@@3HA DD 01H DUP (?)		; gGemOfDefendDropLevel
?g_iUseCharacterAutoRecuperationSystem@@3HA DD 01H DUP (?) ; g_iUseCharacterAutoRecuperationSystem
?g_iCharacterRecuperationMaxLevel@@3HA DD 01H DUP (?)	; g_iCharacterRecuperationMaxLevel
?g_iServerGroupGuildChatting@@3HA DD 01H DUP (?)	; g_iServerGroupGuildChatting
?g_iServerGroupUnionChatting@@3HA DD 01H DUP (?)	; g_iServerGroupUnionChatting
?g_iSkillDistanceCheck@@3HA DD 01H DUP (?)		; g_iSkillDistanceCheck
?g_iSkillDistanceCheckTemp@@3HA DD 01H DUP (?)		; g_iSkillDistanceCheckTemp
?g_iSkillDistanceKick@@3HA DD 01H DUP (?)		; g_iSkillDistanceKick
?g_iSkillDistanceKickCount@@3HA DD 01H DUP (?)		; g_iSkillDistanceKickCount
?g_iSkillDiatanceKickCheckTime@@3HA DD 01H DUP (?)	; g_iSkillDiatanceKickCheckTime
?dwgCheckSum@@3PAKA DD 0400H DUP (?)			; dwgCheckSum
?connectserverip@@3PADA DB 014H DUP (?)			; connectserverip
?connectserverport@@3HA DD 01H DUP (?)			; connectserverport
?gGameServerCode@@3FA DW 01H DUP (?)			; gGameServerCode
	ALIGN	4

?gPkTime@@3HA DD 01H DUP (?)				; gPkTime
?g_bCastleGuildDestoyLimit@@3HA DD 01H DUP (?)		; g_bCastleGuildDestoyLimit
?gItemNumberCount@@3HA DD 01H DUP (?)			; gItemNumberCount
?gStalkProtocol@@3HA DD 01H DUP (?)			; gStalkProtocol
?gAttackEventRegenTime@@3KA DD 01H DUP (?)		; gAttackEventRegenTime
?gYear@@3HA DD	01H DUP (?)				; gYear
?gOnlyFireCrackerEffectUse@@3HA DD 01H DUP (?)		; gOnlyFireCrackerEffectUse
?g_iRingOrcKillGiftRate@@3HA DD 01H DUP (?)		; g_iRingOrcKillGiftRate
?g_iRingDropGiftRate@@3HA DD 01H DUP (?)		; g_iRingDropGiftRate
?gEledoradoGoldGoblenItemDropRate@@3HA DD 01H DUP (?)	; gEledoradoGoldGoblenItemDropRate
?gEledoradoTitanItemDropRate@@3HA DD 01H DUP (?)	; gEledoradoTitanItemDropRate
?gEledoradoGoldDerconItemDropRate@@3HA DD 01H DUP (?)	; gEledoradoGoldDerconItemDropRate
?gEledoradoDevilLizardKingItemDropRate@@3HA DD 01H DUP (?) ; gEledoradoDevilLizardKingItemDropRate
?gEledoradoDevilTantarosItemDropRate@@3HA DD 01H DUP (?) ; gEledoradoDevilTantarosItemDropRate
?gEledoradoGoldGoblenExItemDropRate@@3HA DD 01H DUP (?)	; gEledoradoGoldGoblenExItemDropRate
?gEledoradoTitanExItemDropRate@@3HA DD 01H DUP (?)	; gEledoradoTitanExItemDropRate
?gEledoradoGoldDerconExItemDropRate@@3HA DD 01H DUP (?)	; gEledoradoGoldDerconExItemDropRate
?gEledoradoDevilLizardKingExItemDropRate@@3HA DD 01H DUP (?) ; gEledoradoDevilLizardKingExItemDropRate
?gEledoradoDevilTantarosExItemDropRate@@3HA DD 01H DUP (?) ; gEledoradoDevilTantarosExItemDropRate
?giKundunRefillHPSec@@3HA DD 01H DUP (?)		; giKundunRefillHPSec
?giKundunRefillHP@@3HA DD 01H DUP (?)			; giKundunRefillHP
?giKundunRefillHPTime@@3HA DD 01H DUP (?)		; giKundunRefillHPTime
?giKundunHPLogSaveTime@@3HA DD 01H DUP (?)		; giKundunHPLogSaveTime
?gUseNPGGChecksum@@3HA DD 01H DUP (?)			; gUseNPGGChecksum
?g_PKLevelIncreaseOff@@3HA DD 01H DUP (?)		; g_PKLevelIncreaseOff
?gMapName@@3PAY0PP@DA DB 027d8H DUP (?)			; gMapName
_BSS	ENDS
_DATA	SEGMENT
_g_sttBLOODCASTLE_LEVEL DD 0fH
	DD	050H
	DD	0aH
	DD	03cH
	DD	051H
	DD	082H
	DD	03dH
	DD	06eH
	DD	083H
	DD	0b4H
	DD	06fH
	DD	0a0H
	DD	0b5H
	DD	0e6H
	DD	0a1H
	DD	0d2H
	DD	0e7H
	DD	0118H
	DD	0d3H
	DD	0104H
	DD	0119H
	DD	014aH
	DD	0105H
	DD	0136H
	DD	014bH
	DD	0190H
	DD	0137H
	DD	0190H
_g_sttCHAOSCASTLE_LEVEL DD 0aH
	DD	031H
	DD	0aH
	DD	01dH
	DD	032H
	DD	077H
	DD	01eH
	DD	063H
	DD	078H
	DD	0b3H
	DD	064H
	DD	09fH
	DD	0b4H
	DD	0efH
	DD	0a0H
	DD	0dbH
	DD	0f0H
	DD	012bH
	DD	0dcH
	DD	0117H
	DD	012cH
	DD	0190H
	DD	0118H
	DD	0190H
_g_iChaosCastle_BlowOutDistance DD 03H
	DD	04H
	DD	03H
	DD	04H
	DD	02H
	DD	03H
	DD	00H
	DD	01H
_g_iChaosCastle_BlowOutDamage DD 0fH
	DD	0fH
	DD	0aH
	DD	05H
_g_iChaosCastle_EnterCost DD 061a8H
	DD	013880H
	DD	0249f0H
	DD	03d090H
	DD	061a80H
	DD	09eb10H
_g_iChaosCastle_GuardSetValue DD 09c4H
	DD	09c4H
	DD	09c4H
	DD	09c4H
	DD	09c4H
	DD	09c4H
_g_iChaosCastle_MonsterItems DD 01c0dH
	DD	01H
	DD	01c0eH
	DD	01H
	DD	01c0dH
	DD	01H
	DD	01c0eH
	DD	01H
	DD	01c0dH
	DD	01H
	DD	01c0eH
	DD	01H
	DD	01c0dH
	DD	01H
	DD	01c0eH
	DD	01H
	DD	01c0dH
	DD	01H
	DD	01c0eH
	DD	02H
	DD	01c0dH
	DD	01H
	DD	01c0eH
	DD	02H
_g_iChaosCastle_GroundAxis DD 017H
	DD	04bH
	DD	02cH
	DD	06cH
_g_iChaosCastle_DamageAxis DD 017H
	DD	04bH
	DD	02cH
	DD	06cH
	DD	019H
	DD	04dH
	DD	02aH
	DD	06aH
	DD	01bH
	DD	04fH
	DD	028H
	DD	068H
	DD	01dH
	DD	051H
	DD	026H
	DD	066H
_g_iChaosCastle_MapHollowZone DD 017H
	DD	04bH
	DD	02cH
	DD	04cH
	DD	02bH
	DD	04dH
	DD	02cH
	DD	06cH
	DD	017H
	DD	06bH
	DD	02aH
	DD	06cH
	DD	017H
	DD	04dH
	DD	018H
	DD	06aH
	DD	017H
	DD	04bH
	DD	02cH
	DD	04cH
	DD	02bH
	DD	04dH
	DD	02cH
	DD	06cH
	DD	017H
	DD	06bH
	DD	02aH
	DD	06cH
	DD	017H
	DD	04dH
	DD	018H
	DD	06aH
	DD	019H
	DD	04dH
	DD	02aH
	DD	04eH
	DD	029H
	DD	04fH
	DD	02aH
	DD	06aH
	DD	019H
	DD	069H
	DD	028H
	DD	06aH
	DD	019H
	DD	04fH
	DD	01aH
	DD	068H
	DD	01bH
	DD	04fH
	DD	028H
	DD	050H
	DD	027H
	DD	051H
	DD	028H
	DD	068H
	DD	01bH
	DD	067H
	DD	026H
	DD	068H
	DD	01bH
	DD	051H
	DD	01cH
	DD	066H
_g_sttDEVILSQUARE_LEVEL DD 0fH
	DD	082H
	DD	0aH
	DD	06eH
	DD	03aH
	DD	083H
	DD	0b4H
	DD	06fH
	DD	0a0H
	DD	03bH
	DD	0b5H
	DD	0e6H
	DD	0a1H
	DD	0d2H
	DD	03cH
	DD	0e7H
	DD	0118H
	DD	0d3H
	DD	0104H
	DD	03dH
	DD	0119H
	DD	014aH
	DD	0105H
	DD	0136H
	DD	06fH
	DD	014bH
	DD	0190H
	DD	0137H
	DD	0190H
	DD	070H
?g_szMapName@@3PAY0CA@DA DB 'Lorencia', 00H		; g_szMapName
	ORG $+23
	DB	'Dungeon', 00H
	ORG $+24
	DB	'Devias', 00H
	ORG $+25
	DB	'Noria', 00H
	ORG $+26
	DB	'LostTower', 00H
	ORG $+22
	DB	'Exile', 00H
	ORG $+26
	DB	'Arena', 00H
	ORG $+26
	DB	'Atlans', 00H
	ORG $+25
	DB	'Tarkan', 00H
	ORG $+25
	DB	'Icarus', 00H
	ORG $+25
	DB	'BloodCastle1', 00H
	ORG $+19
	DB	'BloodCastle2', 00H
	ORG $+19
	DB	'BloodCastle3', 00H
	ORG $+19
	DB	'BloodCastle4', 00H
	ORG $+19
	DB	'BloodCastle5', 00H
	ORG $+19
	DB	'BloodCastle6', 00H
	ORG $+19
	DB	'BloodCastle7', 00H
	ORG $+19
	ORG $+736
?szGameServerVersion@@3PADA DB '1.00.18', 00H		; szGameServerVersion
	ORG $+4
?szClientVersion@@3PADA DB '000000', 00H		; szClientVersion
	ORG $+1
?bCanTrade@@3HA DD 01H					; bCanTrade
?bCanChaosBox@@3HA DD 01H				; bCanChaosBox
?bCanWarehouseLock@@3HA DD 01H				; bCanWarehouseLock
?MapMinUserLevel@@3PAHA DD 00H				; MapMinUserLevel
	DD	014H
	DD	0fH
	DD	0aH
	DD	050H
	DD	00H
	DD	00H
	DD	03cH
	DD	082H
	DD	00H
	DD	0a0H
	DD	0aH
	DD	024H
	DD	050H
	DD	082H
	DD	0aaH
	DD	0d2H
	DD	0136H
	DD	0fH
	DD	01eH
	DD	064H
	DD	0a0H
	DD	0dcH
	DD	0118H
	DD	0fH
	DD	032H
	DD	078H
	DD	0b4H
	DD	0f0H
	DD	012cH
	DD	0aH
	DD	0aH
	DD	00H
	ORG $+28
?gEnableBattleSoccer@@3HA DD 01H			; gEnableBattleSoccer
?gLootingTime@@3HA DD 03H				; gLootingTime
?gPkItemDrop@@3HA DD 01H				; gPkItemDrop
?gEvent1ItemDropTodayMax@@3HA DD 01H			; gEvent1ItemDropTodayMax
?gEvent1ItemDropTodayPercent@@3HA DD 050H		; gEvent1ItemDropTodayPercent
?gCountryName@@3PADA DB 'Kor', 00H			; gCountryName
	ORG $+16
?gCharacterDeleteMinLevel@@3HA DD 028H			; gCharacterDeleteMinLevel
?gCreateCharacter@@3HA DD 01H				; gCreateCharacter
?gGuildCreate@@3HA DD 01H				; gGuildCreate
?gGuildDestroy@@3HA DD 01H				; gGuildDestroy
?gGuildCreateLevel@@3HA DD 064H				; gGuildCreateLevel
?gItemSerialCheck@@3HA DD 01H				; gItemSerialCheck
?g_XMasEvent_StarOfXMasDropRate@@3HA DD 050H		; g_XMasEvent_StarOfXMasDropRate
?g_XMasEvent_ItemDropRateForStarOfXMas@@3HA DD 02H	; g_XMasEvent_ItemDropRateForStarOfXMas
?gFireCrackerDropRate@@3HA DD 050H			; gFireCrackerDropRate
?g_ItemDropRateForgFireCracker@@3HA DD 02H		; g_ItemDropRateForgFireCracker
?gHeartOfLoveDropRate@@3HA DD 050H			; gHeartOfLoveDropRate
?g_ItemDropRateForgHeartOfLove@@3HA DD 02H		; g_ItemDropRateForgHeartOfLove
?gGoldMedalDropRate@@3HA DD 02H				; gGoldMedalDropRate
?gSilverMedalDropRate@@3HA DD 02H			; gSilverMedalDropRate
?g_ItemDropRateForGoldMedal@@3HA DD 02H			; g_ItemDropRateForGoldMedal
?g_ItemDropRateForSilverMedal@@3HA DD 02H		; g_ItemDropRateForSilverMedal
?gBoxOfGoldDropRate@@3HA DD 02H				; gBoxOfGoldDropRate
?g_ItemDropRateForBoxOfGold@@3HA DD 02H			; g_ItemDropRateForBoxOfGold
?g_EventChipDropRateForBoxOfGold@@3HA DD 02H		; g_EventChipDropRateForBoxOfGold
?gEyesOfDevilSquareDropRate@@3HA DD 02H			; gEyesOfDevilSquareDropRate
?gKeyOfDevilSquareDropRate@@3HA DD 02H			; gKeyOfDevilSquareDropRate
?gDQChaosSuccessRateLevel1@@3HA DD 04bH			; gDQChaosSuccessRateLevel1
?gDQChaosSuccessRateLevel2@@3HA DD 046H			; gDQChaosSuccessRateLevel2
?gDQChaosSuccessRateLevel3@@3HA DD 041H			; gDQChaosSuccessRateLevel3
?gDQChaosSuccessRateLevel4@@3HA DD 03cH			; gDQChaosSuccessRateLevel4
?gDQChaosSuccessRateLevel5@@3HA DD 037H			; gDQChaosSuccessRateLevel5
?gDQChaosSuccessRateLevel6@@3HA DD 032H			; gDQChaosSuccessRateLevel6
?g_bBloodCastle@@3HA DD 01H				; g_bBloodCastle
?g_iBloodCastle_StartHour@@3HA DD 01H			; g_iBloodCastle_StartHour
?g_iStoneDropRate@@3HA DD 03cH				; g_iStoneDropRate
?g_iAngelKingsPaperDropRate@@3HA DD 0aH			; g_iAngelKingsPaperDropRate
?g_iBloodBoneDropRate@@3HA DD 014H			; g_iBloodBoneDropRate
?g_bChaosCastle@@3HA DD 01H				; g_bChaosCastle
?gAttackSpeedTimeLimit@@3KA DD 082H			; gAttackSpeedTimeLimit
?gHackCheckCount@@3KA DD 05H				; gHackCheckCount
?gDecTimePerAttackSpeed@@3MA DD 040aa8f5cr	; 5.33	; gDecTimePerAttackSpeed
?gMinimumAttackSpeedTime@@3HA DD 08H			; gMinimumAttackSpeedTime
?gDetectedHackKickCount@@3HA DD 0aH			; gDetectedHackKickCount
?gTamaJJangKeepTime@@3HA DD 064H			; gTamaJJangKeepTime
?gTamaJJangDisappearTime@@3HA DD 0708H			; gTamaJJangDisappearTime
?gTamaJJangDisappearTimeRandomRange@@3HA DD 03e8H	; gTamaJJangDisappearTimeRandomRange
?gItemDropRingOfTransform@@3HA DD 01H			; gItemDropRingOfTransform
?gQuestNPCTeleportTime@@3HA DD 03cH			; gQuestNPCTeleportTime
?gEledoradoGoldGoblenRegenTime@@3KA DD 03cH		; gEledoradoGoldGoblenRegenTime
?gEledoradoTitanRegenTime@@3KA DD 03cH			; gEledoradoTitanRegenTime
?gEledoradoGoldDerconRegenTime@@3KA DD 03cH		; gEledoradoGoldDerconRegenTime
?gEledoradoDevilLizardKingRegenTime@@3KA DD 03cH	; gEledoradoDevilLizardKingRegenTime
?gEledoradoDevilTantarosRegenTime@@3KA DD 03cH		; gEledoradoDevilTantarosRegenTime
?gZenDurationTime@@3HA DD 01eH				; gZenDurationTime
?gMonsterHPAdjust@@3HA DD 064H				; gMonsterHPAdjust
?gEnableCheckPenetrationSkill@@3HA DD 01H		; gEnableCheckPenetrationSkill
_DATA	ENDS
PUBLIC	?gJoomin15Check@@YAHPAD@Z			; gJoomin15Check
EXTRN	_atoi:PROC
; Function compile flags: /Ogtp
; File c:\users\faelhs\mu-1.1\emu - gameserver sapphire s0\gameserver\gamemain.cpp
;	COMDAT ?gJoomin15Check@@YAHPAD@Z
_TEXT	SEGMENT
_szTyear$ = -4						; size = 3
_szJN$ = 8						; size = 4
?gJoomin15Check@@YAHPAD@Z PROC				; gJoomin15Check, COMDAT

; 363  : {

  00000	55		 push	 ebp
  00001	8b ec		 mov	 ebp, esp
  00003	51		 push	 ecx

; 364  : 	int tyear=1900;
; 365  : 	char szTyear[3]="";
; 366  : 	
; 367  : 	if ( szJN[6] == 51 || szJN[6] == 52)

  00004	8b 4d 08	 mov	 ecx, DWORD PTR _szJN$[ebp]
  00007	33 c0		 xor	 eax, eax
  00009	66 89 45 fd	 mov	 WORD PTR _szTyear$[ebp+1], ax
  0000d	8a 41 06	 mov	 al, BYTE PTR [ecx+6]
  00010	56		 push	 esi
  00011	be 6c 07 00 00	 mov	 esi, 1900		; 0000076cH
  00016	3c 33		 cmp	 al, 51			; 00000033H
  00018	74 04		 je	 SHORT $LN2@gJoomin15C
  0001a	3c 34		 cmp	 al, 52			; 00000034H
  0001c	75 05		 jne	 SHORT $LN3@gJoomin15C
$LN2@gJoomin15C:

; 368  : 	{
; 369  : 		tyear = 2000;

  0001e	be d0 07 00 00	 mov	 esi, 2000		; 000007d0H
$LN3@gJoomin15C:

; 370  : 	}
; 371  : 
; 372  : 	memcpy(&szTyear[0], szJN, sizeof(szTyear)-1);

  00023	66 8b 09	 mov	 cx, WORD PTR [ecx]

; 373  : 
; 374  : 	tyear=tyear+atoi(&szTyear[0]);

  00026	8d 55 fc	 lea	 edx, DWORD PTR _szTyear$[ebp]
  00029	52		 push	 edx
  0002a	66 89 4d fc	 mov	 WORD PTR _szTyear$[ebp], cx
  0002e	e8 00 00 00 00	 call	 _atoi
  00033	03 f0		 add	 esi, eax

; 375  : 	if ( (gYear-15 ) < tyear )

  00035	a1 00 00 00 00	 mov	 eax, DWORD PTR ?gYear@@3HA ; gYear
  0003a	83 c0 f1	 add	 eax, -15		; fffffff1H
  0003d	33 c9		 xor	 ecx, ecx
  0003f	83 c4 04	 add	 esp, 4
  00042	3b c6		 cmp	 eax, esi
  00044	0f 9d c1	 setge	 cl
  00047	5e		 pop	 esi
  00048	8b c1		 mov	 eax, ecx

; 376  : 	{
; 377  : 		return 0;
; 378  : 	}
; 379  : 	return 1;
; 380  : }

  0004a	8b e5		 mov	 esp, ebp
  0004c	5d		 pop	 ebp
  0004d	c3		 ret	 0
?gJoomin15Check@@YAHPAD@Z ENDP				; gJoomin15Check
_TEXT	ENDS
PUBLIC	?gJoominCheck@@YAHPADH@Z			; gJoominCheck
; Function compile flags: /Ogtp
;	COMDAT ?gJoominCheck@@YAHPADH@Z
_TEXT	SEGMENT
_szJN$ = 8						; size = 4
_szTyear$ = 12						; size = 3
_iLimitAge$ = 12					; size = 4
?gJoominCheck@@YAHPADH@Z PROC				; gJoominCheck, COMDAT

; 383  : {

  00000	55		 push	 ebp
  00001	8b ec		 mov	 ebp, esp
  00003	57		 push	 edi

; 384  : 	if ( iLimitAge <0 )

  00004	8b 7d 0c	 mov	 edi, DWORD PTR _iLimitAge$[ebp]
  00007	85 ff		 test	 edi, edi
  00009	79 08		 jns	 SHORT $LN4@gJoominChe

; 385  : 	{
; 386  : 		return 1;

  0000b	b8 01 00 00 00	 mov	 eax, 1
  00010	5f		 pop	 edi

; 401  : 	{
; 402  : 		return 0;
; 403  : 	}
; 404  : 	
; 405  : 	return 1;
; 406  : }	

  00011	5d		 pop	 ebp
  00012	c3		 ret	 0
$LN4@gJoominChe:

; 387  : 	}
; 388  : 
; 389  : 	int tyear=1900;
; 390  : 	char szTyear[3]="";
; 391  : 
; 392  : 	if ( szJN[6] == 51 || szJN[6] == 52)

  00013	8b 4d 08	 mov	 ecx, DWORD PTR _szJN$[ebp]
  00016	33 c0		 xor	 eax, eax
  00018	66 89 45 0d	 mov	 WORD PTR _szTyear$[ebp+1], ax
  0001c	8a 41 06	 mov	 al, BYTE PTR [ecx+6]
  0001f	56		 push	 esi
  00020	be 6c 07 00 00	 mov	 esi, 1900		; 0000076cH
  00025	3c 33		 cmp	 al, 51			; 00000033H
  00027	74 04		 je	 SHORT $LN2@gJoominChe
  00029	3c 34		 cmp	 al, 52			; 00000034H
  0002b	75 05		 jne	 SHORT $LN3@gJoominChe
$LN2@gJoominChe:

; 393  : 	{
; 394  : 		tyear = 2000;

  0002d	be d0 07 00 00	 mov	 esi, 2000		; 000007d0H
$LN3@gJoominChe:

; 395  : 	}
; 396  : 
; 397  : 	memcpy(&szTyear[0], szJN, sizeof(szTyear)-1);

  00032	66 8b 09	 mov	 cx, WORD PTR [ecx]

; 398  : 
; 399  : 	tyear=tyear+atoi(&szTyear[0]);

  00035	8d 55 0c	 lea	 edx, DWORD PTR _szTyear$[ebp]
  00038	52		 push	 edx
  00039	66 89 4d 0c	 mov	 WORD PTR _szTyear$[ebp], cx
  0003d	e8 00 00 00 00	 call	 _atoi
  00042	03 f0		 add	 esi, eax

; 400  : 	if ( (gYear-iLimitAge ) < tyear )

  00044	a1 00 00 00 00	 mov	 eax, DWORD PTR ?gYear@@3HA ; gYear
  00049	2b c7		 sub	 eax, edi
  0004b	83 c4 04	 add	 esp, 4
  0004e	33 c9		 xor	 ecx, ecx
  00050	3b c6		 cmp	 eax, esi
  00052	0f 9d c1	 setge	 cl
  00055	5e		 pop	 esi
  00056	5f		 pop	 edi
  00057	8b c1		 mov	 eax, ecx

; 401  : 	{
; 402  : 		return 0;
; 403  : 	}
; 404  : 	
; 405  : 	return 1;
; 406  : }	

  00059	5d		 pop	 ebp
  0005a	c3		 ret	 0
?gJoominCheck@@YAHPADH@Z ENDP				; gJoominCheck
_TEXT	ENDS
PUBLIC	__real@3fd999999999999a
PUBLIC	__real@3fb999999999999a
PUBLIC	?GetWarehouseUsedHowMuch@@YAHHH@Z		; GetWarehouseUsedHowMuch
EXTRN	__fltused:DWORD
EXTRN	__ftol2_sse:PROC
;	COMDAT __real@3fd999999999999a
CONST	SEGMENT
__real@3fd999999999999a DQ 03fd999999999999ar	; 0.4
CONST	ENDS
;	COMDAT __real@3fb999999999999a
CONST	SEGMENT
__real@3fb999999999999a DQ 03fb999999999999ar	; 0.1
; Function compile flags: /Ogtp
CONST	ENDS
;	COMDAT ?GetWarehouseUsedHowMuch@@YAHHH@Z
_TEXT	SEGMENT
tv138 = 8						; size = 4
_UserLevel$ = 8						; size = 4
_IsLock$ = 12						; size = 4
?GetWarehouseUsedHowMuch@@YAHHH@Z PROC			; GetWarehouseUsedHowMuch, COMDAT

; 619  : {

  00000	55		 push	 ebp
  00001	8b ec		 mov	 ebp, esp
  00003	56		 push	 esi

; 620  : 	int rZen=0;
; 621  : 	rZen = (UserLevel * UserLevel)* 0.1 * 0.4;

  00004	8b 75 08	 mov	 esi, DWORD PTR _UserLevel$[ebp]
  00007	8b c6		 mov	 eax, esi
  00009	0f af c6	 imul	 eax, esi
  0000c	89 45 08	 mov	 DWORD PTR tv138[ebp], eax
  0000f	db 45 08	 fild	 DWORD PTR tv138[ebp]
  00012	dc 0d 00 00 00
	00		 fmul	 QWORD PTR __real@3fb999999999999a
  00018	dc 0d 00 00 00
	00		 fmul	 QWORD PTR __real@3fd999999999999a
  0001e	e8 00 00 00 00	 call	 __ftol2_sse

; 622  : 
; 623  : 	if (bCanWarehouseLock == TRUE)

  00023	83 3d 00 00 00
	00 01		 cmp	 DWORD PTR ?bCanWarehouseLock@@3HA, 1 ; bCanWarehouseLock
  0002a	8b c8		 mov	 ecx, eax
  0002c	75 09		 jne	 SHORT $LN6@GetWarehou

; 624  : 	{
; 625  : 		if ( IsLock != 0)

  0002e	83 7d 0c 00	 cmp	 DWORD PTR _IsLock$[ebp], 0
  00032	74 03		 je	 SHORT $LN6@GetWarehou

; 626  : 		{
; 627  : 			rZen = rZen + ( UserLevel * 2 );

  00034	8d 0c 71	 lea	 ecx, DWORD PTR [ecx+esi*2]
$LN6@GetWarehou:
  00037	5e		 pop	 esi

; 628  : 		}
; 629  : 	}
; 630  : 	if ( rZen < 1 )

  00038	83 f9 01	 cmp	 ecx, 1
  0003b	7d 07		 jge	 SHORT $LN5@GetWarehou

; 631  : 	{
; 632  : 		rZen=1;

  0003d	b8 01 00 00 00	 mov	 eax, 1

; 651  : }

  00042	5d		 pop	 ebp
  00043	c3		 ret	 0
$LN5@GetWarehou:

; 633  : 	}
; 634  : 
; 635  : 	if ( rZen >= 1000 )

  00044	81 f9 e8 03 00
	00		 cmp	 ecx, 1000		; 000003e8H
  0004a	7c 16		 jl	 SHORT $LN4@GetWarehou

; 636  : 	{
; 637  : 		rZen = (rZen/100)*100;

  0004c	b8 1f 85 eb 51	 mov	 eax, 1374389535		; 51eb851fH
  00051	f7 e9		 imul	 ecx
  00053	c1 fa 05	 sar	 edx, 5
  00056	8b ca		 mov	 ecx, edx
  00058	c1 e9 1f	 shr	 ecx, 31			; 0000001fH
  0005b	03 ca		 add	 ecx, edx
  0005d	6b c9 64	 imul	 ecx, 100		; 00000064H
  00060	eb 1b		 jmp	 SHORT $LN2@GetWarehou
$LN4@GetWarehou:

; 638  : 	}
; 639  : 	
; 640  : 	else if ( rZen >= 100 )

  00062	83 f9 64	 cmp	 ecx, 100		; 00000064H
  00065	7c 16		 jl	 SHORT $LN2@GetWarehou

; 641  : 	{
; 642  : 		rZen = (rZen/10)*10;

  00067	b8 67 66 66 66	 mov	 eax, 1717986919		; 66666667H
  0006c	f7 e9		 imul	 ecx
  0006e	c1 fa 02	 sar	 edx, 2
  00071	8b c2		 mov	 eax, edx
  00073	c1 e8 1f	 shr	 eax, 31			; 0000001fH
  00076	03 c2		 add	 eax, edx
  00078	8d 0c 80	 lea	 ecx, DWORD PTR [eax+eax*4]
  0007b	03 c9		 add	 ecx, ecx
$LN2@GetWarehou:

; 643  : 	}
; 644  : 	
; 645  : 	if ( rZen == 0 )
; 646  : 	{
; 647  : 		rZen=1;

  0007d	b8 01 00 00 00	 mov	 eax, 1
  00082	85 c9		 test	 ecx, ecx
  00084	74 02		 je	 SHORT $LN1@GetWarehou

; 648  : 	}
; 649  : 	
; 650  : 	return rZen;

  00086	8b c1		 mov	 eax, ecx
$LN1@GetWarehou:

; 651  : }

  00088	5d		 pop	 ebp
  00089	c3		 ret	 0
?GetWarehouseUsedHowMuch@@YAHHH@Z ENDP			; GetWarehouseUsedHowMuch
_TEXT	ENDS
PUBLIC	__real@4024000000000000
PUBLIC	_hWnd$GSCopy$
PUBLIC	__$ArrayPad$
PUBLIC	?GraphPaint@@YAXPAUHWND__@@@Z			; GraphPaint
EXTRN	__imp__DeleteObject@4:PROC
EXTRN	__imp__ReleaseDC@8:PROC
EXTRN	__imp__FillRect@12:PROC
EXTRN	__imp__CreateSolidBrush@4:PROC
EXTRN	__imp__GetDC@4:PROC
EXTRN	___security_cookie:DWORD
EXTRN	@__security_check_cookie@4:PROC
;	COMDAT __real@4024000000000000
CONST	SEGMENT
__real@4024000000000000 DQ 04024000000000000r	; 10
; Function compile flags: /Ogtp
CONST	ENDS
;	COMDAT ?GraphPaint@@YAXPAUHWND__@@@Z
_TEXT	SEGMENT
tv573 = -100						; size = 4
_hWnd$GSCopy$ = -96					; size = 4
tv469 = -92						; size = 4
_colBrush$ = -88					; size = 16
_hdc$ = -72						; size = 4
tv346 = -68						; size = 4
tv474 = -64						; size = 4
_rect$ = -60						; size = 16
_val$ = -44						; size = 40
__$ArrayPad$ = -4					; size = 4
_hWnd$ = 8						; size = 4
?GraphPaint@@YAXPAUHWND__@@@Z PROC			; GraphPaint, COMDAT

; 654  : {

  00000	55		 push	 ebp
  00001	8b ec		 mov	 ebp, esp
  00003	83 ec 64	 sub	 esp, 100		; 00000064H
  00006	a1 00 00 00 00	 mov	 eax, DWORD PTR ___security_cookie
  0000b	33 c5		 xor	 eax, ebp
  0000d	89 45 fc	 mov	 DWORD PTR __$ArrayPad$[ebp], eax
  00010	8b 45 08	 mov	 eax, DWORD PTR _hWnd$[ebp]
  00013	53		 push	 ebx
  00014	56		 push	 esi
  00015	57		 push	 edi

; 655  : 	HDC hdc;
; 656  : 	RECT rect;
; 657  : 	int val[10];
; 658  : 	HBRUSH colBrush[4];
; 659  : 	int n;
; 660  : 
; 661  : 	hdc = GetDC(hWnd);

  00016	50		 push	 eax
  00017	89 45 a0	 mov	 DWORD PTR _hWnd$GSCopy$[ebp], eax
  0001a	ff 15 00 00 00
	00		 call	 DWORD PTR __imp__GetDC@4

; 662  : 
; 663  : 	colBrush[0]=CreateSolidBrush( RGB(100, 100, 100));

  00020	8b 35 00 00 00
	00		 mov	 esi, DWORD PTR __imp__CreateSolidBrush@4
  00026	68 64 64 64 00	 push	 6579300			; 00646464H
  0002b	89 45 b8	 mov	 DWORD PTR _hdc$[ebp], eax
  0002e	ff d6		 call	 esi

; 664  : 	colBrush[1]=CreateSolidBrush( RGB(200, 100, 100));

  00030	68 c8 64 64 00	 push	 6579400			; 006464c8H
  00035	89 45 a8	 mov	 DWORD PTR _colBrush$[ebp], eax
  00038	ff d6		 call	 esi

; 665  : 	colBrush[2]=CreateSolidBrush( RGB(200, 200, 200));

  0003a	68 c8 c8 c8 00	 push	 13158600		; 00c8c8c8H
  0003f	89 45 ac	 mov	 DWORD PTR _colBrush$[ebp+4], eax
  00042	ff d6		 call	 esi

; 666  : 	colBrush[3]=CreateSolidBrush( RGB(200, 200, 100));

  00044	68 c8 c8 64 00	 push	 6605000			; 0064c8c8H
  00049	89 45 b0	 mov	 DWORD PTR _colBrush$[ebp+8], eax
  0004c	ff d6		 call	 esi
  0004e	89 45 b4	 mov	 DWORD PTR _colBrush$[ebp+12], eax

; 667  : 
; 668  : 	for (int n=0; n<4;n++)

  00051	8d 45 a8	 lea	 eax, DWORD PTR _colBrush$[ebp]

; 669  : 	{
; 670  : 		val[0] = DCInfo.DefClass[n].Strength;

  00054	33 db		 xor	 ebx, ebx
  00056	89 45 c0	 mov	 DWORD PTR tv474[ebp], eax
  00059	be 0a 00 00 00	 mov	 esi, OFFSET ?DCInfo@@3Vclassdef@@A+10
  0005e	8b ff		 npad	 2
$LL13@GraphPaint:
  00060	0f b7 4e fe	 movzx	 ecx, WORD PTR [esi-2]
  00064	dd 05 00 00 00
	00		 fld	 QWORD PTR __real@4024000000000000

; 671  : 		val[1] = DCInfo.DefClass[n].Dexterity ;

  0006a	0f b7 16	 movzx	 edx, WORD PTR [esi]

; 672  : 		val[2] = DCInfo.DefClass[n].Vitality;
; 673  : 		val[3] = DCInfo.DefClass[n].Energy;
; 674  : 		val[4] = DCInfo.DefClass[n].Life ;

  0006d	d9 46 0a	 fld	 DWORD PTR [esi+10]
  00070	0f b7 46 02	 movzx	 eax, WORD PTR [esi+2]
  00074	89 4d d4	 mov	 DWORD PTR _val$[ebp], ecx
  00077	0f b7 4e 04	 movzx	 ecx, WORD PTR [esi+4]
  0007b	89 55 d8	 mov	 DWORD PTR _val$[ebp+4], edx
  0007e	89 45 dc	 mov	 DWORD PTR _val$[ebp+8], eax
  00081	89 4d e0	 mov	 DWORD PTR _val$[ebp+12], ecx
  00084	e8 00 00 00 00	 call	 __ftol2_sse
  00089	89 45 e4	 mov	 DWORD PTR _val$[ebp+16], eax

; 675  : 		val[5] = DCInfo.DefClass[n].Mana ;

  0008c	d9 46 16	 fld	 DWORD PTR [esi+22]
  0008f	e8 00 00 00 00	 call	 __ftol2_sse

; 676  : 		val[6] = DCInfo.DefClass[n].LevelLife * 10.0f;

  00094	d9 46 06	 fld	 DWORD PTR [esi+6]
  00097	89 45 e8	 mov	 DWORD PTR _val$[ebp+20], eax
  0009a	d8 c9		 fmul	 ST(0), ST(1)
  0009c	e8 00 00 00 00	 call	 __ftol2_sse

; 677  : 		val[7] = DCInfo.DefClass[n].LevelMana * 10.0f;

  000a1	d9 46 12	 fld	 DWORD PTR [esi+18]
  000a4	d8 c9		 fmul	 ST(0), ST(1)
  000a6	89 45 ec	 mov	 DWORD PTR _val$[ebp+24], eax
  000a9	e8 00 00 00 00	 call	 __ftol2_sse

; 678  : 		val[8] = DCInfo.DefClass[n].VitalityToLife * 10.0f;

  000ae	d9 46 1e	 fld	 DWORD PTR [esi+30]
  000b1	d8 c9		 fmul	 ST(0), ST(1)
  000b3	89 45 f0	 mov	 DWORD PTR _val$[ebp+28], eax
  000b6	e8 00 00 00 00	 call	 __ftol2_sse

; 679  : 		val[9] = DCInfo.DefClass[n].EnergyToMana * 10.0f;

  000bb	d8 4e 22	 fmul	 DWORD PTR [esi+34]
  000be	89 45 f4	 mov	 DWORD PTR _val$[ebp+32], eax
  000c1	e8 00 00 00 00	 call	 __ftol2_sse

; 680  : 
; 681  : 		for (int k=0; k<10;k++)

  000c6	8b 55 c0	 mov	 edx, DWORD PTR tv474[ebp]
  000c9	89 45 f8	 mov	 DWORD PTR _val$[ebp+36], eax
  000cc	8b 02		 mov	 eax, DWORD PTR [edx]
  000ce	89 45 9c	 mov	 DWORD PTR tv573[ebp], eax
  000d1	8d 43 0a	 lea	 eax, DWORD PTR [ebx+10]
  000d4	33 ff		 xor	 edi, edi
  000d6	89 45 a4	 mov	 DWORD PTR tv469[ebp], eax
  000d9	89 45 bc	 mov	 DWORD PTR tv346[ebp], eax
  000dc	8d 64 24 00	 npad	 4
$LL14@GraphPaint:

; 682  : 		{
; 683  : 			rect.left = (k * 45) + (n * 10);
; 684  : 			rect.right = ((k * 45) + (n * 10))+10;

  000e0	8b 4d bc	 mov	 ecx, DWORD PTR tv346[ebp]

; 685  : 			rect.top = 0;
; 686  : 			rect.bottom = val[k];
; 687  : 			FillRect(hdc, &rect, colBrush[n]);

  000e3	8b 45 9c	 mov	 eax, DWORD PTR tv573[ebp]
  000e6	8b 54 bd d4	 mov	 edx, DWORD PTR _val$[ebp+edi*4]
  000ea	89 4d cc	 mov	 DWORD PTR _rect$[ebp+8], ecx
  000ed	50		 push	 eax
  000ee	8d 4d c4	 lea	 ecx, DWORD PTR _rect$[ebp]
  000f1	89 55 d0	 mov	 DWORD PTR _rect$[ebp+12], edx
  000f4	8b 55 b8	 mov	 edx, DWORD PTR _hdc$[ebp]
  000f7	51		 push	 ecx
  000f8	52		 push	 edx
  000f9	89 5d c4	 mov	 DWORD PTR _rect$[ebp], ebx
  000fc	c7 45 c8 00 00
	00 00		 mov	 DWORD PTR _rect$[ebp+4], 0
  00103	ff 15 00 00 00
	00		 call	 DWORD PTR __imp__FillRect@12
  00109	83 45 bc 2d	 add	 DWORD PTR tv346[ebp], 45 ; 0000002dH
  0010d	47		 inc	 edi
  0010e	83 c3 2d	 add	 ebx, 45			; 0000002dH
  00111	83 ff 0a	 cmp	 edi, 10			; 0000000aH
  00114	7c ca		 jl	 SHORT $LL14@GraphPaint

; 667  : 
; 668  : 	for (int n=0; n<4;n++)

  00116	83 45 c0 04	 add	 DWORD PTR tv474[ebp], 4
  0011a	8b 5d a4	 mov	 ebx, DWORD PTR tv469[ebp]
  0011d	81 c6 60 09 00
	00		 add	 esi, 2400		; 00000960H
  00123	81 fe 8a 25 00
	00		 cmp	 esi, OFFSET ?DCInfo@@3Vclassdef@@A+9610
  00129	0f 8c 31 ff ff
	ff		 jl	 $LL13@GraphPaint

; 688  : 		}
; 689  : 	}
; 690  : 	
; 691  : 	ReleaseDC(hWnd, hdc);

  0012f	8b 45 b8	 mov	 eax, DWORD PTR _hdc$[ebp]
  00132	8b 4d a0	 mov	 ecx, DWORD PTR _hWnd$GSCopy$[ebp]
  00135	50		 push	 eax
  00136	51		 push	 ecx
  00137	ff 15 00 00 00
	00		 call	 DWORD PTR __imp__ReleaseDC@8

; 692  : 	DeleteObject( (HGDIOBJ)colBrush[0]);

  0013d	8b 55 a8	 mov	 edx, DWORD PTR _colBrush$[ebp]
  00140	8b 35 00 00 00
	00		 mov	 esi, DWORD PTR __imp__DeleteObject@4
  00146	52		 push	 edx
  00147	ff d6		 call	 esi

; 693  : 	DeleteObject( (HGDIOBJ)colBrush[1]);

  00149	8b 45 ac	 mov	 eax, DWORD PTR _colBrush$[ebp+4]
  0014c	50		 push	 eax
  0014d	ff d6		 call	 esi

; 694  : 	DeleteObject( (HGDIOBJ)colBrush[2]);

  0014f	8b 4d b0	 mov	 ecx, DWORD PTR _colBrush$[ebp+8]
  00152	51		 push	 ecx
  00153	ff d6		 call	 esi

; 695  : 	DeleteObject( (HGDIOBJ)colBrush[3]);

  00155	8b 55 b4	 mov	 edx, DWORD PTR _colBrush$[ebp+12]
  00158	52		 push	 edx
  00159	ff d6		 call	 esi

; 696  : 	DeleteObject( (HGDIOBJ)val[0]);

  0015b	8b 45 d4	 mov	 eax, DWORD PTR _val$[ebp]
  0015e	50		 push	 eax
  0015f	ff d6		 call	 esi

; 697  : }

  00161	8b 4d fc	 mov	 ecx, DWORD PTR __$ArrayPad$[ebp]
  00164	5f		 pop	 edi
  00165	5e		 pop	 esi
  00166	33 cd		 xor	 ecx, ebp
  00168	5b		 pop	 ebx
  00169	e8 00 00 00 00	 call	 @__security_check_cookie@4
  0016e	8b e5		 mov	 esp, ebp
  00170	5d		 pop	 ebp
  00171	c3		 ret	 0
?GraphPaint@@YAXPAUHWND__@@@Z ENDP			; GraphPaint
_TEXT	ENDS
PUBLIC	?GameMonsterAllAdd@@YAXXZ			; GameMonsterAllAdd
EXTRN	?Init@CChaosCastle@@QAEX_N@Z:PROC		; CChaosCastle::Init
EXTRN	?g_ChaosCastle@@3VCChaosCastle@@A:BYTE		; g_ChaosCastle
EXTRN	?Init@CBloodCastle@@QAEX_N@Z:PROC		; CBloodCastle::Init
EXTRN	?LoadItemDropRate@CBloodCastle@@QAEXXZ:PROC	; CBloodCastle::LoadItemDropRate
EXTRN	?g_BloodCastle@@3VCBloodCastle@@A:BYTE		; g_BloodCastle
EXTRN	?Init@CDevilSquare@@QAEXXZ:PROC			; CDevilSquare::Init
EXTRN	?g_DevilSquare@@3VCDevilSquare@@A:BYTE		; g_DevilSquare
EXTRN	?gObj@@3PAUOBJECTSTRUCT@@A:BYTE			; gObj
EXTRN	?gObjSetMonster@@YAHHH@Z:PROC			; gObjSetMonster
EXTRN	?gObjSetPosMonster@@YAHHH@Z:PROC		; gObjSetPosMonster
EXTRN	?gObjAddMonster@@YAFH@Z:PROC			; gObjAddMonster
EXTRN	?gCurPaintPlayer@@3HA:DWORD			; gCurPaintPlayer
; Function compile flags: /Ogtp
;	COMDAT ?GameMonsterAllAdd@@YAXXZ
_TEXT	SEGMENT
?GameMonsterAllAdd@@YAXXZ PROC				; GameMonsterAllAdd, COMDAT

; 700  : {

  00000	53		 push	 ebx

; 701  : 	gCurPaintPlayer = 0;

  00001	33 db		 xor	 ebx, ebx
  00003	89 1d 00 00 00
	00		 mov	 DWORD PTR ?gCurPaintPlayer@@3HA, ebx ; gCurPaintPlayer

; 702  : 
; 703  : 	int result;
; 704  : 
; 705  : 	for ( int n=0;n< gMSetBase.m_Count ;n++)

  00009	39 1d e4 0f 01
	00		 cmp	 DWORD PTR ?gMSetBase@@3VCMonsterSetBase@@A+69604, ebx
  0000f	0f 8e c5 00 00
	00		 jle	 $LN12@GameMonste

; 701  : 	gCurPaintPlayer = 0;

  00015	56		 push	 esi
  00016	57		 push	 edi
  00017	bf 08 00 00 00	 mov	 edi, OFFSET ?gMSetBase@@3VCMonsterSetBase@@A+8
  0001c	8d 64 24 00	 npad	 4
$LL31@GameMonste:

; 706  : 	{
; 707  : 		if ( DS_MAP_RANGE(gMSetBase.m_Mp[n].m_MapNumber) != FALSE )

  00020	8a 07		 mov	 al, BYTE PTR [edi]
  00022	3c 09		 cmp	 al, 9
  00024	0f 84 9e 00 00
	00		 je	 $LN13@GameMonste
  0002a	33 c9		 xor	 ecx, ecx
  0002c	3c 20		 cmp	 al, 32			; 00000020H
  0002e	0f 94 c1	 sete	 cl
  00031	85 c9		 test	 ecx, ecx
  00033	0f 85 8f 00 00
	00		 jne	 $LN13@GameMonste

; 708  : 		{
; 709  : 			continue;
; 710  : 		}
; 711  : 
; 712  : 		if ( BC_MAP_RANGE(gMSetBase.m_Mp[n].m_MapNumber) != FALSE )

  00039	3c 0b		 cmp	 al, 11			; 0000000bH
  0003b	72 17		 jb	 SHORT $LN9@GameMonste
  0003d	b9 11 00 00 00	 mov	 ecx, 17			; 00000011H
  00042	3a c8		 cmp	 cl, al
  00044	1b c9		 sbb	 ecx, ecx
  00046	41		 inc	 ecx
  00047	74 0b		 je	 SHORT $LN9@GameMonste

; 713  : 		{
; 714  : 			if ( gMSetBase.m_Mp[n].m_Type != 232 )

  00049	ba e8 00 00 00	 mov	 edx, 232		; 000000e8H
  0004e	66 39 57 fe	 cmp	 WORD PTR [edi-2], dx
  00052	75 74		 jne	 SHORT $LN13@GameMonste
$LN9@GameMonste:

; 715  : 			{
; 716  : 				continue;
; 717  : 			}
; 718  : 		}
; 719  : 
; 720  : 		if ( CC_MAP_RANGE(gMSetBase.m_Mp[n].m_MapNumber) != FALSE )

  00054	3c 12		 cmp	 al, 18			; 00000012H
  00056	72 0c		 jb	 SHORT $LN27@GameMonste
  00058	b9 17 00 00 00	 mov	 ecx, 23			; 00000017H
  0005d	3a c8		 cmp	 cl, al
  0005f	1b c9		 sbb	 ecx, ecx
  00061	41		 inc	 ecx
  00062	75 64		 jne	 SHORT $LN13@GameMonste
$LN27@GameMonste:

; 721  : 		{
; 722  : 			continue;
; 723  : 		}
; 724  : 			
; 725  : 		result = gObjAddMonster(gMSetBase.m_Mp[n].m_MapNumber);

  00064	0f b6 d0	 movzx	 edx, al
  00067	52		 push	 edx
  00068	e8 00 00 00 00	 call	 ?gObjAddMonster@@YAFH@Z	; gObjAddMonster
  0006d	0f bf f0	 movsx	 esi, ax
  00070	83 c4 04	 add	 esp, 4

; 726  : 
; 727  : 		if ( result >= 0 )

  00073	85 f6		 test	 esi, esi
  00075	78 51		 js	 SHORT $LN13@GameMonste

; 728  : 		{
; 729  : 			gObjSetPosMonster(result, n);

  00077	53		 push	 ebx
  00078	56		 push	 esi
  00079	e8 00 00 00 00	 call	 ?gObjSetPosMonster@@YAHHH@Z ; gObjSetPosMonster

; 730  : 			gObjSetMonster(result, gMSetBase.m_Mp[n].m_Type);

  0007e	0f b7 47 fe	 movzx	 eax, WORD PTR [edi-2]
  00082	50		 push	 eax
  00083	56		 push	 esi
  00084	e8 00 00 00 00	 call	 ?gObjSetMonster@@YAHHH@Z ; gObjSetMonster

; 731  : 			gCurPaintPlayer++;

  00089	ff 05 00 00 00
	00		 inc	 DWORD PTR ?gCurPaintPlayer@@3HA ; gCurPaintPlayer

; 732  : 
; 733  : 			if ( BC_MAP_RANGE(gObj[result].MapNumber) )

  0008f	8b c6		 mov	 eax, esi
  00091	69 c0 64 15 00
	00		 imul	 eax, 5476		; 00001564H
  00097	8a 88 09 01 00
	00		 mov	 cl, BYTE PTR ?gObj@@3PAUOBJECTSTRUCT@@A[eax+265]
  0009d	83 c4 10	 add	 esp, 16			; 00000010H
  000a0	80 f9 0b	 cmp	 cl, 11			; 0000000bH
  000a3	72 23		 jb	 SHORT $LN13@GameMonste
  000a5	ba 11 00 00 00	 mov	 edx, 17			; 00000011H
  000aa	3a d1		 cmp	 dl, cl
  000ac	1b d2		 sbb	 edx, edx
  000ae	42		 inc	 edx
  000af	74 17		 je	 SHORT $LN13@GameMonste

; 734  : 			{
; 735  : 				if ( gObj[result].Class == 232 )

  000b1	ba e8 00 00 00	 mov	 edx, 232		; 000000e8H
  000b6	66 39 90 98 00
	00 00		 cmp	 WORD PTR ?gObj@@3PAUOBJECTSTRUCT@@A[eax+152], dx
  000bd	75 09		 jne	 SHORT $LN13@GameMonste

; 736  : 				{
; 737  : 					gObj[result].m_cBloodCastleIndex = gObj[result].MapNumber - MAP_INDEX_BLOODCASTLE1;

  000bf	80 e9 0b	 sub	 cl, 11			; 0000000bH
  000c2	88 88 02 0d 00
	00		 mov	 BYTE PTR ?gObj@@3PAUOBJECTSTRUCT@@A[eax+3330], cl
$LN13@GameMonste:

; 702  : 
; 703  : 	int result;
; 704  : 
; 705  : 	for ( int n=0;n< gMSetBase.m_Count ;n++)

  000c8	43		 inc	 ebx
  000c9	83 c7 0c	 add	 edi, 12			; 0000000cH
  000cc	3b 1d e4 0f 01
	00		 cmp	 ebx, DWORD PTR ?gMSetBase@@3VCMonsterSetBase@@A+69604
  000d2	0f 8c 48 ff ff
	ff		 jl	 $LL31@GameMonste
  000d8	5f		 pop	 edi
  000d9	5e		 pop	 esi
$LN12@GameMonste:

; 738  : 				}
; 739  : 			}
; 740  : #if GS_CASTLE == 1
; 741  : 			if ( gObj[result].Class == 216 )
; 742  : 				g_CastleSiege.SetCrownIndex(result);
; 743  : #endif
; 744  : 		}
; 745  : 	}
; 746  : 
; 747  : #if GS_CASTLE == 1
; 748  : 	gDevilSquareEvent = FALSE;
; 749  : 	g_bChaosCastle = FALSE;
; 750  : #endif
; 751  : 
; 752  : 	g_DevilSquare.Init();

  000da	b9 00 00 00 00	 mov	 ecx, OFFSET ?g_DevilSquare@@3VCDevilSquare@@A ; g_DevilSquare
  000df	e8 00 00 00 00	 call	 ?Init@CDevilSquare@@QAEXXZ ; CDevilSquare::Init

; 753  : 	g_BloodCastle.LoadItemDropRate();

  000e4	b9 00 00 00 00	 mov	 ecx, OFFSET ?g_BloodCastle@@3VCBloodCastle@@A ; g_BloodCastle
  000e9	e8 00 00 00 00	 call	 ?LoadItemDropRate@CBloodCastle@@QAEXXZ ; CBloodCastle::LoadItemDropRate

; 754  : 
; 755  : #if GS_CASTLE == 1
; 756  : 	g_bBloodCastle = FALSE;
; 757  : #endif
; 758  : 
; 759  : 	if ( g_bBloodCastle != FALSE )

  000ee	83 3d 00 00 00
	00 00		 cmp	 DWORD PTR ?g_bBloodCastle@@3HA, 0 ; g_bBloodCastle
  000f5	5b		 pop	 ebx

; 760  : 	{
; 761  : 		g_BloodCastle.Init(TRUE);

  000f6	b9 00 00 00 00	 mov	 ecx, OFFSET ?g_BloodCastle@@3VCBloodCastle@@A ; g_BloodCastle
  000fb	74 04		 je	 SHORT $LN4@GameMonste
  000fd	6a 01		 push	 1

; 762  : 	}
; 763  : 	else

  000ff	eb 02		 jmp	 SHORT $LN32@GameMonste
$LN4@GameMonste:

; 764  : 	{
; 765  : 		g_BloodCastle.Init(FALSE);

  00101	6a 00		 push	 0
$LN32@GameMonste:
  00103	e8 00 00 00 00	 call	 ?Init@CBloodCastle@@QAEX_N@Z ; CBloodCastle::Init

; 766  : 	}
; 767  : 
; 768  : 	if ( g_bChaosCastle != FALSE )

  00108	83 3d 00 00 00
	00 00		 cmp	 DWORD PTR ?g_bChaosCastle@@3HA, 0 ; g_bChaosCastle

; 769  : 	{
; 770  : 		g_ChaosCastle.Init(true);

  0010f	b9 00 00 00 00	 mov	 ecx, OFFSET ?g_ChaosCastle@@3VCChaosCastle@@A ; g_ChaosCastle
  00114	74 08		 je	 SHORT $LN2@GameMonste
  00116	6a 01		 push	 1

; 771  : 	}
; 772  : 	else
; 773  : 	{
; 774  : 		g_ChaosCastle.Init(false);

  00118	e8 00 00 00 00	 call	 ?Init@CChaosCastle@@QAEX_N@Z ; CChaosCastle::Init

; 775  : 	}
; 776  : }

  0011d	c3		 ret	 0
$LN2@GameMonste:

; 771  : 	}
; 772  : 	else
; 773  : 	{
; 774  : 		g_ChaosCastle.Init(false);

  0011e	6a 00		 push	 0
  00120	e8 00 00 00 00	 call	 ?Init@CChaosCastle@@QAEX_N@Z ; CChaosCastle::Init

; 775  : 	}
; 776  : }

  00125	c3		 ret	 0
?GameMonsterAllAdd@@YAXXZ ENDP				; GameMonsterAllAdd
_TEXT	ENDS
PUBLIC	??_C@_0BL@BAHOMBDJ@?4?4?2data?2MonsterSetBase?4txt?$AA@ ; `string'
PUBLIC	??_C@_0BE@HIFBFEG@?4?4?2data?2Monster?4txt?$AA@	; `string'
PUBLIC	?GameMonsterAllCloseAndReLoad@@YAXXZ		; GameMonsterAllCloseAndReLoad
EXTRN	?gObjMonCount@@3HA:DWORD			; gObjMonCount
EXTRN	?Init@CMonsterItemMng@@QAEXXZ:PROC		; CMonsterItemMng::Init
EXTRN	?g_MonsterItemMng@@3VCMonsterItemMng@@A:BYTE	; g_MonsterItemMng
EXTRN	?LoadSetBase@CMonsterSetBase@@QAEXPAD@Z:PROC	; CMonsterSetBase::LoadSetBase
EXTRN	?LoadAttr@CMonsterAttr@@QAEXPAD@Z:PROC		; CMonsterAttr::LoadAttr
EXTRN	?gObjDel@@YAFH@Z:PROC				; gObjDel
;	COMDAT ??_C@_0BL@BAHOMBDJ@?4?4?2data?2MonsterSetBase?4txt?$AA@
CONST	SEGMENT
??_C@_0BL@BAHOMBDJ@?4?4?2data?2MonsterSetBase?4txt?$AA@ DB '..\data\Monst'
	DB	'erSetBase.txt', 00H				; `string'
CONST	ENDS
;	COMDAT ??_C@_0BE@HIFBFEG@?4?4?2data?2Monster?4txt?$AA@
CONST	SEGMENT
??_C@_0BE@HIFBFEG@?4?4?2data?2Monster?4txt?$AA@ DB '..\data\Monster.txt', 00H ; `string'
; Function compile flags: /Ogtp
CONST	ENDS
;	COMDAT ?GameMonsterAllCloseAndReLoad@@YAXXZ
_TEXT	SEGMENT
?GameMonsterAllCloseAndReLoad@@YAXXZ PROC		; GameMonsterAllCloseAndReLoad, COMDAT

; 779  : {

  00000	56		 push	 esi
  00001	57		 push	 edi

; 780  : 	for ( int n=0;n<OBJ_MAXMONSTER;n++)

  00002	33 ff		 xor	 edi, edi
  00004	be 60 00 00 00	 mov	 esi, OFFSET ?gObj@@3PAUOBJECTSTRUCT@@A+96
  00009	8d a4 24 00 00
	00 00		 npad	 7
$LL5@GameMonste@2:

; 781  : 	{
; 782  : 		if ( gObj[n].Type == OBJ_MONSTER || gObj[n].Type == OBJ_NPC )

  00010	0f b7 06	 movzx	 eax, WORD PTR [esi]
  00013	83 f8 02	 cmp	 eax, 2
  00016	74 05		 je	 SHORT $LN1@GameMonste@2
  00018	83 f8 03	 cmp	 eax, 3
  0001b	75 09		 jne	 SHORT $LN4@GameMonste@2
$LN1@GameMonste@2:

; 783  : 		{
; 784  : #if GS_CASTLE == 1
; 785  : 			if ( gObj[n].m_btCsNpcType )
; 786  : 				continue;
; 787  : #endif
; 788  : 			gObjDel(n);

  0001d	57		 push	 edi
  0001e	e8 00 00 00 00	 call	 ?gObjDel@@YAFH@Z	; gObjDel
  00023	83 c4 04	 add	 esp, 4
$LN4@GameMonste@2:

; 780  : 	for ( int n=0;n<OBJ_MAXMONSTER;n++)

  00026	81 c6 64 15 00
	00		 add	 esi, 5476		; 00001564H
  0002c	47		 inc	 edi
  0002d	81 fe 00 a2 e4
	01		 cmp	 esi, OFFSET ?gObj@@3PAUOBJECTSTRUCT@@A+31760896
  00033	7c db		 jl	 SHORT $LL5@GameMonste@2

; 789  : 		}
; 790  : 	}
; 791  : 
; 792  : 	gMAttr.LoadAttr("..\\data\\Monster.txt");

  00035	68 00 00 00 00	 push	 OFFSET ??_C@_0BE@HIFBFEG@?4?4?2data?2Monster?4txt?$AA@
  0003a	b9 00 00 00 00	 mov	 ecx, OFFSET ?gMAttr@@3VCMonsterAttr@@A ; gMAttr
  0003f	e8 00 00 00 00	 call	 ?LoadAttr@CMonsterAttr@@QAEXPAD@Z ; CMonsterAttr::LoadAttr

; 793  : 
; 794  : 	#if(GS_CASTLE == 0)
; 795  : 	gMSetBase.LoadSetBase("..\\data\\MonsterSetBase.txt");

  00044	68 00 00 00 00	 push	 OFFSET ??_C@_0BL@BAHOMBDJ@?4?4?2data?2MonsterSetBase?4txt?$AA@
  00049	b9 00 00 00 00	 mov	 ecx, OFFSET ?gMSetBase@@3VCMonsterSetBase@@A ; gMSetBase
  0004e	e8 00 00 00 00	 call	 ?LoadSetBase@CMonsterSetBase@@QAEXPAD@Z ; CMonsterSetBase::LoadSetBase

; 796  : 	#else
; 797  : 	gMSetBase.LoadSetBase("..\\data\\MonsterSetBase_CS.txt");
; 798  : 	#endif
; 799  : 
; 800  : 	g_MonsterItemMng.Init();

  00053	b9 00 00 00 00	 mov	 ecx, OFFSET ?g_MonsterItemMng@@3VCMonsterItemMng@@A ; g_MonsterItemMng
  00058	e8 00 00 00 00	 call	 ?Init@CMonsterItemMng@@QAEXXZ ; CMonsterItemMng::Init
  0005d	5f		 pop	 edi

; 801  : 	gObjMonCount = 0;

  0005e	c7 05 00 00 00
	00 00 00 00 00	 mov	 DWORD PTR ?gObjMonCount@@3HA, 0 ; gObjMonCount
  00068	5e		 pop	 esi

; 802  : 	GameMonsterAllAdd();

  00069	e9 00 00 00 00	 jmp	 ?GameMonsterAllAdd@@YAXXZ ; GameMonsterAllAdd
?GameMonsterAllCloseAndReLoad@@YAXXZ ENDP		; GameMonsterAllCloseAndReLoad
_TEXT	ENDS
PUBLIC	?GameMainFree@@YAXXZ				; GameMainFree
EXTRN	?ClearBattleSoccer@@YAXXZ:PROC			; ClearBattleSoccer
EXTRN	?gObjEnd@@YAXXZ:PROC				; gObjEnd
EXTRN	?GDGameServerInfoSave@@YAXXZ:PROC		; GDGameServerInfoSave
EXTRN	?End@CDbSave@@QAEXXZ:PROC			; CDbSave::End
; Function compile flags: /Ogtp
;	COMDAT ?GameMainFree@@YAXXZ
_TEXT	SEGMENT
?GameMainFree@@YAXXZ PROC				; GameMainFree, COMDAT

; 807  : 	gDbSave.End();

  00000	b9 00 00 00 00	 mov	 ecx, OFFSET ?gDbSave@@3VCDbSave@@A ; gDbSave
  00005	e8 00 00 00 00	 call	 ?End@CDbSave@@QAEXXZ	; CDbSave::End

; 808  : 	GDGameServerInfoSave();

  0000a	e8 00 00 00 00	 call	 ?GDGameServerInfoSave@@YAXXZ ; GDGameServerInfoSave

; 809  : 	gObjEnd();

  0000f	e8 00 00 00 00	 call	 ?gObjEnd@@YAXXZ		; gObjEnd

; 810  : 	ClearBattleSoccer();

  00014	e9 00 00 00 00	 jmp	 ?ClearBattleSoccer@@YAXXZ ; ClearBattleSoccer
?GameMainFree@@YAXXZ ENDP				; GameMainFree
_TEXT	ENDS
PUBLIC	?GMJoinServerConnect@@YAHPADK@Z			; GMJoinServerConnect
EXTRN	?LogAdd@@YAXW4eLogColor@@PADZZ:PROC		; LogAdd
EXTRN	?Get@CMsg@@QAEPADH@Z:PROC			; CMsg::Get
EXTRN	?lMsg@@3VCMsg@@A:BYTE				; lMsg
EXTRN	?GJServerLogin@@YAXXZ:PROC			; GJServerLogin
EXTRN	?Connect@wsJoinServerCli@@QAEHPADGK@Z:PROC	; wsJoinServerCli::Connect
EXTRN	?SetProtocolCore@wsJoinServerCli@@QAEHP6AXEPAEH@Z@Z:PROC ; wsJoinServerCli::SetProtocolCore
EXTRN	?SProtocolCore@@YAXEPAEH@Z:PROC			; SProtocolCore
; Function compile flags: /Ogtp
;	COMDAT ?GMJoinServerConnect@@YAHPADK@Z
_TEXT	SEGMENT
_ConnectServer$ = 8					; size = 4
_wMsg$ = 12						; size = 4
?GMJoinServerConnect@@YAHPADK@Z PROC			; GMJoinServerConnect, COMDAT

; 814  : {

  00000	55		 push	 ebp
  00001	8b ec		 mov	 ebp, esp
  00003	56		 push	 esi

; 815  : 	wsJServerCli.SetProtocolCore(SProtocolCore);

  00004	68 00 00 00 00	 push	 OFFSET ?SProtocolCore@@YAXEPAEH@Z ; SProtocolCore
  00009	b9 00 00 00 00	 mov	 ecx, OFFSET ?wsJServerCli@@3VwsJoinServerCli@@A ; wsJServerCli
  0000e	e8 00 00 00 00	 call	 ?SetProtocolCore@wsJoinServerCli@@QAEHP6AXEPAEH@Z@Z ; wsJoinServerCli::SetProtocolCore

; 816  : 	int result = wsJServerCli.Connect(ConnectServer, JoinServerPort, wMsg);

  00013	0f b7 0d 00 00
	00 00		 movzx	 ecx, WORD PTR ?JoinServerPort@@3GA ; JoinServerPort
  0001a	8b 45 0c	 mov	 eax, DWORD PTR _wMsg$[ebp]
  0001d	8b 75 08	 mov	 esi, DWORD PTR _ConnectServer$[ebp]
  00020	50		 push	 eax
  00021	51		 push	 ecx
  00022	56		 push	 esi
  00023	b9 00 00 00 00	 mov	 ecx, OFFSET ?wsJServerCli@@3VwsJoinServerCli@@A ; wsJServerCli
  00028	e8 00 00 00 00	 call	 ?Connect@wsJoinServerCli@@QAEHPADGK@Z ; wsJoinServerCli::Connect

; 817  : 
; 818  : 	if ( result == 0 )

  0002d	85 c0		 test	 eax, eax
  0002f	75 03		 jne	 SHORT $LN1@GMJoinServ
  00031	5e		 pop	 esi

; 827  : 
; 828  : }

  00032	5d		 pop	 ebp
  00033	c3		 ret	 0
$LN1@GMJoinServ:

; 819  : 	{
; 820  : 		return FALSE;
; 821  : 	}
; 822  : 
; 823  : 	GJServerLogin();

  00034	e8 00 00 00 00	 call	 ?GJServerLogin@@YAXXZ	; GJServerLogin

; 824  : 
; 825  : 	LogAdd(LOG_BLACK, lMsg.Get( MSGGET(1, 145)), ConnectServer);

  00039	56		 push	 esi
  0003a	68 91 01 00 00	 push	 401			; 00000191H
  0003f	b9 00 00 00 00	 mov	 ecx, OFFSET ?lMsg@@3VCMsg@@A ; lMsg
  00044	e8 00 00 00 00	 call	 ?Get@CMsg@@QAEPADH@Z	; CMsg::Get
  00049	50		 push	 eax
  0004a	6a 00		 push	 0
  0004c	e8 00 00 00 00	 call	 ?LogAdd@@YAXW4eLogColor@@PADZZ ; LogAdd
  00051	83 c4 0c	 add	 esp, 12			; 0000000cH

; 826  : 	return TRUE;

  00054	b8 01 00 00 00	 mov	 eax, 1
  00059	5e		 pop	 esi

; 827  : 
; 828  : }

  0005a	5d		 pop	 ebp
  0005b	c3		 ret	 0
?GMJoinServerConnect@@YAHPADK@Z ENDP			; GMJoinServerConnect
_TEXT	ENDS
PUBLIC	??_C@_0CA@GPEDJDDH@RankingServer?5Connect?5IP?5?$FL?5?$CFs?5?$FN?$AA@ ; `string'
PUBLIC	?GMRankingServerConnect@@YAHPADK@Z		; GMRankingServerConnect
EXTRN	?DevilSquareEventProtocolCore@@YAXEPAEH@Z:PROC	; DevilSquareEventProtocolCore
;	COMDAT ??_C@_0CA@GPEDJDDH@RankingServer?5Connect?5IP?5?$FL?5?$CFs?5?$FN?$AA@
CONST	SEGMENT
??_C@_0CA@GPEDJDDH@RankingServer?5Connect?5IP?5?$FL?5?$CFs?5?$FN?$AA@ DB 'R'
	DB	'ankingServer Connect IP [ %s ]', 00H	; `string'
; Function compile flags: /Ogtp
CONST	ENDS
;	COMDAT ?GMRankingServerConnect@@YAHPADK@Z
_TEXT	SEGMENT
_RankingServer$ = 8					; size = 4
_wMsg$ = 12						; size = 4
?GMRankingServerConnect@@YAHPADK@Z PROC			; GMRankingServerConnect, COMDAT

; 831  : {

  00000	55		 push	 ebp
  00001	8b ec		 mov	 ebp, esp
  00003	56		 push	 esi

; 832  : 	wsRServerCli.SetProtocolCore(DevilSquareEventProtocolCore);

  00004	68 00 00 00 00	 push	 OFFSET ?DevilSquareEventProtocolCore@@YAXEPAEH@Z ; DevilSquareEventProtocolCore
  00009	b9 00 00 00 00	 mov	 ecx, OFFSET ?wsRServerCli@@3VwsJoinServerCli@@A ; wsRServerCli
  0000e	e8 00 00 00 00	 call	 ?SetProtocolCore@wsJoinServerCli@@QAEHP6AXEPAEH@Z@Z ; wsJoinServerCli::SetProtocolCore

; 833  : 	int result = wsRServerCli.Connect(RankingServer, RANKING_SERVER_PORT, wMsg);

  00013	0f b7 0d 00 00
	00 00		 movzx	 ecx, WORD PTR ?RANKING_SERVER_PORT@@3GA ; RANKING_SERVER_PORT
  0001a	8b 45 0c	 mov	 eax, DWORD PTR _wMsg$[ebp]
  0001d	8b 75 08	 mov	 esi, DWORD PTR _RankingServer$[ebp]
  00020	50		 push	 eax
  00021	51		 push	 ecx
  00022	56		 push	 esi
  00023	b9 00 00 00 00	 mov	 ecx, OFFSET ?wsRServerCli@@3VwsJoinServerCli@@A ; wsRServerCli
  00028	e8 00 00 00 00	 call	 ?Connect@wsJoinServerCli@@QAEHPADGK@Z ; wsJoinServerCli::Connect

; 834  : 	if ( result == 0 )

  0002d	85 c0		 test	 eax, eax
  0002f	75 03		 jne	 SHORT $LN1@GMRankingS
  00031	5e		 pop	 esi

; 840  : }

  00032	5d		 pop	 ebp
  00033	c3		 ret	 0
$LN1@GMRankingS:

; 835  : 	{
; 836  : 		return FALSE;
; 837  : 	}
; 838  : 	LogAdd(LOG_BLACK, "RankingServer Connect IP [ %s ]", RankingServer);

  00034	56		 push	 esi
  00035	68 00 00 00 00	 push	 OFFSET ??_C@_0CA@GPEDJDDH@RankingServer?5Connect?5IP?5?$FL?5?$CFs?5?$FN?$AA@
  0003a	6a 00		 push	 0
  0003c	e8 00 00 00 00	 call	 ?LogAdd@@YAXW4eLogColor@@PADZZ ; LogAdd
  00041	83 c4 0c	 add	 esp, 12			; 0000000cH

; 839  : 	return TRUE;

  00044	b8 01 00 00 00	 mov	 eax, 1
  00049	5e		 pop	 esi

; 840  : }

  0004a	5d		 pop	 ebp
  0004b	c3		 ret	 0
?GMRankingServerConnect@@YAHPADK@Z ENDP			; GMRankingServerConnect
_TEXT	ENDS
PUBLIC	??_C@_0BM@JEEOGNJB@EventChip?5Connect?5IP?5?$FL?5?$CFs?5?$FN?$AA@ ; `string'
PUBLIC	?GMEventChipServerConnect@@YAHPADK@Z		; GMEventChipServerConnect
EXTRN	?EventChipEventProtocolCore@@YAXEPAEH@Z:PROC	; EventChipEventProtocolCore
;	COMDAT ??_C@_0BM@JEEOGNJB@EventChip?5Connect?5IP?5?$FL?5?$CFs?5?$FN?$AA@
CONST	SEGMENT
??_C@_0BM@JEEOGNJB@EventChip?5Connect?5IP?5?$FL?5?$CFs?5?$FN?$AA@ DB 'Eve'
	DB	'ntChip Connect IP [ %s ]', 00H		; `string'
; Function compile flags: /Ogtp
CONST	ENDS
;	COMDAT ?GMEventChipServerConnect@@YAHPADK@Z
_TEXT	SEGMENT
_ServerIP$ = 8						; size = 4
_wMsg$ = 12						; size = 4
?GMEventChipServerConnect@@YAHPADK@Z PROC		; GMEventChipServerConnect, COMDAT

; 843  : {

  00000	55		 push	 ebp
  00001	8b ec		 mov	 ebp, esp
  00003	56		 push	 esi

; 844  : 	wsEvenChipServerCli.SetProtocolCore(EventChipEventProtocolCore);

  00004	68 00 00 00 00	 push	 OFFSET ?EventChipEventProtocolCore@@YAXEPAEH@Z ; EventChipEventProtocolCore
  00009	b9 00 00 00 00	 mov	 ecx, OFFSET ?wsEvenChipServerCli@@3VwsJoinServerCli@@A ; wsEvenChipServerCli
  0000e	e8 00 00 00 00	 call	 ?SetProtocolCore@wsJoinServerCli@@QAEHP6AXEPAEH@Z@Z ; wsJoinServerCli::SetProtocolCore

; 845  : 	int result = wsEvenChipServerCli.Connect(ServerIP, EVENT_CHIP_SERVER_PORT, wMsg);

  00013	0f b7 0d 00 00
	00 00		 movzx	 ecx, WORD PTR ?EVENT_CHIP_SERVER_PORT@@3GA ; EVENT_CHIP_SERVER_PORT
  0001a	8b 45 0c	 mov	 eax, DWORD PTR _wMsg$[ebp]
  0001d	8b 75 08	 mov	 esi, DWORD PTR _ServerIP$[ebp]
  00020	50		 push	 eax
  00021	51		 push	 ecx
  00022	56		 push	 esi
  00023	b9 00 00 00 00	 mov	 ecx, OFFSET ?wsEvenChipServerCli@@3VwsJoinServerCli@@A ; wsEvenChipServerCli
  00028	e8 00 00 00 00	 call	 ?Connect@wsJoinServerCli@@QAEHPADGK@Z ; wsJoinServerCli::Connect

; 846  : 	if ( result == 0 )

  0002d	85 c0		 test	 eax, eax
  0002f	75 03		 jne	 SHORT $LN1@GMEventChi
  00031	5e		 pop	 esi

; 852  : }

  00032	5d		 pop	 ebp
  00033	c3		 ret	 0
$LN1@GMEventChi:

; 847  : 	{
; 848  : 		return FALSE;
; 849  : 	}
; 850  : 	LogAdd(LOG_BLACK, "EventChip Connect IP [ %s ]", ServerIP);

  00034	56		 push	 esi
  00035	68 00 00 00 00	 push	 OFFSET ??_C@_0BM@JEEOGNJB@EventChip?5Connect?5IP?5?$FL?5?$CFs?5?$FN?$AA@
  0003a	6a 00		 push	 0
  0003c	e8 00 00 00 00	 call	 ?LogAdd@@YAXW4eLogColor@@PADZZ ; LogAdd
  00041	83 c4 0c	 add	 esp, 12			; 0000000cH

; 851  : 	return TRUE;

  00044	b8 01 00 00 00	 mov	 eax, 1
  00049	5e		 pop	 esi

; 852  : }

  0004a	5d		 pop	 ebp
  0004b	c3		 ret	 0
?GMEventChipServerConnect@@YAHPADK@Z ENDP		; GMEventChipServerConnect
_TEXT	ENDS
PUBLIC	??_C@_0CI@MIKGGOED@DataServer?5connect?5IP?$FL?5?$CFs?5?$FN?5PORT@ ; `string'
PUBLIC	??_C@_0CO@NHKCACHD@DataServer?5connect?5fail?5?5IP?$FL?5?$CFs?5@ ; `string'
PUBLIC	?GMDataServerConnect@@YAHPADK@Z			; GMDataServerConnect
EXTRN	?DataServerLogin@@YAXXZ:PROC			; DataServerLogin
EXTRN	?DataServerProtocolCore@@YAXEPAEH@Z:PROC	; DataServerProtocolCore
;	COMDAT ??_C@_0CI@MIKGGOED@DataServer?5connect?5IP?$FL?5?$CFs?5?$FN?5PORT@
CONST	SEGMENT
??_C@_0CI@MIKGGOED@DataServer?5connect?5IP?$FL?5?$CFs?5?$FN?5PORT@ DB 'Da'
	DB	'taServer connect IP[ %s ] PORT [ %d ]', 00H	; `string'
CONST	ENDS
;	COMDAT ??_C@_0CO@NHKCACHD@DataServer?5connect?5fail?5?5IP?$FL?5?$CFs?5@
CONST	SEGMENT
??_C@_0CO@NHKCACHD@DataServer?5connect?5fail?5?5IP?$FL?5?$CFs?5@ DB 'Data'
	DB	'Server connect fail  IP[ %s ] PORT [ %d ]', 00H ; `string'
; Function compile flags: /Ogtp
CONST	ENDS
;	COMDAT ?GMDataServerConnect@@YAHPADK@Z
_TEXT	SEGMENT
_ConnectServer$ = 8					; size = 4
_wMsg$ = 12						; size = 4
?GMDataServerConnect@@YAHPADK@Z PROC			; GMDataServerConnect, COMDAT

; 855  : {

  00000	55		 push	 ebp
  00001	8b ec		 mov	 ebp, esp
  00003	56		 push	 esi

; 856  : 	wsDataCli.SetProtocolCore(DataServerProtocolCore);

  00004	68 00 00 00 00	 push	 OFFSET ?DataServerProtocolCore@@YAXEPAEH@Z ; DataServerProtocolCore
  00009	b9 00 00 00 00	 mov	 ecx, OFFSET ?wsDataCli@@3VwsJoinServerCli@@A ; wsDataCli
  0000e	e8 00 00 00 00	 call	 ?SetProtocolCore@wsJoinServerCli@@QAEHP6AXEPAEH@Z@Z ; wsJoinServerCli::SetProtocolCore

; 857  : 	int result = wsDataCli.Connect(ConnectServer, DataServerPort, wMsg);

  00013	0f b7 0d 00 00
	00 00		 movzx	 ecx, WORD PTR ?DataServerPort@@3GA ; DataServerPort
  0001a	8b 45 0c	 mov	 eax, DWORD PTR _wMsg$[ebp]
  0001d	8b 75 08	 mov	 esi, DWORD PTR _ConnectServer$[ebp]
  00020	50		 push	 eax
  00021	51		 push	 ecx
  00022	56		 push	 esi
  00023	b9 00 00 00 00	 mov	 ecx, OFFSET ?wsDataCli@@3VwsJoinServerCli@@A ; wsDataCli
  00028	e8 00 00 00 00	 call	 ?Connect@wsJoinServerCli@@QAEHPADGK@Z ; wsJoinServerCli::Connect

; 858  : 	if ( result == 0 )

  0002d	85 c0		 test	 eax, eax
  0002f	75 1c		 jne	 SHORT $LN1@GMDataServ

; 859  : 	{
; 860  : 		LogAdd(LOG_BLACK, "DataServer connect fail  IP[ %s ] PORT [ %d ]", ConnectServer, DataServerPort);

  00031	0f b7 15 00 00
	00 00		 movzx	 edx, WORD PTR ?DataServerPort@@3GA ; DataServerPort
  00038	52		 push	 edx
  00039	56		 push	 esi
  0003a	68 00 00 00 00	 push	 OFFSET ??_C@_0CO@NHKCACHD@DataServer?5connect?5fail?5?5IP?$FL?5?$CFs?5@
  0003f	50		 push	 eax
  00040	e8 00 00 00 00	 call	 ?LogAdd@@YAXW4eLogColor@@PADZZ ; LogAdd
  00045	83 c4 10	 add	 esp, 16			; 00000010H

; 861  : 		return FALSE;

  00048	33 c0		 xor	 eax, eax
  0004a	5e		 pop	 esi

; 866  : }

  0004b	5d		 pop	 ebp
  0004c	c3		 ret	 0
$LN1@GMDataServ:

; 862  : 	}
; 863  : 	DataServerLogin();

  0004d	e8 00 00 00 00	 call	 ?DataServerLogin@@YAXXZ	; DataServerLogin

; 864  : 	LogAdd(LOG_BLACK, "DataServer connect IP[ %s ] PORT [ %d ]", ConnectServer, DataServerPort);

  00052	0f b7 05 00 00
	00 00		 movzx	 eax, WORD PTR ?DataServerPort@@3GA ; DataServerPort
  00059	50		 push	 eax
  0005a	56		 push	 esi
  0005b	68 00 00 00 00	 push	 OFFSET ??_C@_0CI@MIKGGOED@DataServer?5connect?5IP?$FL?5?$CFs?5?$FN?5PORT@
  00060	6a 00		 push	 0
  00062	e8 00 00 00 00	 call	 ?LogAdd@@YAXW4eLogColor@@PADZZ ; LogAdd
  00067	83 c4 10	 add	 esp, 16			; 00000010H

; 865  : 	return TRUE;

  0006a	b8 01 00 00 00	 mov	 eax, 1
  0006f	5e		 pop	 esi

; 866  : }

  00070	5d		 pop	 ebp
  00071	c3		 ret	 0
?GMDataServerConnect@@YAHPADK@Z ENDP			; GMDataServerConnect
_TEXT	ENDS
PUBLIC	??_C@_0BD@MBDGLECM@ExDB?5Server?5Online?$AA@	; `string'
PUBLIC	?ExDataServerConnect@@YAHPADK@Z			; ExDataServerConnect
EXTRN	?ExDataServerLogin@@YAXXZ:PROC			; ExDataServerLogin
EXTRN	?ExDataServerProtocolCore@@YAXEPAEH@Z:PROC	; ExDataServerProtocolCore
;	COMDAT ??_C@_0BD@MBDGLECM@ExDB?5Server?5Online?$AA@
CONST	SEGMENT
??_C@_0BD@MBDGLECM@ExDB?5Server?5Online?$AA@ DB 'ExDB Server Online', 00H ; `string'
; Function compile flags: /Ogtp
CONST	ENDS
;	COMDAT ?ExDataServerConnect@@YAHPADK@Z
_TEXT	SEGMENT
_ConnectServer$ = 8					; size = 4
_wMsg$ = 12						; size = 4
?ExDataServerConnect@@YAHPADK@Z PROC			; ExDataServerConnect, COMDAT

; 869  : {

  00000	55		 push	 ebp
  00001	8b ec		 mov	 ebp, esp
  00003	56		 push	 esi

; 870  : 	wsExDbCli.SetProtocolCore(ExDataServerProtocolCore);

  00004	68 00 00 00 00	 push	 OFFSET ?ExDataServerProtocolCore@@YAXEPAEH@Z ; ExDataServerProtocolCore
  00009	b9 00 00 00 00	 mov	 ecx, OFFSET ?wsExDbCli@@3VwsJoinServerCli@@A ; wsExDbCli
  0000e	e8 00 00 00 00	 call	 ?SetProtocolCore@wsJoinServerCli@@QAEHP6AXEPAEH@Z@Z ; wsJoinServerCli::SetProtocolCore

; 871  : 	int result = wsExDbCli.Connect(ConnectServer, ExDbPort, wMsg);

  00013	0f b7 0d 00 00
	00 00		 movzx	 ecx, WORD PTR ?ExDbPort@@3GA ; ExDbPort
  0001a	8b 45 0c	 mov	 eax, DWORD PTR _wMsg$[ebp]
  0001d	8b 75 08	 mov	 esi, DWORD PTR _ConnectServer$[ebp]
  00020	50		 push	 eax
  00021	51		 push	 ecx
  00022	56		 push	 esi
  00023	b9 00 00 00 00	 mov	 ecx, OFFSET ?wsExDbCli@@3VwsJoinServerCli@@A ; wsExDbCli
  00028	e8 00 00 00 00	 call	 ?Connect@wsJoinServerCli@@QAEHPADGK@Z ; wsJoinServerCli::Connect

; 872  : 	if ( result == 0 )

  0002d	85 c0		 test	 eax, eax
  0002f	75 1c		 jne	 SHORT $LN1@ExDataServ

; 873  : 	{
; 874  : 		LogAdd(LOG_BLACK, "DataServer connect fail  IP[ %s ] PORT [ %d ]", ConnectServer, ExDbPort);

  00031	0f b7 15 00 00
	00 00		 movzx	 edx, WORD PTR ?ExDbPort@@3GA ; ExDbPort
  00038	52		 push	 edx
  00039	56		 push	 esi
  0003a	68 00 00 00 00	 push	 OFFSET ??_C@_0CO@NHKCACHD@DataServer?5connect?5fail?5?5IP?$FL?5?$CFs?5@
  0003f	50		 push	 eax
  00040	e8 00 00 00 00	 call	 ?LogAdd@@YAXW4eLogColor@@PADZZ ; LogAdd
  00045	83 c4 10	 add	 esp, 16			; 00000010H

; 875  : 		return FALSE;

  00048	33 c0		 xor	 eax, eax
  0004a	5e		 pop	 esi

; 880  : }

  0004b	5d		 pop	 ebp
  0004c	c3		 ret	 0
$LN1@ExDataServ:

; 876  : 	}
; 877  : 	ExDataServerLogin();

  0004d	e8 00 00 00 00	 call	 ?ExDataServerLogin@@YAXXZ ; ExDataServerLogin

; 878  : 	LogAdd(LOG_RED,  "ExDB Server Online");

  00052	68 00 00 00 00	 push	 OFFSET ??_C@_0BD@MBDGLECM@ExDB?5Server?5Online?$AA@
  00057	6a 01		 push	 1
  00059	e8 00 00 00 00	 call	 ?LogAdd@@YAXW4eLogColor@@PADZZ ; LogAdd
  0005e	83 c4 08	 add	 esp, 8

; 879  : 	return TRUE;

  00061	b8 01 00 00 00	 mov	 eax, 1
  00066	5e		 pop	 esi

; 880  : }

  00067	5d		 pop	 ebp
  00068	c3		 ret	 0
?ExDataServerConnect@@YAHPADK@Z ENDP			; ExDataServerConnect
_TEXT	ENDS
PUBLIC	?GameMainServerCreate@@YAHKK@Z			; GameMainServerCreate
EXTRN	?Begin@CDbSave@@QAEHXZ:PROC			; CDbSave::Begin
; Function compile flags: /Ogtp
;	COMDAT ?GameMainServerCreate@@YAHKK@Z
_TEXT	SEGMENT
_sMsg$ = 8						; size = 4
_cMsg$ = 12						; size = 4
?GameMainServerCreate@@YAHKK@Z PROC			; GameMainServerCreate, COMDAT

; 884  : 	gDbSave.Begin();

  00000	b9 00 00 00 00	 mov	 ecx, OFFSET ?gDbSave@@3VCDbSave@@A ; gDbSave
  00005	e8 00 00 00 00	 call	 ?Begin@CDbSave@@QAEHXZ	; CDbSave::Begin

; 885  : 	LogAdd(LOG_BLACK, lMsg.Get( MSGGET(1, 148)), GameServerPort);

  0000a	0f b7 05 00 00
	00 00		 movzx	 eax, WORD PTR ?GameServerPort@@3GA ; GameServerPort
  00011	50		 push	 eax
  00012	68 94 01 00 00	 push	 404			; 00000194H
  00017	b9 00 00 00 00	 mov	 ecx, OFFSET ?lMsg@@3VCMsg@@A ; lMsg
  0001c	e8 00 00 00 00	 call	 ?Get@CMsg@@QAEPADH@Z	; CMsg::Get
  00021	50		 push	 eax
  00022	6a 00		 push	 0
  00024	e8 00 00 00 00	 call	 ?LogAdd@@YAXW4eLogColor@@PADZZ ; LogAdd
  00029	83 c4 0c	 add	 esp, 12			; 0000000cH

; 886  : 	return TRUE;

  0002c	b8 01 00 00 00	 mov	 eax, 1

; 887  : }

  00031	c3		 ret	 0
?GameMainServerCreate@@YAHKK@Z ENDP			; GameMainServerCreate
_TEXT	ENDS
PUBLIC	?GMServerMsgProc@@YAXIJ@Z			; GMServerMsgProc
; Function compile flags: /Ogtp
;	COMDAT ?GMServerMsgProc@@YAXIJ@Z
_TEXT	SEGMENT
_wParam$ = 8						; size = 4
_lParam$ = 12						; size = 4
?GMServerMsgProc@@YAXIJ@Z PROC				; GMServerMsgProc, COMDAT

; 891  : 	{
; 892  : 		int unk =lParam & 0xFFFF & 0xFFFF;	// HERE is a switch here goes a macro
; 893  : 	}
; 894  : }

  00000	c3		 ret	 0
?GMServerMsgProc@@YAXIJ@Z ENDP				; GMServerMsgProc
_TEXT	ENDS
PUBLIC	?GMClientMsgProc@@YAXIJ@Z			; GMClientMsgProc
EXTRN	?DataRecv@CwsGameServer@@QAEHI@Z:PROC		; CwsGameServer::DataRecv
EXTRN	?FDWRITE_MsgDataSend@CwsGameServer@@QAEHI@Z:PROC ; CwsGameServer::FDWRITE_MsgDataSend
EXTRN	?gObjGetSocket@@YAHI@Z:PROC			; gObjGetSocket
; Function compile flags: /Ogtp
;	COMDAT ?GMClientMsgProc@@YAXIJ@Z
_TEXT	SEGMENT
_wParam$ = 8						; size = 4
_lParam$ = 12						; size = 4
?GMClientMsgProc@@YAXIJ@Z PROC				; GMClientMsgProc, COMDAT

; 897  : {

  00000	55		 push	 ebp
  00001	8b ec		 mov	 ebp, esp

; 898  : 	int wp = wParam;
; 899  : 	int lp = lParam;
; 900  : 
; 901  : 	switch ( lParam & 0xFFFF & 0xFFFF)

  00003	8b 45 0c	 mov	 eax, DWORD PTR _lParam$[ebp]
  00006	25 ff ff 00 00	 and	 eax, 65535		; 0000ffffH
  0000b	48		 dec	 eax
  0000c	74 26		 je	 SHORT $LN3@GMClientMs
  0000e	48		 dec	 eax
  0000f	74 13		 je	 SHORT $LN2@GMClientMs
  00011	83 e8 1e	 sub	 eax, 30			; 0000001eH
  00014	75 2c		 jne	 SHORT $LN4@GMClientMs

; 910  : 			break;
; 911  : 		case 32:
; 912  : 			socket = gObjGetSocket(wParam);

  00016	8b 45 08	 mov	 eax, DWORD PTR _wParam$[ebp]
  00019	50		 push	 eax
  0001a	e8 00 00 00 00	 call	 ?gObjGetSocket@@YAHI@Z	; gObjGetSocket
  0001f	83 c4 04	 add	 esp, 4

; 913  : 			break;
; 914  : 
; 915  : 	}
; 916  : }

  00022	5d		 pop	 ebp
  00023	c3		 ret	 0
$LN2@GMClientMs:

; 907  : 			break;
; 908  : 		case 2:
; 909  : 			wsGServer.FDWRITE_MsgDataSend(wParam);

  00024	8b 4d 08	 mov	 ecx, DWORD PTR _wParam$[ebp]
  00027	51		 push	 ecx
  00028	b9 00 00 00 00	 mov	 ecx, OFFSET ?wsGServer@@3VCwsGameServer@@A ; wsGServer
  0002d	e8 00 00 00 00	 call	 ?FDWRITE_MsgDataSend@CwsGameServer@@QAEHI@Z ; CwsGameServer::FDWRITE_MsgDataSend

; 913  : 			break;
; 914  : 
; 915  : 	}
; 916  : }

  00032	5d		 pop	 ebp
  00033	c3		 ret	 0
$LN3@GMClientMs:

; 902  : 	{
; 903  : 		SOCKET socket;
; 904  : 
; 905  : 		case 1:
; 906  : 			wsGServer.DataRecv(wParam);

  00034	8b 55 08	 mov	 edx, DWORD PTR _wParam$[ebp]
  00037	52		 push	 edx
  00038	b9 00 00 00 00	 mov	 ecx, OFFSET ?wsGServer@@3VCwsGameServer@@A ; wsGServer
  0003d	e8 00 00 00 00	 call	 ?DataRecv@CwsGameServer@@QAEHI@Z ; CwsGameServer::DataRecv
$LN4@GMClientMs:

; 913  : 			break;
; 914  : 
; 915  : 	}
; 916  : }

  00042	5d		 pop	 ebp
  00043	c3		 ret	 0
?GMClientMsgProc@@YAXIJ@Z ENDP				; GMClientMsgProc
_TEXT	ENDS
PUBLIC	??_C@_0DM@LHFKMAAA@Game?5server?5closed?5because?5Authe@ ; `string'
PUBLIC	?GMJoinClientMsgProc@@YAXIJ@Z			; GMJoinClientMsgProc
EXTRN	?DataRecv@wsJoinServerCli@@QAEHXZ:PROC		; wsJoinServerCli::DataRecv
EXTRN	?FDWRITE_MsgDataSend@wsJoinServerCli@@QAEHXZ:PROC ; wsJoinServerCli::FDWRITE_MsgDataSend
EXTRN	__imp__SendMessageA@16:PROC
EXTRN	?ghWnd@@3PAUHWND__@@A:DWORD			; ghWnd
;	COMDAT ??_C@_0DM@LHFKMAAA@Game?5server?5closed?5because?5Authe@
CONST	SEGMENT
??_C@_0DM@LHFKMAAA@Game?5server?5closed?5because?5Authe@ DB 'Game server '
	DB	'closed because Authentication server is closed.', 00H ; `string'
; Function compile flags: /Ogtp
CONST	ENDS
;	COMDAT ?GMJoinClientMsgProc@@YAXIJ@Z
_TEXT	SEGMENT
_wParam$ = 8						; size = 4
_lParam$ = 12						; size = 4
?GMJoinClientMsgProc@@YAXIJ@Z PROC			; GMJoinClientMsgProc, COMDAT

; 919  : {

  00000	55		 push	 ebp
  00001	8b ec		 mov	 ebp, esp

; 920  : 	switch ( lParam & 0xFFFF & 0xFFFF )

  00003	8b 45 0c	 mov	 eax, DWORD PTR _lParam$[ebp]
  00006	25 ff ff 00 00	 and	 eax, 65535		; 0000ffffH
  0000b	48		 dec	 eax
  0000c	74 36		 je	 SHORT $LN3@GMJoinClie
  0000e	48		 dec	 eax
  0000f	74 28		 je	 SHORT $LN2@GMJoinClie
  00011	83 e8 1e	 sub	 eax, 30			; 0000001eH
  00014	75 21		 jne	 SHORT $LN4@GMJoinClie

; 928  : 			break;
; 929  : 
; 930  : 		case 32:
; 931  : 			LogAdd(LOG_RED,  "Game server closed because Authentication server is closed.");

  00016	68 00 00 00 00	 push	 OFFSET ??_C@_0DM@LHFKMAAA@Game?5server?5closed?5because?5Authe@
  0001b	6a 01		 push	 1
  0001d	e8 00 00 00 00	 call	 ?LogAdd@@YAXW4eLogColor@@PADZZ ; LogAdd

; 932  : 			SendMessage(ghWnd, WM_CLOSE, 0, 0);

  00022	a1 00 00 00 00	 mov	 eax, DWORD PTR ?ghWnd@@3PAUHWND__@@A ; ghWnd
  00027	83 c4 08	 add	 esp, 8
  0002a	6a 00		 push	 0
  0002c	6a 00		 push	 0
  0002e	6a 10		 push	 16			; 00000010H
  00030	50		 push	 eax
  00031	ff 15 00 00 00
	00		 call	 DWORD PTR __imp__SendMessageA@16
$LN4@GMJoinClie:

; 933  : 	}
; 934  : }

  00037	5d		 pop	 ebp
  00038	c3		 ret	 0
$LN2@GMJoinClie:

; 924  : 			break;
; 925  : 
; 926  : 		case 2:
; 927  : 			wsJServerCli.FDWRITE_MsgDataSend();

  00039	b9 00 00 00 00	 mov	 ecx, OFFSET ?wsJServerCli@@3VwsJoinServerCli@@A ; wsJServerCli

; 933  : 	}
; 934  : }

  0003e	5d		 pop	 ebp

; 924  : 			break;
; 925  : 
; 926  : 		case 2:
; 927  : 			wsJServerCli.FDWRITE_MsgDataSend();

  0003f	e9 00 00 00 00	 jmp	 ?FDWRITE_MsgDataSend@wsJoinServerCli@@QAEHXZ ; wsJoinServerCli::FDWRITE_MsgDataSend
$LN3@GMJoinClie:

; 921  : 	{
; 922  : 		case 1:
; 923  : 			wsJServerCli.DataRecv();

  00044	b9 00 00 00 00	 mov	 ecx, OFFSET ?wsJServerCli@@3VwsJoinServerCli@@A ; wsJServerCli

; 933  : 	}
; 934  : }

  00049	5d		 pop	 ebp

; 921  : 	{
; 922  : 		case 1:
; 923  : 			wsJServerCli.DataRecv();

  0004a	e9 00 00 00 00	 jmp	 ?DataRecv@wsJoinServerCli@@QAEHXZ ; wsJoinServerCli::DataRecv
?GMJoinClientMsgProc@@YAXIJ@Z ENDP			; GMJoinClientMsgProc
_TEXT	ENDS
PUBLIC	?GMRankingClientMsgProc@@YAXIJ@Z		; GMRankingClientMsgProc
; Function compile flags: /Ogtp
;	COMDAT ?GMRankingClientMsgProc@@YAXIJ@Z
_TEXT	SEGMENT
_wParam$ = 8						; size = 4
_lParam$ = 12						; size = 4
?GMRankingClientMsgProc@@YAXIJ@Z PROC			; GMRankingClientMsgProc, COMDAT

; 937  : {

  00000	55		 push	 ebp
  00001	8b ec		 mov	 ebp, esp

; 938  : 	switch ( lParam & 0xFFFF & 0xFFFF )

  00003	8b 45 0c	 mov	 eax, DWORD PTR _lParam$[ebp]
  00006	25 ff ff 00 00	 and	 eax, 65535		; 0000ffffH
  0000b	48		 dec	 eax
  0000c	74 1a		 je	 SHORT $LN3@GMRankingC
  0000e	48		 dec	 eax
  0000f	74 0c		 je	 SHORT $LN2@GMRankingC
  00011	83 e8 1e	 sub	 eax, 30			; 0000001eH
  00014	75 05		 jne	 SHORT $LN4@GMRankingC

; 945  : 			break;
; 946  : 		case 32:
; 947  : 			IsDevilSquareEventConnected = FALSE;

  00016	a3 00 00 00 00	 mov	 DWORD PTR ?IsDevilSquareEventConnected@@3HA, eax ; IsDevilSquareEventConnected
$LN4@GMRankingC:

; 948  : 	}
; 949  : }

  0001b	5d		 pop	 ebp
  0001c	c3		 ret	 0
$LN2@GMRankingC:

; 942  : 			break;
; 943  : 		case 2:
; 944  : 			wsRServerCli.FDWRITE_MsgDataSend();

  0001d	b9 00 00 00 00	 mov	 ecx, OFFSET ?wsRServerCli@@3VwsJoinServerCli@@A ; wsRServerCli

; 948  : 	}
; 949  : }

  00022	5d		 pop	 ebp

; 942  : 			break;
; 943  : 		case 2:
; 944  : 			wsRServerCli.FDWRITE_MsgDataSend();

  00023	e9 00 00 00 00	 jmp	 ?FDWRITE_MsgDataSend@wsJoinServerCli@@QAEHXZ ; wsJoinServerCli::FDWRITE_MsgDataSend
$LN3@GMRankingC:

; 939  : 	{
; 940  : 		case 1:
; 941  : 			wsRServerCli.DataRecv();

  00028	b9 00 00 00 00	 mov	 ecx, OFFSET ?wsRServerCli@@3VwsJoinServerCli@@A ; wsRServerCli

; 948  : 	}
; 949  : }

  0002d	5d		 pop	 ebp

; 939  : 	{
; 940  : 		case 1:
; 941  : 			wsRServerCli.DataRecv();

  0002e	e9 00 00 00 00	 jmp	 ?DataRecv@wsJoinServerCli@@QAEHXZ ; wsJoinServerCli::DataRecv
?GMRankingClientMsgProc@@YAXIJ@Z ENDP			; GMRankingClientMsgProc
_TEXT	ENDS
PUBLIC	?GMEventChipClientMsgProc@@YAXIJ@Z		; GMEventChipClientMsgProc
; Function compile flags: /Ogtp
;	COMDAT ?GMEventChipClientMsgProc@@YAXIJ@Z
_TEXT	SEGMENT
_wParam$ = 8						; size = 4
_lParam$ = 12						; size = 4
?GMEventChipClientMsgProc@@YAXIJ@Z PROC			; GMEventChipClientMsgProc, COMDAT

; 952  : {

  00000	55		 push	 ebp
  00001	8b ec		 mov	 ebp, esp

; 953  : 	switch ( lParam & 0xFFFF & 0xFFFF )

  00003	8b 45 0c	 mov	 eax, DWORD PTR _lParam$[ebp]
  00006	25 ff ff 00 00	 and	 eax, 65535		; 0000ffffH
  0000b	48		 dec	 eax
  0000c	74 1a		 je	 SHORT $LN3@GMEventChi@2
  0000e	48		 dec	 eax
  0000f	74 0c		 je	 SHORT $LN2@GMEventChi@2
  00011	83 e8 1e	 sub	 eax, 30			; 0000001eH
  00014	75 05		 jne	 SHORT $LN4@GMEventChi@2

; 961  : 			break;
; 962  : 
; 963  : 		case 32:
; 964  : 			IsEventChipServerConnected = FALSE;

  00016	a3 00 00 00 00	 mov	 DWORD PTR ?IsEventChipServerConnected@@3HA, eax ; IsEventChipServerConnected
$LN4@GMEventChi@2:

; 965  : 	}
; 966  : }

  0001b	5d		 pop	 ebp
  0001c	c3		 ret	 0
$LN2@GMEventChi@2:

; 957  : 			break;
; 958  : 
; 959  : 		case 2:
; 960  : 			wsEvenChipServerCli.FDWRITE_MsgDataSend();

  0001d	b9 00 00 00 00	 mov	 ecx, OFFSET ?wsEvenChipServerCli@@3VwsJoinServerCli@@A ; wsEvenChipServerCli

; 965  : 	}
; 966  : }

  00022	5d		 pop	 ebp

; 957  : 			break;
; 958  : 
; 959  : 		case 2:
; 960  : 			wsEvenChipServerCli.FDWRITE_MsgDataSend();

  00023	e9 00 00 00 00	 jmp	 ?FDWRITE_MsgDataSend@wsJoinServerCli@@QAEHXZ ; wsJoinServerCli::FDWRITE_MsgDataSend
$LN3@GMEventChi@2:

; 954  : 	{
; 955  : 		case 1:
; 956  : 			wsEvenChipServerCli.DataRecv();

  00028	b9 00 00 00 00	 mov	 ecx, OFFSET ?wsEvenChipServerCli@@3VwsJoinServerCli@@A ; wsEvenChipServerCli

; 965  : 	}
; 966  : }

  0002d	5d		 pop	 ebp

; 954  : 	{
; 955  : 		case 1:
; 956  : 			wsEvenChipServerCli.DataRecv();

  0002e	e9 00 00 00 00	 jmp	 ?DataRecv@wsJoinServerCli@@QAEHXZ ; wsJoinServerCli::DataRecv
?GMEventChipClientMsgProc@@YAXIJ@Z ENDP			; GMEventChipClientMsgProc
_TEXT	ENDS
PUBLIC	??_C@_0DD@PNBJKJH@Gamer?5server?5closed?5because?5Data@ ; `string'
PUBLIC	?GMDataClientMsgProc@@YAXIJ@Z			; GMDataClientMsgProc
;	COMDAT ??_C@_0DD@PNBJKJH@Gamer?5server?5closed?5because?5Data@
CONST	SEGMENT
??_C@_0DD@PNBJKJH@Gamer?5server?5closed?5because?5Data@ DB 'Gamer server '
	DB	'closed because Data server is closed.', 00H	; `string'
; Function compile flags: /Ogtp
CONST	ENDS
;	COMDAT ?GMDataClientMsgProc@@YAXIJ@Z
_TEXT	SEGMENT
_wParam$ = 8						; size = 4
_lParam$ = 12						; size = 4
?GMDataClientMsgProc@@YAXIJ@Z PROC			; GMDataClientMsgProc, COMDAT

; 1003 : {

  00000	55		 push	 ebp
  00001	8b ec		 mov	 ebp, esp

; 1004 : 	switch ( lParam & 0xFFFF & 0xFFFF )

  00003	8b 45 0c	 mov	 eax, DWORD PTR _lParam$[ebp]
  00006	25 ff ff 00 00	 and	 eax, 65535		; 0000ffffH
  0000b	48		 dec	 eax
  0000c	74 24		 je	 SHORT $LN3@GMDataClie
  0000e	48		 dec	 eax
  0000f	74 16		 je	 SHORT $LN2@GMDataClie
  00011	83 e8 1e	 sub	 eax, 30			; 0000001eH
  00014	75 0f		 jne	 SHORT $LN4@GMDataClie

; 1011 : 			break;
; 1012 : 
; 1013 : 		case 32:
; 1014 : 			LogAdd(LOG_RED,  "Gamer server closed because Data server is closed.");

  00016	68 00 00 00 00	 push	 OFFSET ??_C@_0DD@PNBJKJH@Gamer?5server?5closed?5because?5Data@
  0001b	6a 01		 push	 1
  0001d	e8 00 00 00 00	 call	 ?LogAdd@@YAXW4eLogColor@@PADZZ ; LogAdd
  00022	83 c4 08	 add	 esp, 8
$LN4@GMDataClie:

; 1015 : 	}
; 1016 : }

  00025	5d		 pop	 ebp
  00026	c3		 ret	 0
$LN2@GMDataClie:

; 1008 : 			break;
; 1009 : 		case 2:
; 1010 : 			wsDataCli.FDWRITE_MsgDataSend();

  00027	b9 00 00 00 00	 mov	 ecx, OFFSET ?wsDataCli@@3VwsJoinServerCli@@A ; wsDataCli

; 1015 : 	}
; 1016 : }

  0002c	5d		 pop	 ebp

; 1008 : 			break;
; 1009 : 		case 2:
; 1010 : 			wsDataCli.FDWRITE_MsgDataSend();

  0002d	e9 00 00 00 00	 jmp	 ?FDWRITE_MsgDataSend@wsJoinServerCli@@QAEHXZ ; wsJoinServerCli::FDWRITE_MsgDataSend
$LN3@GMDataClie:

; 1005 : 	{
; 1006 : 		case 1:
; 1007 : 			wsDataCli.DataRecv();

  00032	b9 00 00 00 00	 mov	 ecx, OFFSET ?wsDataCli@@3VwsJoinServerCli@@A ; wsDataCli

; 1015 : 	}
; 1016 : }

  00037	5d		 pop	 ebp

; 1005 : 	{
; 1006 : 		case 1:
; 1007 : 			wsDataCli.DataRecv();

  00038	e9 00 00 00 00	 jmp	 ?DataRecv@wsJoinServerCli@@QAEHXZ ; wsJoinServerCli::DataRecv
?GMDataClientMsgProc@@YAXIJ@Z ENDP			; GMDataClientMsgProc
_TEXT	ENDS
PUBLIC	??_C@_0BC@GLFLPKEG@ConnectMemberLoad?$AA@	; `string'
PUBLIC	??_C@_0L@ECKGLPBM@ServerCode?$AA@		; `string'
PUBLIC	??_C@_0P@EMJDPFDH@GameServerInfo?$AA@		; `string'
PUBLIC	??_C@_0L@FFDIDHBB@ServerName?$AA@		; `string'
PUBLIC	??_C@_00CNPNBAHC@?$AA@				; `string'
PUBLIC	??_C@_0BO@CFKIHFKN@ServerInfo?4dat?5file?5not?5found?$AA@ ; `string'
PUBLIC	??_C@_0BE@NHEFLBAP@Data?2Serverinfo?4dat?$AA@	; `string'
PUBLIC	?ReadServerInfo@@YAXXZ				; ReadServerInfo
EXTRN	__imp__GetPrivateProfileIntA@16:PROC
EXTRN	__imp__GetPrivateProfileStringA@24:PROC
EXTRN	?MsgBox@@YAXPADZZ:PROC				; MsgBox
EXTRN	?IsFile@@YAHPAD@Z:PROC				; IsFile
;	COMDAT ??_C@_0BC@GLFLPKEG@ConnectMemberLoad?$AA@
CONST	SEGMENT
??_C@_0BC@GLFLPKEG@ConnectMemberLoad?$AA@ DB 'ConnectMemberLoad', 00H ; `string'
CONST	ENDS
;	COMDAT ??_C@_0L@ECKGLPBM@ServerCode?$AA@
CONST	SEGMENT
??_C@_0L@ECKGLPBM@ServerCode?$AA@ DB 'ServerCode', 00H	; `string'
CONST	ENDS
;	COMDAT ??_C@_0P@EMJDPFDH@GameServerInfo?$AA@
CONST	SEGMENT
??_C@_0P@EMJDPFDH@GameServerInfo?$AA@ DB 'GameServerInfo', 00H ; `string'
CONST	ENDS
;	COMDAT ??_C@_0L@FFDIDHBB@ServerName?$AA@
CONST	SEGMENT
??_C@_0L@FFDIDHBB@ServerName?$AA@ DB 'ServerName', 00H	; `string'
CONST	ENDS
;	COMDAT ??_C@_00CNPNBAHC@?$AA@
CONST	SEGMENT
??_C@_00CNPNBAHC@?$AA@ DB 00H				; `string'
CONST	ENDS
;	COMDAT ??_C@_0BO@CFKIHFKN@ServerInfo?4dat?5file?5not?5found?$AA@
CONST	SEGMENT
??_C@_0BO@CFKIHFKN@ServerInfo?4dat?5file?5not?5found?$AA@ DB 'ServerInfo.'
	DB	'dat file not found', 00H			; `string'
CONST	ENDS
;	COMDAT ??_C@_0BE@NHEFLBAP@Data?2Serverinfo?4dat?$AA@
CONST	SEGMENT
??_C@_0BE@NHEFLBAP@Data?2Serverinfo?4dat?$AA@ DB 'Data\Serverinfo.dat', 00H ; `string'
; Function compile flags: /Ogtp
CONST	ENDS
;	COMDAT ?ReadServerInfo@@YAXXZ
_TEXT	SEGMENT
?ReadServerInfo@@YAXXZ PROC				; ReadServerInfo, COMDAT

; 1020 : 	if (!IsFile(SERVER_INFO_PATH))

  00000	68 00 00 00 00	 push	 OFFSET ??_C@_0BE@NHEFLBAP@Data?2Serverinfo?4dat?$AA@
  00005	e8 00 00 00 00	 call	 ?IsFile@@YAHPAD@Z	; IsFile
  0000a	83 c4 04	 add	 esp, 4
  0000d	85 c0		 test	 eax, eax
  0000f	75 0d		 jne	 SHORT $LN1@ReadServer

; 1021 : 	{
; 1022 : 		MsgBox("ServerInfo.dat file not found");

  00011	68 00 00 00 00	 push	 OFFSET ??_C@_0BO@CFKIHFKN@ServerInfo?4dat?5file?5not?5found?$AA@
  00016	e8 00 00 00 00	 call	 ?MsgBox@@YAXPADZZ	; MsgBox
  0001b	83 c4 04	 add	 esp, 4
$LN1@ReadServer:

; 1023 : 	}
; 1024 : 	// ---
; 1025 : 	GetPrivateProfileString("GameServerInfo","ServerName","",szServerName,50,SERVER_INFO_PATH);

  0001e	56		 push	 esi
  0001f	68 00 00 00 00	 push	 OFFSET ??_C@_0BE@NHEFLBAP@Data?2Serverinfo?4dat?$AA@
  00024	6a 32		 push	 50			; 00000032H
  00026	68 00 00 00 00	 push	 OFFSET ?szServerName@@3PADA ; szServerName
  0002b	68 00 00 00 00	 push	 OFFSET ??_C@_00CNPNBAHC@?$AA@
  00030	68 00 00 00 00	 push	 OFFSET ??_C@_0L@FFDIDHBB@ServerName?$AA@
  00035	68 00 00 00 00	 push	 OFFSET ??_C@_0P@EMJDPFDH@GameServerInfo?$AA@
  0003a	ff 15 00 00 00
	00		 call	 DWORD PTR __imp__GetPrivateProfileStringA@24

; 1026 : 	gGameServerCode=GetPrivateProfileInt("GameServerInfo","ServerCode",0,SERVER_INFO_PATH);

  00040	8b 35 00 00 00
	00		 mov	 esi, DWORD PTR __imp__GetPrivateProfileIntA@16
  00046	68 00 00 00 00	 push	 OFFSET ??_C@_0BE@NHEFLBAP@Data?2Serverinfo?4dat?$AA@
  0004b	6a 00		 push	 0
  0004d	68 00 00 00 00	 push	 OFFSET ??_C@_0L@ECKGLPBM@ServerCode?$AA@
  00052	68 00 00 00 00	 push	 OFFSET ??_C@_0P@EMJDPFDH@GameServerInfo?$AA@
  00057	ff d6		 call	 esi

; 1027 : 	bCanConnectMember=GetPrivateProfileInt("GameServerInfo","ConnectMemberLoad",0,SERVER_INFO_PATH);

  00059	68 00 00 00 00	 push	 OFFSET ??_C@_0BE@NHEFLBAP@Data?2Serverinfo?4dat?$AA@
  0005e	6a 00		 push	 0
  00060	68 00 00 00 00	 push	 OFFSET ??_C@_0BC@GLFLPKEG@ConnectMemberLoad?$AA@
  00065	68 00 00 00 00	 push	 OFFSET ??_C@_0P@EMJDPFDH@GameServerInfo?$AA@
  0006a	66 a3 00 00 00
	00		 mov	 WORD PTR ?gGameServerCode@@3FA, ax ; gGameServerCode
  00070	ff d6		 call	 esi
  00072	a3 00 00 00 00	 mov	 DWORD PTR ?bCanConnectMember@@3HA, eax ; bCanConnectMember
  00077	5e		 pop	 esi

; 1028 : }

  00078	c3		 ret	 0
?ReadServerInfo@@YAXXZ ENDP				; ReadServerInfo
_TEXT	ENDS
EXTRN	__localtime64:PROC
; Function compile flags: /Ogtp
; File c:\program files (x86)\microsoft visual studio 10.0\vc\include\time.inl
;	COMDAT _localtime
_TEXT	SEGMENT
_localtime PROC						; COMDAT
; __Time$ = eax

; 114  : #pragma warning( push )
; 115  : #pragma warning( disable : 4996 )
; 116  :     return _localtime64(_Time);

  00000	50		 push	 eax
  00001	e8 00 00 00 00	 call	 __localtime64
  00006	83 c4 04	 add	 esp, 4

; 117  : #pragma warning( pop )
; 118  : }

  00009	c3		 ret	 0
_localtime ENDP
_TEXT	ENDS
EXTRN	__time64:PROC
; Function compile flags: /Ogtp
;	COMDAT _time
_TEXT	SEGMENT
_time	PROC						; COMDAT
; __Time$ = eax

; 133  :     return _time64(_Time);

  00000	50		 push	 eax
  00001	e8 00 00 00 00	 call	 __time64
  00006	83 c4 04	 add	 esp, 4

; 134  : }

  00009	c3		 ret	 0
_time	ENDP
_TEXT	ENDS
PUBLIC	?GameServerInfoSendStop@@YAXXZ			; GameServerInfoSendStop
; Function compile flags: /Ogtp
; File c:\users\faelhs\mu-1.1\emu - gameserver sapphire s0\gameserver\gamemain.cpp
;	COMDAT ?GameServerInfoSendStop@@YAXXZ
_TEXT	SEGMENT
?GameServerInfoSendStop@@YAXXZ PROC			; GameServerInfoSendStop, COMDAT

; 1510 : 	GSInfoSendFlag = 0;

  00000	c7 05 00 00 00
	00 00 00 00 00	 mov	 DWORD PTR ?GSInfoSendFlag@@3HA, 0 ; GSInfoSendFlag

; 1511 : }

  0000a	c3		 ret	 0
?GameServerInfoSendStop@@YAXXZ ENDP			; GameServerInfoSendStop
_TEXT	ENDS
PUBLIC	?GameServerInfoSendStart@@YAXXZ			; GameServerInfoSendStart
; Function compile flags: /Ogtp
;	COMDAT ?GameServerInfoSendStart@@YAXXZ
_TEXT	SEGMENT
?GameServerInfoSendStart@@YAXXZ PROC			; GameServerInfoSendStart, COMDAT

; 1515 : 	GSInfoSendFlag = 1;

  00000	c7 05 00 00 00
	00 01 00 00 00	 mov	 DWORD PTR ?GSInfoSendFlag@@3HA, 1 ; GSInfoSendFlag

; 1516 : }

  0000a	c3		 ret	 0
?GameServerInfoSendStart@@YAXXZ ENDP			; GameServerInfoSendStart
_TEXT	ENDS
PUBLIC	__$ArrayPad$
PUBLIC	?GameServerInfoSend@@YAXXZ			; GameServerInfoSend
EXTRN	?SendData@WzUdp@@QAEHPAEK@Z:PROC		; WzUdp::SendData
EXTRN	?Get@CLoginCount@@QAEHXZ:PROC			; CLoginCount::Get
EXTRN	?gServerMaxUser@@3HA:DWORD			; gServerMaxUser
EXTRN	?gObjTotalUser@@3HA:DWORD			; gObjTotalUser
EXTRN	?gDisconnect@@3HA:DWORD				; gDisconnect
; Function compile flags: /Ogtp
;	COMDAT ?GameServerInfoSend@@YAXXZ
_TEXT	SEGMENT
_pMsg$ = -20						; size = 16
__$ArrayPad$ = -4					; size = 4
?GameServerInfoSend@@YAXXZ PROC				; GameServerInfoSend, COMDAT

; 1530 : {

  00000	55		 push	 ebp
  00001	8b ec		 mov	 ebp, esp
  00003	83 ec 14	 sub	 esp, 20			; 00000014H
  00006	a1 00 00 00 00	 mov	 eax, DWORD PTR ___security_cookie
  0000b	33 c5		 xor	 eax, ebp
  0000d	89 45 fc	 mov	 DWORD PTR __$ArrayPad$[ebp], eax

; 1531 : 	PMSG_SERVERINFO pMsg;
; 1532 : 
; 1533 : 	if ( gDisconnect == TRUE )

  00010	b8 01 00 00 00	 mov	 eax, 1
  00015	39 05 00 00 00
	00		 cmp	 DWORD PTR ?gDisconnect@@3HA, eax ; gDisconnect
  0001b	74 70		 je	 SHORT $LN4@GameServer

; 1534 : 	{
; 1535 : 		return;
; 1536 : 	}
; 1537 : 
; 1538 : 	pMsg.h.c = 0xC1;
; 1539 : 	pMsg.h.headcode = 0x01;
; 1540 : 	pMsg.h.size = sizeof( pMsg );
; 1541 : 
; 1542 : 	if ( gObjTotalUser == 0 )

  0001d	8b 0d 00 00 00
	00		 mov	 ecx, DWORD PTR ?gObjTotalUser@@3HA ; gObjTotalUser
  00023	c6 45 ec c1	 mov	 BYTE PTR _pMsg$[ebp], 193 ; 000000c1H
  00027	66 c7 45 ed 10
	01		 mov	 WORD PTR _pMsg$[ebp+1], 272 ; 00000110H
  0002d	85 c9		 test	 ecx, ecx
  0002f	75 05		 jne	 SHORT $LN2@GameServer

; 1543 : 	{
; 1544 : 		pMsg.Percent = 0;

  00031	88 4d f2	 mov	 BYTE PTR _pMsg$[ebp+6], cl

; 1545 : 	}
; 1546 : 	else

  00034	eb 0f		 jmp	 SHORT $LN1@GameServer
$LN2@GameServer:

; 1547 : 	{
; 1548 : 		pMsg.Percent = (gObjTotalUser * 100)/gServerMaxUser;

  00036	8b c1		 mov	 eax, ecx
  00038	6b c0 64	 imul	 eax, 100		; 00000064H
  0003b	99		 cdq
  0003c	f7 3d 00 00 00
	00		 idiv	 DWORD PTR ?gServerMaxUser@@3HA ; gServerMaxUser
  00042	88 45 f2	 mov	 BYTE PTR _pMsg$[ebp+6], al
$LN1@GameServer:

; 1549 : 	}
; 1550 : 
; 1551 : 	pMsg.ServerCode = gGameServerCode;

  00045	66 a1 00 00 00
	00		 mov	 ax, WORD PTR ?gGameServerCode@@3FA ; gGameServerCode

; 1552 : 	pMsg.UserCount = gObjTotalUser;

  0004b	66 89 4d f4	 mov	 WORD PTR _pMsg$[ebp+8], cx

; 1553 : 	pMsg.AccountCount = gLCount[0].Get();

  0004f	b9 00 00 00 00	 mov	 ecx, OFFSET ?gLCount@@3PAVCLoginCount@@A ; gLCount
  00054	66 89 45 f0	 mov	 WORD PTR _pMsg$[ebp+4], ax
  00058	e8 00 00 00 00	 call	 ?Get@CLoginCount@@QAEHXZ ; CLoginCount::Get

; 1554 : 	pMsg.PCbangCount = gLCount[1].Get();

  0005d	b9 04 00 00 00	 mov	 ecx, OFFSET ?gLCount@@3PAVCLoginCount@@A+4
  00062	66 89 45 f6	 mov	 WORD PTR _pMsg$[ebp+10], ax
  00066	e8 00 00 00 00	 call	 ?Get@CLoginCount@@QAEHXZ ; CLoginCount::Get

; 1555 : 	pMsg.MaxUserCount = gServerMaxUser;
; 1556 : 
; 1557 : 	gUdpSoc.SendData((LPBYTE)&pMsg, pMsg.h.size);

  0006b	0f b6 55 ed	 movzx	 edx, BYTE PTR _pMsg$[ebp+1]
  0006f	66 8b 0d 00 00
	00 00		 mov	 cx, WORD PTR ?gServerMaxUser@@3HA
  00076	66 89 45 f8	 mov	 WORD PTR _pMsg$[ebp+12], ax
  0007a	52		 push	 edx
  0007b	8d 45 ec	 lea	 eax, DWORD PTR _pMsg$[ebp]
  0007e	66 89 4d fa	 mov	 WORD PTR _pMsg$[ebp+14], cx
  00082	50		 push	 eax
  00083	b9 00 00 00 00	 mov	 ecx, OFFSET ?gUdpSoc@@3VWzUdp@@A ; gUdpSoc
  00088	e8 00 00 00 00	 call	 ?SendData@WzUdp@@QAEHPAEK@Z ; WzUdp::SendData
$LN4@GameServer:

; 1558 : }

  0008d	8b 4d fc	 mov	 ecx, DWORD PTR __$ArrayPad$[ebp]
  00090	33 cd		 xor	 ecx, ebp
  00092	e8 00 00 00 00	 call	 @__security_check_cookie@4
  00097	8b e5		 mov	 esp, ebp
  00099	5d		 pop	 ebp
  0009a	c3		 ret	 0
?GameServerInfoSend@@YAXXZ ENDP				; GameServerInfoSend
_TEXT	ENDS
PUBLIC	??_C@_0BO@ODKANFAM@?4?4?2Data?2Lang?2Kor?2CheckSum?4dat?$AA@ ; `string'
PUBLIC	?CheckSumFileLoad@@YAXPAD@Z			; CheckSumFileLoad
;	COMDAT ??_C@_0BO@ODKANFAM@?4?4?2Data?2Lang?2Kor?2CheckSum?4dat?$AA@
CONST	SEGMENT
??_C@_0BO@ODKANFAM@?4?4?2Data?2Lang?2Kor?2CheckSum?4dat?$AA@ DB '..\Data\'
	DB	'Lang\Kor\CheckSum.dat', 00H			; `string'
; Function compile flags: /Ogtp
CONST	ENDS
;	COMDAT ?CheckSumFileLoad@@YAXPAD@Z
_TEXT	SEGMENT
_szCheckSum$ = 8					; size = 4
?CheckSumFileLoad@@YAXPAD@Z PROC			; CheckSumFileLoad, COMDAT

; 1561 : {

  00000	56		 push	 esi
  00001	57		 push	 edi

; 1562 : 	memcpy(dwgCheckSum, "..\\Data\\Lang\\Kor\\CheckSum.dat", sizeof("..\\Data\\Lang\\Kor\\CheckSum.dat"));

  00002	b9 07 00 00 00	 mov	 ecx, 7
  00007	be 00 00 00 00	 mov	 esi, OFFSET ??_C@_0BO@ODKANFAM@?4?4?2Data?2Lang?2Kor?2CheckSum?4dat?$AA@
  0000c	bf 00 00 00 00	 mov	 edi, OFFSET ?dwgCheckSum@@3PAKA
  00011	f3 a5		 rep movsd
  00013	66 a5		 movsw
  00015	5f		 pop	 edi
  00016	5e		 pop	 esi

; 1563 : }

  00017	c3		 ret	 0
?CheckSumFileLoad@@YAXPAD@Z ENDP			; CheckSumFileLoad
_TEXT	ENDS
PUBLIC	??_C@_0BD@CCIFKIIM@eventitembag20?4txt?$AA@	; `string'
PUBLIC	??_C@_0BD@OGIICKJ@eventitembag17?4txt?$AA@	; `string'
PUBLIC	??_C@_0BD@EDKACDKC@eventitembag15?4txt?$AA@	; `string'
PUBLIC	??_C@_0BD@IIPMPAAH@eventitembag14?4txt?$AA@	; `string'
PUBLIC	??_C@_0BD@JFPJMALP@eventitembag13?4txt?$AA@	; `string'
PUBLIC	??_C@_0BD@FOKFBDBK@eventitembag12?4txt?$AA@	; `string'
PUBLIC	??_C@_0BD@NIDBGBLE@eventitembag11?4txt?$AA@	; `string'
PUBLIC	??_C@_0BD@BDGNLCBB@eventitembag10?4txt?$AA@	; `string'
PUBLIC	??_C@_0BC@GENOAABN@eventitembag9?4txt?$AA@	; `string'
PUBLIC	??_C@_0BC@KPICNDLI@eventitembag8?4txt?$AA@	; `string'
PUBLIC	??_C@_0BC@FONEGBGN@eventitembag7?4txt?$AA@	; `string'
PUBLIC	??_C@_0BC@JFIILCMI@eventitembag6?4txt?$AA@	; `string'
PUBLIC	??_C@_0BC@BDBMMAGG@eventitembag5?4txt?$AA@	; `string'
PUBLIC	??_C@_0BC@NIEABDMD@eventitembag4?4txt?$AA@	; `string'
PUBLIC	??_C@_0BC@MFEFCDHL@eventitembag3?4txt?$AA@	; `string'
PUBLIC	??_C@_0BC@OBJPANO@eventitembag2?4txt?$AA@	; `string'
PUBLIC	??_C@_0BB@DBBPHKAA@eventitembag?4txt?$AA@	; `string'
PUBLIC	??_C@_0M@GNOCDNGL@CItemBag?5?$CFs?$AA@		; `string'
PUBLIC	??_C@_0BI@KENAOCFB@Memory?5allocation?5error?$AA@ ; `string'
PUBLIC	?LoadItemBag@@YAXXZ				; LoadItemBag
EXTRN	??3@YAXPAX@Z:PROC				; operator delete
EXTRN	?Init@CItemBagEx@@QAEXPAD@Z:PROC		; CItemBagEx::Init
EXTRN	??0CItemBagEx@@QAE@XZ:PROC			; CItemBagEx::CItemBagEx
EXTRN	?Init@CItemBag@@QAEXPAD@Z:PROC			; CItemBag::Init
EXTRN	??0CItemBag@@QAE@XZ:PROC			; CItemBag::CItemBag
EXTRN	??2@YAPAXI@Z:PROC				; operator new
EXTRN	___CxxFrameHandler3:PROC
;	COMDAT ??_C@_0BD@CCIFKIIM@eventitembag20?4txt?$AA@
CONST	SEGMENT
??_C@_0BD@CCIFKIIM@eventitembag20?4txt?$AA@ DB 'eventitembag20.txt', 00H ; `string'
CONST	ENDS
;	COMDAT ??_C@_0BD@OGIICKJ@eventitembag17?4txt?$AA@
CONST	SEGMENT
??_C@_0BD@OGIICKJ@eventitembag17?4txt?$AA@ DB 'eventitembag17.txt', 00H ; `string'
CONST	ENDS
;	COMDAT ??_C@_0BD@EDKACDKC@eventitembag15?4txt?$AA@
CONST	SEGMENT
??_C@_0BD@EDKACDKC@eventitembag15?4txt?$AA@ DB 'eventitembag15.txt', 00H ; `string'
CONST	ENDS
;	COMDAT ??_C@_0BD@IIPMPAAH@eventitembag14?4txt?$AA@
CONST	SEGMENT
??_C@_0BD@IIPMPAAH@eventitembag14?4txt?$AA@ DB 'eventitembag14.txt', 00H ; `string'
CONST	ENDS
;	COMDAT ??_C@_0BD@JFPJMALP@eventitembag13?4txt?$AA@
CONST	SEGMENT
??_C@_0BD@JFPJMALP@eventitembag13?4txt?$AA@ DB 'eventitembag13.txt', 00H ; `string'
CONST	ENDS
;	COMDAT ??_C@_0BD@FOKFBDBK@eventitembag12?4txt?$AA@
CONST	SEGMENT
??_C@_0BD@FOKFBDBK@eventitembag12?4txt?$AA@ DB 'eventitembag12.txt', 00H ; `string'
CONST	ENDS
;	COMDAT ??_C@_0BD@NIDBGBLE@eventitembag11?4txt?$AA@
CONST	SEGMENT
??_C@_0BD@NIDBGBLE@eventitembag11?4txt?$AA@ DB 'eventitembag11.txt', 00H ; `string'
CONST	ENDS
;	COMDAT ??_C@_0BD@BDGNLCBB@eventitembag10?4txt?$AA@
CONST	SEGMENT
??_C@_0BD@BDGNLCBB@eventitembag10?4txt?$AA@ DB 'eventitembag10.txt', 00H ; `string'
CONST	ENDS
;	COMDAT ??_C@_0BC@GENOAABN@eventitembag9?4txt?$AA@
CONST	SEGMENT
??_C@_0BC@GENOAABN@eventitembag9?4txt?$AA@ DB 'eventitembag9.txt', 00H ; `string'
CONST	ENDS
;	COMDAT ??_C@_0BC@KPICNDLI@eventitembag8?4txt?$AA@
CONST	SEGMENT
??_C@_0BC@KPICNDLI@eventitembag8?4txt?$AA@ DB 'eventitembag8.txt', 00H ; `string'
CONST	ENDS
;	COMDAT ??_C@_0BC@FONEGBGN@eventitembag7?4txt?$AA@
CONST	SEGMENT
??_C@_0BC@FONEGBGN@eventitembag7?4txt?$AA@ DB 'eventitembag7.txt', 00H ; `string'
CONST	ENDS
;	COMDAT ??_C@_0BC@JFIILCMI@eventitembag6?4txt?$AA@
CONST	SEGMENT
??_C@_0BC@JFIILCMI@eventitembag6?4txt?$AA@ DB 'eventitembag6.txt', 00H ; `string'
CONST	ENDS
;	COMDAT ??_C@_0BC@BDBMMAGG@eventitembag5?4txt?$AA@
CONST	SEGMENT
??_C@_0BC@BDBMMAGG@eventitembag5?4txt?$AA@ DB 'eventitembag5.txt', 00H ; `string'
CONST	ENDS
;	COMDAT ??_C@_0BC@NIEABDMD@eventitembag4?4txt?$AA@
CONST	SEGMENT
??_C@_0BC@NIEABDMD@eventitembag4?4txt?$AA@ DB 'eventitembag4.txt', 00H ; `string'
CONST	ENDS
;	COMDAT ??_C@_0BC@MFEFCDHL@eventitembag3?4txt?$AA@
CONST	SEGMENT
??_C@_0BC@MFEFCDHL@eventitembag3?4txt?$AA@ DB 'eventitembag3.txt', 00H ; `string'
CONST	ENDS
;	COMDAT ??_C@_0BC@OBJPANO@eventitembag2?4txt?$AA@
CONST	SEGMENT
??_C@_0BC@OBJPANO@eventitembag2?4txt?$AA@ DB 'eventitembag2.txt', 00H ; `string'
CONST	ENDS
;	COMDAT ??_C@_0BB@DBBPHKAA@eventitembag?4txt?$AA@
CONST	SEGMENT
??_C@_0BB@DBBPHKAA@eventitembag?4txt?$AA@ DB 'eventitembag.txt', 00H ; `string'
CONST	ENDS
;	COMDAT ??_C@_0M@GNOCDNGL@CItemBag?5?$CFs?$AA@
CONST	SEGMENT
??_C@_0M@GNOCDNGL@CItemBag?5?$CFs?$AA@ DB 'CItemBag %s', 00H ; `string'
CONST	ENDS
;	COMDAT ??_C@_0BI@KENAOCFB@Memory?5allocation?5error?$AA@
CONST	SEGMENT
??_C@_0BI@KENAOCFB@Memory?5allocation?5error?$AA@ DB 'Memory allocation e'
	DB	'rror', 00H					; `string'
CONST	ENDS
;	COMDAT xdata$x
xdata$x	SEGMENT
__ehfuncinfo$?LoadItemBag@@YAXXZ DD 019930522H
	DD	012H
	DD	FLAT:__unwindtable$?LoadItemBag@@YAXXZ
	DD	2 DUP(00H)
	DD	2 DUP(00H)
	DD	00H
	DD	01H
__unwindtable$?LoadItemBag@@YAXXZ DD 0ffffffffH
	DD	FLAT:__unwindfunclet$?LoadItemBag@@YAXXZ$0
	DD	0ffffffffH
	DD	FLAT:__unwindfunclet$?LoadItemBag@@YAXXZ$1
	DD	0ffffffffH
	DD	FLAT:__unwindfunclet$?LoadItemBag@@YAXXZ$2
	DD	0ffffffffH
	DD	FLAT:__unwindfunclet$?LoadItemBag@@YAXXZ$3
	DD	0ffffffffH
	DD	FLAT:__unwindfunclet$?LoadItemBag@@YAXXZ$4
	DD	0ffffffffH
	DD	FLAT:__unwindfunclet$?LoadItemBag@@YAXXZ$5
	DD	0ffffffffH
	DD	FLAT:__unwindfunclet$?LoadItemBag@@YAXXZ$6
	DD	0ffffffffH
	DD	FLAT:__unwindfunclet$?LoadItemBag@@YAXXZ$7
	DD	0ffffffffH
	DD	FLAT:__unwindfunclet$?LoadItemBag@@YAXXZ$8
	DD	0ffffffffH
	DD	FLAT:__unwindfunclet$?LoadItemBag@@YAXXZ$9
	DD	0ffffffffH
	DD	FLAT:__unwindfunclet$?LoadItemBag@@YAXXZ$10
	DD	0ffffffffH
	DD	FLAT:__unwindfunclet$?LoadItemBag@@YAXXZ$11
	DD	0ffffffffH
	DD	FLAT:__unwindfunclet$?LoadItemBag@@YAXXZ$12
	DD	0ffffffffH
	DD	FLAT:__unwindfunclet$?LoadItemBag@@YAXXZ$13
	DD	0ffffffffH
	DD	FLAT:__unwindfunclet$?LoadItemBag@@YAXXZ$14
	DD	0ffffffffH
	DD	FLAT:__unwindfunclet$?LoadItemBag@@YAXXZ$15
	DD	0ffffffffH
	DD	FLAT:__unwindfunclet$?LoadItemBag@@YAXXZ$16
	DD	0ffffffffH
	DD	FLAT:__unwindfunclet$?LoadItemBag@@YAXXZ$17
; Function compile flags: /Ogtp
xdata$x	ENDS
;	COMDAT ?LoadItemBag@@YAXXZ
_TEXT	SEGMENT
$T164008 = -16						; size = 4
$T164000 = -16						; size = 4
$T163992 = -16						; size = 4
$T163984 = -16						; size = 4
$T163976 = -16						; size = 4
$T163968 = -16						; size = 4
$T163960 = -16						; size = 4
$T163952 = -16						; size = 4
$T163944 = -16						; size = 4
$T163936 = -16						; size = 4
$T163928 = -16						; size = 4
$T163920 = -16						; size = 4
$T163912 = -16						; size = 4
$T163904 = -16						; size = 4
$T163896 = -16						; size = 4
$T163888 = -16						; size = 4
$T163880 = -16						; size = 4
$T163872 = -16						; size = 4
__$EHRec$ = -12						; size = 12
?LoadItemBag@@YAXXZ PROC				; LoadItemBag, COMDAT

; 1566 : {

  00000	55		 push	 ebp
  00001	8b ec		 mov	 ebp, esp
  00003	6a ff		 push	 -1
  00005	68 00 00 00 00	 push	 __ehhandler$?LoadItemBag@@YAXXZ
  0000a	64 a1 00 00 00
	00		 mov	 eax, DWORD PTR fs:0
  00010	50		 push	 eax
  00011	51		 push	 ecx
  00012	56		 push	 esi
  00013	a1 00 00 00 00	 mov	 eax, DWORD PTR ___security_cookie
  00018	33 c5		 xor	 eax, ebp
  0001a	50		 push	 eax
  0001b	8d 45 f4	 lea	 eax, DWORD PTR __$EHRec$[ebp]
  0001e	64 a3 00 00 00
	00		 mov	 DWORD PTR fs:0, eax

; 1567 : 	if ( LuckboxItemBag != FALSE )

  00024	8b 0d 00 00 00
	00		 mov	 ecx, DWORD PTR ?LuckboxItemBag@@3PAVCItemBag@@A ; LuckboxItemBag
  0002a	85 c9		 test	 ecx, ecx
  0002c	74 08		 je	 SHORT $LN39@LoadItemBa

; 1568 : 	{
; 1569 : 		delete LuckboxItemBag;

  0002e	8b 01		 mov	 eax, DWORD PTR [ecx]
  00030	8b 10		 mov	 edx, DWORD PTR [eax]
  00032	6a 01		 push	 1
  00034	ff d2		 call	 edx
$LN39@LoadItemBa:

; 1570 : 	}
; 1571 : 
; 1572 : 	LuckboxItemBag = new CItemBag;

  00036	68 94 03 00 00	 push	 916			; 00000394H
  0003b	e8 00 00 00 00	 call	 ??2@YAPAXI@Z		; operator new
  00040	83 c4 04	 add	 esp, 4
  00043	89 45 f0	 mov	 DWORD PTR $T163872[ebp], eax
  00046	c7 45 fc 00 00
	00 00		 mov	 DWORD PTR __$EHRec$[ebp+8], 0
  0004d	85 c0		 test	 eax, eax
  0004f	74 09		 je	 SHORT $LN41@LoadItemBa
  00051	8b c8		 mov	 ecx, eax
  00053	e8 00 00 00 00	 call	 ??0CItemBag@@QAE@XZ	; CItemBag::CItemBag
  00058	eb 02		 jmp	 SHORT $LN42@LoadItemBa
$LN41@LoadItemBa:
  0005a	33 c0		 xor	 eax, eax
$LN42@LoadItemBa:
  0005c	83 ce ff	 or	 esi, -1
  0005f	89 75 fc	 mov	 DWORD PTR __$EHRec$[ebp+8], esi
  00062	a3 00 00 00 00	 mov	 DWORD PTR ?LuckboxItemBag@@3PAVCItemBag@@A, eax ; LuckboxItemBag

; 1573 : 
; 1574 : 	if ( LuckboxItemBag == NULL )

  00067	85 c0		 test	 eax, eax
  00069	75 22		 jne	 SHORT $LN35@LoadItemBa
$LN130@LoadItemBa:

; 1575 : 	{
; 1576 : 		MsgBox( "CItemBag %s", "Memory allocation error");

  0006b	68 00 00 00 00	 push	 OFFSET ??_C@_0BI@KENAOCFB@Memory?5allocation?5error?$AA@
  00070	68 00 00 00 00	 push	 OFFSET ??_C@_0M@GNOCDNGL@CItemBag?5?$CFs?$AA@
  00075	e8 00 00 00 00	 call	 ?MsgBox@@YAXPADZZ	; MsgBox
  0007a	83 c4 08	 add	 esp, 8

; 1862 : }

  0007d	8b 4d f4	 mov	 ecx, DWORD PTR __$EHRec$[ebp]
  00080	64 89 0d 00 00
	00 00		 mov	 DWORD PTR fs:0, ecx
  00087	59		 pop	 ecx
  00088	5e		 pop	 esi
  00089	8b e5		 mov	 esp, ebp
  0008b	5d		 pop	 ebp
  0008c	c3		 ret	 0
$LN35@LoadItemBa:

; 1577 : 		return;
; 1578 : 	}
; 1579 : 
; 1580 : 	LuckboxItemBag->Init("eventitembag.txt");

  0008d	68 00 00 00 00	 push	 OFFSET ??_C@_0BB@DBBPHKAA@eventitembag?4txt?$AA@
  00092	8b c8		 mov	 ecx, eax
  00094	e8 00 00 00 00	 call	 ?Init@CItemBag@@QAEXPAD@Z ; CItemBag::Init

; 1581 : 
; 1582 : 	if ( Mon55 != FALSE )	// Death king

  00099	8b 0d 00 00 00
	00		 mov	 ecx, DWORD PTR ?Mon55@@3PAVCItemBag@@A ; Mon55
  0009f	85 c9		 test	 ecx, ecx
  000a1	74 08		 je	 SHORT $LN43@LoadItemBa

; 1583 : 	{
; 1584 : 		delete Mon55;

  000a3	8b 01		 mov	 eax, DWORD PTR [ecx]
  000a5	8b 10		 mov	 edx, DWORD PTR [eax]
  000a7	6a 01		 push	 1
  000a9	ff d2		 call	 edx
$LN43@LoadItemBa:

; 1585 : 	}
; 1586 : 
; 1587 : 	Mon55 = new CItemBag;

  000ab	68 94 03 00 00	 push	 916			; 00000394H
  000b0	e8 00 00 00 00	 call	 ??2@YAPAXI@Z		; operator new
  000b5	83 c4 04	 add	 esp, 4
  000b8	89 45 f0	 mov	 DWORD PTR $T163880[ebp], eax
  000bb	c7 45 fc 01 00
	00 00		 mov	 DWORD PTR __$EHRec$[ebp+8], 1
  000c2	85 c0		 test	 eax, eax
  000c4	74 09		 je	 SHORT $LN45@LoadItemBa
  000c6	8b c8		 mov	 ecx, eax
  000c8	e8 00 00 00 00	 call	 ??0CItemBag@@QAE@XZ	; CItemBag::CItemBag
  000cd	eb 02		 jmp	 SHORT $LN46@LoadItemBa
$LN45@LoadItemBa:
  000cf	33 c0		 xor	 eax, eax
$LN46@LoadItemBa:
  000d1	89 75 fc	 mov	 DWORD PTR __$EHRec$[ebp+8], esi
  000d4	a3 00 00 00 00	 mov	 DWORD PTR ?Mon55@@3PAVCItemBag@@A, eax ; Mon55

; 1588 : 
; 1589 : 	if ( Mon55 == NULL )

  000d9	85 c0		 test	 eax, eax

; 1590 : 	{
; 1591 : 		MsgBox( "CItemBag %s", "Memory allocation error");
; 1592 : 		return;

  000db	74 8e		 je	 SHORT $LN130@LoadItemBa

; 1593 : 	}
; 1594 : 
; 1595 : 	Mon55->Init("eventitembag2.txt");

  000dd	68 00 00 00 00	 push	 OFFSET ??_C@_0BC@OBJPANO@eventitembag2?4txt?$AA@
  000e2	8b c8		 mov	 ecx, eax
  000e4	e8 00 00 00 00	 call	 ?Init@CItemBag@@QAEXPAD@Z ; CItemBag::Init

; 1596 : 
; 1597 : 	if ( Mon53 != FALSE )	// Golden Titan

  000e9	8b 0d 00 00 00
	00		 mov	 ecx, DWORD PTR ?Mon53@@3PAVCItemBag@@A ; Mon53
  000ef	85 c9		 test	 ecx, ecx
  000f1	74 08		 je	 SHORT $LN47@LoadItemBa

; 1598 : 	{
; 1599 : 		delete Mon53;

  000f3	8b 01		 mov	 eax, DWORD PTR [ecx]
  000f5	8b 10		 mov	 edx, DWORD PTR [eax]
  000f7	6a 01		 push	 1
  000f9	ff d2		 call	 edx
$LN47@LoadItemBa:

; 1600 : 	}
; 1601 : 
; 1602 : 	Mon53 = new CItemBag;

  000fb	68 94 03 00 00	 push	 916			; 00000394H
  00100	e8 00 00 00 00	 call	 ??2@YAPAXI@Z		; operator new
  00105	83 c4 04	 add	 esp, 4
  00108	89 45 f0	 mov	 DWORD PTR $T163888[ebp], eax
  0010b	c7 45 fc 02 00
	00 00		 mov	 DWORD PTR __$EHRec$[ebp+8], 2
  00112	85 c0		 test	 eax, eax
  00114	74 09		 je	 SHORT $LN49@LoadItemBa
  00116	8b c8		 mov	 ecx, eax
  00118	e8 00 00 00 00	 call	 ??0CItemBag@@QAE@XZ	; CItemBag::CItemBag
  0011d	eb 02		 jmp	 SHORT $LN50@LoadItemBa
$LN49@LoadItemBa:
  0011f	33 c0		 xor	 eax, eax
$LN50@LoadItemBa:
  00121	89 75 fc	 mov	 DWORD PTR __$EHRec$[ebp+8], esi
  00124	a3 00 00 00 00	 mov	 DWORD PTR ?Mon53@@3PAVCItemBag@@A, eax ; Mon53

; 1603 : 
; 1604 : 	if ( Mon53 == NULL )

  00129	85 c0		 test	 eax, eax

; 1605 : 	{
; 1606 : 		MsgBox( "CItemBag %s", "Memory allocation error");
; 1607 : 		return;

  0012b	0f 84 3a ff ff
	ff		 je	 $LN130@LoadItemBa

; 1608 : 	}
; 1609 : 
; 1610 : 	Mon53->Init("eventitembag3.txt");

  00131	68 00 00 00 00	 push	 OFFSET ??_C@_0BC@MFEFCDHL@eventitembag3?4txt?$AA@
  00136	8b c8		 mov	 ecx, eax
  00138	e8 00 00 00 00	 call	 ?Init@CItemBag@@QAEXPAD@Z ; CItemBag::Init

; 1611 : 
; 1612 : 	if ( StarOfXMasItemBag != FALSE )	

  0013d	8b 0d 00 00 00
	00		 mov	 ecx, DWORD PTR ?StarOfXMasItemBag@@3PAVCItemBagEx@@A ; StarOfXMasItemBag
  00143	85 c9		 test	 ecx, ecx
  00145	74 08		 je	 SHORT $LN51@LoadItemBa

; 1613 : 	{
; 1614 : 		delete StarOfXMasItemBag;

  00147	8b 01		 mov	 eax, DWORD PTR [ecx]
  00149	8b 10		 mov	 edx, DWORD PTR [eax]
  0014b	6a 01		 push	 1
  0014d	ff d2		 call	 edx
$LN51@LoadItemBa:

; 1615 : 	}
; 1616 : 
; 1617 : 	StarOfXMasItemBag = new CItemBagEx;

  0014f	68 4c 06 00 00	 push	 1612			; 0000064cH
  00154	e8 00 00 00 00	 call	 ??2@YAPAXI@Z		; operator new
  00159	83 c4 04	 add	 esp, 4
  0015c	89 45 f0	 mov	 DWORD PTR $T163896[ebp], eax
  0015f	c7 45 fc 03 00
	00 00		 mov	 DWORD PTR __$EHRec$[ebp+8], 3
  00166	85 c0		 test	 eax, eax
  00168	74 09		 je	 SHORT $LN53@LoadItemBa
  0016a	8b c8		 mov	 ecx, eax
  0016c	e8 00 00 00 00	 call	 ??0CItemBagEx@@QAE@XZ	; CItemBagEx::CItemBagEx
  00171	eb 02		 jmp	 SHORT $LN54@LoadItemBa
$LN53@LoadItemBa:
  00173	33 c0		 xor	 eax, eax
$LN54@LoadItemBa:
  00175	89 75 fc	 mov	 DWORD PTR __$EHRec$[ebp+8], esi
  00178	a3 00 00 00 00	 mov	 DWORD PTR ?StarOfXMasItemBag@@3PAVCItemBagEx@@A, eax ; StarOfXMasItemBag

; 1618 : 
; 1619 : 	if ( StarOfXMasItemBag == NULL )

  0017d	85 c0		 test	 eax, eax

; 1620 : 	{
; 1621 : 		MsgBox( "CItemBag %s", "Memory allocation error");
; 1622 : 		return;

  0017f	0f 84 e6 fe ff
	ff		 je	 $LN130@LoadItemBa

; 1623 : 	}
; 1624 : 
; 1625 : 	StarOfXMasItemBag->Init("eventitembag4.txt");

  00185	68 00 00 00 00	 push	 OFFSET ??_C@_0BC@NIEABDMD@eventitembag4?4txt?$AA@
  0018a	8b c8		 mov	 ecx, eax
  0018c	e8 00 00 00 00	 call	 ?Init@CItemBagEx@@QAEXPAD@Z ; CItemBagEx::Init

; 1626 : 
; 1627 : 	if ( FireCrackerItemBag != FALSE )	

  00191	8b 0d 00 00 00
	00		 mov	 ecx, DWORD PTR ?FireCrackerItemBag@@3PAVCItemBag@@A ; FireCrackerItemBag
  00197	85 c9		 test	 ecx, ecx
  00199	74 08		 je	 SHORT $LN55@LoadItemBa

; 1628 : 	{
; 1629 : 		delete FireCrackerItemBag;

  0019b	8b 01		 mov	 eax, DWORD PTR [ecx]
  0019d	8b 10		 mov	 edx, DWORD PTR [eax]
  0019f	6a 01		 push	 1
  001a1	ff d2		 call	 edx
$LN55@LoadItemBa:

; 1630 : 	}
; 1631 : 
; 1632 : 	FireCrackerItemBag = new CItemBag;

  001a3	68 94 03 00 00	 push	 916			; 00000394H
  001a8	e8 00 00 00 00	 call	 ??2@YAPAXI@Z		; operator new
  001ad	83 c4 04	 add	 esp, 4
  001b0	89 45 f0	 mov	 DWORD PTR $T163904[ebp], eax
  001b3	c7 45 fc 04 00
	00 00		 mov	 DWORD PTR __$EHRec$[ebp+8], 4
  001ba	85 c0		 test	 eax, eax
  001bc	74 09		 je	 SHORT $LN57@LoadItemBa
  001be	8b c8		 mov	 ecx, eax
  001c0	e8 00 00 00 00	 call	 ??0CItemBag@@QAE@XZ	; CItemBag::CItemBag
  001c5	eb 02		 jmp	 SHORT $LN58@LoadItemBa
$LN57@LoadItemBa:
  001c7	33 c0		 xor	 eax, eax
$LN58@LoadItemBa:
  001c9	89 75 fc	 mov	 DWORD PTR __$EHRec$[ebp+8], esi
  001cc	a3 00 00 00 00	 mov	 DWORD PTR ?FireCrackerItemBag@@3PAVCItemBag@@A, eax ; FireCrackerItemBag

; 1633 : 
; 1634 : 	if ( FireCrackerItemBag == NULL )

  001d1	85 c0		 test	 eax, eax

; 1635 : 	{
; 1636 : 		MsgBox( "CItemBag %s", "Memory allocation error");
; 1637 : 		return;

  001d3	0f 84 92 fe ff
	ff		 je	 $LN130@LoadItemBa

; 1638 : 	}
; 1639 : 
; 1640 : 	FireCrackerItemBag->Init("eventitembag5.txt");

  001d9	68 00 00 00 00	 push	 OFFSET ??_C@_0BC@BDBMMAGG@eventitembag5?4txt?$AA@
  001de	8b c8		 mov	 ecx, eax
  001e0	e8 00 00 00 00	 call	 ?Init@CItemBag@@QAEXPAD@Z ; CItemBag::Init

; 1641 : 
; 1642 : 	if ( HeartOfLoveItemBag != FALSE )	

  001e5	8b 0d 00 00 00
	00		 mov	 ecx, DWORD PTR ?HeartOfLoveItemBag@@3PAVCItemBag@@A ; HeartOfLoveItemBag
  001eb	85 c9		 test	 ecx, ecx
  001ed	74 08		 je	 SHORT $LN59@LoadItemBa

; 1643 : 	{
; 1644 : 		delete HeartOfLoveItemBag;

  001ef	8b 01		 mov	 eax, DWORD PTR [ecx]
  001f1	8b 10		 mov	 edx, DWORD PTR [eax]
  001f3	6a 01		 push	 1
  001f5	ff d2		 call	 edx
$LN59@LoadItemBa:

; 1645 : 	}
; 1646 : 
; 1647 : 	HeartOfLoveItemBag = new CItemBag;

  001f7	68 94 03 00 00	 push	 916			; 00000394H
  001fc	e8 00 00 00 00	 call	 ??2@YAPAXI@Z		; operator new
  00201	83 c4 04	 add	 esp, 4
  00204	89 45 f0	 mov	 DWORD PTR $T163912[ebp], eax
  00207	c7 45 fc 05 00
	00 00		 mov	 DWORD PTR __$EHRec$[ebp+8], 5
  0020e	85 c0		 test	 eax, eax
  00210	74 09		 je	 SHORT $LN61@LoadItemBa
  00212	8b c8		 mov	 ecx, eax
  00214	e8 00 00 00 00	 call	 ??0CItemBag@@QAE@XZ	; CItemBag::CItemBag
  00219	eb 02		 jmp	 SHORT $LN62@LoadItemBa
$LN61@LoadItemBa:
  0021b	33 c0		 xor	 eax, eax
$LN62@LoadItemBa:
  0021d	89 75 fc	 mov	 DWORD PTR __$EHRec$[ebp+8], esi
  00220	a3 00 00 00 00	 mov	 DWORD PTR ?HeartOfLoveItemBag@@3PAVCItemBag@@A, eax ; HeartOfLoveItemBag

; 1648 : 
; 1649 : 	if ( HeartOfLoveItemBag == NULL )

  00225	85 c0		 test	 eax, eax

; 1650 : 	{
; 1651 : 		MsgBox( "CItemBag %s", "Memory allocation error");
; 1652 : 		return;

  00227	0f 84 3e fe ff
	ff		 je	 $LN130@LoadItemBa

; 1653 : 	}
; 1654 : 
; 1655 : 	HeartOfLoveItemBag->Init("eventitembag5.txt");

  0022d	68 00 00 00 00	 push	 OFFSET ??_C@_0BC@BDBMMAGG@eventitembag5?4txt?$AA@
  00232	8b c8		 mov	 ecx, eax
  00234	e8 00 00 00 00	 call	 ?Init@CItemBag@@QAEXPAD@Z ; CItemBag::Init

; 1656 : 
; 1657 : 	if ( GoldMedalItemBag != FALSE )	

  00239	8b 0d 00 00 00
	00		 mov	 ecx, DWORD PTR ?GoldMedalItemBag@@3PAVCItemBag@@A ; GoldMedalItemBag
  0023f	85 c9		 test	 ecx, ecx
  00241	74 08		 je	 SHORT $LN63@LoadItemBa

; 1658 : 	{
; 1659 : 		delete GoldMedalItemBag;

  00243	8b 01		 mov	 eax, DWORD PTR [ecx]
  00245	8b 10		 mov	 edx, DWORD PTR [eax]
  00247	6a 01		 push	 1
  00249	ff d2		 call	 edx
$LN63@LoadItemBa:

; 1660 : 	}
; 1661 : 
; 1662 : 	GoldMedalItemBag = new CItemBag;

  0024b	68 94 03 00 00	 push	 916			; 00000394H
  00250	e8 00 00 00 00	 call	 ??2@YAPAXI@Z		; operator new
  00255	83 c4 04	 add	 esp, 4
  00258	89 45 f0	 mov	 DWORD PTR $T163920[ebp], eax
  0025b	c7 45 fc 06 00
	00 00		 mov	 DWORD PTR __$EHRec$[ebp+8], 6
  00262	85 c0		 test	 eax, eax
  00264	74 09		 je	 SHORT $LN65@LoadItemBa
  00266	8b c8		 mov	 ecx, eax
  00268	e8 00 00 00 00	 call	 ??0CItemBag@@QAE@XZ	; CItemBag::CItemBag
  0026d	eb 02		 jmp	 SHORT $LN66@LoadItemBa
$LN65@LoadItemBa:
  0026f	33 c0		 xor	 eax, eax
$LN66@LoadItemBa:
  00271	89 75 fc	 mov	 DWORD PTR __$EHRec$[ebp+8], esi
  00274	a3 00 00 00 00	 mov	 DWORD PTR ?GoldMedalItemBag@@3PAVCItemBag@@A, eax ; GoldMedalItemBag

; 1663 : 
; 1664 : 	if ( GoldMedalItemBag == NULL )

  00279	85 c0		 test	 eax, eax

; 1665 : 	{
; 1666 : 		MsgBox( "CItemBag %s", "Memory allocation error");
; 1667 : 		return;

  0027b	0f 84 ea fd ff
	ff		 je	 $LN130@LoadItemBa

; 1668 : 	}
; 1669 : 
; 1670 : 	GoldMedalItemBag->Init("eventitembag6.txt");

  00281	68 00 00 00 00	 push	 OFFSET ??_C@_0BC@JFIILCMI@eventitembag6?4txt?$AA@
  00286	8b c8		 mov	 ecx, eax
  00288	e8 00 00 00 00	 call	 ?Init@CItemBag@@QAEXPAD@Z ; CItemBag::Init

; 1671 : 
; 1672 : 	if ( SilverMedalItemBag != FALSE )	

  0028d	8b 0d 00 00 00
	00		 mov	 ecx, DWORD PTR ?SilverMedalItemBag@@3PAVCItemBag@@A ; SilverMedalItemBag
  00293	85 c9		 test	 ecx, ecx
  00295	74 08		 je	 SHORT $LN67@LoadItemBa

; 1673 : 	{
; 1674 : 		delete SilverMedalItemBag;

  00297	8b 01		 mov	 eax, DWORD PTR [ecx]
  00299	8b 10		 mov	 edx, DWORD PTR [eax]
  0029b	6a 01		 push	 1
  0029d	ff d2		 call	 edx
$LN67@LoadItemBa:

; 1675 : 	}
; 1676 : 
; 1677 : 	SilverMedalItemBag = new CItemBag;

  0029f	68 94 03 00 00	 push	 916			; 00000394H
  002a4	e8 00 00 00 00	 call	 ??2@YAPAXI@Z		; operator new
  002a9	83 c4 04	 add	 esp, 4
  002ac	89 45 f0	 mov	 DWORD PTR $T163928[ebp], eax
  002af	c7 45 fc 07 00
	00 00		 mov	 DWORD PTR __$EHRec$[ebp+8], 7
  002b6	85 c0		 test	 eax, eax
  002b8	74 09		 je	 SHORT $LN69@LoadItemBa
  002ba	8b c8		 mov	 ecx, eax
  002bc	e8 00 00 00 00	 call	 ??0CItemBag@@QAE@XZ	; CItemBag::CItemBag
  002c1	eb 02		 jmp	 SHORT $LN70@LoadItemBa
$LN69@LoadItemBa:
  002c3	33 c0		 xor	 eax, eax
$LN70@LoadItemBa:
  002c5	89 75 fc	 mov	 DWORD PTR __$EHRec$[ebp+8], esi
  002c8	a3 00 00 00 00	 mov	 DWORD PTR ?SilverMedalItemBag@@3PAVCItemBag@@A, eax ; SilverMedalItemBag

; 1678 : 
; 1679 : 	if ( SilverMedalItemBag == NULL )

  002cd	85 c0		 test	 eax, eax

; 1680 : 	{
; 1681 : 		MsgBox( "CItemBag %s", "Memory allocation error");
; 1682 : 		return;

  002cf	0f 84 96 fd ff
	ff		 je	 $LN130@LoadItemBa

; 1683 : 	}
; 1684 : 
; 1685 : 	SilverMedalItemBag->Init("eventitembag7.txt");

  002d5	68 00 00 00 00	 push	 OFFSET ??_C@_0BC@FONEGBGN@eventitembag7?4txt?$AA@
  002da	8b c8		 mov	 ecx, eax
  002dc	e8 00 00 00 00	 call	 ?Init@CItemBag@@QAEXPAD@Z ; CItemBag::Init

; 1686 : 
; 1687 : 	if ( GoldGoblenItemBag != FALSE )	

  002e1	8b 0d 00 00 00
	00		 mov	 ecx, DWORD PTR ?GoldGoblenItemBag@@3PAVCItemBag@@A ; GoldGoblenItemBag
  002e7	85 c9		 test	 ecx, ecx
  002e9	74 08		 je	 SHORT $LN71@LoadItemBa

; 1688 : 	{
; 1689 : 		delete GoldGoblenItemBag;

  002eb	8b 01		 mov	 eax, DWORD PTR [ecx]
  002ed	8b 10		 mov	 edx, DWORD PTR [eax]
  002ef	6a 01		 push	 1
  002f1	ff d2		 call	 edx
$LN71@LoadItemBa:

; 1690 : 	}
; 1691 : 
; 1692 : 	GoldGoblenItemBag = new CItemBag;

  002f3	68 94 03 00 00	 push	 916			; 00000394H
  002f8	e8 00 00 00 00	 call	 ??2@YAPAXI@Z		; operator new
  002fd	83 c4 04	 add	 esp, 4
  00300	89 45 f0	 mov	 DWORD PTR $T163936[ebp], eax
  00303	c7 45 fc 08 00
	00 00		 mov	 DWORD PTR __$EHRec$[ebp+8], 8
  0030a	85 c0		 test	 eax, eax
  0030c	74 09		 je	 SHORT $LN73@LoadItemBa
  0030e	8b c8		 mov	 ecx, eax
  00310	e8 00 00 00 00	 call	 ??0CItemBag@@QAE@XZ	; CItemBag::CItemBag
  00315	eb 02		 jmp	 SHORT $LN74@LoadItemBa
$LN73@LoadItemBa:
  00317	33 c0		 xor	 eax, eax
$LN74@LoadItemBa:
  00319	89 75 fc	 mov	 DWORD PTR __$EHRec$[ebp+8], esi
  0031c	a3 00 00 00 00	 mov	 DWORD PTR ?GoldGoblenItemBag@@3PAVCItemBag@@A, eax ; GoldGoblenItemBag

; 1693 : 
; 1694 : 	if ( GoldGoblenItemBag == NULL )

  00321	85 c0		 test	 eax, eax

; 1695 : 	{
; 1696 : 		MsgBox( "CItemBag %s", "Memory allocation error");
; 1697 : 		return;

  00323	0f 84 42 fd ff
	ff		 je	 $LN130@LoadItemBa

; 1698 : 	}
; 1699 : 
; 1700 : 	GoldGoblenItemBag->Init("eventitembag8.txt");

  00329	68 00 00 00 00	 push	 OFFSET ??_C@_0BC@KPICNDLI@eventitembag8?4txt?$AA@
  0032e	8b c8		 mov	 ecx, eax
  00330	e8 00 00 00 00	 call	 ?Init@CItemBag@@QAEXPAD@Z ; CItemBag::Init

; 1701 : 
; 1702 : 	if ( TitanItemBag != FALSE )	

  00335	8b 0d 00 00 00
	00		 mov	 ecx, DWORD PTR ?TitanItemBag@@3PAVCItemBag@@A ; TitanItemBag
  0033b	85 c9		 test	 ecx, ecx
  0033d	74 08		 je	 SHORT $LN75@LoadItemBa

; 1703 : 	{
; 1704 : 		delete TitanItemBag;

  0033f	8b 01		 mov	 eax, DWORD PTR [ecx]
  00341	8b 10		 mov	 edx, DWORD PTR [eax]
  00343	6a 01		 push	 1
  00345	ff d2		 call	 edx
$LN75@LoadItemBa:

; 1705 : 	}
; 1706 : 
; 1707 : 	TitanItemBag = new CItemBag;

  00347	68 94 03 00 00	 push	 916			; 00000394H
  0034c	e8 00 00 00 00	 call	 ??2@YAPAXI@Z		; operator new
  00351	83 c4 04	 add	 esp, 4
  00354	89 45 f0	 mov	 DWORD PTR $T163944[ebp], eax
  00357	c7 45 fc 09 00
	00 00		 mov	 DWORD PTR __$EHRec$[ebp+8], 9
  0035e	85 c0		 test	 eax, eax
  00360	74 09		 je	 SHORT $LN77@LoadItemBa
  00362	8b c8		 mov	 ecx, eax
  00364	e8 00 00 00 00	 call	 ??0CItemBag@@QAE@XZ	; CItemBag::CItemBag
  00369	eb 02		 jmp	 SHORT $LN78@LoadItemBa
$LN77@LoadItemBa:
  0036b	33 c0		 xor	 eax, eax
$LN78@LoadItemBa:
  0036d	89 75 fc	 mov	 DWORD PTR __$EHRec$[ebp+8], esi
  00370	a3 00 00 00 00	 mov	 DWORD PTR ?TitanItemBag@@3PAVCItemBag@@A, eax ; TitanItemBag

; 1708 : 
; 1709 : 	if ( TitanItemBag == NULL )

  00375	85 c0		 test	 eax, eax

; 1710 : 	{
; 1711 : 		MsgBox( "CItemBag %s", "Memory allocation error");
; 1712 : 		return;

  00377	0f 84 ee fc ff
	ff		 je	 $LN130@LoadItemBa

; 1713 : 	}
; 1714 : 
; 1715 : 	TitanItemBag->Init("eventitembag9.txt");

  0037d	68 00 00 00 00	 push	 OFFSET ??_C@_0BC@GENOAABN@eventitembag9?4txt?$AA@
  00382	8b c8		 mov	 ecx, eax
  00384	e8 00 00 00 00	 call	 ?Init@CItemBag@@QAEXPAD@Z ; CItemBag::Init

; 1716 : 
; 1717 : 	if ( GoldDerconItemBag != FALSE )	

  00389	8b 0d 00 00 00
	00		 mov	 ecx, DWORD PTR ?GoldDerconItemBag@@3PAVCItemBag@@A ; GoldDerconItemBag
  0038f	85 c9		 test	 ecx, ecx
  00391	74 08		 je	 SHORT $LN79@LoadItemBa

; 1718 : 	{
; 1719 : 		delete GoldDerconItemBag;

  00393	8b 01		 mov	 eax, DWORD PTR [ecx]
  00395	8b 10		 mov	 edx, DWORD PTR [eax]
  00397	6a 01		 push	 1
  00399	ff d2		 call	 edx
$LN79@LoadItemBa:

; 1720 : 	}
; 1721 : 
; 1722 : 	GoldDerconItemBag = new CItemBag;

  0039b	68 94 03 00 00	 push	 916			; 00000394H
  003a0	e8 00 00 00 00	 call	 ??2@YAPAXI@Z		; operator new
  003a5	83 c4 04	 add	 esp, 4
  003a8	89 45 f0	 mov	 DWORD PTR $T163952[ebp], eax
  003ab	c7 45 fc 0a 00
	00 00		 mov	 DWORD PTR __$EHRec$[ebp+8], 10 ; 0000000aH
  003b2	85 c0		 test	 eax, eax
  003b4	74 09		 je	 SHORT $LN81@LoadItemBa
  003b6	8b c8		 mov	 ecx, eax
  003b8	e8 00 00 00 00	 call	 ??0CItemBag@@QAE@XZ	; CItemBag::CItemBag
  003bd	eb 02		 jmp	 SHORT $LN82@LoadItemBa
$LN81@LoadItemBa:
  003bf	33 c0		 xor	 eax, eax
$LN82@LoadItemBa:
  003c1	89 75 fc	 mov	 DWORD PTR __$EHRec$[ebp+8], esi
  003c4	a3 00 00 00 00	 mov	 DWORD PTR ?GoldDerconItemBag@@3PAVCItemBag@@A, eax ; GoldDerconItemBag

; 1723 : 
; 1724 : 	if ( GoldDerconItemBag == NULL )

  003c9	85 c0		 test	 eax, eax

; 1725 : 	{
; 1726 : 		MsgBox( "CItemBag %s", "Memory allocation error");
; 1727 : 		return;

  003cb	0f 84 9a fc ff
	ff		 je	 $LN130@LoadItemBa

; 1728 : 	}
; 1729 : 
; 1730 : 	GoldDerconItemBag->Init("eventitembag10.txt");

  003d1	68 00 00 00 00	 push	 OFFSET ??_C@_0BD@BDGNLCBB@eventitembag10?4txt?$AA@
  003d6	8b c8		 mov	 ecx, eax
  003d8	e8 00 00 00 00	 call	 ?Init@CItemBag@@QAEXPAD@Z ; CItemBag::Init

; 1731 : 
; 1732 : 	if ( DevilLizardKingItemBag != FALSE )	

  003dd	8b 0d 00 00 00
	00		 mov	 ecx, DWORD PTR ?DevilLizardKingItemBag@@3PAVCItemBag@@A ; DevilLizardKingItemBag
  003e3	85 c9		 test	 ecx, ecx
  003e5	74 08		 je	 SHORT $LN83@LoadItemBa

; 1733 : 	{
; 1734 : 		delete DevilLizardKingItemBag;

  003e7	8b 01		 mov	 eax, DWORD PTR [ecx]
  003e9	8b 10		 mov	 edx, DWORD PTR [eax]
  003eb	6a 01		 push	 1
  003ed	ff d2		 call	 edx
$LN83@LoadItemBa:

; 1735 : 	}
; 1736 : 
; 1737 : 	DevilLizardKingItemBag = new CItemBag;

  003ef	68 94 03 00 00	 push	 916			; 00000394H
  003f4	e8 00 00 00 00	 call	 ??2@YAPAXI@Z		; operator new
  003f9	83 c4 04	 add	 esp, 4
  003fc	89 45 f0	 mov	 DWORD PTR $T163960[ebp], eax
  003ff	c7 45 fc 0b 00
	00 00		 mov	 DWORD PTR __$EHRec$[ebp+8], 11 ; 0000000bH
  00406	85 c0		 test	 eax, eax
  00408	74 09		 je	 SHORT $LN85@LoadItemBa
  0040a	8b c8		 mov	 ecx, eax
  0040c	e8 00 00 00 00	 call	 ??0CItemBag@@QAE@XZ	; CItemBag::CItemBag
  00411	eb 02		 jmp	 SHORT $LN86@LoadItemBa
$LN85@LoadItemBa:
  00413	33 c0		 xor	 eax, eax
$LN86@LoadItemBa:
  00415	89 75 fc	 mov	 DWORD PTR __$EHRec$[ebp+8], esi
  00418	a3 00 00 00 00	 mov	 DWORD PTR ?DevilLizardKingItemBag@@3PAVCItemBag@@A, eax ; DevilLizardKingItemBag

; 1738 : 
; 1739 : 	if ( DevilLizardKingItemBag == NULL )

  0041d	85 c0		 test	 eax, eax

; 1740 : 	{
; 1741 : 		MsgBox( "CItemBag %s", "Memory allocation error");
; 1742 : 		return;

  0041f	0f 84 46 fc ff
	ff		 je	 $LN130@LoadItemBa

; 1743 : 	}
; 1744 : 
; 1745 : 	DevilLizardKingItemBag->Init("eventitembag11.txt");

  00425	68 00 00 00 00	 push	 OFFSET ??_C@_0BD@NIDBGBLE@eventitembag11?4txt?$AA@
  0042a	8b c8		 mov	 ecx, eax
  0042c	e8 00 00 00 00	 call	 ?Init@CItemBag@@QAEXPAD@Z ; CItemBag::Init

; 1746 : 
; 1747 : 	if ( KanturItemBag != FALSE )	

  00431	8b 0d 00 00 00
	00		 mov	 ecx, DWORD PTR ?KanturItemBag@@3PAVCItemBag@@A ; KanturItemBag
  00437	85 c9		 test	 ecx, ecx
  00439	74 08		 je	 SHORT $LN87@LoadItemBa

; 1748 : 	{
; 1749 : 		delete KanturItemBag;

  0043b	8b 01		 mov	 eax, DWORD PTR [ecx]
  0043d	8b 10		 mov	 edx, DWORD PTR [eax]
  0043f	6a 01		 push	 1
  00441	ff d2		 call	 edx
$LN87@LoadItemBa:

; 1750 : 	}
; 1751 : 
; 1752 : 	KanturItemBag = new CItemBag;

  00443	68 94 03 00 00	 push	 916			; 00000394H
  00448	e8 00 00 00 00	 call	 ??2@YAPAXI@Z		; operator new
  0044d	83 c4 04	 add	 esp, 4
  00450	89 45 f0	 mov	 DWORD PTR $T163968[ebp], eax
  00453	c7 45 fc 0c 00
	00 00		 mov	 DWORD PTR __$EHRec$[ebp+8], 12 ; 0000000cH
  0045a	85 c0		 test	 eax, eax
  0045c	74 09		 je	 SHORT $LN89@LoadItemBa
  0045e	8b c8		 mov	 ecx, eax
  00460	e8 00 00 00 00	 call	 ??0CItemBag@@QAE@XZ	; CItemBag::CItemBag
  00465	eb 02		 jmp	 SHORT $LN90@LoadItemBa
$LN89@LoadItemBa:
  00467	33 c0		 xor	 eax, eax
$LN90@LoadItemBa:
  00469	89 75 fc	 mov	 DWORD PTR __$EHRec$[ebp+8], esi
  0046c	a3 00 00 00 00	 mov	 DWORD PTR ?KanturItemBag@@3PAVCItemBag@@A, eax ; KanturItemBag

; 1753 : 
; 1754 : 	if ( KanturItemBag == NULL )

  00471	85 c0		 test	 eax, eax

; 1755 : 	{
; 1756 : 		MsgBox( "CItemBag %s", "Memory allocation error");
; 1757 : 		return;

  00473	0f 84 f2 fb ff
	ff		 je	 $LN130@LoadItemBa

; 1758 : 	}
; 1759 : 
; 1760 : 	KanturItemBag->Init("eventitembag12.txt");

  00479	68 00 00 00 00	 push	 OFFSET ??_C@_0BD@FOKFBDBK@eventitembag12?4txt?$AA@
  0047e	8b c8		 mov	 ecx, eax
  00480	e8 00 00 00 00	 call	 ?Init@CItemBag@@QAEXPAD@Z ; CItemBag::Init

; 1761 : 
; 1762 : 	if ( RingEventItemBag != FALSE )	

  00485	8b 0d 00 00 00
	00		 mov	 ecx, DWORD PTR ?RingEventItemBag@@3PAVCItemBag@@A ; RingEventItemBag
  0048b	85 c9		 test	 ecx, ecx
  0048d	74 08		 je	 SHORT $LN91@LoadItemBa

; 1763 : 	{
; 1764 : 		delete RingEventItemBag;

  0048f	8b 01		 mov	 eax, DWORD PTR [ecx]
  00491	8b 10		 mov	 edx, DWORD PTR [eax]
  00493	6a 01		 push	 1
  00495	ff d2		 call	 edx
$LN91@LoadItemBa:

; 1765 : 	}
; 1766 : 
; 1767 : 	RingEventItemBag = new CItemBag;

  00497	68 94 03 00 00	 push	 916			; 00000394H
  0049c	e8 00 00 00 00	 call	 ??2@YAPAXI@Z		; operator new
  004a1	83 c4 04	 add	 esp, 4
  004a4	89 45 f0	 mov	 DWORD PTR $T163976[ebp], eax
  004a7	c7 45 fc 0d 00
	00 00		 mov	 DWORD PTR __$EHRec$[ebp+8], 13 ; 0000000dH
  004ae	85 c0		 test	 eax, eax
  004b0	74 09		 je	 SHORT $LN93@LoadItemBa
  004b2	8b c8		 mov	 ecx, eax
  004b4	e8 00 00 00 00	 call	 ??0CItemBag@@QAE@XZ	; CItemBag::CItemBag
  004b9	eb 02		 jmp	 SHORT $LN94@LoadItemBa
$LN93@LoadItemBa:
  004bb	33 c0		 xor	 eax, eax
$LN94@LoadItemBa:
  004bd	89 75 fc	 mov	 DWORD PTR __$EHRec$[ebp+8], esi
  004c0	a3 00 00 00 00	 mov	 DWORD PTR ?RingEventItemBag@@3PAVCItemBag@@A, eax ; RingEventItemBag

; 1768 : 
; 1769 : 	if ( RingEventItemBag == NULL )

  004c5	85 c0		 test	 eax, eax

; 1770 : 	{
; 1771 : 		MsgBox( "CItemBag %s", "Memory allocation error");
; 1772 : 		return;

  004c7	0f 84 9e fb ff
	ff		 je	 $LN130@LoadItemBa

; 1773 : 	}
; 1774 : 
; 1775 : 	RingEventItemBag->Init("eventitembag13.txt");

  004cd	68 00 00 00 00	 push	 OFFSET ??_C@_0BD@JFPJMALP@eventitembag13?4txt?$AA@
  004d2	8b c8		 mov	 ecx, eax
  004d4	e8 00 00 00 00	 call	 ?Init@CItemBag@@QAEXPAD@Z ; CItemBag::Init

; 1776 : 
; 1777 : 	if ( FriendShipItemBag != FALSE )	

  004d9	8b 0d 00 00 00
	00		 mov	 ecx, DWORD PTR ?FriendShipItemBag@@3PAVCItemBag@@A ; FriendShipItemBag
  004df	85 c9		 test	 ecx, ecx
  004e1	74 08		 je	 SHORT $LN95@LoadItemBa

; 1778 : 	{
; 1779 : 		delete FriendShipItemBag;

  004e3	8b 01		 mov	 eax, DWORD PTR [ecx]
  004e5	8b 10		 mov	 edx, DWORD PTR [eax]
  004e7	6a 01		 push	 1
  004e9	ff d2		 call	 edx
$LN95@LoadItemBa:

; 1780 : 	}
; 1781 : 
; 1782 : 	FriendShipItemBag = new CItemBag;

  004eb	68 94 03 00 00	 push	 916			; 00000394H
  004f0	e8 00 00 00 00	 call	 ??2@YAPAXI@Z		; operator new
  004f5	83 c4 04	 add	 esp, 4
  004f8	89 45 f0	 mov	 DWORD PTR $T163984[ebp], eax
  004fb	c7 45 fc 0e 00
	00 00		 mov	 DWORD PTR __$EHRec$[ebp+8], 14 ; 0000000eH
  00502	85 c0		 test	 eax, eax
  00504	74 09		 je	 SHORT $LN97@LoadItemBa
  00506	8b c8		 mov	 ecx, eax
  00508	e8 00 00 00 00	 call	 ??0CItemBag@@QAE@XZ	; CItemBag::CItemBag
  0050d	eb 02		 jmp	 SHORT $LN98@LoadItemBa
$LN97@LoadItemBa:
  0050f	33 c0		 xor	 eax, eax
$LN98@LoadItemBa:
  00511	89 75 fc	 mov	 DWORD PTR __$EHRec$[ebp+8], esi
  00514	a3 00 00 00 00	 mov	 DWORD PTR ?FriendShipItemBag@@3PAVCItemBag@@A, eax ; FriendShipItemBag

; 1783 : 
; 1784 : 	if ( FriendShipItemBag == NULL )

  00519	85 c0		 test	 eax, eax

; 1785 : 	{
; 1786 : 		MsgBox( "CItemBag %s", "Memory allocation error");
; 1787 : 		return;

  0051b	0f 84 4a fb ff
	ff		 je	 $LN130@LoadItemBa

; 1788 : 	}
; 1789 : 
; 1790 : 	FriendShipItemBag->Init("eventitembag14.txt");

  00521	68 00 00 00 00	 push	 OFFSET ??_C@_0BD@IIPMPAAH@eventitembag14?4txt?$AA@
  00526	8b c8		 mov	 ecx, eax
  00528	e8 00 00 00 00	 call	 ?Init@CItemBag@@QAEXPAD@Z ; CItemBag::Init

; 1791 : 
; 1792 : 	if ( DarkLordHeartItemBag != FALSE )	

  0052d	8b 0d 00 00 00
	00		 mov	 ecx, DWORD PTR ?DarkLordHeartItemBag@@3PAVCItemBag@@A ; DarkLordHeartItemBag
  00533	85 c9		 test	 ecx, ecx
  00535	74 08		 je	 SHORT $LN99@LoadItemBa

; 1793 : 	{
; 1794 : 		delete DarkLordHeartItemBag;

  00537	8b 01		 mov	 eax, DWORD PTR [ecx]
  00539	8b 10		 mov	 edx, DWORD PTR [eax]
  0053b	6a 01		 push	 1
  0053d	ff d2		 call	 edx
$LN99@LoadItemBa:

; 1795 : 	}
; 1796 : 
; 1797 : 	DarkLordHeartItemBag = new CItemBag;

  0053f	68 94 03 00 00	 push	 916			; 00000394H
  00544	e8 00 00 00 00	 call	 ??2@YAPAXI@Z		; operator new
  00549	83 c4 04	 add	 esp, 4
  0054c	89 45 f0	 mov	 DWORD PTR $T163992[ebp], eax
  0054f	c7 45 fc 0f 00
	00 00		 mov	 DWORD PTR __$EHRec$[ebp+8], 15 ; 0000000fH
  00556	85 c0		 test	 eax, eax
  00558	74 09		 je	 SHORT $LN101@LoadItemBa
  0055a	8b c8		 mov	 ecx, eax
  0055c	e8 00 00 00 00	 call	 ??0CItemBag@@QAE@XZ	; CItemBag::CItemBag
  00561	eb 02		 jmp	 SHORT $LN102@LoadItemBa
$LN101@LoadItemBa:
  00563	33 c0		 xor	 eax, eax
$LN102@LoadItemBa:
  00565	89 75 fc	 mov	 DWORD PTR __$EHRec$[ebp+8], esi
  00568	a3 00 00 00 00	 mov	 DWORD PTR ?DarkLordHeartItemBag@@3PAVCItemBag@@A, eax ; DarkLordHeartItemBag

; 1798 : 
; 1799 : 	if ( DarkLordHeartItemBag == NULL )

  0056d	85 c0		 test	 eax, eax

; 1800 : 	{
; 1801 : 		MsgBox( "CItemBag %s", "Memory allocation error");
; 1802 : 		return;

  0056f	0f 84 f6 fa ff
	ff		 je	 $LN130@LoadItemBa

; 1803 : 	}
; 1804 : 
; 1805 : 	DarkLordHeartItemBag->Init("eventitembag15.txt");

  00575	68 00 00 00 00	 push	 OFFSET ??_C@_0BD@EDKACDKC@eventitembag15?4txt?$AA@
  0057a	8b c8		 mov	 ecx, eax
  0057c	e8 00 00 00 00	 call	 ?Init@CItemBag@@QAEXPAD@Z ; CItemBag::Init

; 1806 : 
; 1807 : 	if ( KundunEventItemBag != FALSE )	

  00581	8b 0d 00 00 00
	00		 mov	 ecx, DWORD PTR ?KundunEventItemBag@@3PAVCItemBagEx@@A ; KundunEventItemBag
  00587	85 c9		 test	 ecx, ecx
  00589	74 08		 je	 SHORT $LN103@LoadItemBa

; 1808 : 	{
; 1809 : 		delete KundunEventItemBag;

  0058b	8b 01		 mov	 eax, DWORD PTR [ecx]
  0058d	8b 10		 mov	 edx, DWORD PTR [eax]
  0058f	6a 01		 push	 1
  00591	ff d2		 call	 edx
$LN103@LoadItemBa:

; 1810 : 	}
; 1811 : 
; 1812 : 	KundunEventItemBag = new CItemBagEx;

  00593	68 4c 06 00 00	 push	 1612			; 0000064cH
  00598	e8 00 00 00 00	 call	 ??2@YAPAXI@Z		; operator new
  0059d	83 c4 04	 add	 esp, 4
  005a0	89 45 f0	 mov	 DWORD PTR $T164000[ebp], eax
  005a3	c7 45 fc 10 00
	00 00		 mov	 DWORD PTR __$EHRec$[ebp+8], 16 ; 00000010H
  005aa	85 c0		 test	 eax, eax
  005ac	74 09		 je	 SHORT $LN105@LoadItemBa
  005ae	8b c8		 mov	 ecx, eax
  005b0	e8 00 00 00 00	 call	 ??0CItemBagEx@@QAE@XZ	; CItemBagEx::CItemBagEx
  005b5	eb 02		 jmp	 SHORT $LN106@LoadItemBa
$LN105@LoadItemBa:
  005b7	33 c0		 xor	 eax, eax
$LN106@LoadItemBa:
  005b9	89 75 fc	 mov	 DWORD PTR __$EHRec$[ebp+8], esi
  005bc	a3 00 00 00 00	 mov	 DWORD PTR ?KundunEventItemBag@@3PAVCItemBagEx@@A, eax ; KundunEventItemBag

; 1813 : 
; 1814 : 	if ( KundunEventItemBag == NULL )

  005c1	85 c0		 test	 eax, eax

; 1815 : 	{
; 1816 : 		MsgBox( "CItemBag %s", "Memory allocation error");
; 1817 : 		return;

  005c3	0f 84 a2 fa ff
	ff		 je	 $LN130@LoadItemBa

; 1818 : 	}
; 1819 : 
; 1820 : 	KundunEventItemBag->Init("eventitembag17.txt");

  005c9	68 00 00 00 00	 push	 OFFSET ??_C@_0BD@OGIICKJ@eventitembag17?4txt?$AA@
  005ce	8b c8		 mov	 ecx, eax
  005d0	e8 00 00 00 00	 call	 ?Init@CItemBagEx@@QAEXPAD@Z ; CItemBagEx::Init

; 1821 : 
; 1822 : #if GS_CASTLE == 1
; 1823 : 	if ( CastleHuntZoneBossItemBag != NULL)
; 1824 : 		delete CastleHuntZoneBossItemBag;
; 1825 : 
; 1826 : 	CastleHuntZoneBossItemBag = new CItemBagEx;
; 1827 : 	if ( CastleHuntZoneBossItemBag == NULL )
; 1828 : 	{
; 1829 : 		// Memory allocation error
; 1830 : 		MsgBox("CItemBag %s", "Memory allocation error");
; 1831 : 		return;
; 1832 : 	}
; 1833 : 
; 1834 : 	CastleHuntZoneBossItemBag->Init("eventitembag18.txt");
; 1835 : 
; 1836 : 	if ( CastleItemMixItemBag != NULL)
; 1837 : 		delete CastleItemMixItemBag;
; 1838 : 
; 1839 : 	CastleItemMixItemBag = new CItemBagEx;
; 1840 : 	if ( CastleItemMixItemBag == NULL )
; 1841 : 	{
; 1842 : 		// Memory allocation error
; 1843 : 		MsgBox("CItemBag %s", "Memory allocation error");
; 1844 : 		return;
; 1845 : 	}
; 1846 : 
; 1847 : 	CastleItemMixItemBag->Init("eventitembag19.txt");
; 1848 : #endif
; 1849 : 
; 1850 : 	if ( HiddenTreasureBoxItemBag != NULL )

  005d5	8b 0d 00 00 00
	00		 mov	 ecx, DWORD PTR ?HiddenTreasureBoxItemBag@@3PAVCItemBagEx@@A ; HiddenTreasureBoxItemBag
  005db	85 c9		 test	 ecx, ecx
  005dd	74 08		 je	 SHORT $LN107@LoadItemBa

; 1851 : 		delete HiddenTreasureBoxItemBag;

  005df	8b 01		 mov	 eax, DWORD PTR [ecx]
  005e1	8b 10		 mov	 edx, DWORD PTR [eax]
  005e3	6a 01		 push	 1
  005e5	ff d2		 call	 edx
$LN107@LoadItemBa:

; 1852 : 
; 1853 : 	HiddenTreasureBoxItemBag = new CItemBagEx; 

  005e7	68 4c 06 00 00	 push	 1612			; 0000064cH
  005ec	e8 00 00 00 00	 call	 ??2@YAPAXI@Z		; operator new
  005f1	83 c4 04	 add	 esp, 4
  005f4	89 45 f0	 mov	 DWORD PTR $T164008[ebp], eax
  005f7	c7 45 fc 11 00
	00 00		 mov	 DWORD PTR __$EHRec$[ebp+8], 17 ; 00000011H
  005fe	85 c0		 test	 eax, eax
  00600	74 09		 je	 SHORT $LN109@LoadItemBa
  00602	8b c8		 mov	 ecx, eax
  00604	e8 00 00 00 00	 call	 ??0CItemBagEx@@QAE@XZ	; CItemBagEx::CItemBagEx
  00609	eb 02		 jmp	 SHORT $LN110@LoadItemBa
$LN109@LoadItemBa:
  0060b	33 c0		 xor	 eax, eax
$LN110@LoadItemBa:
  0060d	89 75 fc	 mov	 DWORD PTR __$EHRec$[ebp+8], esi
  00610	a3 00 00 00 00	 mov	 DWORD PTR ?HiddenTreasureBoxItemBag@@3PAVCItemBagEx@@A, eax ; HiddenTreasureBoxItemBag

; 1854 : 	if ( HiddenTreasureBoxItemBag == NULL )

  00615	85 c0		 test	 eax, eax

; 1855 : 	{
; 1856 : 		// Memory allocation error
; 1857 : 		MsgBox("CItemBag %s", "Memory allocation error");
; 1858 : 		return;

  00617	0f 84 4e fa ff
	ff		 je	 $LN130@LoadItemBa

; 1859 : 	}
; 1860 : 
; 1861 : 	HiddenTreasureBoxItemBag->Init("eventitembag20.txt");

  0061d	68 00 00 00 00	 push	 OFFSET ??_C@_0BD@CCIFKIIM@eventitembag20?4txt?$AA@
  00622	8b c8		 mov	 ecx, eax
  00624	e8 00 00 00 00	 call	 ?Init@CItemBagEx@@QAEXPAD@Z ; CItemBagEx::Init

; 1862 : }

  00629	8b 4d f4	 mov	 ecx, DWORD PTR __$EHRec$[ebp]
  0062c	64 89 0d 00 00
	00 00		 mov	 DWORD PTR fs:0, ecx
  00633	59		 pop	 ecx
  00634	5e		 pop	 esi
  00635	8b e5		 mov	 esp, ebp
  00637	5d		 pop	 ebp
  00638	c3		 ret	 0
_TEXT	ENDS
;	COMDAT text$x
text$x	SEGMENT
__unwindfunclet$?LoadItemBag@@YAXXZ$0:
  00000	8b 45 f0	 mov	 eax, DWORD PTR $T163872[ebp]
  00003	50		 push	 eax
  00004	e8 00 00 00 00	 call	 ??3@YAXPAX@Z		; operator delete
  00009	59		 pop	 ecx
  0000a	c3		 ret	 0
__unwindfunclet$?LoadItemBag@@YAXXZ$1:
  0000b	8b 45 f0	 mov	 eax, DWORD PTR $T163880[ebp]
  0000e	50		 push	 eax
  0000f	e8 00 00 00 00	 call	 ??3@YAXPAX@Z		; operator delete
  00014	59		 pop	 ecx
  00015	c3		 ret	 0
__unwindfunclet$?LoadItemBag@@YAXXZ$2:
  00016	8b 45 f0	 mov	 eax, DWORD PTR $T163888[ebp]
  00019	50		 push	 eax
  0001a	e8 00 00 00 00	 call	 ??3@YAXPAX@Z		; operator delete
  0001f	59		 pop	 ecx
  00020	c3		 ret	 0
__unwindfunclet$?LoadItemBag@@YAXXZ$3:
  00021	8b 45 f0	 mov	 eax, DWORD PTR $T163896[ebp]
  00024	50		 push	 eax
  00025	e8 00 00 00 00	 call	 ??3@YAXPAX@Z		; operator delete
  0002a	59		 pop	 ecx
  0002b	c3		 ret	 0
__unwindfunclet$?LoadItemBag@@YAXXZ$4:
  0002c	8b 45 f0	 mov	 eax, DWORD PTR $T163904[ebp]
  0002f	50		 push	 eax
  00030	e8 00 00 00 00	 call	 ??3@YAXPAX@Z		; operator delete
  00035	59		 pop	 ecx
  00036	c3		 ret	 0
__unwindfunclet$?LoadItemBag@@YAXXZ$5:
  00037	8b 45 f0	 mov	 eax, DWORD PTR $T163912[ebp]
  0003a	50		 push	 eax
  0003b	e8 00 00 00 00	 call	 ??3@YAXPAX@Z		; operator delete
  00040	59		 pop	 ecx
  00041	c3		 ret	 0
__unwindfunclet$?LoadItemBag@@YAXXZ$6:
  00042	8b 45 f0	 mov	 eax, DWORD PTR $T163920[ebp]
  00045	50		 push	 eax
  00046	e8 00 00 00 00	 call	 ??3@YAXPAX@Z		; operator delete
  0004b	59		 pop	 ecx
  0004c	c3		 ret	 0
__unwindfunclet$?LoadItemBag@@YAXXZ$7:
  0004d	8b 45 f0	 mov	 eax, DWORD PTR $T163928[ebp]
  00050	50		 push	 eax
  00051	e8 00 00 00 00	 call	 ??3@YAXPAX@Z		; operator delete
  00056	59		 pop	 ecx
  00057	c3		 ret	 0
__unwindfunclet$?LoadItemBag@@YAXXZ$8:
  00058	8b 45 f0	 mov	 eax, DWORD PTR $T163936[ebp]
  0005b	50		 push	 eax
  0005c	e8 00 00 00 00	 call	 ??3@YAXPAX@Z		; operator delete
  00061	59		 pop	 ecx
  00062	c3		 ret	 0
__unwindfunclet$?LoadItemBag@@YAXXZ$9:
  00063	8b 45 f0	 mov	 eax, DWORD PTR $T163944[ebp]
  00066	50		 push	 eax
  00067	e8 00 00 00 00	 call	 ??3@YAXPAX@Z		; operator delete
  0006c	59		 pop	 ecx
  0006d	c3		 ret	 0
__unwindfunclet$?LoadItemBag@@YAXXZ$10:
  0006e	8b 45 f0	 mov	 eax, DWORD PTR $T163952[ebp]
  00071	50		 push	 eax
  00072	e8 00 00 00 00	 call	 ??3@YAXPAX@Z		; operator delete
  00077	59		 pop	 ecx
  00078	c3		 ret	 0
__unwindfunclet$?LoadItemBag@@YAXXZ$11:
  00079	8b 45 f0	 mov	 eax, DWORD PTR $T163960[ebp]
  0007c	50		 push	 eax
  0007d	e8 00 00 00 00	 call	 ??3@YAXPAX@Z		; operator delete
  00082	59		 pop	 ecx
  00083	c3		 ret	 0
__unwindfunclet$?LoadItemBag@@YAXXZ$12:
  00084	8b 45 f0	 mov	 eax, DWORD PTR $T163968[ebp]
  00087	50		 push	 eax
  00088	e8 00 00 00 00	 call	 ??3@YAXPAX@Z		; operator delete
  0008d	59		 pop	 ecx
  0008e	c3		 ret	 0
__unwindfunclet$?LoadItemBag@@YAXXZ$13:
  0008f	8b 45 f0	 mov	 eax, DWORD PTR $T163976[ebp]
  00092	50		 push	 eax
  00093	e8 00 00 00 00	 call	 ??3@YAXPAX@Z		; operator delete
  00098	59		 pop	 ecx
  00099	c3		 ret	 0
__unwindfunclet$?LoadItemBag@@YAXXZ$14:
  0009a	8b 45 f0	 mov	 eax, DWORD PTR $T163984[ebp]
  0009d	50		 push	 eax
  0009e	e8 00 00 00 00	 call	 ??3@YAXPAX@Z		; operator delete
  000a3	59		 pop	 ecx
  000a4	c3		 ret	 0
__unwindfunclet$?LoadItemBag@@YAXXZ$15:
  000a5	8b 45 f0	 mov	 eax, DWORD PTR $T163992[ebp]
  000a8	50		 push	 eax
  000a9	e8 00 00 00 00	 call	 ??3@YAXPAX@Z		; operator delete
  000ae	59		 pop	 ecx
  000af	c3		 ret	 0
__unwindfunclet$?LoadItemBag@@YAXXZ$16:
  000b0	8b 45 f0	 mov	 eax, DWORD PTR $T164000[ebp]
  000b3	50		 push	 eax
  000b4	e8 00 00 00 00	 call	 ??3@YAXPAX@Z		; operator delete
  000b9	59		 pop	 ecx
  000ba	c3		 ret	 0
__unwindfunclet$?LoadItemBag@@YAXXZ$17:
  000bb	8b 45 f0	 mov	 eax, DWORD PTR $T164008[ebp]
  000be	50		 push	 eax
  000bf	e8 00 00 00 00	 call	 ??3@YAXPAX@Z		; operator delete
  000c4	59		 pop	 ecx
  000c5	c3		 ret	 0
__ehhandler$?LoadItemBag@@YAXXZ:
  000c6	8b 54 24 08	 mov	 edx, DWORD PTR [esp+8]
  000ca	8d 42 0c	 lea	 eax, DWORD PTR [edx+12]
  000cd	8b 4a f4	 mov	 ecx, DWORD PTR [edx-12]
  000d0	33 c8		 xor	 ecx, eax
  000d2	e8 00 00 00 00	 call	 @__security_check_cookie@4
  000d7	b8 00 00 00 00	 mov	 eax, OFFSET __ehfuncinfo$?LoadItemBag@@YAXXZ
  000dc	e9 00 00 00 00	 jmp	 ___CxxFrameHandler3
text$x	ENDS
?LoadItemBag@@YAXXZ ENDP				; LoadItemBag
PUBLIC	??_C@_01DHDKHMHF@6?$AA@				; `string'
PUBLIC	??_C@_01BMBHCPLG@5?$AA@				; `string'
PUBLIC	??_C@_01FAMBOPH@4?$AA@				; `string'
PUBLIC	??_C@_01EKENIIDA@3?$AA@				; `string'
PUBLIC	??_C@_01FDFGLJHB@2?$AA@				; `string'
PUBLIC	??_C@_01HIHLOKLC@1?$AA@				; `string'
PUBLIC	??_C@_08NKCLJDKG@Reserved?$AA@			; `string'
PUBLIC	?SetMapName@@YAXXZ				; SetMapName
;	COMDAT ??_C@_01DHDKHMHF@6?$AA@
CONST	SEGMENT
??_C@_01DHDKHMHF@6?$AA@ DB '6', 00H			; `string'
CONST	ENDS
;	COMDAT ??_C@_01BMBHCPLG@5?$AA@
CONST	SEGMENT
??_C@_01BMBHCPLG@5?$AA@ DB '5', 00H			; `string'
CONST	ENDS
;	COMDAT ??_C@_01FAMBOPH@4?$AA@
CONST	SEGMENT
??_C@_01FAMBOPH@4?$AA@ DB '4', 00H			; `string'
CONST	ENDS
;	COMDAT ??_C@_01EKENIIDA@3?$AA@
CONST	SEGMENT
??_C@_01EKENIIDA@3?$AA@ DB '3', 00H			; `string'
CONST	ENDS
;	COMDAT ??_C@_01FDFGLJHB@2?$AA@
CONST	SEGMENT
??_C@_01FDFGLJHB@2?$AA@ DB '2', 00H			; `string'
CONST	ENDS
;	COMDAT ??_C@_01HIHLOKLC@1?$AA@
CONST	SEGMENT
??_C@_01HIHLOKLC@1?$AA@ DB '1', 00H			; `string'
CONST	ENDS
;	COMDAT ??_C@_08NKCLJDKG@Reserved?$AA@
CONST	SEGMENT
??_C@_08NKCLJDKG@Reserved?$AA@ DB 'Reserved', 00H	; `string'
; Function compile flags: /Ogtp
CONST	ENDS
;	COMDAT ?SetMapName@@YAXXZ
_TEXT	SEGMENT
?SetMapName@@YAXXZ PROC					; SetMapName, COMDAT

; 1868 : 	strcpy(gMapName[0], lMsg.Get(MSGGET(7,208)));

  00000	68 d0 07 00 00	 push	 2000			; 000007d0H
  00005	b9 00 00 00 00	 mov	 ecx, OFFSET ?lMsg@@3VCMsg@@A ; lMsg
  0000a	e8 00 00 00 00	 call	 ?Get@CMsg@@QAEPADH@Z	; CMsg::Get
  0000f	ba 00 00 00 00	 mov	 edx, OFFSET ?gMapName@@3PAY0PP@DA ; gMapName
  00014	2b d0		 sub	 edx, eax
$LL3@SetMapName:
  00016	8a 08		 mov	 cl, BYTE PTR [eax]
  00018	88 0c 02	 mov	 BYTE PTR [edx+eax], cl
  0001b	40		 inc	 eax
  0001c	84 c9		 test	 cl, cl
  0001e	75 f6		 jne	 SHORT $LL3@SetMapName

; 1869 : 	strcpy(gMapName[1], lMsg.Get(MSGGET(7,209)));

  00020	68 d1 07 00 00	 push	 2001			; 000007d1H
  00025	b9 00 00 00 00	 mov	 ecx, OFFSET ?lMsg@@3VCMsg@@A ; lMsg
  0002a	e8 00 00 00 00	 call	 ?Get@CMsg@@QAEPADH@Z	; CMsg::Get
  0002f	ba ff 00 00 00	 mov	 edx, OFFSET ?gMapName@@3PAY0PP@DA+255
  00034	2b d0		 sub	 edx, eax
$LL4@SetMapName:
  00036	8a 08		 mov	 cl, BYTE PTR [eax]
  00038	88 0c 02	 mov	 BYTE PTR [edx+eax], cl
  0003b	40		 inc	 eax
  0003c	84 c9		 test	 cl, cl
  0003e	75 f6		 jne	 SHORT $LL4@SetMapName

; 1870 : 	strcpy(gMapName[2], lMsg.Get(MSGGET(7,210)));

  00040	68 d2 07 00 00	 push	 2002			; 000007d2H
  00045	b9 00 00 00 00	 mov	 ecx, OFFSET ?lMsg@@3VCMsg@@A ; lMsg
  0004a	e8 00 00 00 00	 call	 ?Get@CMsg@@QAEPADH@Z	; CMsg::Get
  0004f	ba fe 01 00 00	 mov	 edx, OFFSET ?gMapName@@3PAY0PP@DA+510
  00054	2b d0		 sub	 edx, eax
$LL5@SetMapName:
  00056	8a 08		 mov	 cl, BYTE PTR [eax]
  00058	88 0c 02	 mov	 BYTE PTR [edx+eax], cl
  0005b	40		 inc	 eax
  0005c	84 c9		 test	 cl, cl
  0005e	75 f6		 jne	 SHORT $LL5@SetMapName

; 1871 : 	strcpy(gMapName[3], lMsg.Get(MSGGET(7,211)));

  00060	68 d3 07 00 00	 push	 2003			; 000007d3H
  00065	b9 00 00 00 00	 mov	 ecx, OFFSET ?lMsg@@3VCMsg@@A ; lMsg
  0006a	e8 00 00 00 00	 call	 ?Get@CMsg@@QAEPADH@Z	; CMsg::Get
  0006f	ba fd 02 00 00	 mov	 edx, OFFSET ?gMapName@@3PAY0PP@DA+765
  00074	2b d0		 sub	 edx, eax
$LL6@SetMapName:
  00076	8a 08		 mov	 cl, BYTE PTR [eax]
  00078	88 0c 02	 mov	 BYTE PTR [edx+eax], cl
  0007b	40		 inc	 eax
  0007c	84 c9		 test	 cl, cl
  0007e	75 f6		 jne	 SHORT $LL6@SetMapName

; 1872 : 	strcpy(gMapName[4], lMsg.Get(MSGGET(7,212)));

  00080	68 d4 07 00 00	 push	 2004			; 000007d4H
  00085	b9 00 00 00 00	 mov	 ecx, OFFSET ?lMsg@@3VCMsg@@A ; lMsg
  0008a	e8 00 00 00 00	 call	 ?Get@CMsg@@QAEPADH@Z	; CMsg::Get
  0008f	ba fc 03 00 00	 mov	 edx, OFFSET ?gMapName@@3PAY0PP@DA+1020
  00094	2b d0		 sub	 edx, eax
$LL7@SetMapName:
  00096	8a 08		 mov	 cl, BYTE PTR [eax]
  00098	88 0c 02	 mov	 BYTE PTR [edx+eax], cl
  0009b	40		 inc	 eax
  0009c	84 c9		 test	 cl, cl
  0009e	75 f6		 jne	 SHORT $LL7@SetMapName

; 1873 : 	strcpy(gMapName[5], "Reserved");

  000a0	8b 0d 04 00 00
	00		 mov	 ecx, DWORD PTR ??_C@_08NKCLJDKG@Reserved?$AA@+4
  000a6	a1 00 00 00 00	 mov	 eax, DWORD PTR ??_C@_08NKCLJDKG@Reserved?$AA@
  000ab	8a 15 08 00 00
	00		 mov	 dl, BYTE PTR ??_C@_08NKCLJDKG@Reserved?$AA@+8
  000b1	89 0d ff 04 00
	00		 mov	 DWORD PTR ?gMapName@@3PAY0PP@DA+1279, ecx

; 1874 : 	strcpy(gMapName[6], lMsg.Get(MSGGET(7,214)));

  000b7	68 d6 07 00 00	 push	 2006			; 000007d6H
  000bc	b9 00 00 00 00	 mov	 ecx, OFFSET ?lMsg@@3VCMsg@@A ; lMsg
  000c1	a3 fb 04 00 00	 mov	 DWORD PTR ?gMapName@@3PAY0PP@DA+1275, eax
  000c6	88 15 03 05 00
	00		 mov	 BYTE PTR ?gMapName@@3PAY0PP@DA+1283, dl
  000cc	e8 00 00 00 00	 call	 ?Get@CMsg@@QAEPADH@Z	; CMsg::Get
  000d1	ba fa 05 00 00	 mov	 edx, OFFSET ?gMapName@@3PAY0PP@DA+1530
  000d6	2b d0		 sub	 edx, eax
$LL8@SetMapName:
  000d8	8a 08		 mov	 cl, BYTE PTR [eax]
  000da	88 0c 02	 mov	 BYTE PTR [edx+eax], cl
  000dd	40		 inc	 eax
  000de	84 c9		 test	 cl, cl
  000e0	75 f6		 jne	 SHORT $LL8@SetMapName

; 1875 : 	strcpy(gMapName[7], lMsg.Get(MSGGET(7,213)));

  000e2	68 d5 07 00 00	 push	 2005			; 000007d5H
  000e7	b9 00 00 00 00	 mov	 ecx, OFFSET ?lMsg@@3VCMsg@@A ; lMsg
  000ec	e8 00 00 00 00	 call	 ?Get@CMsg@@QAEPADH@Z	; CMsg::Get
  000f1	ba f9 06 00 00	 mov	 edx, OFFSET ?gMapName@@3PAY0PP@DA+1785
  000f6	2b d0		 sub	 edx, eax
$LL9@SetMapName:
  000f8	8a 08		 mov	 cl, BYTE PTR [eax]
  000fa	88 0c 02	 mov	 BYTE PTR [edx+eax], cl
  000fd	40		 inc	 eax
  000fe	84 c9		 test	 cl, cl
  00100	75 f6		 jne	 SHORT $LL9@SetMapName

; 1876 : 	strcpy(gMapName[8], lMsg.Get(MSGGET(7,216)));

  00102	68 d8 07 00 00	 push	 2008			; 000007d8H
  00107	b9 00 00 00 00	 mov	 ecx, OFFSET ?lMsg@@3VCMsg@@A ; lMsg
  0010c	e8 00 00 00 00	 call	 ?Get@CMsg@@QAEPADH@Z	; CMsg::Get
  00111	ba f8 07 00 00	 mov	 edx, OFFSET ?gMapName@@3PAY0PP@DA+2040
  00116	2b d0		 sub	 edx, eax
$LL10@SetMapName:
  00118	8a 08		 mov	 cl, BYTE PTR [eax]
  0011a	88 0c 02	 mov	 BYTE PTR [edx+eax], cl
  0011d	40		 inc	 eax
  0011e	84 c9		 test	 cl, cl
  00120	75 f6		 jne	 SHORT $LL10@SetMapName

; 1877 : 	strcpy(gMapName[9], lMsg.Get(MSGGET(7,217)));

  00122	68 d9 07 00 00	 push	 2009			; 000007d9H
  00127	b9 00 00 00 00	 mov	 ecx, OFFSET ?lMsg@@3VCMsg@@A ; lMsg
  0012c	e8 00 00 00 00	 call	 ?Get@CMsg@@QAEPADH@Z	; CMsg::Get
  00131	ba f7 08 00 00	 mov	 edx, OFFSET ?gMapName@@3PAY0PP@DA+2295
  00136	2b d0		 sub	 edx, eax
$LL11@SetMapName:
  00138	8a 08		 mov	 cl, BYTE PTR [eax]
  0013a	88 0c 02	 mov	 BYTE PTR [edx+eax], cl
  0013d	40		 inc	 eax
  0013e	84 c9		 test	 cl, cl
  00140	75 f6		 jne	 SHORT $LL11@SetMapName

; 1878 : 	strcpy(gMapName[10], lMsg.Get(MSGGET(7,221)));

  00142	68 dd 07 00 00	 push	 2013			; 000007ddH
  00147	b9 00 00 00 00	 mov	 ecx, OFFSET ?lMsg@@3VCMsg@@A ; lMsg
  0014c	e8 00 00 00 00	 call	 ?Get@CMsg@@QAEPADH@Z	; CMsg::Get
  00151	ba f6 09 00 00	 mov	 edx, OFFSET ?gMapName@@3PAY0PP@DA+2550
  00156	2b d0		 sub	 edx, eax
$LL12@SetMapName:
  00158	8a 08		 mov	 cl, BYTE PTR [eax]
  0015a	88 0c 02	 mov	 BYTE PTR [edx+eax], cl
  0015d	40		 inc	 eax
  0015e	84 c9		 test	 cl, cl
  00160	75 f6		 jne	 SHORT $LL12@SetMapName

; 1879 : 	strcpy(gMapName[11], lMsg.Get(MSGGET(7,222)));

  00162	68 de 07 00 00	 push	 2014			; 000007deH
  00167	b9 00 00 00 00	 mov	 ecx, OFFSET ?lMsg@@3VCMsg@@A ; lMsg
  0016c	e8 00 00 00 00	 call	 ?Get@CMsg@@QAEPADH@Z	; CMsg::Get
  00171	ba f5 0a 00 00	 mov	 edx, OFFSET ?gMapName@@3PAY0PP@DA+2805
  00176	2b d0		 sub	 edx, eax
$LL13@SetMapName:
  00178	8a 08		 mov	 cl, BYTE PTR [eax]
  0017a	88 0c 02	 mov	 BYTE PTR [edx+eax], cl
  0017d	40		 inc	 eax
  0017e	84 c9		 test	 cl, cl
  00180	75 f6		 jne	 SHORT $LL13@SetMapName

; 1880 : 	strcat(gMapName[11], "1");

  00182	57		 push	 edi
  00183	bf f5 0a 00 00	 mov	 edi, OFFSET ?gMapName@@3PAY0PP@DA+2805
  00188	4f		 dec	 edi
  00189	8d a4 24 00 00
	00 00		 npad	 7
$LL35@SetMapName:
  00190	8a 47 01	 mov	 al, BYTE PTR [edi+1]
  00193	47		 inc	 edi
  00194	84 c0		 test	 al, al
  00196	75 f8		 jne	 SHORT $LL35@SetMapName
  00198	66 a1 00 00 00
	00		 mov	 ax, WORD PTR ??_C@_01HIHLOKLC@1?$AA@

; 1881 : 	strcpy(gMapName[12], lMsg.Get(MSGGET(7,222)));

  0019e	68 de 07 00 00	 push	 2014			; 000007deH
  001a3	b9 00 00 00 00	 mov	 ecx, OFFSET ?lMsg@@3VCMsg@@A ; lMsg
  001a8	66 89 07	 mov	 WORD PTR [edi], ax
  001ab	e8 00 00 00 00	 call	 ?Get@CMsg@@QAEPADH@Z	; CMsg::Get
  001b0	ba f4 0b 00 00	 mov	 edx, OFFSET ?gMapName@@3PAY0PP@DA+3060
  001b5	2b d0		 sub	 edx, eax
$LL14@SetMapName:
  001b7	8a 08		 mov	 cl, BYTE PTR [eax]
  001b9	88 0c 02	 mov	 BYTE PTR [edx+eax], cl
  001bc	40		 inc	 eax
  001bd	84 c9		 test	 cl, cl
  001bf	75 f6		 jne	 SHORT $LL14@SetMapName

; 1882 : 	strcat(gMapName[12], "2");

  001c1	bf f4 0b 00 00	 mov	 edi, OFFSET ?gMapName@@3PAY0PP@DA+3060
  001c6	4f		 dec	 edi
$LL36@SetMapName:
  001c7	8a 47 01	 mov	 al, BYTE PTR [edi+1]
  001ca	47		 inc	 edi
  001cb	84 c0		 test	 al, al
  001cd	75 f8		 jne	 SHORT $LL36@SetMapName
  001cf	66 8b 0d 00 00
	00 00		 mov	 cx, WORD PTR ??_C@_01FDFGLJHB@2?$AA@
  001d6	66 89 0f	 mov	 WORD PTR [edi], cx

; 1883 : 	strcpy(gMapName[13], lMsg.Get(MSGGET(7,222)));

  001d9	68 de 07 00 00	 push	 2014			; 000007deH
  001de	b9 00 00 00 00	 mov	 ecx, OFFSET ?lMsg@@3VCMsg@@A ; lMsg
  001e3	e8 00 00 00 00	 call	 ?Get@CMsg@@QAEPADH@Z	; CMsg::Get
  001e8	ba f3 0c 00 00	 mov	 edx, OFFSET ?gMapName@@3PAY0PP@DA+3315
  001ed	2b d0		 sub	 edx, eax
  001ef	90		 npad	 1
$LL15@SetMapName:
  001f0	8a 08		 mov	 cl, BYTE PTR [eax]
  001f2	88 0c 02	 mov	 BYTE PTR [edx+eax], cl
  001f5	40		 inc	 eax
  001f6	84 c9		 test	 cl, cl
  001f8	75 f6		 jne	 SHORT $LL15@SetMapName

; 1884 : 	strcat(gMapName[13], "3");

  001fa	bf f3 0c 00 00	 mov	 edi, OFFSET ?gMapName@@3PAY0PP@DA+3315
  001ff	4f		 dec	 edi
$LL37@SetMapName:
  00200	8a 47 01	 mov	 al, BYTE PTR [edi+1]
  00203	47		 inc	 edi
  00204	84 c0		 test	 al, al
  00206	75 f8		 jne	 SHORT $LL37@SetMapName
  00208	66 8b 15 00 00
	00 00		 mov	 dx, WORD PTR ??_C@_01EKENIIDA@3?$AA@

; 1885 : 	strcpy(gMapName[14], lMsg.Get(MSGGET(7,222)));

  0020f	68 de 07 00 00	 push	 2014			; 000007deH
  00214	b9 00 00 00 00	 mov	 ecx, OFFSET ?lMsg@@3VCMsg@@A ; lMsg
  00219	66 89 17	 mov	 WORD PTR [edi], dx
  0021c	e8 00 00 00 00	 call	 ?Get@CMsg@@QAEPADH@Z	; CMsg::Get
  00221	ba f2 0d 00 00	 mov	 edx, OFFSET ?gMapName@@3PAY0PP@DA+3570
  00226	2b d0		 sub	 edx, eax
$LL16@SetMapName:
  00228	8a 08		 mov	 cl, BYTE PTR [eax]
  0022a	88 0c 02	 mov	 BYTE PTR [edx+eax], cl
  0022d	40		 inc	 eax
  0022e	84 c9		 test	 cl, cl
  00230	75 f6		 jne	 SHORT $LL16@SetMapName

; 1886 : 	strcat(gMapName[14], "4");

  00232	bf f2 0d 00 00	 mov	 edi, OFFSET ?gMapName@@3PAY0PP@DA+3570
  00237	4f		 dec	 edi
$LL38@SetMapName:
  00238	8a 47 01	 mov	 al, BYTE PTR [edi+1]
  0023b	47		 inc	 edi
  0023c	84 c0		 test	 al, al
  0023e	75 f8		 jne	 SHORT $LL38@SetMapName
  00240	66 a1 00 00 00
	00		 mov	 ax, WORD PTR ??_C@_01FAMBOPH@4?$AA@

; 1887 : 	strcpy(gMapName[15], lMsg.Get(MSGGET(7,222)));

  00246	68 de 07 00 00	 push	 2014			; 000007deH
  0024b	b9 00 00 00 00	 mov	 ecx, OFFSET ?lMsg@@3VCMsg@@A ; lMsg
  00250	66 89 07	 mov	 WORD PTR [edi], ax
  00253	e8 00 00 00 00	 call	 ?Get@CMsg@@QAEPADH@Z	; CMsg::Get
  00258	ba f1 0e 00 00	 mov	 edx, OFFSET ?gMapName@@3PAY0PP@DA+3825
  0025d	2b d0		 sub	 edx, eax
  0025f	90		 npad	 1
$LL17@SetMapName:
  00260	8a 08		 mov	 cl, BYTE PTR [eax]
  00262	88 0c 02	 mov	 BYTE PTR [edx+eax], cl
  00265	40		 inc	 eax
  00266	84 c9		 test	 cl, cl
  00268	75 f6		 jne	 SHORT $LL17@SetMapName

; 1888 : 	strcat(gMapName[15], "5");

  0026a	bf f1 0e 00 00	 mov	 edi, OFFSET ?gMapName@@3PAY0PP@DA+3825
  0026f	4f		 dec	 edi
$LL39@SetMapName:
  00270	8a 47 01	 mov	 al, BYTE PTR [edi+1]
  00273	47		 inc	 edi
  00274	84 c0		 test	 al, al
  00276	75 f8		 jne	 SHORT $LL39@SetMapName
  00278	66 8b 0d 00 00
	00 00		 mov	 cx, WORD PTR ??_C@_01BMBHCPLG@5?$AA@
  0027f	66 89 0f	 mov	 WORD PTR [edi], cx

; 1889 : 	strcpy(gMapName[16], lMsg.Get(MSGGET(7,222)));

  00282	68 de 07 00 00	 push	 2014			; 000007deH
  00287	b9 00 00 00 00	 mov	 ecx, OFFSET ?lMsg@@3VCMsg@@A ; lMsg
  0028c	e8 00 00 00 00	 call	 ?Get@CMsg@@QAEPADH@Z	; CMsg::Get
  00291	ba f0 0f 00 00	 mov	 edx, OFFSET ?gMapName@@3PAY0PP@DA+4080
  00296	2b d0		 sub	 edx, eax
$LL18@SetMapName:
  00298	8a 08		 mov	 cl, BYTE PTR [eax]
  0029a	88 0c 02	 mov	 BYTE PTR [edx+eax], cl
  0029d	40		 inc	 eax
  0029e	84 c9		 test	 cl, cl
  002a0	75 f6		 jne	 SHORT $LL18@SetMapName

; 1890 : 	strcat(gMapName[16], "6");

  002a2	bf f0 0f 00 00	 mov	 edi, OFFSET ?gMapName@@3PAY0PP@DA+4080
  002a7	4f		 dec	 edi
$LL40@SetMapName:
  002a8	8a 47 01	 mov	 al, BYTE PTR [edi+1]
  002ab	47		 inc	 edi
  002ac	84 c0		 test	 al, al
  002ae	75 f8		 jne	 SHORT $LL40@SetMapName
  002b0	66 8b 15 00 00
	00 00		 mov	 dx, WORD PTR ??_C@_01DHDKHMHF@6?$AA@
  002b7	66 89 17	 mov	 WORD PTR [edi], dx
  002ba	5f		 pop	 edi

; 1891 : }

  002bb	c3		 ret	 0
?SetMapName@@YAXXZ ENDP					; SetMapName
_TEXT	ENDS
PUBLIC	?GetEventFlag@@YAHXZ				; GetEventFlag
; Function compile flags: /Ogtp
;	COMDAT ?GetEventFlag@@YAHXZ
_TEXT	SEGMENT
?GetEventFlag@@YAHXZ PROC				; GetEventFlag, COMDAT

; 1920 : 	STU_EVENT_FLAG flag;
; 1921 : 
; 1922 : 	flag.AllData = 0;

  00000	33 c0		 xor	 eax, eax

; 1923 : 
; 1924 : 	if (gDevilSquareEvent!=0)

  00002	39 05 00 00 00
	00		 cmp	 DWORD PTR ?gDevilSquareEvent@@3HA, eax ; gDevilSquareEvent
  00008	74 05		 je	 SHORT $LN10@GetEventFl

; 1925 : 	{
; 1926 : 		flag.EventData.bDevilSquare=1;

  0000a	b8 01 00 00 00	 mov	 eax, 1
$LN10@GetEventFl:

; 1927 : 	}
; 1928 : 	if (g_bBloodCastle!=0)

  0000f	83 3d 00 00 00
	00 00		 cmp	 DWORD PTR ?g_bBloodCastle@@3HA, 0 ; g_bBloodCastle
  00016	74 03		 je	 SHORT $LN9@GetEventFl

; 1929 : 	{
; 1930 : 		flag.EventData.bBloodCastle=1;

  00018	83 c8 02	 or	 eax, 2
$LN9@GetEventFl:

; 1931 : 	}
; 1932 : 	if (gXMasEvent!=0)

  0001b	83 3d 00 00 00
	00 00		 cmp	 DWORD PTR ?gXMasEvent@@3HA, 0 ; gXMasEvent
  00022	74 05		 je	 SHORT $LN8@GetEventFl

; 1933 : 	{
; 1934 : 		flag.EventData.bXMaxEvent=1;

  00024	0d 00 01 00 00	 or	 eax, 256		; 00000100H
$LN8@GetEventFl:

; 1935 : 	}
; 1936 : 	if (gFireCrackerEvent!=0)

  00029	83 3d 00 00 00
	00 00		 cmp	 DWORD PTR ?gFireCrackerEvent@@3HA, 0 ; gFireCrackerEvent
  00030	74 05		 je	 SHORT $LN7@GetEventFl

; 1937 : 	{
; 1938 : 		flag.EventData.bFireCracker=1;

  00032	0d 00 02 00 00	 or	 eax, 512		; 00000200H
$LN7@GetEventFl:

; 1939 : 	}
; 1940 : 	if (gHeartOfLoveEvent!=0)

  00037	83 3d 00 00 00
	00 00		 cmp	 DWORD PTR ?gHeartOfLoveEvent@@3HA, 0 ; gHeartOfLoveEvent
  0003e	74 05		 je	 SHORT $LN6@GetEventFl

; 1941 : 	{
; 1942 : 		flag.EventData.bHeartOfLove=1;

  00040	0d 00 04 00 00	 or	 eax, 1024		; 00000400H
$LN6@GetEventFl:

; 1943 : 	}
; 1944 : 	if (gMedalEvent!=0)

  00045	83 3d 00 00 00
	00 00		 cmp	 DWORD PTR ?gMedalEvent@@3HA, 0 ; gMedalEvent
  0004c	74 05		 je	 SHORT $LN5@GetEventFl

; 1945 : 	{
; 1946 : 		flag.EventData.bMedalEvent=1;

  0004e	0d 00 08 00 00	 or	 eax, 2048		; 00000800H
$LN5@GetEventFl:

; 1947 : 	}
; 1948 : 	if (g_bDoRingEvent!=0)

  00053	83 3d 00 00 00
	00 00		 cmp	 DWORD PTR ?g_bDoRingEvent@@3HA, 0 ; g_bDoRingEvent
  0005a	74 05		 je	 SHORT $LN4@GetEventFl

; 1949 : 	{
; 1950 : 		flag.EventData.bRingEvent=1;

  0005c	0d 00 10 00 00	 or	 eax, 4096		; 00001000H
$LN4@GetEventFl:

; 1951 : 	}
; 1952 : 	if (gEventChipEvent!=0)

  00061	83 3d 00 00 00
	00 00		 cmp	 DWORD PTR ?gEventChipEvent@@3HA, 0 ; gEventChipEvent
  00068	74 05		 je	 SHORT $LN3@GetEventFl

; 1953 : 	{
; 1954 : 		flag.EventData.bEventChip=1;

  0006a	0d 00 20 00 00	 or	 eax, 8192		; 00002000H
$LN3@GetEventFl:

; 1955 : 	}
; 1956 : 	if (gIsEledoradoEvent!=0)

  0006f	83 3d 00 00 00
	00 00		 cmp	 DWORD PTR ?gIsEledoradoEvent@@3HA, 0 ; gIsEledoradoEvent
  00076	74 05		 je	 SHORT $LN2@GetEventFl

; 1957 : 	{
; 1958 : 		flag.EventData.bEledorado=1;

  00078	0d 00 40 00 00	 or	 eax, 16384		; 00004000H
$LN2@GetEventFl:

; 1959 : 	}
; 1960 : 	if (gUseNPGGChecksum!=0)

  0007d	83 3d 00 00 00
	00 00		 cmp	 DWORD PTR ?gUseNPGGChecksum@@3HA, 0 ; gUseNPGGChecksum
  00084	74 05		 je	 SHORT $LN1@GetEventFl

; 1961 : 	{
; 1962 : 		flag.EventData.bNPGGChecksum=1;

  00086	0d 00 00 01 00	 or	 eax, 65536		; 00010000H
$LN1@GetEventFl:

; 1963 : 	}	
; 1964 : 
; 1965 : 	return flag.AllData;	
; 1966 : }

  0008b	c3		 ret	 0
?GetEventFlag@@YAHXZ ENDP				; GetEventFlag
_TEXT	ENDS
PUBLIC	??_C@_0BK@HAJPAMCO@DarkLoadHeartOffEventRate?$AA@ ; `string'
PUBLIC	??_C@_0BG@GAOBCKDF@DarkLordHeartDropRate?$AA@	; `string'
PUBLIC	??_C@_0BE@KJOHMGFA@EventManagement?4dat?$AA@	; `string'
PUBLIC	??_C@_0P@JCOIPJAE@EventManagerOn?$AA@		; `string'
PUBLIC	??_C@_0BN@OIDGBLFD@HiddenTreasureBoxOfflineRate?$AA@ ; `string'
PUBLIC	??_C@_0BJ@FKFFJICI@MysteriouseBeadDropRate2?$AA@ ; `string'
PUBLIC	??_C@_0BJ@HBHIMLOL@MysteriouseBeadDropRate1?$AA@ ; `string'
PUBLIC	??_C@_0BD@BFEFAHKC@KundunMarkDropRate?$AA@	; `string'
PUBLIC	??_C@_0BB@EAJFBCDB@ChaosCastleEvent?$AA@	; `string'
PUBLIC	??_C@_0BA@LOKHGJIA@ChaosCastle?4dat?$AA@	; `string'
PUBLIC	??_C@_0BO@NIDNGNHC@?$FLOption?$FN?5Christmas?5NPC?5speaks?$AA@ ; `string'
PUBLIC	??_C@_0BB@HOHJFGOC@MerryXMasTalkNpc?$AA@	; `string'
PUBLIC	??_C@_0CD@MHKMKJEJ@?$FLOption?$FN?5Happy?9new?9year?5NPC?5spea@ ; `string'
PUBLIC	??_C@_0BE@MPGFIFAO@HappyNewYearTalkNpc?$AA@	; `string'
PUBLIC	??_C@_0BL@CMBFLADP@ItemDropRateForHeartOfLove?$AA@ ; `string'
PUBLIC	??_C@_0BE@JJGBIMJB@HeartOfLoveDropRate?$AA@	; `string'
PUBLIC	??_C@_0BB@CGEJHOOF@HeartOfLoveEvent?$AA@	; `string'
PUBLIC	??_C@_0CE@BHNJHAEB@XMasEvent_ItemDropRateForStarOfX@ ; `string'
PUBLIC	??_C@_0BN@EDHJHEEJ@XMasEvent_StarOfXMasDropRate?$AA@ ; `string'
PUBLIC	??_C@_09HEEPAMKP@XMasEvent?$AA@			; `string'
PUBLIC	??_C@_0BL@DECCHFKM@ItemDropRateForSilverMedal?$AA@ ; `string'
PUBLIC	??_C@_0BJ@HJDOLNNF@ItemDropRateForGoldMedal?$AA@ ; `string'
PUBLIC	??_C@_0BE@OPKEGEPJ@SilverMedalDropRate?$AA@	; `string'
PUBLIC	??_C@_0BC@CFKHOCLM@GoldMedalDropRate?$AA@	; `string'
PUBLIC	??_C@_0L@MDFHFAIK@MedalEvent?$AA@		; `string'
PUBLIC	??_C@_0BJ@GHAOAAJB@OnlyFireCrackerEffectUse?$AA@ ; `string'
PUBLIC	??_C@_0BL@EHKPPMMG@ItemDropRateForFireCracker?$AA@ ; `string'
PUBLIC	??_C@_0BE@KPFNOKLC@FireCrackerDropRate?$AA@	; `string'
PUBLIC	??_C@_0BB@PMGPGCOG@FireCrackerEvent?$AA@	; `string'
PUBLIC	??_C@_0BL@ENBIHHCD@Event1ItemDropTodayPercent?$AA@ ; `string'
PUBLIC	??_C@_08KDEPFNAG@10000000?$AA@			; `string'
PUBLIC	??_C@_0BH@LPINNCM@Event1ItemDropTodayMax?$AA@	; `string'
PUBLIC	??_C@_06OIEHOIFM@EVENT1?$AA@			; `string'
PUBLIC	??_C@_0BE@BHMFOLMK@RingAttackEvent?4dat?$AA@	; `string'
PUBLIC	??_C@_0BB@NMFCKOP@RingDropGiftRate?$AA@		; `string'
PUBLIC	??_C@_0BE@PAGFJHNK@RingOrcKillGiftRate?$AA@	; `string'
PUBLIC	??_C@_05CLDMBJBA@10000?$AA@			; `string'
PUBLIC	??_C@_0BA@PGIAALHL@RingAttackEvent?$AA@		; `string'
PUBLIC	??_C@_01GBGANLPD@0?$AA@				; `string'
PUBLIC	??_C@_0CF@FONHIJD@EledoradoDevilTantarosExItemDrop@ ; `string'
PUBLIC	??_C@_0CH@JKCOIHDD@EledoradoDevilLizardKingExItemDr@ ; `string'
PUBLIC	??_C@_0CC@KKKCNGAN@EledoradoGoldDerconExItemDropRat@ ; `string'
PUBLIC	??_C@_0BN@EPBKFBD@EledoradoTitanExItemDropRate?$AA@ ; `string'
PUBLIC	??_C@_0CC@FBLILEOL@EledoradoGoldGoblenExItemDropRat@ ; `string'
PUBLIC	??_C@_0CD@FBDNNLBJ@EledoradoDevilTantarosItemDropRa@ ; `string'
PUBLIC	??_C@_0CF@JGNHCKNH@EledoradoDevilLizardKingItemDrop@ ; `string'
PUBLIC	??_C@_0CA@DLLDAHDE@EledoradoGoldDerconItemDropRate?$AA@ ; `string'
PUBLIC	??_C@_0BL@CKBDCOGC@EledoradoTitanItemDropRate?$AA@ ; `string'
PUBLIC	??_C@_0CA@HENEMHED@EledoradoGoldGoblenItemDropRate?$AA@ ; `string'
PUBLIC	??_C@_0CA@PDCIOFIF@EledoradoDevilTantarosRegenTime?$AA@ ; `string'
PUBLIC	??_C@_0CC@KCJCENFB@EledoradoDevilLizardKingRegenTim@ ; `string'
PUBLIC	??_C@_0BN@IJGMJJEJ@EledoradoGoldDerconRegenTime?$AA@ ; `string'
PUBLIC	??_C@_0BI@KJLIHAFL@EledoradoTitanRegenTime?$AA@	; `string'
PUBLIC	??_C@_0BN@GMFOFBJF@EledoradoGoldGoblenRegenTime?$AA@ ; `string'
PUBLIC	??_C@_0BB@OEKAOOOA@IsEledoradoEvent?$AA@	; `string'
PUBLIC	??_C@_0BF@LANDNGMH@AttackEventRegenTime?$AA@	; `string'
PUBLIC	??_C@_0BF@GCEDJHAG@GemOfDefendDropLevel?$AA@	; `string'
PUBLIC	??_C@_0BE@IJLIJOPF@GemOfDefendDropRate?$AA@	; `string'
PUBLIC	??_C@_0BC@DOINNHCK@IsDropGemOfDefend?$AA@	; `string'
PUBLIC	??_C@_0BI@CNLFMLJF@DarkSpiritAddExperience?$AA@	; `string'
PUBLIC	??_C@_0BK@ILHFEAJE@SoulOfDarkSpiritDropLevel?$AA@ ; `string'
PUBLIC	??_C@_0BJ@NMMKDJPD@SoulOfDarkSpiritDropRate?$AA@ ; `string'
PUBLIC	??_C@_0BI@POMKNKAO@SoulOfDarkHorseropLevel?$AA@	; `string'
PUBLIC	??_C@_0BI@LEJIBFOD@SoulOfDarkHorseDropRate?$AA@	; `string'
PUBLIC	??_C@_0BG@KOOOBGPO@SleeveOfLordDropLevel?$AA@	; `string'
PUBLIC	??_C@_0BF@CIEOPDEB@SleeveOfLordDropRate?$AA@	; `string'
PUBLIC	??_C@_0BD@KIIHPPEC@IsDropDarkLordItem?$AA@	; `string'
PUBLIC	??_C@_0O@PBCFFJJH@StoneDropRate?$AA@		; `string'
PUBLIC	??_C@_0BC@NGLLHLOE@BloodBoneDropRate?$AA@	; `string'
PUBLIC	??_C@_0BI@KPDDGOOE@AngelKingsPaperDropRate?$AA@	; `string'
PUBLIC	??_C@_0BF@DLNBCIAJ@BloodCastleStartHour?$AA@	; `string'
PUBLIC	??_C@_0BB@DHAFCNAC@BloodCastleEvent?$AA@	; `string'
PUBLIC	??_C@_0BA@CJKIMMIB@BloodCastle?4dat?$AA@	; `string'
PUBLIC	??_C@_0BJ@DHGJEDK@KeyOfDevilSquareDropRate?$AA@	; `string'
PUBLIC	??_C@_0BK@NJHGKMMN@EyesOfDevilSquareDropRate?$AA@ ; `string'
PUBLIC	??_C@_0BB@PNANPJHI@DevilSquareEvent?$AA@	; `string'
PUBLIC	??_C@_0BB@IGLHFEOF@commonserver?4cfg?$AA@	; `string'
PUBLIC	??_C@_0BA@JLLODMHA@DevilSquare?4dat?$AA@	; `string'
PUBLIC	__$ArrayPad$
PUBLIC	?ReadEventInfo@@YAXW4MU_EVENT_TYPE@@@Z		; ReadEventInfo
EXTRN	?Init@CEventManagement@@QAEXH@Z:PROC		; CEventManagement::Init
EXTRN	?gEledoradoEvent@@3VCEledoradoEvent@@A:BYTE	; gEledoradoEvent
EXTRN	?RegEvent@CEventManagement@@QAEXHPAX@Z:PROC	; CEventManagement::RegEvent
EXTRN	?Load@CEventManagement@@QAE_NPAD@Z:PROC		; CEventManagement::Load
EXTRN	?g_EventManager@@3VCEventManagement@@A:BYTE	; g_EventManager
EXTRN	?Load@CChaosCastle@@QAEXPAD@Z:PROC		; CChaosCastle::Load
EXTRN	?EnableEvent@CRingAttackEvent@@QAEXH@Z:PROC	; CRingAttackEvent::EnableEvent
EXTRN	?Load@CRingAttackEvent@@UAEHPAD@Z:PROC		; CRingAttackEvent::Load
EXTRN	?g_RingAttackEvent@@3VCRingAttackEvent@@A:BYTE	; g_RingAttackEvent
EXTRN	_atof:PROC
EXTRN	?Load@CBloodCastle@@QAEHPAD@Z:PROC		; CBloodCastle::Load
EXTRN	?Load@CDevilSquare@@QAEXPAD@Z:PROC		; CDevilSquare::Load
EXTRN	?GetNewPath@CDirPath@@QAEPADPAD@Z:PROC		; CDirPath::GetNewPath
;	COMDAT ??_C@_0BK@HAJPAMCO@DarkLoadHeartOffEventRate?$AA@
CONST	SEGMENT
??_C@_0BK@HAJPAMCO@DarkLoadHeartOffEventRate?$AA@ DB 'DarkLoadHeartOffEve'
	DB	'ntRate', 00H				; `string'
CONST	ENDS
;	COMDAT ??_C@_0BG@GAOBCKDF@DarkLordHeartDropRate?$AA@
CONST	SEGMENT
??_C@_0BG@GAOBCKDF@DarkLordHeartDropRate?$AA@ DB 'DarkLordHeartDropRate', 00H ; `string'
CONST	ENDS
;	COMDAT ??_C@_0BE@KJOHMGFA@EventManagement?4dat?$AA@
CONST	SEGMENT
??_C@_0BE@KJOHMGFA@EventManagement?4dat?$AA@ DB 'EventManagement.dat', 00H ; `string'
CONST	ENDS
;	COMDAT ??_C@_0P@JCOIPJAE@EventManagerOn?$AA@
CONST	SEGMENT
??_C@_0P@JCOIPJAE@EventManagerOn?$AA@ DB 'EventManagerOn', 00H ; `string'
CONST	ENDS
;	COMDAT ??_C@_0BN@OIDGBLFD@HiddenTreasureBoxOfflineRate?$AA@
CONST	SEGMENT
??_C@_0BN@OIDGBLFD@HiddenTreasureBoxOfflineRate?$AA@ DB 'HiddenTreasureBo'
	DB	'xOfflineRate', 00H				; `string'
CONST	ENDS
;	COMDAT ??_C@_0BJ@FKFFJICI@MysteriouseBeadDropRate2?$AA@
CONST	SEGMENT
??_C@_0BJ@FKFFJICI@MysteriouseBeadDropRate2?$AA@ DB 'MysteriouseBeadDropR'
	DB	'ate2', 00H					; `string'
CONST	ENDS
;	COMDAT ??_C@_0BJ@HBHIMLOL@MysteriouseBeadDropRate1?$AA@
CONST	SEGMENT
??_C@_0BJ@HBHIMLOL@MysteriouseBeadDropRate1?$AA@ DB 'MysteriouseBeadDropR'
	DB	'ate1', 00H					; `string'
CONST	ENDS
;	COMDAT ??_C@_0BD@BFEFAHKC@KundunMarkDropRate?$AA@
CONST	SEGMENT
??_C@_0BD@BFEFAHKC@KundunMarkDropRate?$AA@ DB 'KundunMarkDropRate', 00H ; `string'
CONST	ENDS
;	COMDAT ??_C@_0BB@EAJFBCDB@ChaosCastleEvent?$AA@
CONST	SEGMENT
??_C@_0BB@EAJFBCDB@ChaosCastleEvent?$AA@ DB 'ChaosCastleEvent', 00H ; `string'
CONST	ENDS
;	COMDAT ??_C@_0BA@LOKHGJIA@ChaosCastle?4dat?$AA@
CONST	SEGMENT
??_C@_0BA@LOKHGJIA@ChaosCastle?4dat?$AA@ DB 'ChaosCastle.dat', 00H ; `string'
CONST	ENDS
;	COMDAT ??_C@_0BO@NIDNGNHC@?$FLOption?$FN?5Christmas?5NPC?5speaks?$AA@
CONST	SEGMENT
??_C@_0BO@NIDNGNHC@?$FLOption?$FN?5Christmas?5NPC?5speaks?$AA@ DB '[Optio'
	DB	'n] Christmas NPC speaks', 00H		; `string'
CONST	ENDS
;	COMDAT ??_C@_0BB@HOHJFGOC@MerryXMasTalkNpc?$AA@
CONST	SEGMENT
??_C@_0BB@HOHJFGOC@MerryXMasTalkNpc?$AA@ DB 'MerryXMasTalkNpc', 00H ; `string'
CONST	ENDS
;	COMDAT ??_C@_0CD@MHKMKJEJ@?$FLOption?$FN?5Happy?9new?9year?5NPC?5spea@
CONST	SEGMENT
??_C@_0CD@MHKMKJEJ@?$FLOption?$FN?5Happy?9new?9year?5NPC?5spea@ DB '[Opti'
	DB	'on] Happy-new-year NPC speaks', 00H		; `string'
CONST	ENDS
;	COMDAT ??_C@_0BE@MPGFIFAO@HappyNewYearTalkNpc?$AA@
CONST	SEGMENT
??_C@_0BE@MPGFIFAO@HappyNewYearTalkNpc?$AA@ DB 'HappyNewYearTalkNpc', 00H ; `string'
CONST	ENDS
;	COMDAT ??_C@_0BL@CMBFLADP@ItemDropRateForHeartOfLove?$AA@
CONST	SEGMENT
??_C@_0BL@CMBFLADP@ItemDropRateForHeartOfLove?$AA@ DB 'ItemDropRateForHea'
	DB	'rtOfLove', 00H				; `string'
CONST	ENDS
;	COMDAT ??_C@_0BE@JJGBIMJB@HeartOfLoveDropRate?$AA@
CONST	SEGMENT
??_C@_0BE@JJGBIMJB@HeartOfLoveDropRate?$AA@ DB 'HeartOfLoveDropRate', 00H ; `string'
CONST	ENDS
;	COMDAT ??_C@_0BB@CGEJHOOF@HeartOfLoveEvent?$AA@
CONST	SEGMENT
??_C@_0BB@CGEJHOOF@HeartOfLoveEvent?$AA@ DB 'HeartOfLoveEvent', 00H ; `string'
CONST	ENDS
;	COMDAT ??_C@_0CE@BHNJHAEB@XMasEvent_ItemDropRateForStarOfX@
CONST	SEGMENT
??_C@_0CE@BHNJHAEB@XMasEvent_ItemDropRateForStarOfX@ DB 'XMasEvent_ItemDr'
	DB	'opRateForStarOfXMas', 00H			; `string'
CONST	ENDS
;	COMDAT ??_C@_0BN@EDHJHEEJ@XMasEvent_StarOfXMasDropRate?$AA@
CONST	SEGMENT
??_C@_0BN@EDHJHEEJ@XMasEvent_StarOfXMasDropRate?$AA@ DB 'XMasEvent_StarOf'
	DB	'XMasDropRate', 00H				; `string'
CONST	ENDS
;	COMDAT ??_C@_09HEEPAMKP@XMasEvent?$AA@
CONST	SEGMENT
??_C@_09HEEPAMKP@XMasEvent?$AA@ DB 'XMasEvent', 00H	; `string'
CONST	ENDS
;	COMDAT ??_C@_0BL@DECCHFKM@ItemDropRateForSilverMedal?$AA@
CONST	SEGMENT
??_C@_0BL@DECCHFKM@ItemDropRateForSilverMedal?$AA@ DB 'ItemDropRateForSil'
	DB	'verMedal', 00H				; `string'
CONST	ENDS
;	COMDAT ??_C@_0BJ@HJDOLNNF@ItemDropRateForGoldMedal?$AA@
CONST	SEGMENT
??_C@_0BJ@HJDOLNNF@ItemDropRateForGoldMedal?$AA@ DB 'ItemDropRateForGoldM'
	DB	'edal', 00H					; `string'
CONST	ENDS
;	COMDAT ??_C@_0BE@OPKEGEPJ@SilverMedalDropRate?$AA@
CONST	SEGMENT
??_C@_0BE@OPKEGEPJ@SilverMedalDropRate?$AA@ DB 'SilverMedalDropRate', 00H ; `string'
CONST	ENDS
;	COMDAT ??_C@_0BC@CFKHOCLM@GoldMedalDropRate?$AA@
CONST	SEGMENT
??_C@_0BC@CFKHOCLM@GoldMedalDropRate?$AA@ DB 'GoldMedalDropRate', 00H ; `string'
CONST	ENDS
;	COMDAT ??_C@_0L@MDFHFAIK@MedalEvent?$AA@
CONST	SEGMENT
??_C@_0L@MDFHFAIK@MedalEvent?$AA@ DB 'MedalEvent', 00H	; `string'
CONST	ENDS
;	COMDAT ??_C@_0BJ@GHAOAAJB@OnlyFireCrackerEffectUse?$AA@
CONST	SEGMENT
??_C@_0BJ@GHAOAAJB@OnlyFireCrackerEffectUse?$AA@ DB 'OnlyFireCrackerEffec'
	DB	'tUse', 00H					; `string'
CONST	ENDS
;	COMDAT ??_C@_0BL@EHKPPMMG@ItemDropRateForFireCracker?$AA@
CONST	SEGMENT
??_C@_0BL@EHKPPMMG@ItemDropRateForFireCracker?$AA@ DB 'ItemDropRateForFir'
	DB	'eCracker', 00H				; `string'
CONST	ENDS
;	COMDAT ??_C@_0BE@KPFNOKLC@FireCrackerDropRate?$AA@
CONST	SEGMENT
??_C@_0BE@KPFNOKLC@FireCrackerDropRate?$AA@ DB 'FireCrackerDropRate', 00H ; `string'
CONST	ENDS
;	COMDAT ??_C@_0BB@PMGPGCOG@FireCrackerEvent?$AA@
CONST	SEGMENT
??_C@_0BB@PMGPGCOG@FireCrackerEvent?$AA@ DB 'FireCrackerEvent', 00H ; `string'
CONST	ENDS
;	COMDAT ??_C@_0BL@ENBIHHCD@Event1ItemDropTodayPercent?$AA@
CONST	SEGMENT
??_C@_0BL@ENBIHHCD@Event1ItemDropTodayPercent?$AA@ DB 'Event1ItemDropToda'
	DB	'yPercent', 00H				; `string'
CONST	ENDS
;	COMDAT ??_C@_08KDEPFNAG@10000000?$AA@
CONST	SEGMENT
??_C@_08KDEPFNAG@10000000?$AA@ DB '10000000', 00H	; `string'
CONST	ENDS
;	COMDAT ??_C@_0BH@LPINNCM@Event1ItemDropTodayMax?$AA@
CONST	SEGMENT
??_C@_0BH@LPINNCM@Event1ItemDropTodayMax?$AA@ DB 'Event1ItemDropTodayMax', 00H ; `string'
CONST	ENDS
;	COMDAT ??_C@_06OIEHOIFM@EVENT1?$AA@
CONST	SEGMENT
??_C@_06OIEHOIFM@EVENT1?$AA@ DB 'EVENT1', 00H		; `string'
CONST	ENDS
;	COMDAT ??_C@_0BE@BHMFOLMK@RingAttackEvent?4dat?$AA@
CONST	SEGMENT
??_C@_0BE@BHMFOLMK@RingAttackEvent?4dat?$AA@ DB 'RingAttackEvent.dat', 00H ; `string'
CONST	ENDS
;	COMDAT ??_C@_0BB@NMFCKOP@RingDropGiftRate?$AA@
CONST	SEGMENT
??_C@_0BB@NMFCKOP@RingDropGiftRate?$AA@ DB 'RingDropGiftRate', 00H ; `string'
CONST	ENDS
;	COMDAT ??_C@_0BE@PAGFJHNK@RingOrcKillGiftRate?$AA@
CONST	SEGMENT
??_C@_0BE@PAGFJHNK@RingOrcKillGiftRate?$AA@ DB 'RingOrcKillGiftRate', 00H ; `string'
CONST	ENDS
;	COMDAT ??_C@_05CLDMBJBA@10000?$AA@
CONST	SEGMENT
??_C@_05CLDMBJBA@10000?$AA@ DB '10000', 00H		; `string'
CONST	ENDS
;	COMDAT ??_C@_0BA@PGIAALHL@RingAttackEvent?$AA@
CONST	SEGMENT
??_C@_0BA@PGIAALHL@RingAttackEvent?$AA@ DB 'RingAttackEvent', 00H ; `string'
CONST	ENDS
;	COMDAT ??_C@_01GBGANLPD@0?$AA@
CONST	SEGMENT
??_C@_01GBGANLPD@0?$AA@ DB '0', 00H			; `string'
CONST	ENDS
;	COMDAT ??_C@_0CF@FONHIJD@EledoradoDevilTantarosExItemDrop@
CONST	SEGMENT
??_C@_0CF@FONHIJD@EledoradoDevilTantarosExItemDrop@ DB 'EledoradoDevilTan'
	DB	'tarosExItemDropRate', 00H			; `string'
CONST	ENDS
;	COMDAT ??_C@_0CH@JKCOIHDD@EledoradoDevilLizardKingExItemDr@
CONST	SEGMENT
??_C@_0CH@JKCOIHDD@EledoradoDevilLizardKingExItemDr@ DB 'EledoradoDevilLi'
	DB	'zardKingExItemDropRate', 00H		; `string'
CONST	ENDS
;	COMDAT ??_C@_0CC@KKKCNGAN@EledoradoGoldDerconExItemDropRat@
CONST	SEGMENT
??_C@_0CC@KKKCNGAN@EledoradoGoldDerconExItemDropRat@ DB 'EledoradoGoldDer'
	DB	'conExItemDropRate', 00H			; `string'
CONST	ENDS
;	COMDAT ??_C@_0BN@EPBKFBD@EledoradoTitanExItemDropRate?$AA@
CONST	SEGMENT
??_C@_0BN@EPBKFBD@EledoradoTitanExItemDropRate?$AA@ DB 'EledoradoTitanExI'
	DB	'temDropRate', 00H				; `string'
CONST	ENDS
;	COMDAT ??_C@_0CC@FBLILEOL@EledoradoGoldGoblenExItemDropRat@
CONST	SEGMENT
??_C@_0CC@FBLILEOL@EledoradoGoldGoblenExItemDropRat@ DB 'EledoradoGoldGob'
	DB	'lenExItemDropRate', 00H			; `string'
CONST	ENDS
;	COMDAT ??_C@_0CD@FBDNNLBJ@EledoradoDevilTantarosItemDropRa@
CONST	SEGMENT
??_C@_0CD@FBDNNLBJ@EledoradoDevilTantarosItemDropRa@ DB 'EledoradoDevilTa'
	DB	'ntarosItemDropRate', 00H			; `string'
CONST	ENDS
;	COMDAT ??_C@_0CF@JGNHCKNH@EledoradoDevilLizardKingItemDrop@
CONST	SEGMENT
??_C@_0CF@JGNHCKNH@EledoradoDevilLizardKingItemDrop@ DB 'EledoradoDevilLi'
	DB	'zardKingItemDropRate', 00H			; `string'
CONST	ENDS
;	COMDAT ??_C@_0CA@DLLDAHDE@EledoradoGoldDerconItemDropRate?$AA@
CONST	SEGMENT
??_C@_0CA@DLLDAHDE@EledoradoGoldDerconItemDropRate?$AA@ DB 'EledoradoGold'
	DB	'DerconItemDropRate', 00H			; `string'
CONST	ENDS
;	COMDAT ??_C@_0BL@CKBDCOGC@EledoradoTitanItemDropRate?$AA@
CONST	SEGMENT
??_C@_0BL@CKBDCOGC@EledoradoTitanItemDropRate?$AA@ DB 'EledoradoTitanItem'
	DB	'DropRate', 00H				; `string'
CONST	ENDS
;	COMDAT ??_C@_0CA@HENEMHED@EledoradoGoldGoblenItemDropRate?$AA@
CONST	SEGMENT
??_C@_0CA@HENEMHED@EledoradoGoldGoblenItemDropRate?$AA@ DB 'EledoradoGold'
	DB	'GoblenItemDropRate', 00H			; `string'
CONST	ENDS
;	COMDAT ??_C@_0CA@PDCIOFIF@EledoradoDevilTantarosRegenTime?$AA@
CONST	SEGMENT
??_C@_0CA@PDCIOFIF@EledoradoDevilTantarosRegenTime?$AA@ DB 'EledoradoDevi'
	DB	'lTantarosRegenTime', 00H			; `string'
CONST	ENDS
;	COMDAT ??_C@_0CC@KCJCENFB@EledoradoDevilLizardKingRegenTim@
CONST	SEGMENT
??_C@_0CC@KCJCENFB@EledoradoDevilLizardKingRegenTim@ DB 'EledoradoDevilLi'
	DB	'zardKingRegenTime', 00H			; `string'
CONST	ENDS
;	COMDAT ??_C@_0BN@IJGMJJEJ@EledoradoGoldDerconRegenTime?$AA@
CONST	SEGMENT
??_C@_0BN@IJGMJJEJ@EledoradoGoldDerconRegenTime?$AA@ DB 'EledoradoGoldDer'
	DB	'conRegenTime', 00H				; `string'
CONST	ENDS
;	COMDAT ??_C@_0BI@KJLIHAFL@EledoradoTitanRegenTime?$AA@
CONST	SEGMENT
??_C@_0BI@KJLIHAFL@EledoradoTitanRegenTime?$AA@ DB 'EledoradoTitanRegenTi'
	DB	'me', 00H					; `string'
CONST	ENDS
;	COMDAT ??_C@_0BN@GMFOFBJF@EledoradoGoldGoblenRegenTime?$AA@
CONST	SEGMENT
??_C@_0BN@GMFOFBJF@EledoradoGoldGoblenRegenTime?$AA@ DB 'EledoradoGoldGob'
	DB	'lenRegenTime', 00H				; `string'
CONST	ENDS
;	COMDAT ??_C@_0BB@OEKAOOOA@IsEledoradoEvent?$AA@
CONST	SEGMENT
??_C@_0BB@OEKAOOOA@IsEledoradoEvent?$AA@ DB 'IsEledoradoEvent', 00H ; `string'
CONST	ENDS
;	COMDAT ??_C@_0BF@LANDNGMH@AttackEventRegenTime?$AA@
CONST	SEGMENT
??_C@_0BF@LANDNGMH@AttackEventRegenTime?$AA@ DB 'AttackEventRegenTime', 00H ; `string'
CONST	ENDS
;	COMDAT ??_C@_0BF@GCEDJHAG@GemOfDefendDropLevel?$AA@
CONST	SEGMENT
??_C@_0BF@GCEDJHAG@GemOfDefendDropLevel?$AA@ DB 'GemOfDefendDropLevel', 00H ; `string'
CONST	ENDS
;	COMDAT ??_C@_0BE@IJLIJOPF@GemOfDefendDropRate?$AA@
CONST	SEGMENT
??_C@_0BE@IJLIJOPF@GemOfDefendDropRate?$AA@ DB 'GemOfDefendDropRate', 00H ; `string'
CONST	ENDS
;	COMDAT ??_C@_0BC@DOINNHCK@IsDropGemOfDefend?$AA@
CONST	SEGMENT
??_C@_0BC@DOINNHCK@IsDropGemOfDefend?$AA@ DB 'IsDropGemOfDefend', 00H ; `string'
CONST	ENDS
;	COMDAT ??_C@_0BI@CNLFMLJF@DarkSpiritAddExperience?$AA@
CONST	SEGMENT
??_C@_0BI@CNLFMLJF@DarkSpiritAddExperience?$AA@ DB 'DarkSpiritAddExperien'
	DB	'ce', 00H					; `string'
CONST	ENDS
;	COMDAT ??_C@_0BK@ILHFEAJE@SoulOfDarkSpiritDropLevel?$AA@
CONST	SEGMENT
??_C@_0BK@ILHFEAJE@SoulOfDarkSpiritDropLevel?$AA@ DB 'SoulOfDarkSpiritDro'
	DB	'pLevel', 00H				; `string'
CONST	ENDS
;	COMDAT ??_C@_0BJ@NMMKDJPD@SoulOfDarkSpiritDropRate?$AA@
CONST	SEGMENT
??_C@_0BJ@NMMKDJPD@SoulOfDarkSpiritDropRate?$AA@ DB 'SoulOfDarkSpiritDrop'
	DB	'Rate', 00H					; `string'
CONST	ENDS
;	COMDAT ??_C@_0BI@POMKNKAO@SoulOfDarkHorseropLevel?$AA@
CONST	SEGMENT
??_C@_0BI@POMKNKAO@SoulOfDarkHorseropLevel?$AA@ DB 'SoulOfDarkHorseropLev'
	DB	'el', 00H					; `string'
CONST	ENDS
;	COMDAT ??_C@_0BI@LEJIBFOD@SoulOfDarkHorseDropRate?$AA@
CONST	SEGMENT
??_C@_0BI@LEJIBFOD@SoulOfDarkHorseDropRate?$AA@ DB 'SoulOfDarkHorseDropRa'
	DB	'te', 00H					; `string'
CONST	ENDS
;	COMDAT ??_C@_0BG@KOOOBGPO@SleeveOfLordDropLevel?$AA@
CONST	SEGMENT
??_C@_0BG@KOOOBGPO@SleeveOfLordDropLevel?$AA@ DB 'SleeveOfLordDropLevel', 00H ; `string'
CONST	ENDS
;	COMDAT ??_C@_0BF@CIEOPDEB@SleeveOfLordDropRate?$AA@
CONST	SEGMENT
??_C@_0BF@CIEOPDEB@SleeveOfLordDropRate?$AA@ DB 'SleeveOfLordDropRate', 00H ; `string'
CONST	ENDS
;	COMDAT ??_C@_0BD@KIIHPPEC@IsDropDarkLordItem?$AA@
CONST	SEGMENT
??_C@_0BD@KIIHPPEC@IsDropDarkLordItem?$AA@ DB 'IsDropDarkLordItem', 00H ; `string'
CONST	ENDS
;	COMDAT ??_C@_0O@PBCFFJJH@StoneDropRate?$AA@
CONST	SEGMENT
??_C@_0O@PBCFFJJH@StoneDropRate?$AA@ DB 'StoneDropRate', 00H ; `string'
CONST	ENDS
;	COMDAT ??_C@_0BC@NGLLHLOE@BloodBoneDropRate?$AA@
CONST	SEGMENT
??_C@_0BC@NGLLHLOE@BloodBoneDropRate?$AA@ DB 'BloodBoneDropRate', 00H ; `string'
CONST	ENDS
;	COMDAT ??_C@_0BI@KPDDGOOE@AngelKingsPaperDropRate?$AA@
CONST	SEGMENT
??_C@_0BI@KPDDGOOE@AngelKingsPaperDropRate?$AA@ DB 'AngelKingsPaperDropRa'
	DB	'te', 00H					; `string'
CONST	ENDS
;	COMDAT ??_C@_0BF@DLNBCIAJ@BloodCastleStartHour?$AA@
CONST	SEGMENT
??_C@_0BF@DLNBCIAJ@BloodCastleStartHour?$AA@ DB 'BloodCastleStartHour', 00H ; `string'
CONST	ENDS
;	COMDAT ??_C@_0BB@DHAFCNAC@BloodCastleEvent?$AA@
CONST	SEGMENT
??_C@_0BB@DHAFCNAC@BloodCastleEvent?$AA@ DB 'BloodCastleEvent', 00H ; `string'
CONST	ENDS
;	COMDAT ??_C@_0BA@CJKIMMIB@BloodCastle?4dat?$AA@
CONST	SEGMENT
??_C@_0BA@CJKIMMIB@BloodCastle?4dat?$AA@ DB 'BloodCastle.dat', 00H ; `string'
CONST	ENDS
;	COMDAT ??_C@_0BJ@DHGJEDK@KeyOfDevilSquareDropRate?$AA@
CONST	SEGMENT
??_C@_0BJ@DHGJEDK@KeyOfDevilSquareDropRate?$AA@ DB 'KeyOfDevilSquareDropR'
	DB	'ate', 00H					; `string'
CONST	ENDS
;	COMDAT ??_C@_0BK@NJHGKMMN@EyesOfDevilSquareDropRate?$AA@
CONST	SEGMENT
??_C@_0BK@NJHGKMMN@EyesOfDevilSquareDropRate?$AA@ DB 'EyesOfDevilSquareDr'
	DB	'opRate', 00H				; `string'
CONST	ENDS
;	COMDAT ??_C@_0BB@PNANPJHI@DevilSquareEvent?$AA@
CONST	SEGMENT
??_C@_0BB@PNANPJHI@DevilSquareEvent?$AA@ DB 'DevilSquareEvent', 00H ; `string'
CONST	ENDS
;	COMDAT ??_C@_0BB@IGLHFEOF@commonserver?4cfg?$AA@
CONST	SEGMENT
??_C@_0BB@IGLHFEOF@commonserver?4cfg?$AA@ DB 'commonserver.cfg', 00H ; `string'
CONST	ENDS
;	COMDAT ??_C@_0BA@JLLODMHA@DevilSquare?4dat?$AA@
CONST	SEGMENT
??_C@_0BA@JLLODMHA@DevilSquare?4dat?$AA@ DB 'DevilSquare.dat', 00H ; `string'
; Function compile flags: /Ogtp
CONST	ENDS
;	COMDAT ?ReadEventInfo@@YAXW4MU_EVENT_TYPE@@@Z
_TEXT	SEGMENT
_szTemp$163059 = -516					; size = 256
_szTemp$ = -260						; size = 256
__$ArrayPad$ = -4					; size = 4
_eEventType$ = 8					; size = 4
?ReadEventInfo@@YAXW4MU_EVENT_TYPE@@@Z PROC		; ReadEventInfo, COMDAT

; 1969 : {

  00000	55		 push	 ebp
  00001	8b ec		 mov	 ebp, esp
  00003	81 ec 04 02 00
	00		 sub	 esp, 516		; 00000204H
  00009	a1 00 00 00 00	 mov	 eax, DWORD PTR ___security_cookie
  0000e	33 c5		 xor	 eax, ebp
  00010	89 45 fc	 mov	 DWORD PTR __$ArrayPad$[ebp], eax

; 1970 : 	char szTemp[256];
; 1971 : 	switch(eEventType)

  00013	8b 45 08	 mov	 eax, DWORD PTR _eEventType$[ebp]
  00016	83 f8 0d	 cmp	 eax, 13			; 0000000dH
  00019	0f 87 fd 14 00
	00		 ja	 $LN19@ReadEventI
  0001f	56		 push	 esi
  00020	ff 24 85 00 00
	00 00		 jmp	 DWORD PTR $LN24@ReadEventI[eax*4]
$LN18@ReadEventI:
  00027	57		 push	 edi

; 1972 : 	{
; 1973 : 		case 0: //All Events
; 1974 : 			g_DevilSquare.Load(gDirPath.GetNewPath("DevilSquare.dat"));

  00028	68 00 00 00 00	 push	 OFFSET ??_C@_0BA@JLLODMHA@DevilSquare?4dat?$AA@
  0002d	b9 00 00 00 00	 mov	 ecx, OFFSET ?gDirPath@@3VCDirPath@@A ; gDirPath
  00032	e8 00 00 00 00	 call	 ?GetNewPath@CDirPath@@QAEPADPAD@Z ; CDirPath::GetNewPath
  00037	50		 push	 eax
  00038	b9 00 00 00 00	 mov	 ecx, OFFSET ?g_DevilSquare@@3VCDevilSquare@@A ; g_DevilSquare
  0003d	e8 00 00 00 00	 call	 ?Load@CDevilSquare@@QAEXPAD@Z ; CDevilSquare::Load

; 1975 : 			gDevilSquareEvent = GetPrivateProfileInt("GameServerInfo","DevilSquareEvent", 0, gDirPath.GetNewPath("commonserver.cfg"));

  00042	68 00 00 00 00	 push	 OFFSET ??_C@_0BB@IGLHFEOF@commonserver?4cfg?$AA@
  00047	b9 00 00 00 00	 mov	 ecx, OFFSET ?gDirPath@@3VCDirPath@@A ; gDirPath
  0004c	e8 00 00 00 00	 call	 ?GetNewPath@CDirPath@@QAEPADPAD@Z ; CDirPath::GetNewPath
  00051	8b 35 00 00 00
	00		 mov	 esi, DWORD PTR __imp__GetPrivateProfileIntA@16
  00057	50		 push	 eax
  00058	6a 00		 push	 0
  0005a	68 00 00 00 00	 push	 OFFSET ??_C@_0BB@PNANPJHI@DevilSquareEvent?$AA@
  0005f	68 00 00 00 00	 push	 OFFSET ??_C@_0P@EMJDPFDH@GameServerInfo?$AA@
  00064	ff d6		 call	 esi

; 1976 : 			gEyesOfDevilSquareDropRate = GetPrivateProfileInt("GameServerInfo","EyesOfDevilSquareDropRate", 2, gDirPath.GetNewPath("commonserver.cfg"));

  00066	68 00 00 00 00	 push	 OFFSET ??_C@_0BB@IGLHFEOF@commonserver?4cfg?$AA@
  0006b	b9 00 00 00 00	 mov	 ecx, OFFSET ?gDirPath@@3VCDirPath@@A ; gDirPath
  00070	a3 00 00 00 00	 mov	 DWORD PTR ?gDevilSquareEvent@@3HA, eax ; gDevilSquareEvent
  00075	e8 00 00 00 00	 call	 ?GetNewPath@CDirPath@@QAEPADPAD@Z ; CDirPath::GetNewPath
  0007a	50		 push	 eax
  0007b	6a 02		 push	 2
  0007d	68 00 00 00 00	 push	 OFFSET ??_C@_0BK@NJHGKMMN@EyesOfDevilSquareDropRate?$AA@
  00082	68 00 00 00 00	 push	 OFFSET ??_C@_0P@EMJDPFDH@GameServerInfo?$AA@
  00087	ff d6		 call	 esi

; 1977 : 			gKeyOfDevilSquareDropRate = GetPrivateProfileInt("GameServerInfo","KeyOfDevilSquareDropRate", 2, gDirPath.GetNewPath("commonserver.cfg"));

  00089	68 00 00 00 00	 push	 OFFSET ??_C@_0BB@IGLHFEOF@commonserver?4cfg?$AA@
  0008e	b9 00 00 00 00	 mov	 ecx, OFFSET ?gDirPath@@3VCDirPath@@A ; gDirPath
  00093	a3 00 00 00 00	 mov	 DWORD PTR ?gEyesOfDevilSquareDropRate@@3HA, eax ; gEyesOfDevilSquareDropRate
  00098	e8 00 00 00 00	 call	 ?GetNewPath@CDirPath@@QAEPADPAD@Z ; CDirPath::GetNewPath
  0009d	50		 push	 eax
  0009e	6a 02		 push	 2
  000a0	68 00 00 00 00	 push	 OFFSET ??_C@_0BJ@DHGJEDK@KeyOfDevilSquareDropRate?$AA@
  000a5	68 00 00 00 00	 push	 OFFSET ??_C@_0P@EMJDPFDH@GameServerInfo?$AA@
  000aa	ff d6		 call	 esi

; 1978 : 			g_BloodCastle.Load(gDirPath.GetNewPath("BloodCastle.dat"));

  000ac	68 00 00 00 00	 push	 OFFSET ??_C@_0BA@CJKIMMIB@BloodCastle?4dat?$AA@
  000b1	b9 00 00 00 00	 mov	 ecx, OFFSET ?gDirPath@@3VCDirPath@@A ; gDirPath
  000b6	a3 00 00 00 00	 mov	 DWORD PTR ?gKeyOfDevilSquareDropRate@@3HA, eax ; gKeyOfDevilSquareDropRate
  000bb	e8 00 00 00 00	 call	 ?GetNewPath@CDirPath@@QAEPADPAD@Z ; CDirPath::GetNewPath
  000c0	50		 push	 eax
  000c1	b9 00 00 00 00	 mov	 ecx, OFFSET ?g_BloodCastle@@3VCBloodCastle@@A ; g_BloodCastle
  000c6	e8 00 00 00 00	 call	 ?Load@CBloodCastle@@QAEHPAD@Z ; CBloodCastle::Load

; 1979 : 			g_bBloodCastle = GetPrivateProfileInt("GameServerInfo","BloodCastleEvent", 0, gDirPath.GetNewPath("commonserver.cfg"));

  000cb	68 00 00 00 00	 push	 OFFSET ??_C@_0BB@IGLHFEOF@commonserver?4cfg?$AA@
  000d0	b9 00 00 00 00	 mov	 ecx, OFFSET ?gDirPath@@3VCDirPath@@A ; gDirPath
  000d5	e8 00 00 00 00	 call	 ?GetNewPath@CDirPath@@QAEPADPAD@Z ; CDirPath::GetNewPath
  000da	50		 push	 eax
  000db	6a 00		 push	 0
  000dd	68 00 00 00 00	 push	 OFFSET ??_C@_0BB@DHAFCNAC@BloodCastleEvent?$AA@
  000e2	68 00 00 00 00	 push	 OFFSET ??_C@_0P@EMJDPFDH@GameServerInfo?$AA@
  000e7	ff d6		 call	 esi

; 1980 : 			g_iBloodCastle_StartHour = GetPrivateProfileInt("GameServerInfo","BloodCastleStartHour", 1, gDirPath.GetNewPath("commonserver.cfg"));

  000e9	68 00 00 00 00	 push	 OFFSET ??_C@_0BB@IGLHFEOF@commonserver?4cfg?$AA@
  000ee	b9 00 00 00 00	 mov	 ecx, OFFSET ?gDirPath@@3VCDirPath@@A ; gDirPath
  000f3	a3 00 00 00 00	 mov	 DWORD PTR ?g_bBloodCastle@@3HA, eax ; g_bBloodCastle
  000f8	e8 00 00 00 00	 call	 ?GetNewPath@CDirPath@@QAEPADPAD@Z ; CDirPath::GetNewPath
  000fd	50		 push	 eax
  000fe	6a 01		 push	 1
  00100	68 00 00 00 00	 push	 OFFSET ??_C@_0BF@DLNBCIAJ@BloodCastleStartHour?$AA@
  00105	68 00 00 00 00	 push	 OFFSET ??_C@_0P@EMJDPFDH@GameServerInfo?$AA@
  0010a	ff d6		 call	 esi

; 1981 : 			g_iAngelKingsPaperDropRate = GetPrivateProfileInt("GameServerInfo","AngelKingsPaperDropRate", 0, gDirPath.GetNewPath("commonserver.cfg"));

  0010c	68 00 00 00 00	 push	 OFFSET ??_C@_0BB@IGLHFEOF@commonserver?4cfg?$AA@
  00111	b9 00 00 00 00	 mov	 ecx, OFFSET ?gDirPath@@3VCDirPath@@A ; gDirPath
  00116	a3 00 00 00 00	 mov	 DWORD PTR ?g_iBloodCastle_StartHour@@3HA, eax ; g_iBloodCastle_StartHour
  0011b	e8 00 00 00 00	 call	 ?GetNewPath@CDirPath@@QAEPADPAD@Z ; CDirPath::GetNewPath
  00120	50		 push	 eax
  00121	6a 00		 push	 0
  00123	68 00 00 00 00	 push	 OFFSET ??_C@_0BI@KPDDGOOE@AngelKingsPaperDropRate?$AA@
  00128	68 00 00 00 00	 push	 OFFSET ??_C@_0P@EMJDPFDH@GameServerInfo?$AA@
  0012d	ff d6		 call	 esi

; 1982 : 			g_iBloodBoneDropRate = GetPrivateProfileInt("GameServerInfo","BloodBoneDropRate", 0, gDirPath.GetNewPath("commonserver.cfg"));

  0012f	68 00 00 00 00	 push	 OFFSET ??_C@_0BB@IGLHFEOF@commonserver?4cfg?$AA@
  00134	b9 00 00 00 00	 mov	 ecx, OFFSET ?gDirPath@@3VCDirPath@@A ; gDirPath
  00139	a3 00 00 00 00	 mov	 DWORD PTR ?g_iAngelKingsPaperDropRate@@3HA, eax ; g_iAngelKingsPaperDropRate
  0013e	e8 00 00 00 00	 call	 ?GetNewPath@CDirPath@@QAEPADPAD@Z ; CDirPath::GetNewPath
  00143	50		 push	 eax
  00144	6a 00		 push	 0
  00146	68 00 00 00 00	 push	 OFFSET ??_C@_0BC@NGLLHLOE@BloodBoneDropRate?$AA@
  0014b	68 00 00 00 00	 push	 OFFSET ??_C@_0P@EMJDPFDH@GameServerInfo?$AA@
  00150	ff d6		 call	 esi

; 1983 : 			g_iStoneDropRate = GetPrivateProfileInt("GameServerInfo","StoneDropRate", 0, gDirPath.GetNewPath("commonserver.cfg"));

  00152	68 00 00 00 00	 push	 OFFSET ??_C@_0BB@IGLHFEOF@commonserver?4cfg?$AA@
  00157	b9 00 00 00 00	 mov	 ecx, OFFSET ?gDirPath@@3VCDirPath@@A ; gDirPath
  0015c	a3 00 00 00 00	 mov	 DWORD PTR ?g_iBloodBoneDropRate@@3HA, eax ; g_iBloodBoneDropRate
  00161	e8 00 00 00 00	 call	 ?GetNewPath@CDirPath@@QAEPADPAD@Z ; CDirPath::GetNewPath
  00166	50		 push	 eax
  00167	6a 00		 push	 0
  00169	68 00 00 00 00	 push	 OFFSET ??_C@_0O@PBCFFJJH@StoneDropRate?$AA@
  0016e	68 00 00 00 00	 push	 OFFSET ??_C@_0P@EMJDPFDH@GameServerInfo?$AA@
  00173	ff d6		 call	 esi

; 1984 : 			gIsDropDarkLordItem = GetPrivateProfileInt("GameServerInfo","IsDropDarkLordItem", 0, gDirPath.GetNewPath("commonserver.cfg"));

  00175	68 00 00 00 00	 push	 OFFSET ??_C@_0BB@IGLHFEOF@commonserver?4cfg?$AA@
  0017a	b9 00 00 00 00	 mov	 ecx, OFFSET ?gDirPath@@3VCDirPath@@A ; gDirPath
  0017f	a3 00 00 00 00	 mov	 DWORD PTR ?g_iStoneDropRate@@3HA, eax ; g_iStoneDropRate
  00184	e8 00 00 00 00	 call	 ?GetNewPath@CDirPath@@QAEPADPAD@Z ; CDirPath::GetNewPath
  00189	50		 push	 eax
  0018a	6a 00		 push	 0
  0018c	68 00 00 00 00	 push	 OFFSET ??_C@_0BD@KIIHPPEC@IsDropDarkLordItem?$AA@
  00191	68 00 00 00 00	 push	 OFFSET ??_C@_0P@EMJDPFDH@GameServerInfo?$AA@
  00196	ff d6		 call	 esi

; 1985 : 			gSleeveOfLordDropRate = GetPrivateProfileInt("GameServerInfo","SleeveOfLordDropRate", 10, gDirPath.GetNewPath("commonserver.cfg"));

  00198	68 00 00 00 00	 push	 OFFSET ??_C@_0BB@IGLHFEOF@commonserver?4cfg?$AA@
  0019d	b9 00 00 00 00	 mov	 ecx, OFFSET ?gDirPath@@3VCDirPath@@A ; gDirPath
  001a2	a3 00 00 00 00	 mov	 DWORD PTR ?gIsDropDarkLordItem@@3HA, eax ; gIsDropDarkLordItem
  001a7	e8 00 00 00 00	 call	 ?GetNewPath@CDirPath@@QAEPADPAD@Z ; CDirPath::GetNewPath
  001ac	50		 push	 eax
  001ad	6a 0a		 push	 10			; 0000000aH
  001af	68 00 00 00 00	 push	 OFFSET ??_C@_0BF@CIEOPDEB@SleeveOfLordDropRate?$AA@
  001b4	68 00 00 00 00	 push	 OFFSET ??_C@_0P@EMJDPFDH@GameServerInfo?$AA@
  001b9	ff d6		 call	 esi

; 1986 : 			gSleeveOfLordDropLevel = GetPrivateProfileInt("GameServerInfo","SleeveOfLordDropLevel", 86, gDirPath.GetNewPath("commonserver.cfg"));

  001bb	68 00 00 00 00	 push	 OFFSET ??_C@_0BB@IGLHFEOF@commonserver?4cfg?$AA@
  001c0	b9 00 00 00 00	 mov	 ecx, OFFSET ?gDirPath@@3VCDirPath@@A ; gDirPath
  001c5	a3 00 00 00 00	 mov	 DWORD PTR ?gSleeveOfLordDropRate@@3HA, eax ; gSleeveOfLordDropRate
  001ca	e8 00 00 00 00	 call	 ?GetNewPath@CDirPath@@QAEPADPAD@Z ; CDirPath::GetNewPath
  001cf	50		 push	 eax
  001d0	6a 56		 push	 86			; 00000056H
  001d2	68 00 00 00 00	 push	 OFFSET ??_C@_0BG@KOOOBGPO@SleeveOfLordDropLevel?$AA@
  001d7	68 00 00 00 00	 push	 OFFSET ??_C@_0P@EMJDPFDH@GameServerInfo?$AA@
  001dc	ff d6		 call	 esi

; 1987 : 			gSoulOfDarkHorseDropRate = GetPrivateProfileInt("GameServerInfo","SoulOfDarkHorseDropRate", 10, gDirPath.GetNewPath("commonserver.cfg"));

  001de	68 00 00 00 00	 push	 OFFSET ??_C@_0BB@IGLHFEOF@commonserver?4cfg?$AA@
  001e3	b9 00 00 00 00	 mov	 ecx, OFFSET ?gDirPath@@3VCDirPath@@A ; gDirPath
  001e8	a3 00 00 00 00	 mov	 DWORD PTR ?gSleeveOfLordDropLevel@@3HA, eax ; gSleeveOfLordDropLevel
  001ed	e8 00 00 00 00	 call	 ?GetNewPath@CDirPath@@QAEPADPAD@Z ; CDirPath::GetNewPath
  001f2	50		 push	 eax
  001f3	6a 0a		 push	 10			; 0000000aH
  001f5	68 00 00 00 00	 push	 OFFSET ??_C@_0BI@LEJIBFOD@SoulOfDarkHorseDropRate?$AA@
  001fa	68 00 00 00 00	 push	 OFFSET ??_C@_0P@EMJDPFDH@GameServerInfo?$AA@
  001ff	ff d6		 call	 esi

; 1988 : 			gSoulOfDarkHorseropLevel = GetPrivateProfileInt("GameServerInfo","SoulOfDarkHorseropLevel", 125, gDirPath.GetNewPath("commonserver.cfg"));

  00201	68 00 00 00 00	 push	 OFFSET ??_C@_0BB@IGLHFEOF@commonserver?4cfg?$AA@
  00206	b9 00 00 00 00	 mov	 ecx, OFFSET ?gDirPath@@3VCDirPath@@A ; gDirPath
  0020b	a3 00 00 00 00	 mov	 DWORD PTR ?gSoulOfDarkHorseDropRate@@3HA, eax ; gSoulOfDarkHorseDropRate
  00210	e8 00 00 00 00	 call	 ?GetNewPath@CDirPath@@QAEPADPAD@Z ; CDirPath::GetNewPath
  00215	50		 push	 eax
  00216	6a 7d		 push	 125			; 0000007dH
  00218	68 00 00 00 00	 push	 OFFSET ??_C@_0BI@POMKNKAO@SoulOfDarkHorseropLevel?$AA@
  0021d	68 00 00 00 00	 push	 OFFSET ??_C@_0P@EMJDPFDH@GameServerInfo?$AA@
  00222	ff d6		 call	 esi

; 1989 : 			g_iAngelKingsPaperDropRate = GetPrivateProfileInt("GameServerInfo","AngelKingsPaperDropRate", 0, gDirPath.GetNewPath("commonserver.cfg"));

  00224	68 00 00 00 00	 push	 OFFSET ??_C@_0BB@IGLHFEOF@commonserver?4cfg?$AA@
  00229	b9 00 00 00 00	 mov	 ecx, OFFSET ?gDirPath@@3VCDirPath@@A ; gDirPath
  0022e	a3 00 00 00 00	 mov	 DWORD PTR ?gSoulOfDarkHorseropLevel@@3HA, eax ; gSoulOfDarkHorseropLevel
  00233	e8 00 00 00 00	 call	 ?GetNewPath@CDirPath@@QAEPADPAD@Z ; CDirPath::GetNewPath
  00238	50		 push	 eax
  00239	6a 00		 push	 0
  0023b	68 00 00 00 00	 push	 OFFSET ??_C@_0BI@KPDDGOOE@AngelKingsPaperDropRate?$AA@
  00240	68 00 00 00 00	 push	 OFFSET ??_C@_0P@EMJDPFDH@GameServerInfo?$AA@
  00245	ff d6		 call	 esi

; 1990 : 			gSoulOfDarkSpiritDropRate = GetPrivateProfileInt("GameServerInfo","SoulOfDarkSpiritDropRate", 10, gDirPath.GetNewPath("commonserver.cfg"));

  00247	68 00 00 00 00	 push	 OFFSET ??_C@_0BB@IGLHFEOF@commonserver?4cfg?$AA@
  0024c	b9 00 00 00 00	 mov	 ecx, OFFSET ?gDirPath@@3VCDirPath@@A ; gDirPath
  00251	a3 00 00 00 00	 mov	 DWORD PTR ?g_iAngelKingsPaperDropRate@@3HA, eax ; g_iAngelKingsPaperDropRate
  00256	e8 00 00 00 00	 call	 ?GetNewPath@CDirPath@@QAEPADPAD@Z ; CDirPath::GetNewPath
  0025b	50		 push	 eax
  0025c	6a 0a		 push	 10			; 0000000aH
  0025e	68 00 00 00 00	 push	 OFFSET ??_C@_0BJ@NMMKDJPD@SoulOfDarkSpiritDropRate?$AA@
  00263	68 00 00 00 00	 push	 OFFSET ??_C@_0P@EMJDPFDH@GameServerInfo?$AA@
  00268	ff d6		 call	 esi

; 1991 : 			gSoulOfDarkSpiritDropLevel = GetPrivateProfileInt("GameServerInfo","SoulOfDarkSpiritDropLevel", 96, gDirPath.GetNewPath("commonserver.cfg"));

  0026a	68 00 00 00 00	 push	 OFFSET ??_C@_0BB@IGLHFEOF@commonserver?4cfg?$AA@
  0026f	b9 00 00 00 00	 mov	 ecx, OFFSET ?gDirPath@@3VCDirPath@@A ; gDirPath
  00274	a3 00 00 00 00	 mov	 DWORD PTR ?gSoulOfDarkSpiritDropRate@@3HA, eax ; gSoulOfDarkSpiritDropRate
  00279	e8 00 00 00 00	 call	 ?GetNewPath@CDirPath@@QAEPADPAD@Z ; CDirPath::GetNewPath
  0027e	50		 push	 eax
  0027f	6a 60		 push	 96			; 00000060H
  00281	68 00 00 00 00	 push	 OFFSET ??_C@_0BK@ILHFEAJE@SoulOfDarkSpiritDropLevel?$AA@
  00286	68 00 00 00 00	 push	 OFFSET ??_C@_0P@EMJDPFDH@GameServerInfo?$AA@
  0028b	ff d6		 call	 esi

; 1992 : 			GetPrivateProfileString("GameServerInfo", "DarkSpiritAddExperience", "1", szTemp, 5, gDirPath.GetNewPath("commonserver.cfg"));

  0028d	68 00 00 00 00	 push	 OFFSET ??_C@_0BB@IGLHFEOF@commonserver?4cfg?$AA@
  00292	b9 00 00 00 00	 mov	 ecx, OFFSET ?gDirPath@@3VCDirPath@@A ; gDirPath
  00297	a3 00 00 00 00	 mov	 DWORD PTR ?gSoulOfDarkSpiritDropLevel@@3HA, eax ; gSoulOfDarkSpiritDropLevel
  0029c	e8 00 00 00 00	 call	 ?GetNewPath@CDirPath@@QAEPADPAD@Z ; CDirPath::GetNewPath
  002a1	50		 push	 eax
  002a2	8b 3d 00 00 00
	00		 mov	 edi, DWORD PTR __imp__GetPrivateProfileStringA@24
  002a8	6a 05		 push	 5
  002aa	8d 85 fc fe ff
	ff		 lea	 eax, DWORD PTR _szTemp$[ebp]
  002b0	50		 push	 eax
  002b1	68 00 00 00 00	 push	 OFFSET ??_C@_01HIHLOKLC@1?$AA@
  002b6	68 00 00 00 00	 push	 OFFSET ??_C@_0BI@CNLFMLJF@DarkSpiritAddExperience?$AA@
  002bb	68 00 00 00 00	 push	 OFFSET ??_C@_0P@EMJDPFDH@GameServerInfo?$AA@
  002c0	ff d7		 call	 edi

; 1993 : 			gDarkSpiritAddExperience = (float)atof(szTemp);

  002c2	8d 8d fc fe ff
	ff		 lea	 ecx, DWORD PTR _szTemp$[ebp]
  002c8	51		 push	 ecx
  002c9	e8 00 00 00 00	 call	 _atof
  002ce	d9 1d 00 00 00
	00		 fstp	 DWORD PTR ?gDarkSpiritAddExperience@@3MA ; gDarkSpiritAddExperience
  002d4	83 c4 04	 add	 esp, 4

; 1994 : 
; 1995 : 			gIsDropGemOfDefend = GetPrivateProfileInt("GameServerInfo","IsDropGemOfDefend", 0, gDirPath.GetNewPath("commonserver.cfg"));

  002d7	68 00 00 00 00	 push	 OFFSET ??_C@_0BB@IGLHFEOF@commonserver?4cfg?$AA@
  002dc	b9 00 00 00 00	 mov	 ecx, OFFSET ?gDirPath@@3VCDirPath@@A ; gDirPath
  002e1	e8 00 00 00 00	 call	 ?GetNewPath@CDirPath@@QAEPADPAD@Z ; CDirPath::GetNewPath
  002e6	50		 push	 eax
  002e7	6a 00		 push	 0
  002e9	68 00 00 00 00	 push	 OFFSET ??_C@_0BC@DOINNHCK@IsDropGemOfDefend?$AA@
  002ee	68 00 00 00 00	 push	 OFFSET ??_C@_0P@EMJDPFDH@GameServerInfo?$AA@
  002f3	ff d6		 call	 esi

; 1996 : 			gGemOfDefendDropRate = GetPrivateProfileInt("GameServerInfo","GemOfDefendDropRate", 5, gDirPath.GetNewPath("commonserver.cfg"));

  002f5	68 00 00 00 00	 push	 OFFSET ??_C@_0BB@IGLHFEOF@commonserver?4cfg?$AA@
  002fa	b9 00 00 00 00	 mov	 ecx, OFFSET ?gDirPath@@3VCDirPath@@A ; gDirPath
  002ff	a3 00 00 00 00	 mov	 DWORD PTR ?gIsDropGemOfDefend@@3HA, eax ; gIsDropGemOfDefend
  00304	e8 00 00 00 00	 call	 ?GetNewPath@CDirPath@@QAEPADPAD@Z ; CDirPath::GetNewPath
  00309	50		 push	 eax
  0030a	6a 05		 push	 5
  0030c	68 00 00 00 00	 push	 OFFSET ??_C@_0BE@IJLIJOPF@GemOfDefendDropRate?$AA@
  00311	68 00 00 00 00	 push	 OFFSET ??_C@_0P@EMJDPFDH@GameServerInfo?$AA@
  00316	ff d6		 call	 esi

; 1997 : 			gGemOfDefendDropLevel = GetPrivateProfileInt("GameServerInfo","GemOfDefendDropLevel", 75, gDirPath.GetNewPath("commonserver.cfg"));

  00318	68 00 00 00 00	 push	 OFFSET ??_C@_0BB@IGLHFEOF@commonserver?4cfg?$AA@
  0031d	b9 00 00 00 00	 mov	 ecx, OFFSET ?gDirPath@@3VCDirPath@@A ; gDirPath
  00322	a3 00 00 00 00	 mov	 DWORD PTR ?gGemOfDefendDropRate@@3HA, eax ; gGemOfDefendDropRate
  00327	e8 00 00 00 00	 call	 ?GetNewPath@CDirPath@@QAEPADPAD@Z ; CDirPath::GetNewPath
  0032c	50		 push	 eax
  0032d	6a 4b		 push	 75			; 0000004bH
  0032f	68 00 00 00 00	 push	 OFFSET ??_C@_0BF@GCEDJHAG@GemOfDefendDropLevel?$AA@
  00334	68 00 00 00 00	 push	 OFFSET ??_C@_0P@EMJDPFDH@GameServerInfo?$AA@
  00339	ff d6		 call	 esi

; 1998 : 
; 1999 : #if (GS_CASTLE==1)
; 2000 : 			gIsDropSetItemInCastleHuntZone = GetPrivateProfileInt("GameServerInfo","IsDropSetItemInCastleHuntZone", 0, gDirPath.GetNewPath("commonserver.cfg"));
; 2001 : 			gSetItemInCastleHuntZoneDropRate = GetPrivateProfileInt("GameServerInfo","SetItemInCastleHuntZoneDropRate", 1, gDirPath.GetNewPath("commonserver.cfg"));
; 2002 : 			gSetItemInCastleHuntZoneDropLevel = GetPrivateProfileInt("GameServerInfo","SetItemInCastleHuntZoneDropLevel", 75, gDirPath.GetNewPath("commonserver.cfg"));
; 2003 : #endif
; 2004 : 			gAttackEventRegenTime = GetPrivateProfileInt("GameServerInfo","AttackEventRegenTime", 10, gDirPath.GetNewPath("commonserver.cfg"));

  0033b	68 00 00 00 00	 push	 OFFSET ??_C@_0BB@IGLHFEOF@commonserver?4cfg?$AA@
  00340	b9 00 00 00 00	 mov	 ecx, OFFSET ?gDirPath@@3VCDirPath@@A ; gDirPath
  00345	a3 00 00 00 00	 mov	 DWORD PTR ?gGemOfDefendDropLevel@@3HA, eax ; gGemOfDefendDropLevel
  0034a	e8 00 00 00 00	 call	 ?GetNewPath@CDirPath@@QAEPADPAD@Z ; CDirPath::GetNewPath
  0034f	50		 push	 eax
  00350	6a 0a		 push	 10			; 0000000aH
  00352	68 00 00 00 00	 push	 OFFSET ??_C@_0BF@LANDNGMH@AttackEventRegenTime?$AA@
  00357	68 00 00 00 00	 push	 OFFSET ??_C@_0P@EMJDPFDH@GameServerInfo?$AA@
  0035c	ff d6		 call	 esi

; 2005 : 			gIsEledoradoEvent = GetPrivateProfileInt("GameServerInfo","IsEledoradoEvent", 0, gDirPath.GetNewPath("commonserver.cfg"));

  0035e	68 00 00 00 00	 push	 OFFSET ??_C@_0BB@IGLHFEOF@commonserver?4cfg?$AA@
  00363	b9 00 00 00 00	 mov	 ecx, OFFSET ?gDirPath@@3VCDirPath@@A ; gDirPath
  00368	a3 00 00 00 00	 mov	 DWORD PTR ?gAttackEventRegenTime@@3KA, eax ; gAttackEventRegenTime
  0036d	e8 00 00 00 00	 call	 ?GetNewPath@CDirPath@@QAEPADPAD@Z ; CDirPath::GetNewPath
  00372	50		 push	 eax
  00373	6a 00		 push	 0
  00375	68 00 00 00 00	 push	 OFFSET ??_C@_0BB@OEKAOOOA@IsEledoradoEvent?$AA@
  0037a	68 00 00 00 00	 push	 OFFSET ??_C@_0P@EMJDPFDH@GameServerInfo?$AA@
  0037f	ff d6		 call	 esi

; 2006 : 			gEledoradoGoldGoblenRegenTime = GetPrivateProfileInt("GameServerInfo","EledoradoGoldGoblenRegenTime", 180, gDirPath.GetNewPath("commonserver.cfg"));

  00381	68 00 00 00 00	 push	 OFFSET ??_C@_0BB@IGLHFEOF@commonserver?4cfg?$AA@
  00386	b9 00 00 00 00	 mov	 ecx, OFFSET ?gDirPath@@3VCDirPath@@A ; gDirPath
  0038b	a3 00 00 00 00	 mov	 DWORD PTR ?gIsEledoradoEvent@@3HA, eax ; gIsEledoradoEvent
  00390	e8 00 00 00 00	 call	 ?GetNewPath@CDirPath@@QAEPADPAD@Z ; CDirPath::GetNewPath
  00395	50		 push	 eax
  00396	68 b4 00 00 00	 push	 180			; 000000b4H
  0039b	68 00 00 00 00	 push	 OFFSET ??_C@_0BN@GMFOFBJF@EledoradoGoldGoblenRegenTime?$AA@
  003a0	68 00 00 00 00	 push	 OFFSET ??_C@_0P@EMJDPFDH@GameServerInfo?$AA@
  003a5	ff d6		 call	 esi

; 2007 : 			gEledoradoTitanRegenTime = GetPrivateProfileInt("GameServerInfo","EledoradoTitanRegenTime", 180, gDirPath.GetNewPath("commonserver.cfg"));

  003a7	68 00 00 00 00	 push	 OFFSET ??_C@_0BB@IGLHFEOF@commonserver?4cfg?$AA@
  003ac	b9 00 00 00 00	 mov	 ecx, OFFSET ?gDirPath@@3VCDirPath@@A ; gDirPath
  003b1	a3 00 00 00 00	 mov	 DWORD PTR ?gEledoradoGoldGoblenRegenTime@@3KA, eax ; gEledoradoGoldGoblenRegenTime
  003b6	e8 00 00 00 00	 call	 ?GetNewPath@CDirPath@@QAEPADPAD@Z ; CDirPath::GetNewPath
  003bb	50		 push	 eax
  003bc	68 b4 00 00 00	 push	 180			; 000000b4H
  003c1	68 00 00 00 00	 push	 OFFSET ??_C@_0BI@KJLIHAFL@EledoradoTitanRegenTime?$AA@
  003c6	68 00 00 00 00	 push	 OFFSET ??_C@_0P@EMJDPFDH@GameServerInfo?$AA@
  003cb	ff d6		 call	 esi

; 2008 : 			gEledoradoGoldDerconRegenTime = GetPrivateProfileInt("GameServerInfo","EledoradoGoldDerconRegenTime", 720, gDirPath.GetNewPath("commonserver.cfg"));

  003cd	68 00 00 00 00	 push	 OFFSET ??_C@_0BB@IGLHFEOF@commonserver?4cfg?$AA@
  003d2	b9 00 00 00 00	 mov	 ecx, OFFSET ?gDirPath@@3VCDirPath@@A ; gDirPath
  003d7	a3 00 00 00 00	 mov	 DWORD PTR ?gEledoradoTitanRegenTime@@3KA, eax ; gEledoradoTitanRegenTime
  003dc	e8 00 00 00 00	 call	 ?GetNewPath@CDirPath@@QAEPADPAD@Z ; CDirPath::GetNewPath
  003e1	50		 push	 eax
  003e2	68 d0 02 00 00	 push	 720			; 000002d0H
  003e7	68 00 00 00 00	 push	 OFFSET ??_C@_0BN@IJGMJJEJ@EledoradoGoldDerconRegenTime?$AA@
  003ec	68 00 00 00 00	 push	 OFFSET ??_C@_0P@EMJDPFDH@GameServerInfo?$AA@
  003f1	ff d6		 call	 esi

; 2009 : 			gEledoradoDevilLizardKingRegenTime = GetPrivateProfileInt("GameServerInfo","EledoradoDevilLizardKingRegenTime", 360, gDirPath.GetNewPath("commonserver.cfg"));

  003f3	68 00 00 00 00	 push	 OFFSET ??_C@_0BB@IGLHFEOF@commonserver?4cfg?$AA@
  003f8	b9 00 00 00 00	 mov	 ecx, OFFSET ?gDirPath@@3VCDirPath@@A ; gDirPath
  003fd	a3 00 00 00 00	 mov	 DWORD PTR ?gEledoradoGoldDerconRegenTime@@3KA, eax ; gEledoradoGoldDerconRegenTime
  00402	e8 00 00 00 00	 call	 ?GetNewPath@CDirPath@@QAEPADPAD@Z ; CDirPath::GetNewPath
  00407	50		 push	 eax
  00408	68 68 01 00 00	 push	 360			; 00000168H
  0040d	68 00 00 00 00	 push	 OFFSET ??_C@_0CC@KCJCENFB@EledoradoDevilLizardKingRegenTim@
  00412	68 00 00 00 00	 push	 OFFSET ??_C@_0P@EMJDPFDH@GameServerInfo?$AA@
  00417	ff d6		 call	 esi

; 2010 : 			gEledoradoDevilTantarosRegenTime = GetPrivateProfileInt("GameServerInfo","EledoradoDevilTantarosRegenTime", 360, gDirPath.GetNewPath("commonserver.cfg"));

  00419	68 00 00 00 00	 push	 OFFSET ??_C@_0BB@IGLHFEOF@commonserver?4cfg?$AA@
  0041e	b9 00 00 00 00	 mov	 ecx, OFFSET ?gDirPath@@3VCDirPath@@A ; gDirPath
  00423	a3 00 00 00 00	 mov	 DWORD PTR ?gEledoradoDevilLizardKingRegenTime@@3KA, eax ; gEledoradoDevilLizardKingRegenTime
  00428	e8 00 00 00 00	 call	 ?GetNewPath@CDirPath@@QAEPADPAD@Z ; CDirPath::GetNewPath
  0042d	50		 push	 eax
  0042e	68 68 01 00 00	 push	 360			; 00000168H
  00433	68 00 00 00 00	 push	 OFFSET ??_C@_0CA@PDCIOFIF@EledoradoDevilTantarosRegenTime?$AA@
  00438	68 00 00 00 00	 push	 OFFSET ??_C@_0P@EMJDPFDH@GameServerInfo?$AA@
  0043d	ff d6		 call	 esi

; 2011 : 			gEledoradoGoldGoblenItemDropRate = GetPrivateProfileInt("GameServerInfo","EledoradoGoldGoblenItemDropRate", 10, gDirPath.GetNewPath("commonserver.cfg"));

  0043f	68 00 00 00 00	 push	 OFFSET ??_C@_0BB@IGLHFEOF@commonserver?4cfg?$AA@
  00444	b9 00 00 00 00	 mov	 ecx, OFFSET ?gDirPath@@3VCDirPath@@A ; gDirPath
  00449	a3 00 00 00 00	 mov	 DWORD PTR ?gEledoradoDevilTantarosRegenTime@@3KA, eax ; gEledoradoDevilTantarosRegenTime
  0044e	e8 00 00 00 00	 call	 ?GetNewPath@CDirPath@@QAEPADPAD@Z ; CDirPath::GetNewPath
  00453	50		 push	 eax
  00454	6a 0a		 push	 10			; 0000000aH
  00456	68 00 00 00 00	 push	 OFFSET ??_C@_0CA@HENEMHED@EledoradoGoldGoblenItemDropRate?$AA@
  0045b	68 00 00 00 00	 push	 OFFSET ??_C@_0P@EMJDPFDH@GameServerInfo?$AA@
  00460	ff d6		 call	 esi

; 2012 : 			gEledoradoTitanItemDropRate = GetPrivateProfileInt("GameServerInfo","EledoradoTitanItemDropRate", 10, gDirPath.GetNewPath("commonserver.cfg"));

  00462	68 00 00 00 00	 push	 OFFSET ??_C@_0BB@IGLHFEOF@commonserver?4cfg?$AA@
  00467	b9 00 00 00 00	 mov	 ecx, OFFSET ?gDirPath@@3VCDirPath@@A ; gDirPath
  0046c	a3 00 00 00 00	 mov	 DWORD PTR ?gEledoradoGoldGoblenItemDropRate@@3HA, eax ; gEledoradoGoldGoblenItemDropRate
  00471	e8 00 00 00 00	 call	 ?GetNewPath@CDirPath@@QAEPADPAD@Z ; CDirPath::GetNewPath
  00476	50		 push	 eax
  00477	6a 0a		 push	 10			; 0000000aH
  00479	68 00 00 00 00	 push	 OFFSET ??_C@_0BL@CKBDCOGC@EledoradoTitanItemDropRate?$AA@
  0047e	68 00 00 00 00	 push	 OFFSET ??_C@_0P@EMJDPFDH@GameServerInfo?$AA@
  00483	ff d6		 call	 esi

; 2013 : 			gEledoradoGoldDerconItemDropRate = GetPrivateProfileInt("GameServerInfo","EledoradoGoldDerconItemDropRate", 10, gDirPath.GetNewPath("commonserver.cfg"));

  00485	68 00 00 00 00	 push	 OFFSET ??_C@_0BB@IGLHFEOF@commonserver?4cfg?$AA@
  0048a	b9 00 00 00 00	 mov	 ecx, OFFSET ?gDirPath@@3VCDirPath@@A ; gDirPath
  0048f	a3 00 00 00 00	 mov	 DWORD PTR ?gEledoradoTitanItemDropRate@@3HA, eax ; gEledoradoTitanItemDropRate
  00494	e8 00 00 00 00	 call	 ?GetNewPath@CDirPath@@QAEPADPAD@Z ; CDirPath::GetNewPath
  00499	50		 push	 eax
  0049a	6a 0a		 push	 10			; 0000000aH
  0049c	68 00 00 00 00	 push	 OFFSET ??_C@_0CA@DLLDAHDE@EledoradoGoldDerconItemDropRate?$AA@
  004a1	68 00 00 00 00	 push	 OFFSET ??_C@_0P@EMJDPFDH@GameServerInfo?$AA@
  004a6	ff d6		 call	 esi

; 2014 : 			gEledoradoDevilLizardKingItemDropRate = GetPrivateProfileInt("GameServerInfo","EledoradoDevilLizardKingItemDropRate", 10, gDirPath.GetNewPath("commonserver.cfg"));

  004a8	68 00 00 00 00	 push	 OFFSET ??_C@_0BB@IGLHFEOF@commonserver?4cfg?$AA@
  004ad	b9 00 00 00 00	 mov	 ecx, OFFSET ?gDirPath@@3VCDirPath@@A ; gDirPath
  004b2	a3 00 00 00 00	 mov	 DWORD PTR ?gEledoradoGoldDerconItemDropRate@@3HA, eax ; gEledoradoGoldDerconItemDropRate
  004b7	e8 00 00 00 00	 call	 ?GetNewPath@CDirPath@@QAEPADPAD@Z ; CDirPath::GetNewPath
  004bc	50		 push	 eax
  004bd	6a 0a		 push	 10			; 0000000aH
  004bf	68 00 00 00 00	 push	 OFFSET ??_C@_0CF@JGNHCKNH@EledoradoDevilLizardKingItemDrop@
  004c4	68 00 00 00 00	 push	 OFFSET ??_C@_0P@EMJDPFDH@GameServerInfo?$AA@
  004c9	ff d6		 call	 esi

; 2015 : 			gEledoradoDevilTantarosItemDropRate = GetPrivateProfileInt("GameServerInfo","EledoradoDevilTantarosItemDropRate", 10, gDirPath.GetNewPath("commonserver.cfg"));

  004cb	68 00 00 00 00	 push	 OFFSET ??_C@_0BB@IGLHFEOF@commonserver?4cfg?$AA@
  004d0	b9 00 00 00 00	 mov	 ecx, OFFSET ?gDirPath@@3VCDirPath@@A ; gDirPath
  004d5	a3 00 00 00 00	 mov	 DWORD PTR ?gEledoradoDevilLizardKingItemDropRate@@3HA, eax ; gEledoradoDevilLizardKingItemDropRate
  004da	e8 00 00 00 00	 call	 ?GetNewPath@CDirPath@@QAEPADPAD@Z ; CDirPath::GetNewPath
  004df	50		 push	 eax
  004e0	6a 0a		 push	 10			; 0000000aH
  004e2	68 00 00 00 00	 push	 OFFSET ??_C@_0CD@FBDNNLBJ@EledoradoDevilTantarosItemDropRa@
  004e7	68 00 00 00 00	 push	 OFFSET ??_C@_0P@EMJDPFDH@GameServerInfo?$AA@
  004ec	ff d6		 call	 esi

; 2016 : 			gEledoradoGoldGoblenExItemDropRate = GetPrivateProfileInt("GameServerInfo","EledoradoGoldGoblenExItemDropRate", 10, gDirPath.GetNewPath("commonserver.cfg"));

  004ee	68 00 00 00 00	 push	 OFFSET ??_C@_0BB@IGLHFEOF@commonserver?4cfg?$AA@
  004f3	b9 00 00 00 00	 mov	 ecx, OFFSET ?gDirPath@@3VCDirPath@@A ; gDirPath
  004f8	a3 00 00 00 00	 mov	 DWORD PTR ?gEledoradoDevilTantarosItemDropRate@@3HA, eax ; gEledoradoDevilTantarosItemDropRate
  004fd	e8 00 00 00 00	 call	 ?GetNewPath@CDirPath@@QAEPADPAD@Z ; CDirPath::GetNewPath
  00502	50		 push	 eax
  00503	6a 0a		 push	 10			; 0000000aH
  00505	68 00 00 00 00	 push	 OFFSET ??_C@_0CC@FBLILEOL@EledoradoGoldGoblenExItemDropRat@
  0050a	68 00 00 00 00	 push	 OFFSET ??_C@_0P@EMJDPFDH@GameServerInfo?$AA@
  0050f	ff d6		 call	 esi

; 2017 : 			gEledoradoTitanExItemDropRate = GetPrivateProfileInt("GameServerInfo","EledoradoTitanExItemDropRate", 10, gDirPath.GetNewPath("commonserver.cfg"));

  00511	68 00 00 00 00	 push	 OFFSET ??_C@_0BB@IGLHFEOF@commonserver?4cfg?$AA@
  00516	b9 00 00 00 00	 mov	 ecx, OFFSET ?gDirPath@@3VCDirPath@@A ; gDirPath
  0051b	a3 00 00 00 00	 mov	 DWORD PTR ?gEledoradoGoldGoblenExItemDropRate@@3HA, eax ; gEledoradoGoldGoblenExItemDropRate
  00520	e8 00 00 00 00	 call	 ?GetNewPath@CDirPath@@QAEPADPAD@Z ; CDirPath::GetNewPath
  00525	50		 push	 eax
  00526	6a 0a		 push	 10			; 0000000aH
  00528	68 00 00 00 00	 push	 OFFSET ??_C@_0BN@EPBKFBD@EledoradoTitanExItemDropRate?$AA@
  0052d	68 00 00 00 00	 push	 OFFSET ??_C@_0P@EMJDPFDH@GameServerInfo?$AA@
  00532	ff d6		 call	 esi

; 2018 : 			gEledoradoGoldDerconExItemDropRate = GetPrivateProfileInt("GameServerInfo","EledoradoGoldDerconExItemDropRate", 10, gDirPath.GetNewPath("commonserver.cfg"));

  00534	68 00 00 00 00	 push	 OFFSET ??_C@_0BB@IGLHFEOF@commonserver?4cfg?$AA@
  00539	b9 00 00 00 00	 mov	 ecx, OFFSET ?gDirPath@@3VCDirPath@@A ; gDirPath
  0053e	a3 00 00 00 00	 mov	 DWORD PTR ?gEledoradoTitanExItemDropRate@@3HA, eax ; gEledoradoTitanExItemDropRate
  00543	e8 00 00 00 00	 call	 ?GetNewPath@CDirPath@@QAEPADPAD@Z ; CDirPath::GetNewPath
  00548	50		 push	 eax
  00549	6a 0a		 push	 10			; 0000000aH
  0054b	68 00 00 00 00	 push	 OFFSET ??_C@_0CC@KKKCNGAN@EledoradoGoldDerconExItemDropRat@
  00550	68 00 00 00 00	 push	 OFFSET ??_C@_0P@EMJDPFDH@GameServerInfo?$AA@
  00555	ff d6		 call	 esi

; 2019 : 			gEledoradoDevilLizardKingExItemDropRate = GetPrivateProfileInt("GameServerInfo","EledoradoDevilLizardKingExItemDropRate", 10, gDirPath.GetNewPath("commonserver.cfg"));

  00557	68 00 00 00 00	 push	 OFFSET ??_C@_0BB@IGLHFEOF@commonserver?4cfg?$AA@
  0055c	b9 00 00 00 00	 mov	 ecx, OFFSET ?gDirPath@@3VCDirPath@@A ; gDirPath
  00561	a3 00 00 00 00	 mov	 DWORD PTR ?gEledoradoGoldDerconExItemDropRate@@3HA, eax ; gEledoradoGoldDerconExItemDropRate
  00566	e8 00 00 00 00	 call	 ?GetNewPath@CDirPath@@QAEPADPAD@Z ; CDirPath::GetNewPath
  0056b	50		 push	 eax
  0056c	6a 0a		 push	 10			; 0000000aH
  0056e	68 00 00 00 00	 push	 OFFSET ??_C@_0CH@JKCOIHDD@EledoradoDevilLizardKingExItemDr@
  00573	68 00 00 00 00	 push	 OFFSET ??_C@_0P@EMJDPFDH@GameServerInfo?$AA@
  00578	ff d6		 call	 esi

; 2020 : 			gEledoradoDevilTantarosExItemDropRate = GetPrivateProfileInt("GameServerInfo","EledoradoDevilTantarosExItemDropRate", 10, gDirPath.GetNewPath("commonserver.cfg"));

  0057a	68 00 00 00 00	 push	 OFFSET ??_C@_0BB@IGLHFEOF@commonserver?4cfg?$AA@
  0057f	b9 00 00 00 00	 mov	 ecx, OFFSET ?gDirPath@@3VCDirPath@@A ; gDirPath
  00584	a3 00 00 00 00	 mov	 DWORD PTR ?gEledoradoDevilLizardKingExItemDropRate@@3HA, eax ; gEledoradoDevilLizardKingExItemDropRate
  00589	e8 00 00 00 00	 call	 ?GetNewPath@CDirPath@@QAEPADPAD@Z ; CDirPath::GetNewPath
  0058e	50		 push	 eax
  0058f	6a 0a		 push	 10			; 0000000aH
  00591	68 00 00 00 00	 push	 OFFSET ??_C@_0CF@FONHIJD@EledoradoDevilTantarosExItemDrop@
  00596	68 00 00 00 00	 push	 OFFSET ??_C@_0P@EMJDPFDH@GameServerInfo?$AA@
  0059b	ff d6		 call	 esi

; 2021 : 			GetPrivateProfileString("GameServerInfo", "RingAttackEvent", "0", szTemp, 5, gDirPath.GetNewPath("commonserver.cfg"));

  0059d	68 00 00 00 00	 push	 OFFSET ??_C@_0BB@IGLHFEOF@commonserver?4cfg?$AA@
  005a2	b9 00 00 00 00	 mov	 ecx, OFFSET ?gDirPath@@3VCDirPath@@A ; gDirPath
  005a7	a3 00 00 00 00	 mov	 DWORD PTR ?gEledoradoDevilTantarosExItemDropRate@@3HA, eax ; gEledoradoDevilTantarosExItemDropRate
  005ac	e8 00 00 00 00	 call	 ?GetNewPath@CDirPath@@QAEPADPAD@Z ; CDirPath::GetNewPath
  005b1	50		 push	 eax
  005b2	6a 05		 push	 5
  005b4	8d 95 fc fe ff
	ff		 lea	 edx, DWORD PTR _szTemp$[ebp]
  005ba	52		 push	 edx
  005bb	68 00 00 00 00	 push	 OFFSET ??_C@_01GBGANLPD@0?$AA@
  005c0	68 00 00 00 00	 push	 OFFSET ??_C@_0BA@PGIAALHL@RingAttackEvent?$AA@
  005c5	68 00 00 00 00	 push	 OFFSET ??_C@_0P@EMJDPFDH@GameServerInfo?$AA@
  005ca	ff d7		 call	 edi

; 2022 : 			g_bDoRingEvent = atoi(szTemp);

  005cc	8d 85 fc fe ff
	ff		 lea	 eax, DWORD PTR _szTemp$[ebp]
  005d2	50		 push	 eax
  005d3	e8 00 00 00 00	 call	 _atoi
  005d8	83 c4 04	 add	 esp, 4

; 2023 : 			GetPrivateProfileString("GameServerInfo", "RingOrcKillGiftRate", "10000", szTemp, 10, gDirPath.GetNewPath("commonserver.cfg"));

  005db	68 00 00 00 00	 push	 OFFSET ??_C@_0BB@IGLHFEOF@commonserver?4cfg?$AA@
  005e0	b9 00 00 00 00	 mov	 ecx, OFFSET ?gDirPath@@3VCDirPath@@A ; gDirPath
  005e5	a3 00 00 00 00	 mov	 DWORD PTR ?g_bDoRingEvent@@3HA, eax ; g_bDoRingEvent
  005ea	e8 00 00 00 00	 call	 ?GetNewPath@CDirPath@@QAEPADPAD@Z ; CDirPath::GetNewPath
  005ef	50		 push	 eax
  005f0	6a 0a		 push	 10			; 0000000aH
  005f2	8d 8d fc fe ff
	ff		 lea	 ecx, DWORD PTR _szTemp$[ebp]
  005f8	51		 push	 ecx
  005f9	68 00 00 00 00	 push	 OFFSET ??_C@_05CLDMBJBA@10000?$AA@
  005fe	68 00 00 00 00	 push	 OFFSET ??_C@_0BE@PAGFJHNK@RingOrcKillGiftRate?$AA@
  00603	68 00 00 00 00	 push	 OFFSET ??_C@_0P@EMJDPFDH@GameServerInfo?$AA@
  00608	ff d7		 call	 edi

; 2024 : 			g_iRingOrcKillGiftRate = atoi(szTemp);

  0060a	8d 95 fc fe ff
	ff		 lea	 edx, DWORD PTR _szTemp$[ebp]
  00610	52		 push	 edx
  00611	e8 00 00 00 00	 call	 _atoi
  00616	83 c4 04	 add	 esp, 4

; 2025 : 			GetPrivateProfileString("GameServerInfo", "RingDropGiftRate", "10000", szTemp, 10, gDirPath.GetNewPath("commonserver.cfg"));

  00619	68 00 00 00 00	 push	 OFFSET ??_C@_0BB@IGLHFEOF@commonserver?4cfg?$AA@
  0061e	b9 00 00 00 00	 mov	 ecx, OFFSET ?gDirPath@@3VCDirPath@@A ; gDirPath
  00623	a3 00 00 00 00	 mov	 DWORD PTR ?g_iRingOrcKillGiftRate@@3HA, eax ; g_iRingOrcKillGiftRate
  00628	e8 00 00 00 00	 call	 ?GetNewPath@CDirPath@@QAEPADPAD@Z ; CDirPath::GetNewPath
  0062d	50		 push	 eax
  0062e	6a 0a		 push	 10			; 0000000aH
  00630	8d 85 fc fe ff
	ff		 lea	 eax, DWORD PTR _szTemp$[ebp]
  00636	50		 push	 eax
  00637	68 00 00 00 00	 push	 OFFSET ??_C@_05CLDMBJBA@10000?$AA@
  0063c	68 00 00 00 00	 push	 OFFSET ??_C@_0BB@NMFCKOP@RingDropGiftRate?$AA@
  00641	68 00 00 00 00	 push	 OFFSET ??_C@_0P@EMJDPFDH@GameServerInfo?$AA@
  00646	ff d7		 call	 edi

; 2026 : 			g_iRingDropGiftRate = atoi(szTemp);

  00648	8d 8d fc fe ff
	ff		 lea	 ecx, DWORD PTR _szTemp$[ebp]
  0064e	51		 push	 ecx
  0064f	e8 00 00 00 00	 call	 _atoi
  00654	83 c4 04	 add	 esp, 4
  00657	a3 00 00 00 00	 mov	 DWORD PTR ?g_iRingDropGiftRate@@3HA, eax ; g_iRingDropGiftRate

; 2027 : 			g_RingAttackEvent.Load(gDirPath.GetNewPath("RingAttackEvent.dat"));

  0065c	68 00 00 00 00	 push	 OFFSET ??_C@_0BE@BHMFOLMK@RingAttackEvent?4dat?$AA@
  00661	b9 00 00 00 00	 mov	 ecx, OFFSET ?gDirPath@@3VCDirPath@@A ; gDirPath
  00666	e8 00 00 00 00	 call	 ?GetNewPath@CDirPath@@QAEPADPAD@Z ; CDirPath::GetNewPath
  0066b	50		 push	 eax
  0066c	b9 00 00 00 00	 mov	 ecx, OFFSET ?g_RingAttackEvent@@3VCRingAttackEvent@@A ; g_RingAttackEvent
  00671	e8 00 00 00 00	 call	 ?Load@CRingAttackEvent@@UAEHPAD@Z ; CRingAttackEvent::Load

; 2028 : #if GS_CASTLE == 1
; 2029 : 			g_bDoRingEvent = FALSE;
; 2030 : #endif
; 2031 : 			g_RingAttackEvent.EnableEvent(g_bDoRingEvent);

  00676	8b 15 00 00 00
	00		 mov	 edx, DWORD PTR ?g_bDoRingEvent@@3HA ; g_bDoRingEvent
  0067c	52		 push	 edx
  0067d	b9 00 00 00 00	 mov	 ecx, OFFSET ?g_RingAttackEvent@@3VCRingAttackEvent@@A ; g_RingAttackEvent
  00682	e8 00 00 00 00	 call	 ?EnableEvent@CRingAttackEvent@@QAEXH@Z ; CRingAttackEvent::EnableEvent

; 2032 : 
; 2033 : #if (GS_CASTLE==1)
; 2034 : 			GetPrivateProfileString("GameServerInfo", "CastleDeepEvent", "0", szTemp, 5, gDirPath.GetNewPath("commonserver.cfg"));
; 2035 : 			g_bDoCastleDeepEvent = atoi(szTemp);
; 2036 : 			g_CastleDeepEvent.Load(gDirPath.GetNewPath("CastleDeepEvent.dat"));
; 2037 : 			g_CastleDeepEvent.EnableEvent(g_bDoCastleDeepEvent);
; 2038 : #endif
; 2039 : 
; 2040 : 			GetPrivateProfileString("GameServerInfo", "EVENT1", "0", szTemp, 5, gDirPath.GetNewPath("commonserver.cfg"));

  00687	68 00 00 00 00	 push	 OFFSET ??_C@_0BB@IGLHFEOF@commonserver?4cfg?$AA@
  0068c	b9 00 00 00 00	 mov	 ecx, OFFSET ?gDirPath@@3VCDirPath@@A ; gDirPath
  00691	e8 00 00 00 00	 call	 ?GetNewPath@CDirPath@@QAEPADPAD@Z ; CDirPath::GetNewPath
  00696	50		 push	 eax
  00697	6a 05		 push	 5
  00699	8d 85 fc fe ff
	ff		 lea	 eax, DWORD PTR _szTemp$[ebp]
  0069f	50		 push	 eax
  006a0	68 00 00 00 00	 push	 OFFSET ??_C@_01GBGANLPD@0?$AA@
  006a5	68 00 00 00 00	 push	 OFFSET ??_C@_06OIEHOIFM@EVENT1?$AA@
  006aa	68 00 00 00 00	 push	 OFFSET ??_C@_0P@EMJDPFDH@GameServerInfo?$AA@
  006af	ff d7		 call	 edi

; 2041 : 			gEvent1 = atoi(szTemp);

  006b1	8d 8d fc fe ff
	ff		 lea	 ecx, DWORD PTR _szTemp$[ebp]
  006b7	51		 push	 ecx
  006b8	e8 00 00 00 00	 call	 _atoi
  006bd	83 c4 04	 add	 esp, 4

; 2042 : 			GetPrivateProfileString("GameServerInfo", "Event1ItemDropTodayMax", "1", szTemp, 5, gDirPath.GetNewPath("commonserver.cfg"));

  006c0	68 00 00 00 00	 push	 OFFSET ??_C@_0BB@IGLHFEOF@commonserver?4cfg?$AA@
  006c5	b9 00 00 00 00	 mov	 ecx, OFFSET ?gDirPath@@3VCDirPath@@A ; gDirPath
  006ca	a3 00 00 00 00	 mov	 DWORD PTR ?gEvent1@@3HA, eax ; gEvent1
  006cf	e8 00 00 00 00	 call	 ?GetNewPath@CDirPath@@QAEPADPAD@Z ; CDirPath::GetNewPath
  006d4	50		 push	 eax
  006d5	6a 05		 push	 5
  006d7	8d 95 fc fe ff
	ff		 lea	 edx, DWORD PTR _szTemp$[ebp]
  006dd	52		 push	 edx
  006de	68 00 00 00 00	 push	 OFFSET ??_C@_01HIHLOKLC@1?$AA@
  006e3	68 00 00 00 00	 push	 OFFSET ??_C@_0BH@LPINNCM@Event1ItemDropTodayMax?$AA@
  006e8	68 00 00 00 00	 push	 OFFSET ??_C@_0P@EMJDPFDH@GameServerInfo?$AA@
  006ed	ff d7		 call	 edi

; 2043 : 			gEvent1ItemDropTodayCount = 0;
; 2044 : 			gEvent1ItemDropTodayMax = atoi(szTemp);

  006ef	8d 85 fc fe ff
	ff		 lea	 eax, DWORD PTR _szTemp$[ebp]
  006f5	50		 push	 eax
  006f6	c7 05 00 00 00
	00 00 00 00 00	 mov	 DWORD PTR ?gEvent1ItemDropTodayCount@@3HA, 0 ; gEvent1ItemDropTodayCount
  00700	e8 00 00 00 00	 call	 _atoi
  00705	83 c4 04	 add	 esp, 4

; 2045 : 			GetPrivateProfileString("GameServerInfo", "Event1ItemDropTodayPercent", "10000000", szTemp, 5, gDirPath.GetNewPath("commonserver.cfg"));

  00708	68 00 00 00 00	 push	 OFFSET ??_C@_0BB@IGLHFEOF@commonserver?4cfg?$AA@
  0070d	b9 00 00 00 00	 mov	 ecx, OFFSET ?gDirPath@@3VCDirPath@@A ; gDirPath
  00712	a3 00 00 00 00	 mov	 DWORD PTR ?gEvent1ItemDropTodayMax@@3HA, eax ; gEvent1ItemDropTodayMax
  00717	e8 00 00 00 00	 call	 ?GetNewPath@CDirPath@@QAEPADPAD@Z ; CDirPath::GetNewPath
  0071c	50		 push	 eax
  0071d	6a 05		 push	 5
  0071f	8d 8d fc fe ff
	ff		 lea	 ecx, DWORD PTR _szTemp$[ebp]
  00725	51		 push	 ecx
  00726	68 00 00 00 00	 push	 OFFSET ??_C@_08KDEPFNAG@10000000?$AA@
  0072b	68 00 00 00 00	 push	 OFFSET ??_C@_0BL@ENBIHHCD@Event1ItemDropTodayPercent?$AA@
  00730	68 00 00 00 00	 push	 OFFSET ??_C@_0P@EMJDPFDH@GameServerInfo?$AA@
  00735	ff d7		 call	 edi

; 2046 : 			gEvent1ItemDropTodayPercent = atoi(szTemp);

  00737	8d 95 fc fe ff
	ff		 lea	 edx, DWORD PTR _szTemp$[ebp]
  0073d	52		 push	 edx
  0073e	e8 00 00 00 00	 call	 _atoi
  00743	83 c4 04	 add	 esp, 4

; 2047 : 			gFireCrackerEvent = GetPrivateProfileInt("GameServerInfo","FireCrackerEvent", 0, gDirPath.GetNewPath("commonserver.cfg"));

  00746	68 00 00 00 00	 push	 OFFSET ??_C@_0BB@IGLHFEOF@commonserver?4cfg?$AA@
  0074b	b9 00 00 00 00	 mov	 ecx, OFFSET ?gDirPath@@3VCDirPath@@A ; gDirPath
  00750	a3 00 00 00 00	 mov	 DWORD PTR ?gEvent1ItemDropTodayPercent@@3HA, eax ; gEvent1ItemDropTodayPercent
  00755	e8 00 00 00 00	 call	 ?GetNewPath@CDirPath@@QAEPADPAD@Z ; CDirPath::GetNewPath
  0075a	50		 push	 eax
  0075b	6a 00		 push	 0
  0075d	68 00 00 00 00	 push	 OFFSET ??_C@_0BB@PMGPGCOG@FireCrackerEvent?$AA@
  00762	68 00 00 00 00	 push	 OFFSET ??_C@_0P@EMJDPFDH@GameServerInfo?$AA@
  00767	ff d6		 call	 esi

; 2048 : 			gFireCrackerDropRate = GetPrivateProfileInt("GameServerInfo","FireCrackerDropRate", 5000, gDirPath.GetNewPath("commonserver.cfg"));

  00769	68 00 00 00 00	 push	 OFFSET ??_C@_0BB@IGLHFEOF@commonserver?4cfg?$AA@
  0076e	b9 00 00 00 00	 mov	 ecx, OFFSET ?gDirPath@@3VCDirPath@@A ; gDirPath
  00773	a3 00 00 00 00	 mov	 DWORD PTR ?gFireCrackerEvent@@3HA, eax ; gFireCrackerEvent
  00778	e8 00 00 00 00	 call	 ?GetNewPath@CDirPath@@QAEPADPAD@Z ; CDirPath::GetNewPath
  0077d	50		 push	 eax
  0077e	68 88 13 00 00	 push	 5000			; 00001388H
  00783	68 00 00 00 00	 push	 OFFSET ??_C@_0BE@KPFNOKLC@FireCrackerDropRate?$AA@
  00788	68 00 00 00 00	 push	 OFFSET ??_C@_0P@EMJDPFDH@GameServerInfo?$AA@
  0078d	ff d6		 call	 esi

; 2049 : 			g_ItemDropRateForgFireCracker = GetPrivateProfileInt("GameServerInfo","ItemDropRateForFireCracker", 2, gDirPath.GetNewPath("commonserver.cfg"));

  0078f	68 00 00 00 00	 push	 OFFSET ??_C@_0BB@IGLHFEOF@commonserver?4cfg?$AA@
  00794	b9 00 00 00 00	 mov	 ecx, OFFSET ?gDirPath@@3VCDirPath@@A ; gDirPath
  00799	a3 00 00 00 00	 mov	 DWORD PTR ?gFireCrackerDropRate@@3HA, eax ; gFireCrackerDropRate
  0079e	e8 00 00 00 00	 call	 ?GetNewPath@CDirPath@@QAEPADPAD@Z ; CDirPath::GetNewPath
  007a3	50		 push	 eax
  007a4	6a 02		 push	 2
  007a6	68 00 00 00 00	 push	 OFFSET ??_C@_0BL@EHKPPMMG@ItemDropRateForFireCracker?$AA@
  007ab	68 00 00 00 00	 push	 OFFSET ??_C@_0P@EMJDPFDH@GameServerInfo?$AA@
  007b0	ff d6		 call	 esi

; 2050 : 			gOnlyFireCrackerEffectUse = GetPrivateProfileInt("GameServerInfo","OnlyFireCrackerEffectUse", 0, gDirPath.GetNewPath("commonserver.cfg"));

  007b2	68 00 00 00 00	 push	 OFFSET ??_C@_0BB@IGLHFEOF@commonserver?4cfg?$AA@
  007b7	b9 00 00 00 00	 mov	 ecx, OFFSET ?gDirPath@@3VCDirPath@@A ; gDirPath
  007bc	a3 00 00 00 00	 mov	 DWORD PTR ?g_ItemDropRateForgFireCracker@@3HA, eax ; g_ItemDropRateForgFireCracker
  007c1	e8 00 00 00 00	 call	 ?GetNewPath@CDirPath@@QAEPADPAD@Z ; CDirPath::GetNewPath
  007c6	50		 push	 eax
  007c7	6a 00		 push	 0
  007c9	68 00 00 00 00	 push	 OFFSET ??_C@_0BJ@GHAOAAJB@OnlyFireCrackerEffectUse?$AA@
  007ce	68 00 00 00 00	 push	 OFFSET ??_C@_0P@EMJDPFDH@GameServerInfo?$AA@
  007d3	ff d6		 call	 esi

; 2051 : 			gMedalEvent = GetPrivateProfileInt("GameServerInfo","MedalEvent", 0, gDirPath.GetNewPath("commonserver.cfg"));

  007d5	68 00 00 00 00	 push	 OFFSET ??_C@_0BB@IGLHFEOF@commonserver?4cfg?$AA@
  007da	b9 00 00 00 00	 mov	 ecx, OFFSET ?gDirPath@@3VCDirPath@@A ; gDirPath
  007df	a3 00 00 00 00	 mov	 DWORD PTR ?gOnlyFireCrackerEffectUse@@3HA, eax ; gOnlyFireCrackerEffectUse
  007e4	e8 00 00 00 00	 call	 ?GetNewPath@CDirPath@@QAEPADPAD@Z ; CDirPath::GetNewPath
  007e9	50		 push	 eax
  007ea	6a 00		 push	 0
  007ec	68 00 00 00 00	 push	 OFFSET ??_C@_0L@MDFHFAIK@MedalEvent?$AA@
  007f1	68 00 00 00 00	 push	 OFFSET ??_C@_0P@EMJDPFDH@GameServerInfo?$AA@
  007f6	ff d6		 call	 esi

; 2052 : 			gGoldMedalDropRate = GetPrivateProfileInt("GameServerInfo","GoldMedalDropRate", 2, gDirPath.GetNewPath("commonserver.cfg"));

  007f8	68 00 00 00 00	 push	 OFFSET ??_C@_0BB@IGLHFEOF@commonserver?4cfg?$AA@
  007fd	b9 00 00 00 00	 mov	 ecx, OFFSET ?gDirPath@@3VCDirPath@@A ; gDirPath
  00802	a3 00 00 00 00	 mov	 DWORD PTR ?gMedalEvent@@3HA, eax ; gMedalEvent
  00807	e8 00 00 00 00	 call	 ?GetNewPath@CDirPath@@QAEPADPAD@Z ; CDirPath::GetNewPath
  0080c	50		 push	 eax
  0080d	6a 02		 push	 2
  0080f	68 00 00 00 00	 push	 OFFSET ??_C@_0BC@CFKHOCLM@GoldMedalDropRate?$AA@
  00814	68 00 00 00 00	 push	 OFFSET ??_C@_0P@EMJDPFDH@GameServerInfo?$AA@
  00819	ff d6		 call	 esi

; 2053 : 			gSilverMedalDropRate = GetPrivateProfileInt("GameServerInfo","SilverMedalDropRate", 2, gDirPath.GetNewPath("commonserver.cfg"));

  0081b	68 00 00 00 00	 push	 OFFSET ??_C@_0BB@IGLHFEOF@commonserver?4cfg?$AA@
  00820	b9 00 00 00 00	 mov	 ecx, OFFSET ?gDirPath@@3VCDirPath@@A ; gDirPath
  00825	a3 00 00 00 00	 mov	 DWORD PTR ?gGoldMedalDropRate@@3HA, eax ; gGoldMedalDropRate
  0082a	e8 00 00 00 00	 call	 ?GetNewPath@CDirPath@@QAEPADPAD@Z ; CDirPath::GetNewPath
  0082f	50		 push	 eax
  00830	6a 02		 push	 2
  00832	68 00 00 00 00	 push	 OFFSET ??_C@_0BE@OPKEGEPJ@SilverMedalDropRate?$AA@
  00837	68 00 00 00 00	 push	 OFFSET ??_C@_0P@EMJDPFDH@GameServerInfo?$AA@
  0083c	ff d6		 call	 esi

; 2054 : 			g_ItemDropRateForGoldMedal = GetPrivateProfileInt("GameServerInfo","ItemDropRateForGoldMedal", 2, gDirPath.GetNewPath("commonserver.cfg"));

  0083e	68 00 00 00 00	 push	 OFFSET ??_C@_0BB@IGLHFEOF@commonserver?4cfg?$AA@
  00843	b9 00 00 00 00	 mov	 ecx, OFFSET ?gDirPath@@3VCDirPath@@A ; gDirPath
  00848	a3 00 00 00 00	 mov	 DWORD PTR ?gSilverMedalDropRate@@3HA, eax ; gSilverMedalDropRate
  0084d	e8 00 00 00 00	 call	 ?GetNewPath@CDirPath@@QAEPADPAD@Z ; CDirPath::GetNewPath
  00852	50		 push	 eax
  00853	6a 02		 push	 2
  00855	68 00 00 00 00	 push	 OFFSET ??_C@_0BJ@HJDOLNNF@ItemDropRateForGoldMedal?$AA@
  0085a	68 00 00 00 00	 push	 OFFSET ??_C@_0P@EMJDPFDH@GameServerInfo?$AA@
  0085f	ff d6		 call	 esi

; 2055 : 			g_ItemDropRateForSilverMedal = GetPrivateProfileInt("GameServerInfo","ItemDropRateForSilverMedal", 2, gDirPath.GetNewPath("commonserver.cfg"));

  00861	68 00 00 00 00	 push	 OFFSET ??_C@_0BB@IGLHFEOF@commonserver?4cfg?$AA@
  00866	b9 00 00 00 00	 mov	 ecx, OFFSET ?gDirPath@@3VCDirPath@@A ; gDirPath
  0086b	a3 00 00 00 00	 mov	 DWORD PTR ?g_ItemDropRateForGoldMedal@@3HA, eax ; g_ItemDropRateForGoldMedal
  00870	e8 00 00 00 00	 call	 ?GetNewPath@CDirPath@@QAEPADPAD@Z ; CDirPath::GetNewPath
  00875	50		 push	 eax
  00876	6a 02		 push	 2
  00878	68 00 00 00 00	 push	 OFFSET ??_C@_0BL@DECCHFKM@ItemDropRateForSilverMedal?$AA@
  0087d	68 00 00 00 00	 push	 OFFSET ??_C@_0P@EMJDPFDH@GameServerInfo?$AA@
  00882	ff d6		 call	 esi

; 2056 : 			gXMasEvent = GetPrivateProfileInt("GameServerInfo","XMasEvent", 0, gDirPath.GetNewPath("commonserver.cfg"));

  00884	68 00 00 00 00	 push	 OFFSET ??_C@_0BB@IGLHFEOF@commonserver?4cfg?$AA@
  00889	b9 00 00 00 00	 mov	 ecx, OFFSET ?gDirPath@@3VCDirPath@@A ; gDirPath
  0088e	a3 00 00 00 00	 mov	 DWORD PTR ?g_ItemDropRateForSilverMedal@@3HA, eax ; g_ItemDropRateForSilverMedal
  00893	e8 00 00 00 00	 call	 ?GetNewPath@CDirPath@@QAEPADPAD@Z ; CDirPath::GetNewPath
  00898	50		 push	 eax
  00899	6a 00		 push	 0
  0089b	68 00 00 00 00	 push	 OFFSET ??_C@_09HEEPAMKP@XMasEvent?$AA@
  008a0	68 00 00 00 00	 push	 OFFSET ??_C@_0P@EMJDPFDH@GameServerInfo?$AA@
  008a5	ff d6		 call	 esi

; 2057 : 			g_XMasEvent_StarOfXMasDropRate = GetPrivateProfileInt("GameServerInfo","XMasEvent_StarOfXMasDropRate", 5000, gDirPath.GetNewPath("commonserver.cfg"));

  008a7	68 00 00 00 00	 push	 OFFSET ??_C@_0BB@IGLHFEOF@commonserver?4cfg?$AA@
  008ac	b9 00 00 00 00	 mov	 ecx, OFFSET ?gDirPath@@3VCDirPath@@A ; gDirPath
  008b1	a3 00 00 00 00	 mov	 DWORD PTR ?gXMasEvent@@3HA, eax ; gXMasEvent
  008b6	e8 00 00 00 00	 call	 ?GetNewPath@CDirPath@@QAEPADPAD@Z ; CDirPath::GetNewPath
  008bb	50		 push	 eax
  008bc	68 88 13 00 00	 push	 5000			; 00001388H
  008c1	68 00 00 00 00	 push	 OFFSET ??_C@_0BN@EDHJHEEJ@XMasEvent_StarOfXMasDropRate?$AA@
  008c6	68 00 00 00 00	 push	 OFFSET ??_C@_0P@EMJDPFDH@GameServerInfo?$AA@
  008cb	ff d6		 call	 esi

; 2058 : 			g_XMasEvent_ItemDropRateForStarOfXMas = GetPrivateProfileInt("GameServerInfo","XMasEvent_ItemDropRateForStarOfXMas", 2, gDirPath.GetNewPath("commonserver.cfg"));

  008cd	68 00 00 00 00	 push	 OFFSET ??_C@_0BB@IGLHFEOF@commonserver?4cfg?$AA@
  008d2	b9 00 00 00 00	 mov	 ecx, OFFSET ?gDirPath@@3VCDirPath@@A ; gDirPath
  008d7	a3 00 00 00 00	 mov	 DWORD PTR ?g_XMasEvent_StarOfXMasDropRate@@3HA, eax ; g_XMasEvent_StarOfXMasDropRate
  008dc	e8 00 00 00 00	 call	 ?GetNewPath@CDirPath@@QAEPADPAD@Z ; CDirPath::GetNewPath
  008e1	50		 push	 eax
  008e2	6a 02		 push	 2
  008e4	68 00 00 00 00	 push	 OFFSET ??_C@_0CE@BHNJHAEB@XMasEvent_ItemDropRateForStarOfX@
  008e9	68 00 00 00 00	 push	 OFFSET ??_C@_0P@EMJDPFDH@GameServerInfo?$AA@
  008ee	ff d6		 call	 esi

; 2059 : 			gHeartOfLoveEvent = GetPrivateProfileInt("GameServerInfo","HeartOfLoveEvent", 0, gDirPath.GetNewPath("commonserver.cfg"));

  008f0	68 00 00 00 00	 push	 OFFSET ??_C@_0BB@IGLHFEOF@commonserver?4cfg?$AA@
  008f5	b9 00 00 00 00	 mov	 ecx, OFFSET ?gDirPath@@3VCDirPath@@A ; gDirPath
  008fa	a3 00 00 00 00	 mov	 DWORD PTR ?g_XMasEvent_ItemDropRateForStarOfXMas@@3HA, eax ; g_XMasEvent_ItemDropRateForStarOfXMas
  008ff	e8 00 00 00 00	 call	 ?GetNewPath@CDirPath@@QAEPADPAD@Z ; CDirPath::GetNewPath
  00904	50		 push	 eax
  00905	6a 00		 push	 0
  00907	68 00 00 00 00	 push	 OFFSET ??_C@_0BB@CGEJHOOF@HeartOfLoveEvent?$AA@
  0090c	68 00 00 00 00	 push	 OFFSET ??_C@_0P@EMJDPFDH@GameServerInfo?$AA@
  00911	ff d6		 call	 esi

; 2060 : 			gHeartOfLoveDropRate = GetPrivateProfileInt("GameServerInfo","HeartOfLoveDropRate", 5000, gDirPath.GetNewPath("commonserver.cfg"));

  00913	68 00 00 00 00	 push	 OFFSET ??_C@_0BB@IGLHFEOF@commonserver?4cfg?$AA@
  00918	b9 00 00 00 00	 mov	 ecx, OFFSET ?gDirPath@@3VCDirPath@@A ; gDirPath
  0091d	a3 00 00 00 00	 mov	 DWORD PTR ?gHeartOfLoveEvent@@3HA, eax ; gHeartOfLoveEvent
  00922	e8 00 00 00 00	 call	 ?GetNewPath@CDirPath@@QAEPADPAD@Z ; CDirPath::GetNewPath
  00927	50		 push	 eax
  00928	68 88 13 00 00	 push	 5000			; 00001388H
  0092d	68 00 00 00 00	 push	 OFFSET ??_C@_0BE@JJGBIMJB@HeartOfLoveDropRate?$AA@
  00932	68 00 00 00 00	 push	 OFFSET ??_C@_0P@EMJDPFDH@GameServerInfo?$AA@
  00937	ff d6		 call	 esi

; 2061 : 			g_ItemDropRateForgHeartOfLove = GetPrivateProfileInt("GameServerInfo","ItemDropRateForHeartOfLove", 2, gDirPath.GetNewPath("commonserver.cfg"));

  00939	68 00 00 00 00	 push	 OFFSET ??_C@_0BB@IGLHFEOF@commonserver?4cfg?$AA@
  0093e	b9 00 00 00 00	 mov	 ecx, OFFSET ?gDirPath@@3VCDirPath@@A ; gDirPath
  00943	a3 00 00 00 00	 mov	 DWORD PTR ?gHeartOfLoveDropRate@@3HA, eax ; gHeartOfLoveDropRate
  00948	e8 00 00 00 00	 call	 ?GetNewPath@CDirPath@@QAEPADPAD@Z ; CDirPath::GetNewPath
  0094d	50		 push	 eax
  0094e	6a 02		 push	 2
  00950	68 00 00 00 00	 push	 OFFSET ??_C@_0BL@CMBFLADP@ItemDropRateForHeartOfLove?$AA@
  00955	68 00 00 00 00	 push	 OFFSET ??_C@_0P@EMJDPFDH@GameServerInfo?$AA@
  0095a	ff d6		 call	 esi

; 2062 : 			GetPrivateProfileString("GameServerInfo", "HappyNewYearTalkNpc", "0", szTemp, 5, gDirPath.GetNewPath("commonserver.cfg"));

  0095c	68 00 00 00 00	 push	 OFFSET ??_C@_0BB@IGLHFEOF@commonserver?4cfg?$AA@
  00961	b9 00 00 00 00	 mov	 ecx, OFFSET ?gDirPath@@3VCDirPath@@A ; gDirPath
  00966	a3 00 00 00 00	 mov	 DWORD PTR ?g_ItemDropRateForgHeartOfLove@@3HA, eax ; g_ItemDropRateForgHeartOfLove
  0096b	e8 00 00 00 00	 call	 ?GetNewPath@CDirPath@@QAEPADPAD@Z ; CDirPath::GetNewPath
  00970	50		 push	 eax
  00971	6a 05		 push	 5
  00973	8d 85 fc fe ff
	ff		 lea	 eax, DWORD PTR _szTemp$[ebp]
  00979	50		 push	 eax
  0097a	68 00 00 00 00	 push	 OFFSET ??_C@_01GBGANLPD@0?$AA@
  0097f	68 00 00 00 00	 push	 OFFSET ??_C@_0BE@MPGFIFAO@HappyNewYearTalkNpc?$AA@
  00984	68 00 00 00 00	 push	 OFFSET ??_C@_0P@EMJDPFDH@GameServerInfo?$AA@
  00989	ff d7		 call	 edi

; 2063 : 			gHappyNewYearNpcEvent = atoi(szTemp);

  0098b	8d 8d fc fe ff
	ff		 lea	 ecx, DWORD PTR _szTemp$[ebp]
  00991	51		 push	 ecx
  00992	e8 00 00 00 00	 call	 _atoi
  00997	83 c4 04	 add	 esp, 4
  0099a	a3 00 00 00 00	 mov	 DWORD PTR ?gHappyNewYearNpcEvent@@3HA, eax ; gHappyNewYearNpcEvent

; 2064 : 
; 2065 : 			if(gHappyNewYearNpcEvent != 0)

  0099f	85 c0		 test	 eax, eax
  009a1	74 0f		 je	 SHORT $LN17@ReadEventI

; 2066 : 			{
; 2067 : 				// (Option) Happy-new-year NPC speaks
; 2068 : 				LogAdd(LOG_BLACK, "[Option] Happy-new-year NPC speaks");

  009a3	68 00 00 00 00	 push	 OFFSET ??_C@_0CD@MHKMKJEJ@?$FLOption?$FN?5Happy?9new?9year?5NPC?5spea@
  009a8	6a 00		 push	 0
  009aa	e8 00 00 00 00	 call	 ?LogAdd@@YAXW4eLogColor@@PADZZ ; LogAdd
  009af	83 c4 08	 add	 esp, 8
$LN17@ReadEventI:

; 2069 : 			}
; 2070 : 
; 2071 : 			GetPrivateProfileString("GameServerInfo", "MerryXMasTalkNpc", "0", szTemp, 5, gDirPath.GetNewPath("commonserver.cfg"));

  009b2	68 00 00 00 00	 push	 OFFSET ??_C@_0BB@IGLHFEOF@commonserver?4cfg?$AA@
  009b7	b9 00 00 00 00	 mov	 ecx, OFFSET ?gDirPath@@3VCDirPath@@A ; gDirPath
  009bc	e8 00 00 00 00	 call	 ?GetNewPath@CDirPath@@QAEPADPAD@Z ; CDirPath::GetNewPath
  009c1	50		 push	 eax
  009c2	6a 05		 push	 5
  009c4	8d 95 fc fe ff
	ff		 lea	 edx, DWORD PTR _szTemp$[ebp]
  009ca	52		 push	 edx
  009cb	68 00 00 00 00	 push	 OFFSET ??_C@_01GBGANLPD@0?$AA@
  009d0	68 00 00 00 00	 push	 OFFSET ??_C@_0BB@HOHJFGOC@MerryXMasTalkNpc?$AA@
  009d5	68 00 00 00 00	 push	 OFFSET ??_C@_0P@EMJDPFDH@GameServerInfo?$AA@
  009da	ff d7		 call	 edi

; 2072 : 			gMerryXMasNpcEvent = atoi(szTemp);

  009dc	8d 85 fc fe ff
	ff		 lea	 eax, DWORD PTR _szTemp$[ebp]
  009e2	50		 push	 eax
  009e3	e8 00 00 00 00	 call	 _atoi
  009e8	83 c4 04	 add	 esp, 4
  009eb	a3 00 00 00 00	 mov	 DWORD PTR ?gMerryXMasNpcEvent@@3HA, eax ; gMerryXMasNpcEvent

; 2073 : 
; 2074 : 			if(gMerryXMasNpcEvent != 0)

  009f0	85 c0		 test	 eax, eax
  009f2	74 0f		 je	 SHORT $LN16@ReadEventI

; 2075 : 			{
; 2076 : 				// (Option) Christmas NPC speaks
; 2077 : 				LogAdd(LOG_BLACK, "[Option] Christmas NPC speaks");

  009f4	68 00 00 00 00	 push	 OFFSET ??_C@_0BO@NIDNGNHC@?$FLOption?$FN?5Christmas?5NPC?5speaks?$AA@
  009f9	6a 00		 push	 0
  009fb	e8 00 00 00 00	 call	 ?LogAdd@@YAXW4eLogColor@@PADZZ ; LogAdd
  00a00	83 c4 08	 add	 esp, 8
$LN16@ReadEventI:

; 2078 : 			}
; 2079 : 
; 2080 : 			g_ChaosCastle.Load(gDirPath.GetNewPath("ChaosCastle.dat"));

  00a03	68 00 00 00 00	 push	 OFFSET ??_C@_0BA@LOKHGJIA@ChaosCastle?4dat?$AA@
  00a08	b9 00 00 00 00	 mov	 ecx, OFFSET ?gDirPath@@3VCDirPath@@A ; gDirPath
  00a0d	e8 00 00 00 00	 call	 ?GetNewPath@CDirPath@@QAEPADPAD@Z ; CDirPath::GetNewPath
  00a12	50		 push	 eax
  00a13	b9 00 00 00 00	 mov	 ecx, OFFSET ?g_ChaosCastle@@3VCChaosCastle@@A ; g_ChaosCastle
  00a18	e8 00 00 00 00	 call	 ?Load@CChaosCastle@@QAEXPAD@Z ; CChaosCastle::Load

; 2081 : 			g_bChaosCastle = GetPrivateProfileInt("GameServerInfo","ChaosCastleEvent", 0, gDirPath.GetNewPath("commonserver.cfg"));

  00a1d	68 00 00 00 00	 push	 OFFSET ??_C@_0BB@IGLHFEOF@commonserver?4cfg?$AA@
  00a22	b9 00 00 00 00	 mov	 ecx, OFFSET ?gDirPath@@3VCDirPath@@A ; gDirPath
  00a27	e8 00 00 00 00	 call	 ?GetNewPath@CDirPath@@QAEPADPAD@Z ; CDirPath::GetNewPath
  00a2c	50		 push	 eax
  00a2d	6a 00		 push	 0
  00a2f	68 00 00 00 00	 push	 OFFSET ??_C@_0BB@EAJFBCDB@ChaosCastleEvent?$AA@
  00a34	68 00 00 00 00	 push	 OFFSET ??_C@_0P@EMJDPFDH@GameServerInfo?$AA@
  00a39	ff d6		 call	 esi

; 2082 : 
; 2083 : 			g_iKundunMarkDropRate = GetPrivateProfileInt("GameServerInfo","KundunMarkDropRate", 0, gDirPath.GetNewPath("commonserver.cfg"));

  00a3b	68 00 00 00 00	 push	 OFFSET ??_C@_0BB@IGLHFEOF@commonserver?4cfg?$AA@
  00a40	b9 00 00 00 00	 mov	 ecx, OFFSET ?gDirPath@@3VCDirPath@@A ; gDirPath
  00a45	a3 00 00 00 00	 mov	 DWORD PTR ?g_bChaosCastle@@3HA, eax ; g_bChaosCastle
  00a4a	e8 00 00 00 00	 call	 ?GetNewPath@CDirPath@@QAEPADPAD@Z ; CDirPath::GetNewPath
  00a4f	50		 push	 eax
  00a50	6a 00		 push	 0
  00a52	68 00 00 00 00	 push	 OFFSET ??_C@_0BD@BFEFAHKC@KundunMarkDropRate?$AA@
  00a57	68 00 00 00 00	 push	 OFFSET ??_C@_0P@EMJDPFDH@GameServerInfo?$AA@
  00a5c	ff d6		 call	 esi

; 2084 : 
; 2085 : 			g_iMysteriousBeadDropRate1 = GetPrivateProfileInt("GameServerInfo","MysteriouseBeadDropRate1", 0, gDirPath.GetNewPath("commonserver.cfg"));

  00a5e	68 00 00 00 00	 push	 OFFSET ??_C@_0BB@IGLHFEOF@commonserver?4cfg?$AA@
  00a63	b9 00 00 00 00	 mov	 ecx, OFFSET ?gDirPath@@3VCDirPath@@A ; gDirPath
  00a68	a3 00 00 00 00	 mov	 DWORD PTR ?g_iKundunMarkDropRate@@3HA, eax ; g_iKundunMarkDropRate
  00a6d	e8 00 00 00 00	 call	 ?GetNewPath@CDirPath@@QAEPADPAD@Z ; CDirPath::GetNewPath
  00a72	50		 push	 eax
  00a73	6a 00		 push	 0
  00a75	68 00 00 00 00	 push	 OFFSET ??_C@_0BJ@HBHIMLOL@MysteriouseBeadDropRate1?$AA@
  00a7a	68 00 00 00 00	 push	 OFFSET ??_C@_0P@EMJDPFDH@GameServerInfo?$AA@
  00a7f	ff d6		 call	 esi

; 2086 : 			g_iMysteriousBeadDropRate2 = GetPrivateProfileInt("GameServerInfo","MysteriouseBeadDropRate2", 0, gDirPath.GetNewPath("commonserver.cfg"));

  00a81	68 00 00 00 00	 push	 OFFSET ??_C@_0BB@IGLHFEOF@commonserver?4cfg?$AA@
  00a86	b9 00 00 00 00	 mov	 ecx, OFFSET ?gDirPath@@3VCDirPath@@A ; gDirPath
  00a8b	a3 00 00 00 00	 mov	 DWORD PTR ?g_iMysteriousBeadDropRate1@@3HA, eax ; g_iMysteriousBeadDropRate1
  00a90	e8 00 00 00 00	 call	 ?GetNewPath@CDirPath@@QAEPADPAD@Z ; CDirPath::GetNewPath
  00a95	50		 push	 eax
  00a96	6a 00		 push	 0
  00a98	68 00 00 00 00	 push	 OFFSET ??_C@_0BJ@FKFFJICI@MysteriouseBeadDropRate2?$AA@
  00a9d	68 00 00 00 00	 push	 OFFSET ??_C@_0P@EMJDPFDH@GameServerInfo?$AA@
  00aa2	ff d6		 call	 esi

; 2087 : 
; 2088 : 			g_iHiddenTreasureBoxOfflineRate = GetPrivateProfileInt("GameServerInfo","HiddenTreasureBoxOfflineRate", 0, gDirPath.GetNewPath("commonserver.cfg"));

  00aa4	68 00 00 00 00	 push	 OFFSET ??_C@_0BB@IGLHFEOF@commonserver?4cfg?$AA@
  00aa9	b9 00 00 00 00	 mov	 ecx, OFFSET ?gDirPath@@3VCDirPath@@A ; gDirPath
  00aae	a3 00 00 00 00	 mov	 DWORD PTR ?g_iMysteriousBeadDropRate2@@3HA, eax ; g_iMysteriousBeadDropRate2
  00ab3	e8 00 00 00 00	 call	 ?GetNewPath@CDirPath@@QAEPADPAD@Z ; CDirPath::GetNewPath
  00ab8	50		 push	 eax
  00ab9	6a 00		 push	 0
  00abb	68 00 00 00 00	 push	 OFFSET ??_C@_0BN@OIDGBLFD@HiddenTreasureBoxOfflineRate?$AA@
  00ac0	68 00 00 00 00	 push	 OFFSET ??_C@_0P@EMJDPFDH@GameServerInfo?$AA@
  00ac5	ff d6		 call	 esi

; 2089 :      
; 2090 : 			GetPrivateProfileString("GameServerInfo", "EventManagerOn", "0", szTemp, 5, gDirPath.GetNewPath("commonserver.cfg"));

  00ac7	68 00 00 00 00	 push	 OFFSET ??_C@_0BB@IGLHFEOF@commonserver?4cfg?$AA@
  00acc	b9 00 00 00 00	 mov	 ecx, OFFSET ?gDirPath@@3VCDirPath@@A ; gDirPath
  00ad1	a3 00 00 00 00	 mov	 DWORD PTR ?g_iHiddenTreasureBoxOfflineRate@@3HA, eax ; g_iHiddenTreasureBoxOfflineRate
  00ad6	e8 00 00 00 00	 call	 ?GetNewPath@CDirPath@@QAEPADPAD@Z ; CDirPath::GetNewPath
  00adb	50		 push	 eax
  00adc	6a 05		 push	 5
  00ade	8d 8d fc fe ff
	ff		 lea	 ecx, DWORD PTR _szTemp$[ebp]
  00ae4	51		 push	 ecx
  00ae5	68 00 00 00 00	 push	 OFFSET ??_C@_01GBGANLPD@0?$AA@
  00aea	68 00 00 00 00	 push	 OFFSET ??_C@_0P@JCOIPJAE@EventManagerOn?$AA@
  00aef	68 00 00 00 00	 push	 OFFSET ??_C@_0P@EMJDPFDH@GameServerInfo?$AA@
  00af4	ff d7		 call	 edi

; 2091 : 			g_bEventManagerOn = atoi(szTemp);

  00af6	8d 95 fc fe ff
	ff		 lea	 edx, DWORD PTR _szTemp$[ebp]
  00afc	52		 push	 edx
  00afd	e8 00 00 00 00	 call	 _atoi
  00b02	83 c4 04	 add	 esp, 4

; 2092 : 			g_EventManager.Load(gDirPath.GetNewPath("EventManagement.dat"));

  00b05	68 00 00 00 00	 push	 OFFSET ??_C@_0BE@KJOHMGFA@EventManagement?4dat?$AA@
  00b0a	b9 00 00 00 00	 mov	 ecx, OFFSET ?gDirPath@@3VCDirPath@@A ; gDirPath
  00b0f	a3 00 00 00 00	 mov	 DWORD PTR ?g_bEventManagerOn@@3HA, eax ; g_bEventManagerOn
  00b14	e8 00 00 00 00	 call	 ?GetNewPath@CDirPath@@QAEPADPAD@Z ; CDirPath::GetNewPath
  00b19	50		 push	 eax
  00b1a	b9 00 00 00 00	 mov	 ecx, OFFSET ?g_EventManager@@3VCEventManagement@@A ; g_EventManager
  00b1f	e8 00 00 00 00	 call	 ?Load@CEventManagement@@QAE_NPAD@Z ; CEventManagement::Load

; 2093 : 			g_EventManager.RegEvent(0, DragonEvent);

  00b24	a1 00 00 00 00	 mov	 eax, DWORD PTR ?DragonEvent@@3PAVCDragonEvent@@A ; DragonEvent
  00b29	50		 push	 eax
  00b2a	6a 00		 push	 0
  00b2c	b9 00 00 00 00	 mov	 ecx, OFFSET ?g_EventManager@@3VCEventManagement@@A ; g_EventManager
  00b31	e8 00 00 00 00	 call	 ?RegEvent@CEventManagement@@QAEXHPAX@Z ; CEventManagement::RegEvent

; 2094 : 			g_EventManager.RegEvent(1, AttackEvent);

  00b36	8b 0d 00 00 00
	00		 mov	 ecx, DWORD PTR ?AttackEvent@@3PAVCAttackEvent@@A ; AttackEvent
  00b3c	51		 push	 ecx
  00b3d	6a 01		 push	 1
  00b3f	b9 00 00 00 00	 mov	 ecx, OFFSET ?g_EventManager@@3VCEventManagement@@A ; g_EventManager
  00b44	e8 00 00 00 00	 call	 ?RegEvent@CEventManagement@@QAEXHPAX@Z ; CEventManagement::RegEvent

; 2095 : 			g_EventManager.RegEvent(2, &gEledoradoEvent);

  00b49	68 00 00 00 00	 push	 OFFSET ?gEledoradoEvent@@3VCEledoradoEvent@@A ; gEledoradoEvent
  00b4e	6a 02		 push	 2
  00b50	b9 00 00 00 00	 mov	 ecx, OFFSET ?g_EventManager@@3VCEventManagement@@A ; g_EventManager
  00b55	e8 00 00 00 00	 call	 ?RegEvent@CEventManagement@@QAEXHPAX@Z ; CEventManagement::RegEvent

; 2096 : 			g_EventManager.RegEvent(3, &g_RingAttackEvent);

  00b5a	68 00 00 00 00	 push	 OFFSET ?g_RingAttackEvent@@3VCRingAttackEvent@@A ; g_RingAttackEvent
  00b5f	6a 03		 push	 3
  00b61	b9 00 00 00 00	 mov	 ecx, OFFSET ?g_EventManager@@3VCEventManagement@@A ; g_EventManager
  00b66	e8 00 00 00 00	 call	 ?RegEvent@CEventManagement@@QAEXHPAX@Z ; CEventManagement::RegEvent

; 2097 : 			g_EventManager.Init(g_bEventManagerOn);

  00b6b	8b 15 00 00 00
	00		 mov	 edx, DWORD PTR ?g_bEventManagerOn@@3HA ; g_bEventManagerOn
  00b71	52		 push	 edx
  00b72	b9 00 00 00 00	 mov	 ecx, OFFSET ?g_EventManager@@3VCEventManagement@@A ; g_EventManager
  00b77	e8 00 00 00 00	 call	 ?Init@CEventManagement@@QAEXH@Z ; CEventManagement::Init

; 2098 : 
; 2099 : 			g_iDarkLordHeartDropRate = GetPrivateProfileInt("GameServerInfo","DarkLordHeartDropRate", 0, gDirPath.GetNewPath("commonserver.cfg"));

  00b7c	68 00 00 00 00	 push	 OFFSET ??_C@_0BB@IGLHFEOF@commonserver?4cfg?$AA@
  00b81	b9 00 00 00 00	 mov	 ecx, OFFSET ?gDirPath@@3VCDirPath@@A ; gDirPath
  00b86	e8 00 00 00 00	 call	 ?GetNewPath@CDirPath@@QAEPADPAD@Z ; CDirPath::GetNewPath
  00b8b	50		 push	 eax
  00b8c	6a 00		 push	 0
  00b8e	68 00 00 00 00	 push	 OFFSET ??_C@_0BG@GAOBCKDF@DarkLordHeartDropRate?$AA@
  00b93	68 00 00 00 00	 push	 OFFSET ??_C@_0P@EMJDPFDH@GameServerInfo?$AA@
  00b98	ff d6		 call	 esi

; 2100 : 			g_iDarkLordHeartOffEventRate = GetPrivateProfileInt("GameServerInfo","DarkLoadHeartOffEventRate", 0, gDirPath.GetNewPath("commonserver.cfg"));

  00b9a	68 00 00 00 00	 push	 OFFSET ??_C@_0BB@IGLHFEOF@commonserver?4cfg?$AA@
  00b9f	b9 00 00 00 00	 mov	 ecx, OFFSET ?gDirPath@@3VCDirPath@@A ; gDirPath
  00ba4	a3 00 00 00 00	 mov	 DWORD PTR ?g_iDarkLordHeartDropRate@@3HA, eax ; g_iDarkLordHeartDropRate
  00ba9	e8 00 00 00 00	 call	 ?GetNewPath@CDirPath@@QAEPADPAD@Z ; CDirPath::GetNewPath
  00bae	50		 push	 eax
  00baf	6a 00		 push	 0
  00bb1	68 00 00 00 00	 push	 OFFSET ??_C@_0BK@HAJPAMCO@DarkLoadHeartOffEventRate?$AA@
  00bb6	68 00 00 00 00	 push	 OFFSET ??_C@_0P@EMJDPFDH@GameServerInfo?$AA@
  00bbb	ff d6		 call	 esi
  00bbd	5f		 pop	 edi
  00bbe	a3 00 00 00 00	 mov	 DWORD PTR ?g_iDarkLordHeartOffEventRate@@3HA, eax ; g_iDarkLordHeartOffEventRate
  00bc3	5e		 pop	 esi

; 2225 : 			break;
; 2226 : 	}
; 2227 : }

  00bc4	8b 4d fc	 mov	 ecx, DWORD PTR __$ArrayPad$[ebp]
  00bc7	33 cd		 xor	 ecx, ebp
  00bc9	e8 00 00 00 00	 call	 @__security_check_cookie@4
  00bce	8b e5		 mov	 esp, ebp
  00bd0	5d		 pop	 ebp
  00bd1	c3		 ret	 0
$LN15@ReadEventI:

; 2101 : 
; 2102 : 			break;
; 2103 : 
; 2104 : 		case 1: //Devil Square
; 2105 : 			g_DevilSquare.Load(gDirPath.GetNewPath("DevilSquare.dat"));

  00bd2	68 00 00 00 00	 push	 OFFSET ??_C@_0BA@JLLODMHA@DevilSquare?4dat?$AA@
  00bd7	b9 00 00 00 00	 mov	 ecx, OFFSET ?gDirPath@@3VCDirPath@@A ; gDirPath
  00bdc	e8 00 00 00 00	 call	 ?GetNewPath@CDirPath@@QAEPADPAD@Z ; CDirPath::GetNewPath
  00be1	50		 push	 eax
  00be2	b9 00 00 00 00	 mov	 ecx, OFFSET ?g_DevilSquare@@3VCDevilSquare@@A ; g_DevilSquare
  00be7	e8 00 00 00 00	 call	 ?Load@CDevilSquare@@QAEXPAD@Z ; CDevilSquare::Load

; 2106 : 			gDevilSquareEvent = GetPrivateProfileInt("GameServerInfo","DevilSquareEvent", 0, gDirPath.GetNewPath("commonserver.cfg"));

  00bec	68 00 00 00 00	 push	 OFFSET ??_C@_0BB@IGLHFEOF@commonserver?4cfg?$AA@
  00bf1	b9 00 00 00 00	 mov	 ecx, OFFSET ?gDirPath@@3VCDirPath@@A ; gDirPath
  00bf6	e8 00 00 00 00	 call	 ?GetNewPath@CDirPath@@QAEPADPAD@Z ; CDirPath::GetNewPath
  00bfb	8b 35 00 00 00
	00		 mov	 esi, DWORD PTR __imp__GetPrivateProfileIntA@16
  00c01	50		 push	 eax
  00c02	6a 00		 push	 0
  00c04	68 00 00 00 00	 push	 OFFSET ??_C@_0BB@PNANPJHI@DevilSquareEvent?$AA@
  00c09	68 00 00 00 00	 push	 OFFSET ??_C@_0P@EMJDPFDH@GameServerInfo?$AA@
  00c0e	ff d6		 call	 esi

; 2107 : 			gEyesOfDevilSquareDropRate = GetPrivateProfileInt("GameServerInfo","EyesOfDevilSquareDropRate", 2, gDirPath.GetNewPath("commonserver.cfg"));

  00c10	68 00 00 00 00	 push	 OFFSET ??_C@_0BB@IGLHFEOF@commonserver?4cfg?$AA@
  00c15	b9 00 00 00 00	 mov	 ecx, OFFSET ?gDirPath@@3VCDirPath@@A ; gDirPath
  00c1a	a3 00 00 00 00	 mov	 DWORD PTR ?gDevilSquareEvent@@3HA, eax ; gDevilSquareEvent
  00c1f	e8 00 00 00 00	 call	 ?GetNewPath@CDirPath@@QAEPADPAD@Z ; CDirPath::GetNewPath
  00c24	50		 push	 eax
  00c25	6a 02		 push	 2
  00c27	68 00 00 00 00	 push	 OFFSET ??_C@_0BK@NJHGKMMN@EyesOfDevilSquareDropRate?$AA@
  00c2c	68 00 00 00 00	 push	 OFFSET ??_C@_0P@EMJDPFDH@GameServerInfo?$AA@
  00c31	ff d6		 call	 esi

; 2108 : 			gKeyOfDevilSquareDropRate = GetPrivateProfileInt("GameServerInfo","KeyOfDevilSquareDropRate", 2, gDirPath.GetNewPath("commonserver.cfg"));

  00c33	68 00 00 00 00	 push	 OFFSET ??_C@_0BB@IGLHFEOF@commonserver?4cfg?$AA@
  00c38	b9 00 00 00 00	 mov	 ecx, OFFSET ?gDirPath@@3VCDirPath@@A ; gDirPath
  00c3d	a3 00 00 00 00	 mov	 DWORD PTR ?gEyesOfDevilSquareDropRate@@3HA, eax ; gEyesOfDevilSquareDropRate
  00c42	e8 00 00 00 00	 call	 ?GetNewPath@CDirPath@@QAEPADPAD@Z ; CDirPath::GetNewPath
  00c47	50		 push	 eax
  00c48	6a 02		 push	 2
  00c4a	68 00 00 00 00	 push	 OFFSET ??_C@_0BJ@DHGJEDK@KeyOfDevilSquareDropRate?$AA@
  00c4f	68 00 00 00 00	 push	 OFFSET ??_C@_0P@EMJDPFDH@GameServerInfo?$AA@
  00c54	ff d6		 call	 esi
  00c56	a3 00 00 00 00	 mov	 DWORD PTR ?gKeyOfDevilSquareDropRate@@3HA, eax ; gKeyOfDevilSquareDropRate
  00c5b	5e		 pop	 esi

; 2225 : 			break;
; 2226 : 	}
; 2227 : }

  00c5c	8b 4d fc	 mov	 ecx, DWORD PTR __$ArrayPad$[ebp]
  00c5f	33 cd		 xor	 ecx, ebp
  00c61	e8 00 00 00 00	 call	 @__security_check_cookie@4
  00c66	8b e5		 mov	 esp, ebp
  00c68	5d		 pop	 ebp
  00c69	c3		 ret	 0
$LN14@ReadEventI:

; 2109 : 			break;
; 2110 : 
; 2111 : 		case 2: //Blood Castle
; 2112 : 			g_BloodCastle.Load(gDirPath.GetNewPath("BloodCastle.dat"));

  00c6a	68 00 00 00 00	 push	 OFFSET ??_C@_0BA@CJKIMMIB@BloodCastle?4dat?$AA@
  00c6f	b9 00 00 00 00	 mov	 ecx, OFFSET ?gDirPath@@3VCDirPath@@A ; gDirPath
  00c74	e8 00 00 00 00	 call	 ?GetNewPath@CDirPath@@QAEPADPAD@Z ; CDirPath::GetNewPath
  00c79	50		 push	 eax
  00c7a	b9 00 00 00 00	 mov	 ecx, OFFSET ?g_BloodCastle@@3VCBloodCastle@@A ; g_BloodCastle
  00c7f	e8 00 00 00 00	 call	 ?Load@CBloodCastle@@QAEHPAD@Z ; CBloodCastle::Load

; 2113 : 			g_bBloodCastle = GetPrivateProfileInt("GameServerInfo","BloodCastleEvent", 0, gDirPath.GetNewPath("commonserver.cfg"));

  00c84	68 00 00 00 00	 push	 OFFSET ??_C@_0BB@IGLHFEOF@commonserver?4cfg?$AA@
  00c89	b9 00 00 00 00	 mov	 ecx, OFFSET ?gDirPath@@3VCDirPath@@A ; gDirPath
  00c8e	e8 00 00 00 00	 call	 ?GetNewPath@CDirPath@@QAEPADPAD@Z ; CDirPath::GetNewPath
  00c93	8b 35 00 00 00
	00		 mov	 esi, DWORD PTR __imp__GetPrivateProfileIntA@16
  00c99	50		 push	 eax
  00c9a	6a 00		 push	 0
  00c9c	68 00 00 00 00	 push	 OFFSET ??_C@_0BB@DHAFCNAC@BloodCastleEvent?$AA@
  00ca1	68 00 00 00 00	 push	 OFFSET ??_C@_0P@EMJDPFDH@GameServerInfo?$AA@
  00ca6	ff d6		 call	 esi

; 2114 : 			g_iBloodCastle_StartHour = GetPrivateProfileInt("GameServerInfo","BloodCastleStartHour", 1, gDirPath.GetNewPath("commonserver.cfg"));

  00ca8	68 00 00 00 00	 push	 OFFSET ??_C@_0BB@IGLHFEOF@commonserver?4cfg?$AA@
  00cad	b9 00 00 00 00	 mov	 ecx, OFFSET ?gDirPath@@3VCDirPath@@A ; gDirPath
  00cb2	a3 00 00 00 00	 mov	 DWORD PTR ?g_bBloodCastle@@3HA, eax ; g_bBloodCastle
  00cb7	e8 00 00 00 00	 call	 ?GetNewPath@CDirPath@@QAEPADPAD@Z ; CDirPath::GetNewPath
  00cbc	50		 push	 eax
  00cbd	6a 01		 push	 1
  00cbf	68 00 00 00 00	 push	 OFFSET ??_C@_0BF@DLNBCIAJ@BloodCastleStartHour?$AA@
  00cc4	68 00 00 00 00	 push	 OFFSET ??_C@_0P@EMJDPFDH@GameServerInfo?$AA@
  00cc9	ff d6		 call	 esi

; 2115 : 			g_iAngelKingsPaperDropRate = GetPrivateProfileInt("GameServerInfo","AngelKingsPaperDropRate", 0, gDirPath.GetNewPath("commonserver.cfg"));

  00ccb	68 00 00 00 00	 push	 OFFSET ??_C@_0BB@IGLHFEOF@commonserver?4cfg?$AA@
  00cd0	b9 00 00 00 00	 mov	 ecx, OFFSET ?gDirPath@@3VCDirPath@@A ; gDirPath
  00cd5	a3 00 00 00 00	 mov	 DWORD PTR ?g_iBloodCastle_StartHour@@3HA, eax ; g_iBloodCastle_StartHour
  00cda	e8 00 00 00 00	 call	 ?GetNewPath@CDirPath@@QAEPADPAD@Z ; CDirPath::GetNewPath
  00cdf	50		 push	 eax
  00ce0	6a 00		 push	 0
  00ce2	68 00 00 00 00	 push	 OFFSET ??_C@_0BI@KPDDGOOE@AngelKingsPaperDropRate?$AA@
  00ce7	68 00 00 00 00	 push	 OFFSET ??_C@_0P@EMJDPFDH@GameServerInfo?$AA@
  00cec	ff d6		 call	 esi

; 2116 : 			g_iBloodBoneDropRate = GetPrivateProfileInt("GameServerInfo","BloodBoneDropRate", 0, gDirPath.GetNewPath("commonserver.cfg"));

  00cee	68 00 00 00 00	 push	 OFFSET ??_C@_0BB@IGLHFEOF@commonserver?4cfg?$AA@
  00cf3	b9 00 00 00 00	 mov	 ecx, OFFSET ?gDirPath@@3VCDirPath@@A ; gDirPath
  00cf8	a3 00 00 00 00	 mov	 DWORD PTR ?g_iAngelKingsPaperDropRate@@3HA, eax ; g_iAngelKingsPaperDropRate
  00cfd	e8 00 00 00 00	 call	 ?GetNewPath@CDirPath@@QAEPADPAD@Z ; CDirPath::GetNewPath
  00d02	50		 push	 eax
  00d03	6a 00		 push	 0
  00d05	68 00 00 00 00	 push	 OFFSET ??_C@_0BC@NGLLHLOE@BloodBoneDropRate?$AA@
  00d0a	68 00 00 00 00	 push	 OFFSET ??_C@_0P@EMJDPFDH@GameServerInfo?$AA@
  00d0f	ff d6		 call	 esi

; 2117 : 			g_iStoneDropRate = GetPrivateProfileInt("GameServerInfo","StoneDropRate", 0, gDirPath.GetNewPath("commonserver.cfg"));

  00d11	68 00 00 00 00	 push	 OFFSET ??_C@_0BB@IGLHFEOF@commonserver?4cfg?$AA@
  00d16	b9 00 00 00 00	 mov	 ecx, OFFSET ?gDirPath@@3VCDirPath@@A ; gDirPath
  00d1b	a3 00 00 00 00	 mov	 DWORD PTR ?g_iBloodBoneDropRate@@3HA, eax ; g_iBloodBoneDropRate
  00d20	e8 00 00 00 00	 call	 ?GetNewPath@CDirPath@@QAEPADPAD@Z ; CDirPath::GetNewPath
  00d25	50		 push	 eax
  00d26	6a 00		 push	 0
  00d28	68 00 00 00 00	 push	 OFFSET ??_C@_0O@PBCFFJJH@StoneDropRate?$AA@
  00d2d	68 00 00 00 00	 push	 OFFSET ??_C@_0P@EMJDPFDH@GameServerInfo?$AA@
  00d32	ff d6		 call	 esi
  00d34	a3 00 00 00 00	 mov	 DWORD PTR ?g_iStoneDropRate@@3HA, eax ; g_iStoneDropRate
  00d39	5e		 pop	 esi

; 2225 : 			break;
; 2226 : 	}
; 2227 : }

  00d3a	8b 4d fc	 mov	 ecx, DWORD PTR __$ArrayPad$[ebp]
  00d3d	33 cd		 xor	 ecx, ebp
  00d3f	e8 00 00 00 00	 call	 @__security_check_cookie@4
  00d44	8b e5		 mov	 esp, ebp
  00d46	5d		 pop	 ebp
  00d47	c3		 ret	 0
$LN13@ReadEventI:

; 2118 : 			break;
; 2119 : 
; 2120 : 		case 3: //Attack Event
; 2121 : 			gAttackEventRegenTime = GetPrivateProfileInt("GameServerInfo","AttackEventRegenTime", 10, gDirPath.GetNewPath("commonserver.cfg"));

  00d48	68 00 00 00 00	 push	 OFFSET ??_C@_0BB@IGLHFEOF@commonserver?4cfg?$AA@
  00d4d	b9 00 00 00 00	 mov	 ecx, OFFSET ?gDirPath@@3VCDirPath@@A ; gDirPath
  00d52	e8 00 00 00 00	 call	 ?GetNewPath@CDirPath@@QAEPADPAD@Z ; CDirPath::GetNewPath
  00d57	50		 push	 eax
  00d58	6a 0a		 push	 10			; 0000000aH
  00d5a	68 00 00 00 00	 push	 OFFSET ??_C@_0BF@LANDNGMH@AttackEventRegenTime?$AA@
  00d5f	68 00 00 00 00	 push	 OFFSET ??_C@_0P@EMJDPFDH@GameServerInfo?$AA@
  00d64	ff 15 00 00 00
	00		 call	 DWORD PTR __imp__GetPrivateProfileIntA@16
  00d6a	a3 00 00 00 00	 mov	 DWORD PTR ?gAttackEventRegenTime@@3KA, eax ; gAttackEventRegenTime
  00d6f	5e		 pop	 esi

; 2225 : 			break;
; 2226 : 	}
; 2227 : }

  00d70	8b 4d fc	 mov	 ecx, DWORD PTR __$ArrayPad$[ebp]
  00d73	33 cd		 xor	 ecx, ebp
  00d75	e8 00 00 00 00	 call	 @__security_check_cookie@4
  00d7a	8b e5		 mov	 esp, ebp
  00d7c	5d		 pop	 ebp
  00d7d	c3		 ret	 0
$LN12@ReadEventI:

; 2122 : 			break;
; 2123 : 
; 2124 : 		case 4: //Eledorado Event
; 2125 : 			gIsEledoradoEvent = GetPrivateProfileInt("GameServerInfo","IsEledoradoEvent", 0, gDirPath.GetNewPath("commonserver.cfg"));

  00d7e	68 00 00 00 00	 push	 OFFSET ??_C@_0BB@IGLHFEOF@commonserver?4cfg?$AA@
  00d83	b9 00 00 00 00	 mov	 ecx, OFFSET ?gDirPath@@3VCDirPath@@A ; gDirPath
  00d88	e8 00 00 00 00	 call	 ?GetNewPath@CDirPath@@QAEPADPAD@Z ; CDirPath::GetNewPath
  00d8d	8b 35 00 00 00
	00		 mov	 esi, DWORD PTR __imp__GetPrivateProfileIntA@16
  00d93	50		 push	 eax
  00d94	6a 00		 push	 0
  00d96	68 00 00 00 00	 push	 OFFSET ??_C@_0BB@OEKAOOOA@IsEledoradoEvent?$AA@
  00d9b	68 00 00 00 00	 push	 OFFSET ??_C@_0P@EMJDPFDH@GameServerInfo?$AA@
  00da0	ff d6		 call	 esi

; 2126 : 			gEledoradoGoldGoblenRegenTime = GetPrivateProfileInt("GameServerInfo","EledoradoGoldGoblenRegenTime", 180, gDirPath.GetNewPath("commonserver.cfg"));

  00da2	68 00 00 00 00	 push	 OFFSET ??_C@_0BB@IGLHFEOF@commonserver?4cfg?$AA@
  00da7	b9 00 00 00 00	 mov	 ecx, OFFSET ?gDirPath@@3VCDirPath@@A ; gDirPath
  00dac	a3 00 00 00 00	 mov	 DWORD PTR ?gIsEledoradoEvent@@3HA, eax ; gIsEledoradoEvent
  00db1	e8 00 00 00 00	 call	 ?GetNewPath@CDirPath@@QAEPADPAD@Z ; CDirPath::GetNewPath
  00db6	50		 push	 eax
  00db7	68 b4 00 00 00	 push	 180			; 000000b4H
  00dbc	68 00 00 00 00	 push	 OFFSET ??_C@_0BN@GMFOFBJF@EledoradoGoldGoblenRegenTime?$AA@
  00dc1	68 00 00 00 00	 push	 OFFSET ??_C@_0P@EMJDPFDH@GameServerInfo?$AA@
  00dc6	ff d6		 call	 esi

; 2127 : 			gEledoradoTitanRegenTime = GetPrivateProfileInt("GameServerInfo","EledoradoTitanRegenTime", 180, gDirPath.GetNewPath("commonserver.cfg"));

  00dc8	68 00 00 00 00	 push	 OFFSET ??_C@_0BB@IGLHFEOF@commonserver?4cfg?$AA@
  00dcd	b9 00 00 00 00	 mov	 ecx, OFFSET ?gDirPath@@3VCDirPath@@A ; gDirPath
  00dd2	a3 00 00 00 00	 mov	 DWORD PTR ?gEledoradoGoldGoblenRegenTime@@3KA, eax ; gEledoradoGoldGoblenRegenTime
  00dd7	e8 00 00 00 00	 call	 ?GetNewPath@CDirPath@@QAEPADPAD@Z ; CDirPath::GetNewPath
  00ddc	50		 push	 eax
  00ddd	68 b4 00 00 00	 push	 180			; 000000b4H
  00de2	68 00 00 00 00	 push	 OFFSET ??_C@_0BI@KJLIHAFL@EledoradoTitanRegenTime?$AA@
  00de7	68 00 00 00 00	 push	 OFFSET ??_C@_0P@EMJDPFDH@GameServerInfo?$AA@
  00dec	ff d6		 call	 esi

; 2128 : 			gEledoradoGoldDerconRegenTime = GetPrivateProfileInt("GameServerInfo","EledoradoGoldDerconRegenTime", 720, gDirPath.GetNewPath("commonserver.cfg"));

  00dee	68 00 00 00 00	 push	 OFFSET ??_C@_0BB@IGLHFEOF@commonserver?4cfg?$AA@
  00df3	b9 00 00 00 00	 mov	 ecx, OFFSET ?gDirPath@@3VCDirPath@@A ; gDirPath
  00df8	a3 00 00 00 00	 mov	 DWORD PTR ?gEledoradoTitanRegenTime@@3KA, eax ; gEledoradoTitanRegenTime
  00dfd	e8 00 00 00 00	 call	 ?GetNewPath@CDirPath@@QAEPADPAD@Z ; CDirPath::GetNewPath
  00e02	50		 push	 eax
  00e03	68 d0 02 00 00	 push	 720			; 000002d0H
  00e08	68 00 00 00 00	 push	 OFFSET ??_C@_0BN@IJGMJJEJ@EledoradoGoldDerconRegenTime?$AA@
  00e0d	68 00 00 00 00	 push	 OFFSET ??_C@_0P@EMJDPFDH@GameServerInfo?$AA@
  00e12	ff d6		 call	 esi

; 2129 : 			gEledoradoDevilLizardKingRegenTime = GetPrivateProfileInt("GameServerInfo","EledoradoDevilLizardKingRegenTime", 360, gDirPath.GetNewPath("commonserver.cfg"));

  00e14	68 00 00 00 00	 push	 OFFSET ??_C@_0BB@IGLHFEOF@commonserver?4cfg?$AA@
  00e19	b9 00 00 00 00	 mov	 ecx, OFFSET ?gDirPath@@3VCDirPath@@A ; gDirPath
  00e1e	a3 00 00 00 00	 mov	 DWORD PTR ?gEledoradoGoldDerconRegenTime@@3KA, eax ; gEledoradoGoldDerconRegenTime
  00e23	e8 00 00 00 00	 call	 ?GetNewPath@CDirPath@@QAEPADPAD@Z ; CDirPath::GetNewPath
  00e28	50		 push	 eax
  00e29	68 68 01 00 00	 push	 360			; 00000168H
  00e2e	68 00 00 00 00	 push	 OFFSET ??_C@_0CC@KCJCENFB@EledoradoDevilLizardKingRegenTim@
  00e33	68 00 00 00 00	 push	 OFFSET ??_C@_0P@EMJDPFDH@GameServerInfo?$AA@
  00e38	ff d6		 call	 esi

; 2130 : 			gEledoradoDevilTantarosRegenTime = GetPrivateProfileInt("GameServerInfo","EledoradoDevilTantarosRegenTime", 360, gDirPath.GetNewPath("commonserver.cfg"));

  00e3a	68 00 00 00 00	 push	 OFFSET ??_C@_0BB@IGLHFEOF@commonserver?4cfg?$AA@
  00e3f	b9 00 00 00 00	 mov	 ecx, OFFSET ?gDirPath@@3VCDirPath@@A ; gDirPath
  00e44	a3 00 00 00 00	 mov	 DWORD PTR ?gEledoradoDevilLizardKingRegenTime@@3KA, eax ; gEledoradoDevilLizardKingRegenTime
  00e49	e8 00 00 00 00	 call	 ?GetNewPath@CDirPath@@QAEPADPAD@Z ; CDirPath::GetNewPath
  00e4e	50		 push	 eax
  00e4f	68 68 01 00 00	 push	 360			; 00000168H
  00e54	68 00 00 00 00	 push	 OFFSET ??_C@_0CA@PDCIOFIF@EledoradoDevilTantarosRegenTime?$AA@
  00e59	68 00 00 00 00	 push	 OFFSET ??_C@_0P@EMJDPFDH@GameServerInfo?$AA@
  00e5e	ff d6		 call	 esi

; 2131 : 			gEledoradoGoldGoblenItemDropRate = GetPrivateProfileInt("GameServerInfo","EledoradoGoldGoblenItemDropRate", 10, gDirPath.GetNewPath("commonserver.cfg"));

  00e60	68 00 00 00 00	 push	 OFFSET ??_C@_0BB@IGLHFEOF@commonserver?4cfg?$AA@
  00e65	b9 00 00 00 00	 mov	 ecx, OFFSET ?gDirPath@@3VCDirPath@@A ; gDirPath
  00e6a	a3 00 00 00 00	 mov	 DWORD PTR ?gEledoradoDevilTantarosRegenTime@@3KA, eax ; gEledoradoDevilTantarosRegenTime
  00e6f	e8 00 00 00 00	 call	 ?GetNewPath@CDirPath@@QAEPADPAD@Z ; CDirPath::GetNewPath
  00e74	50		 push	 eax
  00e75	6a 0a		 push	 10			; 0000000aH
  00e77	68 00 00 00 00	 push	 OFFSET ??_C@_0CA@HENEMHED@EledoradoGoldGoblenItemDropRate?$AA@
  00e7c	68 00 00 00 00	 push	 OFFSET ??_C@_0P@EMJDPFDH@GameServerInfo?$AA@
  00e81	ff d6		 call	 esi

; 2132 : 			gEledoradoTitanItemDropRate = GetPrivateProfileInt("GameServerInfo","EledoradoTitanItemDropRate", 10, gDirPath.GetNewPath("commonserver.cfg"));

  00e83	68 00 00 00 00	 push	 OFFSET ??_C@_0BB@IGLHFEOF@commonserver?4cfg?$AA@
  00e88	b9 00 00 00 00	 mov	 ecx, OFFSET ?gDirPath@@3VCDirPath@@A ; gDirPath
  00e8d	a3 00 00 00 00	 mov	 DWORD PTR ?gEledoradoGoldGoblenItemDropRate@@3HA, eax ; gEledoradoGoldGoblenItemDropRate
  00e92	e8 00 00 00 00	 call	 ?GetNewPath@CDirPath@@QAEPADPAD@Z ; CDirPath::GetNewPath
  00e97	50		 push	 eax
  00e98	6a 0a		 push	 10			; 0000000aH
  00e9a	68 00 00 00 00	 push	 OFFSET ??_C@_0BL@CKBDCOGC@EledoradoTitanItemDropRate?$AA@
  00e9f	68 00 00 00 00	 push	 OFFSET ??_C@_0P@EMJDPFDH@GameServerInfo?$AA@
  00ea4	ff d6		 call	 esi

; 2133 : 			gEledoradoGoldDerconItemDropRate = GetPrivateProfileInt("GameServerInfo","EledoradoGoldDerconItemDropRate", 10, gDirPath.GetNewPath("commonserver.cfg"));

  00ea6	68 00 00 00 00	 push	 OFFSET ??_C@_0BB@IGLHFEOF@commonserver?4cfg?$AA@
  00eab	b9 00 00 00 00	 mov	 ecx, OFFSET ?gDirPath@@3VCDirPath@@A ; gDirPath
  00eb0	a3 00 00 00 00	 mov	 DWORD PTR ?gEledoradoTitanItemDropRate@@3HA, eax ; gEledoradoTitanItemDropRate
  00eb5	e8 00 00 00 00	 call	 ?GetNewPath@CDirPath@@QAEPADPAD@Z ; CDirPath::GetNewPath
  00eba	50		 push	 eax
  00ebb	6a 0a		 push	 10			; 0000000aH
  00ebd	68 00 00 00 00	 push	 OFFSET ??_C@_0CA@DLLDAHDE@EledoradoGoldDerconItemDropRate?$AA@
  00ec2	68 00 00 00 00	 push	 OFFSET ??_C@_0P@EMJDPFDH@GameServerInfo?$AA@
  00ec7	ff d6		 call	 esi

; 2134 : 			gEledoradoDevilLizardKingItemDropRate = GetPrivateProfileInt("GameServerInfo","EledoradoDevilLizardKingItemDropRate", 10, gDirPath.GetNewPath("commonserver.cfg"));

  00ec9	68 00 00 00 00	 push	 OFFSET ??_C@_0BB@IGLHFEOF@commonserver?4cfg?$AA@
  00ece	b9 00 00 00 00	 mov	 ecx, OFFSET ?gDirPath@@3VCDirPath@@A ; gDirPath
  00ed3	a3 00 00 00 00	 mov	 DWORD PTR ?gEledoradoGoldDerconItemDropRate@@3HA, eax ; gEledoradoGoldDerconItemDropRate
  00ed8	e8 00 00 00 00	 call	 ?GetNewPath@CDirPath@@QAEPADPAD@Z ; CDirPath::GetNewPath
  00edd	50		 push	 eax
  00ede	6a 0a		 push	 10			; 0000000aH
  00ee0	68 00 00 00 00	 push	 OFFSET ??_C@_0CF@JGNHCKNH@EledoradoDevilLizardKingItemDrop@
  00ee5	68 00 00 00 00	 push	 OFFSET ??_C@_0P@EMJDPFDH@GameServerInfo?$AA@
  00eea	ff d6		 call	 esi

; 2135 : 			gEledoradoDevilTantarosItemDropRate = GetPrivateProfileInt("GameServerInfo","EledoradoDevilTantarosItemDropRate", 10, gDirPath.GetNewPath("commonserver.cfg"));

  00eec	68 00 00 00 00	 push	 OFFSET ??_C@_0BB@IGLHFEOF@commonserver?4cfg?$AA@
  00ef1	b9 00 00 00 00	 mov	 ecx, OFFSET ?gDirPath@@3VCDirPath@@A ; gDirPath
  00ef6	a3 00 00 00 00	 mov	 DWORD PTR ?gEledoradoDevilLizardKingItemDropRate@@3HA, eax ; gEledoradoDevilLizardKingItemDropRate
  00efb	e8 00 00 00 00	 call	 ?GetNewPath@CDirPath@@QAEPADPAD@Z ; CDirPath::GetNewPath
  00f00	50		 push	 eax
  00f01	6a 0a		 push	 10			; 0000000aH
  00f03	68 00 00 00 00	 push	 OFFSET ??_C@_0CD@FBDNNLBJ@EledoradoDevilTantarosItemDropRa@
  00f08	68 00 00 00 00	 push	 OFFSET ??_C@_0P@EMJDPFDH@GameServerInfo?$AA@
  00f0d	ff d6		 call	 esi

; 2136 : 			gEledoradoGoldGoblenExItemDropRate = GetPrivateProfileInt("GameServerInfo","EledoradoGoldGoblenExItemDropRate", 10, gDirPath.GetNewPath("commonserver.cfg"));

  00f0f	68 00 00 00 00	 push	 OFFSET ??_C@_0BB@IGLHFEOF@commonserver?4cfg?$AA@
  00f14	b9 00 00 00 00	 mov	 ecx, OFFSET ?gDirPath@@3VCDirPath@@A ; gDirPath
  00f19	a3 00 00 00 00	 mov	 DWORD PTR ?gEledoradoDevilTantarosItemDropRate@@3HA, eax ; gEledoradoDevilTantarosItemDropRate
  00f1e	e8 00 00 00 00	 call	 ?GetNewPath@CDirPath@@QAEPADPAD@Z ; CDirPath::GetNewPath
  00f23	50		 push	 eax
  00f24	6a 0a		 push	 10			; 0000000aH
  00f26	68 00 00 00 00	 push	 OFFSET ??_C@_0CC@FBLILEOL@EledoradoGoldGoblenExItemDropRat@
  00f2b	68 00 00 00 00	 push	 OFFSET ??_C@_0P@EMJDPFDH@GameServerInfo?$AA@
  00f30	ff d6		 call	 esi

; 2137 : 			gEledoradoTitanExItemDropRate = GetPrivateProfileInt("GameServerInfo","EledoradoTitanExItemDropRate", 10, gDirPath.GetNewPath("commonserver.cfg"));

  00f32	68 00 00 00 00	 push	 OFFSET ??_C@_0BB@IGLHFEOF@commonserver?4cfg?$AA@
  00f37	b9 00 00 00 00	 mov	 ecx, OFFSET ?gDirPath@@3VCDirPath@@A ; gDirPath
  00f3c	a3 00 00 00 00	 mov	 DWORD PTR ?gEledoradoGoldGoblenExItemDropRate@@3HA, eax ; gEledoradoGoldGoblenExItemDropRate
  00f41	e8 00 00 00 00	 call	 ?GetNewPath@CDirPath@@QAEPADPAD@Z ; CDirPath::GetNewPath
  00f46	50		 push	 eax
  00f47	6a 0a		 push	 10			; 0000000aH
  00f49	68 00 00 00 00	 push	 OFFSET ??_C@_0BN@EPBKFBD@EledoradoTitanExItemDropRate?$AA@
  00f4e	68 00 00 00 00	 push	 OFFSET ??_C@_0P@EMJDPFDH@GameServerInfo?$AA@
  00f53	ff d6		 call	 esi

; 2138 : 			gEledoradoGoldDerconExItemDropRate = GetPrivateProfileInt("GameServerInfo","EledoradoGoldDerconExItemDropRate", 10, gDirPath.GetNewPath("commonserver.cfg"));

  00f55	68 00 00 00 00	 push	 OFFSET ??_C@_0BB@IGLHFEOF@commonserver?4cfg?$AA@
  00f5a	b9 00 00 00 00	 mov	 ecx, OFFSET ?gDirPath@@3VCDirPath@@A ; gDirPath
  00f5f	a3 00 00 00 00	 mov	 DWORD PTR ?gEledoradoTitanExItemDropRate@@3HA, eax ; gEledoradoTitanExItemDropRate
  00f64	e8 00 00 00 00	 call	 ?GetNewPath@CDirPath@@QAEPADPAD@Z ; CDirPath::GetNewPath
  00f69	50		 push	 eax
  00f6a	6a 0a		 push	 10			; 0000000aH
  00f6c	68 00 00 00 00	 push	 OFFSET ??_C@_0CC@KKKCNGAN@EledoradoGoldDerconExItemDropRat@
  00f71	68 00 00 00 00	 push	 OFFSET ??_C@_0P@EMJDPFDH@GameServerInfo?$AA@
  00f76	ff d6		 call	 esi

; 2139 : 			gEledoradoDevilLizardKingExItemDropRate = GetPrivateProfileInt("GameServerInfo","EledoradoDevilLizardKingExItemDropRate", 10, gDirPath.GetNewPath("commonserver.cfg"));

  00f78	68 00 00 00 00	 push	 OFFSET ??_C@_0BB@IGLHFEOF@commonserver?4cfg?$AA@
  00f7d	b9 00 00 00 00	 mov	 ecx, OFFSET ?gDirPath@@3VCDirPath@@A ; gDirPath
  00f82	a3 00 00 00 00	 mov	 DWORD PTR ?gEledoradoGoldDerconExItemDropRate@@3HA, eax ; gEledoradoGoldDerconExItemDropRate
  00f87	e8 00 00 00 00	 call	 ?GetNewPath@CDirPath@@QAEPADPAD@Z ; CDirPath::GetNewPath
  00f8c	50		 push	 eax
  00f8d	6a 0a		 push	 10			; 0000000aH
  00f8f	68 00 00 00 00	 push	 OFFSET ??_C@_0CH@JKCOIHDD@EledoradoDevilLizardKingExItemDr@
  00f94	68 00 00 00 00	 push	 OFFSET ??_C@_0P@EMJDPFDH@GameServerInfo?$AA@
  00f99	ff d6		 call	 esi

; 2140 : 			gEledoradoDevilTantarosExItemDropRate = GetPrivateProfileInt("GameServerInfo","EledoradoDevilTantarosExItemDropRate", 10, gDirPath.GetNewPath("commonserver.cfg"));

  00f9b	68 00 00 00 00	 push	 OFFSET ??_C@_0BB@IGLHFEOF@commonserver?4cfg?$AA@
  00fa0	b9 00 00 00 00	 mov	 ecx, OFFSET ?gDirPath@@3VCDirPath@@A ; gDirPath
  00fa5	a3 00 00 00 00	 mov	 DWORD PTR ?gEledoradoDevilLizardKingExItemDropRate@@3HA, eax ; gEledoradoDevilLizardKingExItemDropRate
  00faa	e8 00 00 00 00	 call	 ?GetNewPath@CDirPath@@QAEPADPAD@Z ; CDirPath::GetNewPath
  00faf	50		 push	 eax
  00fb0	6a 0a		 push	 10			; 0000000aH
  00fb2	68 00 00 00 00	 push	 OFFSET ??_C@_0CF@FONHIJD@EledoradoDevilTantarosExItemDrop@
  00fb7	68 00 00 00 00	 push	 OFFSET ??_C@_0P@EMJDPFDH@GameServerInfo?$AA@
  00fbc	ff d6		 call	 esi
  00fbe	a3 00 00 00 00	 mov	 DWORD PTR ?gEledoradoDevilTantarosExItemDropRate@@3HA, eax ; gEledoradoDevilTantarosExItemDropRate
  00fc3	5e		 pop	 esi

; 2225 : 			break;
; 2226 : 	}
; 2227 : }

  00fc4	8b 4d fc	 mov	 ecx, DWORD PTR __$ArrayPad$[ebp]
  00fc7	33 cd		 xor	 ecx, ebp
  00fc9	e8 00 00 00 00	 call	 @__security_check_cookie@4
  00fce	8b e5		 mov	 esp, ebp
  00fd0	5d		 pop	 ebp
  00fd1	c3		 ret	 0
$LN11@ReadEventI:

; 2141 : 			break;
; 2142 : 
; 2143 : 		case 5: //Ring Event
; 2144 : 			{
; 2145 : 				char szTemp[256];
; 2146 : 
; 2147 : 				GetPrivateProfileString("GameServerInfo", "RingAttackEvent", "0", szTemp, 5, gDirPath.GetNewPath("commonserver.cfg"));

  00fd2	68 00 00 00 00	 push	 OFFSET ??_C@_0BB@IGLHFEOF@commonserver?4cfg?$AA@
  00fd7	b9 00 00 00 00	 mov	 ecx, OFFSET ?gDirPath@@3VCDirPath@@A ; gDirPath
  00fdc	e8 00 00 00 00	 call	 ?GetNewPath@CDirPath@@QAEPADPAD@Z ; CDirPath::GetNewPath
  00fe1	8b 35 00 00 00
	00		 mov	 esi, DWORD PTR __imp__GetPrivateProfileStringA@24
  00fe7	50		 push	 eax
  00fe8	6a 05		 push	 5
  00fea	8d 85 fc fd ff
	ff		 lea	 eax, DWORD PTR _szTemp$163059[ebp]
  00ff0	50		 push	 eax
  00ff1	68 00 00 00 00	 push	 OFFSET ??_C@_01GBGANLPD@0?$AA@
  00ff6	68 00 00 00 00	 push	 OFFSET ??_C@_0BA@PGIAALHL@RingAttackEvent?$AA@
  00ffb	68 00 00 00 00	 push	 OFFSET ??_C@_0P@EMJDPFDH@GameServerInfo?$AA@
  01000	ff d6		 call	 esi

; 2148 : 				g_bDoRingEvent = atoi(szTemp);

  01002	8d 8d fc fd ff
	ff		 lea	 ecx, DWORD PTR _szTemp$163059[ebp]
  01008	51		 push	 ecx
  01009	e8 00 00 00 00	 call	 _atoi
  0100e	83 c4 04	 add	 esp, 4

; 2149 : 				GetPrivateProfileString("GameServerInfo", "RingOrcKillGiftRate", "10000", szTemp, 10, gDirPath.GetNewPath("commonserver.cfg"));

  01011	68 00 00 00 00	 push	 OFFSET ??_C@_0BB@IGLHFEOF@commonserver?4cfg?$AA@
  01016	b9 00 00 00 00	 mov	 ecx, OFFSET ?gDirPath@@3VCDirPath@@A ; gDirPath
  0101b	a3 00 00 00 00	 mov	 DWORD PTR ?g_bDoRingEvent@@3HA, eax ; g_bDoRingEvent
  01020	e8 00 00 00 00	 call	 ?GetNewPath@CDirPath@@QAEPADPAD@Z ; CDirPath::GetNewPath
  01025	50		 push	 eax
  01026	6a 0a		 push	 10			; 0000000aH
  01028	8d 95 fc fd ff
	ff		 lea	 edx, DWORD PTR _szTemp$163059[ebp]
  0102e	52		 push	 edx
  0102f	68 00 00 00 00	 push	 OFFSET ??_C@_05CLDMBJBA@10000?$AA@
  01034	68 00 00 00 00	 push	 OFFSET ??_C@_0BE@PAGFJHNK@RingOrcKillGiftRate?$AA@
  01039	68 00 00 00 00	 push	 OFFSET ??_C@_0P@EMJDPFDH@GameServerInfo?$AA@
  0103e	ff d6		 call	 esi

; 2150 : 				g_iRingOrcKillGiftRate = atoi(szTemp);

  01040	8d 85 fc fd ff
	ff		 lea	 eax, DWORD PTR _szTemp$163059[ebp]
  01046	50		 push	 eax
  01047	e8 00 00 00 00	 call	 _atoi
  0104c	83 c4 04	 add	 esp, 4

; 2151 : 				GetPrivateProfileString("GameServerInfo", "RingDropGiftRate", "10000", szTemp, 10, gDirPath.GetNewPath("commonserver.cfg"));

  0104f	68 00 00 00 00	 push	 OFFSET ??_C@_0BB@IGLHFEOF@commonserver?4cfg?$AA@
  01054	b9 00 00 00 00	 mov	 ecx, OFFSET ?gDirPath@@3VCDirPath@@A ; gDirPath
  01059	a3 00 00 00 00	 mov	 DWORD PTR ?g_iRingOrcKillGiftRate@@3HA, eax ; g_iRingOrcKillGiftRate
  0105e	e8 00 00 00 00	 call	 ?GetNewPath@CDirPath@@QAEPADPAD@Z ; CDirPath::GetNewPath
  01063	50		 push	 eax
  01064	6a 0a		 push	 10			; 0000000aH
  01066	8d 8d fc fd ff
	ff		 lea	 ecx, DWORD PTR _szTemp$163059[ebp]
  0106c	51		 push	 ecx
  0106d	68 00 00 00 00	 push	 OFFSET ??_C@_05CLDMBJBA@10000?$AA@
  01072	68 00 00 00 00	 push	 OFFSET ??_C@_0BB@NMFCKOP@RingDropGiftRate?$AA@
  01077	68 00 00 00 00	 push	 OFFSET ??_C@_0P@EMJDPFDH@GameServerInfo?$AA@
  0107c	ff d6		 call	 esi

; 2152 : 				g_iRingDropGiftRate = atoi(szTemp);

  0107e	8d 95 fc fd ff
	ff		 lea	 edx, DWORD PTR _szTemp$163059[ebp]
  01084	52		 push	 edx
  01085	e8 00 00 00 00	 call	 _atoi
  0108a	83 c4 04	 add	 esp, 4

; 2153 : 				g_RingAttackEvent.Load(gDirPath.GetNewPath("RingAttackEvent.dat"));

  0108d	68 00 00 00 00	 push	 OFFSET ??_C@_0BE@BHMFOLMK@RingAttackEvent?4dat?$AA@
  01092	b9 00 00 00 00	 mov	 ecx, OFFSET ?gDirPath@@3VCDirPath@@A ; gDirPath
  01097	a3 00 00 00 00	 mov	 DWORD PTR ?g_iRingDropGiftRate@@3HA, eax ; g_iRingDropGiftRate
  0109c	e8 00 00 00 00	 call	 ?GetNewPath@CDirPath@@QAEPADPAD@Z ; CDirPath::GetNewPath
  010a1	50		 push	 eax
  010a2	b9 00 00 00 00	 mov	 ecx, OFFSET ?g_RingAttackEvent@@3VCRingAttackEvent@@A ; g_RingAttackEvent
  010a7	e8 00 00 00 00	 call	 ?Load@CRingAttackEvent@@UAEHPAD@Z ; CRingAttackEvent::Load

; 2154 : #if GS_CASTLE == 1
; 2155 : 				g_bDoRingEvent = FALSE;
; 2156 : #endif
; 2157 : 				g_RingAttackEvent.EnableEvent(g_bDoRingEvent);

  010ac	a1 00 00 00 00	 mov	 eax, DWORD PTR ?g_bDoRingEvent@@3HA ; g_bDoRingEvent
  010b1	50		 push	 eax
  010b2	b9 00 00 00 00	 mov	 ecx, OFFSET ?g_RingAttackEvent@@3VCRingAttackEvent@@A ; g_RingAttackEvent
  010b7	e8 00 00 00 00	 call	 ?EnableEvent@CRingAttackEvent@@QAEXH@Z ; CRingAttackEvent::EnableEvent
  010bc	5e		 pop	 esi

; 2225 : 			break;
; 2226 : 	}
; 2227 : }

  010bd	8b 4d fc	 mov	 ecx, DWORD PTR __$ArrayPad$[ebp]
  010c0	33 cd		 xor	 ecx, ebp
  010c2	e8 00 00 00 00	 call	 @__security_check_cookie@4
  010c7	8b e5		 mov	 esp, ebp
  010c9	5d		 pop	 ebp
  010ca	c3		 ret	 0
$LN10@ReadEventI:

; 2158 : 			}
; 2159 : 			break;
; 2160 : 
; 2161 : 		case 6: //Event 1
; 2162 : 			GetPrivateProfileString("GameServerInfo", "EVENT1", "0", szTemp, 5, gDirPath.GetNewPath("commonserver.cfg"));

  010cb	68 00 00 00 00	 push	 OFFSET ??_C@_0BB@IGLHFEOF@commonserver?4cfg?$AA@
  010d0	b9 00 00 00 00	 mov	 ecx, OFFSET ?gDirPath@@3VCDirPath@@A ; gDirPath
  010d5	e8 00 00 00 00	 call	 ?GetNewPath@CDirPath@@QAEPADPAD@Z ; CDirPath::GetNewPath
  010da	8b 35 00 00 00
	00		 mov	 esi, DWORD PTR __imp__GetPrivateProfileStringA@24
  010e0	50		 push	 eax
  010e1	6a 05		 push	 5
  010e3	8d 8d fc fe ff
	ff		 lea	 ecx, DWORD PTR _szTemp$[ebp]
  010e9	51		 push	 ecx
  010ea	68 00 00 00 00	 push	 OFFSET ??_C@_01GBGANLPD@0?$AA@
  010ef	68 00 00 00 00	 push	 OFFSET ??_C@_06OIEHOIFM@EVENT1?$AA@
  010f4	68 00 00 00 00	 push	 OFFSET ??_C@_0P@EMJDPFDH@GameServerInfo?$AA@
  010f9	ff d6		 call	 esi

; 2163 : 			gEvent1 = atoi(szTemp);

  010fb	8d 95 fc fe ff
	ff		 lea	 edx, DWORD PTR _szTemp$[ebp]
  01101	52		 push	 edx
  01102	e8 00 00 00 00	 call	 _atoi
  01107	83 c4 04	 add	 esp, 4

; 2164 : 			GetPrivateProfileString("GameServerInfo", "Event1ItemDropTodayMax", "1", szTemp, 5, gDirPath.GetNewPath("commonserver.cfg"));

  0110a	68 00 00 00 00	 push	 OFFSET ??_C@_0BB@IGLHFEOF@commonserver?4cfg?$AA@
  0110f	b9 00 00 00 00	 mov	 ecx, OFFSET ?gDirPath@@3VCDirPath@@A ; gDirPath
  01114	a3 00 00 00 00	 mov	 DWORD PTR ?gEvent1@@3HA, eax ; gEvent1
  01119	e8 00 00 00 00	 call	 ?GetNewPath@CDirPath@@QAEPADPAD@Z ; CDirPath::GetNewPath
  0111e	50		 push	 eax
  0111f	6a 05		 push	 5
  01121	8d 85 fc fe ff
	ff		 lea	 eax, DWORD PTR _szTemp$[ebp]
  01127	50		 push	 eax
  01128	68 00 00 00 00	 push	 OFFSET ??_C@_01HIHLOKLC@1?$AA@
  0112d	68 00 00 00 00	 push	 OFFSET ??_C@_0BH@LPINNCM@Event1ItemDropTodayMax?$AA@
  01132	68 00 00 00 00	 push	 OFFSET ??_C@_0P@EMJDPFDH@GameServerInfo?$AA@
  01137	ff d6		 call	 esi

; 2165 : 			gEvent1ItemDropTodayCount = 0;
; 2166 : 			gEvent1ItemDropTodayMax = atoi(szTemp);

  01139	8d 8d fc fe ff
	ff		 lea	 ecx, DWORD PTR _szTemp$[ebp]
  0113f	51		 push	 ecx
  01140	c7 05 00 00 00
	00 00 00 00 00	 mov	 DWORD PTR ?gEvent1ItemDropTodayCount@@3HA, 0 ; gEvent1ItemDropTodayCount
  0114a	e8 00 00 00 00	 call	 _atoi
  0114f	83 c4 04	 add	 esp, 4

; 2167 : 			GetPrivateProfileString("GameServerInfo", "Event1ItemDropTodayPercent", "10000000", szTemp, 5, gDirPath.GetNewPath("commonserver.cfg"));

  01152	68 00 00 00 00	 push	 OFFSET ??_C@_0BB@IGLHFEOF@commonserver?4cfg?$AA@
  01157	b9 00 00 00 00	 mov	 ecx, OFFSET ?gDirPath@@3VCDirPath@@A ; gDirPath
  0115c	a3 00 00 00 00	 mov	 DWORD PTR ?gEvent1ItemDropTodayMax@@3HA, eax ; gEvent1ItemDropTodayMax
  01161	e8 00 00 00 00	 call	 ?GetNewPath@CDirPath@@QAEPADPAD@Z ; CDirPath::GetNewPath
  01166	50		 push	 eax
  01167	6a 05		 push	 5
  01169	8d 95 fc fe ff
	ff		 lea	 edx, DWORD PTR _szTemp$[ebp]
  0116f	52		 push	 edx
  01170	68 00 00 00 00	 push	 OFFSET ??_C@_08KDEPFNAG@10000000?$AA@
  01175	68 00 00 00 00	 push	 OFFSET ??_C@_0BL@ENBIHHCD@Event1ItemDropTodayPercent?$AA@
  0117a	68 00 00 00 00	 push	 OFFSET ??_C@_0P@EMJDPFDH@GameServerInfo?$AA@
  0117f	ff d6		 call	 esi

; 2168 : 			gEvent1ItemDropTodayPercent = atoi(szTemp);

  01181	8d 85 fc fe ff
	ff		 lea	 eax, DWORD PTR _szTemp$[ebp]
  01187	50		 push	 eax
  01188	e8 00 00 00 00	 call	 _atoi
  0118d	83 c4 04	 add	 esp, 4
  01190	a3 00 00 00 00	 mov	 DWORD PTR ?gEvent1ItemDropTodayPercent@@3HA, eax ; gEvent1ItemDropTodayPercent
  01195	5e		 pop	 esi

; 2225 : 			break;
; 2226 : 	}
; 2227 : }

  01196	8b 4d fc	 mov	 ecx, DWORD PTR __$ArrayPad$[ebp]
  01199	33 cd		 xor	 ecx, ebp
  0119b	e8 00 00 00 00	 call	 @__security_check_cookie@4
  011a0	8b e5		 mov	 esp, ebp
  011a2	5d		 pop	 ebp
  011a3	c3		 ret	 0
$LN9@ReadEventI:

; 2169 : 			break;
; 2170 : 
; 2171 : 		case 7: //Fire Cracker
; 2172 : 			gFireCrackerEvent = GetPrivateProfileInt("GameServerInfo","FireCrackerEvent", 0, gDirPath.GetNewPath("commonserver.cfg"));

  011a4	68 00 00 00 00	 push	 OFFSET ??_C@_0BB@IGLHFEOF@commonserver?4cfg?$AA@
  011a9	b9 00 00 00 00	 mov	 ecx, OFFSET ?gDirPath@@3VCDirPath@@A ; gDirPath
  011ae	e8 00 00 00 00	 call	 ?GetNewPath@CDirPath@@QAEPADPAD@Z ; CDirPath::GetNewPath
  011b3	8b 35 00 00 00
	00		 mov	 esi, DWORD PTR __imp__GetPrivateProfileIntA@16
  011b9	50		 push	 eax
  011ba	6a 00		 push	 0
  011bc	68 00 00 00 00	 push	 OFFSET ??_C@_0BB@PMGPGCOG@FireCrackerEvent?$AA@
  011c1	68 00 00 00 00	 push	 OFFSET ??_C@_0P@EMJDPFDH@GameServerInfo?$AA@
  011c6	ff d6		 call	 esi

; 2173 : 			gFireCrackerDropRate = GetPrivateProfileInt("GameServerInfo","FireCrackerDropRate", 5000, gDirPath.GetNewPath("commonserver.cfg"));

  011c8	68 00 00 00 00	 push	 OFFSET ??_C@_0BB@IGLHFEOF@commonserver?4cfg?$AA@
  011cd	b9 00 00 00 00	 mov	 ecx, OFFSET ?gDirPath@@3VCDirPath@@A ; gDirPath
  011d2	a3 00 00 00 00	 mov	 DWORD PTR ?gFireCrackerEvent@@3HA, eax ; gFireCrackerEvent
  011d7	e8 00 00 00 00	 call	 ?GetNewPath@CDirPath@@QAEPADPAD@Z ; CDirPath::GetNewPath
  011dc	50		 push	 eax
  011dd	68 88 13 00 00	 push	 5000			; 00001388H
  011e2	68 00 00 00 00	 push	 OFFSET ??_C@_0BE@KPFNOKLC@FireCrackerDropRate?$AA@
  011e7	68 00 00 00 00	 push	 OFFSET ??_C@_0P@EMJDPFDH@GameServerInfo?$AA@
  011ec	ff d6		 call	 esi

; 2174 : 			g_ItemDropRateForgFireCracker = GetPrivateProfileInt("GameServerInfo","ItemDropRateForFireCracker", 2, gDirPath.GetNewPath("commonserver.cfg"));

  011ee	68 00 00 00 00	 push	 OFFSET ??_C@_0BB@IGLHFEOF@commonserver?4cfg?$AA@
  011f3	b9 00 00 00 00	 mov	 ecx, OFFSET ?gDirPath@@3VCDirPath@@A ; gDirPath
  011f8	a3 00 00 00 00	 mov	 DWORD PTR ?gFireCrackerDropRate@@3HA, eax ; gFireCrackerDropRate
  011fd	e8 00 00 00 00	 call	 ?GetNewPath@CDirPath@@QAEPADPAD@Z ; CDirPath::GetNewPath
  01202	50		 push	 eax
  01203	6a 02		 push	 2
  01205	68 00 00 00 00	 push	 OFFSET ??_C@_0BL@EHKPPMMG@ItemDropRateForFireCracker?$AA@
  0120a	68 00 00 00 00	 push	 OFFSET ??_C@_0P@EMJDPFDH@GameServerInfo?$AA@
  0120f	ff d6		 call	 esi

; 2175 : 			gOnlyFireCrackerEffectUse = GetPrivateProfileInt("GameServerInfo","OnlyFireCrackerEffectUse", 0, gDirPath.GetNewPath("commonserver.cfg"));

  01211	68 00 00 00 00	 push	 OFFSET ??_C@_0BB@IGLHFEOF@commonserver?4cfg?$AA@
  01216	b9 00 00 00 00	 mov	 ecx, OFFSET ?gDirPath@@3VCDirPath@@A ; gDirPath
  0121b	a3 00 00 00 00	 mov	 DWORD PTR ?g_ItemDropRateForgFireCracker@@3HA, eax ; g_ItemDropRateForgFireCracker
  01220	e8 00 00 00 00	 call	 ?GetNewPath@CDirPath@@QAEPADPAD@Z ; CDirPath::GetNewPath
  01225	50		 push	 eax
  01226	6a 00		 push	 0
  01228	68 00 00 00 00	 push	 OFFSET ??_C@_0BJ@GHAOAAJB@OnlyFireCrackerEffectUse?$AA@
  0122d	68 00 00 00 00	 push	 OFFSET ??_C@_0P@EMJDPFDH@GameServerInfo?$AA@
  01232	ff d6		 call	 esi
  01234	a3 00 00 00 00	 mov	 DWORD PTR ?gOnlyFireCrackerEffectUse@@3HA, eax ; gOnlyFireCrackerEffectUse
  01239	5e		 pop	 esi

; 2225 : 			break;
; 2226 : 	}
; 2227 : }

  0123a	8b 4d fc	 mov	 ecx, DWORD PTR __$ArrayPad$[ebp]
  0123d	33 cd		 xor	 ecx, ebp
  0123f	e8 00 00 00 00	 call	 @__security_check_cookie@4
  01244	8b e5		 mov	 esp, ebp
  01246	5d		 pop	 ebp
  01247	c3		 ret	 0
$LN8@ReadEventI:

; 2176 : 			break;
; 2177 : 
; 2178 : 		case 8: //Medal Event
; 2179 : 			gMedalEvent = GetPrivateProfileInt("GameServerInfo","MedalEvent", 0, gDirPath.GetNewPath("commonserver.cfg"));

  01248	68 00 00 00 00	 push	 OFFSET ??_C@_0BB@IGLHFEOF@commonserver?4cfg?$AA@
  0124d	b9 00 00 00 00	 mov	 ecx, OFFSET ?gDirPath@@3VCDirPath@@A ; gDirPath
  01252	e8 00 00 00 00	 call	 ?GetNewPath@CDirPath@@QAEPADPAD@Z ; CDirPath::GetNewPath
  01257	8b 35 00 00 00
	00		 mov	 esi, DWORD PTR __imp__GetPrivateProfileIntA@16
  0125d	50		 push	 eax
  0125e	6a 00		 push	 0
  01260	68 00 00 00 00	 push	 OFFSET ??_C@_0L@MDFHFAIK@MedalEvent?$AA@
  01265	68 00 00 00 00	 push	 OFFSET ??_C@_0P@EMJDPFDH@GameServerInfo?$AA@
  0126a	ff d6		 call	 esi

; 2180 : 			gGoldMedalDropRate = GetPrivateProfileInt("GameServerInfo","GoldMedalDropRate", 2, gDirPath.GetNewPath("commonserver.cfg"));

  0126c	68 00 00 00 00	 push	 OFFSET ??_C@_0BB@IGLHFEOF@commonserver?4cfg?$AA@
  01271	b9 00 00 00 00	 mov	 ecx, OFFSET ?gDirPath@@3VCDirPath@@A ; gDirPath
  01276	a3 00 00 00 00	 mov	 DWORD PTR ?gMedalEvent@@3HA, eax ; gMedalEvent
  0127b	e8 00 00 00 00	 call	 ?GetNewPath@CDirPath@@QAEPADPAD@Z ; CDirPath::GetNewPath
  01280	50		 push	 eax
  01281	6a 02		 push	 2
  01283	68 00 00 00 00	 push	 OFFSET ??_C@_0BC@CFKHOCLM@GoldMedalDropRate?$AA@
  01288	68 00 00 00 00	 push	 OFFSET ??_C@_0P@EMJDPFDH@GameServerInfo?$AA@
  0128d	ff d6		 call	 esi

; 2181 : 			gSilverMedalDropRate = GetPrivateProfileInt("GameServerInfo","SilverMedalDropRate", 2, gDirPath.GetNewPath("commonserver.cfg"));

  0128f	68 00 00 00 00	 push	 OFFSET ??_C@_0BB@IGLHFEOF@commonserver?4cfg?$AA@
  01294	b9 00 00 00 00	 mov	 ecx, OFFSET ?gDirPath@@3VCDirPath@@A ; gDirPath
  01299	a3 00 00 00 00	 mov	 DWORD PTR ?gGoldMedalDropRate@@3HA, eax ; gGoldMedalDropRate
  0129e	e8 00 00 00 00	 call	 ?GetNewPath@CDirPath@@QAEPADPAD@Z ; CDirPath::GetNewPath
  012a3	50		 push	 eax
  012a4	6a 02		 push	 2
  012a6	68 00 00 00 00	 push	 OFFSET ??_C@_0BE@OPKEGEPJ@SilverMedalDropRate?$AA@
  012ab	68 00 00 00 00	 push	 OFFSET ??_C@_0P@EMJDPFDH@GameServerInfo?$AA@
  012b0	ff d6		 call	 esi

; 2182 : 			g_ItemDropRateForGoldMedal = GetPrivateProfileInt("GameServerInfo","ItemDropRateForGoldMedal", 2, gDirPath.GetNewPath("commonserver.cfg"));

  012b2	68 00 00 00 00	 push	 OFFSET ??_C@_0BB@IGLHFEOF@commonserver?4cfg?$AA@
  012b7	b9 00 00 00 00	 mov	 ecx, OFFSET ?gDirPath@@3VCDirPath@@A ; gDirPath
  012bc	a3 00 00 00 00	 mov	 DWORD PTR ?gSilverMedalDropRate@@3HA, eax ; gSilverMedalDropRate
  012c1	e8 00 00 00 00	 call	 ?GetNewPath@CDirPath@@QAEPADPAD@Z ; CDirPath::GetNewPath
  012c6	50		 push	 eax
  012c7	6a 02		 push	 2
  012c9	68 00 00 00 00	 push	 OFFSET ??_C@_0BJ@HJDOLNNF@ItemDropRateForGoldMedal?$AA@
  012ce	68 00 00 00 00	 push	 OFFSET ??_C@_0P@EMJDPFDH@GameServerInfo?$AA@
  012d3	ff d6		 call	 esi

; 2183 : 			g_ItemDropRateForSilverMedal = GetPrivateProfileInt("GameServerInfo","ItemDropRateForSilverMedal", 2, gDirPath.GetNewPath("commonserver.cfg"));

  012d5	68 00 00 00 00	 push	 OFFSET ??_C@_0BB@IGLHFEOF@commonserver?4cfg?$AA@
  012da	b9 00 00 00 00	 mov	 ecx, OFFSET ?gDirPath@@3VCDirPath@@A ; gDirPath
  012df	a3 00 00 00 00	 mov	 DWORD PTR ?g_ItemDropRateForGoldMedal@@3HA, eax ; g_ItemDropRateForGoldMedal
  012e4	e8 00 00 00 00	 call	 ?GetNewPath@CDirPath@@QAEPADPAD@Z ; CDirPath::GetNewPath
  012e9	50		 push	 eax
  012ea	6a 02		 push	 2
  012ec	68 00 00 00 00	 push	 OFFSET ??_C@_0BL@DECCHFKM@ItemDropRateForSilverMedal?$AA@
  012f1	68 00 00 00 00	 push	 OFFSET ??_C@_0P@EMJDPFDH@GameServerInfo?$AA@
  012f6	ff d6		 call	 esi
  012f8	a3 00 00 00 00	 mov	 DWORD PTR ?g_ItemDropRateForSilverMedal@@3HA, eax ; g_ItemDropRateForSilverMedal
  012fd	5e		 pop	 esi

; 2225 : 			break;
; 2226 : 	}
; 2227 : }

  012fe	8b 4d fc	 mov	 ecx, DWORD PTR __$ArrayPad$[ebp]
  01301	33 cd		 xor	 ecx, ebp
  01303	e8 00 00 00 00	 call	 @__security_check_cookie@4
  01308	8b e5		 mov	 esp, ebp
  0130a	5d		 pop	 ebp
  0130b	c3		 ret	 0
$LN7@ReadEventI:

; 2184 : 			break;
; 2185 : 
; 2186 : 		case 9: //XMax Event
; 2187 : 			gXMasEvent = GetPrivateProfileInt("GameServerInfo","XMasEvent", 0, gDirPath.GetNewPath("commonserver.cfg"));

  0130c	68 00 00 00 00	 push	 OFFSET ??_C@_0BB@IGLHFEOF@commonserver?4cfg?$AA@
  01311	b9 00 00 00 00	 mov	 ecx, OFFSET ?gDirPath@@3VCDirPath@@A ; gDirPath
  01316	e8 00 00 00 00	 call	 ?GetNewPath@CDirPath@@QAEPADPAD@Z ; CDirPath::GetNewPath
  0131b	8b 35 00 00 00
	00		 mov	 esi, DWORD PTR __imp__GetPrivateProfileIntA@16
  01321	50		 push	 eax
  01322	6a 00		 push	 0
  01324	68 00 00 00 00	 push	 OFFSET ??_C@_09HEEPAMKP@XMasEvent?$AA@
  01329	68 00 00 00 00	 push	 OFFSET ??_C@_0P@EMJDPFDH@GameServerInfo?$AA@
  0132e	ff d6		 call	 esi

; 2188 : 			g_XMasEvent_StarOfXMasDropRate = GetPrivateProfileInt("GameServerInfo","XMasEvent_StarOfXMasDropRate", 5000, gDirPath.GetNewPath("commonserver.cfg"));

  01330	68 00 00 00 00	 push	 OFFSET ??_C@_0BB@IGLHFEOF@commonserver?4cfg?$AA@
  01335	b9 00 00 00 00	 mov	 ecx, OFFSET ?gDirPath@@3VCDirPath@@A ; gDirPath
  0133a	a3 00 00 00 00	 mov	 DWORD PTR ?gXMasEvent@@3HA, eax ; gXMasEvent
  0133f	e8 00 00 00 00	 call	 ?GetNewPath@CDirPath@@QAEPADPAD@Z ; CDirPath::GetNewPath
  01344	50		 push	 eax
  01345	68 88 13 00 00	 push	 5000			; 00001388H
  0134a	68 00 00 00 00	 push	 OFFSET ??_C@_0BN@EDHJHEEJ@XMasEvent_StarOfXMasDropRate?$AA@
  0134f	68 00 00 00 00	 push	 OFFSET ??_C@_0P@EMJDPFDH@GameServerInfo?$AA@
  01354	ff d6		 call	 esi

; 2189 : 			g_XMasEvent_ItemDropRateForStarOfXMas = GetPrivateProfileInt("GameServerInfo","XMasEvent_ItemDropRateForStarOfXMas", 2, gDirPath.GetNewPath("commonserver.cfg"));

  01356	68 00 00 00 00	 push	 OFFSET ??_C@_0BB@IGLHFEOF@commonserver?4cfg?$AA@
  0135b	b9 00 00 00 00	 mov	 ecx, OFFSET ?gDirPath@@3VCDirPath@@A ; gDirPath
  01360	a3 00 00 00 00	 mov	 DWORD PTR ?g_XMasEvent_StarOfXMasDropRate@@3HA, eax ; g_XMasEvent_StarOfXMasDropRate
  01365	e8 00 00 00 00	 call	 ?GetNewPath@CDirPath@@QAEPADPAD@Z ; CDirPath::GetNewPath
  0136a	50		 push	 eax
  0136b	6a 02		 push	 2
  0136d	68 00 00 00 00	 push	 OFFSET ??_C@_0CE@BHNJHAEB@XMasEvent_ItemDropRateForStarOfX@
  01372	68 00 00 00 00	 push	 OFFSET ??_C@_0P@EMJDPFDH@GameServerInfo?$AA@
  01377	ff d6		 call	 esi
  01379	a3 00 00 00 00	 mov	 DWORD PTR ?g_XMasEvent_ItemDropRateForStarOfXMas@@3HA, eax ; g_XMasEvent_ItemDropRateForStarOfXMas
  0137e	5e		 pop	 esi

; 2225 : 			break;
; 2226 : 	}
; 2227 : }

  0137f	8b 4d fc	 mov	 ecx, DWORD PTR __$ArrayPad$[ebp]
  01382	33 cd		 xor	 ecx, ebp
  01384	e8 00 00 00 00	 call	 @__security_check_cookie@4
  01389	8b e5		 mov	 esp, ebp
  0138b	5d		 pop	 ebp
  0138c	c3		 ret	 0
$LN6@ReadEventI:

; 2190 : 			break;
; 2191 : 
; 2192 : 		case 10: //Heart Of Love Event
; 2193 : 			gHeartOfLoveEvent = GetPrivateProfileInt("GameServerInfo","HeartOfLoveEvent", 0, gDirPath.GetNewPath("commonserver.cfg"));

  0138d	68 00 00 00 00	 push	 OFFSET ??_C@_0BB@IGLHFEOF@commonserver?4cfg?$AA@
  01392	b9 00 00 00 00	 mov	 ecx, OFFSET ?gDirPath@@3VCDirPath@@A ; gDirPath
  01397	e8 00 00 00 00	 call	 ?GetNewPath@CDirPath@@QAEPADPAD@Z ; CDirPath::GetNewPath
  0139c	8b 35 00 00 00
	00		 mov	 esi, DWORD PTR __imp__GetPrivateProfileIntA@16
  013a2	50		 push	 eax
  013a3	6a 00		 push	 0
  013a5	68 00 00 00 00	 push	 OFFSET ??_C@_0BB@CGEJHOOF@HeartOfLoveEvent?$AA@
  013aa	68 00 00 00 00	 push	 OFFSET ??_C@_0P@EMJDPFDH@GameServerInfo?$AA@
  013af	ff d6		 call	 esi

; 2194 : 			gHeartOfLoveDropRate = GetPrivateProfileInt("GameServerInfo","HeartOfLoveDropRate", 5000, gDirPath.GetNewPath("commonserver.cfg"));

  013b1	68 00 00 00 00	 push	 OFFSET ??_C@_0BB@IGLHFEOF@commonserver?4cfg?$AA@
  013b6	b9 00 00 00 00	 mov	 ecx, OFFSET ?gDirPath@@3VCDirPath@@A ; gDirPath
  013bb	a3 00 00 00 00	 mov	 DWORD PTR ?gHeartOfLoveEvent@@3HA, eax ; gHeartOfLoveEvent
  013c0	e8 00 00 00 00	 call	 ?GetNewPath@CDirPath@@QAEPADPAD@Z ; CDirPath::GetNewPath
  013c5	50		 push	 eax
  013c6	68 88 13 00 00	 push	 5000			; 00001388H
  013cb	68 00 00 00 00	 push	 OFFSET ??_C@_0BE@JJGBIMJB@HeartOfLoveDropRate?$AA@
  013d0	68 00 00 00 00	 push	 OFFSET ??_C@_0P@EMJDPFDH@GameServerInfo?$AA@
  013d5	ff d6		 call	 esi

; 2195 : 			g_ItemDropRateForgHeartOfLove = GetPrivateProfileInt("GameServerInfo","ItemDropRateForHeartOfLove", 2, gDirPath.GetNewPath("commonserver.cfg"));

  013d7	68 00 00 00 00	 push	 OFFSET ??_C@_0BB@IGLHFEOF@commonserver?4cfg?$AA@
  013dc	b9 00 00 00 00	 mov	 ecx, OFFSET ?gDirPath@@3VCDirPath@@A ; gDirPath
  013e1	a3 00 00 00 00	 mov	 DWORD PTR ?gHeartOfLoveDropRate@@3HA, eax ; gHeartOfLoveDropRate
  013e6	e8 00 00 00 00	 call	 ?GetNewPath@CDirPath@@QAEPADPAD@Z ; CDirPath::GetNewPath
  013eb	50		 push	 eax
  013ec	6a 02		 push	 2
  013ee	68 00 00 00 00	 push	 OFFSET ??_C@_0BL@CMBFLADP@ItemDropRateForHeartOfLove?$AA@
  013f3	68 00 00 00 00	 push	 OFFSET ??_C@_0P@EMJDPFDH@GameServerInfo?$AA@
  013f8	ff d6		 call	 esi
  013fa	a3 00 00 00 00	 mov	 DWORD PTR ?g_ItemDropRateForgHeartOfLove@@3HA, eax ; g_ItemDropRateForgHeartOfLove
  013ff	5e		 pop	 esi

; 2225 : 			break;
; 2226 : 	}
; 2227 : }

  01400	8b 4d fc	 mov	 ecx, DWORD PTR __$ArrayPad$[ebp]
  01403	33 cd		 xor	 ecx, ebp
  01405	e8 00 00 00 00	 call	 @__security_check_cookie@4
  0140a	8b e5		 mov	 esp, ebp
  0140c	5d		 pop	 ebp
  0140d	c3		 ret	 0
$LN5@ReadEventI:

; 2196 : 			break;
; 2197 : 
; 2198 : 		case 11: //Happy New Year Event
; 2199 : 			GetPrivateProfileString("GameServerInfo", "HappyNewYearTalkNpc", "0", szTemp, 5, gDirPath.GetNewPath("commonserver.cfg"));

  0140e	68 00 00 00 00	 push	 OFFSET ??_C@_0BB@IGLHFEOF@commonserver?4cfg?$AA@
  01413	b9 00 00 00 00	 mov	 ecx, OFFSET ?gDirPath@@3VCDirPath@@A ; gDirPath
  01418	e8 00 00 00 00	 call	 ?GetNewPath@CDirPath@@QAEPADPAD@Z ; CDirPath::GetNewPath
  0141d	50		 push	 eax
  0141e	6a 05		 push	 5
  01420	8d 8d fc fe ff
	ff		 lea	 ecx, DWORD PTR _szTemp$[ebp]
  01426	51		 push	 ecx
  01427	68 00 00 00 00	 push	 OFFSET ??_C@_01GBGANLPD@0?$AA@
  0142c	68 00 00 00 00	 push	 OFFSET ??_C@_0BE@MPGFIFAO@HappyNewYearTalkNpc?$AA@
  01431	68 00 00 00 00	 push	 OFFSET ??_C@_0P@EMJDPFDH@GameServerInfo?$AA@
  01436	ff 15 00 00 00
	00		 call	 DWORD PTR __imp__GetPrivateProfileStringA@24

; 2200 : 			gHappyNewYearNpcEvent = atoi(szTemp);

  0143c	8d 95 fc fe ff
	ff		 lea	 edx, DWORD PTR _szTemp$[ebp]
  01442	52		 push	 edx
  01443	e8 00 00 00 00	 call	 _atoi
  01448	83 c4 04	 add	 esp, 4
  0144b	a3 00 00 00 00	 mov	 DWORD PTR ?gHappyNewYearNpcEvent@@3HA, eax ; gHappyNewYearNpcEvent

; 2201 : 
; 2202 : 			if(gHappyNewYearNpcEvent != 0)

  01450	85 c0		 test	 eax, eax
  01452	0f 84 c3 00 00
	00		 je	 $LN23@ReadEventI

; 2203 : 			{
; 2204 : 				// (Option) Happy-new-year NPC speaks
; 2205 : 				LogAdd(LOG_BLACK, "[Option] Happy-new-year NPC speaks");

  01458	68 00 00 00 00	 push	 OFFSET ??_C@_0CD@MHKMKJEJ@?$FLOption?$FN?5Happy?9new?9year?5NPC?5spea@
  0145d	6a 00		 push	 0
  0145f	e8 00 00 00 00	 call	 ?LogAdd@@YAXW4eLogColor@@PADZZ ; LogAdd
  01464	83 c4 08	 add	 esp, 8
  01467	5e		 pop	 esi

; 2225 : 			break;
; 2226 : 	}
; 2227 : }

  01468	8b 4d fc	 mov	 ecx, DWORD PTR __$ArrayPad$[ebp]
  0146b	33 cd		 xor	 ecx, ebp
  0146d	e8 00 00 00 00	 call	 @__security_check_cookie@4
  01472	8b e5		 mov	 esp, ebp
  01474	5d		 pop	 ebp
  01475	c3		 ret	 0
$LN3@ReadEventI:

; 2206 : 			}
; 2207 : 
; 2208 : 			break;
; 2209 : 
; 2210 : 		case 12: //Merry  XMax Event NPC talk
; 2211 : 			GetPrivateProfileString("GameServerInfo", "MerryXMasTalkNpc", "0", szTemp, 5, gDirPath.GetNewPath("commonserver.cfg"));

  01476	68 00 00 00 00	 push	 OFFSET ??_C@_0BB@IGLHFEOF@commonserver?4cfg?$AA@
  0147b	b9 00 00 00 00	 mov	 ecx, OFFSET ?gDirPath@@3VCDirPath@@A ; gDirPath
  01480	e8 00 00 00 00	 call	 ?GetNewPath@CDirPath@@QAEPADPAD@Z ; CDirPath::GetNewPath
  01485	50		 push	 eax
  01486	6a 05		 push	 5
  01488	8d 85 fc fe ff
	ff		 lea	 eax, DWORD PTR _szTemp$[ebp]
  0148e	50		 push	 eax
  0148f	68 00 00 00 00	 push	 OFFSET ??_C@_01GBGANLPD@0?$AA@
  01494	68 00 00 00 00	 push	 OFFSET ??_C@_0BB@HOHJFGOC@MerryXMasTalkNpc?$AA@
  01499	68 00 00 00 00	 push	 OFFSET ??_C@_0P@EMJDPFDH@GameServerInfo?$AA@
  0149e	ff 15 00 00 00
	00		 call	 DWORD PTR __imp__GetPrivateProfileStringA@24

; 2212 : 			gMerryXMasNpcEvent = atoi(szTemp);

  014a4	8d 8d fc fe ff
	ff		 lea	 ecx, DWORD PTR _szTemp$[ebp]
  014aa	51		 push	 ecx
  014ab	e8 00 00 00 00	 call	 _atoi
  014b0	83 c4 04	 add	 esp, 4
  014b3	a3 00 00 00 00	 mov	 DWORD PTR ?gMerryXMasNpcEvent@@3HA, eax ; gMerryXMasNpcEvent

; 2213 : 
; 2214 : 			if(gMerryXMasNpcEvent != 0)

  014b8	85 c0		 test	 eax, eax
  014ba	74 5f		 je	 SHORT $LN23@ReadEventI

; 2215 : 			{
; 2216 : 				// (Option) Christmas NPC speaks
; 2217 : 				LogAdd(LOG_BLACK, "[Option] Christmas NPC speaks");

  014bc	68 00 00 00 00	 push	 OFFSET ??_C@_0BO@NIDNGNHC@?$FLOption?$FN?5Christmas?5NPC?5speaks?$AA@
  014c1	6a 00		 push	 0
  014c3	e8 00 00 00 00	 call	 ?LogAdd@@YAXW4eLogColor@@PADZZ ; LogAdd
  014c8	83 c4 08	 add	 esp, 8
  014cb	5e		 pop	 esi

; 2225 : 			break;
; 2226 : 	}
; 2227 : }

  014cc	8b 4d fc	 mov	 ecx, DWORD PTR __$ArrayPad$[ebp]
  014cf	33 cd		 xor	 ecx, ebp
  014d1	e8 00 00 00 00	 call	 @__security_check_cookie@4
  014d6	8b e5		 mov	 esp, ebp
  014d8	5d		 pop	 ebp
  014d9	c3		 ret	 0
$LN1@ReadEventI:

; 2218 : 			}
; 2219 : 
; 2220 : 			break;
; 2221 : 
; 2222 : 		case 13: //Chaos Castle
; 2223 : 			g_ChaosCastle.Load(gDirPath.GetNewPath("ChaosCastle.dat"));

  014da	68 00 00 00 00	 push	 OFFSET ??_C@_0BA@LOKHGJIA@ChaosCastle?4dat?$AA@
  014df	b9 00 00 00 00	 mov	 ecx, OFFSET ?gDirPath@@3VCDirPath@@A ; gDirPath
  014e4	e8 00 00 00 00	 call	 ?GetNewPath@CDirPath@@QAEPADPAD@Z ; CDirPath::GetNewPath
  014e9	50		 push	 eax
  014ea	b9 00 00 00 00	 mov	 ecx, OFFSET ?g_ChaosCastle@@3VCChaosCastle@@A ; g_ChaosCastle
  014ef	e8 00 00 00 00	 call	 ?Load@CChaosCastle@@QAEXPAD@Z ; CChaosCastle::Load

; 2224 : 			g_bChaosCastle = GetPrivateProfileInt("GameServerInfo","ChaosCastleEvent", 0, gDirPath.GetNewPath("commonserver.cfg"));

  014f4	68 00 00 00 00	 push	 OFFSET ??_C@_0BB@IGLHFEOF@commonserver?4cfg?$AA@
  014f9	b9 00 00 00 00	 mov	 ecx, OFFSET ?gDirPath@@3VCDirPath@@A ; gDirPath
  014fe	e8 00 00 00 00	 call	 ?GetNewPath@CDirPath@@QAEPADPAD@Z ; CDirPath::GetNewPath
  01503	50		 push	 eax
  01504	6a 00		 push	 0
  01506	68 00 00 00 00	 push	 OFFSET ??_C@_0BB@EAJFBCDB@ChaosCastleEvent?$AA@
  0150b	68 00 00 00 00	 push	 OFFSET ??_C@_0P@EMJDPFDH@GameServerInfo?$AA@
  01510	ff 15 00 00 00
	00		 call	 DWORD PTR __imp__GetPrivateProfileIntA@16
  01516	a3 00 00 00 00	 mov	 DWORD PTR ?g_bChaosCastle@@3HA, eax ; g_bChaosCastle
$LN23@ReadEventI:
  0151b	5e		 pop	 esi
$LN19@ReadEventI:

; 2225 : 			break;
; 2226 : 	}
; 2227 : }

  0151c	8b 4d fc	 mov	 ecx, DWORD PTR __$ArrayPad$[ebp]
  0151f	33 cd		 xor	 ecx, ebp
  01521	e8 00 00 00 00	 call	 @__security_check_cookie@4
  01526	8b e5		 mov	 esp, ebp
  01528	5d		 pop	 ebp
  01529	c3		 ret	 0
  0152a	8b ff		 npad	 2
$LN24@ReadEventI:
  0152c	00 00 00 00	 DD	 $LN18@ReadEventI
  01530	00 00 00 00	 DD	 $LN15@ReadEventI
  01534	00 00 00 00	 DD	 $LN14@ReadEventI
  01538	00 00 00 00	 DD	 $LN13@ReadEventI
  0153c	00 00 00 00	 DD	 $LN12@ReadEventI
  01540	00 00 00 00	 DD	 $LN11@ReadEventI
  01544	00 00 00 00	 DD	 $LN10@ReadEventI
  01548	00 00 00 00	 DD	 $LN9@ReadEventI
  0154c	00 00 00 00	 DD	 $LN8@ReadEventI
  01550	00 00 00 00	 DD	 $LN7@ReadEventI
  01554	00 00 00 00	 DD	 $LN6@ReadEventI
  01558	00 00 00 00	 DD	 $LN5@ReadEventI
  0155c	00 00 00 00	 DD	 $LN3@ReadEventI
  01560	00 00 00 00	 DD	 $LN1@ReadEventI
?ReadEventInfo@@YAXW4MU_EVENT_TYPE@@@Z ENDP		; ReadEventInfo
_TEXT	ENDS
PUBLIC	??_C@_0BA@OAOAELOO@UseNPGGChecksum?$AA@		; `string'
PUBLIC	??_C@_0BK@JCJPKDIP@IsKickDetecHackCountLimit?$AA@ ; `string'
PUBLIC	??_C@_0BG@GBBHJJPD@DetectedHackKickCount?$AA@	; `string'
PUBLIC	??_C@_0BH@CLHIGLBH@MinimumAttackSpeedTime?$AA@	; `string'
PUBLIC	??_C@_0P@FNJLIJMF@HackCheckCount?$AA@		; `string'
PUBLIC	??_C@_0BJ@KEAABHOA@IsIgnorePacketHackDetect?$AA@ ; `string'
PUBLIC	??_C@_0BF@EDGAONAD@AttackSpeedTimeLimit?$AA@	; `string'
PUBLIC	??_C@_0BB@IPFJJFBE@PersonalShopOpen?$AA@	; `string'
PUBLIC	??_C@_0L@LNKCFJOF@PKItemDrop?$AA@		; `string'
PUBLIC	??_C@_08CIGOAAJ@ChaosBox?$AA@			; `string'
PUBLIC	??_C@_05IOPOMLGK@Trade?$AA@			; `string'
PUBLIC	??_C@_0BN@IDOOLGAL@CastleOwnerGuildDestroyLimit?$AA@ ; `string'
PUBLIC	??_C@_0CN@GPGOKOFH@Characters?5above?5level?5?$CFd?5can?5cr@ ; `string'
PUBLIC	??_C@_0BB@DOGMENHB@GuildCreateLevel?$AA@	; `string'
PUBLIC	??_C@_03GNABGMEE@100?$AA@			; `string'
PUBLIC	??_C@_0BH@CIMACPG@Guild?5delete?5option?5?$CFd?$AA@ ; `string'
PUBLIC	??_C@_0N@OEKMPEAB@GuildDestroy?$AA@		; `string'
PUBLIC	??_C@_0BJ@ONINNOL@Guild?5creation?5option?5?$CFd?$AA@ ; `string'
PUBLIC	??_C@_0M@CGJDJOAO@GuildCreate?$AA@		; `string'
PUBLIC	??_C@_0BA@DIAOPFNP@CreateCharacter?$AA@		; `string'
PUBLIC	__$ArrayPad$
PUBLIC	?ReadGameEtcInfo@@YAXW4MU_ETC_TYPE@@@Z		; ReadGameEtcInfo
;	COMDAT ??_C@_0BA@OAOAELOO@UseNPGGChecksum?$AA@
CONST	SEGMENT
??_C@_0BA@OAOAELOO@UseNPGGChecksum?$AA@ DB 'UseNPGGChecksum', 00H ; `string'
CONST	ENDS
;	COMDAT ??_C@_0BK@JCJPKDIP@IsKickDetecHackCountLimit?$AA@
CONST	SEGMENT
??_C@_0BK@JCJPKDIP@IsKickDetecHackCountLimit?$AA@ DB 'IsKickDetecHackCoun'
	DB	'tLimit', 00H				; `string'
CONST	ENDS
;	COMDAT ??_C@_0BG@GBBHJJPD@DetectedHackKickCount?$AA@
CONST	SEGMENT
??_C@_0BG@GBBHJJPD@DetectedHackKickCount?$AA@ DB 'DetectedHackKickCount', 00H ; `string'
CONST	ENDS
;	COMDAT ??_C@_0BH@CLHIGLBH@MinimumAttackSpeedTime?$AA@
CONST	SEGMENT
??_C@_0BH@CLHIGLBH@MinimumAttackSpeedTime?$AA@ DB 'MinimumAttackSpeedTime'
	DB	00H						; `string'
CONST	ENDS
;	COMDAT ??_C@_0P@FNJLIJMF@HackCheckCount?$AA@
CONST	SEGMENT
??_C@_0P@FNJLIJMF@HackCheckCount?$AA@ DB 'HackCheckCount', 00H ; `string'
CONST	ENDS
;	COMDAT ??_C@_0BJ@KEAABHOA@IsIgnorePacketHackDetect?$AA@
CONST	SEGMENT
??_C@_0BJ@KEAABHOA@IsIgnorePacketHackDetect?$AA@ DB 'IsIgnorePacketHackDe'
	DB	'tect', 00H					; `string'
CONST	ENDS
;	COMDAT ??_C@_0BF@EDGAONAD@AttackSpeedTimeLimit?$AA@
CONST	SEGMENT
??_C@_0BF@EDGAONAD@AttackSpeedTimeLimit?$AA@ DB 'AttackSpeedTimeLimit', 00H ; `string'
CONST	ENDS
;	COMDAT ??_C@_0BB@IPFJJFBE@PersonalShopOpen?$AA@
CONST	SEGMENT
??_C@_0BB@IPFJJFBE@PersonalShopOpen?$AA@ DB 'PersonalShopOpen', 00H ; `string'
CONST	ENDS
;	COMDAT ??_C@_0L@LNKCFJOF@PKItemDrop?$AA@
CONST	SEGMENT
??_C@_0L@LNKCFJOF@PKItemDrop?$AA@ DB 'PKItemDrop', 00H	; `string'
CONST	ENDS
;	COMDAT ??_C@_08CIGOAAJ@ChaosBox?$AA@
CONST	SEGMENT
??_C@_08CIGOAAJ@ChaosBox?$AA@ DB 'ChaosBox', 00H	; `string'
CONST	ENDS
;	COMDAT ??_C@_05IOPOMLGK@Trade?$AA@
CONST	SEGMENT
??_C@_05IOPOMLGK@Trade?$AA@ DB 'Trade', 00H		; `string'
CONST	ENDS
;	COMDAT ??_C@_0BN@IDOOLGAL@CastleOwnerGuildDestroyLimit?$AA@
CONST	SEGMENT
??_C@_0BN@IDOOLGAL@CastleOwnerGuildDestroyLimit?$AA@ DB 'CastleOwnerGuild'
	DB	'DestroyLimit', 00H				; `string'
CONST	ENDS
;	COMDAT ??_C@_0CN@GPGOKOFH@Characters?5above?5level?5?$CFd?5can?5cr@
CONST	SEGMENT
??_C@_0CN@GPGOKOFH@Characters?5above?5level?5?$CFd?5can?5cr@ DB 'Characte'
	DB	'rs above level %d can create a guild', 00H	; `string'
CONST	ENDS
;	COMDAT ??_C@_0BB@DOGMENHB@GuildCreateLevel?$AA@
CONST	SEGMENT
??_C@_0BB@DOGMENHB@GuildCreateLevel?$AA@ DB 'GuildCreateLevel', 00H ; `string'
CONST	ENDS
;	COMDAT ??_C@_03GNABGMEE@100?$AA@
CONST	SEGMENT
??_C@_03GNABGMEE@100?$AA@ DB '100', 00H			; `string'
CONST	ENDS
;	COMDAT ??_C@_0BH@CIMACPG@Guild?5delete?5option?5?$CFd?$AA@
CONST	SEGMENT
??_C@_0BH@CIMACPG@Guild?5delete?5option?5?$CFd?$AA@ DB 'Guild delete opti'
	DB	'on %d', 00H					; `string'
CONST	ENDS
;	COMDAT ??_C@_0N@OEKMPEAB@GuildDestroy?$AA@
CONST	SEGMENT
??_C@_0N@OEKMPEAB@GuildDestroy?$AA@ DB 'GuildDestroy', 00H ; `string'
CONST	ENDS
;	COMDAT ??_C@_0BJ@ONINNOL@Guild?5creation?5option?5?$CFd?$AA@
CONST	SEGMENT
??_C@_0BJ@ONINNOL@Guild?5creation?5option?5?$CFd?$AA@ DB 'Guild creation '
	DB	'option %d', 00H				; `string'
CONST	ENDS
;	COMDAT ??_C@_0M@CGJDJOAO@GuildCreate?$AA@
CONST	SEGMENT
??_C@_0M@CGJDJOAO@GuildCreate?$AA@ DB 'GuildCreate', 00H ; `string'
CONST	ENDS
;	COMDAT ??_C@_0BA@DIAOPFNP@CreateCharacter?$AA@
CONST	SEGMENT
??_C@_0BA@DIAOPFNP@CreateCharacter?$AA@ DB 'CreateCharacter', 00H ; `string'
; Function compile flags: /Ogtp
CONST	ENDS
;	COMDAT ?ReadGameEtcInfo@@YAXW4MU_ETC_TYPE@@@Z
_TEXT	SEGMENT
_szTemp$ = -260						; size = 256
__$ArrayPad$ = -4					; size = 4
_eGameEtcType$ = 8					; size = 4
?ReadGameEtcInfo@@YAXW4MU_ETC_TYPE@@@Z PROC		; ReadGameEtcInfo, COMDAT

; 2230 : {

  00000	55		 push	 ebp
  00001	8b ec		 mov	 ebp, esp
  00003	81 ec 04 01 00
	00		 sub	 esp, 260		; 00000104H
  00009	a1 00 00 00 00	 mov	 eax, DWORD PTR ___security_cookie
  0000e	33 c5		 xor	 eax, ebp
  00010	89 45 fc	 mov	 DWORD PTR __$ArrayPad$[ebp], eax

; 2231 : 	char szTemp[256];
; 2232 : 
; 2233 : 	switch ( eGameEtcType )

  00013	8b 45 08	 mov	 eax, DWORD PTR _eGameEtcType$[ebp]
  00016	83 f8 09	 cmp	 eax, 9
  00019	0f 87 92 06 00
	00		 ja	 $LN11@ReadGameEt
  0001f	56		 push	 esi
  00020	ff 24 85 00 00
	00 00		 jmp	 DWORD PTR $LN16@ReadGameEt[eax*4]
$LN10@ReadGameEt:
  00027	57		 push	 edi

; 2234 : 	{
; 2235 : 		case 0:
; 2236 : 			GetPrivateProfileString("GameServerInfo", "CreateCharacter", "1", szTemp, 5, gDirPath.GetNewPath("commonserver.cfg"));

  00028	68 00 00 00 00	 push	 OFFSET ??_C@_0BB@IGLHFEOF@commonserver?4cfg?$AA@
  0002d	b9 00 00 00 00	 mov	 ecx, OFFSET ?gDirPath@@3VCDirPath@@A ; gDirPath
  00032	e8 00 00 00 00	 call	 ?GetNewPath@CDirPath@@QAEPADPAD@Z ; CDirPath::GetNewPath
  00037	8b 3d 00 00 00
	00		 mov	 edi, DWORD PTR __imp__GetPrivateProfileStringA@24
  0003d	50		 push	 eax
  0003e	6a 05		 push	 5
  00040	8d 85 fc fe ff
	ff		 lea	 eax, DWORD PTR _szTemp$[ebp]
  00046	50		 push	 eax
  00047	68 00 00 00 00	 push	 OFFSET ??_C@_01HIHLOKLC@1?$AA@
  0004c	68 00 00 00 00	 push	 OFFSET ??_C@_0BA@DIAOPFNP@CreateCharacter?$AA@
  00051	68 00 00 00 00	 push	 OFFSET ??_C@_0P@EMJDPFDH@GameServerInfo?$AA@
  00056	ff d7		 call	 edi

; 2237 : 			gCreateCharacter = atoi(szTemp);

  00058	8d 8d fc fe ff
	ff		 lea	 ecx, DWORD PTR _szTemp$[ebp]
  0005e	51		 push	 ecx
  0005f	e8 00 00 00 00	 call	 _atoi
  00064	83 c4 04	 add	 esp, 4

; 2238 : 
; 2239 : 			GetPrivateProfileString("GameServerInfo", "GuildCreate", "1", szTemp, 5, gDirPath.GetNewPath("commonserver.cfg"));

  00067	68 00 00 00 00	 push	 OFFSET ??_C@_0BB@IGLHFEOF@commonserver?4cfg?$AA@
  0006c	b9 00 00 00 00	 mov	 ecx, OFFSET ?gDirPath@@3VCDirPath@@A ; gDirPath
  00071	a3 00 00 00 00	 mov	 DWORD PTR ?gCreateCharacter@@3HA, eax ; gCreateCharacter
  00076	e8 00 00 00 00	 call	 ?GetNewPath@CDirPath@@QAEPADPAD@Z ; CDirPath::GetNewPath
  0007b	50		 push	 eax
  0007c	6a 05		 push	 5
  0007e	8d 95 fc fe ff
	ff		 lea	 edx, DWORD PTR _szTemp$[ebp]
  00084	52		 push	 edx
  00085	68 00 00 00 00	 push	 OFFSET ??_C@_01HIHLOKLC@1?$AA@
  0008a	68 00 00 00 00	 push	 OFFSET ??_C@_0M@CGJDJOAO@GuildCreate?$AA@
  0008f	68 00 00 00 00	 push	 OFFSET ??_C@_0P@EMJDPFDH@GameServerInfo?$AA@
  00094	ff d7		 call	 edi

; 2240 : 			gGuildCreate = atoi(szTemp);

  00096	8d 85 fc fe ff
	ff		 lea	 eax, DWORD PTR _szTemp$[ebp]
  0009c	50		 push	 eax
  0009d	e8 00 00 00 00	 call	 _atoi

; 2241 : 			LogAdd(LOG_BLACK, "Guild creation option %d", gGuildCreate);

  000a2	50		 push	 eax
  000a3	68 00 00 00 00	 push	 OFFSET ??_C@_0BJ@ONINNOL@Guild?5creation?5option?5?$CFd?$AA@
  000a8	6a 00		 push	 0
  000aa	a3 00 00 00 00	 mov	 DWORD PTR ?gGuildCreate@@3HA, eax ; gGuildCreate
  000af	e8 00 00 00 00	 call	 ?LogAdd@@YAXW4eLogColor@@PADZZ ; LogAdd
  000b4	83 c4 10	 add	 esp, 16			; 00000010H

; 2242 : 			GetPrivateProfileString("GameServerInfo", "GuildDestroy", "1", szTemp, 5, gDirPath.GetNewPath("commonserver.cfg"));

  000b7	68 00 00 00 00	 push	 OFFSET ??_C@_0BB@IGLHFEOF@commonserver?4cfg?$AA@
  000bc	b9 00 00 00 00	 mov	 ecx, OFFSET ?gDirPath@@3VCDirPath@@A ; gDirPath
  000c1	e8 00 00 00 00	 call	 ?GetNewPath@CDirPath@@QAEPADPAD@Z ; CDirPath::GetNewPath
  000c6	50		 push	 eax
  000c7	6a 05		 push	 5
  000c9	8d 8d fc fe ff
	ff		 lea	 ecx, DWORD PTR _szTemp$[ebp]
  000cf	51		 push	 ecx
  000d0	68 00 00 00 00	 push	 OFFSET ??_C@_01HIHLOKLC@1?$AA@
  000d5	68 00 00 00 00	 push	 OFFSET ??_C@_0N@OEKMPEAB@GuildDestroy?$AA@
  000da	68 00 00 00 00	 push	 OFFSET ??_C@_0P@EMJDPFDH@GameServerInfo?$AA@
  000df	ff d7		 call	 edi

; 2243 : 			gGuildDestroy = atoi(szTemp);

  000e1	8d 95 fc fe ff
	ff		 lea	 edx, DWORD PTR _szTemp$[ebp]
  000e7	52		 push	 edx
  000e8	e8 00 00 00 00	 call	 _atoi

; 2244 : 			LogAdd(LOG_BLACK, "Guild delete option %d", gGuildDestroy);

  000ed	50		 push	 eax
  000ee	68 00 00 00 00	 push	 OFFSET ??_C@_0BH@CIMACPG@Guild?5delete?5option?5?$CFd?$AA@
  000f3	6a 00		 push	 0
  000f5	a3 00 00 00 00	 mov	 DWORD PTR ?gGuildDestroy@@3HA, eax ; gGuildDestroy
  000fa	e8 00 00 00 00	 call	 ?LogAdd@@YAXW4eLogColor@@PADZZ ; LogAdd
  000ff	83 c4 10	 add	 esp, 16			; 00000010H

; 2245 : 			GetPrivateProfileString("GameServerInfo", "GuildCreateLevel", "100", szTemp, 5, gDirPath.GetNewPath("commonserver.cfg"));

  00102	68 00 00 00 00	 push	 OFFSET ??_C@_0BB@IGLHFEOF@commonserver?4cfg?$AA@
  00107	b9 00 00 00 00	 mov	 ecx, OFFSET ?gDirPath@@3VCDirPath@@A ; gDirPath
  0010c	e8 00 00 00 00	 call	 ?GetNewPath@CDirPath@@QAEPADPAD@Z ; CDirPath::GetNewPath
  00111	50		 push	 eax
  00112	6a 05		 push	 5
  00114	8d 85 fc fe ff
	ff		 lea	 eax, DWORD PTR _szTemp$[ebp]
  0011a	50		 push	 eax
  0011b	68 00 00 00 00	 push	 OFFSET ??_C@_03GNABGMEE@100?$AA@
  00120	68 00 00 00 00	 push	 OFFSET ??_C@_0BB@DOGMENHB@GuildCreateLevel?$AA@
  00125	68 00 00 00 00	 push	 OFFSET ??_C@_0P@EMJDPFDH@GameServerInfo?$AA@
  0012a	ff d7		 call	 edi

; 2246 : 			gGuildCreateLevel = atoi(szTemp);

  0012c	8d 8d fc fe ff
	ff		 lea	 ecx, DWORD PTR _szTemp$[ebp]
  00132	51		 push	 ecx
  00133	e8 00 00 00 00	 call	 _atoi

; 2247 : 			LogAdd(LOG_BLACK, "Characters above level %d can create a guild", gGuildCreateLevel);

  00138	50		 push	 eax
  00139	68 00 00 00 00	 push	 OFFSET ??_C@_0CN@GPGOKOFH@Characters?5above?5level?5?$CFd?5can?5cr@
  0013e	6a 00		 push	 0
  00140	a3 00 00 00 00	 mov	 DWORD PTR ?gGuildCreateLevel@@3HA, eax ; gGuildCreateLevel
  00145	e8 00 00 00 00	 call	 ?LogAdd@@YAXW4eLogColor@@PADZZ ; LogAdd
  0014a	83 c4 10	 add	 esp, 16			; 00000010H

; 2248 : 
; 2249 : 			g_bCastleGuildDestoyLimit = GetPrivateProfileInt("GameServerInfo", "CastleOwnerGuildDestroyLimit", 1, gDirPath.GetNewPath("commonserver.cfg"));

  0014d	68 00 00 00 00	 push	 OFFSET ??_C@_0BB@IGLHFEOF@commonserver?4cfg?$AA@
  00152	b9 00 00 00 00	 mov	 ecx, OFFSET ?gDirPath@@3VCDirPath@@A ; gDirPath
  00157	e8 00 00 00 00	 call	 ?GetNewPath@CDirPath@@QAEPADPAD@Z ; CDirPath::GetNewPath
  0015c	8b 35 00 00 00
	00		 mov	 esi, DWORD PTR __imp__GetPrivateProfileIntA@16
  00162	50		 push	 eax
  00163	6a 01		 push	 1
  00165	68 00 00 00 00	 push	 OFFSET ??_C@_0BN@IDOOLGAL@CastleOwnerGuildDestroyLimit?$AA@
  0016a	68 00 00 00 00	 push	 OFFSET ??_C@_0P@EMJDPFDH@GameServerInfo?$AA@
  0016f	ff d6		 call	 esi

; 2250 : 
; 2251 : 			GetPrivateProfileString("GameServerInfo", "Trade", "1", szTemp, 5, gDirPath.GetNewPath("commonserver.cfg"));

  00171	68 00 00 00 00	 push	 OFFSET ??_C@_0BB@IGLHFEOF@commonserver?4cfg?$AA@
  00176	b9 00 00 00 00	 mov	 ecx, OFFSET ?gDirPath@@3VCDirPath@@A ; gDirPath
  0017b	a3 00 00 00 00	 mov	 DWORD PTR ?g_bCastleGuildDestoyLimit@@3HA, eax ; g_bCastleGuildDestoyLimit
  00180	e8 00 00 00 00	 call	 ?GetNewPath@CDirPath@@QAEPADPAD@Z ; CDirPath::GetNewPath
  00185	50		 push	 eax
  00186	6a 05		 push	 5
  00188	8d 95 fc fe ff
	ff		 lea	 edx, DWORD PTR _szTemp$[ebp]
  0018e	52		 push	 edx
  0018f	68 00 00 00 00	 push	 OFFSET ??_C@_01HIHLOKLC@1?$AA@
  00194	68 00 00 00 00	 push	 OFFSET ??_C@_05IOPOMLGK@Trade?$AA@
  00199	68 00 00 00 00	 push	 OFFSET ??_C@_0P@EMJDPFDH@GameServerInfo?$AA@
  0019e	ff d7		 call	 edi

; 2252 : 			bCanTrade = atoi(szTemp);

  001a0	8d 85 fc fe ff
	ff		 lea	 eax, DWORD PTR _szTemp$[ebp]
  001a6	50		 push	 eax
  001a7	e8 00 00 00 00	 call	 _atoi
  001ac	83 c4 04	 add	 esp, 4

; 2253 : 
; 2254 : 			bCanChaosBox = GetPrivateProfileInt("GameServerInfo", "ChaosBox", 0, gDirPath.GetNewPath("commonserver.cfg"));

  001af	68 00 00 00 00	 push	 OFFSET ??_C@_0BB@IGLHFEOF@commonserver?4cfg?$AA@
  001b4	b9 00 00 00 00	 mov	 ecx, OFFSET ?gDirPath@@3VCDirPath@@A ; gDirPath
  001b9	a3 00 00 00 00	 mov	 DWORD PTR ?bCanTrade@@3HA, eax ; bCanTrade
  001be	e8 00 00 00 00	 call	 ?GetNewPath@CDirPath@@QAEPADPAD@Z ; CDirPath::GetNewPath
  001c3	50		 push	 eax
  001c4	6a 00		 push	 0
  001c6	68 00 00 00 00	 push	 OFFSET ??_C@_08CIGOAAJ@ChaosBox?$AA@
  001cb	68 00 00 00 00	 push	 OFFSET ??_C@_0P@EMJDPFDH@GameServerInfo?$AA@
  001d0	ff d6		 call	 esi

; 2255 : 
; 2256 : 			GetPrivateProfileString("GameServerInfo", "PKItemDrop", "1", szTemp, 5, gDirPath.GetNewPath("commonserver.cfg"));

  001d2	68 00 00 00 00	 push	 OFFSET ??_C@_0BB@IGLHFEOF@commonserver?4cfg?$AA@
  001d7	b9 00 00 00 00	 mov	 ecx, OFFSET ?gDirPath@@3VCDirPath@@A ; gDirPath
  001dc	a3 00 00 00 00	 mov	 DWORD PTR ?bCanChaosBox@@3HA, eax ; bCanChaosBox
  001e1	e8 00 00 00 00	 call	 ?GetNewPath@CDirPath@@QAEPADPAD@Z ; CDirPath::GetNewPath
  001e6	50		 push	 eax
  001e7	6a 05		 push	 5
  001e9	8d 8d fc fe ff
	ff		 lea	 ecx, DWORD PTR _szTemp$[ebp]
  001ef	51		 push	 ecx
  001f0	68 00 00 00 00	 push	 OFFSET ??_C@_01HIHLOKLC@1?$AA@
  001f5	68 00 00 00 00	 push	 OFFSET ??_C@_0L@LNKCFJOF@PKItemDrop?$AA@
  001fa	68 00 00 00 00	 push	 OFFSET ??_C@_0P@EMJDPFDH@GameServerInfo?$AA@
  001ff	ff d7		 call	 edi

; 2257 : 			gPkItemDrop = atoi(szTemp);

  00201	8d 95 fc fe ff
	ff		 lea	 edx, DWORD PTR _szTemp$[ebp]
  00207	52		 push	 edx
  00208	e8 00 00 00 00	 call	 _atoi
  0020d	83 c4 04	 add	 esp, 4

; 2258 : 
; 2259 : 			gDoPShopOpen = GetPrivateProfileInt("GameServerInfo", "PersonalShopOpen", 0, gDirPath.GetNewPath("commonserver.cfg"));

  00210	68 00 00 00 00	 push	 OFFSET ??_C@_0BB@IGLHFEOF@commonserver?4cfg?$AA@
  00215	b9 00 00 00 00	 mov	 ecx, OFFSET ?gDirPath@@3VCDirPath@@A ; gDirPath
  0021a	a3 00 00 00 00	 mov	 DWORD PTR ?gPkItemDrop@@3HA, eax ; gPkItemDrop
  0021f	e8 00 00 00 00	 call	 ?GetNewPath@CDirPath@@QAEPADPAD@Z ; CDirPath::GetNewPath
  00224	50		 push	 eax
  00225	6a 00		 push	 0
  00227	68 00 00 00 00	 push	 OFFSET ??_C@_0BB@IPFJJFBE@PersonalShopOpen?$AA@
  0022c	68 00 00 00 00	 push	 OFFSET ??_C@_0P@EMJDPFDH@GameServerInfo?$AA@
  00231	ff d6		 call	 esi

; 2260 : 
; 2261 : 			gAttackSpeedTimeLimit = GetPrivateProfileInt("GameServerInfo", "AttackSpeedTimeLimit", 800, gDirPath.GetNewPath("commonserver.cfg"));

  00233	68 00 00 00 00	 push	 OFFSET ??_C@_0BB@IGLHFEOF@commonserver?4cfg?$AA@
  00238	b9 00 00 00 00	 mov	 ecx, OFFSET ?gDirPath@@3VCDirPath@@A ; gDirPath
  0023d	a3 00 00 00 00	 mov	 DWORD PTR ?gDoPShopOpen@@3HA, eax ; gDoPShopOpen
  00242	e8 00 00 00 00	 call	 ?GetNewPath@CDirPath@@QAEPADPAD@Z ; CDirPath::GetNewPath
  00247	50		 push	 eax
  00248	68 20 03 00 00	 push	 800			; 00000320H
  0024d	68 00 00 00 00	 push	 OFFSET ??_C@_0BF@EDGAONAD@AttackSpeedTimeLimit?$AA@
  00252	68 00 00 00 00	 push	 OFFSET ??_C@_0P@EMJDPFDH@GameServerInfo?$AA@
  00257	ff d6		 call	 esi

; 2262 : 			bIsIgnorePacketSpeedHackDetect = GetPrivateProfileInt("GameServerInfo", "IsIgnorePacketHackDetect", 0, gDirPath.GetNewPath("commonserver.cfg"));

  00259	68 00 00 00 00	 push	 OFFSET ??_C@_0BB@IGLHFEOF@commonserver?4cfg?$AA@
  0025e	b9 00 00 00 00	 mov	 ecx, OFFSET ?gDirPath@@3VCDirPath@@A ; gDirPath
  00263	a3 00 00 00 00	 mov	 DWORD PTR ?gAttackSpeedTimeLimit@@3KA, eax ; gAttackSpeedTimeLimit
  00268	e8 00 00 00 00	 call	 ?GetNewPath@CDirPath@@QAEPADPAD@Z ; CDirPath::GetNewPath
  0026d	50		 push	 eax
  0026e	6a 00		 push	 0
  00270	68 00 00 00 00	 push	 OFFSET ??_C@_0BJ@KEAABHOA@IsIgnorePacketHackDetect?$AA@
  00275	68 00 00 00 00	 push	 OFFSET ??_C@_0P@EMJDPFDH@GameServerInfo?$AA@
  0027a	ff d6		 call	 esi

; 2263 : 			gHackCheckCount = GetPrivateProfileInt("GameServerInfo", "HackCheckCount", 5, gDirPath.GetNewPath("commonserver.cfg"));

  0027c	68 00 00 00 00	 push	 OFFSET ??_C@_0BB@IGLHFEOF@commonserver?4cfg?$AA@
  00281	b9 00 00 00 00	 mov	 ecx, OFFSET ?gDirPath@@3VCDirPath@@A ; gDirPath
  00286	a3 00 00 00 00	 mov	 DWORD PTR ?bIsIgnorePacketSpeedHackDetect@@3HA, eax ; bIsIgnorePacketSpeedHackDetect
  0028b	e8 00 00 00 00	 call	 ?GetNewPath@CDirPath@@QAEPADPAD@Z ; CDirPath::GetNewPath
  00290	50		 push	 eax
  00291	6a 05		 push	 5
  00293	68 00 00 00 00	 push	 OFFSET ??_C@_0P@FNJLIJMF@HackCheckCount?$AA@
  00298	68 00 00 00 00	 push	 OFFSET ??_C@_0P@EMJDPFDH@GameServerInfo?$AA@
  0029d	ff d6		 call	 esi

; 2264 : 			gMinimumAttackSpeedTime = GetPrivateProfileInt("GameServerInfo", "MinimumAttackSpeedTime", 200 , gDirPath.GetNewPath("commonserver.cfg"));

  0029f	68 00 00 00 00	 push	 OFFSET ??_C@_0BB@IGLHFEOF@commonserver?4cfg?$AA@
  002a4	b9 00 00 00 00	 mov	 ecx, OFFSET ?gDirPath@@3VCDirPath@@A ; gDirPath
  002a9	a3 00 00 00 00	 mov	 DWORD PTR ?gHackCheckCount@@3KA, eax ; gHackCheckCount
  002ae	e8 00 00 00 00	 call	 ?GetNewPath@CDirPath@@QAEPADPAD@Z ; CDirPath::GetNewPath
  002b3	50		 push	 eax
  002b4	68 c8 00 00 00	 push	 200			; 000000c8H
  002b9	68 00 00 00 00	 push	 OFFSET ??_C@_0BH@CLHIGLBH@MinimumAttackSpeedTime?$AA@
  002be	68 00 00 00 00	 push	 OFFSET ??_C@_0P@EMJDPFDH@GameServerInfo?$AA@
  002c3	ff d6		 call	 esi

; 2265 : 			gDetectedHackKickCount = GetPrivateProfileInt("GameServerInfo", "DetectedHackKickCount", 10, gDirPath.GetNewPath("commonserver.cfg"));

  002c5	68 00 00 00 00	 push	 OFFSET ??_C@_0BB@IGLHFEOF@commonserver?4cfg?$AA@
  002ca	b9 00 00 00 00	 mov	 ecx, OFFSET ?gDirPath@@3VCDirPath@@A ; gDirPath
  002cf	a3 00 00 00 00	 mov	 DWORD PTR ?gMinimumAttackSpeedTime@@3HA, eax ; gMinimumAttackSpeedTime
  002d4	e8 00 00 00 00	 call	 ?GetNewPath@CDirPath@@QAEPADPAD@Z ; CDirPath::GetNewPath
  002d9	50		 push	 eax
  002da	6a 0a		 push	 10			; 0000000aH
  002dc	68 00 00 00 00	 push	 OFFSET ??_C@_0BG@GBBHJJPD@DetectedHackKickCount?$AA@
  002e1	68 00 00 00 00	 push	 OFFSET ??_C@_0P@EMJDPFDH@GameServerInfo?$AA@
  002e6	ff d6		 call	 esi

; 2266 : 			gIsKickDetecHackCountLimit = GetPrivateProfileInt("GameServerInfo", "IsKickDetecHackCountLimit", 0, gDirPath.GetNewPath("commonserver.cfg"));

  002e8	68 00 00 00 00	 push	 OFFSET ??_C@_0BB@IGLHFEOF@commonserver?4cfg?$AA@
  002ed	b9 00 00 00 00	 mov	 ecx, OFFSET ?gDirPath@@3VCDirPath@@A ; gDirPath
  002f2	a3 00 00 00 00	 mov	 DWORD PTR ?gDetectedHackKickCount@@3HA, eax ; gDetectedHackKickCount
  002f7	e8 00 00 00 00	 call	 ?GetNewPath@CDirPath@@QAEPADPAD@Z ; CDirPath::GetNewPath
  002fc	50		 push	 eax
  002fd	6a 00		 push	 0
  002ff	68 00 00 00 00	 push	 OFFSET ??_C@_0BK@JCJPKDIP@IsKickDetecHackCountLimit?$AA@
  00304	68 00 00 00 00	 push	 OFFSET ??_C@_0P@EMJDPFDH@GameServerInfo?$AA@
  00309	ff d6		 call	 esi
  0030b	5f		 pop	 edi
  0030c	a3 00 00 00 00	 mov	 DWORD PTR ?gIsKickDetecHackCountLimit@@3HA, eax ; gIsKickDetecHackCountLimit
  00311	5e		 pop	 esi

; 2325 : 
; 2326 : 			break;
; 2327 : 
; 2328 : 	}
; 2329 : 
; 2330 : 
; 2331 : }

  00312	8b 4d fc	 mov	 ecx, DWORD PTR __$ArrayPad$[ebp]
  00315	33 cd		 xor	 ecx, ebp
  00317	e8 00 00 00 00	 call	 @__security_check_cookie@4
  0031c	8b e5		 mov	 esp, ebp
  0031e	5d		 pop	 ebp
  0031f	c3		 ret	 0
$LN9@ReadGameEt:

; 2267 : 			break;
; 2268 : 
; 2269 : 		case 1:
; 2270 : 			GetPrivateProfileString("GameServerInfo", "CreateCharacter", "1", szTemp, 5, gDirPath.GetNewPath("commonserver.cfg"));

  00320	68 00 00 00 00	 push	 OFFSET ??_C@_0BB@IGLHFEOF@commonserver?4cfg?$AA@
  00325	b9 00 00 00 00	 mov	 ecx, OFFSET ?gDirPath@@3VCDirPath@@A ; gDirPath
  0032a	e8 00 00 00 00	 call	 ?GetNewPath@CDirPath@@QAEPADPAD@Z ; CDirPath::GetNewPath
  0032f	50		 push	 eax
  00330	6a 05		 push	 5
  00332	8d 85 fc fe ff
	ff		 lea	 eax, DWORD PTR _szTemp$[ebp]
  00338	50		 push	 eax
  00339	68 00 00 00 00	 push	 OFFSET ??_C@_01HIHLOKLC@1?$AA@
  0033e	68 00 00 00 00	 push	 OFFSET ??_C@_0BA@DIAOPFNP@CreateCharacter?$AA@
  00343	68 00 00 00 00	 push	 OFFSET ??_C@_0P@EMJDPFDH@GameServerInfo?$AA@
  00348	ff 15 00 00 00
	00		 call	 DWORD PTR __imp__GetPrivateProfileStringA@24

; 2271 : 			gCreateCharacter = atoi(szTemp);

  0034e	8d 8d fc fe ff
	ff		 lea	 ecx, DWORD PTR _szTemp$[ebp]
  00354	51		 push	 ecx
  00355	e8 00 00 00 00	 call	 _atoi
  0035a	83 c4 04	 add	 esp, 4
  0035d	a3 00 00 00 00	 mov	 DWORD PTR ?gCreateCharacter@@3HA, eax ; gCreateCharacter
  00362	5e		 pop	 esi

; 2325 : 
; 2326 : 			break;
; 2327 : 
; 2328 : 	}
; 2329 : 
; 2330 : 
; 2331 : }

  00363	8b 4d fc	 mov	 ecx, DWORD PTR __$ArrayPad$[ebp]
  00366	33 cd		 xor	 ecx, ebp
  00368	e8 00 00 00 00	 call	 @__security_check_cookie@4
  0036d	8b e5		 mov	 esp, ebp
  0036f	5d		 pop	 ebp
  00370	c3		 ret	 0
$LN8@ReadGameEt:

; 2272 : 
; 2273 : 			break;
; 2274 : 
; 2275 : 		case 2:
; 2276 : 			GetPrivateProfileString("GameServerInfo", "GuildCreate", "1", szTemp, 5, gDirPath.GetNewPath("commonserver.cfg"));

  00371	68 00 00 00 00	 push	 OFFSET ??_C@_0BB@IGLHFEOF@commonserver?4cfg?$AA@
  00376	b9 00 00 00 00	 mov	 ecx, OFFSET ?gDirPath@@3VCDirPath@@A ; gDirPath
  0037b	e8 00 00 00 00	 call	 ?GetNewPath@CDirPath@@QAEPADPAD@Z ; CDirPath::GetNewPath
  00380	8b 35 00 00 00
	00		 mov	 esi, DWORD PTR __imp__GetPrivateProfileStringA@24
  00386	50		 push	 eax
  00387	6a 05		 push	 5
  00389	8d 95 fc fe ff
	ff		 lea	 edx, DWORD PTR _szTemp$[ebp]
  0038f	52		 push	 edx
  00390	68 00 00 00 00	 push	 OFFSET ??_C@_01HIHLOKLC@1?$AA@
  00395	68 00 00 00 00	 push	 OFFSET ??_C@_0M@CGJDJOAO@GuildCreate?$AA@
  0039a	68 00 00 00 00	 push	 OFFSET ??_C@_0P@EMJDPFDH@GameServerInfo?$AA@
  0039f	ff d6		 call	 esi

; 2277 : 			gGuildCreate = atoi(szTemp);

  003a1	8d 85 fc fe ff
	ff		 lea	 eax, DWORD PTR _szTemp$[ebp]
  003a7	50		 push	 eax
  003a8	e8 00 00 00 00	 call	 _atoi

; 2278 : 			LogAdd(LOG_BLACK, "Guild creation option %d", gGuildCreate);

  003ad	50		 push	 eax
  003ae	68 00 00 00 00	 push	 OFFSET ??_C@_0BJ@ONINNOL@Guild?5creation?5option?5?$CFd?$AA@
  003b3	6a 00		 push	 0
  003b5	a3 00 00 00 00	 mov	 DWORD PTR ?gGuildCreate@@3HA, eax ; gGuildCreate
  003ba	e8 00 00 00 00	 call	 ?LogAdd@@YAXW4eLogColor@@PADZZ ; LogAdd
  003bf	83 c4 10	 add	 esp, 16			; 00000010H

; 2279 : 			GetPrivateProfileString("GameServerInfo", "GuildDestroy", "1", szTemp, 5, gDirPath.GetNewPath("commonserver.cfg"));

  003c2	68 00 00 00 00	 push	 OFFSET ??_C@_0BB@IGLHFEOF@commonserver?4cfg?$AA@
  003c7	b9 00 00 00 00	 mov	 ecx, OFFSET ?gDirPath@@3VCDirPath@@A ; gDirPath
  003cc	e8 00 00 00 00	 call	 ?GetNewPath@CDirPath@@QAEPADPAD@Z ; CDirPath::GetNewPath
  003d1	50		 push	 eax
  003d2	6a 05		 push	 5
  003d4	8d 8d fc fe ff
	ff		 lea	 ecx, DWORD PTR _szTemp$[ebp]
  003da	51		 push	 ecx
  003db	68 00 00 00 00	 push	 OFFSET ??_C@_01HIHLOKLC@1?$AA@
  003e0	68 00 00 00 00	 push	 OFFSET ??_C@_0N@OEKMPEAB@GuildDestroy?$AA@
  003e5	68 00 00 00 00	 push	 OFFSET ??_C@_0P@EMJDPFDH@GameServerInfo?$AA@
  003ea	ff d6		 call	 esi

; 2280 : 			gGuildDestroy = atoi(szTemp);

  003ec	8d 95 fc fe ff
	ff		 lea	 edx, DWORD PTR _szTemp$[ebp]
  003f2	52		 push	 edx
  003f3	e8 00 00 00 00	 call	 _atoi

; 2281 : 			LogAdd(LOG_BLACK, "Guild delete option %d", gGuildDestroy);

  003f8	50		 push	 eax
  003f9	68 00 00 00 00	 push	 OFFSET ??_C@_0BH@CIMACPG@Guild?5delete?5option?5?$CFd?$AA@
  003fe	6a 00		 push	 0
  00400	a3 00 00 00 00	 mov	 DWORD PTR ?gGuildDestroy@@3HA, eax ; gGuildDestroy
  00405	e8 00 00 00 00	 call	 ?LogAdd@@YAXW4eLogColor@@PADZZ ; LogAdd
  0040a	83 c4 10	 add	 esp, 16			; 00000010H

; 2282 : 			GetPrivateProfileString("GameServerInfo", "GuildCreateLevel", "100", szTemp, 5, gDirPath.GetNewPath("commonserver.cfg"));

  0040d	68 00 00 00 00	 push	 OFFSET ??_C@_0BB@IGLHFEOF@commonserver?4cfg?$AA@
  00412	b9 00 00 00 00	 mov	 ecx, OFFSET ?gDirPath@@3VCDirPath@@A ; gDirPath
  00417	e8 00 00 00 00	 call	 ?GetNewPath@CDirPath@@QAEPADPAD@Z ; CDirPath::GetNewPath
  0041c	50		 push	 eax
  0041d	6a 05		 push	 5
  0041f	8d 85 fc fe ff
	ff		 lea	 eax, DWORD PTR _szTemp$[ebp]
  00425	50		 push	 eax
  00426	68 00 00 00 00	 push	 OFFSET ??_C@_03GNABGMEE@100?$AA@
  0042b	68 00 00 00 00	 push	 OFFSET ??_C@_0BB@DOGMENHB@GuildCreateLevel?$AA@
  00430	68 00 00 00 00	 push	 OFFSET ??_C@_0P@EMJDPFDH@GameServerInfo?$AA@
  00435	ff d6		 call	 esi

; 2283 : 			gGuildCreateLevel = atoi(szTemp);

  00437	8d 8d fc fe ff
	ff		 lea	 ecx, DWORD PTR _szTemp$[ebp]
  0043d	51		 push	 ecx
  0043e	e8 00 00 00 00	 call	 _atoi

; 2284 : 			LogAdd(LOG_BLACK, "Characters above level %d can create a guild", gGuildCreateLevel);

  00443	50		 push	 eax
  00444	68 00 00 00 00	 push	 OFFSET ??_C@_0CN@GPGOKOFH@Characters?5above?5level?5?$CFd?5can?5cr@
  00449	6a 00		 push	 0
  0044b	a3 00 00 00 00	 mov	 DWORD PTR ?gGuildCreateLevel@@3HA, eax ; gGuildCreateLevel
  00450	e8 00 00 00 00	 call	 ?LogAdd@@YAXW4eLogColor@@PADZZ ; LogAdd
  00455	83 c4 10	 add	 esp, 16			; 00000010H

; 2285 : 			g_bCastleGuildDestoyLimit = GetPrivateProfileInt("GameServerInfo", "CastleOwnerGuildDestroyLimit", 1, gDirPath.GetNewPath("commonserver.cfg"));

  00458	68 00 00 00 00	 push	 OFFSET ??_C@_0BB@IGLHFEOF@commonserver?4cfg?$AA@
  0045d	b9 00 00 00 00	 mov	 ecx, OFFSET ?gDirPath@@3VCDirPath@@A ; gDirPath
  00462	e8 00 00 00 00	 call	 ?GetNewPath@CDirPath@@QAEPADPAD@Z ; CDirPath::GetNewPath
  00467	50		 push	 eax
  00468	6a 01		 push	 1
  0046a	68 00 00 00 00	 push	 OFFSET ??_C@_0BN@IDOOLGAL@CastleOwnerGuildDestroyLimit?$AA@
  0046f	68 00 00 00 00	 push	 OFFSET ??_C@_0P@EMJDPFDH@GameServerInfo?$AA@
  00474	ff 15 00 00 00
	00		 call	 DWORD PTR __imp__GetPrivateProfileIntA@16
  0047a	a3 00 00 00 00	 mov	 DWORD PTR ?g_bCastleGuildDestoyLimit@@3HA, eax ; g_bCastleGuildDestoyLimit
  0047f	5e		 pop	 esi

; 2325 : 
; 2326 : 			break;
; 2327 : 
; 2328 : 	}
; 2329 : 
; 2330 : 
; 2331 : }

  00480	8b 4d fc	 mov	 ecx, DWORD PTR __$ArrayPad$[ebp]
  00483	33 cd		 xor	 ecx, ebp
  00485	e8 00 00 00 00	 call	 @__security_check_cookie@4
  0048a	8b e5		 mov	 esp, ebp
  0048c	5d		 pop	 ebp
  0048d	c3		 ret	 0
$LN7@ReadGameEt:

; 2286 : 			break;
; 2287 : 
; 2288 : 		case 3:
; 2289 : 			GetPrivateProfileString("GameServerInfo", "Trade", "1", szTemp, 5, gDirPath.GetNewPath("commonserver.cfg"));

  0048e	68 00 00 00 00	 push	 OFFSET ??_C@_0BB@IGLHFEOF@commonserver?4cfg?$AA@
  00493	b9 00 00 00 00	 mov	 ecx, OFFSET ?gDirPath@@3VCDirPath@@A ; gDirPath
  00498	e8 00 00 00 00	 call	 ?GetNewPath@CDirPath@@QAEPADPAD@Z ; CDirPath::GetNewPath
  0049d	50		 push	 eax
  0049e	6a 05		 push	 5
  004a0	8d 95 fc fe ff
	ff		 lea	 edx, DWORD PTR _szTemp$[ebp]
  004a6	52		 push	 edx
  004a7	68 00 00 00 00	 push	 OFFSET ??_C@_01HIHLOKLC@1?$AA@
  004ac	68 00 00 00 00	 push	 OFFSET ??_C@_05IOPOMLGK@Trade?$AA@
  004b1	68 00 00 00 00	 push	 OFFSET ??_C@_0P@EMJDPFDH@GameServerInfo?$AA@
  004b6	ff 15 00 00 00
	00		 call	 DWORD PTR __imp__GetPrivateProfileStringA@24

; 2290 : 			bCanTrade = atoi(szTemp);

  004bc	8d 85 fc fe ff
	ff		 lea	 eax, DWORD PTR _szTemp$[ebp]
  004c2	50		 push	 eax
  004c3	e8 00 00 00 00	 call	 _atoi
  004c8	83 c4 04	 add	 esp, 4
  004cb	a3 00 00 00 00	 mov	 DWORD PTR ?bCanTrade@@3HA, eax ; bCanTrade
  004d0	5e		 pop	 esi

; 2325 : 
; 2326 : 			break;
; 2327 : 
; 2328 : 	}
; 2329 : 
; 2330 : 
; 2331 : }

  004d1	8b 4d fc	 mov	 ecx, DWORD PTR __$ArrayPad$[ebp]
  004d4	33 cd		 xor	 ecx, ebp
  004d6	e8 00 00 00 00	 call	 @__security_check_cookie@4
  004db	8b e5		 mov	 esp, ebp
  004dd	5d		 pop	 ebp
  004de	c3		 ret	 0
$LN6@ReadGameEt:

; 2291 : 
; 2292 : 			break;
; 2293 : 		case 4:
; 2294 : 			bCanChaosBox = GetPrivateProfileInt("GameServerInfo", "ChaosBox", 0, gDirPath.GetNewPath("commonserver.cfg"));

  004df	68 00 00 00 00	 push	 OFFSET ??_C@_0BB@IGLHFEOF@commonserver?4cfg?$AA@
  004e4	b9 00 00 00 00	 mov	 ecx, OFFSET ?gDirPath@@3VCDirPath@@A ; gDirPath
  004e9	e8 00 00 00 00	 call	 ?GetNewPath@CDirPath@@QAEPADPAD@Z ; CDirPath::GetNewPath
  004ee	50		 push	 eax
  004ef	6a 00		 push	 0
  004f1	68 00 00 00 00	 push	 OFFSET ??_C@_08CIGOAAJ@ChaosBox?$AA@
  004f6	68 00 00 00 00	 push	 OFFSET ??_C@_0P@EMJDPFDH@GameServerInfo?$AA@
  004fb	ff 15 00 00 00
	00		 call	 DWORD PTR __imp__GetPrivateProfileIntA@16
  00501	a3 00 00 00 00	 mov	 DWORD PTR ?bCanChaosBox@@3HA, eax ; bCanChaosBox
  00506	5e		 pop	 esi

; 2325 : 
; 2326 : 			break;
; 2327 : 
; 2328 : 	}
; 2329 : 
; 2330 : 
; 2331 : }

  00507	8b 4d fc	 mov	 ecx, DWORD PTR __$ArrayPad$[ebp]
  0050a	33 cd		 xor	 ecx, ebp
  0050c	e8 00 00 00 00	 call	 @__security_check_cookie@4
  00511	8b e5		 mov	 esp, ebp
  00513	5d		 pop	 ebp
  00514	c3		 ret	 0
$LN5@ReadGameEt:

; 2295 : 
; 2296 : 			break;
; 2297 : 
; 2298 : 		case 5:
; 2299 : 			gDoPShopOpen = GetPrivateProfileInt("GameServerInfo", "PersonalShopOpen", 0, gDirPath.GetNewPath("commonserver.cfg"));

  00515	68 00 00 00 00	 push	 OFFSET ??_C@_0BB@IGLHFEOF@commonserver?4cfg?$AA@
  0051a	b9 00 00 00 00	 mov	 ecx, OFFSET ?gDirPath@@3VCDirPath@@A ; gDirPath
  0051f	e8 00 00 00 00	 call	 ?GetNewPath@CDirPath@@QAEPADPAD@Z ; CDirPath::GetNewPath
  00524	50		 push	 eax
  00525	6a 00		 push	 0
  00527	68 00 00 00 00	 push	 OFFSET ??_C@_0BB@IPFJJFBE@PersonalShopOpen?$AA@
  0052c	68 00 00 00 00	 push	 OFFSET ??_C@_0P@EMJDPFDH@GameServerInfo?$AA@
  00531	ff 15 00 00 00
	00		 call	 DWORD PTR __imp__GetPrivateProfileIntA@16
  00537	a3 00 00 00 00	 mov	 DWORD PTR ?gDoPShopOpen@@3HA, eax ; gDoPShopOpen
  0053c	5e		 pop	 esi

; 2325 : 
; 2326 : 			break;
; 2327 : 
; 2328 : 	}
; 2329 : 
; 2330 : 
; 2331 : }

  0053d	8b 4d fc	 mov	 ecx, DWORD PTR __$ArrayPad$[ebp]
  00540	33 cd		 xor	 ecx, ebp
  00542	e8 00 00 00 00	 call	 @__security_check_cookie@4
  00547	8b e5		 mov	 esp, ebp
  00549	5d		 pop	 ebp
  0054a	c3		 ret	 0
$LN4@ReadGameEt:

; 2300 : 
; 2301 : 			break;
; 2302 : 
; 2303 : 		case 6:
; 2304 : 			GetPrivateProfileString("GameServerInfo", "PKItemDrop", "1", szTemp, 5, gDirPath.GetNewPath("commonserver.cfg"));

  0054b	68 00 00 00 00	 push	 OFFSET ??_C@_0BB@IGLHFEOF@commonserver?4cfg?$AA@
  00550	b9 00 00 00 00	 mov	 ecx, OFFSET ?gDirPath@@3VCDirPath@@A ; gDirPath
  00555	e8 00 00 00 00	 call	 ?GetNewPath@CDirPath@@QAEPADPAD@Z ; CDirPath::GetNewPath
  0055a	50		 push	 eax
  0055b	6a 05		 push	 5
  0055d	8d 8d fc fe ff
	ff		 lea	 ecx, DWORD PTR _szTemp$[ebp]
  00563	51		 push	 ecx
  00564	68 00 00 00 00	 push	 OFFSET ??_C@_01HIHLOKLC@1?$AA@
  00569	68 00 00 00 00	 push	 OFFSET ??_C@_0L@LNKCFJOF@PKItemDrop?$AA@
  0056e	68 00 00 00 00	 push	 OFFSET ??_C@_0P@EMJDPFDH@GameServerInfo?$AA@
  00573	ff 15 00 00 00
	00		 call	 DWORD PTR __imp__GetPrivateProfileStringA@24

; 2305 : 			gPkItemDrop = atoi(szTemp);

  00579	8d 95 fc fe ff
	ff		 lea	 edx, DWORD PTR _szTemp$[ebp]
  0057f	52		 push	 edx
  00580	e8 00 00 00 00	 call	 _atoi
  00585	83 c4 04	 add	 esp, 4
  00588	a3 00 00 00 00	 mov	 DWORD PTR ?gPkItemDrop@@3HA, eax ; gPkItemDrop
  0058d	5e		 pop	 esi

; 2325 : 
; 2326 : 			break;
; 2327 : 
; 2328 : 	}
; 2329 : 
; 2330 : 
; 2331 : }

  0058e	8b 4d fc	 mov	 ecx, DWORD PTR __$ArrayPad$[ebp]
  00591	33 cd		 xor	 ecx, ebp
  00593	e8 00 00 00 00	 call	 @__security_check_cookie@4
  00598	8b e5		 mov	 esp, ebp
  0059a	5d		 pop	 ebp
  0059b	c3		 ret	 0
$LN2@ReadGameEt:

; 2306 : 
; 2307 : 			break;
; 2308 : 
; 2309 : 		case 7:
; 2310 : 
; 2311 : 			break;
; 2312 : 
; 2313 : 		case 8:
; 2314 : 			gAttackSpeedTimeLimit = GetPrivateProfileInt("GameServerInfo", "AttackSpeedTimeLimit", 800, gDirPath.GetNewPath("commonserver.cfg"));

  0059c	68 00 00 00 00	 push	 OFFSET ??_C@_0BB@IGLHFEOF@commonserver?4cfg?$AA@
  005a1	b9 00 00 00 00	 mov	 ecx, OFFSET ?gDirPath@@3VCDirPath@@A ; gDirPath
  005a6	e8 00 00 00 00	 call	 ?GetNewPath@CDirPath@@QAEPADPAD@Z ; CDirPath::GetNewPath
  005ab	8b 35 00 00 00
	00		 mov	 esi, DWORD PTR __imp__GetPrivateProfileIntA@16
  005b1	50		 push	 eax
  005b2	68 20 03 00 00	 push	 800			; 00000320H
  005b7	68 00 00 00 00	 push	 OFFSET ??_C@_0BF@EDGAONAD@AttackSpeedTimeLimit?$AA@
  005bc	68 00 00 00 00	 push	 OFFSET ??_C@_0P@EMJDPFDH@GameServerInfo?$AA@
  005c1	ff d6		 call	 esi

; 2315 : 			bIsIgnorePacketSpeedHackDetect = GetPrivateProfileInt("GameServerInfo", "IsIgnorePacketHackDetect", 0, gDirPath.GetNewPath("commonserver.cfg"));

  005c3	68 00 00 00 00	 push	 OFFSET ??_C@_0BB@IGLHFEOF@commonserver?4cfg?$AA@
  005c8	b9 00 00 00 00	 mov	 ecx, OFFSET ?gDirPath@@3VCDirPath@@A ; gDirPath
  005cd	a3 00 00 00 00	 mov	 DWORD PTR ?gAttackSpeedTimeLimit@@3KA, eax ; gAttackSpeedTimeLimit
  005d2	e8 00 00 00 00	 call	 ?GetNewPath@CDirPath@@QAEPADPAD@Z ; CDirPath::GetNewPath
  005d7	50		 push	 eax
  005d8	6a 00		 push	 0
  005da	68 00 00 00 00	 push	 OFFSET ??_C@_0BJ@KEAABHOA@IsIgnorePacketHackDetect?$AA@
  005df	68 00 00 00 00	 push	 OFFSET ??_C@_0P@EMJDPFDH@GameServerInfo?$AA@
  005e4	ff d6		 call	 esi

; 2316 : 			gHackCheckCount = GetPrivateProfileInt("GameServerInfo", "HackCheckCount", 5, gDirPath.GetNewPath("commonserver.cfg"));

  005e6	68 00 00 00 00	 push	 OFFSET ??_C@_0BB@IGLHFEOF@commonserver?4cfg?$AA@
  005eb	b9 00 00 00 00	 mov	 ecx, OFFSET ?gDirPath@@3VCDirPath@@A ; gDirPath
  005f0	a3 00 00 00 00	 mov	 DWORD PTR ?bIsIgnorePacketSpeedHackDetect@@3HA, eax ; bIsIgnorePacketSpeedHackDetect
  005f5	e8 00 00 00 00	 call	 ?GetNewPath@CDirPath@@QAEPADPAD@Z ; CDirPath::GetNewPath
  005fa	50		 push	 eax
  005fb	6a 05		 push	 5
  005fd	68 00 00 00 00	 push	 OFFSET ??_C@_0P@FNJLIJMF@HackCheckCount?$AA@
  00602	68 00 00 00 00	 push	 OFFSET ??_C@_0P@EMJDPFDH@GameServerInfo?$AA@
  00607	ff d6		 call	 esi

; 2317 : 			gMinimumAttackSpeedTime = GetPrivateProfileInt("GameServerInfo", "MinimumAttackSpeedTime", 200 , gDirPath.GetNewPath("commonserver.cfg"));

  00609	68 00 00 00 00	 push	 OFFSET ??_C@_0BB@IGLHFEOF@commonserver?4cfg?$AA@
  0060e	b9 00 00 00 00	 mov	 ecx, OFFSET ?gDirPath@@3VCDirPath@@A ; gDirPath
  00613	a3 00 00 00 00	 mov	 DWORD PTR ?gHackCheckCount@@3KA, eax ; gHackCheckCount
  00618	e8 00 00 00 00	 call	 ?GetNewPath@CDirPath@@QAEPADPAD@Z ; CDirPath::GetNewPath
  0061d	50		 push	 eax
  0061e	68 c8 00 00 00	 push	 200			; 000000c8H
  00623	68 00 00 00 00	 push	 OFFSET ??_C@_0BH@CLHIGLBH@MinimumAttackSpeedTime?$AA@
  00628	68 00 00 00 00	 push	 OFFSET ??_C@_0P@EMJDPFDH@GameServerInfo?$AA@
  0062d	ff d6		 call	 esi

; 2318 : 			gDetectedHackKickCount = GetPrivateProfileInt("GameServerInfo", "DetectedHackKickCount", 10, gDirPath.GetNewPath("commonserver.cfg"));

  0062f	68 00 00 00 00	 push	 OFFSET ??_C@_0BB@IGLHFEOF@commonserver?4cfg?$AA@
  00634	b9 00 00 00 00	 mov	 ecx, OFFSET ?gDirPath@@3VCDirPath@@A ; gDirPath
  00639	a3 00 00 00 00	 mov	 DWORD PTR ?gMinimumAttackSpeedTime@@3HA, eax ; gMinimumAttackSpeedTime
  0063e	e8 00 00 00 00	 call	 ?GetNewPath@CDirPath@@QAEPADPAD@Z ; CDirPath::GetNewPath
  00643	50		 push	 eax
  00644	6a 0a		 push	 10			; 0000000aH
  00646	68 00 00 00 00	 push	 OFFSET ??_C@_0BG@GBBHJJPD@DetectedHackKickCount?$AA@
  0064b	68 00 00 00 00	 push	 OFFSET ??_C@_0P@EMJDPFDH@GameServerInfo?$AA@
  00650	ff d6		 call	 esi

; 2319 : 			gIsKickDetecHackCountLimit = GetPrivateProfileInt("GameServerInfo", "IsKickDetecHackCountLimit", 0, gDirPath.GetNewPath("commonserver.cfg"));

  00652	68 00 00 00 00	 push	 OFFSET ??_C@_0BB@IGLHFEOF@commonserver?4cfg?$AA@
  00657	b9 00 00 00 00	 mov	 ecx, OFFSET ?gDirPath@@3VCDirPath@@A ; gDirPath
  0065c	a3 00 00 00 00	 mov	 DWORD PTR ?gDetectedHackKickCount@@3HA, eax ; gDetectedHackKickCount
  00661	e8 00 00 00 00	 call	 ?GetNewPath@CDirPath@@QAEPADPAD@Z ; CDirPath::GetNewPath
  00666	50		 push	 eax
  00667	6a 00		 push	 0
  00669	68 00 00 00 00	 push	 OFFSET ??_C@_0BK@JCJPKDIP@IsKickDetecHackCountLimit?$AA@
  0066e	68 00 00 00 00	 push	 OFFSET ??_C@_0P@EMJDPFDH@GameServerInfo?$AA@
  00673	ff d6		 call	 esi
  00675	a3 00 00 00 00	 mov	 DWORD PTR ?gIsKickDetecHackCountLimit@@3HA, eax ; gIsKickDetecHackCountLimit
  0067a	5e		 pop	 esi

; 2325 : 
; 2326 : 			break;
; 2327 : 
; 2328 : 	}
; 2329 : 
; 2330 : 
; 2331 : }

  0067b	8b 4d fc	 mov	 ecx, DWORD PTR __$ArrayPad$[ebp]
  0067e	33 cd		 xor	 ecx, ebp
  00680	e8 00 00 00 00	 call	 @__security_check_cookie@4
  00685	8b e5		 mov	 esp, ebp
  00687	5d		 pop	 ebp
  00688	c3		 ret	 0
$LN1@ReadGameEt:

; 2320 : 
; 2321 : 			break;
; 2322 : 
; 2323 : 		case 9:
; 2324 : 			gUseNPGGChecksum = GetPrivateProfileInt("GameServerInfo", "UseNPGGChecksum", 0, gDirPath.GetNewPath("commonserver.cfg"));

  00689	68 00 00 00 00	 push	 OFFSET ??_C@_0BB@IGLHFEOF@commonserver?4cfg?$AA@
  0068e	b9 00 00 00 00	 mov	 ecx, OFFSET ?gDirPath@@3VCDirPath@@A ; gDirPath
  00693	e8 00 00 00 00	 call	 ?GetNewPath@CDirPath@@QAEPADPAD@Z ; CDirPath::GetNewPath
  00698	50		 push	 eax
  00699	6a 00		 push	 0
  0069b	68 00 00 00 00	 push	 OFFSET ??_C@_0BA@OAOAELOO@UseNPGGChecksum?$AA@
  006a0	68 00 00 00 00	 push	 OFFSET ??_C@_0P@EMJDPFDH@GameServerInfo?$AA@
  006a5	ff 15 00 00 00
	00		 call	 DWORD PTR __imp__GetPrivateProfileIntA@16
  006ab	a3 00 00 00 00	 mov	 DWORD PTR ?gUseNPGGChecksum@@3HA, eax ; gUseNPGGChecksum
$LN15@ReadGameEt:
  006b0	5e		 pop	 esi
$LN11@ReadGameEt:

; 2325 : 
; 2326 : 			break;
; 2327 : 
; 2328 : 	}
; 2329 : 
; 2330 : 
; 2331 : }

  006b1	8b 4d fc	 mov	 ecx, DWORD PTR __$ArrayPad$[ebp]
  006b4	33 cd		 xor	 ecx, ebp
  006b6	e8 00 00 00 00	 call	 @__security_check_cookie@4
  006bb	8b e5		 mov	 esp, ebp
  006bd	5d		 pop	 ebp
  006be	c3		 ret	 0
  006bf	90		 npad	 1
$LN16@ReadGameEt:
  006c0	00 00 00 00	 DD	 $LN10@ReadGameEt
  006c4	00 00 00 00	 DD	 $LN9@ReadGameEt
  006c8	00 00 00 00	 DD	 $LN8@ReadGameEt
  006cc	00 00 00 00	 DD	 $LN7@ReadGameEt
  006d0	00 00 00 00	 DD	 $LN6@ReadGameEt
  006d4	00 00 00 00	 DD	 $LN5@ReadGameEt
  006d8	00 00 00 00	 DD	 $LN4@ReadGameEt
  006dc	00 00 00 00	 DD	 $LN15@ReadGameEt
  006e0	00 00 00 00	 DD	 $LN2@ReadGameEt
  006e4	00 00 00 00	 DD	 $LN1@ReadGameEt
?ReadGameEtcInfo@@YAXW4MU_ETC_TYPE@@@Z ENDP		; ReadGameEtcInfo
_TEXT	ENDS
PUBLIC	?set@PBMSG_HEAD@@QAEXPAEEE@Z			; PBMSG_HEAD::set
; Function compile flags: /Ogtp
; File c:\users\faelhs\mu-1.1\emu - gameserver sapphire s0\include\prodef.h
;	COMDAT ?set@PBMSG_HEAD@@QAEXPAEEE@Z
_TEXT	SEGMENT
_lpBuf$ = 8						; size = 4
_head$ = 12						; size = 1
_size$ = 16						; size = 1
?set@PBMSG_HEAD@@QAEXPAEEE@Z PROC			; PBMSG_HEAD::set, COMDAT
; _this$ = ecx

; 92   : 	{

  00000	55		 push	 ebp
  00001	8b ec		 mov	 ebp, esp

; 93   : 		lpBuf[0] = 0xC1;

  00003	8b 45 08	 mov	 eax, DWORD PTR _lpBuf$[ebp]

; 94   : 		lpBuf[1] = size;

  00006	8a 4d 10	 mov	 cl, BYTE PTR _size$[ebp]

; 95   : 		lpBuf[2] = head;

  00009	8a 55 0c	 mov	 dl, BYTE PTR _head$[ebp]
  0000c	c6 00 c1	 mov	 BYTE PTR [eax], 193	; 000000c1H
  0000f	88 48 01	 mov	 BYTE PTR [eax+1], cl
  00012	88 50 02	 mov	 BYTE PTR [eax+2], dl

; 96   : 	};	// line : 22

  00015	5d		 pop	 ebp
  00016	c2 0c 00	 ret	 12			; 0000000cH
?set@PBMSG_HEAD@@QAEXPAEEE@Z ENDP			; PBMSG_HEAD::set
_TEXT	ENDS
PUBLIC	?gSetDate@@YAXXZ				; gSetDate
; Function compile flags: /Ogtp
; File c:\users\faelhs\mu-1.1\emu - gameserver sapphire s0\gameserver\gamemain.cpp
;	COMDAT ?gSetDate@@YAXXZ
_TEXT	SEGMENT
_ltime$ = -8						; size = 8
?gSetDate@@YAXXZ PROC					; gSetDate, COMDAT

; 351  : {

  00000	55		 push	 ebp
  00001	8b ec		 mov	 ebp, esp

; 352  : 	tm *today;
; 353  : 	time_t ltime;
; 354  : 
; 355  : 	time(&ltime);

  00003	8d 45 f8	 lea	 eax, DWORD PTR _ltime$[ebp]
  00006	83 ec 08	 sub	 esp, 8
  00009	50		 push	 eax
  0000a	e8 00 00 00 00	 call	 __time64

; 356  : 	today=localtime(&ltime);

  0000f	8d 4d f8	 lea	 ecx, DWORD PTR _ltime$[ebp]
  00012	51		 push	 ecx
  00013	e8 00 00 00 00	 call	 __localtime64
  00018	83 c4 08	 add	 esp, 8

; 357  : 	
; 358  : 	today->tm_year=today->tm_year+1900;

  0001b	81 40 14 6c 07
	00 00		 add	 DWORD PTR [eax+20], 1900 ; 0000076cH
  00022	8b 40 14	 mov	 eax, DWORD PTR [eax+20]

; 359  : 	gYear=today->tm_year;

  00025	a3 00 00 00 00	 mov	 DWORD PTR ?gYear@@3HA, eax ; gYear

; 360  : }

  0002a	8b e5		 mov	 esp, ebp
  0002c	5d		 pop	 ebp
  0002d	c3		 ret	 0
?gSetDate@@YAXXZ ENDP					; gSetDate
_TEXT	ENDS
PUBLIC	??_C@_0CO@DFBFHLJO@Error?9L1?5?3?5Friend?5Server?5Down?5?$CIS@ ; `string'
PUBLIC	__$ArrayPad$
PUBLIC	?ExDataClientMsgProc@@YAXIJ@Z			; ExDataClientMsgProc
EXTRN	?DataSend@@YAHHPAEK@Z:PROC			; DataSend
EXTRN	?gObjIsConnectedGP@@YAHH@Z:PROC			; gObjIsConnectedGP
EXTRN	?Close@MyWinsockBase@@QAEHXZ:PROC		; MyWinsockBase::Close
;	COMDAT ??_C@_0CO@DFBFHLJO@Error?9L1?5?3?5Friend?5Server?5Down?5?$CIS@
; File c:\users\faelhs\mu-1.1\emu - gameserver sapphire s0\include\prodef.h
CONST	SEGMENT
??_C@_0CO@DFBFHLJO@Error?9L1?5?3?5Friend?5Server?5Down?5?$CIS@ DB 'Error-'
	DB	'L1 : Friend Server Down (State Send Ok)', 00H ; `string'
; Function compile flags: /Ogtp
; File c:\users\faelhs\mu-1.1\emu - gameserver sapphire s0\gameserver\gamemain.cpp
CONST	ENDS
;	COMDAT ?ExDataClientMsgProc@@YAXIJ@Z
_TEXT	SEGMENT
_pMsg$162483 = -20					; size = 14
__$ArrayPad$ = -4					; size = 4
_wParam$ = 8						; size = 4
_lParam$ = 12						; size = 4
?ExDataClientMsgProc@@YAXIJ@Z PROC			; ExDataClientMsgProc, COMDAT

; 969  : {

  00000	55		 push	 ebp
  00001	8b ec		 mov	 ebp, esp
  00003	83 ec 14	 sub	 esp, 20			; 00000014H
  00006	a1 00 00 00 00	 mov	 eax, DWORD PTR ___security_cookie
  0000b	33 c5		 xor	 eax, ebp
  0000d	89 45 fc	 mov	 DWORD PTR __$ArrayPad$[ebp], eax

; 970  : 	switch ( lParam & 0xFFFF & 0xFFFF )

  00010	8b 45 0c	 mov	 eax, DWORD PTR _lParam$[ebp]
  00013	25 ff ff 00 00	 and	 eax, 65535		; 0000ffffH
  00018	48		 dec	 eax
  00019	0f 84 b2 00 00
	00		 je	 $LN7@ExDataClie
  0001f	48		 dec	 eax
  00020	0f 84 93 00 00
	00		 je	 $LN6@ExDataClie
  00026	83 e8 1e	 sub	 eax, 30			; 0000001eH
  00029	0f 85 ac 00 00
	00		 jne	 $LN8@ExDataClie

; 977  : 			break;
; 978  : 		case 32:
; 979  : 			LogAdd(LOG_RED,  "Gamer server closed because Data server is closed.");

  0002f	56		 push	 esi
  00030	57		 push	 edi
  00031	68 00 00 00 00	 push	 OFFSET ??_C@_0DD@PNBJKJH@Gamer?5server?5closed?5because?5Data@
  00036	6a 01		 push	 1
  00038	e8 00 00 00 00	 call	 ?LogAdd@@YAXW4eLogColor@@PADZZ ; LogAdd
  0003d	83 c4 08	 add	 esp, 8

; 980  : 			wsExDbCli.Close();

  00040	b9 04 00 00 00	 mov	 ecx, OFFSET ?wsExDbCli@@3VwsJoinServerCli@@A+4
  00045	e8 00 00 00 00	 call	 ?Close@MyWinsockBase@@QAEHXZ ; MyWinsockBase::Close

; 981  : 
; 982  : 			for ( int i =0;i<OBJMAX;i++)

  0004a	33 ff		 xor	 edi, edi
  0004c	be d0 01 00 00	 mov	 esi, OFFSET ?gObj@@3PAUOBJECTSTRUCT@@A+464
$LL4@ExDataClie:

; 983  : 			{
; 984  : 				if ( gObjIsConnectedGP(i) == TRUE )

  00051	57		 push	 edi
  00052	e8 00 00 00 00	 call	 ?gObjIsConnectedGP@@YAHH@Z ; gObjIsConnectedGP
  00057	83 c4 04	 add	 esp, 4
  0005a	83 f8 01	 cmp	 eax, 1
  0005d	75 20		 jne	 SHORT $LN3@ExDataClie

; 985  : 				{
; 986  : 					PMSG_FRIEND_STATE pMsg;
; 987  : 					pMsg.h.set((LPBYTE)&pMsg, 0xC4 , sizeof(pMsg) );
; 988  : 					pMsg.State = -4;
; 989  : 
; 990  : 					DataSend(i, (unsigned char*)&pMsg, sizeof(pMsg) );

  0005f	6a 0e		 push	 14			; 0000000eH
  00061	8d 45 ec	 lea	 eax, DWORD PTR _pMsg$162483[ebp]
  00064	50		 push	 eax
  00065	57		 push	 edi
  00066	66 c7 45 ec c1
	0e		 mov	 WORD PTR _pMsg$162483[ebp], 3777 ; 00000ec1H
  0006c	c6 45 ee c4	 mov	 BYTE PTR _pMsg$162483[ebp+2], 196 ; 000000c4H
  00070	c6 45 f9 fc	 mov	 BYTE PTR _pMsg$162483[ebp+13], 252 ; 000000fcH
  00074	e8 00 00 00 00	 call	 ?DataSend@@YAHHPAEK@Z	; DataSend
  00079	83 c4 0c	 add	 esp, 12			; 0000000cH

; 991  : 
; 992  : 					gObj[i].m_FriendServerOnline = FRIEND_SERVER_STATE_OFFLINE;

  0007c	c6 06 01	 mov	 BYTE PTR [esi], 1
$LN3@ExDataClie:

; 981  : 
; 982  : 			for ( int i =0;i<OBJMAX;i++)

  0007f	81 c6 64 15 00
	00		 add	 esi, 5476		; 00001564H
  00085	47		 inc	 edi
  00086	81 fe 70 54 6a
	02		 cmp	 esi, OFFSET ?gObj@@3PAUOBJECTSTRUCT@@A+40522864
  0008c	7c c3		 jl	 SHORT $LL4@ExDataClie

; 993  : 				}
; 994  : 			}
; 995  : 
; 996  : 			LogAdd(LOG_BLACK, "Error-L1 : Friend Server Down (State Send Ok)");

  0008e	68 00 00 00 00	 push	 OFFSET ??_C@_0CO@DFBFHLJO@Error?9L1?5?3?5Friend?5Server?5Down?5?$CIS@
  00093	6a 00		 push	 0
  00095	e8 00 00 00 00	 call	 ?LogAdd@@YAXW4eLogColor@@PADZZ ; LogAdd

; 997  : 			LogAdd(LOG_RED,  "Error-L1 : Friend Server Down (State Send Ok)");

  0009a	68 00 00 00 00	 push	 OFFSET ??_C@_0CO@DFBFHLJO@Error?9L1?5?3?5Friend?5Server?5Down?5?$CIS@
  0009f	6a 01		 push	 1
  000a1	e8 00 00 00 00	 call	 ?LogAdd@@YAXW4eLogColor@@PADZZ ; LogAdd
  000a6	83 c4 10	 add	 esp, 16			; 00000010H
  000a9	5f		 pop	 edi
  000aa	5e		 pop	 esi

; 998  : 			break;
; 999  : 	}
; 1000 : }

  000ab	8b 4d fc	 mov	 ecx, DWORD PTR __$ArrayPad$[ebp]
  000ae	33 cd		 xor	 ecx, ebp
  000b0	e8 00 00 00 00	 call	 @__security_check_cookie@4
  000b5	8b e5		 mov	 esp, ebp
  000b7	5d		 pop	 ebp
  000b8	c3		 ret	 0
$LN6@ExDataClie:

; 974  : 			break;
; 975  : 		case 2:
; 976  : 			wsExDbCli.FDWRITE_MsgDataSend();

  000b9	b9 00 00 00 00	 mov	 ecx, OFFSET ?wsExDbCli@@3VwsJoinServerCli@@A ; wsExDbCli
  000be	e8 00 00 00 00	 call	 ?FDWRITE_MsgDataSend@wsJoinServerCli@@QAEHXZ ; wsJoinServerCli::FDWRITE_MsgDataSend

; 998  : 			break;
; 999  : 	}
; 1000 : }

  000c3	8b 4d fc	 mov	 ecx, DWORD PTR __$ArrayPad$[ebp]
  000c6	33 cd		 xor	 ecx, ebp
  000c8	e8 00 00 00 00	 call	 @__security_check_cookie@4
  000cd	8b e5		 mov	 esp, ebp
  000cf	5d		 pop	 ebp
  000d0	c3		 ret	 0
$LN7@ExDataClie:

; 971  : 	{
; 972  : 		case 1:
; 973  : 			wsExDbCli.DataRecv();

  000d1	b9 00 00 00 00	 mov	 ecx, OFFSET ?wsExDbCli@@3VwsJoinServerCli@@A ; wsExDbCli
  000d6	e8 00 00 00 00	 call	 ?DataRecv@wsJoinServerCli@@QAEHXZ ; wsJoinServerCli::DataRecv
$LN8@ExDataClie:

; 998  : 			break;
; 999  : 	}
; 1000 : }

  000db	8b 4d fc	 mov	 ecx, DWORD PTR __$ArrayPad$[ebp]
  000de	33 cd		 xor	 ecx, ebp
  000e0	e8 00 00 00 00	 call	 @__security_check_cookie@4
  000e5	8b e5		 mov	 esp, ebp
  000e7	5d		 pop	 ebp
  000e8	c3		 ret	 0
?ExDataClientMsgProc@@YAXIJ@Z ENDP			; ExDataClientMsgProc
_TEXT	ENDS
PUBLIC	??_C@_0BL@OPACNGLO@SkillDistanceKickCheckTime?$AA@ ; `string'
PUBLIC	??_C@_0BH@FHPEPELH@SkillDistanceKickCount?$AA@	; `string'
PUBLIC	??_C@_0BC@PMNMLGGJ@SkillDistanceKick?$AA@	; `string'
PUBLIC	??_C@_0BH@KNOFMFOO@SkillDistanceCheckTemp?$AA@	; `string'
PUBLIC	??_C@_0BD@EINABCJP@SkillDistanceCheck?$AA@	; `string'
PUBLIC	??_C@_0BO@ICOMDHBJ@CharacterRecuperationMaxLevel?$AA@ ; `string'
PUBLIC	??_C@_0CD@GJEODPLI@UseCharacterAutoRecuperationSyst@ ; `string'
PUBLIC	??_C@_0DP@EJOIJEI@?$FL1?400?446?$FN?5?3?3?5?$CFs?5?3?3?5?$FLeMu?5Sapphire@ ; `string'
PUBLIC	??_C@_0M@LJBMFAHO@Sep?517?52019?$AA@		; `string'
PUBLIC	??_C@_08OGECJLJG@01?328?323?$AA@		; `string'
PUBLIC	??_C@_0BD@JBPJAKEM@PKLevelIncreaseOff?$AA@	; `string'
PUBLIC	??_C@_0BM@CEPJPHJK@EnableCheckPenetrationSkill?$AA@ ; `string'
PUBLIC	??_C@_0O@KKNNPAMK@HackLogServer?$AA@		; `string'
PUBLIC	??_C@_0BA@EFDPKNCB@MonsterHPAdjust?$AA@		; `string'
PUBLIC	??_C@_0BF@PDBLMKBC@EnableServerDivision?$AA@	; `string'
PUBLIC	??_C@_0BD@NKHABGBC@EnableEventNPCTalk?$AA@	; `string'
PUBLIC	??_C@_0BD@FPCMGBCA@EnableBattleSoccer?$AA@	; `string'
PUBLIC	??_C@_0BA@CEGABCOE@ApplyHeroSystem?$AA@		; `string'
PUBLIC	??_C@_0BE@ECCPHGDJ@EventChipServerPort?$AA@	; `string'
PUBLIC	??_C@_0BC@FMIEAAIA@EventChipServerIp?$AA@	; `string'
PUBLIC	??_C@_0BL@PLILBOOK@DevilSquareEventServerPort?$AA@ ; `string'
PUBLIC	??_C@_0BH@FIEEIIMF@EventChipServerConnect?$AA@	; `string'
PUBLIC	??_C@_0BH@DJHELGEN@DevilSquareEventServer?$AA@	; `string'
PUBLIC	??_C@_0P@LCMOAIFH@210?4181?489?4241?$AA@	; `string'
PUBLIC	??_C@_0BI@KCKMEMOI@DevilSquareEventConnect?$AA@	; `string'
PUBLIC	??_C@_0M@HGDACMHB@UseCheckSum?$AA@		; `string'
PUBLIC	??_C@_04HDFGONMM@PORT?$AA@			; `string'
PUBLIC	??_C@_0BC@IKLEIAKB@ConnectServerInfo?$AA@	; `string'
PUBLIC	??_C@_02MFEOMNPG@IP?$AA@			; `string'
PUBLIC	??_C@_0BE@KIKOADFM@KundunHPLogSaveTime?$AA@	; `string'
PUBLIC	??_C@_0BD@JLEDGMHA@KundunRefillHPTime?$AA@	; `string'
PUBLIC	??_C@_0P@CHMHAEOB@KundunRefillHP?$AA@		; `string'
PUBLIC	??_C@_0BC@BADILJEE@KundunRefillHPSec?$AA@	; `string'
PUBLIC	??_C@_0O@GJIAIJIK@MarkOfTheLord?$AA@		; `string'
PUBLIC	??_C@_0BF@HDFDIILJ@QuestNPCTeleportTime?$AA@	; `string'
PUBLIC	??_C@_0O@DJJFJNIL@WriteSkillLog?$AA@		; `string'
PUBLIC	??_C@_0BJ@MBAJFLOG@DQChaosSuccessRateLevel6?$AA@ ; `string'
PUBLIC	??_C@_0BJ@OKCEAICF@DQChaosSuccessRateLevel5?$AA@ ; `string'
PUBLIC	??_C@_0BJ@PDDPDJGE@DQChaosSuccessRateLevel4?$AA@ ; `string'
PUBLIC	??_C@_0BJ@LMHOKPKD@DQChaosSuccessRateLevel3?$AA@ ; `string'
PUBLIC	??_C@_0BJ@KFGFJOOC@DQChaosSuccessRateLevel2?$AA@ ; `string'
PUBLIC	??_C@_0BJ@IOEIMNCB@DQChaosSuccessRateLevel1?$AA@ ; `string'
PUBLIC	??_C@_0BB@MCFEHCJF@SpeedHackPenalty?$AA@	; `string'
PUBLIC	??_C@_0BG@MPJHCBCJ@DecTimePerAttackSpeed?$AA@	; `string'
PUBLIC	??_C@_04MCLHNJOA@5?433?$AA@			; `string'
PUBLIC	??_C@_0BD@OBHCBKDC@DisconnectHackUser?$AA@	; `string'
PUBLIC	??_C@_0N@OGIIBFAP@WriteChatLog?$AA@		; `string'
PUBLIC	??_C@_0BI@IMCEGONI@ItemDropRingOfTransform?$AA@	; `string'
PUBLIC	??_C@_0BK@JABOLCNK@IsItemDropRingOfTransform?$AA@ ; `string'
PUBLIC	??_C@_0CC@DGDEHIJD@TamaJJangDisappearTimeRandomRang@ ; `string'
PUBLIC	??_C@_0BH@MEHMFFCA@TamaJJangDisappearTime?$AA@	; `string'
PUBLIC	??_C@_0BC@GLIFBFHG@TamaJJangKeepTime?$AA@	; `string'
PUBLIC	??_C@_0P@JGMBNJAP@TamaJJangEvent?$AA@		; `string'
PUBLIC	??_C@_0BO@DEAIHFPL@EventChipDropRateForBoxOfGold?$AA@ ; `string'
PUBLIC	??_C@_0BJ@GLDGDDON@ItemDropRateForBoxOfGold?$AA@ ; `string'
PUBLIC	??_C@_0BC@FNNFHNFE@BoxOfGoldDropRate?$AA@	; `string'
PUBLIC	??_C@_0P@MCKGBBMK@EventChipEvent?$AA@		; `string'
PUBLIC	??_C@_0BA@LODEADPK@ZenDurationTime?$AA@		; `string'
PUBLIC	??_C@_0DC@INOMHGEK@?$FLOption?$FN?5No?5dropping?5item?5when?5k@ ; `string'
PUBLIC	??_C@_0CP@KCNDGJJO@?$FLOption?$FN?5Dropping?5item?5when?5kill@ ; `string'
PUBLIC	??_C@_0CE@CGDCLGCF@?$FLOption?$FN?5Auto?5Looting?5Time?5Set?5?3@ ; `string'
PUBLIC	??_C@_0M@CNCIMJOC@LootingTime?$AA@		; `string'
PUBLIC	??_C@_0BF@PPOFPHOE@Monster?5HP?5set?5to?5?$CFd?$AA@ ; `string'
PUBLIC	??_C@_09LNOLFHKA@MonsterHp?$AA@			; `string'
PUBLIC	??_C@_0BC@FCDMLPNF@PK?5Time?5set?5to?5?$CFd?$AA@ ; `string'
PUBLIC	??_C@_06PKBKOIPG@PKTIME?$AA@			; `string'
PUBLIC	??_C@_0CD@DBODMHPC@?$FLOption?$FN?5AttackEventRegenTime?5?$DN?5@ ; `string'
PUBLIC	??_C@_0BP@BODHCMPI@?$FLOption?$FN?5ChaosEventServer?5?$DN?5?$CFs?$AA@ ; `string'
PUBLIC	??_C@_0BJ@BDPEJKAD@?$FLOption?$FN?5ChaosEvent?5?$DN?5?$CFd?$AA@ ; `string'
PUBLIC	??_C@_0BH@HMHMODEL@?$FLOption?$FN?5ChaosBox?5?$DN?5?$CFd?$AA@ ; `string'
PUBLIC	??_C@_0BB@LFFJPGMP@ChaosEventServer?$AA@	; `string'
PUBLIC	??_C@_09PFCHIMEP@127?40?40?41?$AA@		; `string'
PUBLIC	??_C@_0L@KKFEELGG@ChaosEvent?$AA@		; `string'
PUBLIC	??_C@_0BK@CKGGLAII@Cant?5trade?5on?5this?5server?$AA@ ; `string'
PUBLIC	??_C@_0BB@NLGBCHJO@Allowed?5to?5trade?$AA@	; `string'
PUBLIC	??_C@_0BA@PFGDHKCH@ItemSerialCheck?$AA@		; `string'
PUBLIC	??_C@_0BF@KDFHAHG@SpeedHackPlayerBlock?$AA@	; `string'
PUBLIC	??_C@_0BJ@HLCGGCOP@ServerGroupGuildChatting?$AA@ ; `string'
PUBLIC	??_C@_0CM@HGFFPJNE@?$FLOption?5Reload?$FN?5?$KB?Z?$KB?Z?$KB?Z?5MaxUser?5?$KB@ ; `string'
PUBLIC	??_C@_0BA@IJNIFGCF@NumberOfMaxUser?$AA@		; `string'
PUBLIC	??_C@_0BI@ONKCMGBI@CharacterDeleteMinLevel?$AA@	; `string'
PUBLIC	??_C@_02PMJKFNFC@40?$AA@			; `string'
PUBLIC	??_C@_0BG@OHJHEJDE@SkillAdditionInfo?4dat?$AA@	; `string'
PUBLIC	??_C@_01LFCBOECM@?4?$AA@			; `string'
PUBLIC	??_C@_0BA@JHAHNEJ@ClientExeSerial?$AA@		; `string'
PUBLIC	??_C@_0BB@FBDFNIJB@ClientExeVersion?$AA@	; `string'
PUBLIC	??_C@_0CA@MAJLFLOB@?4?4?2data?2lang?2Kor?2quest?$CIKor?$CJ?4txt?$AA@ ; `string'
PUBLIC	??_C@_0BC@FGIEIEFL@ConnectMember?4txt?$AA@	; `string'
PUBLIC	??_C@_0O@MOJICEJC@MoveLevel?4txt?$AA@		; `string'
PUBLIC	??_C@_0CC@EFPCADGB@?4?4?2data?2lang?2Kor?2movereq?$CIkor?$CJ?4tx@ ; `string'
PUBLIC	??_C@_0CG@BFLHEFAB@?4?4?2data?2lang?2Kor?2itemsettype?$CIKor@ ; `string'
PUBLIC	??_C@_0CI@GIEFOAO@?4?4?2data?2lang?2Kor?2itemsetoption?$CIK@ ; `string'
PUBLIC	??_C@_0P@POAMAGDJ@skillElect?4hit?$AA@		; `string'
PUBLIC	??_C@_0P@NPIOLEMH@skillSpear?4hit?$AA@		; `string'
PUBLIC	??_C@_0CA@DFDHGNGE@?4?4?2data?2lang?2Kor?2skill?$CIKor?$CJ?4txt?$AA@ ; `string'
PUBLIC	??_C@_0BP@GKCHNKMH@?4?4?2data?2lang?2Kor?2item?$CIKor?$CJ?4txt?$AA@ ; `string'
PUBLIC	??_C@_0BF@KFCGLLGL@PK?5Limit?5Free?5Server?$AA@	; `string'
PUBLIC	??_C@_0M@DKICACGN@PkLimitFree?$AA@		; `string'
PUBLIC	??_C@_0O@GCDDIMLO@NON?9PK?5Server?$AA@		; `string'
PUBLIC	??_C@_05MEMFONJC@NonPK?$AA@			; `string'
PUBLIC	??_C@_0BH@BBKIGHND@lang?2tha?2commonloc?4cfg?$AA@ ; `string'
PUBLIC	??_C@_0BG@MKEGOHAG@lang?2tha?2CheckSum?4dat?$AA@ ; `string'
PUBLIC	??_C@_0BK@OAOFLAMH@lang?2tha?2movereq?$CItha?$CJ?4txt?$AA@ ; `string'
PUBLIC	??_C@_0BI@PPCLJHOL@lang?2tha?2Quest?$CItha?$CJ?4txt?$AA@ ; `string'
PUBLIC	??_C@_0BI@ICECJPPA@lang?2tha?2skill?$CItha?$CJ?4txt?$AA@ ; `string'
PUBLIC	??_C@_0BH@BDPKPKJK@lang?2tha?2item?$CItha?$CJ?4txt?$AA@ ; `string'
PUBLIC	??_C@_0BA@CIFGKAHN@message_tha?4wtf?$AA@	; `string'
PUBLIC	??_C@_0BH@DANHMEB@lang?2tai?2commonloc?4cfg?$AA@ ; `string'
PUBLIC	??_C@_0BG@NILECFFP@lang?2tai?2CheckSum?4dat?$AA@ ; `string'
PUBLIC	??_C@_0BK@DNFIBFPK@lang?2tai?2movereq?$CItai?$CJ?4txt?$AA@ ; `string'
PUBLIC	??_C@_0BI@MNJIJFNE@lang?2tai?2Quest?$CItai?$CJ?4txt?$AA@ ; `string'
PUBLIC	??_C@_0BI@LAPBJNMP@lang?2tai?2skill?$CItai?$CJ?4txt?$AA@ ; `string'
PUBLIC	??_C@_0BH@CNPPLEEE@lang?2tai?2item?$CItai?$CJ?4txt?$AA@ ; `string'
PUBLIC	??_C@_0BA@FBJNGHMD@message_tai?4wtf?$AA@	; `string'
PUBLIC	??_C@_0BH@LPKCCKFC@lang?2chs?2commonloc?4cfg?$AA@ ; `string'
PUBLIC	??_C@_0BG@BBGBCMOO@lang?2chs?2CheckSum?4dat?$AA@ ; `string'
PUBLIC	??_C@_0BK@JNPALLNH@lang?2chs?2movereq?$CIchs?$CJ?4txt?$AA@ ; `string'
PUBLIC	??_C@_0BI@FNNKIMEP@lang?2chs?2Quest?$CIchs?$CJ?4txt?$AA@ ; `string'
PUBLIC	??_C@_0BI@CALDIEFE@lang?2chs?2skill?$CIchs?$CJ?4txt?$AA@ ; `string'
PUBLIC	??_C@_0BH@IFBABFEE@lang?2chs?2item?$CIchs?$CJ?4txt?$AA@ ; `string'
PUBLIC	??_C@_0BA@BADGDLNP@message_chs?4wtf?$AA@	; `string'
PUBLIC	??_C@_0BH@FJINJIJL@lang?2jpn?2commonloc?4cfg?$AA@ ; `string'
PUBLIC	??_C@_0BG@FNIPOEKB@lang?2jpn?2CheckSum?4dat?$AA@ ; `string'
PUBLIC	??_C@_0BK@HLFIIGFG@lang?2jpn?2movereq?$CIjpn?$CJ?4txt?$AA@ ; `string'
PUBLIC	??_C@_0BI@LKHALICC@lang?2jpn?2Quest?$CIjpn?$CJ?4txt?$AA@ ; `string'
PUBLIC	??_C@_0BI@MHBJLADJ@lang?2jpn?2skill?$CIjpn?$CJ?4txt?$AA@ ; `string'
PUBLIC	??_C@_0BH@GGMLMGEG@lang?2jpn?2item?$CIjpn?$CJ?4txt?$AA@ ; `string'
PUBLIC	??_C@_0BA@OEAAODBI@message_jpn?4wtf?$AA@	; `string'
PUBLIC	??_C@_0BH@CEPMFDMG@lang?2eng?2commonloc?4cfg?$AA@ ; `string'
PUBLIC	??_C@_0BG@CLNKAICO@lang?2eng?2CheckSum?4dat?$AA@ ; `string'
PUBLIC	??_C@_0BK@LBNBFPFP@lang?2eng?2movereq?$CIEng?$CJ?4txt?$AA@ ; `string'
PUBLIC	??_C@_0BI@IMMHENLL@lang?2eng?2Quest?$CIeng?$CJ?4txt?$AA@ ; `string'
PUBLIC	??_C@_0BI@PBKOEFKA@lang?2eng?2skill?$CIeng?$CJ?4txt?$AA@ ; `string'
PUBLIC	??_C@_0BH@DIKKKEAA@lang?2eng?2item?$CIeng?$CJ?4txt?$AA@ ; `string'
PUBLIC	??_C@_0BA@CNMOEHOP@message_eng?4wtf?$AA@	; `string'
PUBLIC	??_C@_0BH@CGAJGJIE@lang?2kor?2commonloc?4cfg?$AA@ ; `string'
PUBLIC	??_C@_0BK@BLDPLGHM@lang?2kor?2movereq?$CIKor?$CJ?4txt?$AA@ ; `string'
PUBLIC	??_C@_0BG@LDHDEAON@lang?2kor?2CheckSum?4dat?$AA@ ; `string'
PUBLIC	??_C@_0BI@KHGIHCPL@lang?2kor?2Quest?$CIKor?$CJ?4txt?$AA@ ; `string'
PUBLIC	??_C@_0BA@MNCIMNEB@message_kor?4wtf?$AA@	; `string'
PUBLIC	??_C@_0BI@FIPAPIED@lang?2kor?2skill?$CIkor?$CJ?4txt?$AA@ ; `string'
PUBLIC	??_C@_0BH@LNBPGCH@lang?2kor?2item?$CIkor?$CJ?4txt?$AA@ ; `string'
PUBLIC	??_C@_0BI@CDOIIEIH@Enc2?4dat?5file?5not?5found?$AA@ ; `string'
PUBLIC	??_C@_08HDINADJK@Enc2?4dat?$AA@			; `string'
PUBLIC	??_C@_0BI@KPIPBJFI@Dec1?4dat?5file?5not?5found?$AA@ ; `string'
PUBLIC	??_C@_08LPAIHJCB@Dec1?4dat?$AA@			; `string'
PUBLIC	??_C@_0BK@KJGDFNAO@Stalk?5Protocol?5ID?5?$DN?5?8?$CFs?8?5?$AA@ ; `string'
PUBLIC	??_C@_0BA@GELKBKKC@StalkProtocolId?$AA@		; `string'
PUBLIC	??_C@_0O@GAFBBPE@StalkProtocol?$AA@		; `string'
PUBLIC	??_C@_08BENDAOKD@Language?$AA@			; `string'
PUBLIC	??_C@_0CC@JCDJGIAD@?$FLcommonserver?4cfg?$FN?5file?5not?5foun@ ; `string'
PUBLIC	??_C@_0BB@JLNNBFPM@?4?4?2data?2Gate?4txt?$AA@	; `string'
PUBLIC	__$ArrayPad$
PUBLIC	?ReadCommonServerInfo@@YAXXZ			; ReadCommonServerInfo
EXTRN	?Init@CPacketCheckSum@@QAEXXZ:PROC		; CPacketCheckSum::Init
EXTRN	?gPacketCheckSum@@3VCPacketCheckSum@@A:BYTE	; gPacketCheckSum
EXTRN	?Init@CEledoradoEvent@@QAEXXZ:PROC		; CEledoradoEvent::Init
EXTRN	?SetEventState@CEledoradoEvent@@QAEXH@Z:PROC	; CEledoradoEvent::SetEventState
EXTRN	__imp__SetWindowTextA@8:PROC
EXTRN	__imp__wsprintfA:PROC
EXTRN	?SendSet@CSendHackLog@@QAEXPADH@Z:PROC		; CSendHackLog::SendSet
EXTRN	?gSendHackLog@@3VCSendHackLog@@A:BYTE		; gSendHackLog
EXTRN	?Init@CGMMng@@QAEXXZ:PROC			; CGMMng::Init
EXTRN	?cManager@@3VCGMMng@@A:BYTE			; cManager
EXTRN	?SendSet@WzUdp@@QAEHPADH@Z:PROC			; WzUdp::SendSet
EXTRN	?SetClose@CDevilSquare@@QAEXXZ:PROC		; CDevilSquare::SetClose
EXTRN	?Load@CSkillAdditionInfo@@QAEHPAD@Z:PROC	; CSkillAdditionInfo::Load
EXTRN	?g_SkillAdditionInfo@@3VCSkillAdditionInfo@@A:BYTE ; g_SkillAdditionInfo
EXTRN	_strtok:PROC
EXTRN	?LoadQuestInfo@CQuestInfo@@QAEHPAD@Z:PROC	; CQuestInfo::LoadQuestInfo
EXTRN	?g_QuestInfo@@3VCQuestInfo@@A:BYTE		; g_QuestInfo
EXTRN	?Load@CConMember@@QAEXPAD@Z:PROC		; CConMember::Load
EXTRN	?ConMember@@3VCConMember@@A:BYTE		; ConMember
EXTRN	?LoadMoveLevel@CMoveCommand@@QAEHPAD@Z:PROC	; CMoveCommand::LoadMoveLevel
EXTRN	?Load@CMoveCommand@@QAEHPAD@Z:PROC		; CMoveCommand::Load
EXTRN	?gMoveCommand@@3VCMoveCommand@@A:BYTE		; gMoveCommand
EXTRN	?LoadTypeInfo@CSetItemOption@@QAEHPAD@Z:PROC	; CSetItemOption::LoadTypeInfo
EXTRN	?LoadOptionInfo@CSetItemOption@@QAEHPAD@Z:PROC	; CSetItemOption::LoadOptionInfo
EXTRN	?gSetItemOption@@3VCSetItemOption@@A:BYTE	; gSetItemOption
EXTRN	?SkillElectricSparkHitBox@@3VCSkillHitBox@@A:BYTE ; SkillElectricSparkHitBox
EXTRN	?Load@CSkillHitBox@@QAEHPAD@Z:PROC		; CSkillHitBox::Load
EXTRN	?SkillSpearHitBox@@3VCSkillHitBox@@A:BYTE	; SkillSpearHitBox
EXTRN	?LogSkillList@CMagicDamage@@QAEXPAD@Z:PROC	; CMagicDamage::LogSkillList
EXTRN	?MagicDamageC@@3VCMagicDamage@@A:BYTE		; MagicDamageC
EXTRN	?OpenItemScript@@YAHPAD@Z:PROC			; OpenItemScript
EXTRN	?LoadWTF@CMsg@@QAEXPAD@Z:PROC			; CMsg::LoadWTF
EXTRN	?LoadEncryptionKey@CSimpleModulus@@QAEHPAD@Z:PROC ; CSimpleModulus::LoadEncryptionKey
EXTRN	?LoadDecryptionKey@CSimpleModulus@@QAEHPAD@Z:PROC ; CSimpleModulus::LoadDecryptionKey
EXTRN	?Load@CGate@@QAEXPAD@Z:PROC			; CGate::Load
EXTRN	?gGateC@@3VCGate@@A:BYTE			; gGateC
EXTRN	_memset:PROC
;	COMDAT ??_C@_0BL@OPACNGLO@SkillDistanceKickCheckTime?$AA@
CONST	SEGMENT
??_C@_0BL@OPACNGLO@SkillDistanceKickCheckTime?$AA@ DB 'SkillDistanceKickC'
	DB	'heckTime', 00H				; `string'
CONST	ENDS
;	COMDAT ??_C@_0BH@FHPEPELH@SkillDistanceKickCount?$AA@
CONST	SEGMENT
??_C@_0BH@FHPEPELH@SkillDistanceKickCount?$AA@ DB 'SkillDistanceKickCount'
	DB	00H						; `string'
CONST	ENDS
;	COMDAT ??_C@_0BC@PMNMLGGJ@SkillDistanceKick?$AA@
CONST	SEGMENT
??_C@_0BC@PMNMLGGJ@SkillDistanceKick?$AA@ DB 'SkillDistanceKick', 00H ; `string'
CONST	ENDS
;	COMDAT ??_C@_0BH@KNOFMFOO@SkillDistanceCheckTemp?$AA@
CONST	SEGMENT
??_C@_0BH@KNOFMFOO@SkillDistanceCheckTemp?$AA@ DB 'SkillDistanceCheckTemp'
	DB	00H						; `string'
CONST	ENDS
;	COMDAT ??_C@_0BD@EINABCJP@SkillDistanceCheck?$AA@
CONST	SEGMENT
??_C@_0BD@EINABCJP@SkillDistanceCheck?$AA@ DB 'SkillDistanceCheck', 00H ; `string'
CONST	ENDS
;	COMDAT ??_C@_0BO@ICOMDHBJ@CharacterRecuperationMaxLevel?$AA@
CONST	SEGMENT
??_C@_0BO@ICOMDHBJ@CharacterRecuperationMaxLevel?$AA@ DB 'CharacterRecupe'
	DB	'rationMaxLevel', 00H			; `string'
CONST	ENDS
;	COMDAT ??_C@_0CD@GJEODPLI@UseCharacterAutoRecuperationSyst@
CONST	SEGMENT
??_C@_0CD@GJEODPLI@UseCharacterAutoRecuperationSyst@ DB 'UseCharacterAuto'
	DB	'RecuperationSystem', 00H			; `string'
CONST	ENDS
;	COMDAT ??_C@_0DP@EJOIJEI@?$FL1?400?446?$FN?5?3?3?5?$CFs?5?3?3?5?$FLeMu?5Sapphire@
CONST	SEGMENT
??_C@_0DP@EJOIJEI@?$FL1?400?446?$FN?5?3?3?5?$CFs?5?3?3?5?$FLeMu?5Sapphire@ DB '['
	DB	'1.00.46] :: %s :: [eMu Sapphire Season I] :: [Update : %s %s]'
	DB	00H						; `string'
CONST	ENDS
;	COMDAT ??_C@_0M@LJBMFAHO@Sep?517?52019?$AA@
CONST	SEGMENT
??_C@_0M@LJBMFAHO@Sep?517?52019?$AA@ DB 'Sep 17 2019', 00H ; `string'
CONST	ENDS
;	COMDAT ??_C@_08OGECJLJG@01?328?323?$AA@
CONST	SEGMENT
??_C@_08OGECJLJG@01?328?323?$AA@ DB '01:28:23', 00H	; `string'
CONST	ENDS
;	COMDAT ??_C@_0BD@JBPJAKEM@PKLevelIncreaseOff?$AA@
CONST	SEGMENT
??_C@_0BD@JBPJAKEM@PKLevelIncreaseOff?$AA@ DB 'PKLevelIncreaseOff', 00H ; `string'
CONST	ENDS
;	COMDAT ??_C@_0BM@CEPJPHJK@EnableCheckPenetrationSkill?$AA@
CONST	SEGMENT
??_C@_0BM@CEPJPHJK@EnableCheckPenetrationSkill?$AA@ DB 'EnableCheckPenetr'
	DB	'ationSkill', 00H				; `string'
CONST	ENDS
;	COMDAT ??_C@_0O@KKNNPAMK@HackLogServer?$AA@
CONST	SEGMENT
??_C@_0O@KKNNPAMK@HackLogServer?$AA@ DB 'HackLogServer', 00H ; `string'
CONST	ENDS
;	COMDAT ??_C@_0BA@EFDPKNCB@MonsterHPAdjust?$AA@
CONST	SEGMENT
??_C@_0BA@EFDPKNCB@MonsterHPAdjust?$AA@ DB 'MonsterHPAdjust', 00H ; `string'
CONST	ENDS
;	COMDAT ??_C@_0BF@PDBLMKBC@EnableServerDivision?$AA@
CONST	SEGMENT
??_C@_0BF@PDBLMKBC@EnableServerDivision?$AA@ DB 'EnableServerDivision', 00H ; `string'
CONST	ENDS
;	COMDAT ??_C@_0BD@NKHABGBC@EnableEventNPCTalk?$AA@
CONST	SEGMENT
??_C@_0BD@NKHABGBC@EnableEventNPCTalk?$AA@ DB 'EnableEventNPCTalk', 00H ; `string'
CONST	ENDS
;	COMDAT ??_C@_0BD@FPCMGBCA@EnableBattleSoccer?$AA@
CONST	SEGMENT
??_C@_0BD@FPCMGBCA@EnableBattleSoccer?$AA@ DB 'EnableBattleSoccer', 00H ; `string'
CONST	ENDS
;	COMDAT ??_C@_0BA@CEGABCOE@ApplyHeroSystem?$AA@
CONST	SEGMENT
??_C@_0BA@CEGABCOE@ApplyHeroSystem?$AA@ DB 'ApplyHeroSystem', 00H ; `string'
CONST	ENDS
;	COMDAT ??_C@_0BE@ECCPHGDJ@EventChipServerPort?$AA@
CONST	SEGMENT
??_C@_0BE@ECCPHGDJ@EventChipServerPort?$AA@ DB 'EventChipServerPort', 00H ; `string'
CONST	ENDS
;	COMDAT ??_C@_0BC@FMIEAAIA@EventChipServerIp?$AA@
CONST	SEGMENT
??_C@_0BC@FMIEAAIA@EventChipServerIp?$AA@ DB 'EventChipServerIp', 00H ; `string'
CONST	ENDS
;	COMDAT ??_C@_0BL@PLILBOOK@DevilSquareEventServerPort?$AA@
CONST	SEGMENT
??_C@_0BL@PLILBOOK@DevilSquareEventServerPort?$AA@ DB 'DevilSquareEventSe'
	DB	'rverPort', 00H				; `string'
CONST	ENDS
;	COMDAT ??_C@_0BH@FIEEIIMF@EventChipServerConnect?$AA@
CONST	SEGMENT
??_C@_0BH@FIEEIIMF@EventChipServerConnect?$AA@ DB 'EventChipServerConnect'
	DB	00H						; `string'
CONST	ENDS
;	COMDAT ??_C@_0BH@DJHELGEN@DevilSquareEventServer?$AA@
CONST	SEGMENT
??_C@_0BH@DJHELGEN@DevilSquareEventServer?$AA@ DB 'DevilSquareEventServer'
	DB	00H						; `string'
CONST	ENDS
;	COMDAT ??_C@_0P@LCMOAIFH@210?4181?489?4241?$AA@
CONST	SEGMENT
??_C@_0P@LCMOAIFH@210?4181?489?4241?$AA@ DB '210.181.89.241', 00H ; `string'
CONST	ENDS
;	COMDAT ??_C@_0BI@KCKMEMOI@DevilSquareEventConnect?$AA@
CONST	SEGMENT
??_C@_0BI@KCKMEMOI@DevilSquareEventConnect?$AA@ DB 'DevilSquareEventConne'
	DB	'ct', 00H					; `string'
CONST	ENDS
;	COMDAT ??_C@_0M@HGDACMHB@UseCheckSum?$AA@
CONST	SEGMENT
??_C@_0M@HGDACMHB@UseCheckSum?$AA@ DB 'UseCheckSum', 00H ; `string'
CONST	ENDS
;	COMDAT ??_C@_04HDFGONMM@PORT?$AA@
CONST	SEGMENT
??_C@_04HDFGONMM@PORT?$AA@ DB 'PORT', 00H		; `string'
CONST	ENDS
;	COMDAT ??_C@_0BC@IKLEIAKB@ConnectServerInfo?$AA@
CONST	SEGMENT
??_C@_0BC@IKLEIAKB@ConnectServerInfo?$AA@ DB 'ConnectServerInfo', 00H ; `string'
CONST	ENDS
;	COMDAT ??_C@_02MFEOMNPG@IP?$AA@
CONST	SEGMENT
??_C@_02MFEOMNPG@IP?$AA@ DB 'IP', 00H			; `string'
CONST	ENDS
;	COMDAT ??_C@_0BE@KIKOADFM@KundunHPLogSaveTime?$AA@
CONST	SEGMENT
??_C@_0BE@KIKOADFM@KundunHPLogSaveTime?$AA@ DB 'KundunHPLogSaveTime', 00H ; `string'
CONST	ENDS
;	COMDAT ??_C@_0BD@JLEDGMHA@KundunRefillHPTime?$AA@
CONST	SEGMENT
??_C@_0BD@JLEDGMHA@KundunRefillHPTime?$AA@ DB 'KundunRefillHPTime', 00H ; `string'
CONST	ENDS
;	COMDAT ??_C@_0P@CHMHAEOB@KundunRefillHP?$AA@
CONST	SEGMENT
??_C@_0P@CHMHAEOB@KundunRefillHP?$AA@ DB 'KundunRefillHP', 00H ; `string'
CONST	ENDS
;	COMDAT ??_C@_0BC@BADILJEE@KundunRefillHPSec?$AA@
CONST	SEGMENT
??_C@_0BC@BADILJEE@KundunRefillHPSec?$AA@ DB 'KundunRefillHPSec', 00H ; `string'
CONST	ENDS
;	COMDAT ??_C@_0O@GJIAIJIK@MarkOfTheLord?$AA@
CONST	SEGMENT
??_C@_0O@GJIAIJIK@MarkOfTheLord?$AA@ DB 'MarkOfTheLord', 00H ; `string'
CONST	ENDS
;	COMDAT ??_C@_0BF@HDFDIILJ@QuestNPCTeleportTime?$AA@
CONST	SEGMENT
??_C@_0BF@HDFDIILJ@QuestNPCTeleportTime?$AA@ DB 'QuestNPCTeleportTime', 00H ; `string'
CONST	ENDS
;	COMDAT ??_C@_0O@DJJFJNIL@WriteSkillLog?$AA@
CONST	SEGMENT
??_C@_0O@DJJFJNIL@WriteSkillLog?$AA@ DB 'WriteSkillLog', 00H ; `string'
CONST	ENDS
;	COMDAT ??_C@_0BJ@MBAJFLOG@DQChaosSuccessRateLevel6?$AA@
CONST	SEGMENT
??_C@_0BJ@MBAJFLOG@DQChaosSuccessRateLevel6?$AA@ DB 'DQChaosSuccessRateLe'
	DB	'vel6', 00H					; `string'
CONST	ENDS
;	COMDAT ??_C@_0BJ@OKCEAICF@DQChaosSuccessRateLevel5?$AA@
CONST	SEGMENT
??_C@_0BJ@OKCEAICF@DQChaosSuccessRateLevel5?$AA@ DB 'DQChaosSuccessRateLe'
	DB	'vel5', 00H					; `string'
CONST	ENDS
;	COMDAT ??_C@_0BJ@PDDPDJGE@DQChaosSuccessRateLevel4?$AA@
CONST	SEGMENT
??_C@_0BJ@PDDPDJGE@DQChaosSuccessRateLevel4?$AA@ DB 'DQChaosSuccessRateLe'
	DB	'vel4', 00H					; `string'
CONST	ENDS
;	COMDAT ??_C@_0BJ@LMHOKPKD@DQChaosSuccessRateLevel3?$AA@
CONST	SEGMENT
??_C@_0BJ@LMHOKPKD@DQChaosSuccessRateLevel3?$AA@ DB 'DQChaosSuccessRateLe'
	DB	'vel3', 00H					; `string'
CONST	ENDS
;	COMDAT ??_C@_0BJ@KFGFJOOC@DQChaosSuccessRateLevel2?$AA@
CONST	SEGMENT
??_C@_0BJ@KFGFJOOC@DQChaosSuccessRateLevel2?$AA@ DB 'DQChaosSuccessRateLe'
	DB	'vel2', 00H					; `string'
CONST	ENDS
;	COMDAT ??_C@_0BJ@IOEIMNCB@DQChaosSuccessRateLevel1?$AA@
CONST	SEGMENT
??_C@_0BJ@IOEIMNCB@DQChaosSuccessRateLevel1?$AA@ DB 'DQChaosSuccessRateLe'
	DB	'vel1', 00H					; `string'
CONST	ENDS
;	COMDAT ??_C@_0BB@MCFEHCJF@SpeedHackPenalty?$AA@
CONST	SEGMENT
??_C@_0BB@MCFEHCJF@SpeedHackPenalty?$AA@ DB 'SpeedHackPenalty', 00H ; `string'
CONST	ENDS
;	COMDAT ??_C@_0BG@MPJHCBCJ@DecTimePerAttackSpeed?$AA@
CONST	SEGMENT
??_C@_0BG@MPJHCBCJ@DecTimePerAttackSpeed?$AA@ DB 'DecTimePerAttackSpeed', 00H ; `string'
CONST	ENDS
;	COMDAT ??_C@_04MCLHNJOA@5?433?$AA@
CONST	SEGMENT
??_C@_04MCLHNJOA@5?433?$AA@ DB '5.33', 00H		; `string'
CONST	ENDS
;	COMDAT ??_C@_0BD@OBHCBKDC@DisconnectHackUser?$AA@
CONST	SEGMENT
??_C@_0BD@OBHCBKDC@DisconnectHackUser?$AA@ DB 'DisconnectHackUser', 00H ; `string'
CONST	ENDS
;	COMDAT ??_C@_0N@OGIIBFAP@WriteChatLog?$AA@
CONST	SEGMENT
??_C@_0N@OGIIBFAP@WriteChatLog?$AA@ DB 'WriteChatLog', 00H ; `string'
CONST	ENDS
;	COMDAT ??_C@_0BI@IMCEGONI@ItemDropRingOfTransform?$AA@
CONST	SEGMENT
??_C@_0BI@IMCEGONI@ItemDropRingOfTransform?$AA@ DB 'ItemDropRingOfTransfo'
	DB	'rm', 00H					; `string'
CONST	ENDS
;	COMDAT ??_C@_0BK@JABOLCNK@IsItemDropRingOfTransform?$AA@
CONST	SEGMENT
??_C@_0BK@JABOLCNK@IsItemDropRingOfTransform?$AA@ DB 'IsItemDropRingOfTra'
	DB	'nsform', 00H				; `string'
CONST	ENDS
;	COMDAT ??_C@_0CC@DGDEHIJD@TamaJJangDisappearTimeRandomRang@
CONST	SEGMENT
??_C@_0CC@DGDEHIJD@TamaJJangDisappearTimeRandomRang@ DB 'TamaJJangDisappe'
	DB	'arTimeRandomRange', 00H			; `string'
CONST	ENDS
;	COMDAT ??_C@_0BH@MEHMFFCA@TamaJJangDisappearTime?$AA@
CONST	SEGMENT
??_C@_0BH@MEHMFFCA@TamaJJangDisappearTime?$AA@ DB 'TamaJJangDisappearTime'
	DB	00H						; `string'
CONST	ENDS
;	COMDAT ??_C@_0BC@GLIFBFHG@TamaJJangKeepTime?$AA@
CONST	SEGMENT
??_C@_0BC@GLIFBFHG@TamaJJangKeepTime?$AA@ DB 'TamaJJangKeepTime', 00H ; `string'
CONST	ENDS
;	COMDAT ??_C@_0P@JGMBNJAP@TamaJJangEvent?$AA@
CONST	SEGMENT
??_C@_0P@JGMBNJAP@TamaJJangEvent?$AA@ DB 'TamaJJangEvent', 00H ; `string'
CONST	ENDS
;	COMDAT ??_C@_0BO@DEAIHFPL@EventChipDropRateForBoxOfGold?$AA@
CONST	SEGMENT
??_C@_0BO@DEAIHFPL@EventChipDropRateForBoxOfGold?$AA@ DB 'EventChipDropRa'
	DB	'teForBoxOfGold', 00H			; `string'
CONST	ENDS
;	COMDAT ??_C@_0BJ@GLDGDDON@ItemDropRateForBoxOfGold?$AA@
CONST	SEGMENT
??_C@_0BJ@GLDGDDON@ItemDropRateForBoxOfGold?$AA@ DB 'ItemDropRateForBoxOf'
	DB	'Gold', 00H					; `string'
CONST	ENDS
;	COMDAT ??_C@_0BC@FNNFHNFE@BoxOfGoldDropRate?$AA@
CONST	SEGMENT
??_C@_0BC@FNNFHNFE@BoxOfGoldDropRate?$AA@ DB 'BoxOfGoldDropRate', 00H ; `string'
CONST	ENDS
;	COMDAT ??_C@_0P@MCKGBBMK@EventChipEvent?$AA@
CONST	SEGMENT
??_C@_0P@MCKGBBMK@EventChipEvent?$AA@ DB 'EventChipEvent', 00H ; `string'
CONST	ENDS
;	COMDAT ??_C@_0BA@LODEADPK@ZenDurationTime?$AA@
CONST	SEGMENT
??_C@_0BA@LODEADPK@ZenDurationTime?$AA@ DB 'ZenDurationTime', 00H ; `string'
CONST	ENDS
;	COMDAT ??_C@_0DC@INOMHGEK@?$FLOption?$FN?5No?5dropping?5item?5when?5k@
CONST	SEGMENT
??_C@_0DC@INOMHGEK@?$FLOption?$FN?5No?5dropping?5item?5when?5k@ DB '[Opti'
	DB	'on] No dropping item when killed by Murderer', 00H ; `string'
CONST	ENDS
;	COMDAT ??_C@_0CP@KCNDGJJO@?$FLOption?$FN?5Dropping?5item?5when?5kill@
CONST	SEGMENT
??_C@_0CP@KCNDGJJO@?$FLOption?$FN?5Dropping?5item?5when?5kill@ DB '[Optio'
	DB	'n] Dropping item when killed by Murderer', 00H ; `string'
CONST	ENDS
;	COMDAT ??_C@_0CE@CGDCLGCF@?$FLOption?$FN?5Auto?5Looting?5Time?5Set?5?3@
CONST	SEGMENT
??_C@_0CE@CGDCLGCF@?$FLOption?$FN?5Auto?5Looting?5Time?5Set?5?3@ DB '[Opt'
	DB	'ion] Auto Looting Time Set : %d', 00H	; `string'
CONST	ENDS
;	COMDAT ??_C@_0M@CNCIMJOC@LootingTime?$AA@
CONST	SEGMENT
??_C@_0M@CNCIMJOC@LootingTime?$AA@ DB 'LootingTime', 00H ; `string'
CONST	ENDS
;	COMDAT ??_C@_0BF@PPOFPHOE@Monster?5HP?5set?5to?5?$CFd?$AA@
CONST	SEGMENT
??_C@_0BF@PPOFPHOE@Monster?5HP?5set?5to?5?$CFd?$AA@ DB 'Monster HP set to'
	DB	' %d', 00H					; `string'
CONST	ENDS
;	COMDAT ??_C@_09LNOLFHKA@MonsterHp?$AA@
CONST	SEGMENT
??_C@_09LNOLFHKA@MonsterHp?$AA@ DB 'MonsterHp', 00H	; `string'
CONST	ENDS
;	COMDAT ??_C@_0BC@FCDMLPNF@PK?5Time?5set?5to?5?$CFd?$AA@
CONST	SEGMENT
??_C@_0BC@FCDMLPNF@PK?5Time?5set?5to?5?$CFd?$AA@ DB 'PK Time set to %d', 00H ; `string'
CONST	ENDS
;	COMDAT ??_C@_06PKBKOIPG@PKTIME?$AA@
CONST	SEGMENT
??_C@_06PKBKOIPG@PKTIME?$AA@ DB 'PKTIME', 00H		; `string'
CONST	ENDS
;	COMDAT ??_C@_0CD@DBODMHPC@?$FLOption?$FN?5AttackEventRegenTime?5?$DN?5@
CONST	SEGMENT
??_C@_0CD@DBODMHPC@?$FLOption?$FN?5AttackEventRegenTime?5?$DN?5@ DB '[Opt'
	DB	'ion] AttackEventRegenTime = %d', 00H	; `string'
CONST	ENDS
;	COMDAT ??_C@_0BP@BODHCMPI@?$FLOption?$FN?5ChaosEventServer?5?$DN?5?$CFs?$AA@
CONST	SEGMENT
??_C@_0BP@BODHCMPI@?$FLOption?$FN?5ChaosEventServer?5?$DN?5?$CFs?$AA@ DB '['
	DB	'Option] ChaosEventServer = %s', 00H		; `string'
CONST	ENDS
;	COMDAT ??_C@_0BJ@BDPEJKAD@?$FLOption?$FN?5ChaosEvent?5?$DN?5?$CFd?$AA@
CONST	SEGMENT
??_C@_0BJ@BDPEJKAD@?$FLOption?$FN?5ChaosEvent?5?$DN?5?$CFd?$AA@ DB '[Opti'
	DB	'on] ChaosEvent = %d', 00H			; `string'
CONST	ENDS
;	COMDAT ??_C@_0BH@HMHMODEL@?$FLOption?$FN?5ChaosBox?5?$DN?5?$CFd?$AA@
CONST	SEGMENT
??_C@_0BH@HMHMODEL@?$FLOption?$FN?5ChaosBox?5?$DN?5?$CFd?$AA@ DB '[Option'
	DB	'] ChaosBox = %d', 00H			; `string'
CONST	ENDS
;	COMDAT ??_C@_0BB@LFFJPGMP@ChaosEventServer?$AA@
CONST	SEGMENT
??_C@_0BB@LFFJPGMP@ChaosEventServer?$AA@ DB 'ChaosEventServer', 00H ; `string'
CONST	ENDS
;	COMDAT ??_C@_09PFCHIMEP@127?40?40?41?$AA@
CONST	SEGMENT
??_C@_09PFCHIMEP@127?40?40?41?$AA@ DB '127.0.0.1', 00H	; `string'
CONST	ENDS
;	COMDAT ??_C@_0L@KKFEELGG@ChaosEvent?$AA@
CONST	SEGMENT
??_C@_0L@KKFEELGG@ChaosEvent?$AA@ DB 'ChaosEvent', 00H	; `string'
CONST	ENDS
;	COMDAT ??_C@_0BK@CKGGLAII@Cant?5trade?5on?5this?5server?$AA@
CONST	SEGMENT
??_C@_0BK@CKGGLAII@Cant?5trade?5on?5this?5server?$AA@ DB 'Cant trade on t'
	DB	'his server', 00H				; `string'
CONST	ENDS
;	COMDAT ??_C@_0BB@NLGBCHJO@Allowed?5to?5trade?$AA@
CONST	SEGMENT
??_C@_0BB@NLGBCHJO@Allowed?5to?5trade?$AA@ DB 'Allowed to trade', 00H ; `string'
CONST	ENDS
;	COMDAT ??_C@_0BA@PFGDHKCH@ItemSerialCheck?$AA@
CONST	SEGMENT
??_C@_0BA@PFGDHKCH@ItemSerialCheck?$AA@ DB 'ItemSerialCheck', 00H ; `string'
CONST	ENDS
;	COMDAT ??_C@_0BF@KDFHAHG@SpeedHackPlayerBlock?$AA@
CONST	SEGMENT
??_C@_0BF@KDFHAHG@SpeedHackPlayerBlock?$AA@ DB 'SpeedHackPlayerBlock', 00H ; `string'
CONST	ENDS
;	COMDAT ??_C@_0BJ@HLCGGCOP@ServerGroupGuildChatting?$AA@
CONST	SEGMENT
??_C@_0BJ@HLCGGCOP@ServerGroupGuildChatting?$AA@ DB 'ServerGroupGuildChat'
	DB	'ting', 00H					; `string'
CONST	ENDS
;	COMDAT ??_C@_0CM@HGFFPJNE@?$FLOption?5Reload?$FN?5?$KB?Z?$KB?Z?$KB?Z?5MaxUser?5?$KB@
CONST	SEGMENT
??_C@_0CM@HGFFPJNE@?$FLOption?5Reload?$FN?5?$KB?Z?$KB?Z?$KB?Z?5MaxUser?5?$KB@ DB '['
	DB	'Option Reload] ', 0a1H, 0daH, 0a1H, 0daH, 0a1H, 0daH, ' MaxUs'
	DB	'er ', 0a1H, 0d9H, 0a1H, 0d9H, 0a1H, 0d9H, '  : %d', 00H ; `string'
CONST	ENDS
;	COMDAT ??_C@_0BA@IJNIFGCF@NumberOfMaxUser?$AA@
CONST	SEGMENT
??_C@_0BA@IJNIFGCF@NumberOfMaxUser?$AA@ DB 'NumberOfMaxUser', 00H ; `string'
CONST	ENDS
;	COMDAT ??_C@_0BI@ONKCMGBI@CharacterDeleteMinLevel?$AA@
CONST	SEGMENT
??_C@_0BI@ONKCMGBI@CharacterDeleteMinLevel?$AA@ DB 'CharacterDeleteMinLev'
	DB	'el', 00H					; `string'
CONST	ENDS
;	COMDAT ??_C@_02PMJKFNFC@40?$AA@
CONST	SEGMENT
??_C@_02PMJKFNFC@40?$AA@ DB '40', 00H			; `string'
CONST	ENDS
;	COMDAT ??_C@_0BG@OHJHEJDE@SkillAdditionInfo?4dat?$AA@
CONST	SEGMENT
??_C@_0BG@OHJHEJDE@SkillAdditionInfo?4dat?$AA@ DB 'SkillAdditionInfo.dat', 00H ; `string'
CONST	ENDS
;	COMDAT ??_C@_01LFCBOECM@?4?$AA@
CONST	SEGMENT
??_C@_01LFCBOECM@?4?$AA@ DB '.', 00H			; `string'
CONST	ENDS
;	COMDAT ??_C@_0BA@JHAHNEJ@ClientExeSerial?$AA@
CONST	SEGMENT
??_C@_0BA@JHAHNEJ@ClientExeSerial?$AA@ DB 'ClientExeSerial', 00H ; `string'
CONST	ENDS
;	COMDAT ??_C@_0BB@FBDFNIJB@ClientExeVersion?$AA@
CONST	SEGMENT
??_C@_0BB@FBDFNIJB@ClientExeVersion?$AA@ DB 'ClientExeVersion', 00H ; `string'
CONST	ENDS
;	COMDAT ??_C@_0CA@MAJLFLOB@?4?4?2data?2lang?2Kor?2quest?$CIKor?$CJ?4txt?$AA@
CONST	SEGMENT
??_C@_0CA@MAJLFLOB@?4?4?2data?2lang?2Kor?2quest?$CIKor?$CJ?4txt?$AA@ DB '.'
	DB	'.\data\lang\Kor\quest(Kor).txt', 00H	; `string'
CONST	ENDS
;	COMDAT ??_C@_0BC@FGIEIEFL@ConnectMember?4txt?$AA@
CONST	SEGMENT
??_C@_0BC@FGIEIEFL@ConnectMember?4txt?$AA@ DB 'ConnectMember.txt', 00H ; `string'
CONST	ENDS
;	COMDAT ??_C@_0O@MOJICEJC@MoveLevel?4txt?$AA@
CONST	SEGMENT
??_C@_0O@MOJICEJC@MoveLevel?4txt?$AA@ DB 'MoveLevel.txt', 00H ; `string'
CONST	ENDS
;	COMDAT ??_C@_0CC@EFPCADGB@?4?4?2data?2lang?2Kor?2movereq?$CIkor?$CJ?4tx@
CONST	SEGMENT
??_C@_0CC@EFPCADGB@?4?4?2data?2lang?2Kor?2movereq?$CIkor?$CJ?4tx@ DB '..\'
	DB	'data\lang\Kor\movereq(kor).txt', 00H	; `string'
CONST	ENDS
;	COMDAT ??_C@_0CG@BFLHEFAB@?4?4?2data?2lang?2Kor?2itemsettype?$CIKor@
CONST	SEGMENT
??_C@_0CG@BFLHEFAB@?4?4?2data?2lang?2Kor?2itemsettype?$CIKor@ DB '..\data'
	DB	'\lang\Kor\itemsettype(Kor).txt', 00H	; `string'
CONST	ENDS
;	COMDAT ??_C@_0CI@GIEFOAO@?4?4?2data?2lang?2Kor?2itemsetoption?$CIK@
CONST	SEGMENT
??_C@_0CI@GIEFOAO@?4?4?2data?2lang?2Kor?2itemsetoption?$CIK@ DB '..\data\'
	DB	'lang\Kor\itemsetoption(Kor).txt', 00H	; `string'
CONST	ENDS
;	COMDAT ??_C@_0P@POAMAGDJ@skillElect?4hit?$AA@
CONST	SEGMENT
??_C@_0P@POAMAGDJ@skillElect?4hit?$AA@ DB 'skillElect.hit', 00H ; `string'
CONST	ENDS
;	COMDAT ??_C@_0P@NPIOLEMH@skillSpear?4hit?$AA@
CONST	SEGMENT
??_C@_0P@NPIOLEMH@skillSpear?4hit?$AA@ DB 'skillSpear.hit', 00H ; `string'
CONST	ENDS
;	COMDAT ??_C@_0CA@DFDHGNGE@?4?4?2data?2lang?2Kor?2skill?$CIKor?$CJ?4txt?$AA@
CONST	SEGMENT
??_C@_0CA@DFDHGNGE@?4?4?2data?2lang?2Kor?2skill?$CIKor?$CJ?4txt?$AA@ DB '.'
	DB	'.\data\lang\Kor\skill(Kor).txt', 00H	; `string'
CONST	ENDS
;	COMDAT ??_C@_0BP@GKCHNKMH@?4?4?2data?2lang?2Kor?2item?$CIKor?$CJ?4txt?$AA@
CONST	SEGMENT
??_C@_0BP@GKCHNKMH@?4?4?2data?2lang?2Kor?2item?$CIKor?$CJ?4txt?$AA@ DB '.'
	DB	'.\data\lang\Kor\item(Kor).txt', 00H		; `string'
CONST	ENDS
;	COMDAT ??_C@_0BF@KFCGLLGL@PK?5Limit?5Free?5Server?$AA@
CONST	SEGMENT
??_C@_0BF@KFCGLLGL@PK?5Limit?5Free?5Server?$AA@ DB 'PK Limit Free Server', 00H ; `string'
CONST	ENDS
;	COMDAT ??_C@_0M@DKICACGN@PkLimitFree?$AA@
CONST	SEGMENT
??_C@_0M@DKICACGN@PkLimitFree?$AA@ DB 'PkLimitFree', 00H ; `string'
CONST	ENDS
;	COMDAT ??_C@_0O@GCDDIMLO@NON?9PK?5Server?$AA@
CONST	SEGMENT
??_C@_0O@GCDDIMLO@NON?9PK?5Server?$AA@ DB 'NON-PK Server', 00H ; `string'
CONST	ENDS
;	COMDAT ??_C@_05MEMFONJC@NonPK?$AA@
CONST	SEGMENT
??_C@_05MEMFONJC@NonPK?$AA@ DB 'NonPK', 00H		; `string'
CONST	ENDS
;	COMDAT ??_C@_0BH@BBKIGHND@lang?2tha?2commonloc?4cfg?$AA@
CONST	SEGMENT
??_C@_0BH@BBKIGHND@lang?2tha?2commonloc?4cfg?$AA@ DB 'lang\tha\commonloc.'
	DB	'cfg', 00H					; `string'
CONST	ENDS
;	COMDAT ??_C@_0BG@MKEGOHAG@lang?2tha?2CheckSum?4dat?$AA@
CONST	SEGMENT
??_C@_0BG@MKEGOHAG@lang?2tha?2CheckSum?4dat?$AA@ DB 'lang\tha\CheckSum.da'
	DB	't', 00H					; `string'
CONST	ENDS
;	COMDAT ??_C@_0BK@OAOFLAMH@lang?2tha?2movereq?$CItha?$CJ?4txt?$AA@
CONST	SEGMENT
??_C@_0BK@OAOFLAMH@lang?2tha?2movereq?$CItha?$CJ?4txt?$AA@ DB 'lang\tha\m'
	DB	'overeq(tha).txt', 00H			; `string'
CONST	ENDS
;	COMDAT ??_C@_0BI@PPCLJHOL@lang?2tha?2Quest?$CItha?$CJ?4txt?$AA@
CONST	SEGMENT
??_C@_0BI@PPCLJHOL@lang?2tha?2Quest?$CItha?$CJ?4txt?$AA@ DB 'lang\tha\Que'
	DB	'st(tha).txt', 00H				; `string'
CONST	ENDS
;	COMDAT ??_C@_0BI@ICECJPPA@lang?2tha?2skill?$CItha?$CJ?4txt?$AA@
CONST	SEGMENT
??_C@_0BI@ICECJPPA@lang?2tha?2skill?$CItha?$CJ?4txt?$AA@ DB 'lang\tha\ski'
	DB	'll(tha).txt', 00H				; `string'
CONST	ENDS
;	COMDAT ??_C@_0BH@BDPKPKJK@lang?2tha?2item?$CItha?$CJ?4txt?$AA@
CONST	SEGMENT
??_C@_0BH@BDPKPKJK@lang?2tha?2item?$CItha?$CJ?4txt?$AA@ DB 'lang\tha\item'
	DB	'(tha).txt', 00H				; `string'
CONST	ENDS
;	COMDAT ??_C@_0BA@CIFGKAHN@message_tha?4wtf?$AA@
CONST	SEGMENT
??_C@_0BA@CIFGKAHN@message_tha?4wtf?$AA@ DB 'message_tha.wtf', 00H ; `string'
CONST	ENDS
;	COMDAT ??_C@_0BH@DANHMEB@lang?2tai?2commonloc?4cfg?$AA@
CONST	SEGMENT
??_C@_0BH@DANHMEB@lang?2tai?2commonloc?4cfg?$AA@ DB 'lang\tai\commonloc.c'
	DB	'fg', 00H					; `string'
CONST	ENDS
;	COMDAT ??_C@_0BG@NILECFFP@lang?2tai?2CheckSum?4dat?$AA@
CONST	SEGMENT
??_C@_0BG@NILECFFP@lang?2tai?2CheckSum?4dat?$AA@ DB 'lang\tai\CheckSum.da'
	DB	't', 00H					; `string'
CONST	ENDS
;	COMDAT ??_C@_0BK@DNFIBFPK@lang?2tai?2movereq?$CItai?$CJ?4txt?$AA@
CONST	SEGMENT
??_C@_0BK@DNFIBFPK@lang?2tai?2movereq?$CItai?$CJ?4txt?$AA@ DB 'lang\tai\m'
	DB	'overeq(tai).txt', 00H			; `string'
CONST	ENDS
;	COMDAT ??_C@_0BI@MNJIJFNE@lang?2tai?2Quest?$CItai?$CJ?4txt?$AA@
CONST	SEGMENT
??_C@_0BI@MNJIJFNE@lang?2tai?2Quest?$CItai?$CJ?4txt?$AA@ DB 'lang\tai\Que'
	DB	'st(tai).txt', 00H				; `string'
CONST	ENDS
;	COMDAT ??_C@_0BI@LAPBJNMP@lang?2tai?2skill?$CItai?$CJ?4txt?$AA@
CONST	SEGMENT
??_C@_0BI@LAPBJNMP@lang?2tai?2skill?$CItai?$CJ?4txt?$AA@ DB 'lang\tai\ski'
	DB	'll(tai).txt', 00H				; `string'
CONST	ENDS
;	COMDAT ??_C@_0BH@CNPPLEEE@lang?2tai?2item?$CItai?$CJ?4txt?$AA@
CONST	SEGMENT
??_C@_0BH@CNPPLEEE@lang?2tai?2item?$CItai?$CJ?4txt?$AA@ DB 'lang\tai\item'
	DB	'(tai).txt', 00H				; `string'
CONST	ENDS
;	COMDAT ??_C@_0BA@FBJNGHMD@message_tai?4wtf?$AA@
CONST	SEGMENT
??_C@_0BA@FBJNGHMD@message_tai?4wtf?$AA@ DB 'message_tai.wtf', 00H ; `string'
CONST	ENDS
;	COMDAT ??_C@_0BH@LPKCCKFC@lang?2chs?2commonloc?4cfg?$AA@
CONST	SEGMENT
??_C@_0BH@LPKCCKFC@lang?2chs?2commonloc?4cfg?$AA@ DB 'lang\chs\commonloc.'
	DB	'cfg', 00H					; `string'
CONST	ENDS
;	COMDAT ??_C@_0BG@BBGBCMOO@lang?2chs?2CheckSum?4dat?$AA@
CONST	SEGMENT
??_C@_0BG@BBGBCMOO@lang?2chs?2CheckSum?4dat?$AA@ DB 'lang\chs\CheckSum.da'
	DB	't', 00H					; `string'
CONST	ENDS
;	COMDAT ??_C@_0BK@JNPALLNH@lang?2chs?2movereq?$CIchs?$CJ?4txt?$AA@
CONST	SEGMENT
??_C@_0BK@JNPALLNH@lang?2chs?2movereq?$CIchs?$CJ?4txt?$AA@ DB 'lang\chs\m'
	DB	'overeq(chs).txt', 00H			; `string'
CONST	ENDS
;	COMDAT ??_C@_0BI@FNNKIMEP@lang?2chs?2Quest?$CIchs?$CJ?4txt?$AA@
CONST	SEGMENT
??_C@_0BI@FNNKIMEP@lang?2chs?2Quest?$CIchs?$CJ?4txt?$AA@ DB 'lang\chs\Que'
	DB	'st(chs).txt', 00H				; `string'
CONST	ENDS
;	COMDAT ??_C@_0BI@CALDIEFE@lang?2chs?2skill?$CIchs?$CJ?4txt?$AA@
CONST	SEGMENT
??_C@_0BI@CALDIEFE@lang?2chs?2skill?$CIchs?$CJ?4txt?$AA@ DB 'lang\chs\ski'
	DB	'll(chs).txt', 00H				; `string'
CONST	ENDS
;	COMDAT ??_C@_0BH@IFBABFEE@lang?2chs?2item?$CIchs?$CJ?4txt?$AA@
CONST	SEGMENT
??_C@_0BH@IFBABFEE@lang?2chs?2item?$CIchs?$CJ?4txt?$AA@ DB 'lang\chs\item'
	DB	'(chs).txt', 00H				; `string'
CONST	ENDS
;	COMDAT ??_C@_0BA@BADGDLNP@message_chs?4wtf?$AA@
CONST	SEGMENT
??_C@_0BA@BADGDLNP@message_chs?4wtf?$AA@ DB 'message_chs.wtf', 00H ; `string'
CONST	ENDS
;	COMDAT ??_C@_0BH@FJINJIJL@lang?2jpn?2commonloc?4cfg?$AA@
CONST	SEGMENT
??_C@_0BH@FJINJIJL@lang?2jpn?2commonloc?4cfg?$AA@ DB 'lang\jpn\commonloc.'
	DB	'cfg', 00H					; `string'
CONST	ENDS
;	COMDAT ??_C@_0BG@FNIPOEKB@lang?2jpn?2CheckSum?4dat?$AA@
CONST	SEGMENT
??_C@_0BG@FNIPOEKB@lang?2jpn?2CheckSum?4dat?$AA@ DB 'lang\jpn\CheckSum.da'
	DB	't', 00H					; `string'
CONST	ENDS
;	COMDAT ??_C@_0BK@HLFIIGFG@lang?2jpn?2movereq?$CIjpn?$CJ?4txt?$AA@
CONST	SEGMENT
??_C@_0BK@HLFIIGFG@lang?2jpn?2movereq?$CIjpn?$CJ?4txt?$AA@ DB 'lang\jpn\m'
	DB	'overeq(jpn).txt', 00H			; `string'
CONST	ENDS
;	COMDAT ??_C@_0BI@LKHALICC@lang?2jpn?2Quest?$CIjpn?$CJ?4txt?$AA@
CONST	SEGMENT
??_C@_0BI@LKHALICC@lang?2jpn?2Quest?$CIjpn?$CJ?4txt?$AA@ DB 'lang\jpn\Que'
	DB	'st(jpn).txt', 00H				; `string'
CONST	ENDS
;	COMDAT ??_C@_0BI@MHBJLADJ@lang?2jpn?2skill?$CIjpn?$CJ?4txt?$AA@
CONST	SEGMENT
??_C@_0BI@MHBJLADJ@lang?2jpn?2skill?$CIjpn?$CJ?4txt?$AA@ DB 'lang\jpn\ski'
	DB	'll(jpn).txt', 00H				; `string'
CONST	ENDS
;	COMDAT ??_C@_0BH@GGMLMGEG@lang?2jpn?2item?$CIjpn?$CJ?4txt?$AA@
CONST	SEGMENT
??_C@_0BH@GGMLMGEG@lang?2jpn?2item?$CIjpn?$CJ?4txt?$AA@ DB 'lang\jpn\item'
	DB	'(jpn).txt', 00H				; `string'
CONST	ENDS
;	COMDAT ??_C@_0BA@OEAAODBI@message_jpn?4wtf?$AA@
CONST	SEGMENT
??_C@_0BA@OEAAODBI@message_jpn?4wtf?$AA@ DB 'message_jpn.wtf', 00H ; `string'
CONST	ENDS
;	COMDAT ??_C@_0BH@CEPMFDMG@lang?2eng?2commonloc?4cfg?$AA@
CONST	SEGMENT
??_C@_0BH@CEPMFDMG@lang?2eng?2commonloc?4cfg?$AA@ DB 'lang\eng\commonloc.'
	DB	'cfg', 00H					; `string'
CONST	ENDS
;	COMDAT ??_C@_0BG@CLNKAICO@lang?2eng?2CheckSum?4dat?$AA@
CONST	SEGMENT
??_C@_0BG@CLNKAICO@lang?2eng?2CheckSum?4dat?$AA@ DB 'lang\eng\CheckSum.da'
	DB	't', 00H					; `string'
CONST	ENDS
;	COMDAT ??_C@_0BK@LBNBFPFP@lang?2eng?2movereq?$CIEng?$CJ?4txt?$AA@
CONST	SEGMENT
??_C@_0BK@LBNBFPFP@lang?2eng?2movereq?$CIEng?$CJ?4txt?$AA@ DB 'lang\eng\m'
	DB	'overeq(Eng).txt', 00H			; `string'
CONST	ENDS
;	COMDAT ??_C@_0BI@IMMHENLL@lang?2eng?2Quest?$CIeng?$CJ?4txt?$AA@
CONST	SEGMENT
??_C@_0BI@IMMHENLL@lang?2eng?2Quest?$CIeng?$CJ?4txt?$AA@ DB 'lang\eng\Que'
	DB	'st(eng).txt', 00H				; `string'
CONST	ENDS
;	COMDAT ??_C@_0BI@PBKOEFKA@lang?2eng?2skill?$CIeng?$CJ?4txt?$AA@
CONST	SEGMENT
??_C@_0BI@PBKOEFKA@lang?2eng?2skill?$CIeng?$CJ?4txt?$AA@ DB 'lang\eng\ski'
	DB	'll(eng).txt', 00H				; `string'
CONST	ENDS
;	COMDAT ??_C@_0BH@DIKKKEAA@lang?2eng?2item?$CIeng?$CJ?4txt?$AA@
CONST	SEGMENT
??_C@_0BH@DIKKKEAA@lang?2eng?2item?$CIeng?$CJ?4txt?$AA@ DB 'lang\eng\item'
	DB	'(eng).txt', 00H				; `string'
CONST	ENDS
;	COMDAT ??_C@_0BA@CNMOEHOP@message_eng?4wtf?$AA@
CONST	SEGMENT
??_C@_0BA@CNMOEHOP@message_eng?4wtf?$AA@ DB 'message_eng.wtf', 00H ; `string'
CONST	ENDS
;	COMDAT ??_C@_0BH@CGAJGJIE@lang?2kor?2commonloc?4cfg?$AA@
CONST	SEGMENT
??_C@_0BH@CGAJGJIE@lang?2kor?2commonloc?4cfg?$AA@ DB 'lang\kor\commonloc.'
	DB	'cfg', 00H					; `string'
CONST	ENDS
;	COMDAT ??_C@_0BK@BLDPLGHM@lang?2kor?2movereq?$CIKor?$CJ?4txt?$AA@
CONST	SEGMENT
??_C@_0BK@BLDPLGHM@lang?2kor?2movereq?$CIKor?$CJ?4txt?$AA@ DB 'lang\kor\m'
	DB	'overeq(Kor).txt', 00H			; `string'
CONST	ENDS
;	COMDAT ??_C@_0BG@LDHDEAON@lang?2kor?2CheckSum?4dat?$AA@
CONST	SEGMENT
??_C@_0BG@LDHDEAON@lang?2kor?2CheckSum?4dat?$AA@ DB 'lang\kor\CheckSum.da'
	DB	't', 00H					; `string'
CONST	ENDS
;	COMDAT ??_C@_0BI@KHGIHCPL@lang?2kor?2Quest?$CIKor?$CJ?4txt?$AA@
CONST	SEGMENT
??_C@_0BI@KHGIHCPL@lang?2kor?2Quest?$CIKor?$CJ?4txt?$AA@ DB 'lang\kor\Que'
	DB	'st(Kor).txt', 00H				; `string'
CONST	ENDS
;	COMDAT ??_C@_0BA@MNCIMNEB@message_kor?4wtf?$AA@
CONST	SEGMENT
??_C@_0BA@MNCIMNEB@message_kor?4wtf?$AA@ DB 'message_kor.wtf', 00H ; `string'
CONST	ENDS
;	COMDAT ??_C@_0BI@FIPAPIED@lang?2kor?2skill?$CIkor?$CJ?4txt?$AA@
CONST	SEGMENT
??_C@_0BI@FIPAPIED@lang?2kor?2skill?$CIkor?$CJ?4txt?$AA@ DB 'lang\kor\ski'
	DB	'll(kor).txt', 00H				; `string'
CONST	ENDS
;	COMDAT ??_C@_0BH@LNBPGCH@lang?2kor?2item?$CIkor?$CJ?4txt?$AA@
CONST	SEGMENT
??_C@_0BH@LNBPGCH@lang?2kor?2item?$CIkor?$CJ?4txt?$AA@ DB 'lang\kor\item('
	DB	'kor).txt', 00H				; `string'
CONST	ENDS
;	COMDAT ??_C@_0BI@CDOIIEIH@Enc2?4dat?5file?5not?5found?$AA@
CONST	SEGMENT
??_C@_0BI@CDOIIEIH@Enc2?4dat?5file?5not?5found?$AA@ DB 'Enc2.dat file not'
	DB	' found', 00H				; `string'
CONST	ENDS
;	COMDAT ??_C@_08HDINADJK@Enc2?4dat?$AA@
CONST	SEGMENT
??_C@_08HDINADJK@Enc2?4dat?$AA@ DB 'Enc2.dat', 00H	; `string'
CONST	ENDS
;	COMDAT ??_C@_0BI@KPIPBJFI@Dec1?4dat?5file?5not?5found?$AA@
CONST	SEGMENT
??_C@_0BI@KPIPBJFI@Dec1?4dat?5file?5not?5found?$AA@ DB 'Dec1.dat file not'
	DB	' found', 00H				; `string'
CONST	ENDS
;	COMDAT ??_C@_08LPAIHJCB@Dec1?4dat?$AA@
CONST	SEGMENT
??_C@_08LPAIHJCB@Dec1?4dat?$AA@ DB 'Dec1.dat', 00H	; `string'
CONST	ENDS
;	COMDAT ??_C@_0BK@KJGDFNAO@Stalk?5Protocol?5ID?5?$DN?5?8?$CFs?8?5?$AA@
CONST	SEGMENT
??_C@_0BK@KJGDFNAO@Stalk?5Protocol?5ID?5?$DN?5?8?$CFs?8?5?$AA@ DB 'Stalk '
	DB	'Protocol ID = ''%s'' ', 00H			; `string'
CONST	ENDS
;	COMDAT ??_C@_0BA@GELKBKKC@StalkProtocolId?$AA@
CONST	SEGMENT
??_C@_0BA@GELKBKKC@StalkProtocolId?$AA@ DB 'StalkProtocolId', 00H ; `string'
CONST	ENDS
;	COMDAT ??_C@_0O@GAFBBPE@StalkProtocol?$AA@
CONST	SEGMENT
??_C@_0O@GAFBBPE@StalkProtocol?$AA@ DB 'StalkProtocol', 00H ; `string'
CONST	ENDS
;	COMDAT ??_C@_08BENDAOKD@Language?$AA@
CONST	SEGMENT
??_C@_08BENDAOKD@Language?$AA@ DB 'Language', 00H	; `string'
CONST	ENDS
;	COMDAT ??_C@_0CC@JCDJGIAD@?$FLcommonserver?4cfg?$FN?5file?5not?5foun@
CONST	SEGMENT
??_C@_0CC@JCDJGIAD@?$FLcommonserver?4cfg?$FN?5file?5not?5foun@ DB '[commo'
	DB	'nserver.cfg] file not found', 00H		; `string'
CONST	ENDS
;	COMDAT ??_C@_0BB@JLNNBFPM@?4?4?2data?2Gate?4txt?$AA@
CONST	SEGMENT
??_C@_0BB@JLNNBFPM@?4?4?2data?2Gate?4txt?$AA@ DB '..\data\Gate.txt', 00H ; `string'
; Function compile flags: /Ogtp
CONST	ENDS
;	COMDAT ?ReadCommonServerInfo@@YAXXZ
_TEXT	SEGMENT
_szDiplayGSInfo$ = -1284				; size = 512
_szlMsgName$ = -772					; size = 256
_szCheckSum$ = -516					; size = 256
_szTemp$ = -260						; size = 256
__$ArrayPad$ = -4					; size = 4
?ReadCommonServerInfo@@YAXXZ PROC			; ReadCommonServerInfo, COMDAT

; 1031 : {

  00000	55		 push	 ebp
  00001	8b ec		 mov	 ebp, esp
  00003	81 ec 04 05 00
	00		 sub	 esp, 1284		; 00000504H
  00009	a1 00 00 00 00	 mov	 eax, DWORD PTR ___security_cookie
  0000e	33 c5		 xor	 eax, ebp
  00010	89 45 fc	 mov	 DWORD PTR __$ArrayPad$[ebp], eax

; 1032 : 	char szTemp[256];
; 1033 : 	char szCheckSum[256];
; 1034 : 	char* cvstr;
; 1035 : 	char szlMsgName[256];
; 1036 : 
; 1037 : 	ReadServerInfo();

  00013	e8 00 00 00 00	 call	 ?ReadServerInfo@@YAXXZ	; ReadServerInfo

; 1038 : 	
; 1039 : 	gGateC.Load("..\\data\\Gate.txt");

  00018	68 00 00 00 00	 push	 OFFSET ??_C@_0BB@JLNNBFPM@?4?4?2data?2Gate?4txt?$AA@
  0001d	b9 00 00 00 00	 mov	 ecx, OFFSET ?gGateC@@3VCGate@@A ; gGateC
  00022	e8 00 00 00 00	 call	 ?Load@CGate@@QAEXPAD@Z	; CGate::Load

; 1040 : 
; 1041 : 	if(!IsFile(gDirPath.GetNewPath("commonserver.cfg")))

  00027	68 00 00 00 00	 push	 OFFSET ??_C@_0BB@IGLHFEOF@commonserver?4cfg?$AA@
  0002c	b9 00 00 00 00	 mov	 ecx, OFFSET ?gDirPath@@3VCDirPath@@A ; gDirPath
  00031	e8 00 00 00 00	 call	 ?GetNewPath@CDirPath@@QAEPADPAD@Z ; CDirPath::GetNewPath
  00036	50		 push	 eax
  00037	e8 00 00 00 00	 call	 ?IsFile@@YAHPAD@Z	; IsFile
  0003c	83 c4 04	 add	 esp, 4
  0003f	85 c0		 test	 eax, eax
  00041	75 0d		 jne	 SHORT $LN33@ReadCommon

; 1042 : 	{
; 1043 : 		MsgBox("[commonserver.cfg] file not found");

  00043	68 00 00 00 00	 push	 OFFSET ??_C@_0CC@JCDJGIAD@?$FLcommonserver?4cfg?$FN?5file?5not?5foun@
  00048	e8 00 00 00 00	 call	 ?MsgBox@@YAXPADZZ	; MsgBox
  0004d	83 c4 04	 add	 esp, 4
$LN33@ReadCommon:

; 1044 : 	}
; 1045 : 
; 1046 : 	GetPrivateProfileString("GameServerInfo", "Language", "0", szTemp, 5, gDirPath.GetNewPath("commonserver.cfg"));

  00050	56		 push	 esi
  00051	57		 push	 edi
  00052	68 00 00 00 00	 push	 OFFSET ??_C@_0BB@IGLHFEOF@commonserver?4cfg?$AA@
  00057	b9 00 00 00 00	 mov	 ecx, OFFSET ?gDirPath@@3VCDirPath@@A ; gDirPath
  0005c	e8 00 00 00 00	 call	 ?GetNewPath@CDirPath@@QAEPADPAD@Z ; CDirPath::GetNewPath
  00061	8b 3d 00 00 00
	00		 mov	 edi, DWORD PTR __imp__GetPrivateProfileStringA@24
  00067	50		 push	 eax
  00068	6a 05		 push	 5
  0006a	8d 85 fc fe ff
	ff		 lea	 eax, DWORD PTR _szTemp$[ebp]
  00070	50		 push	 eax
  00071	68 00 00 00 00	 push	 OFFSET ??_C@_01GBGANLPD@0?$AA@
  00076	68 00 00 00 00	 push	 OFFSET ??_C@_08BENDAOKD@Language?$AA@
  0007b	68 00 00 00 00	 push	 OFFSET ??_C@_0P@EMJDPFDH@GameServerInfo?$AA@
  00080	ff d7		 call	 edi

; 1047 : 	gLanguage = atoi(szTemp);

  00082	8d 8d fc fe ff
	ff		 lea	 ecx, DWORD PTR _szTemp$[ebp]
  00088	51		 push	 ecx
  00089	e8 00 00 00 00	 call	 _atoi
  0008e	83 c4 04	 add	 esp, 4

; 1048 : 	gStalkProtocol	= GetPrivateProfileInt("GameServerInfo","StalkProtocol",0,gDirPath.GetNewPath("commonserver.cfg"));

  00091	68 00 00 00 00	 push	 OFFSET ??_C@_0BB@IGLHFEOF@commonserver?4cfg?$AA@
  00096	b9 00 00 00 00	 mov	 ecx, OFFSET ?gDirPath@@3VCDirPath@@A ; gDirPath
  0009b	a3 00 00 00 00	 mov	 DWORD PTR ?gLanguage@@3HA, eax ; gLanguage
  000a0	e8 00 00 00 00	 call	 ?GetNewPath@CDirPath@@QAEPADPAD@Z ; CDirPath::GetNewPath
  000a5	8b 35 00 00 00
	00		 mov	 esi, DWORD PTR __imp__GetPrivateProfileIntA@16
  000ab	50		 push	 eax
  000ac	6a 00		 push	 0
  000ae	68 00 00 00 00	 push	 OFFSET ??_C@_0O@GAFBBPE@StalkProtocol?$AA@
  000b3	68 00 00 00 00	 push	 OFFSET ??_C@_0P@EMJDPFDH@GameServerInfo?$AA@
  000b8	ff d6		 call	 esi

; 1049 : 	GetPrivateProfileString("GameServerInfo", "StalkProtocolId", "0", gStalkProtocolId, 10, gDirPath.GetNewPath("commonserver.cfg"));

  000ba	68 00 00 00 00	 push	 OFFSET ??_C@_0BB@IGLHFEOF@commonserver?4cfg?$AA@
  000bf	b9 00 00 00 00	 mov	 ecx, OFFSET ?gDirPath@@3VCDirPath@@A ; gDirPath
  000c4	a3 00 00 00 00	 mov	 DWORD PTR ?gStalkProtocol@@3HA, eax ; gStalkProtocol
  000c9	e8 00 00 00 00	 call	 ?GetNewPath@CDirPath@@QAEPADPAD@Z ; CDirPath::GetNewPath
  000ce	50		 push	 eax
  000cf	6a 0a		 push	 10			; 0000000aH
  000d1	68 00 00 00 00	 push	 OFFSET ?gStalkProtocolId@@3PADA ; gStalkProtocolId
  000d6	68 00 00 00 00	 push	 OFFSET ??_C@_01GBGANLPD@0?$AA@
  000db	68 00 00 00 00	 push	 OFFSET ??_C@_0BA@GELKBKKC@StalkProtocolId?$AA@
  000e0	68 00 00 00 00	 push	 OFFSET ??_C@_0P@EMJDPFDH@GameServerInfo?$AA@
  000e5	ff d7		 call	 edi

; 1050 : 
; 1051 : 	if(gStalkProtocol != 0)

  000e7	83 3d 00 00 00
	00 00		 cmp	 DWORD PTR ?gStalkProtocol@@3HA, 0 ; gStalkProtocol
  000ee	74 14		 je	 SHORT $LN32@ReadCommon

; 1052 : 	{
; 1053 : 		LogAdd(LOG_BLACK, "Stalk Protocol ID = '%s' ", gStalkProtocolId);

  000f0	68 00 00 00 00	 push	 OFFSET ?gStalkProtocolId@@3PADA ; gStalkProtocolId
  000f5	68 00 00 00 00	 push	 OFFSET ??_C@_0BK@KJGDFNAO@Stalk?5Protocol?5ID?5?$DN?5?8?$CFs?8?5?$AA@
  000fa	6a 00		 push	 0
  000fc	e8 00 00 00 00	 call	 ?LogAdd@@YAXW4eLogColor@@PADZZ ; LogAdd
  00101	83 c4 0c	 add	 esp, 12			; 0000000cH
$LN32@ReadCommon:

; 1054 : 	}
; 1055 : 
; 1056 : 	if(g_SimpleModulusCS.LoadDecryptionKey(gDirPath.GetNewPath("Dec1.dat")) == FALSE)

  00104	68 00 00 00 00	 push	 OFFSET ??_C@_08LPAIHJCB@Dec1?4dat?$AA@
  00109	b9 00 00 00 00	 mov	 ecx, OFFSET ?gDirPath@@3VCDirPath@@A ; gDirPath
  0010e	e8 00 00 00 00	 call	 ?GetNewPath@CDirPath@@QAEPADPAD@Z ; CDirPath::GetNewPath
  00113	50		 push	 eax
  00114	b9 00 00 00 00	 mov	 ecx, OFFSET ?g_SimpleModulusCS@@3VCSimpleModulus@@A ; g_SimpleModulusCS
  00119	e8 00 00 00 00	 call	 ?LoadDecryptionKey@CSimpleModulus@@QAEHPAD@Z ; CSimpleModulus::LoadDecryptionKey
  0011e	85 c0		 test	 eax, eax
  00120	75 0d		 jne	 SHORT $LN31@ReadCommon

; 1057 : 	{
; 1058 : 		MsgBox("Dec1.dat file not found");

  00122	68 00 00 00 00	 push	 OFFSET ??_C@_0BI@KPIPBJFI@Dec1?4dat?5file?5not?5found?$AA@
  00127	e8 00 00 00 00	 call	 ?MsgBox@@YAXPADZZ	; MsgBox
  0012c	83 c4 04	 add	 esp, 4
$LN31@ReadCommon:

; 1059 : 	}
; 1060 : 
; 1061 : 	if(g_SimpleModulusSC.LoadEncryptionKey(gDirPath.GetNewPath("Enc2.dat")) == FALSE)

  0012f	68 00 00 00 00	 push	 OFFSET ??_C@_08HDINADJK@Enc2?4dat?$AA@
  00134	b9 00 00 00 00	 mov	 ecx, OFFSET ?gDirPath@@3VCDirPath@@A ; gDirPath
  00139	e8 00 00 00 00	 call	 ?GetNewPath@CDirPath@@QAEPADPAD@Z ; CDirPath::GetNewPath
  0013e	50		 push	 eax
  0013f	b9 00 00 00 00	 mov	 ecx, OFFSET ?g_SimpleModulusSC@@3VCSimpleModulus@@A ; g_SimpleModulusSC
  00144	e8 00 00 00 00	 call	 ?LoadEncryptionKey@CSimpleModulus@@QAEHPAD@Z ; CSimpleModulus::LoadEncryptionKey
  00149	85 c0		 test	 eax, eax
  0014b	75 0d		 jne	 SHORT $LN30@ReadCommon

; 1062 : 	{
; 1063 : 		MsgBox("Enc2.dat file not found");

  0014d	68 00 00 00 00	 push	 OFFSET ??_C@_0BI@CDOIIEIH@Enc2?4dat?5file?5not?5found?$AA@
  00152	e8 00 00 00 00	 call	 ?MsgBox@@YAXPADZZ	; MsgBox
  00157	83 c4 04	 add	 esp, 4
$LN30@ReadCommon:

; 1064 : 	}
; 1065 : 
; 1066 : 	strcpy(szKorItemTextFileName, gDirPath.GetNewPath("lang\\kor\\item(kor).txt"));

  0015a	68 00 00 00 00	 push	 OFFSET ??_C@_0BH@LNBPGCH@lang?2kor?2item?$CIkor?$CJ?4txt?$AA@
  0015f	b9 00 00 00 00	 mov	 ecx, OFFSET ?gDirPath@@3VCDirPath@@A ; gDirPath
  00164	e8 00 00 00 00	 call	 ?GetNewPath@CDirPath@@QAEPADPAD@Z ; CDirPath::GetNewPath
  00169	ba 00 00 00 00	 mov	 edx, OFFSET ?szKorItemTextFileName@@3PADA ; szKorItemTextFileName
  0016e	2b d0		 sub	 edx, eax
$LL36@ReadCommon:
  00170	8a 08		 mov	 cl, BYTE PTR [eax]
  00172	88 0c 02	 mov	 BYTE PTR [edx+eax], cl
  00175	40		 inc	 eax
  00176	84 c9		 test	 cl, cl
  00178	75 f6		 jne	 SHORT $LL36@ReadCommon

; 1067 : 	strcpy(szKorSkillTextFileName, gDirPath.GetNewPath("lang\\kor\\skill(kor).txt"));

  0017a	68 00 00 00 00	 push	 OFFSET ??_C@_0BI@FIPAPIED@lang?2kor?2skill?$CIkor?$CJ?4txt?$AA@
  0017f	b9 00 00 00 00	 mov	 ecx, OFFSET ?gDirPath@@3VCDirPath@@A ; gDirPath
  00184	e8 00 00 00 00	 call	 ?GetNewPath@CDirPath@@QAEPADPAD@Z ; CDirPath::GetNewPath
  00189	ba 00 00 00 00	 mov	 edx, OFFSET ?szKorSkillTextFileName@@3PADA ; szKorSkillTextFileName
  0018e	2b d0		 sub	 edx, eax
$LL37@ReadCommon:
  00190	8a 08		 mov	 cl, BYTE PTR [eax]
  00192	88 0c 10	 mov	 BYTE PTR [eax+edx], cl
  00195	40		 inc	 eax
  00196	84 c9		 test	 cl, cl
  00198	75 f6		 jne	 SHORT $LL37@ReadCommon

; 1068 : 
; 1069 : 	switch(gLanguage)

  0019a	a1 00 00 00 00	 mov	 eax, DWORD PTR ?gLanguage@@3HA ; gLanguage
  0019f	83 f8 05	 cmp	 eax, 5
  001a2	0f 87 e2 05 00
	00		 ja	 $LN10@ReadCommon
  001a8	ff 24 85 00 00
	00 00		 jmp	 DWORD PTR $LN130@ReadCommon[eax*4]
$LN27@ReadCommon:

; 1070 : 	{
; 1071 : 		case 0: // Korea
; 1072 : 			strcpy(szlMsgName, gDirPath.GetNewPath("message_kor.wtf"));

  001af	68 00 00 00 00	 push	 OFFSET ??_C@_0BA@MNCIMNEB@message_kor?4wtf?$AA@
  001b4	b9 00 00 00 00	 mov	 ecx, OFFSET ?gDirPath@@3VCDirPath@@A ; gDirPath
  001b9	e8 00 00 00 00	 call	 ?GetNewPath@CDirPath@@QAEPADPAD@Z ; CDirPath::GetNewPath
  001be	8d 95 fc fc ff
	ff		 lea	 edx, DWORD PTR _szlMsgName$[ebp]
  001c4	2b d0		 sub	 edx, eax
$LL38@ReadCommon:
  001c6	8a 08		 mov	 cl, BYTE PTR [eax]
  001c8	88 0c 10	 mov	 BYTE PTR [eax+edx], cl
  001cb	40		 inc	 eax
  001cc	84 c9		 test	 cl, cl
  001ce	75 f6		 jne	 SHORT $LL38@ReadCommon

; 1073 : 			strcpy(szItemTextFileName, gDirPath.GetNewPath("lang\\kor\\item(kor).txt"));

  001d0	68 00 00 00 00	 push	 OFFSET ??_C@_0BH@LNBPGCH@lang?2kor?2item?$CIkor?$CJ?4txt?$AA@
  001d5	b9 00 00 00 00	 mov	 ecx, OFFSET ?gDirPath@@3VCDirPath@@A ; gDirPath
  001da	e8 00 00 00 00	 call	 ?GetNewPath@CDirPath@@QAEPADPAD@Z ; CDirPath::GetNewPath
  001df	ba 00 00 00 00	 mov	 edx, OFFSET ?szItemTextFileName@@3PADA ; szItemTextFileName
  001e4	2b d0		 sub	 edx, eax
$LL39@ReadCommon:
  001e6	8a 08		 mov	 cl, BYTE PTR [eax]
  001e8	88 0c 10	 mov	 BYTE PTR [eax+edx], cl
  001eb	40		 inc	 eax
  001ec	84 c9		 test	 cl, cl
  001ee	75 f6		 jne	 SHORT $LL39@ReadCommon

; 1074 : 			strcpy(szSkillTextFileName, gDirPath.GetNewPath("lang\\kor\\skill(kor).txt"));

  001f0	68 00 00 00 00	 push	 OFFSET ??_C@_0BI@FIPAPIED@lang?2kor?2skill?$CIkor?$CJ?4txt?$AA@
  001f5	b9 00 00 00 00	 mov	 ecx, OFFSET ?gDirPath@@3VCDirPath@@A ; gDirPath
  001fa	e8 00 00 00 00	 call	 ?GetNewPath@CDirPath@@QAEPADPAD@Z ; CDirPath::GetNewPath
  001ff	ba 00 00 00 00	 mov	 edx, OFFSET ?szSkillTextFileName@@3PADA ; szSkillTextFileName
  00204	2b d0		 sub	 edx, eax
$LL40@ReadCommon:
  00206	8a 08		 mov	 cl, BYTE PTR [eax]
  00208	88 0c 10	 mov	 BYTE PTR [eax+edx], cl
  0020b	40		 inc	 eax
  0020c	84 c9		 test	 cl, cl
  0020e	75 f6		 jne	 SHORT $LL40@ReadCommon

; 1075 : 			strcpy(szQuestTextFileName, gDirPath.GetNewPath("lang\\kor\\Quest(Kor).txt"));

  00210	68 00 00 00 00	 push	 OFFSET ??_C@_0BI@KHGIHCPL@lang?2kor?2Quest?$CIKor?$CJ?4txt?$AA@
  00215	b9 00 00 00 00	 mov	 ecx, OFFSET ?gDirPath@@3VCDirPath@@A ; gDirPath
  0021a	e8 00 00 00 00	 call	 ?GetNewPath@CDirPath@@QAEPADPAD@Z ; CDirPath::GetNewPath
  0021f	ba 00 00 00 00	 mov	 edx, OFFSET ?szQuestTextFileName@@3PADA ; szQuestTextFileName
  00224	2b d0		 sub	 edx, eax
$LL41@ReadCommon:
  00226	8a 08		 mov	 cl, BYTE PTR [eax]
  00228	88 0c 10	 mov	 BYTE PTR [eax+edx], cl
  0022b	40		 inc	 eax
  0022c	84 c9		 test	 cl, cl
  0022e	75 f6		 jne	 SHORT $LL41@ReadCommon

; 1076 : 			strcpy(szCheckSum, gDirPath.GetNewPath("lang\\kor\\CheckSum.dat"));

  00230	68 00 00 00 00	 push	 OFFSET ??_C@_0BG@LDHDEAON@lang?2kor?2CheckSum?4dat?$AA@
  00235	b9 00 00 00 00	 mov	 ecx, OFFSET ?gDirPath@@3VCDirPath@@A ; gDirPath
  0023a	e8 00 00 00 00	 call	 ?GetNewPath@CDirPath@@QAEPADPAD@Z ; CDirPath::GetNewPath
  0023f	90		 npad	 1
$LL42@ReadCommon:
  00240	8a 08		 mov	 cl, BYTE PTR [eax]
  00242	40		 inc	 eax
  00243	84 c9		 test	 cl, cl
  00245	75 f9		 jne	 SHORT $LL42@ReadCommon

; 1077 : 			strcpy(szMoveReqFileName, gDirPath.GetNewPath("lang\\kor\\movereq(Kor).txt"));

  00247	68 00 00 00 00	 push	 OFFSET ??_C@_0BK@BLDPLGHM@lang?2kor?2movereq?$CIKor?$CJ?4txt?$AA@
  0024c	b9 00 00 00 00	 mov	 ecx, OFFSET ?gDirPath@@3VCDirPath@@A ; gDirPath
  00251	e8 00 00 00 00	 call	 ?GetNewPath@CDirPath@@QAEPADPAD@Z ; CDirPath::GetNewPath
  00256	ba 00 00 00 00	 mov	 edx, OFFSET ?szMoveReqFileName@@3PADA ; szMoveReqFileName
  0025b	2b d0		 sub	 edx, eax
  0025d	8d 49 00	 npad	 3
$LL43@ReadCommon:
  00260	8a 08		 mov	 cl, BYTE PTR [eax]
  00262	88 0c 10	 mov	 BYTE PTR [eax+edx], cl
  00265	40		 inc	 eax
  00266	84 c9		 test	 cl, cl
  00268	75 f6		 jne	 SHORT $LL43@ReadCommon

; 1078 : 			strcpy(szCommonlocIniFileName, gDirPath.GetNewPath("lang\\kor\\commonloc.cfg"));

  0026a	68 00 00 00 00	 push	 OFFSET ??_C@_0BH@CGAJGJIE@lang?2kor?2commonloc?4cfg?$AA@
  0026f	b9 00 00 00 00	 mov	 ecx, OFFSET ?gDirPath@@3VCDirPath@@A ; gDirPath
  00274	e8 00 00 00 00	 call	 ?GetNewPath@CDirPath@@QAEPADPAD@Z ; CDirPath::GetNewPath
  00279	ba 00 00 00 00	 mov	 edx, OFFSET ?szCommonlocIniFileName@@3PADA ; szCommonlocIniFileName
  0027e	2b d0		 sub	 edx, eax
$LL44@ReadCommon:
  00280	8a 08		 mov	 cl, BYTE PTR [eax]
  00282	88 0c 10	 mov	 BYTE PTR [eax+edx], cl
  00285	40		 inc	 eax
  00286	84 c9		 test	 cl, cl
  00288	75 f6		 jne	 SHORT $LL44@ReadCommon

; 1079 : 			gNonPK = GetPrivateProfileInt("GameServerInfo","NonPK",0, SERVER_INFO_PATH);
; 1080 : 			if(gNonPK != 0)
; 1081 : 			{
; 1082 : 				LogAdd(LOG_BLACK, "NON-PK Server");
; 1083 : 			}
; 1084 : 			gPkLimitFree = GetPrivateProfileInt("GameServerInfo","PkLimitFree",0, SERVER_INFO_PATH);
; 1085 : 			if(gPkLimitFree != 0)
; 1086 : 			{
; 1087 : 				LogAdd(LOG_BLACK, "PK Limit Free Server");
; 1088 : 			}
; 1089 : 			break;

  0028a	e9 a5 04 00 00	 jmp	 $LN127@ReadCommon
$LN24@ReadCommon:

; 1090 : 		case 1: // English
; 1091 : 			strcpy(szlMsgName, gDirPath.GetNewPath("message_eng.wtf"));

  0028f	68 00 00 00 00	 push	 OFFSET ??_C@_0BA@CNMOEHOP@message_eng?4wtf?$AA@
  00294	b9 00 00 00 00	 mov	 ecx, OFFSET ?gDirPath@@3VCDirPath@@A ; gDirPath
  00299	e8 00 00 00 00	 call	 ?GetNewPath@CDirPath@@QAEPADPAD@Z ; CDirPath::GetNewPath
  0029e	8d 95 fc fc ff
	ff		 lea	 edx, DWORD PTR _szlMsgName$[ebp]
  002a4	2b d0		 sub	 edx, eax
$LL45@ReadCommon:
  002a6	8a 08		 mov	 cl, BYTE PTR [eax]
  002a8	88 0c 10	 mov	 BYTE PTR [eax+edx], cl
  002ab	40		 inc	 eax
  002ac	84 c9		 test	 cl, cl
  002ae	75 f6		 jne	 SHORT $LL45@ReadCommon

; 1092 : 			strcpy(szItemTextFileName, gDirPath.GetNewPath("lang\\eng\\item(eng).txt"));

  002b0	68 00 00 00 00	 push	 OFFSET ??_C@_0BH@DIKKKEAA@lang?2eng?2item?$CIeng?$CJ?4txt?$AA@
  002b5	b9 00 00 00 00	 mov	 ecx, OFFSET ?gDirPath@@3VCDirPath@@A ; gDirPath
  002ba	e8 00 00 00 00	 call	 ?GetNewPath@CDirPath@@QAEPADPAD@Z ; CDirPath::GetNewPath
  002bf	ba 00 00 00 00	 mov	 edx, OFFSET ?szItemTextFileName@@3PADA ; szItemTextFileName
  002c4	2b d0		 sub	 edx, eax
$LL46@ReadCommon:
  002c6	8a 08		 mov	 cl, BYTE PTR [eax]
  002c8	88 0c 10	 mov	 BYTE PTR [eax+edx], cl
  002cb	40		 inc	 eax
  002cc	84 c9		 test	 cl, cl
  002ce	75 f6		 jne	 SHORT $LL46@ReadCommon

; 1093 : 			strcpy(szSkillTextFileName, gDirPath.GetNewPath("lang\\eng\\skill(eng).txt"));

  002d0	68 00 00 00 00	 push	 OFFSET ??_C@_0BI@PBKOEFKA@lang?2eng?2skill?$CIeng?$CJ?4txt?$AA@
  002d5	b9 00 00 00 00	 mov	 ecx, OFFSET ?gDirPath@@3VCDirPath@@A ; gDirPath
  002da	e8 00 00 00 00	 call	 ?GetNewPath@CDirPath@@QAEPADPAD@Z ; CDirPath::GetNewPath
  002df	ba 00 00 00 00	 mov	 edx, OFFSET ?szSkillTextFileName@@3PADA ; szSkillTextFileName
  002e4	2b d0		 sub	 edx, eax
$LL47@ReadCommon:
  002e6	8a 08		 mov	 cl, BYTE PTR [eax]
  002e8	88 0c 10	 mov	 BYTE PTR [eax+edx], cl
  002eb	40		 inc	 eax
  002ec	84 c9		 test	 cl, cl
  002ee	75 f6		 jne	 SHORT $LL47@ReadCommon

; 1094 : 			strcpy(szQuestTextFileName, gDirPath.GetNewPath("lang\\eng\\Quest(eng).txt"));

  002f0	68 00 00 00 00	 push	 OFFSET ??_C@_0BI@IMMHENLL@lang?2eng?2Quest?$CIeng?$CJ?4txt?$AA@
  002f5	b9 00 00 00 00	 mov	 ecx, OFFSET ?gDirPath@@3VCDirPath@@A ; gDirPath
  002fa	e8 00 00 00 00	 call	 ?GetNewPath@CDirPath@@QAEPADPAD@Z ; CDirPath::GetNewPath
  002ff	ba 00 00 00 00	 mov	 edx, OFFSET ?szQuestTextFileName@@3PADA ; szQuestTextFileName
  00304	2b d0		 sub	 edx, eax
$LL48@ReadCommon:
  00306	8a 08		 mov	 cl, BYTE PTR [eax]
  00308	88 0c 10	 mov	 BYTE PTR [eax+edx], cl
  0030b	40		 inc	 eax
  0030c	84 c9		 test	 cl, cl
  0030e	75 f6		 jne	 SHORT $LL48@ReadCommon

; 1095 : 			strcpy(szMoveReqFileName, gDirPath.GetNewPath("lang\\eng\\movereq(Eng).txt"));

  00310	68 00 00 00 00	 push	 OFFSET ??_C@_0BK@LBNBFPFP@lang?2eng?2movereq?$CIEng?$CJ?4txt?$AA@
  00315	b9 00 00 00 00	 mov	 ecx, OFFSET ?gDirPath@@3VCDirPath@@A ; gDirPath
  0031a	e8 00 00 00 00	 call	 ?GetNewPath@CDirPath@@QAEPADPAD@Z ; CDirPath::GetNewPath
  0031f	ba 00 00 00 00	 mov	 edx, OFFSET ?szMoveReqFileName@@3PADA ; szMoveReqFileName
  00324	2b d0		 sub	 edx, eax
$LL49@ReadCommon:
  00326	8a 08		 mov	 cl, BYTE PTR [eax]
  00328	88 0c 10	 mov	 BYTE PTR [eax+edx], cl
  0032b	40		 inc	 eax
  0032c	84 c9		 test	 cl, cl
  0032e	75 f6		 jne	 SHORT $LL49@ReadCommon

; 1096 : 			strcpy(szCheckSum, gDirPath.GetNewPath("lang\\eng\\CheckSum.dat"));

  00330	68 00 00 00 00	 push	 OFFSET ??_C@_0BG@CLNKAICO@lang?2eng?2CheckSum?4dat?$AA@
  00335	b9 00 00 00 00	 mov	 ecx, OFFSET ?gDirPath@@3VCDirPath@@A ; gDirPath
  0033a	e8 00 00 00 00	 call	 ?GetNewPath@CDirPath@@QAEPADPAD@Z ; CDirPath::GetNewPath
  0033f	90		 npad	 1
$LL50@ReadCommon:
  00340	8a 08		 mov	 cl, BYTE PTR [eax]
  00342	40		 inc	 eax
  00343	84 c9		 test	 cl, cl
  00345	75 f9		 jne	 SHORT $LL50@ReadCommon

; 1097 : 			strcpy(szCommonlocIniFileName, gDirPath.GetNewPath("lang\\eng\\commonloc.cfg"));

  00347	68 00 00 00 00	 push	 OFFSET ??_C@_0BH@CEPMFDMG@lang?2eng?2commonloc?4cfg?$AA@
  0034c	b9 00 00 00 00	 mov	 ecx, OFFSET ?gDirPath@@3VCDirPath@@A ; gDirPath
  00351	e8 00 00 00 00	 call	 ?GetNewPath@CDirPath@@QAEPADPAD@Z ; CDirPath::GetNewPath
  00356	ba 00 00 00 00	 mov	 edx, OFFSET ?szCommonlocIniFileName@@3PADA ; szCommonlocIniFileName
  0035b	2b d0		 sub	 edx, eax
  0035d	8d 49 00	 npad	 3
$LL51@ReadCommon:
  00360	8a 08		 mov	 cl, BYTE PTR [eax]
  00362	88 0c 10	 mov	 BYTE PTR [eax+edx], cl
  00365	40		 inc	 eax
  00366	84 c9		 test	 cl, cl
  00368	75 f6		 jne	 SHORT $LL51@ReadCommon

; 1098 : 			strcpy(gCountryName, "Eng");

  0036a	c7 05 00 00 00
	00 45 6e 67 00	 mov	 DWORD PTR ?gCountryName@@3PADA, 6778437 ; 00676e45H

; 1099 : 			gNonPK = GetPrivateProfileInt("GameServerInfo","NonPK",0, SERVER_INFO_PATH);
; 1100 : 			if(gNonPK != 0)
; 1101 : 			{
; 1102 : 				LogAdd(LOG_BLACK, "NON-PK Server");
; 1103 : 			}
; 1104 : 			gPkLimitFree = GetPrivateProfileInt("GameServerInfo","PkLimitFree",0, SERVER_INFO_PATH);
; 1105 : 			if(gPkLimitFree != 0)
; 1106 : 			{
; 1107 : 				LogAdd(LOG_BLACK, "PK Limit Free Server");
; 1108 : 			}
; 1109 : 			break;

  00374	e9 bb 03 00 00	 jmp	 $LN127@ReadCommon
$LN21@ReadCommon:

; 1110 : 		case 2: // Japan
; 1111 : 			strcpy(szlMsgName, gDirPath.GetNewPath("message_jpn.wtf"));

  00379	68 00 00 00 00	 push	 OFFSET ??_C@_0BA@OEAAODBI@message_jpn?4wtf?$AA@
  0037e	b9 00 00 00 00	 mov	 ecx, OFFSET ?gDirPath@@3VCDirPath@@A ; gDirPath
  00383	e8 00 00 00 00	 call	 ?GetNewPath@CDirPath@@QAEPADPAD@Z ; CDirPath::GetNewPath
  00388	8d 95 fc fc ff
	ff		 lea	 edx, DWORD PTR _szlMsgName$[ebp]
  0038e	2b d0		 sub	 edx, eax
$LL52@ReadCommon:
  00390	8a 08		 mov	 cl, BYTE PTR [eax]
  00392	88 0c 10	 mov	 BYTE PTR [eax+edx], cl
  00395	40		 inc	 eax
  00396	84 c9		 test	 cl, cl
  00398	75 f6		 jne	 SHORT $LL52@ReadCommon

; 1112 : 			strcpy(szItemTextFileName, gDirPath.GetNewPath("lang\\jpn\\item(jpn).txt"));

  0039a	68 00 00 00 00	 push	 OFFSET ??_C@_0BH@GGMLMGEG@lang?2jpn?2item?$CIjpn?$CJ?4txt?$AA@
  0039f	b9 00 00 00 00	 mov	 ecx, OFFSET ?gDirPath@@3VCDirPath@@A ; gDirPath
  003a4	e8 00 00 00 00	 call	 ?GetNewPath@CDirPath@@QAEPADPAD@Z ; CDirPath::GetNewPath
  003a9	ba 00 00 00 00	 mov	 edx, OFFSET ?szItemTextFileName@@3PADA ; szItemTextFileName
  003ae	2b d0		 sub	 edx, eax
$LL53@ReadCommon:
  003b0	8a 08		 mov	 cl, BYTE PTR [eax]
  003b2	88 0c 10	 mov	 BYTE PTR [eax+edx], cl
  003b5	40		 inc	 eax
  003b6	84 c9		 test	 cl, cl
  003b8	75 f6		 jne	 SHORT $LL53@ReadCommon

; 1113 : 			strcpy(szSkillTextFileName, gDirPath.GetNewPath("lang\\jpn\\skill(jpn).txt"));

  003ba	68 00 00 00 00	 push	 OFFSET ??_C@_0BI@MHBJLADJ@lang?2jpn?2skill?$CIjpn?$CJ?4txt?$AA@
  003bf	b9 00 00 00 00	 mov	 ecx, OFFSET ?gDirPath@@3VCDirPath@@A ; gDirPath
  003c4	e8 00 00 00 00	 call	 ?GetNewPath@CDirPath@@QAEPADPAD@Z ; CDirPath::GetNewPath
  003c9	ba 00 00 00 00	 mov	 edx, OFFSET ?szSkillTextFileName@@3PADA ; szSkillTextFileName
  003ce	2b d0		 sub	 edx, eax
$LL54@ReadCommon:
  003d0	8a 08		 mov	 cl, BYTE PTR [eax]
  003d2	88 0c 10	 mov	 BYTE PTR [eax+edx], cl
  003d5	40		 inc	 eax
  003d6	84 c9		 test	 cl, cl
  003d8	75 f6		 jne	 SHORT $LL54@ReadCommon

; 1114 : 			strcpy(szQuestTextFileName, gDirPath.GetNewPath("lang\\jpn\\Quest(jpn).txt"));

  003da	68 00 00 00 00	 push	 OFFSET ??_C@_0BI@LKHALICC@lang?2jpn?2Quest?$CIjpn?$CJ?4txt?$AA@
  003df	b9 00 00 00 00	 mov	 ecx, OFFSET ?gDirPath@@3VCDirPath@@A ; gDirPath
  003e4	e8 00 00 00 00	 call	 ?GetNewPath@CDirPath@@QAEPADPAD@Z ; CDirPath::GetNewPath
  003e9	ba 00 00 00 00	 mov	 edx, OFFSET ?szQuestTextFileName@@3PADA ; szQuestTextFileName
  003ee	2b d0		 sub	 edx, eax
$LL55@ReadCommon:
  003f0	8a 08		 mov	 cl, BYTE PTR [eax]
  003f2	88 0c 10	 mov	 BYTE PTR [eax+edx], cl
  003f5	40		 inc	 eax
  003f6	84 c9		 test	 cl, cl
  003f8	75 f6		 jne	 SHORT $LL55@ReadCommon

; 1115 : 			strcpy(szMoveReqFileName, gDirPath.GetNewPath("lang\\jpn\\movereq(jpn).txt"));

  003fa	68 00 00 00 00	 push	 OFFSET ??_C@_0BK@HLFIIGFG@lang?2jpn?2movereq?$CIjpn?$CJ?4txt?$AA@
  003ff	b9 00 00 00 00	 mov	 ecx, OFFSET ?gDirPath@@3VCDirPath@@A ; gDirPath
  00404	e8 00 00 00 00	 call	 ?GetNewPath@CDirPath@@QAEPADPAD@Z ; CDirPath::GetNewPath
  00409	ba 00 00 00 00	 mov	 edx, OFFSET ?szMoveReqFileName@@3PADA ; szMoveReqFileName
  0040e	2b d0		 sub	 edx, eax
$LL56@ReadCommon:
  00410	8a 08		 mov	 cl, BYTE PTR [eax]
  00412	88 0c 10	 mov	 BYTE PTR [eax+edx], cl
  00415	40		 inc	 eax
  00416	84 c9		 test	 cl, cl
  00418	75 f6		 jne	 SHORT $LL56@ReadCommon

; 1116 : 			strcpy(szCheckSum, gDirPath.GetNewPath("lang\\jpn\\CheckSum.dat"));

  0041a	68 00 00 00 00	 push	 OFFSET ??_C@_0BG@FNIPOEKB@lang?2jpn?2CheckSum?4dat?$AA@
  0041f	b9 00 00 00 00	 mov	 ecx, OFFSET ?gDirPath@@3VCDirPath@@A ; gDirPath
  00424	e8 00 00 00 00	 call	 ?GetNewPath@CDirPath@@QAEPADPAD@Z ; CDirPath::GetNewPath
  00429	8d a4 24 00 00
	00 00		 npad	 7
$LL57@ReadCommon:
  00430	8a 08		 mov	 cl, BYTE PTR [eax]
  00432	40		 inc	 eax
  00433	84 c9		 test	 cl, cl
  00435	75 f9		 jne	 SHORT $LL57@ReadCommon

; 1117 : 			strcpy(szCommonlocIniFileName, gDirPath.GetNewPath("lang\\jpn\\commonloc.cfg"));

  00437	68 00 00 00 00	 push	 OFFSET ??_C@_0BH@FJINJIJL@lang?2jpn?2commonloc?4cfg?$AA@
  0043c	b9 00 00 00 00	 mov	 ecx, OFFSET ?gDirPath@@3VCDirPath@@A ; gDirPath
  00441	e8 00 00 00 00	 call	 ?GetNewPath@CDirPath@@QAEPADPAD@Z ; CDirPath::GetNewPath
  00446	ba 00 00 00 00	 mov	 edx, OFFSET ?szCommonlocIniFileName@@3PADA ; szCommonlocIniFileName
  0044b	2b d0		 sub	 edx, eax
  0044d	8d 49 00	 npad	 3
$LL58@ReadCommon:
  00450	8a 08		 mov	 cl, BYTE PTR [eax]
  00452	88 0c 10	 mov	 BYTE PTR [eax+edx], cl
  00455	40		 inc	 eax
  00456	84 c9		 test	 cl, cl
  00458	75 f6		 jne	 SHORT $LL58@ReadCommon

; 1118 : 			strcpy(gCountryName, "Jpn");

  0045a	c7 05 00 00 00
	00 4a 70 6e 00	 mov	 DWORD PTR ?gCountryName@@3PADA, 7237706 ; 006e704aH

; 1119 : 			gNonPK = GetPrivateProfileInt("GameServerInfo","NonPK",0, SERVER_INFO_PATH);
; 1120 : 			if(gNonPK != 0)
; 1121 : 			{
; 1122 : 				LogAdd(LOG_BLACK, "NON-PK Server");
; 1123 : 			}
; 1124 : 			gPkLimitFree = GetPrivateProfileInt("GameServerInfo","PkLimitFree",0, SERVER_INFO_PATH);
; 1125 : 			if(gPkLimitFree != 0)
; 1126 : 			{
; 1127 : 				LogAdd(LOG_BLACK, "PK Limit Free Server");
; 1128 : 			}
; 1129 : 			break;

  00464	e9 cb 02 00 00	 jmp	 $LN127@ReadCommon
$LN18@ReadCommon:

; 1130 : 		case 3: // China
; 1131 : 			strcpy(szlMsgName, gDirPath.GetNewPath("message_chs.wtf"));

  00469	68 00 00 00 00	 push	 OFFSET ??_C@_0BA@BADGDLNP@message_chs?4wtf?$AA@
  0046e	b9 00 00 00 00	 mov	 ecx, OFFSET ?gDirPath@@3VCDirPath@@A ; gDirPath
  00473	e8 00 00 00 00	 call	 ?GetNewPath@CDirPath@@QAEPADPAD@Z ; CDirPath::GetNewPath
  00478	8d 95 fc fc ff
	ff		 lea	 edx, DWORD PTR _szlMsgName$[ebp]
  0047e	2b d0		 sub	 edx, eax
$LL59@ReadCommon:
  00480	8a 08		 mov	 cl, BYTE PTR [eax]
  00482	88 0c 10	 mov	 BYTE PTR [eax+edx], cl
  00485	40		 inc	 eax
  00486	84 c9		 test	 cl, cl
  00488	75 f6		 jne	 SHORT $LL59@ReadCommon

; 1132 : 			strcpy(szItemTextFileName, gDirPath.GetNewPath("lang\\chs\\item(chs).txt"));

  0048a	68 00 00 00 00	 push	 OFFSET ??_C@_0BH@IFBABFEE@lang?2chs?2item?$CIchs?$CJ?4txt?$AA@
  0048f	b9 00 00 00 00	 mov	 ecx, OFFSET ?gDirPath@@3VCDirPath@@A ; gDirPath
  00494	e8 00 00 00 00	 call	 ?GetNewPath@CDirPath@@QAEPADPAD@Z ; CDirPath::GetNewPath
  00499	ba 00 00 00 00	 mov	 edx, OFFSET ?szItemTextFileName@@3PADA ; szItemTextFileName
  0049e	2b d0		 sub	 edx, eax
$LL60@ReadCommon:
  004a0	8a 08		 mov	 cl, BYTE PTR [eax]
  004a2	88 0c 10	 mov	 BYTE PTR [eax+edx], cl
  004a5	40		 inc	 eax
  004a6	84 c9		 test	 cl, cl
  004a8	75 f6		 jne	 SHORT $LL60@ReadCommon

; 1133 : 			strcpy(szSkillTextFileName, gDirPath.GetNewPath("lang\\chs\\skill(chs).txt"));

  004aa	68 00 00 00 00	 push	 OFFSET ??_C@_0BI@CALDIEFE@lang?2chs?2skill?$CIchs?$CJ?4txt?$AA@
  004af	b9 00 00 00 00	 mov	 ecx, OFFSET ?gDirPath@@3VCDirPath@@A ; gDirPath
  004b4	e8 00 00 00 00	 call	 ?GetNewPath@CDirPath@@QAEPADPAD@Z ; CDirPath::GetNewPath
  004b9	ba 00 00 00 00	 mov	 edx, OFFSET ?szSkillTextFileName@@3PADA ; szSkillTextFileName
  004be	2b d0		 sub	 edx, eax
$LL61@ReadCommon:
  004c0	8a 08		 mov	 cl, BYTE PTR [eax]
  004c2	88 0c 10	 mov	 BYTE PTR [eax+edx], cl
  004c5	40		 inc	 eax
  004c6	84 c9		 test	 cl, cl
  004c8	75 f6		 jne	 SHORT $LL61@ReadCommon

; 1134 : 			strcpy(szQuestTextFileName, gDirPath.GetNewPath("lang\\chs\\Quest(chs).txt"));

  004ca	68 00 00 00 00	 push	 OFFSET ??_C@_0BI@FNNKIMEP@lang?2chs?2Quest?$CIchs?$CJ?4txt?$AA@
  004cf	b9 00 00 00 00	 mov	 ecx, OFFSET ?gDirPath@@3VCDirPath@@A ; gDirPath
  004d4	e8 00 00 00 00	 call	 ?GetNewPath@CDirPath@@QAEPADPAD@Z ; CDirPath::GetNewPath
  004d9	ba 00 00 00 00	 mov	 edx, OFFSET ?szQuestTextFileName@@3PADA ; szQuestTextFileName
  004de	2b d0		 sub	 edx, eax
$LL62@ReadCommon:
  004e0	8a 08		 mov	 cl, BYTE PTR [eax]
  004e2	88 0c 10	 mov	 BYTE PTR [eax+edx], cl
  004e5	40		 inc	 eax
  004e6	84 c9		 test	 cl, cl
  004e8	75 f6		 jne	 SHORT $LL62@ReadCommon

; 1135 : 			strcpy(szMoveReqFileName, gDirPath.GetNewPath("lang\\chs\\movereq(chs).txt"));

  004ea	68 00 00 00 00	 push	 OFFSET ??_C@_0BK@JNPALLNH@lang?2chs?2movereq?$CIchs?$CJ?4txt?$AA@
  004ef	b9 00 00 00 00	 mov	 ecx, OFFSET ?gDirPath@@3VCDirPath@@A ; gDirPath
  004f4	e8 00 00 00 00	 call	 ?GetNewPath@CDirPath@@QAEPADPAD@Z ; CDirPath::GetNewPath
  004f9	ba 00 00 00 00	 mov	 edx, OFFSET ?szMoveReqFileName@@3PADA ; szMoveReqFileName
  004fe	2b d0		 sub	 edx, eax
$LL63@ReadCommon:
  00500	8a 08		 mov	 cl, BYTE PTR [eax]
  00502	88 0c 10	 mov	 BYTE PTR [eax+edx], cl
  00505	40		 inc	 eax
  00506	84 c9		 test	 cl, cl
  00508	75 f6		 jne	 SHORT $LL63@ReadCommon

; 1136 : 			strcpy(szCheckSum, gDirPath.GetNewPath("lang\\chs\\CheckSum.dat"));

  0050a	68 00 00 00 00	 push	 OFFSET ??_C@_0BG@BBGBCMOO@lang?2chs?2CheckSum?4dat?$AA@
  0050f	b9 00 00 00 00	 mov	 ecx, OFFSET ?gDirPath@@3VCDirPath@@A ; gDirPath
  00514	e8 00 00 00 00	 call	 ?GetNewPath@CDirPath@@QAEPADPAD@Z ; CDirPath::GetNewPath
  00519	8d a4 24 00 00
	00 00		 npad	 7
$LL64@ReadCommon:
  00520	8a 08		 mov	 cl, BYTE PTR [eax]
  00522	40		 inc	 eax
  00523	84 c9		 test	 cl, cl
  00525	75 f9		 jne	 SHORT $LL64@ReadCommon

; 1137 : 			strcpy(szCommonlocIniFileName, gDirPath.GetNewPath("lang\\chs\\commonloc.cfg"));

  00527	68 00 00 00 00	 push	 OFFSET ??_C@_0BH@LPKCCKFC@lang?2chs?2commonloc?4cfg?$AA@
  0052c	b9 00 00 00 00	 mov	 ecx, OFFSET ?gDirPath@@3VCDirPath@@A ; gDirPath
  00531	e8 00 00 00 00	 call	 ?GetNewPath@CDirPath@@QAEPADPAD@Z ; CDirPath::GetNewPath
  00536	ba 00 00 00 00	 mov	 edx, OFFSET ?szCommonlocIniFileName@@3PADA ; szCommonlocIniFileName
  0053b	2b d0		 sub	 edx, eax
  0053d	8d 49 00	 npad	 3
$LL65@ReadCommon:
  00540	8a 08		 mov	 cl, BYTE PTR [eax]
  00542	88 0c 10	 mov	 BYTE PTR [eax+edx], cl
  00545	40		 inc	 eax
  00546	84 c9		 test	 cl, cl
  00548	75 f6		 jne	 SHORT $LL65@ReadCommon

; 1138 : 			strcpy(gCountryName, "Chs");

  0054a	c7 05 00 00 00
	00 43 68 73 00	 mov	 DWORD PTR ?gCountryName@@3PADA, 7563331 ; 00736843H

; 1139 : 			gNonPK = GetPrivateProfileInt("GameServerInfo","NonPK",0, SERVER_INFO_PATH);
; 1140 : 			if(gNonPK != 0)
; 1141 : 			{
; 1142 : 				LogAdd(LOG_BLACK, "NON-PK Server");
; 1143 : 			}
; 1144 : 			gPkLimitFree = GetPrivateProfileInt("GameServerInfo","PkLimitFree",0, SERVER_INFO_PATH);
; 1145 : 			if(gPkLimitFree != 0)
; 1146 : 			{
; 1147 : 				LogAdd(LOG_BLACK, "PK Limit Free Server");
; 1148 : 			}
; 1149 : 			break;

  00554	e9 db 01 00 00	 jmp	 $LN127@ReadCommon
$LN15@ReadCommon:

; 1150 : 		case 4: // Taiwan
; 1151 : 			strcpy(szlMsgName, gDirPath.GetNewPath("message_tai.wtf"));

  00559	68 00 00 00 00	 push	 OFFSET ??_C@_0BA@FBJNGHMD@message_tai?4wtf?$AA@
  0055e	b9 00 00 00 00	 mov	 ecx, OFFSET ?gDirPath@@3VCDirPath@@A ; gDirPath
  00563	e8 00 00 00 00	 call	 ?GetNewPath@CDirPath@@QAEPADPAD@Z ; CDirPath::GetNewPath
  00568	8d 95 fc fc ff
	ff		 lea	 edx, DWORD PTR _szlMsgName$[ebp]
  0056e	2b d0		 sub	 edx, eax
$LL66@ReadCommon:
  00570	8a 08		 mov	 cl, BYTE PTR [eax]
  00572	88 0c 10	 mov	 BYTE PTR [eax+edx], cl
  00575	40		 inc	 eax
  00576	84 c9		 test	 cl, cl
  00578	75 f6		 jne	 SHORT $LL66@ReadCommon

; 1152 : 			strcpy(szItemTextFileName, gDirPath.GetNewPath("lang\\tai\\item(tai).txt"));

  0057a	68 00 00 00 00	 push	 OFFSET ??_C@_0BH@CNPPLEEE@lang?2tai?2item?$CItai?$CJ?4txt?$AA@
  0057f	b9 00 00 00 00	 mov	 ecx, OFFSET ?gDirPath@@3VCDirPath@@A ; gDirPath
  00584	e8 00 00 00 00	 call	 ?GetNewPath@CDirPath@@QAEPADPAD@Z ; CDirPath::GetNewPath
  00589	ba 00 00 00 00	 mov	 edx, OFFSET ?szItemTextFileName@@3PADA ; szItemTextFileName
  0058e	2b d0		 sub	 edx, eax
$LL67@ReadCommon:
  00590	8a 08		 mov	 cl, BYTE PTR [eax]
  00592	88 0c 10	 mov	 BYTE PTR [eax+edx], cl
  00595	40		 inc	 eax
  00596	84 c9		 test	 cl, cl
  00598	75 f6		 jne	 SHORT $LL67@ReadCommon

; 1153 : 			strcpy(szSkillTextFileName, gDirPath.GetNewPath("lang\\tai\\skill(tai).txt"));

  0059a	68 00 00 00 00	 push	 OFFSET ??_C@_0BI@LAPBJNMP@lang?2tai?2skill?$CItai?$CJ?4txt?$AA@
  0059f	b9 00 00 00 00	 mov	 ecx, OFFSET ?gDirPath@@3VCDirPath@@A ; gDirPath
  005a4	e8 00 00 00 00	 call	 ?GetNewPath@CDirPath@@QAEPADPAD@Z ; CDirPath::GetNewPath
  005a9	ba 00 00 00 00	 mov	 edx, OFFSET ?szSkillTextFileName@@3PADA ; szSkillTextFileName
  005ae	2b d0		 sub	 edx, eax
$LL68@ReadCommon:
  005b0	8a 08		 mov	 cl, BYTE PTR [eax]
  005b2	88 0c 10	 mov	 BYTE PTR [eax+edx], cl
  005b5	40		 inc	 eax
  005b6	84 c9		 test	 cl, cl
  005b8	75 f6		 jne	 SHORT $LL68@ReadCommon

; 1154 : 			strcpy(szQuestTextFileName, gDirPath.GetNewPath("lang\\tai\\Quest(tai).txt"));

  005ba	68 00 00 00 00	 push	 OFFSET ??_C@_0BI@MNJIJFNE@lang?2tai?2Quest?$CItai?$CJ?4txt?$AA@
  005bf	b9 00 00 00 00	 mov	 ecx, OFFSET ?gDirPath@@3VCDirPath@@A ; gDirPath
  005c4	e8 00 00 00 00	 call	 ?GetNewPath@CDirPath@@QAEPADPAD@Z ; CDirPath::GetNewPath
  005c9	ba 00 00 00 00	 mov	 edx, OFFSET ?szQuestTextFileName@@3PADA ; szQuestTextFileName
  005ce	2b d0		 sub	 edx, eax
$LL69@ReadCommon:
  005d0	8a 08		 mov	 cl, BYTE PTR [eax]
  005d2	88 0c 10	 mov	 BYTE PTR [eax+edx], cl
  005d5	40		 inc	 eax
  005d6	84 c9		 test	 cl, cl
  005d8	75 f6		 jne	 SHORT $LL69@ReadCommon

; 1155 : 			strcpy(szMoveReqFileName, gDirPath.GetNewPath("lang\\tai\\movereq(tai).txt"));

  005da	68 00 00 00 00	 push	 OFFSET ??_C@_0BK@DNFIBFPK@lang?2tai?2movereq?$CItai?$CJ?4txt?$AA@
  005df	b9 00 00 00 00	 mov	 ecx, OFFSET ?gDirPath@@3VCDirPath@@A ; gDirPath
  005e4	e8 00 00 00 00	 call	 ?GetNewPath@CDirPath@@QAEPADPAD@Z ; CDirPath::GetNewPath
  005e9	ba 00 00 00 00	 mov	 edx, OFFSET ?szMoveReqFileName@@3PADA ; szMoveReqFileName
  005ee	2b d0		 sub	 edx, eax
$LL70@ReadCommon:
  005f0	8a 08		 mov	 cl, BYTE PTR [eax]
  005f2	88 0c 10	 mov	 BYTE PTR [eax+edx], cl
  005f5	40		 inc	 eax
  005f6	84 c9		 test	 cl, cl
  005f8	75 f6		 jne	 SHORT $LL70@ReadCommon

; 1156 : 			strcpy(szCheckSum, gDirPath.GetNewPath("lang\\tai\\CheckSum.dat"));

  005fa	68 00 00 00 00	 push	 OFFSET ??_C@_0BG@NILECFFP@lang?2tai?2CheckSum?4dat?$AA@
  005ff	b9 00 00 00 00	 mov	 ecx, OFFSET ?gDirPath@@3VCDirPath@@A ; gDirPath
  00604	e8 00 00 00 00	 call	 ?GetNewPath@CDirPath@@QAEPADPAD@Z ; CDirPath::GetNewPath
  00609	8d a4 24 00 00
	00 00		 npad	 7
$LL71@ReadCommon:
  00610	8a 08		 mov	 cl, BYTE PTR [eax]
  00612	40		 inc	 eax
  00613	84 c9		 test	 cl, cl
  00615	75 f9		 jne	 SHORT $LL71@ReadCommon

; 1157 : 			strcpy(szCommonlocIniFileName, gDirPath.GetNewPath("lang\\tai\\commonloc.cfg"));

  00617	68 00 00 00 00	 push	 OFFSET ??_C@_0BH@DANHMEB@lang?2tai?2commonloc?4cfg?$AA@
  0061c	b9 00 00 00 00	 mov	 ecx, OFFSET ?gDirPath@@3VCDirPath@@A ; gDirPath
  00621	e8 00 00 00 00	 call	 ?GetNewPath@CDirPath@@QAEPADPAD@Z ; CDirPath::GetNewPath
  00626	ba 00 00 00 00	 mov	 edx, OFFSET ?szCommonlocIniFileName@@3PADA ; szCommonlocIniFileName
  0062b	2b d0		 sub	 edx, eax
  0062d	8d 49 00	 npad	 3
$LL72@ReadCommon:
  00630	8a 08		 mov	 cl, BYTE PTR [eax]
  00632	88 0c 10	 mov	 BYTE PTR [eax+edx], cl
  00635	40		 inc	 eax
  00636	84 c9		 test	 cl, cl
  00638	75 f6		 jne	 SHORT $LL72@ReadCommon

; 1158 : 			strcpy(gCountryName, "Tai");

  0063a	c7 05 00 00 00
	00 54 61 69 00	 mov	 DWORD PTR ?gCountryName@@3PADA, 6906196 ; 00696154H

; 1159 : 			gNonPK = GetPrivateProfileInt("GameServerInfo","NonPK",0, SERVER_INFO_PATH);
; 1160 : 			if(gNonPK != 0)
; 1161 : 			{
; 1162 : 				LogAdd(LOG_BLACK, "NON-PK Server");
; 1163 : 			}
; 1164 : 			gPkLimitFree = GetPrivateProfileInt("GameServerInfo","PkLimitFree",0, SERVER_INFO_PATH);
; 1165 : 			if(gPkLimitFree != 0)
; 1166 : 			{
; 1167 : 				LogAdd(LOG_BLACK, "PK Limit Free Server");
; 1168 : 			}
; 1169 : 			break;

  00644	e9 eb 00 00 00	 jmp	 $LN127@ReadCommon
$LN12@ReadCommon:

; 1170 : 		case 5: // Thailand
; 1171 : 			strcpy(szlMsgName, gDirPath.GetNewPath("message_tha.wtf"));

  00649	68 00 00 00 00	 push	 OFFSET ??_C@_0BA@CIFGKAHN@message_tha?4wtf?$AA@
  0064e	b9 00 00 00 00	 mov	 ecx, OFFSET ?gDirPath@@3VCDirPath@@A ; gDirPath
  00653	e8 00 00 00 00	 call	 ?GetNewPath@CDirPath@@QAEPADPAD@Z ; CDirPath::GetNewPath
  00658	8d 95 fc fc ff
	ff		 lea	 edx, DWORD PTR _szlMsgName$[ebp]
  0065e	2b d0		 sub	 edx, eax
$LL73@ReadCommon:
  00660	8a 08		 mov	 cl, BYTE PTR [eax]
  00662	88 0c 10	 mov	 BYTE PTR [eax+edx], cl
  00665	40		 inc	 eax
  00666	84 c9		 test	 cl, cl
  00668	75 f6		 jne	 SHORT $LL73@ReadCommon

; 1172 : 			strcpy(szItemTextFileName, gDirPath.GetNewPath("lang\\tha\\item(tha).txt"));

  0066a	68 00 00 00 00	 push	 OFFSET ??_C@_0BH@BDPKPKJK@lang?2tha?2item?$CItha?$CJ?4txt?$AA@
  0066f	b9 00 00 00 00	 mov	 ecx, OFFSET ?gDirPath@@3VCDirPath@@A ; gDirPath
  00674	e8 00 00 00 00	 call	 ?GetNewPath@CDirPath@@QAEPADPAD@Z ; CDirPath::GetNewPath
  00679	ba 00 00 00 00	 mov	 edx, OFFSET ?szItemTextFileName@@3PADA ; szItemTextFileName
  0067e	2b d0		 sub	 edx, eax
$LL74@ReadCommon:
  00680	8a 08		 mov	 cl, BYTE PTR [eax]
  00682	88 0c 10	 mov	 BYTE PTR [eax+edx], cl
  00685	40		 inc	 eax
  00686	84 c9		 test	 cl, cl
  00688	75 f6		 jne	 SHORT $LL74@ReadCommon

; 1173 : 			strcpy(szSkillTextFileName, gDirPath.GetNewPath("lang\\tha\\skill(tha).txt"));

  0068a	68 00 00 00 00	 push	 OFFSET ??_C@_0BI@ICECJPPA@lang?2tha?2skill?$CItha?$CJ?4txt?$AA@
  0068f	b9 00 00 00 00	 mov	 ecx, OFFSET ?gDirPath@@3VCDirPath@@A ; gDirPath
  00694	e8 00 00 00 00	 call	 ?GetNewPath@CDirPath@@QAEPADPAD@Z ; CDirPath::GetNewPath
  00699	ba 00 00 00 00	 mov	 edx, OFFSET ?szSkillTextFileName@@3PADA ; szSkillTextFileName
  0069e	2b d0		 sub	 edx, eax
$LL75@ReadCommon:
  006a0	8a 08		 mov	 cl, BYTE PTR [eax]
  006a2	88 0c 10	 mov	 BYTE PTR [eax+edx], cl
  006a5	40		 inc	 eax
  006a6	84 c9		 test	 cl, cl
  006a8	75 f6		 jne	 SHORT $LL75@ReadCommon

; 1174 : 			strcpy(szQuestTextFileName, gDirPath.GetNewPath("lang\\tha\\Quest(tha).txt"));

  006aa	68 00 00 00 00	 push	 OFFSET ??_C@_0BI@PPCLJHOL@lang?2tha?2Quest?$CItha?$CJ?4txt?$AA@
  006af	b9 00 00 00 00	 mov	 ecx, OFFSET ?gDirPath@@3VCDirPath@@A ; gDirPath
  006b4	e8 00 00 00 00	 call	 ?GetNewPath@CDirPath@@QAEPADPAD@Z ; CDirPath::GetNewPath
  006b9	ba 00 00 00 00	 mov	 edx, OFFSET ?szQuestTextFileName@@3PADA ; szQuestTextFileName
  006be	2b d0		 sub	 edx, eax
$LL76@ReadCommon:
  006c0	8a 08		 mov	 cl, BYTE PTR [eax]
  006c2	88 0c 10	 mov	 BYTE PTR [eax+edx], cl
  006c5	40		 inc	 eax
  006c6	84 c9		 test	 cl, cl
  006c8	75 f6		 jne	 SHORT $LL76@ReadCommon

; 1175 : 			strcpy(szMoveReqFileName, gDirPath.GetNewPath("lang\\tha\\movereq(tha).txt"));

  006ca	68 00 00 00 00	 push	 OFFSET ??_C@_0BK@OAOFLAMH@lang?2tha?2movereq?$CItha?$CJ?4txt?$AA@
  006cf	b9 00 00 00 00	 mov	 ecx, OFFSET ?gDirPath@@3VCDirPath@@A ; gDirPath
  006d4	e8 00 00 00 00	 call	 ?GetNewPath@CDirPath@@QAEPADPAD@Z ; CDirPath::GetNewPath
  006d9	ba 00 00 00 00	 mov	 edx, OFFSET ?szMoveReqFileName@@3PADA ; szMoveReqFileName
  006de	2b d0		 sub	 edx, eax
$LL77@ReadCommon:
  006e0	8a 08		 mov	 cl, BYTE PTR [eax]
  006e2	88 0c 10	 mov	 BYTE PTR [eax+edx], cl
  006e5	40		 inc	 eax
  006e6	84 c9		 test	 cl, cl
  006e8	75 f6		 jne	 SHORT $LL77@ReadCommon

; 1176 : 			strcpy(szCheckSum, gDirPath.GetNewPath("lang\\tha\\CheckSum.dat"));

  006ea	68 00 00 00 00	 push	 OFFSET ??_C@_0BG@MKEGOHAG@lang?2tha?2CheckSum?4dat?$AA@
  006ef	b9 00 00 00 00	 mov	 ecx, OFFSET ?gDirPath@@3VCDirPath@@A ; gDirPath
  006f4	e8 00 00 00 00	 call	 ?GetNewPath@CDirPath@@QAEPADPAD@Z ; CDirPath::GetNewPath
  006f9	8d a4 24 00 00
	00 00		 npad	 7
$LL78@ReadCommon:
  00700	8a 08		 mov	 cl, BYTE PTR [eax]
  00702	40		 inc	 eax
  00703	84 c9		 test	 cl, cl
  00705	75 f9		 jne	 SHORT $LL78@ReadCommon

; 1177 : 			strcpy(szCommonlocIniFileName, gDirPath.GetNewPath("lang\\tha\\commonloc.cfg"));

  00707	68 00 00 00 00	 push	 OFFSET ??_C@_0BH@BBKIGHND@lang?2tha?2commonloc?4cfg?$AA@
  0070c	b9 00 00 00 00	 mov	 ecx, OFFSET ?gDirPath@@3VCDirPath@@A ; gDirPath
  00711	e8 00 00 00 00	 call	 ?GetNewPath@CDirPath@@QAEPADPAD@Z ; CDirPath::GetNewPath
  00716	ba 00 00 00 00	 mov	 edx, OFFSET ?szCommonlocIniFileName@@3PADA ; szCommonlocIniFileName
  0071b	2b d0		 sub	 edx, eax
  0071d	8d 49 00	 npad	 3
$LL79@ReadCommon:
  00720	8a 08		 mov	 cl, BYTE PTR [eax]
  00722	88 0c 10	 mov	 BYTE PTR [eax+edx], cl
  00725	40		 inc	 eax
  00726	84 c9		 test	 cl, cl
  00728	75 f6		 jne	 SHORT $LL79@ReadCommon

; 1178 : 			strcpy(gCountryName, "Tha");

  0072a	c7 05 00 00 00
	00 54 68 61 00	 mov	 DWORD PTR ?gCountryName@@3PADA, 6383700 ; 00616854H
$LN127@ReadCommon:

; 1179 : 			gNonPK = GetPrivateProfileInt("GameServerInfo","NonPK",0, SERVER_INFO_PATH);

  00734	68 00 00 00 00	 push	 OFFSET ??_C@_0BE@NHEFLBAP@Data?2Serverinfo?4dat?$AA@
  00739	6a 00		 push	 0
  0073b	68 00 00 00 00	 push	 OFFSET ??_C@_05MEMFONJC@NonPK?$AA@
  00740	68 00 00 00 00	 push	 OFFSET ??_C@_0P@EMJDPFDH@GameServerInfo?$AA@
  00745	ff d6		 call	 esi
  00747	a3 00 00 00 00	 mov	 DWORD PTR ?gNonPK@@3HA, eax ; gNonPK

; 1180 : 			if(gNonPK != 0)

  0074c	85 c0		 test	 eax, eax
  0074e	74 0f		 je	 SHORT $LN11@ReadCommon

; 1181 : 			{
; 1182 : 				LogAdd(LOG_BLACK, "NON-PK Server");

  00750	68 00 00 00 00	 push	 OFFSET ??_C@_0O@GCDDIMLO@NON?9PK?5Server?$AA@
  00755	6a 00		 push	 0
  00757	e8 00 00 00 00	 call	 ?LogAdd@@YAXW4eLogColor@@PADZZ ; LogAdd
  0075c	83 c4 08	 add	 esp, 8
$LN11@ReadCommon:

; 1183 : 			}
; 1184 : 			gPkLimitFree = GetPrivateProfileInt("GameServerInfo","PkLimitFree",0, SERVER_INFO_PATH);

  0075f	68 00 00 00 00	 push	 OFFSET ??_C@_0BE@NHEFLBAP@Data?2Serverinfo?4dat?$AA@
  00764	6a 00		 push	 0
  00766	68 00 00 00 00	 push	 OFFSET ??_C@_0M@DKICACGN@PkLimitFree?$AA@
  0076b	68 00 00 00 00	 push	 OFFSET ??_C@_0P@EMJDPFDH@GameServerInfo?$AA@
  00770	ff d6		 call	 esi
  00772	a3 00 00 00 00	 mov	 DWORD PTR ?gPkLimitFree@@3HA, eax ; gPkLimitFree

; 1185 : 			if(gPkLimitFree != 0)

  00777	85 c0		 test	 eax, eax
  00779	74 0f		 je	 SHORT $LN10@ReadCommon

; 1186 : 			{
; 1187 : 				LogAdd(LOG_BLACK, "PK Limit Free Server");

  0077b	68 00 00 00 00	 push	 OFFSET ??_C@_0BF@KFCGLLGL@PK?5Limit?5Free?5Server?$AA@
  00780	6a 00		 push	 0
  00782	e8 00 00 00 00	 call	 ?LogAdd@@YAXW4eLogColor@@PADZZ ; LogAdd
  00787	83 c4 08	 add	 esp, 8
$LN10@ReadCommon:

; 1188 : 			}
; 1189 : 			break;
; 1190 : /*		case 6: // Phillipine
; 1191 : 			strcpy(szlMsgName, gDirPath.GetNewPath("message_phi.wtf"));
; 1192 : 			strcpy(szItemTextFileName, gDirPath.GetNewPath("lang\\phi\\item(phi).txt"));
; 1193 : 			strcpy(szSkillTextFileName, gDirPath.GetNewPath("lang\\phi\\skill(phi).txt"));
; 1194 : 			strcpy(szQuestTextFileName, gDirPath.GetNewPath("lang\\phi\\Quest(phi).txt"));
; 1195 : 			strcpy(szCheckSum, gDirPath.GetNewPath("lang\\phi\\checksum.dat"));
; 1196 : 			strcpy(szMoveReqFileName, gDirPath.GetNewPath("lang\\phi\\movereq(phi).txt"));
; 1197 : 			strcpy(szCommonlocIniFileName, gDirPath.GetNewPath("lang\\phi\\commonloc.cfg"));
; 1198 : 			strcpy(gCountryName, "Phi");
; 1199 : 			gNonPK = GetPrivateProfileInt("GameServerInfo","NonPK",0, SERVER_INFO_PATH);
; 1200 : 			if(gNonPK != 0)
; 1201 : 			{
; 1202 : 				LogAdd(LOG_BLACK, "NON-PK Server");
; 1203 : 			}
; 1204 : 			gPkLimitFree = GetPrivateProfileInt("GameServerInfo","PkLimitFree",0, SERVER_INFO_PATH);
; 1205 : 			if(gPkLimitFree != 0)
; 1206 : 			{
; 1207 : 				LogAdd(LOG_BLACK, "PK Limit Free Server");
; 1208 : 			}
; 1209 : 			break;*/
; 1210 : 		/*case 7: // Vietnam
; 1211 : 			strcpy(szlMsgName, gDirPath.GetNewPath("message_vtm.wtf"));
; 1212 : 			strcpy(szItemTextFileName, gDirPath.GetNewPath("lang\\vtm\\item(vtm).txt"));
; 1213 : 			strcpy(szSkillTextFileName, gDirPath.GetNewPath("lang\\vtm\\skill(vtm).txt"));
; 1214 : 			strcpy(szQuestTextFileName, gDirPath.GetNewPath("lang\\vtm\\Quest(vtm).txt"));
; 1215 : 			strcpy(szMoveReqFileName, gDirPath.GetNewPath("lang\\vtm\\movereq(vtm).txt"));
; 1216 : 			strcpy(szCheckSum, gDirPath.GetNewPath("lang\\vtm\\CheckSum.dat"));
; 1217 : 			strcpy(szCommonlocIniFileName, gDirPath.GetNewPath("lang\\vtm\\commonloc.cfg"));
; 1218 : 			strcpy(gCountryName, "Vtm");
; 1219 : 			gNonPK = GetPrivateProfileInt("GameServerInfo","NonPK",0, SERVER_INFO_PATH);
; 1220 : 			if(gNonPK != 0)
; 1221 : 			{
; 1222 : 				LogAdd(LOG_BLACK, "NON-PK Server");
; 1223 : 			}
; 1224 : 			gPkLimitFree = GetPrivateProfileInt("GameServerInfo","PkLimitFree",0, SERVER_INFO_PATH);
; 1225 : 			if(gPkLimitFree != 0)
; 1226 : 			{
; 1227 : 				LogAdd(LOG_BLACK, "PK Limit Free Server");
; 1228 : 			}
; 1229 : 			break;*/
; 1230 : 	}
; 1231 : 
; 1232 : 	CheckSumFileLoad(szCheckSum);

  0078a	8d 95 fc fd ff
	ff		 lea	 edx, DWORD PTR _szCheckSum$[ebp]
  00790	52		 push	 edx
  00791	e8 00 00 00 00	 call	 ?CheckSumFileLoad@@YAXPAD@Z ; CheckSumFileLoad
  00796	83 c4 04	 add	 esp, 4

; 1233 : 
; 1234 : 	lMsg.LoadWTF(szlMsgName);

  00799	8d 85 fc fc ff
	ff		 lea	 eax, DWORD PTR _szlMsgName$[ebp]
  0079f	50		 push	 eax
  007a0	b9 00 00 00 00	 mov	 ecx, OFFSET ?lMsg@@3VCMsg@@A ; lMsg
  007a5	e8 00 00 00 00	 call	 ?LoadWTF@CMsg@@QAEXPAD@Z ; CMsg::LoadWTF

; 1235 : 
; 1236 : 	SetMapName();

  007aa	e8 00 00 00 00	 call	 ?SetMapName@@YAXXZ	; SetMapName

; 1237 : 
; 1238 : 	OpenItemScript("..\\data\\lang\\Kor\\item(Kor).txt");

  007af	68 00 00 00 00	 push	 OFFSET ??_C@_0BP@GKCHNKMH@?4?4?2data?2lang?2Kor?2item?$CIKor?$CJ?4txt?$AA@
  007b4	e8 00 00 00 00	 call	 ?OpenItemScript@@YAHPAD@Z ; OpenItemScript
  007b9	83 c4 04	 add	 esp, 4

; 1239 : 
; 1240 : 	MagicDamageC.LogSkillList("..\\data\\lang\\Kor\\skill(Kor).txt");

  007bc	68 00 00 00 00	 push	 OFFSET ??_C@_0CA@DFDHGNGE@?4?4?2data?2lang?2Kor?2skill?$CIKor?$CJ?4txt?$AA@
  007c1	b9 00 00 00 00	 mov	 ecx, OFFSET ?MagicDamageC@@3VCMagicDamage@@A ; MagicDamageC
  007c6	e8 00 00 00 00	 call	 ?LogSkillList@CMagicDamage@@QAEXPAD@Z ; CMagicDamage::LogSkillList

; 1241 : 
; 1242 : 	SkillSpearHitBox.Load(gDirPath.GetNewPath("skillSpear.hit"));

  007cb	68 00 00 00 00	 push	 OFFSET ??_C@_0P@NPIOLEMH@skillSpear?4hit?$AA@
  007d0	b9 00 00 00 00	 mov	 ecx, OFFSET ?gDirPath@@3VCDirPath@@A ; gDirPath
  007d5	e8 00 00 00 00	 call	 ?GetNewPath@CDirPath@@QAEPADPAD@Z ; CDirPath::GetNewPath
  007da	50		 push	 eax
  007db	b9 00 00 00 00	 mov	 ecx, OFFSET ?SkillSpearHitBox@@3VCSkillHitBox@@A ; SkillSpearHitBox
  007e0	e8 00 00 00 00	 call	 ?Load@CSkillHitBox@@QAEHPAD@Z ; CSkillHitBox::Load

; 1243 : 	SkillElectricSparkHitBox.Load(gDirPath.GetNewPath("skillElect.hit"));

  007e5	68 00 00 00 00	 push	 OFFSET ??_C@_0P@POAMAGDJ@skillElect?4hit?$AA@
  007ea	b9 00 00 00 00	 mov	 ecx, OFFSET ?gDirPath@@3VCDirPath@@A ; gDirPath
  007ef	e8 00 00 00 00	 call	 ?GetNewPath@CDirPath@@QAEPADPAD@Z ; CDirPath::GetNewPath
  007f4	50		 push	 eax
  007f5	b9 00 00 00 00	 mov	 ecx, OFFSET ?SkillElectricSparkHitBox@@3VCSkillHitBox@@A ; SkillElectricSparkHitBox
  007fa	e8 00 00 00 00	 call	 ?Load@CSkillHitBox@@QAEHPAD@Z ; CSkillHitBox::Load

; 1244 : 
; 1245 : 	gSetItemOption.LoadOptionInfo("..\\data\\lang\\Kor\\itemsetoption(Kor).txt");

  007ff	68 00 00 00 00	 push	 OFFSET ??_C@_0CI@GIEFOAO@?4?4?2data?2lang?2Kor?2itemsetoption?$CIK@
  00804	b9 00 00 00 00	 mov	 ecx, OFFSET ?gSetItemOption@@3VCSetItemOption@@A ; gSetItemOption
  00809	e8 00 00 00 00	 call	 ?LoadOptionInfo@CSetItemOption@@QAEHPAD@Z ; CSetItemOption::LoadOptionInfo

; 1246 : 
; 1247 : 	gSetItemOption.LoadTypeInfo("..\\data\\lang\\Kor\\itemsettype(Kor).txt");

  0080e	68 00 00 00 00	 push	 OFFSET ??_C@_0CG@BFLHEFAB@?4?4?2data?2lang?2Kor?2itemsettype?$CIKor@
  00813	b9 00 00 00 00	 mov	 ecx, OFFSET ?gSetItemOption@@3VCSetItemOption@@A ; gSetItemOption
  00818	e8 00 00 00 00	 call	 ?LoadTypeInfo@CSetItemOption@@QAEHPAD@Z ; CSetItemOption::LoadTypeInfo

; 1248 : 
; 1249 : 	gMoveCommand.Load("..\\data\\lang\\Kor\\movereq(kor).txt");

  0081d	68 00 00 00 00	 push	 OFFSET ??_C@_0CC@EFPCADGB@?4?4?2data?2lang?2Kor?2movereq?$CIkor?$CJ?4tx@
  00822	b9 00 00 00 00	 mov	 ecx, OFFSET ?gMoveCommand@@3VCMoveCommand@@A ; gMoveCommand
  00827	e8 00 00 00 00	 call	 ?Load@CMoveCommand@@QAEHPAD@Z ; CMoveCommand::Load

; 1250 : 	gMoveCommand.LoadMoveLevel(gDirPath.GetNewPath("MoveLevel.txt"));

  0082c	68 00 00 00 00	 push	 OFFSET ??_C@_0O@MOJICEJC@MoveLevel?4txt?$AA@
  00831	b9 00 00 00 00	 mov	 ecx, OFFSET ?gDirPath@@3VCDirPath@@A ; gDirPath
  00836	e8 00 00 00 00	 call	 ?GetNewPath@CDirPath@@QAEPADPAD@Z ; CDirPath::GetNewPath
  0083b	50		 push	 eax
  0083c	b9 00 00 00 00	 mov	 ecx, OFFSET ?gMoveCommand@@3VCMoveCommand@@A ; gMoveCommand
  00841	e8 00 00 00 00	 call	 ?LoadMoveLevel@CMoveCommand@@QAEHPAD@Z ; CMoveCommand::LoadMoveLevel

; 1251 : 
; 1252 : 	ConMember.Load(gDirPath.GetNewPath("ConnectMember.txt"));

  00846	68 00 00 00 00	 push	 OFFSET ??_C@_0BC@FGIEIEFL@ConnectMember?4txt?$AA@
  0084b	b9 00 00 00 00	 mov	 ecx, OFFSET ?gDirPath@@3VCDirPath@@A ; gDirPath
  00850	e8 00 00 00 00	 call	 ?GetNewPath@CDirPath@@QAEPADPAD@Z ; CDirPath::GetNewPath
  00855	50		 push	 eax
  00856	b9 00 00 00 00	 mov	 ecx, OFFSET ?ConMember@@3VCConMember@@A ; ConMember
  0085b	e8 00 00 00 00	 call	 ?Load@CConMember@@QAEXPAD@Z ; CConMember::Load

; 1253 : 
; 1254 : 	g_QuestInfo.LoadQuestInfo("..\\data\\lang\\Kor\\quest(Kor).txt");	

  00860	68 00 00 00 00	 push	 OFFSET ??_C@_0CA@MAJLFLOB@?4?4?2data?2lang?2Kor?2quest?$CIKor?$CJ?4txt?$AA@
  00865	b9 00 00 00 00	 mov	 ecx, OFFSET ?g_QuestInfo@@3VCQuestInfo@@A ; g_QuestInfo
  0086a	e8 00 00 00 00	 call	 ?LoadQuestInfo@CQuestInfo@@QAEHPAD@Z ; CQuestInfo::LoadQuestInfo

; 1255 : 	
; 1256 : 	GetPrivateProfileString("GameServerInfo","ClientExeVersion","", szTemp, 8, gDirPath.GetNewPath(szCommonlocIniFileName));

  0086f	68 00 00 00 00	 push	 OFFSET ?szCommonlocIniFileName@@3PADA ; szCommonlocIniFileName
  00874	b9 00 00 00 00	 mov	 ecx, OFFSET ?gDirPath@@3VCDirPath@@A ; gDirPath
  00879	e8 00 00 00 00	 call	 ?GetNewPath@CDirPath@@QAEPADPAD@Z ; CDirPath::GetNewPath
  0087e	50		 push	 eax
  0087f	6a 08		 push	 8
  00881	8d 8d fc fe ff
	ff		 lea	 ecx, DWORD PTR _szTemp$[ebp]
  00887	51		 push	 ecx
  00888	68 00 00 00 00	 push	 OFFSET ??_C@_00CNPNBAHC@?$AA@
  0088d	68 00 00 00 00	 push	 OFFSET ??_C@_0BB@FBDFNIJB@ClientExeVersion?$AA@
  00892	68 00 00 00 00	 push	 OFFSET ??_C@_0P@EMJDPFDH@GameServerInfo?$AA@
  00897	ff d7		 call	 edi

; 1257 : 	GetPrivateProfileString("GameServerInfo","ClientExeSerial","", szGameServerExeSerial, 20, gDirPath.GetNewPath(szCommonlocIniFileName));

  00899	68 00 00 00 00	 push	 OFFSET ?szCommonlocIniFileName@@3PADA ; szCommonlocIniFileName
  0089e	b9 00 00 00 00	 mov	 ecx, OFFSET ?gDirPath@@3VCDirPath@@A ; gDirPath
  008a3	e8 00 00 00 00	 call	 ?GetNewPath@CDirPath@@QAEPADPAD@Z ; CDirPath::GetNewPath
  008a8	50		 push	 eax
  008a9	6a 14		 push	 20			; 00000014H
  008ab	68 00 00 00 00	 push	 OFFSET ?szGameServerExeSerial@@3PADA ; szGameServerExeSerial
  008b0	68 00 00 00 00	 push	 OFFSET ??_C@_00CNPNBAHC@?$AA@
  008b5	68 00 00 00 00	 push	 OFFSET ??_C@_0BA@JHAHNEJ@ClientExeSerial?$AA@
  008ba	68 00 00 00 00	 push	 OFFSET ??_C@_0P@EMJDPFDH@GameServerInfo?$AA@
  008bf	ff d7		 call	 edi

; 1258 : 
; 1259 : 	cvstr = strtok(szTemp, ".");

  008c1	8d 95 fc fe ff
	ff		 lea	 edx, DWORD PTR _szTemp$[ebp]
  008c7	68 00 00 00 00	 push	 OFFSET ??_C@_01LFCBOECM@?4?$AA@
  008cc	52		 push	 edx
  008cd	e8 00 00 00 00	 call	 _strtok

; 1260 : 	szClientVersion[0] = cvstr[0];

  008d2	8a 00		 mov	 al, BYTE PTR [eax]

; 1261 : 	cvstr = strtok(NULL, ".");

  008d4	68 00 00 00 00	 push	 OFFSET ??_C@_01LFCBOECM@?4?$AA@
  008d9	6a 00		 push	 0
  008db	a2 00 00 00 00	 mov	 BYTE PTR ?szClientVersion@@3PADA, al
  008e0	e8 00 00 00 00	 call	 _strtok

; 1262 : 	szClientVersion[1] = cvstr[0];

  008e5	0f b6 08	 movzx	 ecx, BYTE PTR [eax]
  008e8	88 0d 01 00 00
	00		 mov	 BYTE PTR ?szClientVersion@@3PADA+1, cl

; 1263 : 	szClientVersion[2] = cvstr[1];

  008ee	0f b6 50 01	 movzx	 edx, BYTE PTR [eax+1]

; 1264 : 	cvstr = strtok(NULL, ".");

  008f2	68 00 00 00 00	 push	 OFFSET ??_C@_01LFCBOECM@?4?$AA@
  008f7	6a 00		 push	 0
  008f9	88 15 02 00 00
	00		 mov	 BYTE PTR ?szClientVersion@@3PADA+2, dl
  008ff	e8 00 00 00 00	 call	 _strtok

; 1265 : 	szClientVersion[3] = cvstr[0];

  00904	0f b6 08	 movzx	 ecx, BYTE PTR [eax]
  00907	88 0d 03 00 00
	00		 mov	 BYTE PTR ?szClientVersion@@3PADA+3, cl

; 1266 : 	szClientVersion[4] = cvstr[1];	

  0090d	0f b6 50 01	 movzx	 edx, BYTE PTR [eax+1]
  00911	83 c4 18	 add	 esp, 24			; 00000018H

; 1267 : 
; 1268 : 	// Skill Addition
; 1269 : 	g_SkillAdditionInfo.Load("SkillAdditionInfo.dat");

  00914	68 00 00 00 00	 push	 OFFSET ??_C@_0BG@OHJHEJDE@SkillAdditionInfo?4dat?$AA@
  00919	b9 00 00 00 00	 mov	 ecx, OFFSET ?g_SkillAdditionInfo@@3VCSkillAdditionInfo@@A ; g_SkillAdditionInfo
  0091e	88 15 04 00 00
	00		 mov	 BYTE PTR ?szClientVersion@@3PADA+4, dl
  00924	e8 00 00 00 00	 call	 ?Load@CSkillAdditionInfo@@QAEHPAD@Z ; CSkillAdditionInfo::Load

; 1270 : 
; 1271 : 	GetPrivateProfileString("GameServerInfo", "CreateCharacter", "1", szTemp, 5, gDirPath.GetNewPath("commonserver.cfg"));

  00929	68 00 00 00 00	 push	 OFFSET ??_C@_0BB@IGLHFEOF@commonserver?4cfg?$AA@
  0092e	b9 00 00 00 00	 mov	 ecx, OFFSET ?gDirPath@@3VCDirPath@@A ; gDirPath
  00933	e8 00 00 00 00	 call	 ?GetNewPath@CDirPath@@QAEPADPAD@Z ; CDirPath::GetNewPath
  00938	50		 push	 eax
  00939	6a 05		 push	 5
  0093b	8d 85 fc fe ff
	ff		 lea	 eax, DWORD PTR _szTemp$[ebp]
  00941	50		 push	 eax
  00942	68 00 00 00 00	 push	 OFFSET ??_C@_01HIHLOKLC@1?$AA@
  00947	68 00 00 00 00	 push	 OFFSET ??_C@_0BA@DIAOPFNP@CreateCharacter?$AA@
  0094c	68 00 00 00 00	 push	 OFFSET ??_C@_0P@EMJDPFDH@GameServerInfo?$AA@
  00951	ff d7		 call	 edi

; 1272 : 	gCreateCharacter = atoi(szTemp);

  00953	8d 8d fc fe ff
	ff		 lea	 ecx, DWORD PTR _szTemp$[ebp]
  00959	51		 push	 ecx
  0095a	e8 00 00 00 00	 call	 _atoi
  0095f	83 c4 04	 add	 esp, 4

; 1273 : 	GetPrivateProfileString("GameServerInfo", "CharacterDeleteMinLevel", "40", szTemp, 5, gDirPath.GetNewPath("commonserver.cfg"));

  00962	68 00 00 00 00	 push	 OFFSET ??_C@_0BB@IGLHFEOF@commonserver?4cfg?$AA@
  00967	b9 00 00 00 00	 mov	 ecx, OFFSET ?gDirPath@@3VCDirPath@@A ; gDirPath
  0096c	a3 00 00 00 00	 mov	 DWORD PTR ?gCreateCharacter@@3HA, eax ; gCreateCharacter
  00971	e8 00 00 00 00	 call	 ?GetNewPath@CDirPath@@QAEPADPAD@Z ; CDirPath::GetNewPath
  00976	50		 push	 eax
  00977	6a 05		 push	 5
  00979	8d 95 fc fe ff
	ff		 lea	 edx, DWORD PTR _szTemp$[ebp]
  0097f	52		 push	 edx
  00980	68 00 00 00 00	 push	 OFFSET ??_C@_02PMJKFNFC@40?$AA@
  00985	68 00 00 00 00	 push	 OFFSET ??_C@_0BI@ONKCMGBI@CharacterDeleteMinLevel?$AA@
  0098a	68 00 00 00 00	 push	 OFFSET ??_C@_0P@EMJDPFDH@GameServerInfo?$AA@
  0098f	ff d7		 call	 edi

; 1274 : 	gCharacterDeleteMinLevel = atoi(szTemp);

  00991	8d 85 fc fe ff
	ff		 lea	 eax, DWORD PTR _szTemp$[ebp]
  00997	50		 push	 eax
  00998	e8 00 00 00 00	 call	 _atoi
  0099d	83 c4 04	 add	 esp, 4

; 1275 : #if(GS_CASTLE==0)
; 1276 : 	int iMaxUser = GetPrivateProfileInt("GameServerInfo","NumberOfMaxUser",500, gDirPath.GetNewPath("commonserver.cfg"));

  009a0	68 00 00 00 00	 push	 OFFSET ??_C@_0BB@IGLHFEOF@commonserver?4cfg?$AA@
  009a5	b9 00 00 00 00	 mov	 ecx, OFFSET ?gDirPath@@3VCDirPath@@A ; gDirPath
  009aa	a3 00 00 00 00	 mov	 DWORD PTR ?gCharacterDeleteMinLevel@@3HA, eax ; gCharacterDeleteMinLevel
  009af	e8 00 00 00 00	 call	 ?GetNewPath@CDirPath@@QAEPADPAD@Z ; CDirPath::GetNewPath
  009b4	50		 push	 eax
  009b5	68 f4 01 00 00	 push	 500			; 000001f4H
  009ba	68 00 00 00 00	 push	 OFFSET ??_C@_0BA@IJNIFGCF@NumberOfMaxUser?$AA@
  009bf	68 00 00 00 00	 push	 OFFSET ??_C@_0P@EMJDPFDH@GameServerInfo?$AA@
  009c4	ff d6		 call	 esi

; 1277 : #else
; 1278 : 	int iMaxUser = GetPrivateProfileInt("GameServerInfo","NumberOfCastleSiegeMaxUser",1500, gDirPath.GetNewPath("commonserver.cfg"));
; 1279 : #endif
; 1280 : 
; 1281 : 	if(iMaxUser >= 0 && iMaxUser <= OBJMAXUSER)

  009c6	3d e8 03 00 00	 cmp	 eax, 1000		; 000003e8H
  009cb	77 15		 ja	 SHORT $LN9@ReadCommon

; 1282 : 	{
; 1283 : 		gServerMaxUser = iMaxUser;
; 1284 : 		LogAdd(LOG_BLACK, "[Option Reload]  MaxUser   : %d", gServerMaxUser);

  009cd	50		 push	 eax
  009ce	68 00 00 00 00	 push	 OFFSET ??_C@_0CM@HGFFPJNE@?$FLOption?5Reload?$FN?5?$KB?Z?$KB?Z?$KB?Z?5MaxUser?5?$KB@
  009d3	6a 00		 push	 0
  009d5	a3 00 00 00 00	 mov	 DWORD PTR ?gServerMaxUser@@3HA, eax ; gServerMaxUser
  009da	e8 00 00 00 00	 call	 ?LogAdd@@YAXW4eLogColor@@PADZZ ; LogAdd
  009df	83 c4 0c	 add	 esp, 12			; 0000000cH
$LN9@ReadCommon:

; 1285 : 	}
; 1286 : 
; 1287 : 	// Guild Settingss
; 1288 : 	g_iServerGroupGuildChatting = GetPrivateProfileInt("GameServerInfo","ServerGroupGuildChatting",0, gDirPath.GetNewPath("commonserver.cfg"));

  009e2	68 00 00 00 00	 push	 OFFSET ??_C@_0BB@IGLHFEOF@commonserver?4cfg?$AA@
  009e7	b9 00 00 00 00	 mov	 ecx, OFFSET ?gDirPath@@3VCDirPath@@A ; gDirPath
  009ec	e8 00 00 00 00	 call	 ?GetNewPath@CDirPath@@QAEPADPAD@Z ; CDirPath::GetNewPath
  009f1	50		 push	 eax
  009f2	6a 00		 push	 0
  009f4	68 00 00 00 00	 push	 OFFSET ??_C@_0BJ@HLCGGCOP@ServerGroupGuildChatting?$AA@
  009f9	68 00 00 00 00	 push	 OFFSET ??_C@_0P@EMJDPFDH@GameServerInfo?$AA@
  009fe	ff d6		 call	 esi

; 1289 : 	GetPrivateProfileString("GameServerInfo", "GuildCreate", "1", szTemp, 5, gDirPath.GetNewPath("commonserver.cfg"));

  00a00	68 00 00 00 00	 push	 OFFSET ??_C@_0BB@IGLHFEOF@commonserver?4cfg?$AA@
  00a05	b9 00 00 00 00	 mov	 ecx, OFFSET ?gDirPath@@3VCDirPath@@A ; gDirPath
  00a0a	a3 00 00 00 00	 mov	 DWORD PTR ?g_iServerGroupGuildChatting@@3HA, eax ; g_iServerGroupGuildChatting
  00a0f	e8 00 00 00 00	 call	 ?GetNewPath@CDirPath@@QAEPADPAD@Z ; CDirPath::GetNewPath
  00a14	50		 push	 eax
  00a15	6a 05		 push	 5
  00a17	8d 8d fc fe ff
	ff		 lea	 ecx, DWORD PTR _szTemp$[ebp]
  00a1d	51		 push	 ecx
  00a1e	68 00 00 00 00	 push	 OFFSET ??_C@_01HIHLOKLC@1?$AA@
  00a23	68 00 00 00 00	 push	 OFFSET ??_C@_0M@CGJDJOAO@GuildCreate?$AA@
  00a28	68 00 00 00 00	 push	 OFFSET ??_C@_0P@EMJDPFDH@GameServerInfo?$AA@
  00a2d	ff d7		 call	 edi

; 1290 : 	gGuildCreate = atoi(szTemp);

  00a2f	8d 95 fc fe ff
	ff		 lea	 edx, DWORD PTR _szTemp$[ebp]
  00a35	52		 push	 edx
  00a36	e8 00 00 00 00	 call	 _atoi
  00a3b	83 c4 04	 add	 esp, 4

; 1291 : 	// Guild creation option %d
; 1292 : 	LogAdd(LOG_BLACK, lMsg.Get(MSGGET(2, 57)), gGuildCreate);

  00a3e	50		 push	 eax
  00a3f	68 39 02 00 00	 push	 569			; 00000239H
  00a44	b9 00 00 00 00	 mov	 ecx, OFFSET ?lMsg@@3VCMsg@@A ; lMsg
  00a49	a3 00 00 00 00	 mov	 DWORD PTR ?gGuildCreate@@3HA, eax ; gGuildCreate
  00a4e	e8 00 00 00 00	 call	 ?Get@CMsg@@QAEPADH@Z	; CMsg::Get
  00a53	50		 push	 eax
  00a54	6a 00		 push	 0
  00a56	e8 00 00 00 00	 call	 ?LogAdd@@YAXW4eLogColor@@PADZZ ; LogAdd
  00a5b	83 c4 0c	 add	 esp, 12			; 0000000cH

; 1293 : 	GetPrivateProfileString("GameServerInfo", "GuildDestroy", "1", szTemp, 5, gDirPath.GetNewPath("commonserver.cfg"));

  00a5e	68 00 00 00 00	 push	 OFFSET ??_C@_0BB@IGLHFEOF@commonserver?4cfg?$AA@
  00a63	b9 00 00 00 00	 mov	 ecx, OFFSET ?gDirPath@@3VCDirPath@@A ; gDirPath
  00a68	e8 00 00 00 00	 call	 ?GetNewPath@CDirPath@@QAEPADPAD@Z ; CDirPath::GetNewPath
  00a6d	50		 push	 eax
  00a6e	6a 05		 push	 5
  00a70	8d 85 fc fe ff
	ff		 lea	 eax, DWORD PTR _szTemp$[ebp]
  00a76	50		 push	 eax
  00a77	68 00 00 00 00	 push	 OFFSET ??_C@_01HIHLOKLC@1?$AA@
  00a7c	68 00 00 00 00	 push	 OFFSET ??_C@_0N@OEKMPEAB@GuildDestroy?$AA@
  00a81	68 00 00 00 00	 push	 OFFSET ??_C@_0P@EMJDPFDH@GameServerInfo?$AA@
  00a86	ff d7		 call	 edi

; 1294 : 	// Guild delete option %d
; 1295 : 	gGuildDestroy = atoi(szTemp);

  00a88	8d 8d fc fe ff
	ff		 lea	 ecx, DWORD PTR _szTemp$[ebp]
  00a8e	51		 push	 ecx
  00a8f	e8 00 00 00 00	 call	 _atoi
  00a94	83 c4 04	 add	 esp, 4

; 1296 : 	LogAdd(LOG_BLACK, lMsg.Get(MSGGET(2, 58)), gGuildDestroy);

  00a97	50		 push	 eax
  00a98	68 3a 02 00 00	 push	 570			; 0000023aH
  00a9d	b9 00 00 00 00	 mov	 ecx, OFFSET ?lMsg@@3VCMsg@@A ; lMsg
  00aa2	a3 00 00 00 00	 mov	 DWORD PTR ?gGuildDestroy@@3HA, eax ; gGuildDestroy
  00aa7	e8 00 00 00 00	 call	 ?Get@CMsg@@QAEPADH@Z	; CMsg::Get
  00aac	50		 push	 eax
  00aad	6a 00		 push	 0
  00aaf	e8 00 00 00 00	 call	 ?LogAdd@@YAXW4eLogColor@@PADZZ ; LogAdd
  00ab4	83 c4 0c	 add	 esp, 12			; 0000000cH

; 1297 : 	GetPrivateProfileString("GameServerInfo", "GuildCreateLevel", "100", szTemp, 5, gDirPath.GetNewPath("commonserver.cfg"));

  00ab7	68 00 00 00 00	 push	 OFFSET ??_C@_0BB@IGLHFEOF@commonserver?4cfg?$AA@
  00abc	b9 00 00 00 00	 mov	 ecx, OFFSET ?gDirPath@@3VCDirPath@@A ; gDirPath
  00ac1	e8 00 00 00 00	 call	 ?GetNewPath@CDirPath@@QAEPADPAD@Z ; CDirPath::GetNewPath
  00ac6	50		 push	 eax
  00ac7	6a 05		 push	 5
  00ac9	8d 95 fc fe ff
	ff		 lea	 edx, DWORD PTR _szTemp$[ebp]
  00acf	52		 push	 edx
  00ad0	68 00 00 00 00	 push	 OFFSET ??_C@_03GNABGMEE@100?$AA@
  00ad5	68 00 00 00 00	 push	 OFFSET ??_C@_0BB@DOGMENHB@GuildCreateLevel?$AA@
  00ada	68 00 00 00 00	 push	 OFFSET ??_C@_0P@EMJDPFDH@GameServerInfo?$AA@
  00adf	ff d7		 call	 edi

; 1298 : 	gGuildCreateLevel = atoi(szTemp);

  00ae1	8d 85 fc fe ff
	ff		 lea	 eax, DWORD PTR _szTemp$[ebp]
  00ae7	50		 push	 eax
  00ae8	e8 00 00 00 00	 call	 _atoi
  00aed	83 c4 04	 add	 esp, 4

; 1299 : 	// Above level %d can create guild
; 1300 : 	LogAdd(LOG_BLACK, lMsg.Get(MSGGET(2, 59)), gGuildCreateLevel);

  00af0	50		 push	 eax
  00af1	68 3b 02 00 00	 push	 571			; 0000023bH
  00af6	b9 00 00 00 00	 mov	 ecx, OFFSET ?lMsg@@3VCMsg@@A ; lMsg
  00afb	a3 00 00 00 00	 mov	 DWORD PTR ?gGuildCreateLevel@@3HA, eax ; gGuildCreateLevel
  00b00	e8 00 00 00 00	 call	 ?Get@CMsg@@QAEPADH@Z	; CMsg::Get
  00b05	50		 push	 eax
  00b06	6a 00		 push	 0
  00b08	e8 00 00 00 00	 call	 ?LogAdd@@YAXW4eLogColor@@PADZZ ; LogAdd
  00b0d	83 c4 0c	 add	 esp, 12			; 0000000cH

; 1301 : 
; 1302 : 	g_bCastleGuildDestoyLimit = GetPrivateProfileInt("GameServerInfo", "CastleOwnerGuildDestroyLimit", 1, gDirPath.GetNewPath("commonserver.cfg"));

  00b10	68 00 00 00 00	 push	 OFFSET ??_C@_0BB@IGLHFEOF@commonserver?4cfg?$AA@
  00b15	b9 00 00 00 00	 mov	 ecx, OFFSET ?gDirPath@@3VCDirPath@@A ; gDirPath
  00b1a	e8 00 00 00 00	 call	 ?GetNewPath@CDirPath@@QAEPADPAD@Z ; CDirPath::GetNewPath
  00b1f	50		 push	 eax
  00b20	6a 01		 push	 1
  00b22	68 00 00 00 00	 push	 OFFSET ??_C@_0BN@IDOOLGAL@CastleOwnerGuildDestroyLimit?$AA@
  00b27	68 00 00 00 00	 push	 OFFSET ??_C@_0P@EMJDPFDH@GameServerInfo?$AA@
  00b2c	ff d6		 call	 esi

; 1303 : 
; 1304 : 	GetPrivateProfileString("GameServerInfo", "SpeedHackPlayerBlock", "0", szTemp, 5, gDirPath.GetNewPath("commonserver.cfg"));

  00b2e	68 00 00 00 00	 push	 OFFSET ??_C@_0BB@IGLHFEOF@commonserver?4cfg?$AA@
  00b33	b9 00 00 00 00	 mov	 ecx, OFFSET ?gDirPath@@3VCDirPath@@A ; gDirPath
  00b38	a3 00 00 00 00	 mov	 DWORD PTR ?g_bCastleGuildDestoyLimit@@3HA, eax ; g_bCastleGuildDestoyLimit
  00b3d	e8 00 00 00 00	 call	 ?GetNewPath@CDirPath@@QAEPADPAD@Z ; CDirPath::GetNewPath
  00b42	50		 push	 eax
  00b43	6a 05		 push	 5
  00b45	8d 8d fc fe ff
	ff		 lea	 ecx, DWORD PTR _szTemp$[ebp]
  00b4b	51		 push	 ecx
  00b4c	68 00 00 00 00	 push	 OFFSET ??_C@_01GBGANLPD@0?$AA@
  00b51	68 00 00 00 00	 push	 OFFSET ??_C@_0BF@KDFHAHG@SpeedHackPlayerBlock?$AA@
  00b56	68 00 00 00 00	 push	 OFFSET ??_C@_0P@EMJDPFDH@GameServerInfo?$AA@
  00b5b	ff d7		 call	 edi

; 1305 : 	SpeedHackPlayerBlock = atoi(szTemp);

  00b5d	8d 95 fc fe ff
	ff		 lea	 edx, DWORD PTR _szTemp$[ebp]
  00b63	52		 push	 edx
  00b64	e8 00 00 00 00	 call	 _atoi
  00b69	83 c4 04	 add	 esp, 4

; 1306 : 	GetPrivateProfileString("GameServerInfo", "ItemSerialCheck", "1", szTemp, 5, gDirPath.GetNewPath("commonserver.cfg"));

  00b6c	68 00 00 00 00	 push	 OFFSET ??_C@_0BB@IGLHFEOF@commonserver?4cfg?$AA@
  00b71	b9 00 00 00 00	 mov	 ecx, OFFSET ?gDirPath@@3VCDirPath@@A ; gDirPath
  00b76	a3 00 00 00 00	 mov	 DWORD PTR ?SpeedHackPlayerBlock@@3HA, eax ; SpeedHackPlayerBlock
  00b7b	e8 00 00 00 00	 call	 ?GetNewPath@CDirPath@@QAEPADPAD@Z ; CDirPath::GetNewPath
  00b80	50		 push	 eax
  00b81	6a 05		 push	 5
  00b83	8d 85 fc fe ff
	ff		 lea	 eax, DWORD PTR _szTemp$[ebp]
  00b89	50		 push	 eax
  00b8a	68 00 00 00 00	 push	 OFFSET ??_C@_01HIHLOKLC@1?$AA@
  00b8f	68 00 00 00 00	 push	 OFFSET ??_C@_0BA@PFGDHKCH@ItemSerialCheck?$AA@
  00b94	68 00 00 00 00	 push	 OFFSET ??_C@_0P@EMJDPFDH@GameServerInfo?$AA@
  00b99	ff d7		 call	 edi

; 1307 : 	gItemSerialCheck = atoi(szTemp);

  00b9b	8d 8d fc fe ff
	ff		 lea	 ecx, DWORD PTR _szTemp$[ebp]
  00ba1	51		 push	 ecx
  00ba2	e8 00 00 00 00	 call	 _atoi
  00ba7	83 c4 04	 add	 esp, 4

; 1308 : 	GetPrivateProfileString("GameServerInfo", "Trade", "1", szTemp, 5, gDirPath.GetNewPath("commonserver.cfg"));

  00baa	68 00 00 00 00	 push	 OFFSET ??_C@_0BB@IGLHFEOF@commonserver?4cfg?$AA@
  00baf	b9 00 00 00 00	 mov	 ecx, OFFSET ?gDirPath@@3VCDirPath@@A ; gDirPath
  00bb4	a3 00 00 00 00	 mov	 DWORD PTR ?gItemSerialCheck@@3HA, eax ; gItemSerialCheck
  00bb9	e8 00 00 00 00	 call	 ?GetNewPath@CDirPath@@QAEPADPAD@Z ; CDirPath::GetNewPath
  00bbe	50		 push	 eax
  00bbf	6a 05		 push	 5
  00bc1	8d 95 fc fe ff
	ff		 lea	 edx, DWORD PTR _szTemp$[ebp]
  00bc7	52		 push	 edx
  00bc8	68 00 00 00 00	 push	 OFFSET ??_C@_01HIHLOKLC@1?$AA@
  00bcd	68 00 00 00 00	 push	 OFFSET ??_C@_05IOPOMLGK@Trade?$AA@
  00bd2	68 00 00 00 00	 push	 OFFSET ??_C@_0P@EMJDPFDH@GameServerInfo?$AA@
  00bd7	ff d7		 call	 edi

; 1309 : 	bCanTrade = atoi(szTemp);

  00bd9	8d 85 fc fe ff
	ff		 lea	 eax, DWORD PTR _szTemp$[ebp]
  00bdf	50		 push	 eax
  00be0	e8 00 00 00 00	 call	 _atoi
  00be5	83 c4 04	 add	 esp, 4
  00be8	a3 00 00 00 00	 mov	 DWORD PTR ?bCanTrade@@3HA, eax ; bCanTrade

; 1310 : 
; 1311 : 	if(bCanTrade != 0)

  00bed	85 c0		 test	 eax, eax
  00bef	74 07		 je	 SHORT $LN8@ReadCommon

; 1312 : 	{
; 1313 : 		LogAdd(LOG_BLACK, "Allowed to trade");

  00bf1	68 00 00 00 00	 push	 OFFSET ??_C@_0BB@NLGBCHJO@Allowed?5to?5trade?$AA@

; 1314 : 	}
; 1315 : 	else

  00bf6	eb 05		 jmp	 SHORT $LN128@ReadCommon
$LN8@ReadCommon:

; 1316 : 	{
; 1317 : 		LogAdd(LOG_BLACK, "Cant trade on this server");

  00bf8	68 00 00 00 00	 push	 OFFSET ??_C@_0BK@CKGGLAII@Cant?5trade?5on?5this?5server?$AA@
$LN128@ReadCommon:
  00bfd	6a 00		 push	 0
  00bff	e8 00 00 00 00	 call	 ?LogAdd@@YAXW4eLogColor@@PADZZ ; LogAdd
  00c04	83 c4 08	 add	 esp, 8

; 1318 : 	}
; 1319 : 
; 1320 : 	bCanChaosBox = GetPrivateProfileInt("GameServerInfo","ChaosBox",0, gDirPath.GetNewPath("commonserver.cfg"));

  00c07	68 00 00 00 00	 push	 OFFSET ??_C@_0BB@IGLHFEOF@commonserver?4cfg?$AA@
  00c0c	b9 00 00 00 00	 mov	 ecx, OFFSET ?gDirPath@@3VCDirPath@@A ; gDirPath
  00c11	e8 00 00 00 00	 call	 ?GetNewPath@CDirPath@@QAEPADPAD@Z ; CDirPath::GetNewPath
  00c16	50		 push	 eax
  00c17	6a 00		 push	 0
  00c19	68 00 00 00 00	 push	 OFFSET ??_C@_08CIGOAAJ@ChaosBox?$AA@
  00c1e	68 00 00 00 00	 push	 OFFSET ??_C@_0P@EMJDPFDH@GameServerInfo?$AA@
  00c23	ff d6		 call	 esi

; 1321 : 	gChaosEvent = GetPrivateProfileInt("GameServerInfo","ChaosEvent",0, gDirPath.GetNewPath("commonserver.cfg"));

  00c25	68 00 00 00 00	 push	 OFFSET ??_C@_0BB@IGLHFEOF@commonserver?4cfg?$AA@
  00c2a	b9 00 00 00 00	 mov	 ecx, OFFSET ?gDirPath@@3VCDirPath@@A ; gDirPath
  00c2f	a3 00 00 00 00	 mov	 DWORD PTR ?bCanChaosBox@@3HA, eax ; bCanChaosBox
  00c34	e8 00 00 00 00	 call	 ?GetNewPath@CDirPath@@QAEPADPAD@Z ; CDirPath::GetNewPath
  00c39	50		 push	 eax
  00c3a	6a 00		 push	 0
  00c3c	68 00 00 00 00	 push	 OFFSET ??_C@_0L@KKFEELGG@ChaosEvent?$AA@
  00c41	68 00 00 00 00	 push	 OFFSET ??_C@_0P@EMJDPFDH@GameServerInfo?$AA@
  00c46	ff d6		 call	 esi

; 1322 : 	GetPrivateProfileString("GameServerInfo", "ChaosEventServer", "127.0.0.1", gChaosEventServerIp, 20, gDirPath.GetNewPath("commonserver.cfg"));

  00c48	68 00 00 00 00	 push	 OFFSET ??_C@_0BB@IGLHFEOF@commonserver?4cfg?$AA@
  00c4d	b9 00 00 00 00	 mov	 ecx, OFFSET ?gDirPath@@3VCDirPath@@A ; gDirPath
  00c52	a3 00 00 00 00	 mov	 DWORD PTR ?gChaosEvent@@3HA, eax ; gChaosEvent
  00c57	e8 00 00 00 00	 call	 ?GetNewPath@CDirPath@@QAEPADPAD@Z ; CDirPath::GetNewPath
  00c5c	50		 push	 eax
  00c5d	6a 14		 push	 20			; 00000014H
  00c5f	68 00 00 00 00	 push	 OFFSET ?gChaosEventServerIp@@3PADA ; gChaosEventServerIp
  00c64	68 00 00 00 00	 push	 OFFSET ??_C@_09PFCHIMEP@127?40?40?41?$AA@
  00c69	68 00 00 00 00	 push	 OFFSET ??_C@_0BB@LFFJPGMP@ChaosEventServer?$AA@
  00c6e	68 00 00 00 00	 push	 OFFSET ??_C@_0P@EMJDPFDH@GameServerInfo?$AA@
  00c73	ff d7		 call	 edi

; 1323 : 	LogAdd(LOG_BLACK, "[Option] ChaosBox = %d", bCanChaosBox);

  00c75	8b 0d 00 00 00
	00		 mov	 ecx, DWORD PTR ?bCanChaosBox@@3HA ; bCanChaosBox
  00c7b	51		 push	 ecx
  00c7c	68 00 00 00 00	 push	 OFFSET ??_C@_0BH@HMHMODEL@?$FLOption?$FN?5ChaosBox?5?$DN?5?$CFd?$AA@
  00c81	6a 00		 push	 0
  00c83	e8 00 00 00 00	 call	 ?LogAdd@@YAXW4eLogColor@@PADZZ ; LogAdd

; 1324 : 	LogAdd(LOG_BLACK, "[Option] ChaosEvent = %d", gChaosEvent);

  00c88	8b 15 00 00 00
	00		 mov	 edx, DWORD PTR ?gChaosEvent@@3HA ; gChaosEvent
  00c8e	52		 push	 edx
  00c8f	68 00 00 00 00	 push	 OFFSET ??_C@_0BJ@BDPEJKAD@?$FLOption?$FN?5ChaosEvent?5?$DN?5?$CFd?$AA@
  00c94	6a 00		 push	 0
  00c96	e8 00 00 00 00	 call	 ?LogAdd@@YAXW4eLogColor@@PADZZ ; LogAdd

; 1325 : 	LogAdd(LOG_BLACK, "[Option] ChaosEventServer = %s", gChaosEventServerIp);

  00c9b	68 00 00 00 00	 push	 OFFSET ?gChaosEventServerIp@@3PADA ; gChaosEventServerIp
  00ca0	68 00 00 00 00	 push	 OFFSET ??_C@_0BP@BODHCMPI@?$FLOption?$FN?5ChaosEventServer?5?$DN?5?$CFs?$AA@
  00ca5	6a 00		 push	 0
  00ca7	e8 00 00 00 00	 call	 ?LogAdd@@YAXW4eLogColor@@PADZZ ; LogAdd

; 1326 : 	LogAdd(LOG_BLACK, "[Option] AttackEventRegenTime = %d", gAttackEventRegenTime);

  00cac	a1 00 00 00 00	 mov	 eax, DWORD PTR ?gAttackEventRegenTime@@3KA ; gAttackEventRegenTime
  00cb1	50		 push	 eax
  00cb2	68 00 00 00 00	 push	 OFFSET ??_C@_0CD@DBODMHPC@?$FLOption?$FN?5AttackEventRegenTime?5?$DN?5@
  00cb7	6a 00		 push	 0
  00cb9	e8 00 00 00 00	 call	 ?LogAdd@@YAXW4eLogColor@@PADZZ ; LogAdd
  00cbe	83 c4 30	 add	 esp, 48			; 00000030H

; 1327 : 	GetPrivateProfileString("GameServerInfo", "PKTIME", "1", szTemp, 5, gDirPath.GetNewPath("commonserver.cfg"));

  00cc1	68 00 00 00 00	 push	 OFFSET ??_C@_0BB@IGLHFEOF@commonserver?4cfg?$AA@
  00cc6	b9 00 00 00 00	 mov	 ecx, OFFSET ?gDirPath@@3VCDirPath@@A ; gDirPath
  00ccb	e8 00 00 00 00	 call	 ?GetNewPath@CDirPath@@QAEPADPAD@Z ; CDirPath::GetNewPath
  00cd0	50		 push	 eax
  00cd1	6a 05		 push	 5
  00cd3	8d 8d fc fe ff
	ff		 lea	 ecx, DWORD PTR _szTemp$[ebp]
  00cd9	51		 push	 ecx
  00cda	68 00 00 00 00	 push	 OFFSET ??_C@_01HIHLOKLC@1?$AA@
  00cdf	68 00 00 00 00	 push	 OFFSET ??_C@_06PKBKOIPG@PKTIME?$AA@
  00ce4	68 00 00 00 00	 push	 OFFSET ??_C@_0P@EMJDPFDH@GameServerInfo?$AA@
  00ce9	ff d7		 call	 edi

; 1328 : 	gPkTime = atoi(szTemp);

  00ceb	8d 95 fc fe ff
	ff		 lea	 edx, DWORD PTR _szTemp$[ebp]
  00cf1	52		 push	 edx
  00cf2	e8 00 00 00 00	 call	 _atoi
  00cf7	83 c4 04	 add	 esp, 4
  00cfa	a3 00 00 00 00	 mov	 DWORD PTR ?gPkTime@@3HA, eax ; gPkTime

; 1329 : 
; 1330 : 	if(gPkTime != 0)

  00cff	85 c0		 test	 eax, eax
  00d01	74 10		 je	 SHORT $LN6@ReadCommon

; 1331 : 	{
; 1332 : 		LogAdd(LOG_BLACK, "PK Time set to %d", gPkTime);

  00d03	50		 push	 eax
  00d04	68 00 00 00 00	 push	 OFFSET ??_C@_0BC@FCDMLPNF@PK?5Time?5set?5to?5?$CFd?$AA@
  00d09	6a 00		 push	 0
  00d0b	e8 00 00 00 00	 call	 ?LogAdd@@YAXW4eLogColor@@PADZZ ; LogAdd
  00d10	83 c4 0c	 add	 esp, 12			; 0000000cH
$LN6@ReadCommon:

; 1333 : 	}
; 1334 : 
; 1335 : 	GetPrivateProfileString("GameServerInfo", "MonsterHp", "0", szTemp, 5, gDirPath.GetNewPath("commonserver.cfg"));

  00d13	68 00 00 00 00	 push	 OFFSET ??_C@_0BB@IGLHFEOF@commonserver?4cfg?$AA@
  00d18	b9 00 00 00 00	 mov	 ecx, OFFSET ?gDirPath@@3VCDirPath@@A ; gDirPath
  00d1d	e8 00 00 00 00	 call	 ?GetNewPath@CDirPath@@QAEPADPAD@Z ; CDirPath::GetNewPath
  00d22	50		 push	 eax
  00d23	6a 05		 push	 5
  00d25	8d 85 fc fe ff
	ff		 lea	 eax, DWORD PTR _szTemp$[ebp]
  00d2b	50		 push	 eax
  00d2c	68 00 00 00 00	 push	 OFFSET ??_C@_01GBGANLPD@0?$AA@
  00d31	68 00 00 00 00	 push	 OFFSET ??_C@_09LNOLFHKA@MonsterHp?$AA@
  00d36	68 00 00 00 00	 push	 OFFSET ??_C@_0P@EMJDPFDH@GameServerInfo?$AA@
  00d3b	ff d7		 call	 edi

; 1336 : 	gMonsterHp = atoi(szTemp);

  00d3d	8d 8d fc fe ff
	ff		 lea	 ecx, DWORD PTR _szTemp$[ebp]
  00d43	51		 push	 ecx
  00d44	e8 00 00 00 00	 call	 _atoi
  00d49	83 c4 04	 add	 esp, 4
  00d4c	a3 00 00 00 00	 mov	 DWORD PTR ?gMonsterHp@@3HA, eax ; gMonsterHp

; 1337 : 	if(gMonsterHp != 0)

  00d51	85 c0		 test	 eax, eax
  00d53	74 10		 je	 SHORT $LN5@ReadCommon

; 1338 : 	{
; 1339 : 		LogAdd(LOG_BLACK, "Monster HP set to %d", gMonsterHp);

  00d55	50		 push	 eax
  00d56	68 00 00 00 00	 push	 OFFSET ??_C@_0BF@PPOFPHOE@Monster?5HP?5set?5to?5?$CFd?$AA@
  00d5b	6a 00		 push	 0
  00d5d	e8 00 00 00 00	 call	 ?LogAdd@@YAXW4eLogColor@@PADZZ ; LogAdd
  00d62	83 c4 0c	 add	 esp, 12			; 0000000cH
$LN5@ReadCommon:

; 1340 : 	}
; 1341 : 
; 1342 : 	GetPrivateProfileString("GameServerInfo", "LootingTime", "3", szTemp, 5, szCommonlocIniFileName);

  00d65	68 00 00 00 00	 push	 OFFSET ?szCommonlocIniFileName@@3PADA ; szCommonlocIniFileName
  00d6a	6a 05		 push	 5
  00d6c	8d 95 fc fe ff
	ff		 lea	 edx, DWORD PTR _szTemp$[ebp]
  00d72	52		 push	 edx
  00d73	68 00 00 00 00	 push	 OFFSET ??_C@_01EKENIIDA@3?$AA@
  00d78	68 00 00 00 00	 push	 OFFSET ??_C@_0M@CNCIMJOC@LootingTime?$AA@
  00d7d	68 00 00 00 00	 push	 OFFSET ??_C@_0P@EMJDPFDH@GameServerInfo?$AA@
  00d82	ff d7		 call	 edi

; 1343 : 	gLootingTime = atoi(szTemp);

  00d84	8d 85 fc fe ff
	ff		 lea	 eax, DWORD PTR _szTemp$[ebp]
  00d8a	50		 push	 eax
  00d8b	e8 00 00 00 00	 call	 _atoi
  00d90	83 c4 04	 add	 esp, 4
  00d93	a3 00 00 00 00	 mov	 DWORD PTR ?gLootingTime@@3HA, eax ; gLootingTime

; 1344 : 
; 1345 : 	if(gLootingTime != 0)

  00d98	85 c0		 test	 eax, eax
  00d9a	74 10		 je	 SHORT $LN4@ReadCommon

; 1346 : 	{
; 1347 : 		LogAdd(LOG_BLACK, "[Option] Auto Looting Time Set : %d", gLootingTime);

  00d9c	50		 push	 eax
  00d9d	68 00 00 00 00	 push	 OFFSET ??_C@_0CE@CGDCLGCF@?$FLOption?$FN?5Auto?5Looting?5Time?5Set?5?3@
  00da2	6a 00		 push	 0
  00da4	e8 00 00 00 00	 call	 ?LogAdd@@YAXW4eLogColor@@PADZZ ; LogAdd
  00da9	83 c4 0c	 add	 esp, 12			; 0000000cH
$LN4@ReadCommon:

; 1348 : 	}
; 1349 : 
; 1350 : 	GetPrivateProfileString("GameServerInfo", "PKItemDrop", "1", szTemp, 5, gDirPath.GetNewPath("commonserver.cfg"));

  00dac	68 00 00 00 00	 push	 OFFSET ??_C@_0BB@IGLHFEOF@commonserver?4cfg?$AA@
  00db1	b9 00 00 00 00	 mov	 ecx, OFFSET ?gDirPath@@3VCDirPath@@A ; gDirPath
  00db6	e8 00 00 00 00	 call	 ?GetNewPath@CDirPath@@QAEPADPAD@Z ; CDirPath::GetNewPath
  00dbb	50		 push	 eax
  00dbc	6a 05		 push	 5
  00dbe	8d 8d fc fe ff
	ff		 lea	 ecx, DWORD PTR _szTemp$[ebp]
  00dc4	51		 push	 ecx
  00dc5	68 00 00 00 00	 push	 OFFSET ??_C@_01HIHLOKLC@1?$AA@
  00dca	68 00 00 00 00	 push	 OFFSET ??_C@_0L@LNKCFJOF@PKItemDrop?$AA@
  00dcf	68 00 00 00 00	 push	 OFFSET ??_C@_0P@EMJDPFDH@GameServerInfo?$AA@
  00dd4	ff d7		 call	 edi

; 1351 : 	gPkItemDrop = atoi(szTemp);

  00dd6	8d 95 fc fe ff
	ff		 lea	 edx, DWORD PTR _szTemp$[ebp]
  00ddc	52		 push	 edx
  00ddd	e8 00 00 00 00	 call	 _atoi
  00de2	83 c4 04	 add	 esp, 4
  00de5	a3 00 00 00 00	 mov	 DWORD PTR ?gPkItemDrop@@3HA, eax ; gPkItemDrop

; 1352 : 	if(gPkItemDrop != 0)

  00dea	85 c0		 test	 eax, eax
  00dec	74 07		 je	 SHORT $LN3@ReadCommon

; 1353 : 	{
; 1354 : 		LogAdd(LOG_BLACK, "[Option] Dropping item when killed by Murderer");

  00dee	68 00 00 00 00	 push	 OFFSET ??_C@_0CP@KCNDGJJO@?$FLOption?$FN?5Dropping?5item?5when?5kill@

; 1355 : 	}
; 1356 : 	else

  00df3	eb 05		 jmp	 SHORT $LN129@ReadCommon
$LN3@ReadCommon:

; 1357 : 	{
; 1358 : 		LogAdd(LOG_BLACK, "[Option] No dropping item when killed by Murderer");

  00df5	68 00 00 00 00	 push	 OFFSET ??_C@_0DC@INOMHGEK@?$FLOption?$FN?5No?5dropping?5item?5when?5k@
$LN129@ReadCommon:
  00dfa	6a 00		 push	 0
  00dfc	e8 00 00 00 00	 call	 ?LogAdd@@YAXW4eLogColor@@PADZZ ; LogAdd
  00e01	83 c4 08	 add	 esp, 8

; 1359 : 	}
; 1360 : 
; 1361 : 	gZenDurationTime = GetPrivateProfileInt("GameServerInfo","ZenDurationTime",30, gDirPath.GetNewPath("commonserver.cfg"));

  00e04	68 00 00 00 00	 push	 OFFSET ??_C@_0BB@IGLHFEOF@commonserver?4cfg?$AA@
  00e09	b9 00 00 00 00	 mov	 ecx, OFFSET ?gDirPath@@3VCDirPath@@A ; gDirPath
  00e0e	e8 00 00 00 00	 call	 ?GetNewPath@CDirPath@@QAEPADPAD@Z ; CDirPath::GetNewPath
  00e13	50		 push	 eax
  00e14	6a 1e		 push	 30			; 0000001eH
  00e16	68 00 00 00 00	 push	 OFFSET ??_C@_0BA@LODEADPK@ZenDurationTime?$AA@
  00e1b	68 00 00 00 00	 push	 OFFSET ??_C@_0P@EMJDPFDH@GameServerInfo?$AA@
  00e20	ff d6		 call	 esi

; 1362 : 	gEventChipEvent = GetPrivateProfileInt("GameServerInfo","EventChipEvent",0, gDirPath.GetNewPath("commonserver.cfg"));

  00e22	68 00 00 00 00	 push	 OFFSET ??_C@_0BB@IGLHFEOF@commonserver?4cfg?$AA@
  00e27	b9 00 00 00 00	 mov	 ecx, OFFSET ?gDirPath@@3VCDirPath@@A ; gDirPath
  00e2c	a3 00 00 00 00	 mov	 DWORD PTR ?gZenDurationTime@@3HA, eax ; gZenDurationTime
  00e31	e8 00 00 00 00	 call	 ?GetNewPath@CDirPath@@QAEPADPAD@Z ; CDirPath::GetNewPath
  00e36	50		 push	 eax
  00e37	6a 00		 push	 0
  00e39	68 00 00 00 00	 push	 OFFSET ??_C@_0P@MCKGBBMK@EventChipEvent?$AA@
  00e3e	68 00 00 00 00	 push	 OFFSET ??_C@_0P@EMJDPFDH@GameServerInfo?$AA@
  00e43	ff d6		 call	 esi

; 1363 : 	gBoxOfGoldDropRate = GetPrivateProfileInt("GameServerInfo","BoxOfGoldDropRate",2, gDirPath.GetNewPath("commonserver.cfg"));

  00e45	68 00 00 00 00	 push	 OFFSET ??_C@_0BB@IGLHFEOF@commonserver?4cfg?$AA@
  00e4a	b9 00 00 00 00	 mov	 ecx, OFFSET ?gDirPath@@3VCDirPath@@A ; gDirPath
  00e4f	a3 00 00 00 00	 mov	 DWORD PTR ?gEventChipEvent@@3HA, eax ; gEventChipEvent
  00e54	e8 00 00 00 00	 call	 ?GetNewPath@CDirPath@@QAEPADPAD@Z ; CDirPath::GetNewPath
  00e59	50		 push	 eax
  00e5a	6a 02		 push	 2
  00e5c	68 00 00 00 00	 push	 OFFSET ??_C@_0BC@FNNFHNFE@BoxOfGoldDropRate?$AA@
  00e61	68 00 00 00 00	 push	 OFFSET ??_C@_0P@EMJDPFDH@GameServerInfo?$AA@
  00e66	ff d6		 call	 esi

; 1364 : 	g_ItemDropRateForBoxOfGold = GetPrivateProfileInt("GameServerInfo","ItemDropRateForBoxOfGold",2, gDirPath.GetNewPath("commonserver.cfg"));

  00e68	68 00 00 00 00	 push	 OFFSET ??_C@_0BB@IGLHFEOF@commonserver?4cfg?$AA@
  00e6d	b9 00 00 00 00	 mov	 ecx, OFFSET ?gDirPath@@3VCDirPath@@A ; gDirPath
  00e72	a3 00 00 00 00	 mov	 DWORD PTR ?gBoxOfGoldDropRate@@3HA, eax ; gBoxOfGoldDropRate
  00e77	e8 00 00 00 00	 call	 ?GetNewPath@CDirPath@@QAEPADPAD@Z ; CDirPath::GetNewPath
  00e7c	50		 push	 eax
  00e7d	6a 02		 push	 2
  00e7f	68 00 00 00 00	 push	 OFFSET ??_C@_0BJ@GLDGDDON@ItemDropRateForBoxOfGold?$AA@
  00e84	68 00 00 00 00	 push	 OFFSET ??_C@_0P@EMJDPFDH@GameServerInfo?$AA@
  00e89	ff d6		 call	 esi

; 1365 : 	g_EventChipDropRateForBoxOfGold = GetPrivateProfileInt("GameServerInfo","EventChipDropRateForBoxOfGold",2, gDirPath.GetNewPath("commonserver.cfg"));

  00e8b	68 00 00 00 00	 push	 OFFSET ??_C@_0BB@IGLHFEOF@commonserver?4cfg?$AA@
  00e90	b9 00 00 00 00	 mov	 ecx, OFFSET ?gDirPath@@3VCDirPath@@A ; gDirPath
  00e95	a3 00 00 00 00	 mov	 DWORD PTR ?g_ItemDropRateForBoxOfGold@@3HA, eax ; g_ItemDropRateForBoxOfGold
  00e9a	e8 00 00 00 00	 call	 ?GetNewPath@CDirPath@@QAEPADPAD@Z ; CDirPath::GetNewPath
  00e9f	50		 push	 eax
  00ea0	6a 02		 push	 2
  00ea2	68 00 00 00 00	 push	 OFFSET ??_C@_0BO@DEAIHFPL@EventChipDropRateForBoxOfGold?$AA@
  00ea7	68 00 00 00 00	 push	 OFFSET ??_C@_0P@EMJDPFDH@GameServerInfo?$AA@
  00eac	ff d6		 call	 esi

; 1366 : 
; 1367 : #if GS_CASTLE == 1
; 1368 : 	gDevilSquareEvent = FALSE;
; 1369 : #endif
; 1370 : 	if ( gDevilSquareEvent == FALSE )

  00eae	83 3d 00 00 00
	00 00		 cmp	 DWORD PTR ?gDevilSquareEvent@@3HA, 0 ; gDevilSquareEvent
  00eb5	a3 00 00 00 00	 mov	 DWORD PTR ?g_EventChipDropRateForBoxOfGold@@3HA, eax ; g_EventChipDropRateForBoxOfGold
  00eba	75 0a		 jne	 SHORT $LN1@ReadCommon

; 1371 : 	{
; 1372 : 		g_DevilSquare.SetClose();

  00ebc	b9 00 00 00 00	 mov	 ecx, OFFSET ?g_DevilSquare@@3VCDevilSquare@@A ; g_DevilSquare
  00ec1	e8 00 00 00 00	 call	 ?SetClose@CDevilSquare@@QAEXXZ ; CDevilSquare::SetClose
$LN1@ReadCommon:

; 1373 : 	}
; 1374 : 
; 1375 : 	// Antihack Settings
; 1376 : 	gAttackSpeedTimeLimit = GetPrivateProfileInt("GameServerInfo","AttackSpeedTimeLimit",800, gDirPath.GetNewPath("commonserver.cfg"));

  00ec6	68 00 00 00 00	 push	 OFFSET ??_C@_0BB@IGLHFEOF@commonserver?4cfg?$AA@
  00ecb	b9 00 00 00 00	 mov	 ecx, OFFSET ?gDirPath@@3VCDirPath@@A ; gDirPath
  00ed0	e8 00 00 00 00	 call	 ?GetNewPath@CDirPath@@QAEPADPAD@Z ; CDirPath::GetNewPath
  00ed5	50		 push	 eax
  00ed6	68 20 03 00 00	 push	 800			; 00000320H
  00edb	68 00 00 00 00	 push	 OFFSET ??_C@_0BF@EDGAONAD@AttackSpeedTimeLimit?$AA@
  00ee0	68 00 00 00 00	 push	 OFFSET ??_C@_0P@EMJDPFDH@GameServerInfo?$AA@
  00ee5	ff d6		 call	 esi

; 1377 : 	bIsIgnorePacketSpeedHackDetect = GetPrivateProfileInt("GameServerInfo","IsIgnorePacketHackDetect",0, gDirPath.GetNewPath("commonserver.cfg"));

  00ee7	68 00 00 00 00	 push	 OFFSET ??_C@_0BB@IGLHFEOF@commonserver?4cfg?$AA@
  00eec	b9 00 00 00 00	 mov	 ecx, OFFSET ?gDirPath@@3VCDirPath@@A ; gDirPath
  00ef1	a3 00 00 00 00	 mov	 DWORD PTR ?gAttackSpeedTimeLimit@@3KA, eax ; gAttackSpeedTimeLimit
  00ef6	e8 00 00 00 00	 call	 ?GetNewPath@CDirPath@@QAEPADPAD@Z ; CDirPath::GetNewPath
  00efb	50		 push	 eax
  00efc	6a 00		 push	 0
  00efe	68 00 00 00 00	 push	 OFFSET ??_C@_0BJ@KEAABHOA@IsIgnorePacketHackDetect?$AA@
  00f03	68 00 00 00 00	 push	 OFFSET ??_C@_0P@EMJDPFDH@GameServerInfo?$AA@
  00f08	ff d6		 call	 esi

; 1378 : 	gHackCheckCount = GetPrivateProfileInt("GameServerInfo","HackCheckCount",5, gDirPath.GetNewPath("commonserver.cfg"));

  00f0a	68 00 00 00 00	 push	 OFFSET ??_C@_0BB@IGLHFEOF@commonserver?4cfg?$AA@
  00f0f	b9 00 00 00 00	 mov	 ecx, OFFSET ?gDirPath@@3VCDirPath@@A ; gDirPath
  00f14	a3 00 00 00 00	 mov	 DWORD PTR ?bIsIgnorePacketSpeedHackDetect@@3HA, eax ; bIsIgnorePacketSpeedHackDetect
  00f19	e8 00 00 00 00	 call	 ?GetNewPath@CDirPath@@QAEPADPAD@Z ; CDirPath::GetNewPath
  00f1e	50		 push	 eax
  00f1f	6a 05		 push	 5
  00f21	68 00 00 00 00	 push	 OFFSET ??_C@_0P@FNJLIJMF@HackCheckCount?$AA@
  00f26	68 00 00 00 00	 push	 OFFSET ??_C@_0P@EMJDPFDH@GameServerInfo?$AA@
  00f2b	ff d6		 call	 esi

; 1379 : 	gMinimumAttackSpeedTime = GetPrivateProfileInt("GameServerInfo","MinimumAttackSpeedTime",200, gDirPath.GetNewPath("commonserver.cfg"));

  00f2d	68 00 00 00 00	 push	 OFFSET ??_C@_0BB@IGLHFEOF@commonserver?4cfg?$AA@
  00f32	b9 00 00 00 00	 mov	 ecx, OFFSET ?gDirPath@@3VCDirPath@@A ; gDirPath
  00f37	a3 00 00 00 00	 mov	 DWORD PTR ?gHackCheckCount@@3KA, eax ; gHackCheckCount
  00f3c	e8 00 00 00 00	 call	 ?GetNewPath@CDirPath@@QAEPADPAD@Z ; CDirPath::GetNewPath
  00f41	50		 push	 eax
  00f42	68 c8 00 00 00	 push	 200			; 000000c8H
  00f47	68 00 00 00 00	 push	 OFFSET ??_C@_0BH@CLHIGLBH@MinimumAttackSpeedTime?$AA@
  00f4c	68 00 00 00 00	 push	 OFFSET ??_C@_0P@EMJDPFDH@GameServerInfo?$AA@
  00f51	ff d6		 call	 esi

; 1380 : 	gDetectedHackKickCount = GetPrivateProfileInt("GameServerInfo","DetectedHackKickCount",10, gDirPath.GetNewPath("commonserver.cfg"));

  00f53	68 00 00 00 00	 push	 OFFSET ??_C@_0BB@IGLHFEOF@commonserver?4cfg?$AA@
  00f58	b9 00 00 00 00	 mov	 ecx, OFFSET ?gDirPath@@3VCDirPath@@A ; gDirPath
  00f5d	a3 00 00 00 00	 mov	 DWORD PTR ?gMinimumAttackSpeedTime@@3HA, eax ; gMinimumAttackSpeedTime
  00f62	e8 00 00 00 00	 call	 ?GetNewPath@CDirPath@@QAEPADPAD@Z ; CDirPath::GetNewPath
  00f67	50		 push	 eax
  00f68	6a 0a		 push	 10			; 0000000aH
  00f6a	68 00 00 00 00	 push	 OFFSET ??_C@_0BG@GBBHJJPD@DetectedHackKickCount?$AA@
  00f6f	68 00 00 00 00	 push	 OFFSET ??_C@_0P@EMJDPFDH@GameServerInfo?$AA@
  00f74	ff d6		 call	 esi

; 1381 : 	gIsKickDetecHackCountLimit = GetPrivateProfileInt("GameServerInfo","IsKickDetecHackCountLimit",0, gDirPath.GetNewPath("commonserver.cfg"));

  00f76	68 00 00 00 00	 push	 OFFSET ??_C@_0BB@IGLHFEOF@commonserver?4cfg?$AA@
  00f7b	b9 00 00 00 00	 mov	 ecx, OFFSET ?gDirPath@@3VCDirPath@@A ; gDirPath
  00f80	a3 00 00 00 00	 mov	 DWORD PTR ?gDetectedHackKickCount@@3HA, eax ; gDetectedHackKickCount
  00f85	e8 00 00 00 00	 call	 ?GetNewPath@CDirPath@@QAEPADPAD@Z ; CDirPath::GetNewPath
  00f8a	50		 push	 eax
  00f8b	6a 00		 push	 0
  00f8d	68 00 00 00 00	 push	 OFFSET ??_C@_0BK@JCJPKDIP@IsKickDetecHackCountLimit?$AA@
  00f92	68 00 00 00 00	 push	 OFFSET ??_C@_0P@EMJDPFDH@GameServerInfo?$AA@
  00f97	ff d6		 call	 esi

; 1382 : 
; 1383 : 	// TamaJJang Event
; 1384 : 	gTamaJJangEvent = GetPrivateProfileInt("GameServerInfo", "TamaJJangEvent", 0, gDirPath.GetNewPath("commonserver.cfg"));

  00f99	68 00 00 00 00	 push	 OFFSET ??_C@_0BB@IGLHFEOF@commonserver?4cfg?$AA@
  00f9e	b9 00 00 00 00	 mov	 ecx, OFFSET ?gDirPath@@3VCDirPath@@A ; gDirPath
  00fa3	a3 00 00 00 00	 mov	 DWORD PTR ?gIsKickDetecHackCountLimit@@3HA, eax ; gIsKickDetecHackCountLimit
  00fa8	e8 00 00 00 00	 call	 ?GetNewPath@CDirPath@@QAEPADPAD@Z ; CDirPath::GetNewPath
  00fad	50		 push	 eax
  00fae	6a 00		 push	 0
  00fb0	68 00 00 00 00	 push	 OFFSET ??_C@_0P@JGMBNJAP@TamaJJangEvent?$AA@
  00fb5	68 00 00 00 00	 push	 OFFSET ??_C@_0P@EMJDPFDH@GameServerInfo?$AA@
  00fba	ff d6		 call	 esi

; 1385 : 	gTamaJJangKeepTime = GetPrivateProfileInt("GameServerInfo", "TamaJJangKeepTime", 0, gDirPath.GetNewPath("commonserver.cfg"));

  00fbc	68 00 00 00 00	 push	 OFFSET ??_C@_0BB@IGLHFEOF@commonserver?4cfg?$AA@
  00fc1	b9 00 00 00 00	 mov	 ecx, OFFSET ?gDirPath@@3VCDirPath@@A ; gDirPath
  00fc6	a3 00 00 00 00	 mov	 DWORD PTR ?gTamaJJangEvent@@3HA, eax ; gTamaJJangEvent
  00fcb	e8 00 00 00 00	 call	 ?GetNewPath@CDirPath@@QAEPADPAD@Z ; CDirPath::GetNewPath
  00fd0	50		 push	 eax
  00fd1	6a 00		 push	 0
  00fd3	68 00 00 00 00	 push	 OFFSET ??_C@_0BC@GLIFBFHG@TamaJJangKeepTime?$AA@
  00fd8	68 00 00 00 00	 push	 OFFSET ??_C@_0P@EMJDPFDH@GameServerInfo?$AA@
  00fdd	ff d6		 call	 esi

; 1386 : 	gTamaJJangDisappearTime = GetPrivateProfileInt("GameServerInfo", "TamaJJangDisappearTime", 1800, gDirPath.GetNewPath("commonserver.cfg"));

  00fdf	68 00 00 00 00	 push	 OFFSET ??_C@_0BB@IGLHFEOF@commonserver?4cfg?$AA@
  00fe4	b9 00 00 00 00	 mov	 ecx, OFFSET ?gDirPath@@3VCDirPath@@A ; gDirPath
  00fe9	a3 00 00 00 00	 mov	 DWORD PTR ?gTamaJJangKeepTime@@3HA, eax ; gTamaJJangKeepTime
  00fee	e8 00 00 00 00	 call	 ?GetNewPath@CDirPath@@QAEPADPAD@Z ; CDirPath::GetNewPath
  00ff3	50		 push	 eax
  00ff4	68 08 07 00 00	 push	 1800			; 00000708H
  00ff9	68 00 00 00 00	 push	 OFFSET ??_C@_0BH@MEHMFFCA@TamaJJangDisappearTime?$AA@
  00ffe	68 00 00 00 00	 push	 OFFSET ??_C@_0P@EMJDPFDH@GameServerInfo?$AA@
  01003	ff d6		 call	 esi
  01005	a3 00 00 00 00	 mov	 DWORD PTR ?gTamaJJangDisappearTime@@3HA, eax ; gTamaJJangDisappearTime

; 1387 : 	gTamaJJangDisappearTimeRandomRange = GetPrivateProfileInt("GameServerInfo", "TamaJJangDisappearTimeRandomRange", 1800, gDirPath.GetNewPath("commonserver.cfg"));

  0100a	68 00 00 00 00	 push	 OFFSET ??_C@_0BB@IGLHFEOF@commonserver?4cfg?$AA@
  0100f	b9 00 00 00 00	 mov	 ecx, OFFSET ?gDirPath@@3VCDirPath@@A ; gDirPath
  01014	e8 00 00 00 00	 call	 ?GetNewPath@CDirPath@@QAEPADPAD@Z ; CDirPath::GetNewPath
  01019	50		 push	 eax
  0101a	68 08 07 00 00	 push	 1800			; 00000708H
  0101f	68 00 00 00 00	 push	 OFFSET ??_C@_0CC@DGDEHIJD@TamaJJangDisappearTimeRandomRang@
  01024	68 00 00 00 00	 push	 OFFSET ??_C@_0P@EMJDPFDH@GameServerInfo?$AA@
  01029	ff d6		 call	 esi

; 1388 : 	gTamaJJangTime = 10;
; 1389 : 
; 1390 : 	// Ring of Transform
; 1391 : 	gIsItemDropRingOfTransform = GetPrivateProfileInt("GameServerInfo","IsItemDropRingOfTransform",0, gDirPath.GetNewPath("commonserver.cfg"));

  0102b	68 00 00 00 00	 push	 OFFSET ??_C@_0BB@IGLHFEOF@commonserver?4cfg?$AA@
  01030	b9 00 00 00 00	 mov	 ecx, OFFSET ?gDirPath@@3VCDirPath@@A ; gDirPath
  01035	a3 00 00 00 00	 mov	 DWORD PTR ?gTamaJJangDisappearTimeRandomRange@@3HA, eax ; gTamaJJangDisappearTimeRandomRange
  0103a	c7 05 00 00 00
	00 0a 00 00 00	 mov	 DWORD PTR ?gTamaJJangTime@@3HA, 10 ; gTamaJJangTime, 0000000aH
  01044	e8 00 00 00 00	 call	 ?GetNewPath@CDirPath@@QAEPADPAD@Z ; CDirPath::GetNewPath
  01049	50		 push	 eax
  0104a	6a 00		 push	 0
  0104c	68 00 00 00 00	 push	 OFFSET ??_C@_0BK@JABOLCNK@IsItemDropRingOfTransform?$AA@
  01051	68 00 00 00 00	 push	 OFFSET ??_C@_0P@EMJDPFDH@GameServerInfo?$AA@
  01056	ff d6		 call	 esi

; 1392 : 	gItemDropRingOfTransform = GetPrivateProfileInt("GameServerInfo","ItemDropRingOfTransform",1, gDirPath.GetNewPath("commonserver.cfg"));

  01058	68 00 00 00 00	 push	 OFFSET ??_C@_0BB@IGLHFEOF@commonserver?4cfg?$AA@
  0105d	b9 00 00 00 00	 mov	 ecx, OFFSET ?gDirPath@@3VCDirPath@@A ; gDirPath
  01062	a3 00 00 00 00	 mov	 DWORD PTR ?gIsItemDropRingOfTransform@@3HA, eax ; gIsItemDropRingOfTransform
  01067	e8 00 00 00 00	 call	 ?GetNewPath@CDirPath@@QAEPADPAD@Z ; CDirPath::GetNewPath
  0106c	50		 push	 eax
  0106d	6a 01		 push	 1
  0106f	68 00 00 00 00	 push	 OFFSET ??_C@_0BI@IMCEGONI@ItemDropRingOfTransform?$AA@
  01074	68 00 00 00 00	 push	 OFFSET ??_C@_0P@EMJDPFDH@GameServerInfo?$AA@
  01079	ff d6		 call	 esi

; 1393 : 
; 1394 : 	// HAck Log Server
; 1395 : 	gWriteChatLog = GetPrivateProfileInt("GameServerInfo","WriteChatLog",0, gDirPath.GetNewPath("commonserver.cfg"));

  0107b	68 00 00 00 00	 push	 OFFSET ??_C@_0BB@IGLHFEOF@commonserver?4cfg?$AA@
  01080	b9 00 00 00 00	 mov	 ecx, OFFSET ?gDirPath@@3VCDirPath@@A ; gDirPath
  01085	a3 00 00 00 00	 mov	 DWORD PTR ?gItemDropRingOfTransform@@3HA, eax ; gItemDropRingOfTransform
  0108a	e8 00 00 00 00	 call	 ?GetNewPath@CDirPath@@QAEPADPAD@Z ; CDirPath::GetNewPath
  0108f	50		 push	 eax
  01090	6a 00		 push	 0
  01092	68 00 00 00 00	 push	 OFFSET ??_C@_0N@OGIIBFAP@WriteChatLog?$AA@
  01097	68 00 00 00 00	 push	 OFFSET ??_C@_0P@EMJDPFDH@GameServerInfo?$AA@
  0109c	ff d6		 call	 esi

; 1396 : 
; 1397 : 	// Hack Settinhs
; 1398 : 	gDisconnectHackUser = GetPrivateProfileInt("GameServerInfo","DisconnectHackUser",0, gDirPath.GetNewPath("commonserver.cfg"));

  0109e	68 00 00 00 00	 push	 OFFSET ??_C@_0BB@IGLHFEOF@commonserver?4cfg?$AA@
  010a3	b9 00 00 00 00	 mov	 ecx, OFFSET ?gDirPath@@3VCDirPath@@A ; gDirPath
  010a8	a3 00 00 00 00	 mov	 DWORD PTR ?gWriteChatLog@@3HA, eax ; gWriteChatLog
  010ad	e8 00 00 00 00	 call	 ?GetNewPath@CDirPath@@QAEPADPAD@Z ; CDirPath::GetNewPath
  010b2	50		 push	 eax
  010b3	6a 00		 push	 0
  010b5	68 00 00 00 00	 push	 OFFSET ??_C@_0BD@OBHCBKDC@DisconnectHackUser?$AA@
  010ba	68 00 00 00 00	 push	 OFFSET ??_C@_0P@EMJDPFDH@GameServerInfo?$AA@
  010bf	ff d6		 call	 esi

; 1399 : 	gUseNPGGChecksum = GetPrivateProfileInt("GameServerInfo","UseNPGGChecksum",0, gDirPath.GetNewPath("commonserver.cfg"));

  010c1	68 00 00 00 00	 push	 OFFSET ??_C@_0BB@IGLHFEOF@commonserver?4cfg?$AA@
  010c6	b9 00 00 00 00	 mov	 ecx, OFFSET ?gDirPath@@3VCDirPath@@A ; gDirPath
  010cb	a3 00 00 00 00	 mov	 DWORD PTR ?gDisconnectHackUser@@3HA, eax ; gDisconnectHackUser
  010d0	e8 00 00 00 00	 call	 ?GetNewPath@CDirPath@@QAEPADPAD@Z ; CDirPath::GetNewPath
  010d5	50		 push	 eax
  010d6	6a 00		 push	 0
  010d8	68 00 00 00 00	 push	 OFFSET ??_C@_0BA@OAOAELOO@UseNPGGChecksum?$AA@
  010dd	68 00 00 00 00	 push	 OFFSET ??_C@_0P@EMJDPFDH@GameServerInfo?$AA@
  010e2	ff d6		 call	 esi

; 1400 : 	GetPrivateProfileString("GameServerInfo", "DecTimePerAttackSpeed", "5.33", szTemp, 5, gDirPath.GetNewPath("commonserver.cfg"));

  010e4	68 00 00 00 00	 push	 OFFSET ??_C@_0BB@IGLHFEOF@commonserver?4cfg?$AA@
  010e9	b9 00 00 00 00	 mov	 ecx, OFFSET ?gDirPath@@3VCDirPath@@A ; gDirPath
  010ee	a3 00 00 00 00	 mov	 DWORD PTR ?gUseNPGGChecksum@@3HA, eax ; gUseNPGGChecksum
  010f3	e8 00 00 00 00	 call	 ?GetNewPath@CDirPath@@QAEPADPAD@Z ; CDirPath::GetNewPath
  010f8	50		 push	 eax
  010f9	6a 05		 push	 5
  010fb	8d 85 fc fe ff
	ff		 lea	 eax, DWORD PTR _szTemp$[ebp]
  01101	50		 push	 eax
  01102	68 00 00 00 00	 push	 OFFSET ??_C@_04MCLHNJOA@5?433?$AA@
  01107	68 00 00 00 00	 push	 OFFSET ??_C@_0BG@MPJHCBCJ@DecTimePerAttackSpeed?$AA@
  0110c	68 00 00 00 00	 push	 OFFSET ??_C@_0P@EMJDPFDH@GameServerInfo?$AA@
  01111	ff d7		 call	 edi

; 1401 : 	gDecTimePerAttackSpeed = atof(szTemp);

  01113	8d 8d fc fe ff
	ff		 lea	 ecx, DWORD PTR _szTemp$[ebp]
  01119	51		 push	 ecx
  0111a	e8 00 00 00 00	 call	 _atof
  0111f	d9 1d 00 00 00
	00		 fstp	 DWORD PTR ?gDecTimePerAttackSpeed@@3MA ; gDecTimePerAttackSpeed
  01125	83 c4 04	 add	 esp, 4

; 1402 : 	gSpeedHackPenalty = GetPrivateProfileInt("GameServerInfo","SpeedHackPenalty",0, gDirPath.GetNewPath("commonserver.cfg"));

  01128	68 00 00 00 00	 push	 OFFSET ??_C@_0BB@IGLHFEOF@commonserver?4cfg?$AA@
  0112d	b9 00 00 00 00	 mov	 ecx, OFFSET ?gDirPath@@3VCDirPath@@A ; gDirPath
  01132	e8 00 00 00 00	 call	 ?GetNewPath@CDirPath@@QAEPADPAD@Z ; CDirPath::GetNewPath
  01137	50		 push	 eax
  01138	6a 00		 push	 0
  0113a	68 00 00 00 00	 push	 OFFSET ??_C@_0BB@MCFEHCJF@SpeedHackPenalty?$AA@
  0113f	68 00 00 00 00	 push	 OFFSET ??_C@_0P@EMJDPFDH@GameServerInfo?$AA@
  01144	ff d6		 call	 esi
  01146	a3 00 00 00 00	 mov	 DWORD PTR ?gSpeedHackPenalty@@3HA, eax ; gSpeedHackPenalty

; 1403 : 
; 1404 : 	// Devil Square Event
; 1405 : 	gDQChaosSuccessRateLevel1 = GetPrivateProfileInt("GameServerInfo","DQChaosSuccessRateLevel1",75, gDirPath.GetNewPath("commonserver.cfg"));

  0114b	68 00 00 00 00	 push	 OFFSET ??_C@_0BB@IGLHFEOF@commonserver?4cfg?$AA@
  01150	b9 00 00 00 00	 mov	 ecx, OFFSET ?gDirPath@@3VCDirPath@@A ; gDirPath
  01155	e8 00 00 00 00	 call	 ?GetNewPath@CDirPath@@QAEPADPAD@Z ; CDirPath::GetNewPath
  0115a	50		 push	 eax
  0115b	6a 4b		 push	 75			; 0000004bH
  0115d	68 00 00 00 00	 push	 OFFSET ??_C@_0BJ@IOEIMNCB@DQChaosSuccessRateLevel1?$AA@
  01162	68 00 00 00 00	 push	 OFFSET ??_C@_0P@EMJDPFDH@GameServerInfo?$AA@
  01167	ff d6		 call	 esi

; 1406 : 	gDQChaosSuccessRateLevel2 = GetPrivateProfileInt("GameServerInfo","DQChaosSuccessRateLevel2",70, gDirPath.GetNewPath("commonserver.cfg"));

  01169	68 00 00 00 00	 push	 OFFSET ??_C@_0BB@IGLHFEOF@commonserver?4cfg?$AA@
  0116e	b9 00 00 00 00	 mov	 ecx, OFFSET ?gDirPath@@3VCDirPath@@A ; gDirPath
  01173	a3 00 00 00 00	 mov	 DWORD PTR ?gDQChaosSuccessRateLevel1@@3HA, eax ; gDQChaosSuccessRateLevel1
  01178	e8 00 00 00 00	 call	 ?GetNewPath@CDirPath@@QAEPADPAD@Z ; CDirPath::GetNewPath
  0117d	50		 push	 eax
  0117e	6a 46		 push	 70			; 00000046H
  01180	68 00 00 00 00	 push	 OFFSET ??_C@_0BJ@KFGFJOOC@DQChaosSuccessRateLevel2?$AA@
  01185	68 00 00 00 00	 push	 OFFSET ??_C@_0P@EMJDPFDH@GameServerInfo?$AA@
  0118a	ff d6		 call	 esi

; 1407 : 	gDQChaosSuccessRateLevel3 = GetPrivateProfileInt("GameServerInfo","DQChaosSuccessRateLevel3",65, gDirPath.GetNewPath("commonserver.cfg"));

  0118c	68 00 00 00 00	 push	 OFFSET ??_C@_0BB@IGLHFEOF@commonserver?4cfg?$AA@
  01191	b9 00 00 00 00	 mov	 ecx, OFFSET ?gDirPath@@3VCDirPath@@A ; gDirPath
  01196	a3 00 00 00 00	 mov	 DWORD PTR ?gDQChaosSuccessRateLevel2@@3HA, eax ; gDQChaosSuccessRateLevel2
  0119b	e8 00 00 00 00	 call	 ?GetNewPath@CDirPath@@QAEPADPAD@Z ; CDirPath::GetNewPath
  011a0	50		 push	 eax
  011a1	6a 41		 push	 65			; 00000041H
  011a3	68 00 00 00 00	 push	 OFFSET ??_C@_0BJ@LMHOKPKD@DQChaosSuccessRateLevel3?$AA@
  011a8	68 00 00 00 00	 push	 OFFSET ??_C@_0P@EMJDPFDH@GameServerInfo?$AA@
  011ad	ff d6		 call	 esi

; 1408 : 	gDQChaosSuccessRateLevel4 = GetPrivateProfileInt("GameServerInfo","DQChaosSuccessRateLevel4",60, gDirPath.GetNewPath("commonserver.cfg"));

  011af	68 00 00 00 00	 push	 OFFSET ??_C@_0BB@IGLHFEOF@commonserver?4cfg?$AA@
  011b4	b9 00 00 00 00	 mov	 ecx, OFFSET ?gDirPath@@3VCDirPath@@A ; gDirPath
  011b9	a3 00 00 00 00	 mov	 DWORD PTR ?gDQChaosSuccessRateLevel3@@3HA, eax ; gDQChaosSuccessRateLevel3
  011be	e8 00 00 00 00	 call	 ?GetNewPath@CDirPath@@QAEPADPAD@Z ; CDirPath::GetNewPath
  011c3	50		 push	 eax
  011c4	6a 3c		 push	 60			; 0000003cH
  011c6	68 00 00 00 00	 push	 OFFSET ??_C@_0BJ@PDDPDJGE@DQChaosSuccessRateLevel4?$AA@
  011cb	68 00 00 00 00	 push	 OFFSET ??_C@_0P@EMJDPFDH@GameServerInfo?$AA@
  011d0	ff d6		 call	 esi

; 1409 : 	gDQChaosSuccessRateLevel5 = GetPrivateProfileInt("GameServerInfo","DQChaosSuccessRateLevel5",55, gDirPath.GetNewPath("commonserver.cfg"));

  011d2	68 00 00 00 00	 push	 OFFSET ??_C@_0BB@IGLHFEOF@commonserver?4cfg?$AA@
  011d7	b9 00 00 00 00	 mov	 ecx, OFFSET ?gDirPath@@3VCDirPath@@A ; gDirPath
  011dc	a3 00 00 00 00	 mov	 DWORD PTR ?gDQChaosSuccessRateLevel4@@3HA, eax ; gDQChaosSuccessRateLevel4
  011e1	e8 00 00 00 00	 call	 ?GetNewPath@CDirPath@@QAEPADPAD@Z ; CDirPath::GetNewPath
  011e6	50		 push	 eax
  011e7	6a 37		 push	 55			; 00000037H
  011e9	68 00 00 00 00	 push	 OFFSET ??_C@_0BJ@OKCEAICF@DQChaosSuccessRateLevel5?$AA@
  011ee	68 00 00 00 00	 push	 OFFSET ??_C@_0P@EMJDPFDH@GameServerInfo?$AA@
  011f3	ff d6		 call	 esi

; 1410 : 	gDQChaosSuccessRateLevel6 = GetPrivateProfileInt("GameServerInfo","DQChaosSuccessRateLevel6",50, gDirPath.GetNewPath("commonserver.cfg"));

  011f5	68 00 00 00 00	 push	 OFFSET ??_C@_0BB@IGLHFEOF@commonserver?4cfg?$AA@
  011fa	b9 00 00 00 00	 mov	 ecx, OFFSET ?gDirPath@@3VCDirPath@@A ; gDirPath
  011ff	a3 00 00 00 00	 mov	 DWORD PTR ?gDQChaosSuccessRateLevel5@@3HA, eax ; gDQChaosSuccessRateLevel5
  01204	e8 00 00 00 00	 call	 ?GetNewPath@CDirPath@@QAEPADPAD@Z ; CDirPath::GetNewPath
  01209	50		 push	 eax
  0120a	6a 32		 push	 50			; 00000032H
  0120c	68 00 00 00 00	 push	 OFFSET ??_C@_0BJ@MBAJFLOG@DQChaosSuccessRateLevel6?$AA@
  01211	68 00 00 00 00	 push	 OFFSET ??_C@_0P@EMJDPFDH@GameServerInfo?$AA@
  01216	ff d6		 call	 esi

; 1411 : 
; 1412 : 	// Skill Log
; 1413 : 	gWriteSkillLog = GetPrivateProfileInt("GameServerInfo","WriteSkillLog",0, gDirPath.GetNewPath("commonserver.cfg"));

  01218	68 00 00 00 00	 push	 OFFSET ??_C@_0BB@IGLHFEOF@commonserver?4cfg?$AA@
  0121d	b9 00 00 00 00	 mov	 ecx, OFFSET ?gDirPath@@3VCDirPath@@A ; gDirPath
  01222	a3 00 00 00 00	 mov	 DWORD PTR ?gDQChaosSuccessRateLevel6@@3HA, eax ; gDQChaosSuccessRateLevel6
  01227	e8 00 00 00 00	 call	 ?GetNewPath@CDirPath@@QAEPADPAD@Z ; CDirPath::GetNewPath
  0122c	50		 push	 eax
  0122d	6a 00		 push	 0
  0122f	68 00 00 00 00	 push	 OFFSET ??_C@_0O@DJJFJNIL@WriteSkillLog?$AA@
  01234	68 00 00 00 00	 push	 OFFSET ??_C@_0P@EMJDPFDH@GameServerInfo?$AA@
  01239	ff d6		 call	 esi

; 1414 : 
; 1415 : 	// Marlon Teleport
; 1416 : 	gQuestNPCTeleportTime = GetPrivateProfileInt("GameServerInfo","QuestNPCTeleportTime",900, gDirPath.GetNewPath("commonserver.cfg"));

  0123b	68 00 00 00 00	 push	 OFFSET ??_C@_0BB@IGLHFEOF@commonserver?4cfg?$AA@
  01240	b9 00 00 00 00	 mov	 ecx, OFFSET ?gDirPath@@3VCDirPath@@A ; gDirPath
  01245	a3 00 00 00 00	 mov	 DWORD PTR ?gWriteSkillLog@@3HA, eax ; gWriteSkillLog
  0124a	e8 00 00 00 00	 call	 ?GetNewPath@CDirPath@@QAEPADPAD@Z ; CDirPath::GetNewPath
  0124f	50		 push	 eax
  01250	68 84 03 00 00	 push	 900			; 00000384H
  01255	68 00 00 00 00	 push	 OFFSET ??_C@_0BF@HDFDIILJ@QuestNPCTeleportTime?$AA@
  0125a	68 00 00 00 00	 push	 OFFSET ??_C@_0P@EMJDPFDH@GameServerInfo?$AA@
  0125f	ff d6		 call	 esi

; 1417 : 
; 1418 : #ifdef INTERNATIONAL_JAPAN
; 1419 : 	g_iJapan1StAnivItemDropRate = GetPrivateProfileInt("GameServerInfo","Japan1StAnivItemDropRate", 0, gDirPath.GetNewPath("commonserver.cfg"));
; 1420 : #endif
; 1421 : 
; 1422 : 	// Mark Lord
; 1423 : 	g_iMarkOfTheLord = GetPrivateProfileInt("GameServerInfo","MarkOfTheLord",0, gDirPath.GetNewPath("commonserver.cfg"));

  01261	68 00 00 00 00	 push	 OFFSET ??_C@_0BB@IGLHFEOF@commonserver?4cfg?$AA@
  01266	b9 00 00 00 00	 mov	 ecx, OFFSET ?gDirPath@@3VCDirPath@@A ; gDirPath
  0126b	a3 00 00 00 00	 mov	 DWORD PTR ?gQuestNPCTeleportTime@@3HA, eax ; gQuestNPCTeleportTime
  01270	e8 00 00 00 00	 call	 ?GetNewPath@CDirPath@@QAEPADPAD@Z ; CDirPath::GetNewPath
  01275	50		 push	 eax
  01276	6a 00		 push	 0
  01278	68 00 00 00 00	 push	 OFFSET ??_C@_0O@GJIAIJIK@MarkOfTheLord?$AA@
  0127d	68 00 00 00 00	 push	 OFFSET ??_C@_0P@EMJDPFDH@GameServerInfo?$AA@
  01282	ff d6		 call	 esi
  01284	a3 00 00 00 00	 mov	 DWORD PTR ?g_iMarkOfTheLord@@3HA, eax ; g_iMarkOfTheLord

; 1424 : 	
; 1425 : 	// KUNDUN Settings
; 1426 : 	giKundunRefillHPSec = GetPrivateProfileInt("GameServerInfo","KundunRefillHPSec",500, gDirPath.GetNewPath("commonserver.cfg"));

  01289	68 00 00 00 00	 push	 OFFSET ??_C@_0BB@IGLHFEOF@commonserver?4cfg?$AA@
  0128e	b9 00 00 00 00	 mov	 ecx, OFFSET ?gDirPath@@3VCDirPath@@A ; gDirPath
  01293	e8 00 00 00 00	 call	 ?GetNewPath@CDirPath@@QAEPADPAD@Z ; CDirPath::GetNewPath
  01298	50		 push	 eax
  01299	68 f4 01 00 00	 push	 500			; 000001f4H
  0129e	68 00 00 00 00	 push	 OFFSET ??_C@_0BC@BADILJEE@KundunRefillHPSec?$AA@
  012a3	68 00 00 00 00	 push	 OFFSET ??_C@_0P@EMJDPFDH@GameServerInfo?$AA@
  012a8	ff d6		 call	 esi

; 1427 : 	giKundunRefillHP = GetPrivateProfileInt("GameServerInfo","KundunRefillHP",10000, gDirPath.GetNewPath("commonserver.cfg"));

  012aa	68 00 00 00 00	 push	 OFFSET ??_C@_0BB@IGLHFEOF@commonserver?4cfg?$AA@
  012af	b9 00 00 00 00	 mov	 ecx, OFFSET ?gDirPath@@3VCDirPath@@A ; gDirPath
  012b4	a3 00 00 00 00	 mov	 DWORD PTR ?giKundunRefillHPSec@@3HA, eax ; giKundunRefillHPSec
  012b9	e8 00 00 00 00	 call	 ?GetNewPath@CDirPath@@QAEPADPAD@Z ; CDirPath::GetNewPath
  012be	50		 push	 eax
  012bf	68 10 27 00 00	 push	 10000			; 00002710H
  012c4	68 00 00 00 00	 push	 OFFSET ??_C@_0P@CHMHAEOB@KundunRefillHP?$AA@
  012c9	68 00 00 00 00	 push	 OFFSET ??_C@_0P@EMJDPFDH@GameServerInfo?$AA@
  012ce	ff d6		 call	 esi

; 1428 : 	giKundunRefillHPTime = GetPrivateProfileInt("GameServerInfo","KundunRefillHPTime",600, gDirPath.GetNewPath("commonserver.cfg"));

  012d0	68 00 00 00 00	 push	 OFFSET ??_C@_0BB@IGLHFEOF@commonserver?4cfg?$AA@
  012d5	b9 00 00 00 00	 mov	 ecx, OFFSET ?gDirPath@@3VCDirPath@@A ; gDirPath
  012da	a3 00 00 00 00	 mov	 DWORD PTR ?giKundunRefillHP@@3HA, eax ; giKundunRefillHP
  012df	e8 00 00 00 00	 call	 ?GetNewPath@CDirPath@@QAEPADPAD@Z ; CDirPath::GetNewPath
  012e4	50		 push	 eax
  012e5	68 58 02 00 00	 push	 600			; 00000258H
  012ea	68 00 00 00 00	 push	 OFFSET ??_C@_0BD@JLEDGMHA@KundunRefillHPTime?$AA@
  012ef	68 00 00 00 00	 push	 OFFSET ??_C@_0P@EMJDPFDH@GameServerInfo?$AA@
  012f4	ff d6		 call	 esi

; 1429 : 	giKundunHPLogSaveTime = GetPrivateProfileInt("GameServerInfo","KundunHPLogSaveTime",120, gDirPath.GetNewPath("commonserver.cfg"));

  012f6	68 00 00 00 00	 push	 OFFSET ??_C@_0BB@IGLHFEOF@commonserver?4cfg?$AA@
  012fb	b9 00 00 00 00	 mov	 ecx, OFFSET ?gDirPath@@3VCDirPath@@A ; gDirPath
  01300	a3 00 00 00 00	 mov	 DWORD PTR ?giKundunRefillHPTime@@3HA, eax ; giKundunRefillHPTime
  01305	e8 00 00 00 00	 call	 ?GetNewPath@CDirPath@@QAEPADPAD@Z ; CDirPath::GetNewPath
  0130a	50		 push	 eax
  0130b	6a 78		 push	 120			; 00000078H
  0130d	68 00 00 00 00	 push	 OFFSET ??_C@_0BE@KIKOADFM@KundunHPLogSaveTime?$AA@
  01312	68 00 00 00 00	 push	 OFFSET ??_C@_0P@EMJDPFDH@GameServerInfo?$AA@
  01317	ff d6		 call	 esi

; 1430 : 
; 1431 : 	// Servers
; 1432 : 	GetPrivateProfileString("ConnectServerInfo", "IP", "", connectserverip, 20, szCommonlocIniFileName);

  01319	68 00 00 00 00	 push	 OFFSET ?szCommonlocIniFileName@@3PADA ; szCommonlocIniFileName
  0131e	6a 14		 push	 20			; 00000014H
  01320	68 00 00 00 00	 push	 OFFSET ?connectserverip@@3PADA ; connectserverip
  01325	68 00 00 00 00	 push	 OFFSET ??_C@_00CNPNBAHC@?$AA@
  0132a	68 00 00 00 00	 push	 OFFSET ??_C@_02MFEOMNPG@IP?$AA@
  0132f	68 00 00 00 00	 push	 OFFSET ??_C@_0BC@IKLEIAKB@ConnectServerInfo?$AA@
  01334	a3 00 00 00 00	 mov	 DWORD PTR ?giKundunHPLogSaveTime@@3HA, eax ; giKundunHPLogSaveTime
  01339	ff d7		 call	 edi

; 1433 : 	GetPrivateProfileString("ConnectServerInfo", "PORT", "", szTemp, 10, szCommonlocIniFileName);

  0133b	68 00 00 00 00	 push	 OFFSET ?szCommonlocIniFileName@@3PADA ; szCommonlocIniFileName
  01340	6a 0a		 push	 10			; 0000000aH
  01342	8d 95 fc fe ff
	ff		 lea	 edx, DWORD PTR _szTemp$[ebp]
  01348	52		 push	 edx
  01349	68 00 00 00 00	 push	 OFFSET ??_C@_00CNPNBAHC@?$AA@
  0134e	68 00 00 00 00	 push	 OFFSET ??_C@_04HDFGONMM@PORT?$AA@
  01353	68 00 00 00 00	 push	 OFFSET ??_C@_0BC@IKLEIAKB@ConnectServerInfo?$AA@
  01358	ff d7		 call	 edi

; 1434 : 	connectserverport = atoi(szTemp);

  0135a	8d 85 fc fe ff
	ff		 lea	 eax, DWORD PTR _szTemp$[ebp]
  01360	50		 push	 eax
  01361	e8 00 00 00 00	 call	 _atoi
  01366	83 c4 04	 add	 esp, 4

; 1435 : 	// (Option) Connect Server IP(%s) / PORT(%d)
; 1436 : 	LogAdd(LOG_BLACK, lMsg.Get(MSGGET(1, 158)), connectserverip, connectserverport);

  01369	50		 push	 eax
  0136a	68 00 00 00 00	 push	 OFFSET ?connectserverip@@3PADA ; connectserverip
  0136f	68 9e 01 00 00	 push	 414			; 0000019eH
  01374	b9 00 00 00 00	 mov	 ecx, OFFSET ?lMsg@@3VCMsg@@A ; lMsg
  01379	a3 00 00 00 00	 mov	 DWORD PTR ?connectserverport@@3HA, eax ; connectserverport
  0137e	e8 00 00 00 00	 call	 ?Get@CMsg@@QAEPADH@Z	; CMsg::Get
  01383	50		 push	 eax
  01384	6a 00		 push	 0
  01386	e8 00 00 00 00	 call	 ?LogAdd@@YAXW4eLogColor@@PADZZ ; LogAdd

; 1437 : 	gUdpSoc.SendSet(connectserverip, connectserverport);

  0138b	8b 0d 00 00 00
	00		 mov	 ecx, DWORD PTR ?connectserverport@@3HA ; connectserverport
  01391	83 c4 10	 add	 esp, 16			; 00000010H
  01394	51		 push	 ecx
  01395	68 00 00 00 00	 push	 OFFSET ?connectserverip@@3PADA ; connectserverip
  0139a	b9 00 00 00 00	 mov	 ecx, OFFSET ?gUdpSoc@@3VWzUdp@@A ; gUdpSoc
  0139f	e8 00 00 00 00	 call	 ?SendSet@WzUdp@@QAEHPADH@Z ; WzUdp::SendSet

; 1438 : 	gUdpSocCE.SendSet(gChaosEventServerIp, 60005);

  013a4	68 65 ea 00 00	 push	 60005			; 0000ea65H
  013a9	68 00 00 00 00	 push	 OFFSET ?gChaosEventServerIp@@3PADA ; gChaosEventServerIp
  013ae	b9 00 00 00 00	 mov	 ecx, OFFSET ?gUdpSocCE@@3VWzUdp@@A ; gUdpSocCE
  013b3	e8 00 00 00 00	 call	 ?SendSet@WzUdp@@QAEHPADH@Z ; WzUdp::SendSet

; 1439 : 	USE_CHECKSUM	= GetPrivateProfileInt("GameServerInfo","UseCheckSum", 0, gDirPath.GetNewPath("commonserver.cfg"));

  013b8	68 00 00 00 00	 push	 OFFSET ??_C@_0BB@IGLHFEOF@commonserver?4cfg?$AA@
  013bd	b9 00 00 00 00	 mov	 ecx, OFFSET ?gDirPath@@3VCDirPath@@A ; gDirPath
  013c2	e8 00 00 00 00	 call	 ?GetNewPath@CDirPath@@QAEPADPAD@Z ; CDirPath::GetNewPath
  013c7	50		 push	 eax
  013c8	6a 00		 push	 0
  013ca	68 00 00 00 00	 push	 OFFSET ??_C@_0M@HGDACMHB@UseCheckSum?$AA@
  013cf	68 00 00 00 00	 push	 OFFSET ??_C@_0P@EMJDPFDH@GameServerInfo?$AA@
  013d4	ff d6		 call	 esi

; 1440 : 
; 1441 : 	DevilSquareEventConnect = GetPrivateProfileInt("GameServerInfo","DevilSquareEventConnect", 1, gDirPath.GetNewPath("commonserver.cfg"));

  013d6	68 00 00 00 00	 push	 OFFSET ??_C@_0BB@IGLHFEOF@commonserver?4cfg?$AA@
  013db	b9 00 00 00 00	 mov	 ecx, OFFSET ?gDirPath@@3VCDirPath@@A ; gDirPath
  013e0	a3 00 00 00 00	 mov	 DWORD PTR ?USE_CHECKSUM@@3HA, eax ; USE_CHECKSUM
  013e5	e8 00 00 00 00	 call	 ?GetNewPath@CDirPath@@QAEPADPAD@Z ; CDirPath::GetNewPath
  013ea	50		 push	 eax
  013eb	6a 01		 push	 1
  013ed	68 00 00 00 00	 push	 OFFSET ??_C@_0BI@KCKMEMOI@DevilSquareEventConnect?$AA@
  013f2	68 00 00 00 00	 push	 OFFSET ??_C@_0P@EMJDPFDH@GameServerInfo?$AA@
  013f7	ff d6		 call	 esi

; 1442 : 	GetPrivateProfileString("GameServerInfo", "DevilSquareEventServer", "210.181.89.241", gDevilSquareEventServerIp, 20, gDirPath.GetNewPath("commonserver.cfg"));

  013f9	68 00 00 00 00	 push	 OFFSET ??_C@_0BB@IGLHFEOF@commonserver?4cfg?$AA@
  013fe	b9 00 00 00 00	 mov	 ecx, OFFSET ?gDirPath@@3VCDirPath@@A ; gDirPath
  01403	a3 00 00 00 00	 mov	 DWORD PTR ?DevilSquareEventConnect@@3HA, eax ; DevilSquareEventConnect
  01408	e8 00 00 00 00	 call	 ?GetNewPath@CDirPath@@QAEPADPAD@Z ; CDirPath::GetNewPath
  0140d	50		 push	 eax
  0140e	6a 14		 push	 20			; 00000014H
  01410	68 00 00 00 00	 push	 OFFSET ?gDevilSquareEventServerIp@@3PADA ; gDevilSquareEventServerIp
  01415	68 00 00 00 00	 push	 OFFSET ??_C@_0P@LCMOAIFH@210?4181?489?4241?$AA@
  0141a	68 00 00 00 00	 push	 OFFSET ??_C@_0BH@DJHELGEN@DevilSquareEventServer?$AA@
  0141f	68 00 00 00 00	 push	 OFFSET ??_C@_0P@EMJDPFDH@GameServerInfo?$AA@
  01424	ff d7		 call	 edi

; 1443 : 	EventChipServerConnect = GetPrivateProfileInt("GameServerInfo","EventChipServerConnect", 0, gDirPath.GetNewPath("commonserver.cfg"));

  01426	68 00 00 00 00	 push	 OFFSET ??_C@_0BB@IGLHFEOF@commonserver?4cfg?$AA@
  0142b	b9 00 00 00 00	 mov	 ecx, OFFSET ?gDirPath@@3VCDirPath@@A ; gDirPath
  01430	e8 00 00 00 00	 call	 ?GetNewPath@CDirPath@@QAEPADPAD@Z ; CDirPath::GetNewPath
  01435	50		 push	 eax
  01436	6a 00		 push	 0
  01438	68 00 00 00 00	 push	 OFFSET ??_C@_0BH@FIEEIIMF@EventChipServerConnect?$AA@
  0143d	68 00 00 00 00	 push	 OFFSET ??_C@_0P@EMJDPFDH@GameServerInfo?$AA@
  01442	ff d6		 call	 esi

; 1444 : 	RANKING_SERVER_PORT= GetPrivateProfileInt("GameServerInfo","DevilSquareEventServerPort",44455,gDirPath.GetNewPath("commonserver.cfg"));

  01444	68 00 00 00 00	 push	 OFFSET ??_C@_0BB@IGLHFEOF@commonserver?4cfg?$AA@
  01449	b9 00 00 00 00	 mov	 ecx, OFFSET ?gDirPath@@3VCDirPath@@A ; gDirPath
  0144e	a3 00 00 00 00	 mov	 DWORD PTR ?EventChipServerConnect@@3HA, eax ; EventChipServerConnect
  01453	e8 00 00 00 00	 call	 ?GetNewPath@CDirPath@@QAEPADPAD@Z ; CDirPath::GetNewPath
  01458	50		 push	 eax
  01459	68 a7 ad 00 00	 push	 44455			; 0000ada7H
  0145e	68 00 00 00 00	 push	 OFFSET ??_C@_0BL@PLILBOOK@DevilSquareEventServerPort?$AA@
  01463	68 00 00 00 00	 push	 OFFSET ??_C@_0P@EMJDPFDH@GameServerInfo?$AA@
  01468	ff d6		 call	 esi

; 1445 : 	
; 1446 : 	GetPrivateProfileString("GameServerInfo", "EventChipServerIp", "127.0.0.1", gEventChipServerIp, 20, gDirPath.GetNewPath("commonserver.cfg"));

  0146a	68 00 00 00 00	 push	 OFFSET ??_C@_0BB@IGLHFEOF@commonserver?4cfg?$AA@
  0146f	b9 00 00 00 00	 mov	 ecx, OFFSET ?gDirPath@@3VCDirPath@@A ; gDirPath
  01474	66 a3 00 00 00
	00		 mov	 WORD PTR ?RANKING_SERVER_PORT@@3GA, ax ; RANKING_SERVER_PORT
  0147a	e8 00 00 00 00	 call	 ?GetNewPath@CDirPath@@QAEPADPAD@Z ; CDirPath::GetNewPath
  0147f	50		 push	 eax
  01480	6a 14		 push	 20			; 00000014H
  01482	68 00 00 00 00	 push	 OFFSET ?gEventChipServerIp@@3PADA ; gEventChipServerIp
  01487	68 00 00 00 00	 push	 OFFSET ??_C@_09PFCHIMEP@127?40?40?41?$AA@
  0148c	68 00 00 00 00	 push	 OFFSET ??_C@_0BC@FMIEAAIA@EventChipServerIp?$AA@
  01491	68 00 00 00 00	 push	 OFFSET ??_C@_0P@EMJDPFDH@GameServerInfo?$AA@
  01496	ff d7		 call	 edi

; 1447 : 	EVENT_CHIP_SERVER_PORT= GetPrivateProfileInt("GameServerInfo","EventChipServerPort",44456,gDirPath.GetNewPath("commonserver.cfg"));

  01498	68 00 00 00 00	 push	 OFFSET ??_C@_0BB@IGLHFEOF@commonserver?4cfg?$AA@
  0149d	b9 00 00 00 00	 mov	 ecx, OFFSET ?gDirPath@@3VCDirPath@@A ; gDirPath
  014a2	e8 00 00 00 00	 call	 ?GetNewPath@CDirPath@@QAEPADPAD@Z ; CDirPath::GetNewPath
  014a7	50		 push	 eax
  014a8	68 a8 ad 00 00	 push	 44456			; 0000ada8H
  014ad	68 00 00 00 00	 push	 OFFSET ??_C@_0BE@ECCPHGDJ@EventChipServerPort?$AA@
  014b2	68 00 00 00 00	 push	 OFFSET ??_C@_0P@EMJDPFDH@GameServerInfo?$AA@
  014b7	ff d6		 call	 esi

; 1448 : 
; 1449 : 	// Hero System
; 1450 : 	gApplyHeroSystem = GetPrivateProfileInt("GameServerInfo","ApplyHeroSystem", 0, gDirPath.GetNewPath("commonserver.cfg"));

  014b9	68 00 00 00 00	 push	 OFFSET ??_C@_0BB@IGLHFEOF@commonserver?4cfg?$AA@
  014be	b9 00 00 00 00	 mov	 ecx, OFFSET ?gDirPath@@3VCDirPath@@A ; gDirPath
  014c3	66 a3 00 00 00
	00		 mov	 WORD PTR ?EVENT_CHIP_SERVER_PORT@@3GA, ax ; EVENT_CHIP_SERVER_PORT
  014c9	e8 00 00 00 00	 call	 ?GetNewPath@CDirPath@@QAEPADPAD@Z ; CDirPath::GetNewPath
  014ce	50		 push	 eax
  014cf	6a 00		 push	 0
  014d1	68 00 00 00 00	 push	 OFFSET ??_C@_0BA@CEGABCOE@ApplyHeroSystem?$AA@
  014d6	68 00 00 00 00	 push	 OFFSET ??_C@_0P@EMJDPFDH@GameServerInfo?$AA@
  014db	ff d6		 call	 esi

; 1451 : 
; 1452 : 	// Battle Soccer
; 1453 : 	gEnableBattleSoccer = GetPrivateProfileInt("GameServerInfo","EnableBattleSoccer", 1, gDirPath.GetNewPath("commonserver.cfg"));

  014dd	68 00 00 00 00	 push	 OFFSET ??_C@_0BB@IGLHFEOF@commonserver?4cfg?$AA@
  014e2	b9 00 00 00 00	 mov	 ecx, OFFSET ?gDirPath@@3VCDirPath@@A ; gDirPath
  014e7	a3 00 00 00 00	 mov	 DWORD PTR ?gApplyHeroSystem@@3HA, eax ; gApplyHeroSystem
  014ec	e8 00 00 00 00	 call	 ?GetNewPath@CDirPath@@QAEPADPAD@Z ; CDirPath::GetNewPath
  014f1	50		 push	 eax
  014f2	6a 01		 push	 1
  014f4	68 00 00 00 00	 push	 OFFSET ??_C@_0BD@FPCMGBCA@EnableBattleSoccer?$AA@
  014f9	68 00 00 00 00	 push	 OFFSET ??_C@_0P@EMJDPFDH@GameServerInfo?$AA@
  014fe	ff d6		 call	 esi

; 1454 : 
; 1455 : 	// NPC Talk
; 1456 : 	gEnableEventNPCTalk = GetPrivateProfileInt("GameServerInfo","EnableEventNPCTalk", 0, gDirPath.GetNewPath("commonserver.cfg"));

  01500	68 00 00 00 00	 push	 OFFSET ??_C@_0BB@IGLHFEOF@commonserver?4cfg?$AA@
  01505	b9 00 00 00 00	 mov	 ecx, OFFSET ?gDirPath@@3VCDirPath@@A ; gDirPath
  0150a	a3 00 00 00 00	 mov	 DWORD PTR ?gEnableBattleSoccer@@3HA, eax ; gEnableBattleSoccer
  0150f	e8 00 00 00 00	 call	 ?GetNewPath@CDirPath@@QAEPADPAD@Z ; CDirPath::GetNewPath
  01514	50		 push	 eax
  01515	6a 00		 push	 0
  01517	68 00 00 00 00	 push	 OFFSET ??_C@_0BD@NKHABGBC@EnableEventNPCTalk?$AA@
  0151c	68 00 00 00 00	 push	 OFFSET ??_C@_0P@EMJDPFDH@GameServerInfo?$AA@
  01521	ff d6		 call	 esi

; 1457 : 
; 1458 : 	// Server Division
; 1459 : 	gEnableServerDivision = GetPrivateProfileInt("GameServerInfo","EnableServerDivision", 0, gDirPath.GetNewPath("commonserver.cfg"));

  01523	68 00 00 00 00	 push	 OFFSET ??_C@_0BB@IGLHFEOF@commonserver?4cfg?$AA@
  01528	b9 00 00 00 00	 mov	 ecx, OFFSET ?gDirPath@@3VCDirPath@@A ; gDirPath
  0152d	a3 00 00 00 00	 mov	 DWORD PTR ?gEnableEventNPCTalk@@3HA, eax ; gEnableEventNPCTalk
  01532	e8 00 00 00 00	 call	 ?GetNewPath@CDirPath@@QAEPADPAD@Z ; CDirPath::GetNewPath
  01537	50		 push	 eax
  01538	6a 00		 push	 0
  0153a	68 00 00 00 00	 push	 OFFSET ??_C@_0BF@PDBLMKBC@EnableServerDivision?$AA@
  0153f	68 00 00 00 00	 push	 OFFSET ??_C@_0P@EMJDPFDH@GameServerInfo?$AA@
  01544	ff d6		 call	 esi

; 1460 : 
; 1461 : 	// Monster HP Adjust
; 1462 : 	gMonsterHPAdjust = GetPrivateProfileInt("GameServerInfo","MonsterHPAdjust", 100, gDirPath.GetNewPath("commonserver.cfg"));

  01546	68 00 00 00 00	 push	 OFFSET ??_C@_0BB@IGLHFEOF@commonserver?4cfg?$AA@
  0154b	b9 00 00 00 00	 mov	 ecx, OFFSET ?gDirPath@@3VCDirPath@@A ; gDirPath
  01550	a3 00 00 00 00	 mov	 DWORD PTR ?gEnableServerDivision@@3HA, eax ; gEnableServerDivision
  01555	e8 00 00 00 00	 call	 ?GetNewPath@CDirPath@@QAEPADPAD@Z ; CDirPath::GetNewPath
  0155a	50		 push	 eax
  0155b	6a 64		 push	 100			; 00000064H
  0155d	68 00 00 00 00	 push	 OFFSET ??_C@_0BA@EFDPKNCB@MonsterHPAdjust?$AA@
  01562	68 00 00 00 00	 push	 OFFSET ??_C@_0P@EMJDPFDH@GameServerInfo?$AA@
  01567	ff d6		 call	 esi

; 1463 : 
; 1464 : 	// COMMANDS Init ( /make / Create /trace etc...)
; 1465 : 	cManager.Init();

  01569	b9 00 00 00 00	 mov	 ecx, OFFSET ?cManager@@3VCGMMng@@A ; cManager
  0156e	a3 00 00 00 00	 mov	 DWORD PTR ?gMonsterHPAdjust@@3HA, eax ; gMonsterHPAdjust
  01573	e8 00 00 00 00	 call	 ?Init@CGMMng@@QAEXXZ	; CGMMng::Init

; 1466 : 
; 1467 : 	// Hack Log SERVER
; 1468 : 	GetPrivateProfileString("GameServerInfo", "HackLogServer", "127.0.0.1", gHackLogServerIp, 20, gDirPath.GetNewPath("commonserver.cfg"));

  01578	68 00 00 00 00	 push	 OFFSET ??_C@_0BB@IGLHFEOF@commonserver?4cfg?$AA@
  0157d	b9 00 00 00 00	 mov	 ecx, OFFSET ?gDirPath@@3VCDirPath@@A ; gDirPath
  01582	e8 00 00 00 00	 call	 ?GetNewPath@CDirPath@@QAEPADPAD@Z ; CDirPath::GetNewPath
  01587	50		 push	 eax
  01588	6a 14		 push	 20			; 00000014H
  0158a	68 00 00 00 00	 push	 OFFSET ?gHackLogServerIp@@3PADA ; gHackLogServerIp
  0158f	68 00 00 00 00	 push	 OFFSET ??_C@_09PFCHIMEP@127?40?40?41?$AA@
  01594	68 00 00 00 00	 push	 OFFSET ??_C@_0O@KKNNPAMK@HackLogServer?$AA@
  01599	68 00 00 00 00	 push	 OFFSET ??_C@_0P@EMJDPFDH@GameServerInfo?$AA@
  0159e	ff d7		 call	 edi

; 1469 : 	gSendHackLog.SendSet(gHackLogServerIp, 60005);

  015a0	68 65 ea 00 00	 push	 60005			; 0000ea65H
  015a5	68 00 00 00 00	 push	 OFFSET ?gHackLogServerIp@@3PADA ; gHackLogServerIp
  015aa	b9 00 00 00 00	 mov	 ecx, OFFSET ?gSendHackLog@@3VCSendHackLog@@A ; gSendHackLog
  015af	e8 00 00 00 00	 call	 ?SendSet@CSendHackLog@@QAEXPADH@Z ; CSendHackLog::SendSet

; 1470 : 
; 1471 : 	// Penetration Skill
; 1472 : 	gEnableCheckPenetrationSkill = GetPrivateProfileInt("GameServerInfo","EnableCheckPenetrationSkill", 1, gDirPath.GetNewPath("commonserver.cfg"));

  015b4	68 00 00 00 00	 push	 OFFSET ??_C@_0BB@IGLHFEOF@commonserver?4cfg?$AA@
  015b9	b9 00 00 00 00	 mov	 ecx, OFFSET ?gDirPath@@3VCDirPath@@A ; gDirPath
  015be	e8 00 00 00 00	 call	 ?GetNewPath@CDirPath@@QAEPADPAD@Z ; CDirPath::GetNewPath
  015c3	50		 push	 eax
  015c4	6a 01		 push	 1
  015c6	68 00 00 00 00	 push	 OFFSET ??_C@_0BM@CEPJPHJK@EnableCheckPenetrationSkill?$AA@
  015cb	68 00 00 00 00	 push	 OFFSET ??_C@_0P@EMJDPFDH@GameServerInfo?$AA@
  015d0	ff d6		 call	 esi

; 1473 : 
; 1474 : 	// PK LEvel
; 1475 : 	g_PKLevelIncreaseOff = GetPrivateProfileInt("GameServerInfo","PKLevelIncreaseOff", 0, gDirPath.GetNewPath("commonserver.cfg"));

  015d2	68 00 00 00 00	 push	 OFFSET ??_C@_0BB@IGLHFEOF@commonserver?4cfg?$AA@
  015d7	b9 00 00 00 00	 mov	 ecx, OFFSET ?gDirPath@@3VCDirPath@@A ; gDirPath
  015dc	a3 00 00 00 00	 mov	 DWORD PTR ?gEnableCheckPenetrationSkill@@3HA, eax ; gEnableCheckPenetrationSkill
  015e1	e8 00 00 00 00	 call	 ?GetNewPath@CDirPath@@QAEPADPAD@Z ; CDirPath::GetNewPath
  015e6	50		 push	 eax
  015e7	6a 00		 push	 0
  015e9	68 00 00 00 00	 push	 OFFSET ??_C@_0BD@JBPJAKEM@PKLevelIncreaseOff?$AA@
  015ee	68 00 00 00 00	 push	 OFFSET ??_C@_0P@EMJDPFDH@GameServerInfo?$AA@
  015f3	ff d6		 call	 esi

; 1476 : 
; 1477 : 	char szDiplayGSInfo[512] = {0};

  015f5	68 ff 01 00 00	 push	 511			; 000001ffH
  015fa	8d 95 fd fa ff
	ff		 lea	 edx, DWORD PTR _szDiplayGSInfo$[ebp+1]
  01600	6a 00		 push	 0
  01602	52		 push	 edx
  01603	a3 00 00 00 00	 mov	 DWORD PTR ?g_PKLevelIncreaseOff@@3HA, eax ; g_PKLevelIncreaseOff
  01608	c6 85 fc fa ff
	ff 00		 mov	 BYTE PTR _szDiplayGSInfo$[ebp], 0
  0160f	e8 00 00 00 00	 call	 _memset

; 1478 : 
; 1479 : 	wsprintf(szDiplayGSInfo, "[1.00.46] :: %s :: [eMu Sapphire Season I] :: [Update : %s %s]", szServerName, __DATE__, __TIME__);

  01614	68 00 00 00 00	 push	 OFFSET ??_C@_08OGECJLJG@01?328?323?$AA@
  01619	68 00 00 00 00	 push	 OFFSET ??_C@_0M@LJBMFAHO@Sep?517?52019?$AA@
  0161e	68 00 00 00 00	 push	 OFFSET ?szServerName@@3PADA ; szServerName
  01623	8d 85 fc fa ff
	ff		 lea	 eax, DWORD PTR _szDiplayGSInfo$[ebp]
  01629	68 00 00 00 00	 push	 OFFSET ??_C@_0DP@EJOIJEI@?$FL1?400?446?$FN?5?3?3?5?$CFs?5?3?3?5?$FLeMu?5Sapphire@
  0162e	50		 push	 eax
  0162f	ff 15 00 00 00
	00		 call	 DWORD PTR __imp__wsprintfA

; 1480 : 	
; 1481 : 	SetWindowText(ghWnd, szDiplayGSInfo);

  01635	8b 15 00 00 00
	00		 mov	 edx, DWORD PTR ?ghWnd@@3PAUHWND__@@A ; ghWnd
  0163b	83 c4 20	 add	 esp, 32			; 00000020H
  0163e	8d 8d fc fa ff
	ff		 lea	 ecx, DWORD PTR _szDiplayGSInfo$[ebp]
  01644	51		 push	 ecx
  01645	52		 push	 edx
  01646	ff 15 00 00 00
	00		 call	 DWORD PTR __imp__SetWindowTextA@8

; 1482 : 
; 1483 : 	// Item Bag Load
; 1484 : 	LoadItemBag();

  0164c	e8 00 00 00 00	 call	 ?LoadItemBag@@YAXXZ	; LoadItemBag

; 1485 : 
; 1486 : 	// Eledorado Event Start
; 1487 : 	gEledoradoEvent.SetEventState(gIsEledoradoEvent);

  01651	a1 00 00 00 00	 mov	 eax, DWORD PTR ?gIsEledoradoEvent@@3HA ; gIsEledoradoEvent
  01656	50		 push	 eax
  01657	b9 00 00 00 00	 mov	 ecx, OFFSET ?gEledoradoEvent@@3VCEledoradoEvent@@A ; gEledoradoEvent
  0165c	e8 00 00 00 00	 call	 ?SetEventState@CEledoradoEvent@@QAEXH@Z ; CEledoradoEvent::SetEventState

; 1488 : 	gEledoradoEvent.Init();

  01661	b9 00 00 00 00	 mov	 ecx, OFFSET ?gEledoradoEvent@@3VCEledoradoEvent@@A ; gEledoradoEvent
  01666	e8 00 00 00 00	 call	 ?Init@CEledoradoEvent@@QAEXXZ ; CEledoradoEvent::Init

; 1489 : 
; 1490 : 	gPacketCheckSum.Init();

  0166b	b9 00 00 00 00	 mov	 ecx, OFFSET ?gPacketCheckSum@@3VCPacketCheckSum@@A ; gPacketCheckSum
  01670	e8 00 00 00 00	 call	 ?Init@CPacketCheckSum@@QAEXXZ ; CPacketCheckSum::Init

; 1491 : 
; 1492 : 	gDoPShopOpen = GetPrivateProfileInt("GameServerInfo","PersonalShopOpen", 0, gDirPath.GetNewPath("commonserver.cfg"));

  01675	68 00 00 00 00	 push	 OFFSET ??_C@_0BB@IGLHFEOF@commonserver?4cfg?$AA@
  0167a	b9 00 00 00 00	 mov	 ecx, OFFSET ?gDirPath@@3VCDirPath@@A ; gDirPath
  0167f	e8 00 00 00 00	 call	 ?GetNewPath@CDirPath@@QAEPADPAD@Z ; CDirPath::GetNewPath
  01684	50		 push	 eax
  01685	6a 00		 push	 0
  01687	68 00 00 00 00	 push	 OFFSET ??_C@_0BB@IPFJJFBE@PersonalShopOpen?$AA@
  0168c	68 00 00 00 00	 push	 OFFSET ??_C@_0P@EMJDPFDH@GameServerInfo?$AA@
  01691	ff d6		 call	 esi

; 1493 : 
; 1494 : 	ReadEventInfo(MU_EVENT_ALL );

  01693	6a 00		 push	 0
  01695	a3 00 00 00 00	 mov	 DWORD PTR ?gDoPShopOpen@@3HA, eax ; gDoPShopOpen
  0169a	e8 00 00 00 00	 call	 ?ReadEventInfo@@YAXW4MU_EVENT_TYPE@@@Z ; ReadEventInfo
  0169f	83 c4 04	 add	 esp, 4

; 1495 : 
; 1496 : 	// AutoRecuperation Level
; 1497 : 	g_iUseCharacterAutoRecuperationSystem = GetPrivateProfileInt("GameServerInfo","UseCharacterAutoRecuperationSystem", 0, gDirPath.GetNewPath("commonserver.cfg"));

  016a2	68 00 00 00 00	 push	 OFFSET ??_C@_0BB@IGLHFEOF@commonserver?4cfg?$AA@
  016a7	b9 00 00 00 00	 mov	 ecx, OFFSET ?gDirPath@@3VCDirPath@@A ; gDirPath
  016ac	e8 00 00 00 00	 call	 ?GetNewPath@CDirPath@@QAEPADPAD@Z ; CDirPath::GetNewPath
  016b1	50		 push	 eax
  016b2	6a 00		 push	 0
  016b4	68 00 00 00 00	 push	 OFFSET ??_C@_0CD@GJEODPLI@UseCharacterAutoRecuperationSyst@
  016b9	68 00 00 00 00	 push	 OFFSET ??_C@_0P@EMJDPFDH@GameServerInfo?$AA@
  016be	ff d6		 call	 esi

; 1498 : 	g_iCharacterRecuperationMaxLevel = GetPrivateProfileInt("GameServerInfo","CharacterRecuperationMaxLevel", 100, gDirPath.GetNewPath("commonserver.cfg"));

  016c0	68 00 00 00 00	 push	 OFFSET ??_C@_0BB@IGLHFEOF@commonserver?4cfg?$AA@
  016c5	b9 00 00 00 00	 mov	 ecx, OFFSET ?gDirPath@@3VCDirPath@@A ; gDirPath
  016ca	a3 00 00 00 00	 mov	 DWORD PTR ?g_iUseCharacterAutoRecuperationSystem@@3HA, eax ; g_iUseCharacterAutoRecuperationSystem
  016cf	e8 00 00 00 00	 call	 ?GetNewPath@CDirPath@@QAEPADPAD@Z ; CDirPath::GetNewPath
  016d4	50		 push	 eax
  016d5	6a 64		 push	 100			; 00000064H
  016d7	68 00 00 00 00	 push	 OFFSET ??_C@_0BO@ICOMDHBJ@CharacterRecuperationMaxLevel?$AA@
  016dc	68 00 00 00 00	 push	 OFFSET ??_C@_0P@EMJDPFDH@GameServerInfo?$AA@
  016e1	ff d6		 call	 esi

; 1499 : 
; 1500 : 	// Skill Check Settings
; 1501 : 	g_iSkillDistanceCheck = GetPrivateProfileInt("GameServerInfo","SkillDistanceCheck", 0, gDirPath.GetNewPath("commonserver.cfg"));

  016e3	68 00 00 00 00	 push	 OFFSET ??_C@_0BB@IGLHFEOF@commonserver?4cfg?$AA@
  016e8	b9 00 00 00 00	 mov	 ecx, OFFSET ?gDirPath@@3VCDirPath@@A ; gDirPath
  016ed	a3 00 00 00 00	 mov	 DWORD PTR ?g_iCharacterRecuperationMaxLevel@@3HA, eax ; g_iCharacterRecuperationMaxLevel
  016f2	e8 00 00 00 00	 call	 ?GetNewPath@CDirPath@@QAEPADPAD@Z ; CDirPath::GetNewPath
  016f7	50		 push	 eax
  016f8	6a 00		 push	 0
  016fa	68 00 00 00 00	 push	 OFFSET ??_C@_0BD@EINABCJP@SkillDistanceCheck?$AA@
  016ff	68 00 00 00 00	 push	 OFFSET ??_C@_0P@EMJDPFDH@GameServerInfo?$AA@
  01704	ff d6		 call	 esi

; 1502 : 	g_iSkillDistanceCheckTemp = GetPrivateProfileInt("GameServerInfo","SkillDistanceCheckTemp", 2, gDirPath.GetNewPath("commonserver.cfg"));

  01706	68 00 00 00 00	 push	 OFFSET ??_C@_0BB@IGLHFEOF@commonserver?4cfg?$AA@
  0170b	b9 00 00 00 00	 mov	 ecx, OFFSET ?gDirPath@@3VCDirPath@@A ; gDirPath
  01710	a3 00 00 00 00	 mov	 DWORD PTR ?g_iSkillDistanceCheck@@3HA, eax ; g_iSkillDistanceCheck
  01715	e8 00 00 00 00	 call	 ?GetNewPath@CDirPath@@QAEPADPAD@Z ; CDirPath::GetNewPath
  0171a	50		 push	 eax
  0171b	6a 02		 push	 2
  0171d	68 00 00 00 00	 push	 OFFSET ??_C@_0BH@KNOFMFOO@SkillDistanceCheckTemp?$AA@
  01722	68 00 00 00 00	 push	 OFFSET ??_C@_0P@EMJDPFDH@GameServerInfo?$AA@
  01727	ff d6		 call	 esi

; 1503 : 	g_iSkillDistanceKick = GetPrivateProfileInt("GameServerInfo","SkillDistanceKick", 0, gDirPath.GetNewPath("commonserver.cfg"));

  01729	68 00 00 00 00	 push	 OFFSET ??_C@_0BB@IGLHFEOF@commonserver?4cfg?$AA@
  0172e	b9 00 00 00 00	 mov	 ecx, OFFSET ?gDirPath@@3VCDirPath@@A ; gDirPath
  01733	a3 00 00 00 00	 mov	 DWORD PTR ?g_iSkillDistanceCheckTemp@@3HA, eax ; g_iSkillDistanceCheckTemp
  01738	e8 00 00 00 00	 call	 ?GetNewPath@CDirPath@@QAEPADPAD@Z ; CDirPath::GetNewPath
  0173d	50		 push	 eax
  0173e	6a 00		 push	 0
  01740	68 00 00 00 00	 push	 OFFSET ??_C@_0BC@PMNMLGGJ@SkillDistanceKick?$AA@
  01745	68 00 00 00 00	 push	 OFFSET ??_C@_0P@EMJDPFDH@GameServerInfo?$AA@
  0174a	ff d6		 call	 esi

; 1504 : 	g_iSkillDistanceKickCount = GetPrivateProfileInt("GameServerInfo","SkillDistanceKickCount", 5, gDirPath.GetNewPath("commonserver.cfg"));

  0174c	68 00 00 00 00	 push	 OFFSET ??_C@_0BB@IGLHFEOF@commonserver?4cfg?$AA@
  01751	b9 00 00 00 00	 mov	 ecx, OFFSET ?gDirPath@@3VCDirPath@@A ; gDirPath
  01756	a3 00 00 00 00	 mov	 DWORD PTR ?g_iSkillDistanceKick@@3HA, eax ; g_iSkillDistanceKick
  0175b	e8 00 00 00 00	 call	 ?GetNewPath@CDirPath@@QAEPADPAD@Z ; CDirPath::GetNewPath
  01760	50		 push	 eax
  01761	6a 05		 push	 5
  01763	68 00 00 00 00	 push	 OFFSET ??_C@_0BH@FHPEPELH@SkillDistanceKickCount?$AA@
  01768	68 00 00 00 00	 push	 OFFSET ??_C@_0P@EMJDPFDH@GameServerInfo?$AA@
  0176d	ff d6		 call	 esi

; 1505 : 	g_iSkillDiatanceKickCheckTime = GetPrivateProfileInt("GameServerInfo","SkillDistanceKickCheckTime", 10, gDirPath.GetNewPath("commonserver.cfg"));

  0176f	68 00 00 00 00	 push	 OFFSET ??_C@_0BB@IGLHFEOF@commonserver?4cfg?$AA@
  01774	b9 00 00 00 00	 mov	 ecx, OFFSET ?gDirPath@@3VCDirPath@@A ; gDirPath
  01779	a3 00 00 00 00	 mov	 DWORD PTR ?g_iSkillDistanceKickCount@@3HA, eax ; g_iSkillDistanceKickCount
  0177e	e8 00 00 00 00	 call	 ?GetNewPath@CDirPath@@QAEPADPAD@Z ; CDirPath::GetNewPath
  01783	50		 push	 eax
  01784	6a 0a		 push	 10			; 0000000aH
  01786	68 00 00 00 00	 push	 OFFSET ??_C@_0BL@OPACNGLO@SkillDistanceKickCheckTime?$AA@
  0178b	68 00 00 00 00	 push	 OFFSET ??_C@_0P@EMJDPFDH@GameServerInfo?$AA@
  01790	ff d6		 call	 esi

; 1506 : }

  01792	8b 4d fc	 mov	 ecx, DWORD PTR __$ArrayPad$[ebp]
  01795	5f		 pop	 edi
  01796	a3 00 00 00 00	 mov	 DWORD PTR ?g_iSkillDiatanceKickCheckTime@@3HA, eax ; g_iSkillDiatanceKickCheckTime
  0179b	5e		 pop	 esi
  0179c	33 cd		 xor	 ecx, ebp
  0179e	e8 00 00 00 00	 call	 @__security_check_cookie@4
  017a3	8b e5		 mov	 esp, ebp
  017a5	5d		 pop	 ebp
  017a6	c3		 ret	 0
  017a7	90		 npad	 1
$LN130@ReadCommon:
  017a8	00 00 00 00	 DD	 $LN27@ReadCommon
  017ac	00 00 00 00	 DD	 $LN24@ReadCommon
  017b0	00 00 00 00	 DD	 $LN21@ReadCommon
  017b4	00 00 00 00	 DD	 $LN18@ReadCommon
  017b8	00 00 00 00	 DD	 $LN15@ReadCommon
  017bc	00 00 00 00	 DD	 $LN12@ReadCommon
?ReadCommonServerInfo@@YAXXZ ENDP			; ReadCommonServerInfo
_TEXT	ENDS
PUBLIC	??_C@_0L@DPAHEMHE@Iplist?4dat?$AA@		; `string'
PUBLIC	??_C@_0O@BGHGDGNL@terrain40?4att?$AA@		; `string'
PUBLIC	??_C@_0O@PENOFJJN@terrain39?4att?$AA@		; `string'
PUBLIC	??_C@_0O@DPICIKDI@terrain38?4att?$AA@		; `string'
PUBLIC	??_C@_0O@MONEDION@terrain37?4att?$AA@		; `string'
PUBLIC	??_C@_0O@FIIOLEI@terrain36?4att?$AA@		; `string'
PUBLIC	??_C@_0O@IDBMJJOG@terrain35?4att?$AA@		; `string'
PUBLIC	??_C@_0O@EIEAEKED@terrain34?4att?$AA@		; `string'
PUBLIC	??_C@_0O@FFEFHKPL@terrain33?4att?$AA@		; `string'
PUBLIC	??_C@_0O@JOBJKJFO@terrain32?4att?$AA@		; `string'
PUBLIC	??_C@_0O@BIINNLPA@terrain31?4att?$AA@		; `string'
PUBLIC	??_C@_0O@CFGLJCFC@terrain25?4att?$AA@		; `string'
PUBLIC	??_C@_0O@GDEBEILE@terrain19?4att?$AA@		; `string'
PUBLIC	??_C@_0O@IPBCMKNJ@terrain11?4att?$AA@		; `string'
PUBLIC	??_C@_0O@EEEOBJHM@terrain10?4att?$AA@		; `string'
PUBLIC	??_C@_0O@JIGLIHH@terrain12?4att?$AA@		; `string'
PUBLIC	??_C@_0N@PHEFDIDH@terrain9?4att?$AA@		; `string'
PUBLIC	??_C@_0N@DMBJOLJC@terrain8?4att?$AA@		; `string'
PUBLIC	??_C@_0N@MNEPFJEH@terrain7?4att?$AA@		; `string'
PUBLIC	??_C@_0N@GBDIKOC@terrain6?4att?$AA@		; `string'
PUBLIC	??_C@_0N@IAIHPIEM@terrain5?4att?$AA@		; `string'
PUBLIC	??_C@_0N@ELNLCLOJ@terrain4?4att?$AA@		; `string'
PUBLIC	??_C@_0N@FGNOBLFB@terrain3?4att?$AA@		; `string'
PUBLIC	??_C@_0N@JNICMIPE@terrain2?4att?$AA@		; `string'
PUBLIC	??_C@_0N@BLBGLKFK@terrain1?4att?$AA@		; `string'
PUBLIC	??_C@_0BI@FNDPBPBE@UDP?5Socket?5create?5error?$AA@ ; `string'
PUBLIC	??_C@_0BL@MJAHPPPJ@Server?5Division?5is?5Enabled?$AA@ ; `string'
PUBLIC	??_C@_07KGMMFLDN@Warning?$AA@			; `string'
PUBLIC	??_C@_0BC@MBPKGCDH@MapServerInfo?4dat?$AA@	; `string'
PUBLIC	??_C@_0P@CNKMNCA@AttackEvent?5?$CFs?$AA@	; `string'
PUBLIC	??_C@_0BA@FPGHNLAN@CDragonEvent?5?$CFs?$AA@	; `string'
PUBLIC	??_C@_09MFFJIMND@Partition?$AA@			; `string'
PUBLIC	??_C@_0L@PODLPHGB@ServerType?$AA@		; `string'
PUBLIC	??_C@_08NHDNNGPC@?4?4?2data?2?$AA@		; `string'
PUBLIC	_hWnd$GSCopy$
PUBLIC	__$ArrayPad$
PUBLIC	?GameMainInit@@YAXPAUHWND__@@@Z			; GameMainInit
EXTRN	?GCTeleportSend@@YAXPAUOBJECTSTRUCT@@HEEEE@Z:PROC ; GCTeleportSend
EXTRN	?Load@CAcceptIp@@QAEXPAD@Z:PROC			; CAcceptIp::Load
EXTRN	?acceptIP@@3VCAcceptIp@@A:BYTE			; acceptIP
EXTRN	?CreateSocket@MyWinsockBase@@QAEHPAUHWND__@@@Z:PROC ; MyWinsockBase::CreateSocket
EXTRN	?ShopDataLoad@@YAHXZ:PROC			; ShopDataLoad
EXTRN	?Init@classdef@@QAEXXZ:PROC			; classdef::Init
EXTRN	?LoadMapAttr@MapClass@@QAEXPADH@Z:PROC		; MapClass::LoadMapAttr
EXTRN	?ItemInit@MapClass@@QAEXXZ:PROC			; MapClass::ItemInit
EXTRN	?InitBattleSoccer@@YAXXZ:PROC			; InitBattleSoccer
EXTRN	?gObjInit@@YAXXZ:PROC				; gObjInit
EXTRN	?SetProtocolCore@WzUdp@@QAEHP6AXEPAEH@Z@Z:PROC	; WzUdp::SetProtocolCore
EXTRN	?ChaosEventProtocolCore@@YAXEPAEH@Z:PROC	; ChaosEventProtocolCore
EXTRN	?Run@WzUdp@@QAEHXZ:PROC				; WzUdp::Run
EXTRN	?RecvSet@WzUdp@@QAEHH@Z:PROC			; WzUdp::RecvSet
EXTRN	?CreateSocket@WzUdp@@QAEHXZ:PROC		; WzUdp::CreateSocket
EXTRN	__imp__MessageBoxA@16:PROC
EXTRN	?LoadData@CMapServerManager@@QAEHPAD@Z:PROC	; CMapServerManager::LoadData
EXTRN	?g_MapServerManager@@3VCMapServerManager@@A:BYTE ; g_MapServerManager
EXTRN	??0CAttackEvent@@QAE@XZ:PROC			; CAttackEvent::CAttackEvent
EXTRN	??0CDragonEvent@@QAE@XZ:PROC			; CDragonEvent::CDragonEvent
EXTRN	?Load@CObjAttack@@QAEXXZ:PROC			; CObjAttack::Load
EXTRN	?gclassObjAttack@@3VCObjAttack@@A:BYTE		; gclassObjAttack
EXTRN	?Load@CObjUseSkill@@QAEXXZ:PROC			; CObjUseSkill::Load
EXTRN	?gObjUseSkill@@3VCObjUseSkill@@A:BYTE		; gObjUseSkill
EXTRN	?Load@CDropEvent@@QAEXXZ:PROC			; CDropEvent::Load
EXTRN	?gDropEvent@@3VCDropEvent@@A:BYTE		; gDropEvent
EXTRN	?Load@CItemBlock@@QAEXXZ:PROC			; CItemBlock::Load
EXTRN	?gItemBlock@@3VCItemBlock@@A:BYTE		; gItemBlock
EXTRN	?Load@CLottery@@QAEXXZ:PROC			; CLottery::Load
EXTRN	?gLottery@@3VCLottery@@A:BYTE			; gLottery
EXTRN	?Load@CHappyHour@@QAEXXZ:PROC			; CHappyHour::Load
EXTRN	?gHappyHour@@3VCHappyHour@@A:BYTE		; gHappyHour
EXTRN	?Load@CMoves@@QAEXXZ:PROC			; CMoves::Load
EXTRN	?gMoves@@3VCMoves@@A:BYTE			; gMoves
EXTRN	?Load@CMasterReset@@QAEXXZ:PROC			; CMasterReset::Load
EXTRN	?gMasterReset@@3VCMasterReset@@A:BYTE		; gMasterReset
EXTRN	?Load@CReset@@QAEXXZ:PROC			; CReset::Load
EXTRN	?gReset@@3VCReset@@A:BYTE			; gReset
EXTRN	?Load@CTips@@QAEXXZ:PROC			; CTips::Load
EXTRN	?gTips@@3VCTips@@A:BYTE				; gTips
EXTRN	?Load@CNews@@QAEXXZ:PROC			; CNews::Load
EXTRN	?gNews@@3VCNews@@A:BYTE				; gNews
EXTRN	?Load@CCommands@@QAEXXZ:PROC			; CCommands::Load
EXTRN	?gCommands@@3VCCommands@@A:BYTE			; gCommands
EXTRN	?Load@CPrivilege@@QAEXXZ:PROC			; CPrivilege::Load
EXTRN	?gPrivilege@@3VCPrivilege@@A:BYTE		; gPrivilege
EXTRN	?Load@CVip@@QAEXXZ:PROC				; CVip::Load
EXTRN	?gVip@@3VCVip@@A:BYTE				; gVip
EXTRN	?Load@CServerInfo@@QAEXXZ:PROC			; CServerInfo::Load
EXTRN	?gServerInfo@@3VCServerInfo@@A:BYTE		; gServerInfo
EXTRN	?Load@SQLClass@@QAEXXZ:PROC			; SQLClass::Load
EXTRN	?gSQLManager@@3VSQLClass@@A:BYTE		; gSQLManager
EXTRN	?SetFirstPath@CDirPath@@QAEXPAD@Z:PROC		; CDirPath::SetFirstPath
EXTRN	_srand:PROC
;	COMDAT ??_C@_0L@DPAHEMHE@Iplist?4dat?$AA@
; File c:\program files (x86)\microsoft visual studio 10.0\vc\include\time.inl
CONST	SEGMENT
??_C@_0L@DPAHEMHE@Iplist?4dat?$AA@ DB 'Iplist.dat', 00H	; `string'
CONST	ENDS
;	COMDAT ??_C@_0O@BGHGDGNL@terrain40?4att?$AA@
CONST	SEGMENT
??_C@_0O@BGHGDGNL@terrain40?4att?$AA@ DB 'terrain40.att', 00H ; `string'
CONST	ENDS
;	COMDAT ??_C@_0O@PENOFJJN@terrain39?4att?$AA@
CONST	SEGMENT
??_C@_0O@PENOFJJN@terrain39?4att?$AA@ DB 'terrain39.att', 00H ; `string'
CONST	ENDS
;	COMDAT ??_C@_0O@DPICIKDI@terrain38?4att?$AA@
CONST	SEGMENT
??_C@_0O@DPICIKDI@terrain38?4att?$AA@ DB 'terrain38.att', 00H ; `string'
CONST	ENDS
;	COMDAT ??_C@_0O@MONEDION@terrain37?4att?$AA@
CONST	SEGMENT
??_C@_0O@MONEDION@terrain37?4att?$AA@ DB 'terrain37.att', 00H ; `string'
CONST	ENDS
;	COMDAT ??_C@_0O@FIIOLEI@terrain36?4att?$AA@
CONST	SEGMENT
??_C@_0O@FIIOLEI@terrain36?4att?$AA@ DB 'terrain36.att', 00H ; `string'
CONST	ENDS
;	COMDAT ??_C@_0O@IDBMJJOG@terrain35?4att?$AA@
CONST	SEGMENT
??_C@_0O@IDBMJJOG@terrain35?4att?$AA@ DB 'terrain35.att', 00H ; `string'
CONST	ENDS
;	COMDAT ??_C@_0O@EIEAEKED@terrain34?4att?$AA@
CONST	SEGMENT
??_C@_0O@EIEAEKED@terrain34?4att?$AA@ DB 'terrain34.att', 00H ; `string'
CONST	ENDS
;	COMDAT ??_C@_0O@FFEFHKPL@terrain33?4att?$AA@
CONST	SEGMENT
??_C@_0O@FFEFHKPL@terrain33?4att?$AA@ DB 'terrain33.att', 00H ; `string'
CONST	ENDS
;	COMDAT ??_C@_0O@JOBJKJFO@terrain32?4att?$AA@
CONST	SEGMENT
??_C@_0O@JOBJKJFO@terrain32?4att?$AA@ DB 'terrain32.att', 00H ; `string'
CONST	ENDS
;	COMDAT ??_C@_0O@BIINNLPA@terrain31?4att?$AA@
CONST	SEGMENT
??_C@_0O@BIINNLPA@terrain31?4att?$AA@ DB 'terrain31.att', 00H ; `string'
CONST	ENDS
;	COMDAT ??_C@_0O@CFGLJCFC@terrain25?4att?$AA@
CONST	SEGMENT
??_C@_0O@CFGLJCFC@terrain25?4att?$AA@ DB 'terrain25.att', 00H ; `string'
CONST	ENDS
;	COMDAT ??_C@_0O@GDEBEILE@terrain19?4att?$AA@
CONST	SEGMENT
??_C@_0O@GDEBEILE@terrain19?4att?$AA@ DB 'terrain19.att', 00H ; `string'
CONST	ENDS
;	COMDAT ??_C@_0O@IPBCMKNJ@terrain11?4att?$AA@
CONST	SEGMENT
??_C@_0O@IPBCMKNJ@terrain11?4att?$AA@ DB 'terrain11.att', 00H ; `string'
CONST	ENDS
;	COMDAT ??_C@_0O@EEEOBJHM@terrain10?4att?$AA@
CONST	SEGMENT
??_C@_0O@EEEOBJHM@terrain10?4att?$AA@ DB 'terrain10.att', 00H ; `string'
CONST	ENDS
;	COMDAT ??_C@_0O@JIGLIHH@terrain12?4att?$AA@
CONST	SEGMENT
??_C@_0O@JIGLIHH@terrain12?4att?$AA@ DB 'terrain12.att', 00H ; `string'
CONST	ENDS
;	COMDAT ??_C@_0N@PHEFDIDH@terrain9?4att?$AA@
CONST	SEGMENT
??_C@_0N@PHEFDIDH@terrain9?4att?$AA@ DB 'terrain9.att', 00H ; `string'
CONST	ENDS
;	COMDAT ??_C@_0N@DMBJOLJC@terrain8?4att?$AA@
CONST	SEGMENT
??_C@_0N@DMBJOLJC@terrain8?4att?$AA@ DB 'terrain8.att', 00H ; `string'
CONST	ENDS
;	COMDAT ??_C@_0N@MNEPFJEH@terrain7?4att?$AA@
CONST	SEGMENT
??_C@_0N@MNEPFJEH@terrain7?4att?$AA@ DB 'terrain7.att', 00H ; `string'
CONST	ENDS
;	COMDAT ??_C@_0N@GBDIKOC@terrain6?4att?$AA@
CONST	SEGMENT
??_C@_0N@GBDIKOC@terrain6?4att?$AA@ DB 'terrain6.att', 00H ; `string'
CONST	ENDS
;	COMDAT ??_C@_0N@IAIHPIEM@terrain5?4att?$AA@
CONST	SEGMENT
??_C@_0N@IAIHPIEM@terrain5?4att?$AA@ DB 'terrain5.att', 00H ; `string'
CONST	ENDS
;	COMDAT ??_C@_0N@ELNLCLOJ@terrain4?4att?$AA@
CONST	SEGMENT
??_C@_0N@ELNLCLOJ@terrain4?4att?$AA@ DB 'terrain4.att', 00H ; `string'
CONST	ENDS
;	COMDAT ??_C@_0N@FGNOBLFB@terrain3?4att?$AA@
CONST	SEGMENT
??_C@_0N@FGNOBLFB@terrain3?4att?$AA@ DB 'terrain3.att', 00H ; `string'
CONST	ENDS
;	COMDAT ??_C@_0N@JNICMIPE@terrain2?4att?$AA@
CONST	SEGMENT
??_C@_0N@JNICMIPE@terrain2?4att?$AA@ DB 'terrain2.att', 00H ; `string'
CONST	ENDS
;	COMDAT ??_C@_0N@BLBGLKFK@terrain1?4att?$AA@
CONST	SEGMENT
??_C@_0N@BLBGLKFK@terrain1?4att?$AA@ DB 'terrain1.att', 00H ; `string'
CONST	ENDS
;	COMDAT ??_C@_0BI@FNDPBPBE@UDP?5Socket?5create?5error?$AA@
CONST	SEGMENT
??_C@_0BI@FNDPBPBE@UDP?5Socket?5create?5error?$AA@ DB 'UDP Socket create '
	DB	'error', 00H					; `string'
CONST	ENDS
;	COMDAT ??_C@_0BL@MJAHPPPJ@Server?5Division?5is?5Enabled?$AA@
CONST	SEGMENT
??_C@_0BL@MJAHPPPJ@Server?5Division?5is?5Enabled?$AA@ DB 'Server Division'
	DB	' is Enabled', 00H				; `string'
CONST	ENDS
;	COMDAT ??_C@_07KGMMFLDN@Warning?$AA@
CONST	SEGMENT
??_C@_07KGMMFLDN@Warning?$AA@ DB 'Warning', 00H		; `string'
CONST	ENDS
;	COMDAT ??_C@_0BC@MBPKGCDH@MapServerInfo?4dat?$AA@
CONST	SEGMENT
??_C@_0BC@MBPKGCDH@MapServerInfo?4dat?$AA@ DB 'MapServerInfo.dat', 00H ; `string'
CONST	ENDS
;	COMDAT ??_C@_0P@CNKMNCA@AttackEvent?5?$CFs?$AA@
CONST	SEGMENT
??_C@_0P@CNKMNCA@AttackEvent?5?$CFs?$AA@ DB 'AttackEvent %s', 00H ; `string'
CONST	ENDS
;	COMDAT ??_C@_0BA@FPGHNLAN@CDragonEvent?5?$CFs?$AA@
CONST	SEGMENT
??_C@_0BA@FPGHNLAN@CDragonEvent?5?$CFs?$AA@ DB 'CDragonEvent %s', 00H ; `string'
CONST	ENDS
;	COMDAT ??_C@_09MFFJIMND@Partition?$AA@
CONST	SEGMENT
??_C@_09MFFJIMND@Partition?$AA@ DB 'Partition', 00H	; `string'
CONST	ENDS
;	COMDAT ??_C@_0L@PODLPHGB@ServerType?$AA@
CONST	SEGMENT
??_C@_0L@PODLPHGB@ServerType?$AA@ DB 'ServerType', 00H	; `string'
CONST	ENDS
;	COMDAT ??_C@_08NHDNNGPC@?4?4?2data?2?$AA@
CONST	SEGMENT
??_C@_08NHDNNGPC@?4?4?2data?2?$AA@ DB '..\data\', 00H	; `string'
CONST	ENDS
;	COMDAT xdata$x
xdata$x	SEGMENT
__unwindtable$?GameMainInit@@YAXPAUHWND__@@@Z DD 0ffffffffH
	DD	FLAT:__unwindfunclet$?GameMainInit@@YAXPAUHWND__@@@Z$0
	DD	0ffffffffH
	DD	FLAT:__unwindfunclet$?GameMainInit@@YAXPAUHWND__@@@Z$1
__ehfuncinfo$?GameMainInit@@YAXPAUHWND__@@@Z DD 019930522H
	DD	02H
	DD	FLAT:__unwindtable$?GameMainInit@@YAXPAUHWND__@@@Z
	DD	2 DUP(00H)
	DD	2 DUP(00H)
	DD	00H
	DD	01H
; Function compile flags: /Ogtp
; File c:\users\faelhs\mu-1.1\emu - gameserver sapphire s0\gameserver\gamemain.cpp
xdata$x	ENDS
;	COMDAT ?GameMainInit@@YAXPAUHWND__@@@Z
_TEXT	SEGMENT
_hWnd$GSCopy$ = -628					; size = 4
tv1160 = -624						; size = 4
$T164219 = -624						; size = 4
$T164215 = -624						; size = 4
tv1020 = -620						; size = 4
_MapAttrName$ = -616					; size = 600
__$ArrayPad$ = -16					; size = 4
__$EHRec$ = -12						; size = 12
_hWnd$ = 8						; size = 4
?GameMainInit@@YAXPAUHWND__@@@Z PROC			; GameMainInit, COMDAT

; 409  : {

  00000	55		 push	 ebp
  00001	8b ec		 mov	 ebp, esp
  00003	6a ff		 push	 -1
  00005	68 00 00 00 00	 push	 __ehhandler$?GameMainInit@@YAXPAUHWND__@@@Z
  0000a	64 a1 00 00 00
	00		 mov	 eax, DWORD PTR fs:0
  00010	50		 push	 eax
  00011	81 ec 68 02 00
	00		 sub	 esp, 616		; 00000268H
  00017	a1 00 00 00 00	 mov	 eax, DWORD PTR ___security_cookie
  0001c	33 c5		 xor	 eax, ebp
  0001e	89 45 f0	 mov	 DWORD PTR __$ArrayPad$[ebp], eax
  00021	53		 push	 ebx
  00022	56		 push	 esi
  00023	57		 push	 edi
  00024	50		 push	 eax
  00025	8d 45 f4	 lea	 eax, DWORD PTR __$EHRec$[ebp]
  00028	64 a3 00 00 00
	00		 mov	 DWORD PTR fs:0, eax
  0002e	8b 45 08	 mov	 eax, DWORD PTR _hWnd$[ebp]

; 410  : 	int iLevelOver;
; 411  : 	// ---
; 412  : 	srand(time(NULL));

  00031	33 db		 xor	 ebx, ebx
  00033	53		 push	 ebx

; 513  : 	}
; 514  : 	// ---
; 515  : 	gUdpSocCER.SetProtocolCore(ChaosEventProtocolCore);

  00034	89 85 8c fd ff
	ff		 mov	 DWORD PTR _hWnd$GSCopy$[ebp], eax
  0003a	e8 00 00 00 00	 call	 __time64
  0003f	50		 push	 eax
  00040	e8 00 00 00 00	 call	 _srand
  00045	83 c4 08	 add	 esp, 8
  00048	e8 00 00 00 00	 call	 ?ReadServerInfo@@YAXXZ	; ReadServerInfo
  0004d	e8 00 00 00 00	 call	 ?gSetDate@@YAXXZ	; gSetDate
  00052	68 00 00 00 00	 push	 OFFSET ??_C@_08NHDNNGPC@?4?4?2data?2?$AA@
  00057	b9 00 00 00 00	 mov	 ecx, OFFSET ?gDirPath@@3VCDirPath@@A ; gDirPath
  0005c	e8 00 00 00 00	 call	 ?SetFirstPath@CDirPath@@QAEXPAD@Z ; CDirPath::SetFirstPath
  00061	68 00 00 00 00	 push	 OFFSET ??_C@_08NHDNNGPC@?4?4?2data?2?$AA@
  00066	b9 00 00 00 00	 mov	 ecx, OFFSET ?gDirPath@@3VCDirPath@@A ; gDirPath
  0006b	e8 00 00 00 00	 call	 ?SetFirstPath@CDirPath@@QAEXPAD@Z ; CDirPath::SetFirstPath
  00070	68 00 00 00 00	 push	 OFFSET ??_C@_0BB@IGLHFEOF@commonserver?4cfg?$AA@
  00075	b9 00 00 00 00	 mov	 ecx, OFFSET ?gDirPath@@3VCDirPath@@A ; gDirPath
  0007a	e8 00 00 00 00	 call	 ?GetNewPath@CDirPath@@QAEPADPAD@Z ; CDirPath::GetNewPath
  0007f	8b 35 00 00 00
	00		 mov	 esi, DWORD PTR __imp__GetPrivateProfileIntA@16
  00085	50		 push	 eax
  00086	53		 push	 ebx
  00087	68 00 00 00 00	 push	 OFFSET ??_C@_0L@PODLPHGB@ServerType?$AA@
  0008c	68 00 00 00 00	 push	 OFFSET ??_C@_0P@EMJDPFDH@GameServerInfo?$AA@
  00091	ff d6		 call	 esi
  00093	68 00 00 00 00	 push	 OFFSET ??_C@_0BB@IGLHFEOF@commonserver?4cfg?$AA@
  00098	b9 00 00 00 00	 mov	 ecx, OFFSET ?gDirPath@@3VCDirPath@@A ; gDirPath
  0009d	a3 00 00 00 00	 mov	 DWORD PTR ?gServerType@@3HA, eax ; gServerType
  000a2	e8 00 00 00 00	 call	 ?GetNewPath@CDirPath@@QAEPADPAD@Z ; CDirPath::GetNewPath
  000a7	50		 push	 eax
  000a8	53		 push	 ebx
  000a9	68 00 00 00 00	 push	 OFFSET ??_C@_09MFFJIMND@Partition?$AA@
  000ae	68 00 00 00 00	 push	 OFFSET ??_C@_0P@EMJDPFDH@GameServerInfo?$AA@
  000b3	ff d6		 call	 esi
  000b5	68 00 00 00 00	 push	 OFFSET ??_C@_0BB@IGLHFEOF@commonserver?4cfg?$AA@
  000ba	b9 00 00 00 00	 mov	 ecx, OFFSET ?gDirPath@@3VCDirPath@@A ; gDirPath
  000bf	a3 00 00 00 00	 mov	 DWORD PTR ?gPartition@@3HA, eax ; gPartition
  000c4	e8 00 00 00 00	 call	 ?GetNewPath@CDirPath@@QAEPADPAD@Z ; CDirPath::GetNewPath
  000c9	50		 push	 eax
  000ca	53		 push	 ebx
  000cb	68 00 00 00 00	 push	 OFFSET ??_C@_08BENDAOKD@Language?$AA@
  000d0	68 00 00 00 00	 push	 OFFSET ??_C@_0P@EMJDPFDH@GameServerInfo?$AA@
  000d5	ff d6		 call	 esi
  000d7	b9 00 00 00 00	 mov	 ecx, OFFSET ?gSQLManager@@3VSQLClass@@A ; gSQLManager
  000dc	a3 00 00 00 00	 mov	 DWORD PTR ?gLanguage@@3HA, eax ; gLanguage
  000e1	e8 00 00 00 00	 call	 ?Load@SQLClass@@QAEXXZ	; SQLClass::Load
  000e6	b9 00 00 00 00	 mov	 ecx, OFFSET ?gServerInfo@@3VCServerInfo@@A ; gServerInfo
  000eb	e8 00 00 00 00	 call	 ?Load@CServerInfo@@QAEXXZ ; CServerInfo::Load
  000f0	b9 00 00 00 00	 mov	 ecx, OFFSET ?gVip@@3VCVip@@A ; gVip
  000f5	e8 00 00 00 00	 call	 ?Load@CVip@@QAEXXZ	; CVip::Load
  000fa	b9 00 00 00 00	 mov	 ecx, OFFSET ?gPrivilege@@3VCPrivilege@@A ; gPrivilege
  000ff	e8 00 00 00 00	 call	 ?Load@CPrivilege@@QAEXXZ ; CPrivilege::Load
  00104	b9 00 00 00 00	 mov	 ecx, OFFSET ?gCommands@@3VCCommands@@A ; gCommands
  00109	e8 00 00 00 00	 call	 ?Load@CCommands@@QAEXXZ	; CCommands::Load
  0010e	b9 00 00 00 00	 mov	 ecx, OFFSET ?gNews@@3VCNews@@A ; gNews
  00113	e8 00 00 00 00	 call	 ?Load@CNews@@QAEXXZ	; CNews::Load
  00118	b9 00 00 00 00	 mov	 ecx, OFFSET ?gTips@@3VCTips@@A ; gTips
  0011d	e8 00 00 00 00	 call	 ?Load@CTips@@QAEXXZ	; CTips::Load
  00122	b9 00 00 00 00	 mov	 ecx, OFFSET ?gReset@@3VCReset@@A ; gReset
  00127	e8 00 00 00 00	 call	 ?Load@CReset@@QAEXXZ	; CReset::Load
  0012c	b9 00 00 00 00	 mov	 ecx, OFFSET ?gMasterReset@@3VCMasterReset@@A ; gMasterReset
  00131	e8 00 00 00 00	 call	 ?Load@CMasterReset@@QAEXXZ ; CMasterReset::Load
  00136	b9 00 00 00 00	 mov	 ecx, OFFSET ?gMoves@@3VCMoves@@A ; gMoves
  0013b	e8 00 00 00 00	 call	 ?Load@CMoves@@QAEXXZ	; CMoves::Load
  00140	b9 00 00 00 00	 mov	 ecx, OFFSET ?gHappyHour@@3VCHappyHour@@A ; gHappyHour
  00145	e8 00 00 00 00	 call	 ?Load@CHappyHour@@QAEXXZ ; CHappyHour::Load
  0014a	b9 00 00 00 00	 mov	 ecx, OFFSET ?gLottery@@3VCLottery@@A ; gLottery
  0014f	e8 00 00 00 00	 call	 ?Load@CLottery@@QAEXXZ	; CLottery::Load
  00154	b9 00 00 00 00	 mov	 ecx, OFFSET ?gItemBlock@@3VCItemBlock@@A ; gItemBlock
  00159	e8 00 00 00 00	 call	 ?Load@CItemBlock@@QAEXXZ ; CItemBlock::Load
  0015e	b9 00 00 00 00	 mov	 ecx, OFFSET ?gDropEvent@@3VCDropEvent@@A ; gDropEvent
  00163	e8 00 00 00 00	 call	 ?Load@CDropEvent@@QAEXXZ ; CDropEvent::Load
  00168	b9 00 00 00 00	 mov	 ecx, OFFSET ?gObjUseSkill@@3VCObjUseSkill@@A ; gObjUseSkill
  0016d	e8 00 00 00 00	 call	 ?Load@CObjUseSkill@@QAEXXZ ; CObjUseSkill::Load
  00172	b9 00 00 00 00	 mov	 ecx, OFFSET ?gclassObjAttack@@3VCObjAttack@@A ; gclassObjAttack
  00177	e8 00 00 00 00	 call	 ?Load@CObjAttack@@QAEXXZ ; CObjAttack::Load
  0017c	6a 14		 push	 20			; 00000014H
  0017e	e8 00 00 00 00	 call	 ??2@YAPAXI@Z		; operator new
  00183	83 c4 04	 add	 esp, 4
  00186	89 85 90 fd ff
	ff		 mov	 DWORD PTR $T164215[ebp], eax

; 413  : 	ReadServerInfo();
; 414  : 	gSetDate();
; 415  : 	// ---
; 416  : 	gDirPath.SetFirstPath(FIRST_PATH);
; 417  : 	gDirPath.SetFirstPath(FINAL_PATH);
; 418  : 	// ---
; 419  : 	gServerType	= GetPrivateProfileInt("GameServerInfo", "ServerType", 0, gDirPath.GetNewPath("commonserver.cfg") );
; 420  : 	gPartition	= GetPrivateProfileInt("GameServerInfo", "Partition", 0, gDirPath.GetNewPath("commonserver.cfg") );
; 421  : 	gLanguage	= GetPrivateProfileInt("GameServerInfo", "Language", 0, gDirPath.GetNewPath("commonserver.cfg") );
; 422  : 	// ---
; 423  : 	gSQLManager.Load();
; 424  : 	// ---
; 425  : 	gServerInfo.Load();
; 426  : 	// ---
; 427  : 	gVip.Load();
; 428  : 	// ---
; 429  : 	gPrivilege.Load();
; 430  : 	// ---
; 431  : 	gCommands.Load();
; 432  : 	// ---
; 433  : 	gNews.Load();
; 434  : 	// ---
; 435  : 	gTips.Load();
; 436  : 	// ---
; 437  : 	gReset.Load();
; 438  : 	// ---
; 439  : 	gMasterReset.Load();
; 440  : 	// ---
; 441  : 	gMoves.Load();
; 442  : 	// ---
; 443  : 	gHappyHour.Load();
; 444  : 	// ---
; 445  : 	gLottery.Load();
; 446  : 	// ---
; 447  : 	gItemBlock.Load();
; 448  : 	// ---
; 449  : 	gDropEvent.Load();
; 450  : 	// ---
; 451  : 	gObjUseSkill.Load();
; 452  : 	// ---
; 453  : 	gclassObjAttack.Load();
; 454  : 	// ---
; 455  : 	DragonEvent = new CDragonEvent;

  0018c	89 5d fc	 mov	 DWORD PTR __$EHRec$[ebp+8], ebx
  0018f	3b c3		 cmp	 eax, ebx
  00191	74 09		 je	 SHORT $LN16@GameMainIn
  00193	8b c8		 mov	 ecx, eax
  00195	e8 00 00 00 00	 call	 ??0CDragonEvent@@QAE@XZ	; CDragonEvent::CDragonEvent
  0019a	eb 02		 jmp	 SHORT $LN17@GameMainIn
$LN16@GameMainIn:
  0019c	33 c0		 xor	 eax, eax
$LN17@GameMainIn:
  0019e	83 ce ff	 or	 esi, -1
  001a1	89 75 fc	 mov	 DWORD PTR __$EHRec$[ebp+8], esi
  001a4	a3 00 00 00 00	 mov	 DWORD PTR ?DragonEvent@@3PAVCDragonEvent@@A, eax ; DragonEvent

; 456  : 	// ---
; 457  : 	if(DragonEvent == 0)

  001a9	3b c3		 cmp	 eax, ebx
  001ab	75 1f		 jne	 SHORT $LN13@GameMainIn

; 458  : 	{
; 459  : 		MsgBox("CDragonEvent %s", lMsg.Get(MSGGET(0,110)));

  001ad	6a 6e		 push	 110			; 0000006eH
  001af	b9 00 00 00 00	 mov	 ecx, OFFSET ?lMsg@@3VCMsg@@A ; lMsg
  001b4	e8 00 00 00 00	 call	 ?Get@CMsg@@QAEPADH@Z	; CMsg::Get
  001b9	50		 push	 eax
  001ba	68 00 00 00 00	 push	 OFFSET ??_C@_0BA@FPGHNLAN@CDragonEvent?5?$CFs?$AA@
  001bf	e8 00 00 00 00	 call	 ?MsgBox@@YAXPADZZ	; MsgBox
  001c4	83 c4 08	 add	 esp, 8

; 460  : 		return;

  001c7	e9 23 0a 00 00	 jmp	 $LN14@GameMainIn
$LN13@GameMainIn:

; 461  : 	}
; 462  : 	// ---
; 463  : 	AttackEvent = new CAttackEvent;

  001cc	6a 2c		 push	 44			; 0000002cH
  001ce	e8 00 00 00 00	 call	 ??2@YAPAXI@Z		; operator new
  001d3	83 c4 04	 add	 esp, 4
  001d6	89 85 90 fd ff
	ff		 mov	 DWORD PTR $T164219[ebp], eax
  001dc	c7 45 fc 01 00
	00 00		 mov	 DWORD PTR __$EHRec$[ebp+8], 1
  001e3	3b c3		 cmp	 eax, ebx
  001e5	74 09		 je	 SHORT $LN18@GameMainIn
  001e7	8b c8		 mov	 ecx, eax
  001e9	e8 00 00 00 00	 call	 ??0CAttackEvent@@QAE@XZ	; CAttackEvent::CAttackEvent
  001ee	eb 02		 jmp	 SHORT $LN19@GameMainIn
$LN18@GameMainIn:
  001f0	33 c0		 xor	 eax, eax
$LN19@GameMainIn:
  001f2	89 75 fc	 mov	 DWORD PTR __$EHRec$[ebp+8], esi
  001f5	a3 00 00 00 00	 mov	 DWORD PTR ?AttackEvent@@3PAVCAttackEvent@@A, eax ; AttackEvent

; 464  : 	// ---
; 465  : 	if(AttackEvent == 0)

  001fa	3b c3		 cmp	 eax, ebx
  001fc	75 1f		 jne	 SHORT $LN12@GameMainIn

; 466  : 	{
; 467  : 		MsgBox("AttackEvent %s", lMsg.Get(MSGGET(0,110)));

  001fe	6a 6e		 push	 110			; 0000006eH
  00200	b9 00 00 00 00	 mov	 ecx, OFFSET ?lMsg@@3VCMsg@@A ; lMsg
  00205	e8 00 00 00 00	 call	 ?Get@CMsg@@QAEPADH@Z	; CMsg::Get
  0020a	50		 push	 eax
  0020b	68 00 00 00 00	 push	 OFFSET ??_C@_0P@CNKMNCA@AttackEvent?5?$CFs?$AA@
  00210	e8 00 00 00 00	 call	 ?MsgBox@@YAXPADZZ	; MsgBox
  00215	83 c4 08	 add	 esp, 8

; 468  : 		return;

  00218	e9 d2 09 00 00	 jmp	 $LN14@GameMainIn
$LN12@GameMainIn:

; 469  : 	}
; 470  : 	// ---
; 471  : 	ReadCommonServerInfo();

  0021d	e8 00 00 00 00	 call	 ?ReadCommonServerInfo@@YAXXZ ; ReadCommonServerInfo

; 472  : 	// ---
; 473  : 	g_MapServerManager.LoadData(gDirPath.GetNewPath("MapServerInfo.dat"));

  00222	68 00 00 00 00	 push	 OFFSET ??_C@_0BC@MBPKGCDH@MapServerInfo?4dat?$AA@
  00227	b9 00 00 00 00	 mov	 ecx, OFFSET ?gDirPath@@3VCDirPath@@A ; gDirPath
  0022c	e8 00 00 00 00	 call	 ?GetNewPath@CDirPath@@QAEPADPAD@Z ; CDirPath::GetNewPath
  00231	50		 push	 eax
  00232	b9 00 00 00 00	 mov	 ecx, OFFSET ?g_MapServerManager@@3VCMapServerManager@@A ; g_MapServerManager
  00237	e8 00 00 00 00	 call	 ?LoadData@CMapServerManager@@QAEHPAD@Z ; CMapServerManager::LoadData

; 474  : 	// ---
; 475  : 	#if(GS_CASTLE == 1)
; 476  : 	// ---
; 477  : 	if(g_CastleSiege.Ready(g_MapServerManager.GetMapSvrGroup()) == 1)
; 478  : 	{
; 479  : 		if(g_CastleSiege.LoadData(gDirPath.GetNewPath("MuCastleData.dat")))
; 480  : 		{
; 481  : 			g_CastleSiege.LoadPreFixData(gDirPath.GetNewPath("commonserver.cfg"));
; 482  : 			g_CastleSiege.SetDataLoadState(CASTLESIEGE_DATALOAD_2);
; 483  : 		}
; 484  : 	}
; 485  : 	// ---
; 486  : 	#endif
; 487  : 	// ---
; 488  : 	if(gEnableServerDivision != 0)

  0023c	39 1d 00 00 00
	00		 cmp	 DWORD PTR ?gEnableServerDivision@@3HA, ebx ; gEnableServerDivision
  00242	74 12		 je	 SHORT $LN11@GameMainIn

; 489  : 	{
; 490  : 		MessageBox(NULL, "Server Division is Enabled", "Warning", MB_OK);

  00244	53		 push	 ebx
  00245	68 00 00 00 00	 push	 OFFSET ??_C@_07KGMMFLDN@Warning?$AA@
  0024a	68 00 00 00 00	 push	 OFFSET ??_C@_0BL@MJAHPPPJ@Server?5Division?5is?5Enabled?$AA@
  0024f	53		 push	 ebx
  00250	ff 15 00 00 00
	00		 call	 DWORD PTR __imp__MessageBoxA@16
$LN11@GameMainIn:

; 491  : 	}
; 492  : 	// ---
; 493  : 	if(gUdpSoc.CreateSocket() == 0)

  00256	b9 00 00 00 00	 mov	 ecx, OFFSET ?gUdpSoc@@3VWzUdp@@A ; gUdpSoc
  0025b	e8 00 00 00 00	 call	 ?CreateSocket@WzUdp@@QAEHXZ ; WzUdp::CreateSocket
  00260	85 c0		 test	 eax, eax
  00262	75 12		 jne	 SHORT $LN10@GameMainIn
$LN36@GameMainIn:

; 494  : 	{
; 495  : 		MsgBox("UDP Socket create error");

  00264	68 00 00 00 00	 push	 OFFSET ??_C@_0BI@FNDPBPBE@UDP?5Socket?5create?5error?$AA@
  00269	e8 00 00 00 00	 call	 ?MsgBox@@YAXPADZZ	; MsgBox
  0026e	83 c4 04	 add	 esp, 4

; 496  : 		return;

  00271	e9 79 09 00 00	 jmp	 $LN14@GameMainIn
$LN10@GameMainIn:

; 497  : 	}
; 498  : 	// ---
; 499  : 	if(gUdpSocCER.CreateSocket() == 0)

  00276	b9 00 00 00 00	 mov	 ecx, OFFSET ?gUdpSocCER@@3VWzUdp@@A ; gUdpSocCER
  0027b	e8 00 00 00 00	 call	 ?CreateSocket@WzUdp@@QAEHXZ ; WzUdp::CreateSocket
  00280	85 c0		 test	 eax, eax

; 500  : 	{
; 501  : 		MsgBox("UDP Socket create error");
; 502  : 		return;

  00282	74 e0		 je	 SHORT $LN36@GameMainIn

; 503  : 	}
; 504  : 	// ---
; 505  : 	gUdpSocCER.RecvSet(UDPPort);

  00284	0f b7 0d 00 00
	00 00		 movzx	 ecx, WORD PTR ?UDPPort@@3GA ; UDPPort
  0028b	51		 push	 ecx
  0028c	b9 00 00 00 00	 mov	 ecx, OFFSET ?gUdpSocCER@@3VWzUdp@@A ; gUdpSocCER
  00291	e8 00 00 00 00	 call	 ?RecvSet@WzUdp@@QAEHH@Z	; WzUdp::RecvSet

; 506  : 	// ---
; 507  : 	gUdpSocCER.Run();

  00296	b9 00 00 00 00	 mov	 ecx, OFFSET ?gUdpSocCER@@3VWzUdp@@A ; gUdpSocCER
  0029b	e8 00 00 00 00	 call	 ?Run@WzUdp@@QAEHXZ	; WzUdp::Run

; 508  : 	// ---
; 509  : 	if(gUdpSocCE.CreateSocket() == 0)

  002a0	b9 00 00 00 00	 mov	 ecx, OFFSET ?gUdpSocCE@@3VWzUdp@@A ; gUdpSocCE
  002a5	e8 00 00 00 00	 call	 ?CreateSocket@WzUdp@@QAEHXZ ; WzUdp::CreateSocket
  002aa	85 c0		 test	 eax, eax

; 510  : 	{
; 511  : 		MsgBox("UDP Socket create error");
; 512  : 		return;

  002ac	74 b6		 je	 SHORT $LN36@GameMainIn

; 513  : 	}
; 514  : 	// ---
; 515  : 	gUdpSocCER.SetProtocolCore(ChaosEventProtocolCore);

  002ae	68 00 00 00 00	 push	 OFFSET ?ChaosEventProtocolCore@@YAXEPAEH@Z ; ChaosEventProtocolCore
  002b3	b9 00 00 00 00	 mov	 ecx, OFFSET ?gUdpSocCER@@3VWzUdp@@A ; gUdpSocCER
  002b8	e8 00 00 00 00	 call	 ?SetProtocolCore@WzUdp@@QAEHP6AXEPAEH@Z@Z ; WzUdp::SetProtocolCore

; 516  : 	gUdpSocCE.SetProtocolCore(ChaosEventProtocolCore); 

  002bd	68 00 00 00 00	 push	 OFFSET ?ChaosEventProtocolCore@@YAXEPAEH@Z ; ChaosEventProtocolCore
  002c2	b9 00 00 00 00	 mov	 ecx, OFFSET ?gUdpSocCE@@3VWzUdp@@A ; gUdpSocCE
  002c7	e8 00 00 00 00	 call	 ?SetProtocolCore@WzUdp@@QAEHP6AXEPAEH@Z@Z ; WzUdp::SetProtocolCore

; 517  : 	// ---
; 518  : 	gObjInit();

  002cc	e8 00 00 00 00	 call	 ?gObjInit@@YAXXZ	; gObjInit

; 519  : 	// ---
; 520  : 	InitBattleSoccer();

  002d1	e8 00 00 00 00	 call	 ?InitBattleSoccer@@YAXXZ ; InitBattleSoccer

; 521  : 	// ---
; 522  : 	gMAttr.LoadAttr("..\\data\\Monster.txt");

  002d6	68 00 00 00 00	 push	 OFFSET ??_C@_0BE@HIFBFEG@?4?4?2data?2Monster?4txt?$AA@
  002db	b9 00 00 00 00	 mov	 ecx, OFFSET ?gMAttr@@3VCMonsterAttr@@A ; gMAttr
  002e0	e8 00 00 00 00	 call	 ?LoadAttr@CMonsterAttr@@QAEXPAD@Z ; CMonsterAttr::LoadAttr

; 523  : 	// ---
; 524  : 	#if(GS_CASTLE == 0)
; 525  : 	gMSetBase.LoadSetBase("..\\data\\MonsterSetBase.txt");

  002e5	68 00 00 00 00	 push	 OFFSET ??_C@_0BL@BAHOMBDJ@?4?4?2data?2MonsterSetBase?4txt?$AA@
  002ea	b9 00 00 00 00	 mov	 ecx, OFFSET ?gMSetBase@@3VCMonsterSetBase@@A ; gMSetBase
  002ef	e8 00 00 00 00	 call	 ?LoadSetBase@CMonsterSetBase@@QAEXPAD@Z ; CMonsterSetBase::LoadSetBase

; 526  : 	#else
; 527  : 	gMSetBase.LoadSetBase("..\\data\\MonsterSetBase_CS.txt");
; 528  : 	#endif
; 529  : 	// ---
; 530  : 	g_MonsterItemMng.Init();

  002f4	b9 00 00 00 00	 mov	 ecx, OFFSET ?g_MonsterItemMng@@3VCMonsterItemMng@@A ; g_MonsterItemMng
  002f9	e8 00 00 00 00	 call	 ?Init@CMonsterItemMng@@QAEXXZ ; CMonsterItemMng::Init

; 531  : 	// ---
; 532  : 	gLevelExperience[0] = 0;

  002fe	89 1d 00 00 00
	00		 mov	 DWORD PTR ?gLevelExperience@@3PAKA, ebx

; 533  : 	// ---
; 534  : 	iLevelOver = 1;

  00304	ba 01 00 00 00	 mov	 edx, 1
  00309	c7 85 94 fd ff
	ff 0a 00 00 00	 mov	 DWORD PTR tv1020[ebp], 10 ; 0000000aH
  00313	b8 02 00 00 00	 mov	 eax, 2
  00318	b9 08 00 00 00	 mov	 ecx, OFFSET ?gLevelExperience@@3PAKA+8
  0031d	8d 49 00	 npad	 3
$LL7@GameMainIn:

; 537  : 	{
; 538  : 		gLevelExperience[i] = (((i+9)*i)*i)*10;

  00320	8d 70 09	 lea	 esi, DWORD PTR [eax+9]
  00323	89 b5 90 fd ff
	ff		 mov	 DWORD PTR tv1160[ebp], esi
  00329	4e		 dec	 esi
  0032a	8d 78 ff	 lea	 edi, DWORD PTR [eax-1]
  0032d	0f af f7	 imul	 esi, edi
  00330	0f af f7	 imul	 esi, edi
  00333	8d 34 b6	 lea	 esi, DWORD PTR [esi+esi*4]
  00336	03 f6		 add	 esi, esi

; 539  : 
; 540  : 		if(i > 255)

  00338	8d 78 ff	 lea	 edi, DWORD PTR [eax-1]
  0033b	89 71 fc	 mov	 DWORD PTR [ecx-4], esi
  0033e	81 ff ff 00 00
	00		 cmp	 edi, 255		; 000000ffH
  00344	7e 1e		 jle	 SHORT $LN6@GameMainIn

; 541  : 		{
; 542  : 			gLevelExperience[i] += ((((iLevelOver+9)*iLevelOver)*iLevelOver)*1000);

  00346	8b bd 94 fd ff
	ff		 mov	 edi, DWORD PTR tv1020[ebp]
  0034c	0f af fa	 imul	 edi, edx
  0034f	0f af fa	 imul	 edi, edx
  00352	69 ff e8 03 00
	00		 imul	 edi, 1000		; 000003e8H
  00358	03 fe		 add	 edi, esi

; 543  : 			iLevelOver++;

  0035a	42		 inc	 edx
  0035b	ff 85 94 fd ff
	ff		 inc	 DWORD PTR tv1020[ebp]
  00361	89 79 fc	 mov	 DWORD PTR [ecx-4], edi
$LN6@GameMainIn:

; 537  : 	{
; 538  : 		gLevelExperience[i] = (((i+9)*i)*i)*10;

  00364	8b b5 90 fd ff
	ff		 mov	 esi, DWORD PTR tv1160[ebp]
  0036a	0f af f0	 imul	 esi, eax
  0036d	0f af f0	 imul	 esi, eax
  00370	8d 34 b6	 lea	 esi, DWORD PTR [esi+esi*4]
  00373	03 f6		 add	 esi, esi
  00375	89 31		 mov	 DWORD PTR [ecx], esi

; 539  : 
; 540  : 		if(i > 255)

  00377	3d ff 00 00 00	 cmp	 eax, 255		; 000000ffH
  0037c	7e 1d		 jle	 SHORT $LN29@GameMainIn

; 541  : 		{
; 542  : 			gLevelExperience[i] += ((((iLevelOver+9)*iLevelOver)*iLevelOver)*1000);

  0037e	8b bd 94 fd ff
	ff		 mov	 edi, DWORD PTR tv1020[ebp]
  00384	0f af fa	 imul	 edi, edx
  00387	0f af fa	 imul	 edi, edx
  0038a	69 ff e8 03 00
	00		 imul	 edi, 1000		; 000003e8H
  00390	03 fe		 add	 edi, esi

; 543  : 			iLevelOver++;

  00392	42		 inc	 edx
  00393	ff 85 94 fd ff
	ff		 inc	 DWORD PTR tv1020[ebp]
  00399	89 39		 mov	 DWORD PTR [ecx], edi
$LN29@GameMainIn:

; 537  : 	{
; 538  : 		gLevelExperience[i] = (((i+9)*i)*i)*10;

  0039b	8d 78 01	 lea	 edi, DWORD PTR [eax+1]
  0039e	8d 70 0a	 lea	 esi, DWORD PTR [eax+10]
  003a1	0f af f7	 imul	 esi, edi
  003a4	0f af f7	 imul	 esi, edi
  003a7	8d 34 b6	 lea	 esi, DWORD PTR [esi+esi*4]
  003aa	03 f6		 add	 esi, esi
  003ac	89 71 04	 mov	 DWORD PTR [ecx+4], esi

; 539  : 
; 540  : 		if(i > 255)

  003af	81 ff ff 00 00
	00		 cmp	 edi, 255		; 000000ffH
  003b5	7e 1e		 jle	 SHORT $LN30@GameMainIn

; 541  : 		{
; 542  : 			gLevelExperience[i] += ((((iLevelOver+9)*iLevelOver)*iLevelOver)*1000);

  003b7	8b bd 94 fd ff
	ff		 mov	 edi, DWORD PTR tv1020[ebp]
  003bd	0f af fa	 imul	 edi, edx
  003c0	0f af fa	 imul	 edi, edx
  003c3	69 ff e8 03 00
	00		 imul	 edi, 1000		; 000003e8H
  003c9	03 fe		 add	 edi, esi

; 543  : 			iLevelOver++;

  003cb	42		 inc	 edx
  003cc	ff 85 94 fd ff
	ff		 inc	 DWORD PTR tv1020[ebp]
  003d2	89 79 04	 mov	 DWORD PTR [ecx+4], edi
$LN30@GameMainIn:

; 537  : 	{
; 538  : 		gLevelExperience[i] = (((i+9)*i)*i)*10;

  003d5	8d 78 02	 lea	 edi, DWORD PTR [eax+2]
  003d8	8d 70 0b	 lea	 esi, DWORD PTR [eax+11]
  003db	0f af f7	 imul	 esi, edi
  003de	0f af f7	 imul	 esi, edi
  003e1	8d 34 b6	 lea	 esi, DWORD PTR [esi+esi*4]
  003e4	03 f6		 add	 esi, esi
  003e6	89 71 08	 mov	 DWORD PTR [ecx+8], esi

; 539  : 
; 540  : 		if(i > 255)

  003e9	81 ff ff 00 00
	00		 cmp	 edi, 255		; 000000ffH
  003ef	7e 1e		 jle	 SHORT $LN31@GameMainIn

; 541  : 		{
; 542  : 			gLevelExperience[i] += ((((iLevelOver+9)*iLevelOver)*iLevelOver)*1000);

  003f1	8b bd 94 fd ff
	ff		 mov	 edi, DWORD PTR tv1020[ebp]
  003f7	0f af fa	 imul	 edi, edx
  003fa	0f af fa	 imul	 edi, edx
  003fd	69 ff e8 03 00
	00		 imul	 edi, 1000		; 000003e8H
  00403	03 fe		 add	 edi, esi

; 543  : 			iLevelOver++;

  00405	42		 inc	 edx
  00406	ff 85 94 fd ff
	ff		 inc	 DWORD PTR tv1020[ebp]
  0040c	89 79 08	 mov	 DWORD PTR [ecx+8], edi
$LN31@GameMainIn:

; 537  : 	{
; 538  : 		gLevelExperience[i] = (((i+9)*i)*i)*10;

  0040f	8d 78 03	 lea	 edi, DWORD PTR [eax+3]
  00412	8d 70 0c	 lea	 esi, DWORD PTR [eax+12]
  00415	0f af f7	 imul	 esi, edi
  00418	0f af f7	 imul	 esi, edi
  0041b	8d 34 b6	 lea	 esi, DWORD PTR [esi+esi*4]
  0041e	03 f6		 add	 esi, esi
  00420	89 71 0c	 mov	 DWORD PTR [ecx+12], esi

; 539  : 
; 540  : 		if(i > 255)

  00423	81 ff ff 00 00
	00		 cmp	 edi, 255		; 000000ffH
  00429	7e 1e		 jle	 SHORT $LN32@GameMainIn

; 541  : 		{
; 542  : 			gLevelExperience[i] += ((((iLevelOver+9)*iLevelOver)*iLevelOver)*1000);

  0042b	8b bd 94 fd ff
	ff		 mov	 edi, DWORD PTR tv1020[ebp]
  00431	0f af fa	 imul	 edi, edx
  00434	0f af fa	 imul	 edi, edx
  00437	69 ff e8 03 00
	00		 imul	 edi, 1000		; 000003e8H
  0043d	03 fe		 add	 edi, esi

; 543  : 			iLevelOver++;

  0043f	42		 inc	 edx
  00440	ff 85 94 fd ff
	ff		 inc	 DWORD PTR tv1020[ebp]
  00446	89 79 0c	 mov	 DWORD PTR [ecx+12], edi
$LN32@GameMainIn:

; 535  : 	// ---
; 536  : 	for(int i = 1; i < MAX_CHAR_LEVEL+1; i++)

  00449	83 c0 05	 add	 eax, 5
  0044c	8d 70 ff	 lea	 esi, DWORD PTR [eax-1]
  0044f	83 c1 14	 add	 ecx, 20			; 00000014H
  00452	81 fe 91 01 00
	00		 cmp	 esi, 401		; 00000191H
  00458	0f 8c c2 fe ff
	ff		 jl	 $LL7@GameMainIn

; 544  : 		}
; 545  : 	}
; 546  : 	// ---
; 547  : 	char MapAttrName[MAX_NUMBER_MAP][15] =
; 548  : 	{
; 549  : 		"terrain1.att",

  0045e	8b 15 00 00 00
	00		 mov	 edx, DWORD PTR ??_C@_0N@BLBGLKFK@terrain1?4att?$AA@
  00464	8b 0d 08 00 00
	00		 mov	 ecx, DWORD PTR ??_C@_0N@BLBGLKFK@terrain1?4att?$AA@+8
  0046a	a1 04 00 00 00	 mov	 eax, DWORD PTR ??_C@_0N@BLBGLKFK@terrain1?4att?$AA@+4
  0046f	89 95 98 fd ff
	ff		 mov	 DWORD PTR _MapAttrName$[ebp], edx
  00475	0f b6 15 0c 00
	00 00		 movzx	 edx, BYTE PTR ??_C@_0N@BLBGLKFK@terrain1?4att?$AA@+12
  0047c	89 85 9c fd ff
	ff		 mov	 DWORD PTR _MapAttrName$[ebp+4], eax
  00482	89 8d a0 fd ff
	ff		 mov	 DWORD PTR _MapAttrName$[ebp+8], ecx

; 550  : 		"terrain2.att",

  00488	8b 0d 00 00 00
	00		 mov	 ecx, DWORD PTR ??_C@_0N@JNICMIPE@terrain2?4att?$AA@
  0048e	33 c0		 xor	 eax, eax
  00490	88 95 a4 fd ff
	ff		 mov	 BYTE PTR _MapAttrName$[ebp+12], dl
  00496	8b 15 04 00 00
	00		 mov	 edx, DWORD PTR ??_C@_0N@JNICMIPE@terrain2?4att?$AA@+4
  0049c	66 89 85 a5 fd
	ff ff		 mov	 WORD PTR _MapAttrName$[ebp+13], ax
  004a3	a1 08 00 00 00	 mov	 eax, DWORD PTR ??_C@_0N@JNICMIPE@terrain2?4att?$AA@+8
  004a8	89 8d a7 fd ff
	ff		 mov	 DWORD PTR _MapAttrName$[ebp+15], ecx
  004ae	0f b6 0d 0c 00
	00 00		 movzx	 ecx, BYTE PTR ??_C@_0N@JNICMIPE@terrain2?4att?$AA@+12
  004b5	89 95 ab fd ff
	ff		 mov	 DWORD PTR _MapAttrName$[ebp+19], edx
  004bb	33 d2		 xor	 edx, edx
  004bd	89 85 af fd ff
	ff		 mov	 DWORD PTR _MapAttrName$[ebp+23], eax

; 551  : 		"terrain3.att",

  004c3	a1 00 00 00 00	 mov	 eax, DWORD PTR ??_C@_0N@FGNOBLFB@terrain3?4att?$AA@
  004c8	88 8d b3 fd ff
	ff		 mov	 BYTE PTR _MapAttrName$[ebp+27], cl
  004ce	8b 0d 04 00 00
	00		 mov	 ecx, DWORD PTR ??_C@_0N@FGNOBLFB@terrain3?4att?$AA@+4
  004d4	66 89 95 b4 fd
	ff ff		 mov	 WORD PTR _MapAttrName$[ebp+28], dx
  004db	8b 15 08 00 00
	00		 mov	 edx, DWORD PTR ??_C@_0N@FGNOBLFB@terrain3?4att?$AA@+8
  004e1	89 85 b6 fd ff
	ff		 mov	 DWORD PTR _MapAttrName$[ebp+30], eax
  004e7	0f b6 05 0c 00
	00 00		 movzx	 eax, BYTE PTR ??_C@_0N@FGNOBLFB@terrain3?4att?$AA@+12
  004ee	89 8d ba fd ff
	ff		 mov	 DWORD PTR _MapAttrName$[ebp+34], ecx
  004f4	89 95 be fd ff
	ff		 mov	 DWORD PTR _MapAttrName$[ebp+38], edx

; 552  : 		"terrain4.att",

  004fa	8b 15 00 00 00
	00		 mov	 edx, DWORD PTR ??_C@_0N@ELNLCLOJ@terrain4?4att?$AA@
  00500	33 c9		 xor	 ecx, ecx
  00502	88 85 c2 fd ff
	ff		 mov	 BYTE PTR _MapAttrName$[ebp+42], al
  00508	a1 04 00 00 00	 mov	 eax, DWORD PTR ??_C@_0N@ELNLCLOJ@terrain4?4att?$AA@+4
  0050d	66 89 8d c3 fd
	ff ff		 mov	 WORD PTR _MapAttrName$[ebp+43], cx
  00514	8b 0d 08 00 00
	00		 mov	 ecx, DWORD PTR ??_C@_0N@ELNLCLOJ@terrain4?4att?$AA@+8
  0051a	89 95 c5 fd ff
	ff		 mov	 DWORD PTR _MapAttrName$[ebp+45], edx
  00520	0f b6 15 0c 00
	00 00		 movzx	 edx, BYTE PTR ??_C@_0N@ELNLCLOJ@terrain4?4att?$AA@+12
  00527	89 85 c9 fd ff
	ff		 mov	 DWORD PTR _MapAttrName$[ebp+49], eax
  0052d	89 8d cd fd ff
	ff		 mov	 DWORD PTR _MapAttrName$[ebp+53], ecx

; 553  : 		"terrain5.att",

  00533	8b 0d 00 00 00
	00		 mov	 ecx, DWORD PTR ??_C@_0N@IAIHPIEM@terrain5?4att?$AA@
  00539	33 c0		 xor	 eax, eax
  0053b	88 95 d1 fd ff
	ff		 mov	 BYTE PTR _MapAttrName$[ebp+57], dl
  00541	8b 15 04 00 00
	00		 mov	 edx, DWORD PTR ??_C@_0N@IAIHPIEM@terrain5?4att?$AA@+4
  00547	66 89 85 d2 fd
	ff ff		 mov	 WORD PTR _MapAttrName$[ebp+58], ax
  0054e	a1 08 00 00 00	 mov	 eax, DWORD PTR ??_C@_0N@IAIHPIEM@terrain5?4att?$AA@+8
  00553	89 8d d4 fd ff
	ff		 mov	 DWORD PTR _MapAttrName$[ebp+60], ecx
  00559	0f b6 0d 0c 00
	00 00		 movzx	 ecx, BYTE PTR ??_C@_0N@IAIHPIEM@terrain5?4att?$AA@+12
  00560	89 95 d8 fd ff
	ff		 mov	 DWORD PTR _MapAttrName$[ebp+64], edx
  00566	33 d2		 xor	 edx, edx
  00568	89 85 dc fd ff
	ff		 mov	 DWORD PTR _MapAttrName$[ebp+68], eax

; 554  : 		"terrain6.att",

  0056e	a1 00 00 00 00	 mov	 eax, DWORD PTR ??_C@_0N@GBDIKOC@terrain6?4att?$AA@
  00573	88 8d e0 fd ff
	ff		 mov	 BYTE PTR _MapAttrName$[ebp+72], cl
  00579	8b 0d 04 00 00
	00		 mov	 ecx, DWORD PTR ??_C@_0N@GBDIKOC@terrain6?4att?$AA@+4
  0057f	66 89 95 e1 fd
	ff ff		 mov	 WORD PTR _MapAttrName$[ebp+73], dx
  00586	8b 15 08 00 00
	00		 mov	 edx, DWORD PTR ??_C@_0N@GBDIKOC@terrain6?4att?$AA@+8
  0058c	89 85 e3 fd ff
	ff		 mov	 DWORD PTR _MapAttrName$[ebp+75], eax
  00592	0f b6 05 0c 00
	00 00		 movzx	 eax, BYTE PTR ??_C@_0N@GBDIKOC@terrain6?4att?$AA@+12
  00599	89 8d e7 fd ff
	ff		 mov	 DWORD PTR _MapAttrName$[ebp+79], ecx
  0059f	89 95 eb fd ff
	ff		 mov	 DWORD PTR _MapAttrName$[ebp+83], edx

; 555  : 		"terrain7.att",

  005a5	8b 15 00 00 00
	00		 mov	 edx, DWORD PTR ??_C@_0N@MNEPFJEH@terrain7?4att?$AA@
  005ab	33 c9		 xor	 ecx, ecx
  005ad	88 85 ef fd ff
	ff		 mov	 BYTE PTR _MapAttrName$[ebp+87], al
  005b3	a1 04 00 00 00	 mov	 eax, DWORD PTR ??_C@_0N@MNEPFJEH@terrain7?4att?$AA@+4
  005b8	66 89 8d f0 fd
	ff ff		 mov	 WORD PTR _MapAttrName$[ebp+88], cx
  005bf	8b 0d 08 00 00
	00		 mov	 ecx, DWORD PTR ??_C@_0N@MNEPFJEH@terrain7?4att?$AA@+8
  005c5	89 95 f2 fd ff
	ff		 mov	 DWORD PTR _MapAttrName$[ebp+90], edx
  005cb	0f b6 15 0c 00
	00 00		 movzx	 edx, BYTE PTR ??_C@_0N@MNEPFJEH@terrain7?4att?$AA@+12
  005d2	89 85 f6 fd ff
	ff		 mov	 DWORD PTR _MapAttrName$[ebp+94], eax
  005d8	89 8d fa fd ff
	ff		 mov	 DWORD PTR _MapAttrName$[ebp+98], ecx

; 556  : 		"terrain8.att",

  005de	8b 0d 00 00 00
	00		 mov	 ecx, DWORD PTR ??_C@_0N@DMBJOLJC@terrain8?4att?$AA@
  005e4	33 c0		 xor	 eax, eax
  005e6	88 95 fe fd ff
	ff		 mov	 BYTE PTR _MapAttrName$[ebp+102], dl
  005ec	8b 15 04 00 00
	00		 mov	 edx, DWORD PTR ??_C@_0N@DMBJOLJC@terrain8?4att?$AA@+4
  005f2	66 89 85 ff fd
	ff ff		 mov	 WORD PTR _MapAttrName$[ebp+103], ax
  005f9	a1 08 00 00 00	 mov	 eax, DWORD PTR ??_C@_0N@DMBJOLJC@terrain8?4att?$AA@+8
  005fe	89 8d 01 fe ff
	ff		 mov	 DWORD PTR _MapAttrName$[ebp+105], ecx
  00604	0f b6 0d 0c 00
	00 00		 movzx	 ecx, BYTE PTR ??_C@_0N@DMBJOLJC@terrain8?4att?$AA@+12
  0060b	89 95 05 fe ff
	ff		 mov	 DWORD PTR _MapAttrName$[ebp+109], edx
  00611	33 d2		 xor	 edx, edx
  00613	89 85 09 fe ff
	ff		 mov	 DWORD PTR _MapAttrName$[ebp+113], eax

; 557  : 		"terrain9.att",

  00619	a1 00 00 00 00	 mov	 eax, DWORD PTR ??_C@_0N@PHEFDIDH@terrain9?4att?$AA@
  0061e	88 8d 0d fe ff
	ff		 mov	 BYTE PTR _MapAttrName$[ebp+117], cl
  00624	66 89 95 0e fe
	ff ff		 mov	 WORD PTR _MapAttrName$[ebp+118], dx
  0062b	8b 15 08 00 00
	00		 mov	 edx, DWORD PTR ??_C@_0N@PHEFDIDH@terrain9?4att?$AA@+8
  00631	8b 0d 04 00 00
	00		 mov	 ecx, DWORD PTR ??_C@_0N@PHEFDIDH@terrain9?4att?$AA@+4

; 558  : 		"terrain10.att",
; 559  : 		"terrain11.att",
; 560  : 		"terrain12.att",

  00637	66 8b 35 0c 00
	00 00		 mov	 si, WORD PTR ??_C@_0O@JIGLIHH@terrain12?4att?$AA@+12
  0063e	89 85 10 fe ff
	ff		 mov	 DWORD PTR _MapAttrName$[ebp+120], eax
  00644	0f b6 05 0c 00
	00 00		 movzx	 eax, BYTE PTR ??_C@_0N@PHEFDIDH@terrain9?4att?$AA@+12
  0064b	89 95 18 fe ff
	ff		 mov	 DWORD PTR _MapAttrName$[ebp+128], edx
  00651	8b 15 00 00 00
	00		 mov	 edx, DWORD PTR ??_C@_0O@EEEOBJHM@terrain10?4att?$AA@
  00657	88 85 1c fe ff
	ff		 mov	 BYTE PTR _MapAttrName$[ebp+132], al
  0065d	a1 04 00 00 00	 mov	 eax, DWORD PTR ??_C@_0O@EEEOBJHM@terrain10?4att?$AA@+4
  00662	89 8d 14 fe ff
	ff		 mov	 DWORD PTR _MapAttrName$[ebp+124], ecx
  00668	33 c9		 xor	 ecx, ecx
  0066a	89 95 1f fe ff
	ff		 mov	 DWORD PTR _MapAttrName$[ebp+135], edx
  00670	0f b7 15 0c 00
	00 00		 movzx	 edx, WORD PTR ??_C@_0O@EEEOBJHM@terrain10?4att?$AA@+12
  00677	89 85 23 fe ff
	ff		 mov	 DWORD PTR _MapAttrName$[ebp+139], eax
  0067d	a1 00 00 00 00	 mov	 eax, DWORD PTR ??_C@_0O@IPBCMKNJ@terrain11?4att?$AA@
  00682	66 89 8d 1d fe
	ff ff		 mov	 WORD PTR _MapAttrName$[ebp+133], cx
  00689	8b 0d 08 00 00
	00		 mov	 ecx, DWORD PTR ??_C@_0O@EEEOBJHM@terrain10?4att?$AA@+8
  0068f	89 85 2e fe ff
	ff		 mov	 DWORD PTR _MapAttrName$[ebp+150], eax
  00695	0f b7 05 0c 00
	00 00		 movzx	 eax, WORD PTR ??_C@_0O@IPBCMKNJ@terrain11?4att?$AA@+12
  0069c	89 8d 27 fe ff
	ff		 mov	 DWORD PTR _MapAttrName$[ebp+143], ecx
  006a2	8b 0d 04 00 00
	00		 mov	 ecx, DWORD PTR ??_C@_0O@IPBCMKNJ@terrain11?4att?$AA@+4
  006a8	66 89 95 2b fe
	ff ff		 mov	 WORD PTR _MapAttrName$[ebp+147], dx
  006af	8b 15 08 00 00
	00		 mov	 edx, DWORD PTR ??_C@_0O@IPBCMKNJ@terrain11?4att?$AA@+8
  006b5	89 8d 32 fe ff
	ff		 mov	 DWORD PTR _MapAttrName$[ebp+154], ecx
  006bb	8b 0d 04 00 00
	00		 mov	 ecx, DWORD PTR ??_C@_0O@JIGLIHH@terrain12?4att?$AA@+4
  006c1	89 95 36 fe ff
	ff		 mov	 DWORD PTR _MapAttrName$[ebp+158], edx
  006c7	8b 15 08 00 00
	00		 mov	 edx, DWORD PTR ??_C@_0O@JIGLIHH@terrain12?4att?$AA@+8
  006cd	66 89 85 3a fe
	ff ff		 mov	 WORD PTR _MapAttrName$[ebp+162], ax
  006d4	a1 00 00 00 00	 mov	 eax, DWORD PTR ??_C@_0O@JIGLIHH@terrain12?4att?$AA@
  006d9	89 85 3d fe ff
	ff		 mov	 DWORD PTR _MapAttrName$[ebp+165], eax
  006df	89 8d 41 fe ff
	ff		 mov	 DWORD PTR _MapAttrName$[ebp+169], ecx
  006e5	89 95 45 fe ff
	ff		 mov	 DWORD PTR _MapAttrName$[ebp+173], edx
  006eb	66 89 b5 49 fe
	ff ff		 mov	 WORD PTR _MapAttrName$[ebp+177], si

; 561  : 		"terrain12.att",

  006f2	89 85 4c fe ff
	ff		 mov	 DWORD PTR _MapAttrName$[ebp+180], eax
  006f8	89 8d 50 fe ff
	ff		 mov	 DWORD PTR _MapAttrName$[ebp+184], ecx
  006fe	89 95 54 fe ff
	ff		 mov	 DWORD PTR _MapAttrName$[ebp+188], edx
  00704	66 89 b5 58 fe
	ff ff		 mov	 WORD PTR _MapAttrName$[ebp+192], si

; 562  : 		"terrain12.att",

  0070b	89 85 5b fe ff
	ff		 mov	 DWORD PTR _MapAttrName$[ebp+195], eax
  00711	89 8d 5f fe ff
	ff		 mov	 DWORD PTR _MapAttrName$[ebp+199], ecx
  00717	89 95 63 fe ff
	ff		 mov	 DWORD PTR _MapAttrName$[ebp+203], edx
  0071d	66 89 b5 67 fe
	ff ff		 mov	 WORD PTR _MapAttrName$[ebp+207], si

; 563  : 		"terrain12.att",

  00724	89 85 6a fe ff
	ff		 mov	 DWORD PTR _MapAttrName$[ebp+210], eax
  0072a	89 8d 6e fe ff
	ff		 mov	 DWORD PTR _MapAttrName$[ebp+214], ecx
  00730	89 95 72 fe ff
	ff		 mov	 DWORD PTR _MapAttrName$[ebp+218], edx
  00736	66 89 b5 76 fe
	ff ff		 mov	 WORD PTR _MapAttrName$[ebp+222], si

; 564  : 		"terrain12.att",

  0073d	89 85 79 fe ff
	ff		 mov	 DWORD PTR _MapAttrName$[ebp+225], eax
  00743	89 8d 7d fe ff
	ff		 mov	 DWORD PTR _MapAttrName$[ebp+229], ecx
  00749	89 95 81 fe ff
	ff		 mov	 DWORD PTR _MapAttrName$[ebp+233], edx
  0074f	66 89 b5 85 fe
	ff ff		 mov	 WORD PTR _MapAttrName$[ebp+237], si

; 565  : 		"terrain12.att",

  00756	89 85 88 fe ff
	ff		 mov	 DWORD PTR _MapAttrName$[ebp+240], eax
  0075c	89 8d 8c fe ff
	ff		 mov	 DWORD PTR _MapAttrName$[ebp+244], ecx
  00762	89 95 90 fe ff
	ff		 mov	 DWORD PTR _MapAttrName$[ebp+248], edx
  00768	66 89 b5 94 fe
	ff ff		 mov	 WORD PTR _MapAttrName$[ebp+252], si

; 566  : 		"terrain12.att",

  0076f	89 85 97 fe ff
	ff		 mov	 DWORD PTR _MapAttrName$[ebp+255], eax

; 567  : 		"terrain19.att",

  00775	a1 00 00 00 00	 mov	 eax, DWORD PTR ??_C@_0O@GDEBEILE@terrain19?4att?$AA@
  0077a	89 8d 9b fe ff
	ff		 mov	 DWORD PTR _MapAttrName$[ebp+259], ecx
  00780	8b 0d 04 00 00
	00		 mov	 ecx, DWORD PTR ??_C@_0O@GDEBEILE@terrain19?4att?$AA@+4
  00786	89 95 9f fe ff
	ff		 mov	 DWORD PTR _MapAttrName$[ebp+263], edx
  0078c	8b 15 08 00 00
	00		 mov	 edx, DWORD PTR ??_C@_0O@GDEBEILE@terrain19?4att?$AA@+8
  00792	66 89 b5 a3 fe
	ff ff		 mov	 WORD PTR _MapAttrName$[ebp+267], si
  00799	66 8b 35 0c 00
	00 00		 mov	 si, WORD PTR ??_C@_0O@GDEBEILE@terrain19?4att?$AA@+12
  007a0	88 9d 2d fe ff
	ff		 mov	 BYTE PTR _MapAttrName$[ebp+149], bl
  007a6	88 9d 3c fe ff
	ff		 mov	 BYTE PTR _MapAttrName$[ebp+164], bl
  007ac	88 9d 4b fe ff
	ff		 mov	 BYTE PTR _MapAttrName$[ebp+179], bl
  007b2	88 9d 5a fe ff
	ff		 mov	 BYTE PTR _MapAttrName$[ebp+194], bl
  007b8	88 9d 69 fe ff
	ff		 mov	 BYTE PTR _MapAttrName$[ebp+209], bl
  007be	88 9d 78 fe ff
	ff		 mov	 BYTE PTR _MapAttrName$[ebp+224], bl
  007c4	88 9d 87 fe ff
	ff		 mov	 BYTE PTR _MapAttrName$[ebp+239], bl
  007ca	88 9d 96 fe ff
	ff		 mov	 BYTE PTR _MapAttrName$[ebp+254], bl
  007d0	88 9d a5 fe ff
	ff		 mov	 BYTE PTR _MapAttrName$[ebp+269], bl
  007d6	89 85 a6 fe ff
	ff		 mov	 DWORD PTR _MapAttrName$[ebp+270], eax
  007dc	89 8d aa fe ff
	ff		 mov	 DWORD PTR _MapAttrName$[ebp+274], ecx
  007e2	89 95 ae fe ff
	ff		 mov	 DWORD PTR _MapAttrName$[ebp+278], edx
  007e8	66 89 b5 b2 fe
	ff ff		 mov	 WORD PTR _MapAttrName$[ebp+282], si
  007ef	88 9d b4 fe ff
	ff		 mov	 BYTE PTR _MapAttrName$[ebp+284], bl

; 568  : 		"terrain19.att",

  007f5	89 85 b5 fe ff
	ff		 mov	 DWORD PTR _MapAttrName$[ebp+285], eax
  007fb	89 8d b9 fe ff
	ff		 mov	 DWORD PTR _MapAttrName$[ebp+289], ecx
  00801	89 95 bd fe ff
	ff		 mov	 DWORD PTR _MapAttrName$[ebp+293], edx
  00807	66 89 b5 c1 fe
	ff ff		 mov	 WORD PTR _MapAttrName$[ebp+297], si
  0080e	88 9d c3 fe ff
	ff		 mov	 BYTE PTR _MapAttrName$[ebp+299], bl

; 569  : 		"terrain19.att",

  00814	89 85 c4 fe ff
	ff		 mov	 DWORD PTR _MapAttrName$[ebp+300], eax
  0081a	89 8d c8 fe ff
	ff		 mov	 DWORD PTR _MapAttrName$[ebp+304], ecx

; 570  : 		"terrain19.att",

  00820	89 8d d7 fe ff
	ff		 mov	 DWORD PTR _MapAttrName$[ebp+319], ecx

; 571  : 		"terrain19.att",

  00826	89 8d e6 fe ff
	ff		 mov	 DWORD PTR _MapAttrName$[ebp+334], ecx

; 572  : 		"terrain19.att",

  0082c	89 8d f5 fe ff
	ff		 mov	 DWORD PTR _MapAttrName$[ebp+349], ecx

; 573  : 		"terrain25.att",

  00832	8b 0d 04 00 00
	00		 mov	 ecx, DWORD PTR ??_C@_0O@CFGLJCFC@terrain25?4att?$AA@+4
  00838	89 95 cc fe ff
	ff		 mov	 DWORD PTR _MapAttrName$[ebp+308], edx
  0083e	89 85 d3 fe ff
	ff		 mov	 DWORD PTR _MapAttrName$[ebp+315], eax
  00844	89 95 db fe ff
	ff		 mov	 DWORD PTR _MapAttrName$[ebp+323], edx
  0084a	89 85 e2 fe ff
	ff		 mov	 DWORD PTR _MapAttrName$[ebp+330], eax
  00850	89 95 ea fe ff
	ff		 mov	 DWORD PTR _MapAttrName$[ebp+338], edx
  00856	89 85 f1 fe ff
	ff		 mov	 DWORD PTR _MapAttrName$[ebp+345], eax
  0085c	a1 00 00 00 00	 mov	 eax, DWORD PTR ??_C@_0O@CFGLJCFC@terrain25?4att?$AA@
  00861	89 95 f9 fe ff
	ff		 mov	 DWORD PTR _MapAttrName$[ebp+353], edx
  00867	8b 15 08 00 00
	00		 mov	 edx, DWORD PTR ??_C@_0O@CFGLJCFC@terrain25?4att?$AA@+8
  0086d	89 8d 04 ff ff
	ff		 mov	 DWORD PTR _MapAttrName$[ebp+364], ecx

; 574  : 		"terrain25.att",

  00873	89 8d 13 ff ff
	ff		 mov	 DWORD PTR _MapAttrName$[ebp+379], ecx

; 575  : 		"terrain25.att",

  00879	89 8d 22 ff ff
	ff		 mov	 DWORD PTR _MapAttrName$[ebp+394], ecx

; 576  : 		"terrain25.att",

  0087f	89 8d 31 ff ff
	ff		 mov	 DWORD PTR _MapAttrName$[ebp+409], ecx

; 577  : 		"terrain25.att",

  00885	89 8d 40 ff ff
	ff		 mov	 DWORD PTR _MapAttrName$[ebp+424], ecx

; 578  : 		"terrain25.att",

  0088b	89 8d 4f ff ff
	ff		 mov	 DWORD PTR _MapAttrName$[ebp+439], ecx

; 579  : 		"terrain31.att",

  00891	8b 0d 00 00 00
	00		 mov	 ecx, DWORD PTR ??_C@_0O@BIINNLPA@terrain31?4att?$AA@
  00897	89 85 00 ff ff
	ff		 mov	 DWORD PTR _MapAttrName$[ebp+360], eax
  0089d	89 95 08 ff ff
	ff		 mov	 DWORD PTR _MapAttrName$[ebp+368], edx
  008a3	89 85 0f ff ff
	ff		 mov	 DWORD PTR _MapAttrName$[ebp+375], eax
  008a9	89 95 17 ff ff
	ff		 mov	 DWORD PTR _MapAttrName$[ebp+383], edx
  008af	89 85 1e ff ff
	ff		 mov	 DWORD PTR _MapAttrName$[ebp+390], eax
  008b5	89 95 26 ff ff
	ff		 mov	 DWORD PTR _MapAttrName$[ebp+398], edx
  008bb	89 85 2d ff ff
	ff		 mov	 DWORD PTR _MapAttrName$[ebp+405], eax
  008c1	89 95 35 ff ff
	ff		 mov	 DWORD PTR _MapAttrName$[ebp+413], edx
  008c7	89 85 3c ff ff
	ff		 mov	 DWORD PTR _MapAttrName$[ebp+420], eax
  008cd	89 95 44 ff ff
	ff		 mov	 DWORD PTR _MapAttrName$[ebp+428], edx
  008d3	89 85 4b ff ff
	ff		 mov	 DWORD PTR _MapAttrName$[ebp+435], eax
  008d9	a1 08 00 00 00	 mov	 eax, DWORD PTR ??_C@_0O@BIINNLPA@terrain31?4att?$AA@+8
  008de	89 95 53 ff ff
	ff		 mov	 DWORD PTR _MapAttrName$[ebp+443], edx
  008e4	8b 15 04 00 00
	00		 mov	 edx, DWORD PTR ??_C@_0O@BIINNLPA@terrain31?4att?$AA@+4
  008ea	89 8d 5a ff ff
	ff		 mov	 DWORD PTR _MapAttrName$[ebp+450], ecx
  008f0	0f b7 0d 0c 00
	00 00		 movzx	 ecx, WORD PTR ??_C@_0O@BIINNLPA@terrain31?4att?$AA@+12
  008f7	89 95 5e ff ff
	ff		 mov	 DWORD PTR _MapAttrName$[ebp+454], edx

; 580  : 		"terrain32.att",

  008fd	8b 15 00 00 00
	00		 mov	 edx, DWORD PTR ??_C@_0O@JOBJKJFO@terrain32?4att?$AA@
  00903	89 85 62 ff ff
	ff		 mov	 DWORD PTR _MapAttrName$[ebp+458], eax
  00909	a1 04 00 00 00	 mov	 eax, DWORD PTR ??_C@_0O@JOBJKJFO@terrain32?4att?$AA@+4
  0090e	66 89 8d 66 ff
	ff ff		 mov	 WORD PTR _MapAttrName$[ebp+462], cx
  00915	8b 0d 08 00 00
	00		 mov	 ecx, DWORD PTR ??_C@_0O@JOBJKJFO@terrain32?4att?$AA@+8
  0091b	89 95 69 ff ff
	ff		 mov	 DWORD PTR _MapAttrName$[ebp+465], edx
  00921	0f b7 15 0c 00
	00 00		 movzx	 edx, WORD PTR ??_C@_0O@JOBJKJFO@terrain32?4att?$AA@+12
  00928	89 85 6d ff ff
	ff		 mov	 DWORD PTR _MapAttrName$[ebp+469], eax

; 581  : 		"terrain33.att",

  0092e	a1 00 00 00 00	 mov	 eax, DWORD PTR ??_C@_0O@FFEFHKPL@terrain33?4att?$AA@
  00933	89 8d 71 ff ff
	ff		 mov	 DWORD PTR _MapAttrName$[ebp+473], ecx
  00939	8b 0d 04 00 00
	00		 mov	 ecx, DWORD PTR ??_C@_0O@FFEFHKPL@terrain33?4att?$AA@+4
  0093f	89 85 78 ff ff
	ff		 mov	 DWORD PTR _MapAttrName$[ebp+480], eax
  00945	0f b7 05 0c 00
	00 00		 movzx	 eax, WORD PTR ??_C@_0O@FFEFHKPL@terrain33?4att?$AA@+12
  0094c	66 89 b5 d0 fe
	ff ff		 mov	 WORD PTR _MapAttrName$[ebp+312], si
  00953	66 89 b5 df fe
	ff ff		 mov	 WORD PTR _MapAttrName$[ebp+327], si
  0095a	66 89 b5 ee fe
	ff ff		 mov	 WORD PTR _MapAttrName$[ebp+342], si
  00961	66 89 b5 fd fe
	ff ff		 mov	 WORD PTR _MapAttrName$[ebp+357], si
  00968	66 8b 35 0c 00
	00 00		 mov	 si, WORD PTR ??_C@_0O@CFGLJCFC@terrain25?4att?$AA@+12
  0096f	66 89 95 75 ff
	ff ff		 mov	 WORD PTR _MapAttrName$[ebp+477], dx
  00976	8b 15 08 00 00
	00		 mov	 edx, DWORD PTR ??_C@_0O@FFEFHKPL@terrain33?4att?$AA@+8
  0097c	89 8d 7c ff ff
	ff		 mov	 DWORD PTR _MapAttrName$[ebp+484], ecx

; 582  : 		"terrain34.att",

  00982	8b 0d 00 00 00
	00		 mov	 ecx, DWORD PTR ??_C@_0O@EIEAEKED@terrain34?4att?$AA@
  00988	88 9d d2 fe ff
	ff		 mov	 BYTE PTR _MapAttrName$[ebp+314], bl
  0098e	88 9d e1 fe ff
	ff		 mov	 BYTE PTR _MapAttrName$[ebp+329], bl
  00994	88 9d f0 fe ff
	ff		 mov	 BYTE PTR _MapAttrName$[ebp+344], bl
  0099a	88 9d ff fe ff
	ff		 mov	 BYTE PTR _MapAttrName$[ebp+359], bl
  009a0	66 89 b5 0c ff
	ff ff		 mov	 WORD PTR _MapAttrName$[ebp+372], si
  009a7	88 9d 0e ff ff
	ff		 mov	 BYTE PTR _MapAttrName$[ebp+374], bl
  009ad	66 89 b5 1b ff
	ff ff		 mov	 WORD PTR _MapAttrName$[ebp+387], si
  009b4	88 9d 1d ff ff
	ff		 mov	 BYTE PTR _MapAttrName$[ebp+389], bl
  009ba	66 89 b5 2a ff
	ff ff		 mov	 WORD PTR _MapAttrName$[ebp+402], si
  009c1	88 9d 2c ff ff
	ff		 mov	 BYTE PTR _MapAttrName$[ebp+404], bl
  009c7	66 89 b5 39 ff
	ff ff		 mov	 WORD PTR _MapAttrName$[ebp+417], si
  009ce	88 9d 3b ff ff
	ff		 mov	 BYTE PTR _MapAttrName$[ebp+419], bl
  009d4	66 89 b5 48 ff
	ff ff		 mov	 WORD PTR _MapAttrName$[ebp+432], si
  009db	88 9d 4a ff ff
	ff		 mov	 BYTE PTR _MapAttrName$[ebp+434], bl
  009e1	66 89 b5 57 ff
	ff ff		 mov	 WORD PTR _MapAttrName$[ebp+447], si
  009e8	88 9d 59 ff ff
	ff		 mov	 BYTE PTR _MapAttrName$[ebp+449], bl
  009ee	88 9d 68 ff ff
	ff		 mov	 BYTE PTR _MapAttrName$[ebp+464], bl
  009f4	88 9d 77 ff ff
	ff		 mov	 BYTE PTR _MapAttrName$[ebp+479], bl
  009fa	89 55 80	 mov	 DWORD PTR _MapAttrName$[ebp+488], edx
  009fd	66 89 45 84	 mov	 WORD PTR _MapAttrName$[ebp+492], ax
  00a01	88 5d 86	 mov	 BYTE PTR _MapAttrName$[ebp+494], bl
  00a04	8b 15 04 00 00
	00		 mov	 edx, DWORD PTR ??_C@_0O@EIEAEKED@terrain34?4att?$AA@+4
  00a0a	a1 08 00 00 00	 mov	 eax, DWORD PTR ??_C@_0O@EIEAEKED@terrain34?4att?$AA@+8
  00a0f	89 4d 87	 mov	 DWORD PTR _MapAttrName$[ebp+495], ecx
  00a12	0f b7 0d 0c 00
	00 00		 movzx	 ecx, WORD PTR ??_C@_0O@EIEAEKED@terrain34?4att?$AA@+12
  00a19	89 55 8b	 mov	 DWORD PTR _MapAttrName$[ebp+499], edx

; 583  : 		"terrain35.att",

  00a1c	8b 15 00 00 00
	00		 mov	 edx, DWORD PTR ??_C@_0O@IDBMJJOG@terrain35?4att?$AA@
  00a22	89 45 8f	 mov	 DWORD PTR _MapAttrName$[ebp+503], eax
  00a25	a1 04 00 00 00	 mov	 eax, DWORD PTR ??_C@_0O@IDBMJJOG@terrain35?4att?$AA@+4
  00a2a	66 89 4d 93	 mov	 WORD PTR _MapAttrName$[ebp+507], cx
  00a2e	8b 0d 08 00 00
	00		 mov	 ecx, DWORD PTR ??_C@_0O@IDBMJJOG@terrain35?4att?$AA@+8
  00a34	89 55 96	 mov	 DWORD PTR _MapAttrName$[ebp+510], edx
  00a37	0f b7 15 0c 00
	00 00		 movzx	 edx, WORD PTR ??_C@_0O@IDBMJJOG@terrain35?4att?$AA@+12
  00a3e	89 45 9a	 mov	 DWORD PTR _MapAttrName$[ebp+514], eax

; 584  : 		"terrain36.att",

  00a41	a1 00 00 00 00	 mov	 eax, DWORD PTR ??_C@_0O@FIIOLEI@terrain36?4att?$AA@
  00a46	89 4d 9e	 mov	 DWORD PTR _MapAttrName$[ebp+518], ecx
  00a49	8b 0d 04 00 00
	00		 mov	 ecx, DWORD PTR ??_C@_0O@FIIOLEI@terrain36?4att?$AA@+4
  00a4f	89 45 a5	 mov	 DWORD PTR _MapAttrName$[ebp+525], eax
  00a52	0f b7 05 0c 00
	00 00		 movzx	 eax, WORD PTR ??_C@_0O@FIIOLEI@terrain36?4att?$AA@+12
  00a59	89 4d a9	 mov	 DWORD PTR _MapAttrName$[ebp+529], ecx

; 585  : 		"terrain37.att",

  00a5c	8b 0d 00 00 00
	00		 mov	 ecx, DWORD PTR ??_C@_0O@MONEDION@terrain37?4att?$AA@
  00a62	66 89 55 a2	 mov	 WORD PTR _MapAttrName$[ebp+522], dx
  00a66	8b 15 08 00 00
	00		 mov	 edx, DWORD PTR ??_C@_0O@FIIOLEI@terrain36?4att?$AA@+8
  00a6c	89 4d b4	 mov	 DWORD PTR _MapAttrName$[ebp+540], ecx
  00a6f	0f b7 0d 0c 00
	00 00		 movzx	 ecx, WORD PTR ??_C@_0O@MONEDION@terrain37?4att?$AA@+12
  00a76	89 55 ad	 mov	 DWORD PTR _MapAttrName$[ebp+533], edx
  00a79	8b 15 04 00 00
	00		 mov	 edx, DWORD PTR ??_C@_0O@MONEDION@terrain37?4att?$AA@+4
  00a7f	66 89 45 b1	 mov	 WORD PTR _MapAttrName$[ebp+537], ax
  00a83	a1 08 00 00 00	 mov	 eax, DWORD PTR ??_C@_0O@MONEDION@terrain37?4att?$AA@+8
  00a88	89 55 b8	 mov	 DWORD PTR _MapAttrName$[ebp+544], edx

; 586  : 		"terrain38.att",

  00a8b	8b 15 00 00 00
	00		 mov	 edx, DWORD PTR ??_C@_0O@DPICIKDI@terrain38?4att?$AA@
  00a91	89 45 bc	 mov	 DWORD PTR _MapAttrName$[ebp+548], eax
  00a94	a1 04 00 00 00	 mov	 eax, DWORD PTR ??_C@_0O@DPICIKDI@terrain38?4att?$AA@+4
  00a99	66 89 4d c0	 mov	 WORD PTR _MapAttrName$[ebp+552], cx
  00a9d	8b 0d 08 00 00
	00		 mov	 ecx, DWORD PTR ??_C@_0O@DPICIKDI@terrain38?4att?$AA@+8
  00aa3	89 55 c3	 mov	 DWORD PTR _MapAttrName$[ebp+555], edx
  00aa6	0f b7 15 0c 00
	00 00		 movzx	 edx, WORD PTR ??_C@_0O@DPICIKDI@terrain38?4att?$AA@+12
  00aad	89 45 c7	 mov	 DWORD PTR _MapAttrName$[ebp+559], eax

; 587  : 		"terrain39.att",

  00ab0	a1 00 00 00 00	 mov	 eax, DWORD PTR ??_C@_0O@PENOFJJN@terrain39?4att?$AA@
  00ab5	89 4d cb	 mov	 DWORD PTR _MapAttrName$[ebp+563], ecx
  00ab8	8b 0d 04 00 00
	00		 mov	 ecx, DWORD PTR ??_C@_0O@PENOFJJN@terrain39?4att?$AA@+4
  00abe	89 45 d2	 mov	 DWORD PTR _MapAttrName$[ebp+570], eax
  00ac1	0f b7 05 0c 00
	00 00		 movzx	 eax, WORD PTR ??_C@_0O@PENOFJJN@terrain39?4att?$AA@+12
  00ac8	89 4d d6	 mov	 DWORD PTR _MapAttrName$[ebp+574], ecx

; 588  : 		"terrain40.att"
; 589  : 	};

  00acb	8b 0d 00 00 00
	00		 mov	 ecx, DWORD PTR ??_C@_0O@BGHGDGNL@terrain40?4att?$AA@
  00ad1	66 89 55 cf	 mov	 WORD PTR _MapAttrName$[ebp+567], dx
  00ad5	8b 15 08 00 00
	00		 mov	 edx, DWORD PTR ??_C@_0O@PENOFJJN@terrain39?4att?$AA@+8
  00adb	89 4d e1	 mov	 DWORD PTR _MapAttrName$[ebp+585], ecx
  00ade	0f b7 0d 0c 00
	00 00		 movzx	 ecx, WORD PTR ??_C@_0O@BGHGDGNL@terrain40?4att?$AA@+12
  00ae5	89 55 da	 mov	 DWORD PTR _MapAttrName$[ebp+578], edx
  00ae8	8b 15 04 00 00
	00		 mov	 edx, DWORD PTR ??_C@_0O@BGHGDGNL@terrain40?4att?$AA@+4
  00aee	66 89 45 de	 mov	 WORD PTR _MapAttrName$[ebp+582], ax
  00af2	a1 08 00 00 00	 mov	 eax, DWORD PTR ??_C@_0O@BGHGDGNL@terrain40?4att?$AA@+8
  00af7	88 5d 95	 mov	 BYTE PTR _MapAttrName$[ebp+509], bl
  00afa	88 5d a4	 mov	 BYTE PTR _MapAttrName$[ebp+524], bl
  00afd	88 5d b3	 mov	 BYTE PTR _MapAttrName$[ebp+539], bl
  00b00	88 5d c2	 mov	 BYTE PTR _MapAttrName$[ebp+554], bl
  00b03	88 5d d1	 mov	 BYTE PTR _MapAttrName$[ebp+569], bl
  00b06	88 5d e0	 mov	 BYTE PTR _MapAttrName$[ebp+584], bl
  00b09	89 55 e5	 mov	 DWORD PTR _MapAttrName$[ebp+589], edx
  00b0c	89 45 e9	 mov	 DWORD PTR _MapAttrName$[ebp+593], eax
  00b0f	66 89 4d ed	 mov	 WORD PTR _MapAttrName$[ebp+597], cx
  00b13	88 5d ef	 mov	 BYTE PTR _MapAttrName$[ebp+599], bl
  00b16	be 00 00 00 00	 mov	 esi, OFFSET ?MapC@@3PAVMapClass@@A ; MapC
  00b1b	8d bd 98 fd ff
	ff		 lea	 edi, DWORD PTR _MapAttrName$[ebp]
$LL3@GameMainIn:

; 590  : 	// ---
; 591  : 	for(int i = 0; i < MAX_NUMBER_MAP; i++)
; 592  : 	{
; 593  : 		MapC[i].ItemInit();

  00b21	8b ce		 mov	 ecx, esi
  00b23	e8 00 00 00 00	 call	 ?ItemInit@MapClass@@QAEXXZ ; MapClass::ItemInit

; 594  : 		MapC[i].LoadMapAttr(gDirPath.GetNewPath(MapAttrName[i]), i);

  00b28	53		 push	 ebx
  00b29	57		 push	 edi
  00b2a	b9 00 00 00 00	 mov	 ecx, OFFSET ?gDirPath@@3VCDirPath@@A ; gDirPath
  00b2f	e8 00 00 00 00	 call	 ?GetNewPath@CDirPath@@QAEPADPAD@Z ; CDirPath::GetNewPath
  00b34	50		 push	 eax
  00b35	8b ce		 mov	 ecx, esi
  00b37	e8 00 00 00 00	 call	 ?LoadMapAttr@MapClass@@QAEXPADH@Z ; MapClass::LoadMapAttr
  00b3c	81 c6 08 07 05
	00		 add	 esi, 329480		; 00050708H
  00b42	43		 inc	 ebx
  00b43	83 c7 0f	 add	 edi, 15			; 0000000fH
  00b46	81 fe 40 19 c9
	00		 cmp	 esi, OFFSET ?MapC@@3PAVMapClass@@A+13179200
  00b4c	7c d3		 jl	 SHORT $LL3@GameMainIn

; 595  : 	}
; 596  : 	// ---
; 597  : 	DCInfo.Init();

  00b4e	b9 00 00 00 00	 mov	 ecx, OFFSET ?DCInfo@@3Vclassdef@@A ; DCInfo
  00b53	e8 00 00 00 00	 call	 ?Init@classdef@@QAEXXZ	; classdef::Init

; 598  : 	// ---
; 599  : 	ShopDataLoad();

  00b58	e8 00 00 00 00	 call	 ?ShopDataLoad@@YAHXZ	; ShopDataLoad

; 600  : 	// ---
; 601  : 	wsGServer.CreateSocket(hWnd);

  00b5d	8b b5 8c fd ff
	ff		 mov	 esi, DWORD PTR _hWnd$GSCopy$[ebp]
  00b63	56		 push	 esi
  00b64	b9 04 00 00 00	 mov	 ecx, OFFSET ?wsGServer@@3VCwsGameServer@@A+4
  00b69	e8 00 00 00 00	 call	 ?CreateSocket@MyWinsockBase@@QAEHPAUHWND__@@@Z ; MyWinsockBase::CreateSocket

; 602  : 	wsJServerCli.CreateSocket(hWnd);

  00b6e	56		 push	 esi
  00b6f	b9 04 00 00 00	 mov	 ecx, OFFSET ?wsJServerCli@@3VwsJoinServerCli@@A+4
  00b74	e8 00 00 00 00	 call	 ?CreateSocket@MyWinsockBase@@QAEHPAUHWND__@@@Z ; MyWinsockBase::CreateSocket

; 603  : 	wsDataCli.CreateSocket(hWnd);

  00b79	56		 push	 esi
  00b7a	b9 04 00 00 00	 mov	 ecx, OFFSET ?wsDataCli@@3VwsJoinServerCli@@A+4
  00b7f	e8 00 00 00 00	 call	 ?CreateSocket@MyWinsockBase@@QAEHPAUHWND__@@@Z ; MyWinsockBase::CreateSocket

; 604  : 	wsRServerCli.CreateSocket(hWnd);

  00b84	56		 push	 esi
  00b85	b9 04 00 00 00	 mov	 ecx, OFFSET ?wsRServerCli@@3VwsJoinServerCli@@A+4
  00b8a	e8 00 00 00 00	 call	 ?CreateSocket@MyWinsockBase@@QAEHPAUHWND__@@@Z ; MyWinsockBase::CreateSocket

; 605  : 	wsEvenChipServerCli.CreateSocket(hWnd);

  00b8f	56		 push	 esi
  00b90	b9 04 00 00 00	 mov	 ecx, OFFSET ?wsEvenChipServerCli@@3VwsJoinServerCli@@A+4
  00b95	e8 00 00 00 00	 call	 ?CreateSocket@MyWinsockBase@@QAEHPAUHWND__@@@Z ; MyWinsockBase::CreateSocket

; 606  : 	// ---
; 607  : 	GameServerInfoSend();

  00b9a	e8 00 00 00 00	 call	 ?GameServerInfoSend@@YAXXZ ; GameServerInfoSend

; 608  : 	// ---
; 609  : 	GameMonsterAllAdd();

  00b9f	e8 00 00 00 00	 call	 ?GameMonsterAllAdd@@YAXXZ ; GameMonsterAllAdd

; 610  : 	// ---
; 611  : 	acceptIP.Load(gDirPath.GetNewPath("Iplist.dat"));

  00ba4	68 00 00 00 00	 push	 OFFSET ??_C@_0L@DPAHEMHE@Iplist?4dat?$AA@
  00ba9	b9 00 00 00 00	 mov	 ecx, OFFSET ?gDirPath@@3VCDirPath@@A ; gDirPath
  00bae	e8 00 00 00 00	 call	 ?GetNewPath@CDirPath@@QAEPADPAD@Z ; CDirPath::GetNewPath
  00bb3	50		 push	 eax
  00bb4	b9 00 00 00 00	 mov	 ecx, OFFSET ?acceptIP@@3VCAcceptIp@@A ; acceptIP
  00bb9	e8 00 00 00 00	 call	 ?Load@CAcceptIp@@QAEXPAD@Z ; CAcceptIp::Load

; 612  : 	// ---
; 613  : 	ConMember.Load(gDirPath.GetNewPath("ConnectMember.txt"));

  00bbe	68 00 00 00 00	 push	 OFFSET ??_C@_0BC@FGIEIEFL@ConnectMember?4txt?$AA@
  00bc3	b9 00 00 00 00	 mov	 ecx, OFFSET ?gDirPath@@3VCDirPath@@A ; gDirPath
  00bc8	e8 00 00 00 00	 call	 ?GetNewPath@CDirPath@@QAEPADPAD@Z ; CDirPath::GetNewPath
  00bcd	50		 push	 eax
  00bce	b9 00 00 00 00	 mov	 ecx, OFFSET ?ConMember@@3VCConMember@@A ; ConMember
  00bd3	e8 00 00 00 00	 call	 ?Load@CConMember@@QAEXPAD@Z ; CConMember::Load

; 614  : 	// ---
; 615  : 	GCTeleportSend(gObj, 1, 1, 1, 2, 3);

  00bd8	6a 03		 push	 3
  00bda	6a 02		 push	 2
  00bdc	6a 01		 push	 1
  00bde	6a 01		 push	 1
  00be0	6a 01		 push	 1
  00be2	68 00 00 00 00	 push	 OFFSET ?gObj@@3PAUOBJECTSTRUCT@@A ; gObj
  00be7	e8 00 00 00 00	 call	 ?GCTeleportSend@@YAXPAUOBJECTSTRUCT@@HEEEE@Z ; GCTeleportSend
  00bec	83 c4 18	 add	 esp, 24			; 00000018H
$LN14@GameMainIn:

; 616  : }

  00bef	8b 4d f4	 mov	 ecx, DWORD PTR __$EHRec$[ebp]
  00bf2	64 89 0d 00 00
	00 00		 mov	 DWORD PTR fs:0, ecx
  00bf9	59		 pop	 ecx
  00bfa	5f		 pop	 edi
  00bfb	5e		 pop	 esi
  00bfc	5b		 pop	 ebx
  00bfd	8b 4d f0	 mov	 ecx, DWORD PTR __$ArrayPad$[ebp]
  00c00	33 cd		 xor	 ecx, ebp
  00c02	e8 00 00 00 00	 call	 @__security_check_cookie@4
  00c07	8b e5		 mov	 esp, ebp
  00c09	5d		 pop	 ebp
  00c0a	c3		 ret	 0
_TEXT	ENDS
;	COMDAT text$x
text$x	SEGMENT
__unwindfunclet$?GameMainInit@@YAXPAUHWND__@@@Z$0:
  00000	8b 85 90 fd ff
	ff		 mov	 eax, DWORD PTR $T164215[ebp]
  00006	50		 push	 eax
  00007	e8 00 00 00 00	 call	 ??3@YAXPAX@Z		; operator delete
  0000c	59		 pop	 ecx
  0000d	c3		 ret	 0
__unwindfunclet$?GameMainInit@@YAXPAUHWND__@@@Z$1:
  0000e	8b 85 90 fd ff
	ff		 mov	 eax, DWORD PTR $T164219[ebp]
  00014	50		 push	 eax
  00015	e8 00 00 00 00	 call	 ??3@YAXPAX@Z		; operator delete
  0001a	59		 pop	 ecx
  0001b	c3		 ret	 0
__ehhandler$?GameMainInit@@YAXPAUHWND__@@@Z:
  0001c	8b 54 24 08	 mov	 edx, DWORD PTR [esp+8]
  00020	8d 42 0c	 lea	 eax, DWORD PTR [edx+12]
  00023	8b 8a 88 fd ff
	ff		 mov	 ecx, DWORD PTR [edx-632]
  00029	33 c8		 xor	 ecx, eax
  0002b	e8 00 00 00 00	 call	 @__security_check_cookie@4
  00030	8b 4a fc	 mov	 ecx, DWORD PTR [edx-4]
  00033	33 c8		 xor	 ecx, eax
  00035	e8 00 00 00 00	 call	 @__security_check_cookie@4
  0003a	b8 00 00 00 00	 mov	 eax, OFFSET __ehfuncinfo$?GameMainInit@@YAXPAUHWND__@@@Z
  0003f	e9 00 00 00 00	 jmp	 ___CxxFrameHandler3
text$x	ENDS
?GameMainInit@@YAXPAUHWND__@@@Z ENDP			; GameMainInit
EXTRN	_atexit:PROC
EXTRN	??0CwsGameServer@@QAE@XZ:PROC			; CwsGameServer::CwsGameServer
; Function compile flags: /Ogtp
;	COMDAT ??__EwsGServer@@YAXXZ
text$yc	SEGMENT
??__EwsGServer@@YAXXZ PROC				; `dynamic initializer for 'wsGServer'', COMDAT

; 168  : CwsGameServer wsGServer;	// line : 213GameServer

  00000	b9 00 00 00 00	 mov	 ecx, OFFSET ?wsGServer@@3VCwsGameServer@@A ; wsGServer
  00005	e8 00 00 00 00	 call	 ??0CwsGameServer@@QAE@XZ ; CwsGameServer::CwsGameServer
  0000a	68 00 00 00 00	 push	 OFFSET ??__FwsGServer@@YAXXZ ; `dynamic atexit destructor for 'wsGServer''
  0000f	e8 00 00 00 00	 call	 _atexit
  00014	59		 pop	 ecx
  00015	c3		 ret	 0
??__EwsGServer@@YAXXZ ENDP				; `dynamic initializer for 'wsGServer''
text$yc	ENDS
EXTRN	??0wsJoinServerCli@@QAE@XZ:PROC			; wsJoinServerCli::wsJoinServerCli
; Function compile flags: /Ogtp
;	COMDAT ??__EwsJServerCli@@YAXXZ
text$yc	SEGMENT
??__EwsJServerCli@@YAXXZ PROC				; `dynamic initializer for 'wsJServerCli'', COMDAT

; 169  : wsJoinServerCli wsJServerCli;	// line : 214 Join Server

  00000	b9 00 00 00 00	 mov	 ecx, OFFSET ?wsJServerCli@@3VwsJoinServerCli@@A ; wsJServerCli
  00005	e8 00 00 00 00	 call	 ??0wsJoinServerCli@@QAE@XZ ; wsJoinServerCli::wsJoinServerCli
  0000a	68 00 00 00 00	 push	 OFFSET ??__FwsJServerCli@@YAXXZ ; `dynamic atexit destructor for 'wsJServerCli''
  0000f	e8 00 00 00 00	 call	 _atexit
  00014	59		 pop	 ecx
  00015	c3		 ret	 0
??__EwsJServerCli@@YAXXZ ENDP				; `dynamic initializer for 'wsJServerCli''
; Function compile flags: /Ogtp
text$yc	ENDS
;	COMDAT ??__EwsDataCli@@YAXXZ
text$yc	SEGMENT
??__EwsDataCli@@YAXXZ PROC				; `dynamic initializer for 'wsDataCli'', COMDAT

; 170  : wsJoinServerCli wsDataCli;	// line : 215 DataServer

  00000	b9 00 00 00 00	 mov	 ecx, OFFSET ?wsDataCli@@3VwsJoinServerCli@@A ; wsDataCli
  00005	e8 00 00 00 00	 call	 ??0wsJoinServerCli@@QAE@XZ ; wsJoinServerCli::wsJoinServerCli
  0000a	68 00 00 00 00	 push	 OFFSET ??__FwsDataCli@@YAXXZ ; `dynamic atexit destructor for 'wsDataCli''
  0000f	e8 00 00 00 00	 call	 _atexit
  00014	59		 pop	 ecx
  00015	c3		 ret	 0
??__EwsDataCli@@YAXXZ ENDP				; `dynamic initializer for 'wsDataCli''
; Function compile flags: /Ogtp
text$yc	ENDS
;	COMDAT ??__EwsExDbCli@@YAXXZ
text$yc	SEGMENT
??__EwsExDbCli@@YAXXZ PROC				; `dynamic initializer for 'wsExDbCli'', COMDAT

; 171  : wsJoinServerCli wsExDbCli;	// line : 239 Extra DataBase Server

  00000	b9 00 00 00 00	 mov	 ecx, OFFSET ?wsExDbCli@@3VwsJoinServerCli@@A ; wsExDbCli
  00005	e8 00 00 00 00	 call	 ??0wsJoinServerCli@@QAE@XZ ; wsJoinServerCli::wsJoinServerCli
  0000a	68 00 00 00 00	 push	 OFFSET ??__FwsExDbCli@@YAXXZ ; `dynamic atexit destructor for 'wsExDbCli''
  0000f	e8 00 00 00 00	 call	 _atexit
  00014	59		 pop	 ecx
  00015	c3		 ret	 0
??__EwsExDbCli@@YAXXZ ENDP				; `dynamic initializer for 'wsExDbCli''
; Function compile flags: /Ogtp
text$yc	ENDS
;	COMDAT ??__EwsRServerCli@@YAXXZ
text$yc	SEGMENT
??__EwsRServerCli@@YAXXZ PROC				; `dynamic initializer for 'wsRServerCli'', COMDAT

; 172  : wsJoinServerCli wsRServerCli;	// line : 244 Ranking Server

  00000	b9 00 00 00 00	 mov	 ecx, OFFSET ?wsRServerCli@@3VwsJoinServerCli@@A ; wsRServerCli
  00005	e8 00 00 00 00	 call	 ??0wsJoinServerCli@@QAE@XZ ; wsJoinServerCli::wsJoinServerCli
  0000a	68 00 00 00 00	 push	 OFFSET ??__FwsRServerCli@@YAXXZ ; `dynamic atexit destructor for 'wsRServerCli''
  0000f	e8 00 00 00 00	 call	 _atexit
  00014	59		 pop	 ecx
  00015	c3		 ret	 0
??__EwsRServerCli@@YAXXZ ENDP				; `dynamic initializer for 'wsRServerCli''
; Function compile flags: /Ogtp
text$yc	ENDS
;	COMDAT ??__EwsEvenChipServerCli@@YAXXZ
text$yc	SEGMENT
??__EwsEvenChipServerCli@@YAXXZ PROC			; `dynamic initializer for 'wsEvenChipServerCli'', COMDAT

; 173  : wsJoinServerCli wsEvenChipServerCli; // line : 246 EVENT_MU2003

  00000	b9 00 00 00 00	 mov	 ecx, OFFSET ?wsEvenChipServerCli@@3VwsJoinServerCli@@A ; wsEvenChipServerCli
  00005	e8 00 00 00 00	 call	 ??0wsJoinServerCli@@QAE@XZ ; wsJoinServerCli::wsJoinServerCli
  0000a	68 00 00 00 00	 push	 OFFSET ??__FwsEvenChipServerCli@@YAXXZ ; `dynamic atexit destructor for 'wsEvenChipServerCli''
  0000f	e8 00 00 00 00	 call	 _atexit
  00014	59		 pop	 ecx
  00015	c3		 ret	 0
??__EwsEvenChipServerCli@@YAXXZ ENDP			; `dynamic initializer for 'wsEvenChipServerCli''
text$yc	ENDS
EXTRN	??0CDirPath@@QAE@XZ:PROC			; CDirPath::CDirPath
; Function compile flags: /Ogtp
;	COMDAT ??__EgDirPath@@YAXXZ
text$yc	SEGMENT
??__EgDirPath@@YAXXZ PROC				; `dynamic initializer for 'gDirPath'', COMDAT

; 175  : CDirPath gDirPath;	// line : 248 Directory Path

  00000	b9 00 00 00 00	 mov	 ecx, OFFSET ?gDirPath@@3VCDirPath@@A ; gDirPath
  00005	e8 00 00 00 00	 call	 ??0CDirPath@@QAE@XZ	; CDirPath::CDirPath
  0000a	68 00 00 00 00	 push	 OFFSET ??__FgDirPath@@YAXXZ ; `dynamic atexit destructor for 'gDirPath''
  0000f	e8 00 00 00 00	 call	 _atexit
  00014	59		 pop	 ecx
  00015	c3		 ret	 0
??__EgDirPath@@YAXXZ ENDP				; `dynamic initializer for 'gDirPath''
text$yc	ENDS
EXTRN	??_L@YGXPAXIHP6EX0@Z1@Z:PROC			; `eh vector constructor iterator'
EXTRN	??0MapClass@@QAE@XZ:PROC			; MapClass::MapClass
EXTRN	??1MapClass@@UAE@XZ:PROC			; MapClass::~MapClass
; Function compile flags: /Ogtp
;	COMDAT ??__EMapC@@YAXXZ
text$yc	SEGMENT
??__EMapC@@YAXXZ PROC					; `dynamic initializer for 'MapC'', COMDAT

; 176  : MapClass MapC[MAX_NUMBER_MAP];	// line 249	// Map Manager

  00000	68 00 00 00 00	 push	 OFFSET ??1MapClass@@UAE@XZ ; MapClass::~MapClass
  00005	68 00 00 00 00	 push	 OFFSET ??0MapClass@@QAE@XZ ; MapClass::MapClass
  0000a	6a 28		 push	 40			; 00000028H
  0000c	68 08 07 05 00	 push	 329480			; 00050708H
  00011	68 00 00 00 00	 push	 OFFSET ?MapC@@3PAVMapClass@@A ; MapC
  00016	e8 00 00 00 00	 call	 ??_L@YGXPAXIHP6EX0@Z1@Z
  0001b	68 00 00 00 00	 push	 OFFSET ??__FMapC@@YAXXZ	; `dynamic atexit destructor for 'MapC''
  00020	e8 00 00 00 00	 call	 _atexit
  00025	59		 pop	 ecx
  00026	c3		 ret	 0
??__EMapC@@YAXXZ ENDP					; `dynamic initializer for 'MapC''
text$yc	ENDS
EXTRN	??0CMonsterAttr@@QAE@XZ:PROC			; CMonsterAttr::CMonsterAttr
; Function compile flags: /Ogtp
;	COMDAT ??__EgMAttr@@YAXXZ
text$yc	SEGMENT
??__EgMAttr@@YAXXZ PROC					; `dynamic initializer for 'gMAttr'', COMDAT

; 177  : CMonsterAttr gMAttr;	// line 250

  00000	b9 00 00 00 00	 mov	 ecx, OFFSET ?gMAttr@@3VCMonsterAttr@@A ; gMAttr
  00005	e8 00 00 00 00	 call	 ??0CMonsterAttr@@QAE@XZ	; CMonsterAttr::CMonsterAttr
  0000a	68 00 00 00 00	 push	 OFFSET ??__FgMAttr@@YAXXZ ; `dynamic atexit destructor for 'gMAttr''
  0000f	e8 00 00 00 00	 call	 _atexit
  00014	59		 pop	 ecx
  00015	c3		 ret	 0
??__EgMAttr@@YAXXZ ENDP					; `dynamic initializer for 'gMAttr''
text$yc	ENDS
EXTRN	??0CMonsterSetBase@@QAE@XZ:PROC			; CMonsterSetBase::CMonsterSetBase
; Function compile flags: /Ogtp
;	COMDAT ??__EgMSetBase@@YAXXZ
text$yc	SEGMENT
??__EgMSetBase@@YAXXZ PROC				; `dynamic initializer for 'gMSetBase'', COMDAT

; 178  : CMonsterSetBase gMSetBase;	// line 251

  00000	b9 00 00 00 00	 mov	 ecx, OFFSET ?gMSetBase@@3VCMonsterSetBase@@A ; gMSetBase
  00005	e8 00 00 00 00	 call	 ??0CMonsterSetBase@@QAE@XZ ; CMonsterSetBase::CMonsterSetBase
  0000a	68 00 00 00 00	 push	 OFFSET ??__FgMSetBase@@YAXXZ ; `dynamic atexit destructor for 'gMSetBase''
  0000f	e8 00 00 00 00	 call	 _atexit
  00014	59		 pop	 ecx
  00015	c3		 ret	 0
??__EgMSetBase@@YAXXZ ENDP				; `dynamic initializer for 'gMSetBase''
text$yc	ENDS
EXTRN	??0classdef@@QAE@XZ:PROC			; classdef::classdef
; Function compile flags: /Ogtp
;	COMDAT ??__EDCInfo@@YAXXZ
text$yc	SEGMENT
??__EDCInfo@@YAXXZ PROC					; `dynamic initializer for 'DCInfo'', COMDAT

; 179  : classdef DCInfo;	// line 252:

  00000	b9 00 00 00 00	 mov	 ecx, OFFSET ?DCInfo@@3Vclassdef@@A ; DCInfo
  00005	e8 00 00 00 00	 call	 ??0classdef@@QAE@XZ	; classdef::classdef
  0000a	68 00 00 00 00	 push	 OFFSET ??__FDCInfo@@YAXXZ ; `dynamic atexit destructor for 'DCInfo''
  0000f	e8 00 00 00 00	 call	 _atexit
  00014	59		 pop	 ecx
  00015	c3		 ret	 0
??__EDCInfo@@YAXXZ ENDP					; `dynamic initializer for 'DCInfo''
text$yc	ENDS
EXTRN	??0CWhisperCash@@QAE@XZ:PROC			; CWhisperCash::CWhisperCash
; Function compile flags: /Ogtp
;	COMDAT ??__EWhisperCash@@YAXXZ
text$yc	SEGMENT
??__EWhisperCash@@YAXXZ PROC				; `dynamic initializer for 'WhisperCash'', COMDAT

; 180  : CWhisperCash WhisperCash;	// line 253

  00000	b9 00 00 00 00	 mov	 ecx, OFFSET ?WhisperCash@@3VCWhisperCash@@A ; WhisperCash
  00005	e8 00 00 00 00	 call	 ??0CWhisperCash@@QAE@XZ	; CWhisperCash::CWhisperCash
  0000a	68 00 00 00 00	 push	 OFFSET ??__FWhisperCash@@YAXXZ ; `dynamic atexit destructor for 'WhisperCash''
  0000f	e8 00 00 00 00	 call	 _atexit
  00014	59		 pop	 ecx
  00015	c3		 ret	 0
??__EWhisperCash@@YAXXZ ENDP				; `dynamic initializer for 'WhisperCash''
text$yc	ENDS
EXTRN	??0PartyClass@@QAE@XZ:PROC			; PartyClass::PartyClass
; Function compile flags: /Ogtp
;	COMDAT ??__EgParty@@YAXXZ
text$yc	SEGMENT
??__EgParty@@YAXXZ PROC					; `dynamic initializer for 'gParty'', COMDAT

; 181  : PartyClass gParty;	// line 254

  00000	b9 00 00 00 00	 mov	 ecx, OFFSET ?gParty@@3VPartyClass@@A ; gParty
  00005	e8 00 00 00 00	 call	 ??0PartyClass@@QAE@XZ	; PartyClass::PartyClass
  0000a	68 00 00 00 00	 push	 OFFSET ??__FgParty@@YAXXZ ; `dynamic atexit destructor for 'gParty''
  0000f	e8 00 00 00 00	 call	 _atexit
  00014	59		 pop	 ecx
  00015	c3		 ret	 0
??__EgParty@@YAXXZ ENDP					; `dynamic initializer for 'gParty''
text$yc	ENDS
EXTRN	??0CDbSave@@QAE@XZ:PROC				; CDbSave::CDbSave
; Function compile flags: /Ogtp
;	COMDAT ??__EgDbSave@@YAXXZ
text$yc	SEGMENT
??__EgDbSave@@YAXXZ PROC				; `dynamic initializer for 'gDbSave'', COMDAT

; 182  : CDbSave gDbSave;	// line 255

  00000	b9 00 00 00 00	 mov	 ecx, OFFSET ?gDbSave@@3VCDbSave@@A ; gDbSave
  00005	e8 00 00 00 00	 call	 ??0CDbSave@@QAE@XZ	; CDbSave::CDbSave
  0000a	68 00 00 00 00	 push	 OFFSET ??__FgDbSave@@YAXXZ ; `dynamic atexit destructor for 'gDbSave''
  0000f	e8 00 00 00 00	 call	 _atexit
  00014	59		 pop	 ecx
  00015	c3		 ret	 0
??__EgDbSave@@YAXXZ ENDP				; `dynamic initializer for 'gDbSave''
text$yc	ENDS
EXTRN	??0WzUdp@@QAE@XZ:PROC				; WzUdp::WzUdp
; Function compile flags: /Ogtp
;	COMDAT ??__EgUdpSoc@@YAXXZ
text$yc	SEGMENT
??__EgUdpSoc@@YAXXZ PROC				; `dynamic initializer for 'gUdpSoc'', COMDAT

; 183  : WzUdp gUdpSoc;	// line 256

  00000	b9 00 00 00 00	 mov	 ecx, OFFSET ?gUdpSoc@@3VWzUdp@@A ; gUdpSoc
  00005	e8 00 00 00 00	 call	 ??0WzUdp@@QAE@XZ	; WzUdp::WzUdp
  0000a	68 00 00 00 00	 push	 OFFSET ??__FgUdpSoc@@YAXXZ ; `dynamic atexit destructor for 'gUdpSoc''
  0000f	e8 00 00 00 00	 call	 _atexit
  00014	59		 pop	 ecx
  00015	c3		 ret	 0
??__EgUdpSoc@@YAXXZ ENDP				; `dynamic initializer for 'gUdpSoc''
; Function compile flags: /Ogtp
text$yc	ENDS
;	COMDAT ??__EgUdpSocCE@@YAXXZ
text$yc	SEGMENT
??__EgUdpSocCE@@YAXXZ PROC				; `dynamic initializer for 'gUdpSocCE'', COMDAT

; 185  : WzUdp gUdpSocCE;	// line 258

  00000	b9 00 00 00 00	 mov	 ecx, OFFSET ?gUdpSocCE@@3VWzUdp@@A ; gUdpSocCE
  00005	e8 00 00 00 00	 call	 ??0WzUdp@@QAE@XZ	; WzUdp::WzUdp
  0000a	68 00 00 00 00	 push	 OFFSET ??__FgUdpSocCE@@YAXXZ ; `dynamic atexit destructor for 'gUdpSocCE''
  0000f	e8 00 00 00 00	 call	 _atexit
  00014	59		 pop	 ecx
  00015	c3		 ret	 0
??__EgUdpSocCE@@YAXXZ ENDP				; `dynamic initializer for 'gUdpSocCE''
; Function compile flags: /Ogtp
text$yc	ENDS
;	COMDAT ??__EgUdpSocCER@@YAXXZ
text$yc	SEGMENT
??__EgUdpSocCER@@YAXXZ PROC				; `dynamic initializer for 'gUdpSocCER'', COMDAT

; 186  : WzUdp gUdpSocCER;	// line 259

  00000	b9 00 00 00 00	 mov	 ecx, OFFSET ?gUdpSocCER@@3VWzUdp@@A ; gUdpSocCER
  00005	e8 00 00 00 00	 call	 ??0WzUdp@@QAE@XZ	; WzUdp::WzUdp
  0000a	68 00 00 00 00	 push	 OFFSET ??__FgUdpSocCER@@YAXXZ ; `dynamic atexit destructor for 'gUdpSocCER''
  0000f	e8 00 00 00 00	 call	 _atexit
  00014	59		 pop	 ecx
  00015	c3		 ret	 0
??__EgUdpSocCER@@YAXXZ ENDP				; `dynamic initializer for 'gUdpSocCER''
; Function compile flags: /Ogtp
text$yc	ENDS
;	COMDAT ??__EgUdpSocCRank@@YAXXZ
text$yc	SEGMENT
??__EgUdpSocCRank@@YAXXZ PROC				; `dynamic initializer for 'gUdpSocCRank'', COMDAT

; 188  : WzUdp gUdpSocCRank;	// line 261

  00000	b9 00 00 00 00	 mov	 ecx, OFFSET ?gUdpSocCRank@@3VWzUdp@@A ; gUdpSocCRank
  00005	e8 00 00 00 00	 call	 ??0WzUdp@@QAE@XZ	; WzUdp::WzUdp
  0000a	68 00 00 00 00	 push	 OFFSET ??__FgUdpSocCRank@@YAXXZ ; `dynamic atexit destructor for 'gUdpSocCRank''
  0000f	e8 00 00 00 00	 call	 _atexit
  00014	59		 pop	 ecx
  00015	c3		 ret	 0
??__EgUdpSocCRank@@YAXXZ ENDP				; `dynamic initializer for 'gUdpSocCRank''
; Function compile flags: /Ogtp
text$yc	ENDS
;	COMDAT ??__EgUdpSocCRankR@@YAXXZ
text$yc	SEGMENT
??__EgUdpSocCRankR@@YAXXZ PROC				; `dynamic initializer for 'gUdpSocCRankR'', COMDAT

; 189  : WzUdp gUdpSocCRankR;	//line 262

  00000	b9 00 00 00 00	 mov	 ecx, OFFSET ?gUdpSocCRankR@@3VWzUdp@@A ; gUdpSocCRankR
  00005	e8 00 00 00 00	 call	 ??0WzUdp@@QAE@XZ	; WzUdp::WzUdp
  0000a	68 00 00 00 00	 push	 OFFSET ??__FgUdpSocCRankR@@YAXXZ ; `dynamic atexit destructor for 'gUdpSocCRankR''
  0000f	e8 00 00 00 00	 call	 _atexit
  00014	59		 pop	 ecx
  00015	c3		 ret	 0
??__EgUdpSocCRankR@@YAXXZ ENDP				; `dynamic initializer for 'gUdpSocCRankR''
text$yc	ENDS
EXTRN	??0CGuildClass@@QAE@XZ:PROC			; CGuildClass::CGuildClass
; Function compile flags: /Ogtp
;	COMDAT ??__EGuild@@YAXXZ
text$yc	SEGMENT
??__EGuild@@YAXXZ PROC					; `dynamic initializer for 'Guild'', COMDAT

; 191  : CGuildClass Guild;	// line 265

  00000	b9 00 00 00 00	 mov	 ecx, OFFSET ?Guild@@3VCGuildClass@@A ; Guild
  00005	e8 00 00 00 00	 call	 ??0CGuildClass@@QAE@XZ	; CGuildClass::CGuildClass
  0000a	68 00 00 00 00	 push	 OFFSET ??__FGuild@@YAXXZ ; `dynamic atexit destructor for 'Guild''
  0000f	e8 00 00 00 00	 call	 _atexit
  00014	59		 pop	 ecx
  00015	c3		 ret	 0
??__EGuild@@YAXXZ ENDP					; `dynamic initializer for 'Guild''
text$yc	ENDS
EXTRN	??0NSerialCheck@@QAE@XZ:PROC			; NSerialCheck::NSerialCheck
EXTRN	??1NSerialCheck@@UAE@XZ:PROC			; NSerialCheck::~NSerialCheck
; Function compile flags: /Ogtp
;	COMDAT ??__EgNSerialCheck@@YAXXZ
text$yc	SEGMENT
??__EgNSerialCheck@@YAXXZ PROC				; `dynamic initializer for 'gNSerialCheck'', COMDAT

; 195  : NSerialCheck gNSerialCheck[OBJMAX];	// line 326

  00000	68 00 00 00 00	 push	 OFFSET ??1NSerialCheck@@UAE@XZ ; NSerialCheck::~NSerialCheck
  00005	68 00 00 00 00	 push	 OFFSET ??0NSerialCheck@@QAE@XZ ; NSerialCheck::NSerialCheck
  0000a	68 e8 1c 00 00	 push	 7400			; 00001ce8H
  0000f	6a 08		 push	 8
  00011	68 00 00 00 00	 push	 OFFSET ?gNSerialCheck@@3PAVNSerialCheck@@A ; gNSerialCheck
  00016	e8 00 00 00 00	 call	 ??_L@YGXPAXIHP6EX0@Z1@Z
  0001b	68 00 00 00 00	 push	 OFFSET ??__FgNSerialCheck@@YAXXZ ; `dynamic atexit destructor for 'gNSerialCheck''
  00020	e8 00 00 00 00	 call	 _atexit
  00025	59		 pop	 ecx
  00026	c3		 ret	 0
??__EgNSerialCheck@@YAXXZ ENDP				; `dynamic initializer for 'gNSerialCheck''
text$yc	ENDS
EXTRN	??0CLoginCount@@QAE@XZ:PROC			; CLoginCount::CLoginCount
EXTRN	??1CLoginCount@@QAE@XZ:PROC			; CLoginCount::~CLoginCount
; Function compile flags: /Ogtp
;	COMDAT ??__EgLCount@@YAXXZ
text$yc	SEGMENT
??__EgLCount@@YAXXZ PROC				; `dynamic initializer for 'gLCount'', COMDAT

; 197  : CLoginCount gLCount[3];	// line 329

  00000	68 00 00 00 00	 push	 OFFSET ??1CLoginCount@@QAE@XZ ; CLoginCount::~CLoginCount
  00005	68 00 00 00 00	 push	 OFFSET ??0CLoginCount@@QAE@XZ ; CLoginCount::CLoginCount
  0000a	6a 03		 push	 3
  0000c	6a 04		 push	 4
  0000e	68 00 00 00 00	 push	 OFFSET ?gLCount@@3PAVCLoginCount@@A ; gLCount
  00013	e8 00 00 00 00	 call	 ??_L@YGXPAXIHP6EX0@Z1@Z
  00018	68 00 00 00 00	 push	 OFFSET ??__FgLCount@@YAXXZ ; `dynamic atexit destructor for 'gLCount''
  0001d	e8 00 00 00 00	 call	 _atexit
  00022	59		 pop	 ecx
  00023	c3		 ret	 0
??__EgLCount@@YAXXZ ENDP				; `dynamic initializer for 'gLCount''
text$yc	ENDS
EXTRN	??0CSimpleModulus@@QAE@XZ:PROC			; CSimpleModulus::CSimpleModulus
; Function compile flags: /Ogtp
;	COMDAT ??__Eg_SimpleModulusCS@@YAXXZ
text$yc	SEGMENT
??__Eg_SimpleModulusCS@@YAXXZ PROC			; `dynamic initializer for 'g_SimpleModulusCS'', COMDAT

; 249  : CSimpleModulus g_SimpleModulusCS;	// line 751

  00000	b9 00 00 00 00	 mov	 ecx, OFFSET ?g_SimpleModulusCS@@3VCSimpleModulus@@A ; g_SimpleModulusCS
  00005	e8 00 00 00 00	 call	 ??0CSimpleModulus@@QAE@XZ ; CSimpleModulus::CSimpleModulus
  0000a	68 00 00 00 00	 push	 OFFSET ??__Fg_SimpleModulusCS@@YAXXZ ; `dynamic atexit destructor for 'g_SimpleModulusCS''
  0000f	e8 00 00 00 00	 call	 _atexit
  00014	59		 pop	 ecx
  00015	c3		 ret	 0
??__Eg_SimpleModulusCS@@YAXXZ ENDP			; `dynamic initializer for 'g_SimpleModulusCS''
; Function compile flags: /Ogtp
text$yc	ENDS
;	COMDAT ??__Eg_SimpleModulusSC@@YAXXZ
text$yc	SEGMENT
??__Eg_SimpleModulusSC@@YAXXZ PROC			; `dynamic initializer for 'g_SimpleModulusSC'', COMDAT

; 250  : CSimpleModulus g_SimpleModulusSC;	// line 752

  00000	b9 00 00 00 00	 mov	 ecx, OFFSET ?g_SimpleModulusSC@@3VCSimpleModulus@@A ; g_SimpleModulusSC
  00005	e8 00 00 00 00	 call	 ??0CSimpleModulus@@QAE@XZ ; CSimpleModulus::CSimpleModulus
  0000a	68 00 00 00 00	 push	 OFFSET ??__Fg_SimpleModulusSC@@YAXXZ ; `dynamic atexit destructor for 'g_SimpleModulusSC''
  0000f	e8 00 00 00 00	 call	 _atexit
  00014	59		 pop	 ecx
  00015	c3		 ret	 0
??__Eg_SimpleModulusSC@@YAXXZ ENDP			; `dynamic initializer for 'g_SimpleModulusSC''
text$yc	ENDS
EXTRN	??1CwsGameServer@@UAE@XZ:PROC			; CwsGameServer::~CwsGameServer
; Function compile flags: /Ogtp
;	COMDAT ??__FwsGServer@@YAXXZ
text$yd	SEGMENT
??__FwsGServer@@YAXXZ PROC				; `dynamic atexit destructor for 'wsGServer'', COMDAT
  00000	b9 00 00 00 00	 mov	 ecx, OFFSET ?wsGServer@@3VCwsGameServer@@A ; wsGServer
  00005	e9 00 00 00 00	 jmp	 ??1CwsGameServer@@UAE@XZ ; CwsGameServer::~CwsGameServer
??__FwsGServer@@YAXXZ ENDP				; `dynamic atexit destructor for 'wsGServer''
text$yd	ENDS
EXTRN	??1wsJoinServerCli@@UAE@XZ:PROC			; wsJoinServerCli::~wsJoinServerCli
; Function compile flags: /Ogtp
;	COMDAT ??__FwsJServerCli@@YAXXZ
text$yd	SEGMENT
??__FwsJServerCli@@YAXXZ PROC				; `dynamic atexit destructor for 'wsJServerCli'', COMDAT
  00000	b9 00 00 00 00	 mov	 ecx, OFFSET ?wsJServerCli@@3VwsJoinServerCli@@A ; wsJServerCli
  00005	e9 00 00 00 00	 jmp	 ??1wsJoinServerCli@@UAE@XZ ; wsJoinServerCli::~wsJoinServerCli
??__FwsJServerCli@@YAXXZ ENDP				; `dynamic atexit destructor for 'wsJServerCli''
; Function compile flags: /Ogtp
text$yd	ENDS
;	COMDAT ??__FwsDataCli@@YAXXZ
text$yd	SEGMENT
??__FwsDataCli@@YAXXZ PROC				; `dynamic atexit destructor for 'wsDataCli'', COMDAT
  00000	b9 00 00 00 00	 mov	 ecx, OFFSET ?wsDataCli@@3VwsJoinServerCli@@A ; wsDataCli
  00005	e9 00 00 00 00	 jmp	 ??1wsJoinServerCli@@UAE@XZ ; wsJoinServerCli::~wsJoinServerCli
??__FwsDataCli@@YAXXZ ENDP				; `dynamic atexit destructor for 'wsDataCli''
; Function compile flags: /Ogtp
text$yd	ENDS
;	COMDAT ??__FwsExDbCli@@YAXXZ
text$yd	SEGMENT
??__FwsExDbCli@@YAXXZ PROC				; `dynamic atexit destructor for 'wsExDbCli'', COMDAT
  00000	b9 00 00 00 00	 mov	 ecx, OFFSET ?wsExDbCli@@3VwsJoinServerCli@@A ; wsExDbCli
  00005	e9 00 00 00 00	 jmp	 ??1wsJoinServerCli@@UAE@XZ ; wsJoinServerCli::~wsJoinServerCli
??__FwsExDbCli@@YAXXZ ENDP				; `dynamic atexit destructor for 'wsExDbCli''
; Function compile flags: /Ogtp
text$yd	ENDS
;	COMDAT ??__FwsRServerCli@@YAXXZ
text$yd	SEGMENT
??__FwsRServerCli@@YAXXZ PROC				; `dynamic atexit destructor for 'wsRServerCli'', COMDAT
  00000	b9 00 00 00 00	 mov	 ecx, OFFSET ?wsRServerCli@@3VwsJoinServerCli@@A ; wsRServerCli
  00005	e9 00 00 00 00	 jmp	 ??1wsJoinServerCli@@UAE@XZ ; wsJoinServerCli::~wsJoinServerCli
??__FwsRServerCli@@YAXXZ ENDP				; `dynamic atexit destructor for 'wsRServerCli''
; Function compile flags: /Ogtp
text$yd	ENDS
;	COMDAT ??__FwsEvenChipServerCli@@YAXXZ
text$yd	SEGMENT
??__FwsEvenChipServerCli@@YAXXZ PROC			; `dynamic atexit destructor for 'wsEvenChipServerCli'', COMDAT
  00000	b9 00 00 00 00	 mov	 ecx, OFFSET ?wsEvenChipServerCli@@3VwsJoinServerCli@@A ; wsEvenChipServerCli
  00005	e9 00 00 00 00	 jmp	 ??1wsJoinServerCli@@UAE@XZ ; wsJoinServerCli::~wsJoinServerCli
??__FwsEvenChipServerCli@@YAXXZ ENDP			; `dynamic atexit destructor for 'wsEvenChipServerCli''
text$yd	ENDS
EXTRN	??1CDirPath@@UAE@XZ:PROC			; CDirPath::~CDirPath
; Function compile flags: /Ogtp
;	COMDAT ??__FgDirPath@@YAXXZ
text$yd	SEGMENT
??__FgDirPath@@YAXXZ PROC				; `dynamic atexit destructor for 'gDirPath'', COMDAT
  00000	b9 00 00 00 00	 mov	 ecx, OFFSET ?gDirPath@@3VCDirPath@@A ; gDirPath
  00005	e9 00 00 00 00	 jmp	 ??1CDirPath@@UAE@XZ	; CDirPath::~CDirPath
??__FgDirPath@@YAXXZ ENDP				; `dynamic atexit destructor for 'gDirPath''
text$yd	ENDS
EXTRN	??_M@YGXPAXIHP6EX0@Z@Z:PROC			; `eh vector destructor iterator'
; Function compile flags: /Ogtp
;	COMDAT ??__FMapC@@YAXXZ
text$yd	SEGMENT
??__FMapC@@YAXXZ PROC					; `dynamic atexit destructor for 'MapC'', COMDAT
  00000	68 00 00 00 00	 push	 OFFSET ??1MapClass@@UAE@XZ ; MapClass::~MapClass
  00005	6a 28		 push	 40			; 00000028H
  00007	68 08 07 05 00	 push	 329480			; 00050708H
  0000c	68 00 00 00 00	 push	 OFFSET ?MapC@@3PAVMapClass@@A ; MapC
  00011	e8 00 00 00 00	 call	 ??_M@YGXPAXIHP6EX0@Z@Z
  00016	c3		 ret	 0
??__FMapC@@YAXXZ ENDP					; `dynamic atexit destructor for 'MapC''
text$yd	ENDS
EXTRN	??1CMonsterAttr@@UAE@XZ:PROC			; CMonsterAttr::~CMonsterAttr
; Function compile flags: /Ogtp
;	COMDAT ??__FgMAttr@@YAXXZ
text$yd	SEGMENT
??__FgMAttr@@YAXXZ PROC					; `dynamic atexit destructor for 'gMAttr'', COMDAT
  00000	b9 00 00 00 00	 mov	 ecx, OFFSET ?gMAttr@@3VCMonsterAttr@@A ; gMAttr
  00005	e9 00 00 00 00	 jmp	 ??1CMonsterAttr@@UAE@XZ	; CMonsterAttr::~CMonsterAttr
??__FgMAttr@@YAXXZ ENDP					; `dynamic atexit destructor for 'gMAttr''
text$yd	ENDS
EXTRN	??1CMonsterSetBase@@UAE@XZ:PROC			; CMonsterSetBase::~CMonsterSetBase
; Function compile flags: /Ogtp
;	COMDAT ??__FgMSetBase@@YAXXZ
text$yd	SEGMENT
??__FgMSetBase@@YAXXZ PROC				; `dynamic atexit destructor for 'gMSetBase'', COMDAT
  00000	b9 00 00 00 00	 mov	 ecx, OFFSET ?gMSetBase@@3VCMonsterSetBase@@A ; gMSetBase
  00005	e9 00 00 00 00	 jmp	 ??1CMonsterSetBase@@UAE@XZ ; CMonsterSetBase::~CMonsterSetBase
??__FgMSetBase@@YAXXZ ENDP				; `dynamic atexit destructor for 'gMSetBase''
text$yd	ENDS
EXTRN	??1classdef@@UAE@XZ:PROC			; classdef::~classdef
; Function compile flags: /Ogtp
;	COMDAT ??__FDCInfo@@YAXXZ
text$yd	SEGMENT
??__FDCInfo@@YAXXZ PROC					; `dynamic atexit destructor for 'DCInfo'', COMDAT
  00000	b9 00 00 00 00	 mov	 ecx, OFFSET ?DCInfo@@3Vclassdef@@A ; DCInfo
  00005	e9 00 00 00 00	 jmp	 ??1classdef@@UAE@XZ	; classdef::~classdef
??__FDCInfo@@YAXXZ ENDP					; `dynamic atexit destructor for 'DCInfo''
text$yd	ENDS
EXTRN	??1CWhisperCash@@UAE@XZ:PROC			; CWhisperCash::~CWhisperCash
; Function compile flags: /Ogtp
;	COMDAT ??__FWhisperCash@@YAXXZ
text$yd	SEGMENT
??__FWhisperCash@@YAXXZ PROC				; `dynamic atexit destructor for 'WhisperCash'', COMDAT
  00000	b9 00 00 00 00	 mov	 ecx, OFFSET ?WhisperCash@@3VCWhisperCash@@A ; WhisperCash
  00005	e9 00 00 00 00	 jmp	 ??1CWhisperCash@@UAE@XZ	; CWhisperCash::~CWhisperCash
??__FWhisperCash@@YAXXZ ENDP				; `dynamic atexit destructor for 'WhisperCash''
text$yd	ENDS
EXTRN	??1PartyClass@@UAE@XZ:PROC			; PartyClass::~PartyClass
; Function compile flags: /Ogtp
;	COMDAT ??__FgParty@@YAXXZ
text$yd	SEGMENT
??__FgParty@@YAXXZ PROC					; `dynamic atexit destructor for 'gParty'', COMDAT
  00000	b9 00 00 00 00	 mov	 ecx, OFFSET ?gParty@@3VPartyClass@@A ; gParty
  00005	e9 00 00 00 00	 jmp	 ??1PartyClass@@UAE@XZ	; PartyClass::~PartyClass
??__FgParty@@YAXXZ ENDP					; `dynamic atexit destructor for 'gParty''
text$yd	ENDS
EXTRN	??1CDbSave@@UAE@XZ:PROC				; CDbSave::~CDbSave
; Function compile flags: /Ogtp
;	COMDAT ??__FgDbSave@@YAXXZ
text$yd	SEGMENT
??__FgDbSave@@YAXXZ PROC				; `dynamic atexit destructor for 'gDbSave'', COMDAT
  00000	b9 00 00 00 00	 mov	 ecx, OFFSET ?gDbSave@@3VCDbSave@@A ; gDbSave
  00005	e9 00 00 00 00	 jmp	 ??1CDbSave@@UAE@XZ	; CDbSave::~CDbSave
??__FgDbSave@@YAXXZ ENDP				; `dynamic atexit destructor for 'gDbSave''
text$yd	ENDS
EXTRN	??1WzUdp@@UAE@XZ:PROC				; WzUdp::~WzUdp
; Function compile flags: /Ogtp
;	COMDAT ??__FgUdpSoc@@YAXXZ
text$yd	SEGMENT
??__FgUdpSoc@@YAXXZ PROC				; `dynamic atexit destructor for 'gUdpSoc'', COMDAT
  00000	b9 00 00 00 00	 mov	 ecx, OFFSET ?gUdpSoc@@3VWzUdp@@A ; gUdpSoc
  00005	e9 00 00 00 00	 jmp	 ??1WzUdp@@UAE@XZ	; WzUdp::~WzUdp
??__FgUdpSoc@@YAXXZ ENDP				; `dynamic atexit destructor for 'gUdpSoc''
; Function compile flags: /Ogtp
text$yd	ENDS
;	COMDAT ??__FgUdpSocCE@@YAXXZ
text$yd	SEGMENT
??__FgUdpSocCE@@YAXXZ PROC				; `dynamic atexit destructor for 'gUdpSocCE'', COMDAT
  00000	b9 00 00 00 00	 mov	 ecx, OFFSET ?gUdpSocCE@@3VWzUdp@@A ; gUdpSocCE
  00005	e9 00 00 00 00	 jmp	 ??1WzUdp@@UAE@XZ	; WzUdp::~WzUdp
??__FgUdpSocCE@@YAXXZ ENDP				; `dynamic atexit destructor for 'gUdpSocCE''
; Function compile flags: /Ogtp
text$yd	ENDS
;	COMDAT ??__FgUdpSocCER@@YAXXZ
text$yd	SEGMENT
??__FgUdpSocCER@@YAXXZ PROC				; `dynamic atexit destructor for 'gUdpSocCER'', COMDAT
  00000	b9 00 00 00 00	 mov	 ecx, OFFSET ?gUdpSocCER@@3VWzUdp@@A ; gUdpSocCER
  00005	e9 00 00 00 00	 jmp	 ??1WzUdp@@UAE@XZ	; WzUdp::~WzUdp
??__FgUdpSocCER@@YAXXZ ENDP				; `dynamic atexit destructor for 'gUdpSocCER''
; Function compile flags: /Ogtp
text$yd	ENDS
;	COMDAT ??__FgUdpSocCRank@@YAXXZ
text$yd	SEGMENT
??__FgUdpSocCRank@@YAXXZ PROC				; `dynamic atexit destructor for 'gUdpSocCRank'', COMDAT
  00000	b9 00 00 00 00	 mov	 ecx, OFFSET ?gUdpSocCRank@@3VWzUdp@@A ; gUdpSocCRank
  00005	e9 00 00 00 00	 jmp	 ??1WzUdp@@UAE@XZ	; WzUdp::~WzUdp
??__FgUdpSocCRank@@YAXXZ ENDP				; `dynamic atexit destructor for 'gUdpSocCRank''
; Function compile flags: /Ogtp
text$yd	ENDS
;	COMDAT ??__FgUdpSocCRankR@@YAXXZ
text$yd	SEGMENT
??__FgUdpSocCRankR@@YAXXZ PROC				; `dynamic atexit destructor for 'gUdpSocCRankR'', COMDAT
  00000	b9 00 00 00 00	 mov	 ecx, OFFSET ?gUdpSocCRankR@@3VWzUdp@@A ; gUdpSocCRankR
  00005	e9 00 00 00 00	 jmp	 ??1WzUdp@@UAE@XZ	; WzUdp::~WzUdp
??__FgUdpSocCRankR@@YAXXZ ENDP				; `dynamic atexit destructor for 'gUdpSocCRankR''
text$yd	ENDS
EXTRN	??1CGuildClass@@UAE@XZ:PROC			; CGuildClass::~CGuildClass
; Function compile flags: /Ogtp
;	COMDAT ??__FGuild@@YAXXZ
text$yd	SEGMENT
??__FGuild@@YAXXZ PROC					; `dynamic atexit destructor for 'Guild'', COMDAT
  00000	b9 00 00 00 00	 mov	 ecx, OFFSET ?Guild@@3VCGuildClass@@A ; Guild
  00005	e9 00 00 00 00	 jmp	 ??1CGuildClass@@UAE@XZ	; CGuildClass::~CGuildClass
??__FGuild@@YAXXZ ENDP					; `dynamic atexit destructor for 'Guild''
; Function compile flags: /Ogtp
text$yd	ENDS
;	COMDAT ??__FgNSerialCheck@@YAXXZ
text$yd	SEGMENT
??__FgNSerialCheck@@YAXXZ PROC				; `dynamic atexit destructor for 'gNSerialCheck'', COMDAT
  00000	68 00 00 00 00	 push	 OFFSET ??1NSerialCheck@@UAE@XZ ; NSerialCheck::~NSerialCheck
  00005	68 e8 1c 00 00	 push	 7400			; 00001ce8H
  0000a	6a 08		 push	 8
  0000c	68 00 00 00 00	 push	 OFFSET ?gNSerialCheck@@3PAVNSerialCheck@@A ; gNSerialCheck
  00011	e8 00 00 00 00	 call	 ??_M@YGXPAXIHP6EX0@Z@Z
  00016	c3		 ret	 0
??__FgNSerialCheck@@YAXXZ ENDP				; `dynamic atexit destructor for 'gNSerialCheck''
; Function compile flags: /Ogtp
text$yd	ENDS
;	COMDAT ??__FgLCount@@YAXXZ
text$yd	SEGMENT
??__FgLCount@@YAXXZ PROC				; `dynamic atexit destructor for 'gLCount'', COMDAT
  00000	68 00 00 00 00	 push	 OFFSET ??1CLoginCount@@QAE@XZ ; CLoginCount::~CLoginCount
  00005	6a 03		 push	 3
  00007	6a 04		 push	 4
  00009	68 00 00 00 00	 push	 OFFSET ?gLCount@@3PAVCLoginCount@@A ; gLCount
  0000e	e8 00 00 00 00	 call	 ??_M@YGXPAXIHP6EX0@Z@Z
  00013	c3		 ret	 0
??__FgLCount@@YAXXZ ENDP				; `dynamic atexit destructor for 'gLCount''
text$yd	ENDS
EXTRN	??1CSimpleModulus@@UAE@XZ:PROC			; CSimpleModulus::~CSimpleModulus
; Function compile flags: /Ogtp
;	COMDAT ??__Fg_SimpleModulusCS@@YAXXZ
text$yd	SEGMENT
??__Fg_SimpleModulusCS@@YAXXZ PROC			; `dynamic atexit destructor for 'g_SimpleModulusCS'', COMDAT
  00000	b9 00 00 00 00	 mov	 ecx, OFFSET ?g_SimpleModulusCS@@3VCSimpleModulus@@A ; g_SimpleModulusCS
  00005	e9 00 00 00 00	 jmp	 ??1CSimpleModulus@@UAE@XZ ; CSimpleModulus::~CSimpleModulus
??__Fg_SimpleModulusCS@@YAXXZ ENDP			; `dynamic atexit destructor for 'g_SimpleModulusCS''
; Function compile flags: /Ogtp
text$yd	ENDS
;	COMDAT ??__Fg_SimpleModulusSC@@YAXXZ
text$yd	SEGMENT
??__Fg_SimpleModulusSC@@YAXXZ PROC			; `dynamic atexit destructor for 'g_SimpleModulusSC'', COMDAT
  00000	b9 00 00 00 00	 mov	 ecx, OFFSET ?g_SimpleModulusSC@@3VCSimpleModulus@@A ; g_SimpleModulusSC
  00005	e9 00 00 00 00	 jmp	 ??1CSimpleModulus@@UAE@XZ ; CSimpleModulus::~CSimpleModulus
??__Fg_SimpleModulusSC@@YAXXZ ENDP			; `dynamic atexit destructor for 'g_SimpleModulusSC''
text$yd	ENDS
PUBLIC	?g_SimpleModulusSC@@3VCSimpleModulus@@A		; g_SimpleModulusSC
PUBLIC	?g_SimpleModulusCS@@3VCSimpleModulus@@A		; g_SimpleModulusCS
PUBLIC	?gLCount@@3PAVCLoginCount@@A			; gLCount
PUBLIC	?gNSerialCheck@@3PAVNSerialCheck@@A		; gNSerialCheck
PUBLIC	?Guild@@3VCGuildClass@@A			; Guild
PUBLIC	?gUdpSocCRankR@@3VWzUdp@@A			; gUdpSocCRankR
PUBLIC	?gUdpSocCRank@@3VWzUdp@@A			; gUdpSocCRank
PUBLIC	?gUdpSocCER@@3VWzUdp@@A				; gUdpSocCER
PUBLIC	?gUdpSocCE@@3VWzUdp@@A				; gUdpSocCE
PUBLIC	?gUdpSoc@@3VWzUdp@@A				; gUdpSoc
PUBLIC	?gDbSave@@3VCDbSave@@A				; gDbSave
PUBLIC	?gParty@@3VPartyClass@@A			; gParty
PUBLIC	?WhisperCash@@3VCWhisperCash@@A			; WhisperCash
PUBLIC	?DCInfo@@3Vclassdef@@A				; DCInfo
PUBLIC	?gMSetBase@@3VCMonsterSetBase@@A		; gMSetBase
PUBLIC	?gMAttr@@3VCMonsterAttr@@A			; gMAttr
PUBLIC	?MapC@@3PAVMapClass@@A				; MapC
PUBLIC	?gDirPath@@3VCDirPath@@A			; gDirPath
PUBLIC	?wsEvenChipServerCli@@3VwsJoinServerCli@@A	; wsEvenChipServerCli
PUBLIC	?wsRServerCli@@3VwsJoinServerCli@@A		; wsRServerCli
PUBLIC	?wsExDbCli@@3VwsJoinServerCli@@A		; wsExDbCli
PUBLIC	?wsDataCli@@3VwsJoinServerCli@@A		; wsDataCli
PUBLIC	?wsJServerCli@@3VwsJoinServerCli@@A		; wsJServerCli
PUBLIC	?wsGServer@@3VCwsGameServer@@A			; wsGServer
_BSS	SEGMENT
?g_SimpleModulusSC@@3VCSimpleModulus@@A DB 044H DUP (?)	; g_SimpleModulusSC
?g_SimpleModulusCS@@3VCSimpleModulus@@A DB 044H DUP (?)	; g_SimpleModulusCS
?gLCount@@3PAVCLoginCount@@A DD 03H DUP (?)		; gLCount
?gNSerialCheck@@3PAVNSerialCheck@@A DQ 01ce8H DUP (?)	; gNSerialCheck
?Guild@@3VCGuildClass@@A DB 02cH DUP (?)		; Guild
?gUdpSocCRankR@@3VWzUdp@@A DB 0860H DUP (?)		; gUdpSocCRankR
?gUdpSocCRank@@3VWzUdp@@A DB 0860H DUP (?)		; gUdpSocCRank
?gUdpSocCER@@3VWzUdp@@A DB 0860H DUP (?)		; gUdpSocCER
?gUdpSocCE@@3VWzUdp@@A DB 0860H DUP (?)			; gUdpSocCE
?gUdpSoc@@3VWzUdp@@A DB 0860H DUP (?)			; gUdpSoc
?gDbSave@@3VCDbSave@@A DB 02cH DUP (?)			; gDbSave
?gParty@@3VPartyClass@@A DB 056c88H DUP (?)		; gParty
?WhisperCash@@3VCWhisperCash@@A DB 038H DUP (?)		; WhisperCash
?DCInfo@@3Vclassdef@@A DB 02ee8H DUP (?)		; DCInfo
?gMSetBase@@3VCMonsterSetBase@@A DB 010fe8H DUP (?)	; gMSetBase
?gMAttr@@3VCMonsterAttr@@A DB 010022H DUP (?)		; gMAttr
	ALIGN	4

?MapC@@3PAVMapClass@@A DB 0c91940H DUP (?)		; MapC
?gDirPath@@3VCDirPath@@A DB 020cH DUP (?)		; gDirPath
?wsEvenChipServerCli@@3VwsJoinServerCli@@A DB 0190028H DUP (?) ; wsEvenChipServerCli
?wsRServerCli@@3VwsJoinServerCli@@A DB 0190034H DUP (?)	; wsRServerCli
?wsExDbCli@@3VwsJoinServerCli@@A DB 0190034H DUP (?)	; wsExDbCli
?wsDataCli@@3VwsJoinServerCli@@A DB 0190034H DUP (?)	; wsDataCli
?wsJServerCli@@3VwsJoinServerCli@@A DB 0190034H DUP (?)	; wsJServerCli
?wsGServer@@3VCwsGameServer@@A DB 030H DUP (?)		; wsGServer
_BSS	ENDS
CRT$XCU	SEGMENT
_wsGServer$initializer$ DD FLAT:??__EwsGServer@@YAXXZ
_wsJServerCli$initializer$ DD FLAT:??__EwsJServerCli@@YAXXZ
_wsDataCli$initializer$ DD FLAT:??__EwsDataCli@@YAXXZ
_wsExDbCli$initializer$ DD FLAT:??__EwsExDbCli@@YAXXZ
_wsRServerCli$initializer$ DD FLAT:??__EwsRServerCli@@YAXXZ
_wsEvenChipServerCli$initializer$ DD FLAT:??__EwsEvenChipServerCli@@YAXXZ
_gDirPath$initializer$ DD FLAT:??__EgDirPath@@YAXXZ
_MapC$initializer$ DD FLAT:??__EMapC@@YAXXZ
_gMAttr$initializer$ DD FLAT:??__EgMAttr@@YAXXZ
_gMSetBase$initializer$ DD FLAT:??__EgMSetBase@@YAXXZ
_DCInfo$initializer$ DD FLAT:??__EDCInfo@@YAXXZ
_WhisperCash$initializer$ DD FLAT:??__EWhisperCash@@YAXXZ
_gParty$initializer$ DD FLAT:??__EgParty@@YAXXZ
_gDbSave$initializer$ DD FLAT:??__EgDbSave@@YAXXZ
_gUdpSoc$initializer$ DD FLAT:??__EgUdpSoc@@YAXXZ
_gUdpSocCE$initializer$ DD FLAT:??__EgUdpSocCE@@YAXXZ
_gUdpSocCER$initializer$ DD FLAT:??__EgUdpSocCER@@YAXXZ
_gUdpSocCRank$initializer$ DD FLAT:??__EgUdpSocCRank@@YAXXZ
_gUdpSocCRankR$initializer$ DD FLAT:??__EgUdpSocCRankR@@YAXXZ
_Guild$initializer$ DD FLAT:??__EGuild@@YAXXZ
_gNSerialCheck$initializer$ DD FLAT:??__EgNSerialCheck@@YAXXZ
_gLCount$initializer$ DD FLAT:??__EgLCount@@YAXXZ
_g_SimpleModulusCS$initializer$ DD FLAT:??__Eg_SimpleModulusCS@@YAXXZ
_g_SimpleModulusSC$initializer$ DD FLAT:??__Eg_SimpleModulusSC@@YAXXZ
CRT$XCU	ENDS
END
