; Listing generated by Microsoft (R) Optimizing Compiler Version 16.00.30319.01 

	TITLE	C:\Users\faelhs\mu-1.1\eMu - GameServer Sapphire S0\GameServer\GMMng.cpp
	.686P
	.XMM
	include listing.inc
	.model	flat

INCLUDELIB LIBCMT
INCLUDELIB OLDNAMES

PUBLIC	?Init@CGMCommand@@QAEXXZ			; CGMCommand::Init
; Function compile flags: /Ogtp
; File c:\users\faelhs\mu-1.1\emu - gameserver sapphire s0\gameserver\gmmng.h
;	COMDAT ?Init@CGMCommand@@QAEXXZ
_TEXT	SEGMENT
?Init@CGMCommand@@QAEXXZ PROC				; CGMCommand::Init, COMDAT
; _this$ = ecx

; 28   : 	{

  00000	c7 81 d0 07 00
	00 ff ff ff ff	 mov	 DWORD PTR [ecx+2000], -1

; 29   : 		for ( int n = 0; n<  MAX_GM_COMMAND; n++ )
; 30   : 		{
; 31   : 			this->nCmdCode[0] = -1;	// #error Change the Zero for n
; 32   : 		}
; 33   : 
; 34   : 		this->count=0;

  0000a	c7 81 60 09 00
	00 00 00 00 00	 mov	 DWORD PTR [ecx+2400], 0

; 35   : 	}	// line : 128

  00014	c3		 ret	 0
?Init@CGMCommand@@QAEXXZ ENDP				; CGMCommand::Init
_TEXT	ENDS
PUBLIC	?Add@CGMCommand@@QAEXPADH@Z			; CGMCommand::Add
; Function compile flags: /Ogtp
;	COMDAT ?Add@CGMCommand@@QAEXPADH@Z
_TEXT	SEGMENT
_command_str$ = 8					; size = 4
_command_code$ = 12					; size = 4
?Add@CGMCommand@@QAEXPADH@Z PROC			; CGMCommand::Add, COMDAT
; _this$ = ecx

; 38   : 	{

  00000	55		 push	 ebp
  00001	8b ec		 mov	 ebp, esp

; 39   : 		strcpy(this->szCmd[this->count], command_str);

  00003	8b 81 60 09 00
	00		 mov	 eax, DWORD PTR [ecx+2400]
  00009	8b 55 08	 mov	 edx, DWORD PTR _command_str$[ebp]
  0000c	8d 04 80	 lea	 eax, DWORD PTR [eax+eax*4]
  0000f	56		 push	 esi
  00010	8d 34 81	 lea	 esi, DWORD PTR [ecx+eax*4]
$LL4@Add:
  00013	8a 02		 mov	 al, BYTE PTR [edx]
  00015	88 06		 mov	 BYTE PTR [esi], al
  00017	42		 inc	 edx
  00018	46		 inc	 esi
  00019	84 c0		 test	 al, al
  0001b	75 f6		 jne	 SHORT $LL4@Add

; 40   : 		this->nCmdCode[this->count]=command_code;

  0001d	8b 45 0c	 mov	 eax, DWORD PTR _command_code$[ebp]
  00020	8b 91 60 09 00
	00		 mov	 edx, DWORD PTR [ecx+2400]
  00026	89 84 91 d0 07
	00 00		 mov	 DWORD PTR [ecx+edx*4+2000], eax

; 41   : 
; 42   : 		if ( this->count < MAX_GM_COMMAND-1 )

  0002d	8b 81 60 09 00
	00		 mov	 eax, DWORD PTR [ecx+2400]
  00033	5e		 pop	 esi
  00034	83 f8 63	 cmp	 eax, 99			; 00000063H
  00037	7d 07		 jge	 SHORT $LN1@Add

; 43   : 		{
; 44   : 			this->count++;

  00039	40		 inc	 eax
  0003a	89 81 60 09 00
	00		 mov	 DWORD PTR [ecx+2400], eax
$LN1@Add:

; 45   : 		}
; 46   : 	}	// line : 135

  00040	5d		 pop	 ebp
  00041	c2 08 00	 ret	 8
?Add@CGMCommand@@QAEXPADH@Z ENDP			; CGMCommand::Add
_TEXT	ENDS
PUBLIC	?SetInfinityArrowMPConsumptionPlus0@CSkillAdditionInfo@@QAEXH@Z ; CSkillAdditionInfo::SetInfinityArrowMPConsumptionPlus0
; Function compile flags: /Ogtp
; File c:\users\faelhs\mu-1.1\emu - gameserver sapphire s0\gameserver\skilladditioninfo.h
;	COMDAT ?SetInfinityArrowMPConsumptionPlus0@CSkillAdditionInfo@@QAEXH@Z
_TEXT	SEGMENT
_iValue$ = 8						; size = 4
?SetInfinityArrowMPConsumptionPlus0@CSkillAdditionInfo@@QAEXH@Z PROC ; CSkillAdditionInfo::SetInfinityArrowMPConsumptionPlus0, COMDAT
; _this$ = ecx

; 26   : 	void SetInfinityArrowMPConsumptionPlus0(int iValue){this->m_iInfinityArrowMPConsumptionPlus0 = iValue;}

  00000	55		 push	 ebp
  00001	8b ec		 mov	 ebp, esp
  00003	8b 45 08	 mov	 eax, DWORD PTR _iValue$[ebp]
  00006	89 41 0c	 mov	 DWORD PTR [ecx+12], eax
  00009	5d		 pop	 ebp
  0000a	c2 04 00	 ret	 4
?SetInfinityArrowMPConsumptionPlus0@CSkillAdditionInfo@@QAEXH@Z ENDP ; CSkillAdditionInfo::SetInfinityArrowMPConsumptionPlus0
_TEXT	ENDS
PUBLIC	?GetInfinityArrowMPConsumptionPlus0@CSkillAdditionInfo@@QAEHXZ ; CSkillAdditionInfo::GetInfinityArrowMPConsumptionPlus0
; Function compile flags: /Ogtp
;	COMDAT ?GetInfinityArrowMPConsumptionPlus0@CSkillAdditionInfo@@QAEHXZ
_TEXT	SEGMENT
?GetInfinityArrowMPConsumptionPlus0@CSkillAdditionInfo@@QAEHXZ PROC ; CSkillAdditionInfo::GetInfinityArrowMPConsumptionPlus0, COMDAT
; _this$ = ecx

; 27   : 	int GetInfinityArrowMPConsumptionPlus0(){return this->m_iInfinityArrowMPConsumptionPlus0;}

  00000	8b 41 0c	 mov	 eax, DWORD PTR [ecx+12]
  00003	c3		 ret	 0
?GetInfinityArrowMPConsumptionPlus0@CSkillAdditionInfo@@QAEHXZ ENDP ; CSkillAdditionInfo::GetInfinityArrowMPConsumptionPlus0
_TEXT	ENDS
PUBLIC	?SetInfinityArrowMPConsumptionPlus1@CSkillAdditionInfo@@QAEXH@Z ; CSkillAdditionInfo::SetInfinityArrowMPConsumptionPlus1
; Function compile flags: /Ogtp
;	COMDAT ?SetInfinityArrowMPConsumptionPlus1@CSkillAdditionInfo@@QAEXH@Z
_TEXT	SEGMENT
_iValue$ = 8						; size = 4
?SetInfinityArrowMPConsumptionPlus1@CSkillAdditionInfo@@QAEXH@Z PROC ; CSkillAdditionInfo::SetInfinityArrowMPConsumptionPlus1, COMDAT
; _this$ = ecx

; 28   : 	void SetInfinityArrowMPConsumptionPlus1(int iValue){this->m_iInfinityArrowMPConsumptionPlus1 = iValue;}

  00000	55		 push	 ebp
  00001	8b ec		 mov	 ebp, esp
  00003	8b 45 08	 mov	 eax, DWORD PTR _iValue$[ebp]
  00006	89 41 10	 mov	 DWORD PTR [ecx+16], eax
  00009	5d		 pop	 ebp
  0000a	c2 04 00	 ret	 4
?SetInfinityArrowMPConsumptionPlus1@CSkillAdditionInfo@@QAEXH@Z ENDP ; CSkillAdditionInfo::SetInfinityArrowMPConsumptionPlus1
_TEXT	ENDS
PUBLIC	?GetInfinityArrowMPConsumptionPlus1@CSkillAdditionInfo@@QAEHXZ ; CSkillAdditionInfo::GetInfinityArrowMPConsumptionPlus1
; Function compile flags: /Ogtp
;	COMDAT ?GetInfinityArrowMPConsumptionPlus1@CSkillAdditionInfo@@QAEHXZ
_TEXT	SEGMENT
?GetInfinityArrowMPConsumptionPlus1@CSkillAdditionInfo@@QAEHXZ PROC ; CSkillAdditionInfo::GetInfinityArrowMPConsumptionPlus1, COMDAT
; _this$ = ecx

; 29   : 	int GetInfinityArrowMPConsumptionPlus1(){return this->m_iInfinityArrowMPConsumptionPlus1;}

  00000	8b 41 10	 mov	 eax, DWORD PTR [ecx+16]
  00003	c3		 ret	 0
?GetInfinityArrowMPConsumptionPlus1@CSkillAdditionInfo@@QAEHXZ ENDP ; CSkillAdditionInfo::GetInfinityArrowMPConsumptionPlus1
_TEXT	ENDS
PUBLIC	?SetInfinityArrowMPConsumptionPlus2@CSkillAdditionInfo@@QAEXH@Z ; CSkillAdditionInfo::SetInfinityArrowMPConsumptionPlus2
; Function compile flags: /Ogtp
;	COMDAT ?SetInfinityArrowMPConsumptionPlus2@CSkillAdditionInfo@@QAEXH@Z
_TEXT	SEGMENT
_iValue$ = 8						; size = 4
?SetInfinityArrowMPConsumptionPlus2@CSkillAdditionInfo@@QAEXH@Z PROC ; CSkillAdditionInfo::SetInfinityArrowMPConsumptionPlus2, COMDAT
; _this$ = ecx

; 30   : 	void SetInfinityArrowMPConsumptionPlus2(int iValue){this->m_iInfinityArrowMPConsumptionPlus2 = iValue;}

  00000	55		 push	 ebp
  00001	8b ec		 mov	 ebp, esp
  00003	8b 45 08	 mov	 eax, DWORD PTR _iValue$[ebp]
  00006	89 41 14	 mov	 DWORD PTR [ecx+20], eax
  00009	5d		 pop	 ebp
  0000a	c2 04 00	 ret	 4
?SetInfinityArrowMPConsumptionPlus2@CSkillAdditionInfo@@QAEXH@Z ENDP ; CSkillAdditionInfo::SetInfinityArrowMPConsumptionPlus2
_TEXT	ENDS
PUBLIC	?GetInfinityArrowMPConsumptionPlus2@CSkillAdditionInfo@@QAEHXZ ; CSkillAdditionInfo::GetInfinityArrowMPConsumptionPlus2
; Function compile flags: /Ogtp
;	COMDAT ?GetInfinityArrowMPConsumptionPlus2@CSkillAdditionInfo@@QAEHXZ
_TEXT	SEGMENT
?GetInfinityArrowMPConsumptionPlus2@CSkillAdditionInfo@@QAEHXZ PROC ; CSkillAdditionInfo::GetInfinityArrowMPConsumptionPlus2, COMDAT
; _this$ = ecx

; 31   : 	int GetInfinityArrowMPConsumptionPlus2(){return this->m_iInfinityArrowMPConsumptionPlus2;}

  00000	8b 41 14	 mov	 eax, DWORD PTR [ecx+20]
  00003	c3		 ret	 0
?GetInfinityArrowMPConsumptionPlus2@CSkillAdditionInfo@@QAEHXZ ENDP ; CSkillAdditionInfo::GetInfinityArrowMPConsumptionPlus2
_TEXT	ENDS
PUBLIC	?SetFireScreamExplosionAttackDistance@CSkillAdditionInfo@@QAEXH@Z ; CSkillAdditionInfo::SetFireScreamExplosionAttackDistance
; Function compile flags: /Ogtp
;	COMDAT ?SetFireScreamExplosionAttackDistance@CSkillAdditionInfo@@QAEXH@Z
_TEXT	SEGMENT
_iValue$ = 8						; size = 4
?SetFireScreamExplosionAttackDistance@CSkillAdditionInfo@@QAEXH@Z PROC ; CSkillAdditionInfo::SetFireScreamExplosionAttackDistance, COMDAT
; _this$ = ecx

; 34   : 	void SetFireScreamExplosionAttackDistance(int iValue){this->m_iFireScreamExplosionAttackDistance = iValue;}

  00000	55		 push	 ebp
  00001	8b ec		 mov	 ebp, esp
  00003	8b 45 08	 mov	 eax, DWORD PTR _iValue$[ebp]
  00006	89 41 1c	 mov	 DWORD PTR [ecx+28], eax
  00009	5d		 pop	 ebp
  0000a	c2 04 00	 ret	 4
?SetFireScreamExplosionAttackDistance@CSkillAdditionInfo@@QAEXH@Z ENDP ; CSkillAdditionInfo::SetFireScreamExplosionAttackDistance
_TEXT	ENDS
PUBLIC	??_7CGMMng@@6B@					; CGMMng::`vftable'
PUBLIC	??1CGMMng@@UAE@XZ				; CGMMng::~CGMMng
PUBLIC	??_R4CGMMng@@6B@				; CGMMng::`RTTI Complete Object Locator'
PUBLIC	??_R0?AVCGMMng@@@8				; CGMMng `RTTI Type Descriptor'
PUBLIC	??_R3CGMMng@@8					; CGMMng::`RTTI Class Hierarchy Descriptor'
PUBLIC	??_R2CGMMng@@8					; CGMMng::`RTTI Base Class Array'
PUBLIC	??_R1A@?0A@EA@CGMMng@@8				; CGMMng::`RTTI Base Class Descriptor at (0,-1,0,64)'
EXTRN	??_7type_info@@6B@:QWORD			; type_info::`vftable'
EXTRN	??_ECGMMng@@UAEPAXI@Z:PROC			; CGMMng::`vector deleting destructor'
;	COMDAT ??_R1A@?0A@EA@CGMMng@@8
; File c:\users\faelhs\mu-1.1\emu - gameserver sapphire s0\gameserver\gmmng.cpp
rdata$r	SEGMENT
??_R1A@?0A@EA@CGMMng@@8 DD FLAT:??_R0?AVCGMMng@@@8	; CGMMng::`RTTI Base Class Descriptor at (0,-1,0,64)'
	DD	00H
	DD	00H
	DD	0ffffffffH
	DD	00H
	DD	040H
	DD	FLAT:??_R3CGMMng@@8
rdata$r	ENDS
;	COMDAT ??_R2CGMMng@@8
rdata$r	SEGMENT
??_R2CGMMng@@8 DD FLAT:??_R1A@?0A@EA@CGMMng@@8		; CGMMng::`RTTI Base Class Array'
rdata$r	ENDS
;	COMDAT ??_R3CGMMng@@8
rdata$r	SEGMENT
??_R3CGMMng@@8 DD 00H					; CGMMng::`RTTI Class Hierarchy Descriptor'
	DD	00H
	DD	01H
	DD	FLAT:??_R2CGMMng@@8
rdata$r	ENDS
;	COMDAT ??_R0?AVCGMMng@@@8
_DATA	SEGMENT
??_R0?AVCGMMng@@@8 DD FLAT:??_7type_info@@6B@		; CGMMng `RTTI Type Descriptor'
	DD	00H
	DB	'.?AVCGMMng@@', 00H
_DATA	ENDS
;	COMDAT ??_R4CGMMng@@6B@
rdata$r	SEGMENT
??_R4CGMMng@@6B@ DD 00H					; CGMMng::`RTTI Complete Object Locator'
	DD	00H
	DD	00H
	DD	FLAT:??_R0?AVCGMMng@@@8
	DD	FLAT:??_R3CGMMng@@8
rdata$r	ENDS
;	COMDAT ??_7CGMMng@@6B@
CONST	SEGMENT
??_7CGMMng@@6B@ DD FLAT:??_R4CGMMng@@6B@		; CGMMng::`vftable'
	DD	FLAT:??_ECGMMng@@UAEPAXI@Z
; Function compile flags: /Ogtp
CONST	ENDS
;	COMDAT ??1CGMMng@@UAE@XZ
_TEXT	SEGMENT
??1CGMMng@@UAE@XZ PROC					; CGMMng::~CGMMng, COMDAT
; _this$ = ecx

; 29   : {

  00000	c7 01 00 00 00
	00		 mov	 DWORD PTR [ecx], OFFSET ??_7CGMMng@@6B@

; 30   : 	return;
; 31   : }

  00006	c3		 ret	 0
??1CGMMng@@UAE@XZ ENDP					; CGMMng::~CGMMng
_TEXT	ENDS
PUBLIC	??_C@_05MDFEGFCD@?1?F?x?A?W?$AA@		; `string'
PUBLIC	??_C@_0M@LPOCJFNP@?1KanturuEnd?$AA@		; `string'
PUBLIC	??_C@_0BD@JFIBDED@?1KanturuTowerClose?$AA@	; `string'
PUBLIC	??_C@_0BC@POEDBBDH@?1KanturuTowerOpen?$AA@	; `string'
PUBLIC	??_C@_0O@GCJGBDLJ@?1KanturuTower?$AA@		; `string'
PUBLIC	??_C@_0BA@JINAFOHA@?1?$LD?$KK?$MA?L?F?$KO?$LI?$NO?$LO?n?$LN?G?F?P?$AA@ ; `string'
PUBLIC	??_C@_0BI@LEEHMLLD@?1KanturuBattleNightmare?$AA@ ; `string'
PUBLIC	??_C@_09MFPDNNIB@?1?$LI?$LG?$LO?$NP?$LN?G?F?P?$AA@ ; `string'
PUBLIC	??_C@_0L@IFJJFLKM@?1?$LI?$LG?$LO?$NP3?$LM?$LK?$LA?x?$AA@ ; `string'
PUBLIC	??_C@_06LNGLCLMM@?1?$LI?$LG?$LO?$NP3?$AA@	; `string'
PUBLIC	??_C@_0N@HKPBAKFK@?1?$LI?$LG?$LO?$NP?$LI?s?$LN?$LK?E?M3?$AA@ ; `string'
PUBLIC	??_C@_06KEHABKIN@?1?$LI?$LG?$LO?$NP2?$AA@	; `string'
PUBLIC	??_C@_0N@GDOKDLBL@?1?$LI?$LG?$LO?$NP?$LI?s?$LN?$LK?E?M2?$AA@ ; `string'
PUBLIC	??_C@_06IPFNEJEO@?1?$LI?$LG?$LO?$NP1?$AA@	; `string'
PUBLIC	??_C@_0N@EIMHGINI@?1?$LI?$LG?$LO?$NP?$LI?s?$LN?$LK?E?M1?$AA@ ; `string'
PUBLIC	??_C@_0BD@ELNPBAOF@?1KanturuBattleMaya?$AA@	; `string'
PUBLIC	??_C@_0O@GJDLFDLK@?1KanturuReady?$AA@		; `string'
PUBLIC	??_C@_0O@FADBPHEL@?1?D?o?$LF?P?H?$LI?$LK?$LJ?$LN?C?$LA?$KD?$AA@ ; `string'
PUBLIC	??_C@_0BA@DDJDJNOB@?1?D?o?$LF?P?C?J?$LE?g?H?$LI?$LK?$LJ?$LH?$KO?$AA@ ; `string'
PUBLIC	??_C@_0M@POALKPHK@?1?D?o?$LF?P?H?$LI?$LK?$LJ?$LH?$KO?$AA@ ; `string'
PUBLIC	??_C@_07ILODLNBC@?1?D?o?$LF?P?G?G?$AA@		; `string'
PUBLIC	??_C@_09OAOHLHFO@?1?D?o?$LF?P?$LL?s?E?B?$AA@	; `string'
PUBLIC	?Init@CGMMng@@QAEXXZ				; CGMMng::Init
EXTRN	?Get@CMsg@@QAEPADH@Z:PROC			; CMsg::Get
EXTRN	?lMsg@@3VCMsg@@A:BYTE				; lMsg
;	COMDAT ??_C@_05MDFEGFCD@?1?F?x?A?W?$AA@
; File c:\users\faelhs\mu-1.1\emu - gameserver sapphire s0\gameserver\gmmng.h
CONST	SEGMENT
??_C@_05MDFEGFCD@?1?F?x?A?W?$AA@ DB '/', 0c6H, 0f8H, 0c1H, 0d7H, 00H ; `string'
CONST	ENDS
;	COMDAT ??_C@_0M@LPOCJFNP@?1KanturuEnd?$AA@
CONST	SEGMENT
??_C@_0M@LPOCJFNP@?1KanturuEnd?$AA@ DB '/KanturuEnd', 00H ; `string'
CONST	ENDS
;	COMDAT ??_C@_0BD@JFIBDED@?1KanturuTowerClose?$AA@
CONST	SEGMENT
??_C@_0BD@JFIBDED@?1KanturuTowerClose?$AA@ DB '/KanturuTowerClose', 00H ; `string'
CONST	ENDS
;	COMDAT ??_C@_0BC@POEDBBDH@?1KanturuTowerOpen?$AA@
CONST	SEGMENT
??_C@_0BC@POEDBBDH@?1KanturuTowerOpen?$AA@ DB '/KanturuTowerOpen', 00H ; `string'
CONST	ENDS
;	COMDAT ??_C@_0O@GCJGBDLJ@?1KanturuTower?$AA@
CONST	SEGMENT
??_C@_0O@GCJGBDLJ@?1KanturuTower?$AA@ DB '/KanturuTower', 00H ; `string'
CONST	ENDS
;	COMDAT ??_C@_0BA@JINAFOHA@?1?$LD?$KK?$MA?L?F?$KO?$LI?$NO?$LO?n?$LN?G?F?P?$AA@
CONST	SEGMENT
??_C@_0BA@JINAFOHA@?1?$LD?$KK?$MA?L?F?$KO?$LI?$NO?$LO?n?$LN?G?F?P?$AA@ DB '/'
	DB	0b3H, 0aaH, 0c0H, 0ccH, 0c6H, 0aeH, 0b8H, 0deH, 0beH, 0eeH, 0bdH
	DB	0c7H, 0c6H, 0d0H, 00H			; `string'
CONST	ENDS
;	COMDAT ??_C@_0BI@LEEHMLLD@?1KanturuBattleNightmare?$AA@
CONST	SEGMENT
??_C@_0BI@LEEHMLLD@?1KanturuBattleNightmare?$AA@ DB '/KanturuBattleNightm'
	DB	'are', 00H					; `string'
CONST	ENDS
;	COMDAT ??_C@_09MFPDNNIB@?1?$LI?$LG?$LO?$NP?$LN?G?F?P?$AA@
CONST	SEGMENT
??_C@_09MFPDNNIB@?1?$LI?$LG?$LO?$NP?$LN?G?F?P?$AA@ DB '/', 0b8H, 0b6H, 0beH
	DB	0dfH, 0bdH, 0c7H, 0c6H, 0d0H, 00H		; `string'
CONST	ENDS
;	COMDAT ??_C@_0L@IFJJFLKM@?1?$LI?$LG?$LO?$NP3?$LM?$LK?$LA?x?$AA@
CONST	SEGMENT
??_C@_0L@IFJJFLKM@?1?$LI?$LG?$LO?$NP3?$LM?$LK?$LA?x?$AA@ DB '/', 0b8H, 0b6H
	DB	0beH, 0dfH, '3', 0bcH, 0baH, 0b0H, 0f8H, 00H	; `string'
CONST	ENDS
;	COMDAT ??_C@_06LNGLCLMM@?1?$LI?$LG?$LO?$NP3?$AA@
CONST	SEGMENT
??_C@_06LNGLCLMM@?1?$LI?$LG?$LO?$NP3?$AA@ DB '/', 0b8H, 0b6H, 0beH, 0dfH, '3'
	DB	00H						; `string'
CONST	ENDS
;	COMDAT ??_C@_0N@HKPBAKFK@?1?$LI?$LG?$LO?$NP?$LI?s?$LN?$LK?E?M3?$AA@
CONST	SEGMENT
??_C@_0N@HKPBAKFK@?1?$LI?$LG?$LO?$NP?$LI?s?$LN?$LK?E?M3?$AA@ DB '/', 0b8H
	DB	0b6H, 0beH, 0dfH, 0b8H, 0f3H, 0bdH, 0baH, 0c5H, 0cdH, '3', 00H ; `string'
CONST	ENDS
;	COMDAT ??_C@_06KEHABKIN@?1?$LI?$LG?$LO?$NP2?$AA@
CONST	SEGMENT
??_C@_06KEHABKIN@?1?$LI?$LG?$LO?$NP2?$AA@ DB '/', 0b8H, 0b6H, 0beH, 0dfH, '2'
	DB	00H						; `string'
CONST	ENDS
;	COMDAT ??_C@_0N@GDOKDLBL@?1?$LI?$LG?$LO?$NP?$LI?s?$LN?$LK?E?M2?$AA@
CONST	SEGMENT
??_C@_0N@GDOKDLBL@?1?$LI?$LG?$LO?$NP?$LI?s?$LN?$LK?E?M2?$AA@ DB '/', 0b8H
	DB	0b6H, 0beH, 0dfH, 0b8H, 0f3H, 0bdH, 0baH, 0c5H, 0cdH, '2', 00H ; `string'
CONST	ENDS
;	COMDAT ??_C@_06IPFNEJEO@?1?$LI?$LG?$LO?$NP1?$AA@
CONST	SEGMENT
??_C@_06IPFNEJEO@?1?$LI?$LG?$LO?$NP1?$AA@ DB '/', 0b8H, 0b6H, 0beH, 0dfH, '1'
	DB	00H						; `string'
CONST	ENDS
;	COMDAT ??_C@_0N@EIMHGINI@?1?$LI?$LG?$LO?$NP?$LI?s?$LN?$LK?E?M1?$AA@
CONST	SEGMENT
??_C@_0N@EIMHGINI@?1?$LI?$LG?$LO?$NP?$LI?s?$LN?$LK?E?M1?$AA@ DB '/', 0b8H
	DB	0b6H, 0beH, 0dfH, 0b8H, 0f3H, 0bdH, 0baH, 0c5H, 0cdH, '1', 00H ; `string'
CONST	ENDS
;	COMDAT ??_C@_0BD@ELNPBAOF@?1KanturuBattleMaya?$AA@
CONST	SEGMENT
??_C@_0BD@ELNPBAOF@?1KanturuBattleMaya?$AA@ DB '/KanturuBattleMaya', 00H ; `string'
CONST	ENDS
;	COMDAT ??_C@_0O@GJDLFDLK@?1KanturuReady?$AA@
CONST	SEGMENT
??_C@_0O@GJDLFDLK@?1KanturuReady?$AA@ DB '/KanturuReady', 00H ; `string'
CONST	ENDS
;	COMDAT ??_C@_0O@FADBPHEL@?1?D?o?$LF?P?H?$LI?$LK?$LJ?$LN?C?$LA?$KD?$AA@
CONST	SEGMENT
??_C@_0O@FADBPHEL@?1?D?o?$LF?P?H?$LI?$LK?$LJ?$LN?C?$LA?$KD?$AA@ DB '/', 0c4H
	DB	0efH, 0b5H, 0d0H, 0c8H, 0b8H, 0baH, 0b9H, 0bdH, 0c3H, 0b0H, 0a3H
	DB	00H						; `string'
CONST	ENDS
;	COMDAT ??_C@_0BA@DDJDJNOB@?1?D?o?$LF?P?C?J?$LE?g?H?$LI?$LK?$LJ?$LH?$KO?$AA@
CONST	SEGMENT
??_C@_0BA@DDJDJNOB@?1?D?o?$LF?P?C?J?$LE?g?H?$LI?$LK?$LJ?$LH?$KO?$AA@ DB '/'
	DB	0c4H, 0efH, 0b5H, 0d0H, 0c3H, 0caH, 0b4H, 0e7H, 0c8H, 0b8H, 0baH
	DB	0b9H, 0b7H, 0aeH, 00H			; `string'
CONST	ENDS
;	COMDAT ??_C@_0M@POALKPHK@?1?D?o?$LF?P?H?$LI?$LK?$LJ?$LH?$KO?$AA@
CONST	SEGMENT
??_C@_0M@POALKPHK@?1?D?o?$LF?P?H?$LI?$LK?$LJ?$LH?$KO?$AA@ DB '/', 0c4H, 0efH
	DB	0b5H, 0d0H, 0c8H, 0b8H, 0baH, 0b9H, 0b7H, 0aeH, 00H ; `string'
CONST	ENDS
;	COMDAT ??_C@_07ILODLNBC@?1?D?o?$LF?P?G?G?$AA@
CONST	SEGMENT
??_C@_07ILODLNBC@?1?D?o?$LF?P?G?G?$AA@ DB '/', 0c4H, 0efH, 0b5H, 0d0H, 0c7H
	DB	0c7H, 00H					; `string'
CONST	ENDS
;	COMDAT ??_C@_09OAOHLHFO@?1?D?o?$LF?P?$LL?s?E?B?$AA@
CONST	SEGMENT
??_C@_09OAOHLHFO@?1?D?o?$LF?P?$LL?s?E?B?$AA@ DB '/', 0c4H, 0efH, 0b5H, 0d0H
	DB	0bbH, 0f3H, 0c5H, 0c2H, 00H			; `string'
; Function compile flags: /Ogtp
; File c:\users\faelhs\mu-1.1\emu - gameserver sapphire s0\gameserver\gmmng.cpp
CONST	ENDS
;	COMDAT ?Init@CGMMng@@QAEXXZ
_TEXT	SEGMENT
?Init@CGMMng@@QAEXXZ PROC				; CGMMng::Init, COMDAT
; _this$ = ecx

; 34   : {

  00000	56		 push	 esi
  00001	8b f1		 mov	 esi, ecx

; 35   : 	this->cCommand.Init();
; 36   : 
; 37   : 	this->cCommand.Add(lMsg.Get(MSGGET(11, 184)), 100);

  00003	68 b8 0b 00 00	 push	 3000			; 00000bb8H
  00008	b9 00 00 00 00	 mov	 ecx, OFFSET ?lMsg@@3VCMsg@@A ; lMsg
  0000d	c7 86 d4 07 00
	00 ff ff ff ff	 mov	 DWORD PTR [esi+2004], -1
  00017	c7 86 64 09 00
	00 00 00 00 00	 mov	 DWORD PTR [esi+2404], 0
  00021	e8 00 00 00 00	 call	 ?Get@CMsg@@QAEPADH@Z	; CMsg::Get
  00026	8b 8e 64 09 00
	00		 mov	 ecx, DWORD PTR [esi+2404]
  0002c	8d 0c 89	 lea	 ecx, DWORD PTR [ecx+ecx*4]
  0002f	8d 54 8e 04	 lea	 edx, DWORD PTR [esi+ecx*4+4]
$LL11@Init:
  00033	8a 08		 mov	 cl, BYTE PTR [eax]
  00035	88 0a		 mov	 BYTE PTR [edx], cl
  00037	40		 inc	 eax
  00038	42		 inc	 edx
  00039	84 c9		 test	 cl, cl
  0003b	75 f6		 jne	 SHORT $LL11@Init
  0003d	8b 96 64 09 00
	00		 mov	 edx, DWORD PTR [esi+2404]
  00043	c7 84 96 d4 07
	00 00 64 00 00
	00		 mov	 DWORD PTR [esi+edx*4+2004], 100 ; 00000064H
  0004e	8b 86 64 09 00
	00		 mov	 eax, DWORD PTR [esi+2404]
  00054	83 f8 63	 cmp	 eax, 99			; 00000063H
  00057	7d 07		 jge	 SHORT $LN8@Init
  00059	40		 inc	 eax
  0005a	89 86 64 09 00
	00		 mov	 DWORD PTR [esi+2404], eax
$LN8@Init:

; 38   : 	this->cCommand.Add(lMsg.Get(MSGGET(11, 185)), 101);

  00060	68 b9 0b 00 00	 push	 3001			; 00000bb9H
  00065	b9 00 00 00 00	 mov	 ecx, OFFSET ?lMsg@@3VCMsg@@A ; lMsg
  0006a	e8 00 00 00 00	 call	 ?Get@CMsg@@QAEPADH@Z	; CMsg::Get
  0006f	8b 8e 64 09 00
	00		 mov	 ecx, DWORD PTR [esi+2404]
  00075	8d 0c 89	 lea	 ecx, DWORD PTR [ecx+ecx*4]
  00078	8d 54 8e 04	 lea	 edx, DWORD PTR [esi+ecx*4+4]
  0007c	8d 64 24 00	 npad	 4
$LL15@Init:
  00080	8a 08		 mov	 cl, BYTE PTR [eax]
  00082	88 0a		 mov	 BYTE PTR [edx], cl
  00084	40		 inc	 eax
  00085	42		 inc	 edx
  00086	84 c9		 test	 cl, cl
  00088	75 f6		 jne	 SHORT $LL15@Init
  0008a	8b 96 64 09 00
	00		 mov	 edx, DWORD PTR [esi+2404]
  00090	c7 84 96 d4 07
	00 00 65 00 00
	00		 mov	 DWORD PTR [esi+edx*4+2004], 101 ; 00000065H
  0009b	8b 86 64 09 00
	00		 mov	 eax, DWORD PTR [esi+2404]
  000a1	83 f8 63	 cmp	 eax, 99			; 00000063H
  000a4	7d 07		 jge	 SHORT $LN12@Init
  000a6	40		 inc	 eax
  000a7	89 86 64 09 00
	00		 mov	 DWORD PTR [esi+2404], eax
$LN12@Init:

; 39   : 	this->cCommand.Add(lMsg.Get(MSGGET(11, 186)), 102);

  000ad	68 ba 0b 00 00	 push	 3002			; 00000bbaH
  000b2	b9 00 00 00 00	 mov	 ecx, OFFSET ?lMsg@@3VCMsg@@A ; lMsg
  000b7	e8 00 00 00 00	 call	 ?Get@CMsg@@QAEPADH@Z	; CMsg::Get
  000bc	8b 8e 64 09 00
	00		 mov	 ecx, DWORD PTR [esi+2404]
  000c2	8d 0c 89	 lea	 ecx, DWORD PTR [ecx+ecx*4]
  000c5	8d 54 8e 04	 lea	 edx, DWORD PTR [esi+ecx*4+4]
  000c9	8d a4 24 00 00
	00 00		 npad	 7
$LL19@Init:
  000d0	8a 08		 mov	 cl, BYTE PTR [eax]
  000d2	88 0a		 mov	 BYTE PTR [edx], cl
  000d4	40		 inc	 eax
  000d5	42		 inc	 edx
  000d6	84 c9		 test	 cl, cl
  000d8	75 f6		 jne	 SHORT $LL19@Init
  000da	8b 96 64 09 00
	00		 mov	 edx, DWORD PTR [esi+2404]
  000e0	c7 84 96 d4 07
	00 00 66 00 00
	00		 mov	 DWORD PTR [esi+edx*4+2004], 102 ; 00000066H
  000eb	8b 86 64 09 00
	00		 mov	 eax, DWORD PTR [esi+2404]
  000f1	83 f8 63	 cmp	 eax, 99			; 00000063H
  000f4	7d 07		 jge	 SHORT $LN16@Init
  000f6	40		 inc	 eax
  000f7	89 86 64 09 00
	00		 mov	 DWORD PTR [esi+2404], eax
$LN16@Init:

; 40   : 	this->cCommand.Add(lMsg.Get(MSGGET(11, 187)), 103);

  000fd	68 bb 0b 00 00	 push	 3003			; 00000bbbH
  00102	b9 00 00 00 00	 mov	 ecx, OFFSET ?lMsg@@3VCMsg@@A ; lMsg
  00107	e8 00 00 00 00	 call	 ?Get@CMsg@@QAEPADH@Z	; CMsg::Get
  0010c	8b 8e 64 09 00
	00		 mov	 ecx, DWORD PTR [esi+2404]
  00112	8d 0c 89	 lea	 ecx, DWORD PTR [ecx+ecx*4]
  00115	8d 54 8e 04	 lea	 edx, DWORD PTR [esi+ecx*4+4]
  00119	8d a4 24 00 00
	00 00		 npad	 7
$LL23@Init:
  00120	8a 08		 mov	 cl, BYTE PTR [eax]
  00122	88 0a		 mov	 BYTE PTR [edx], cl
  00124	40		 inc	 eax
  00125	42		 inc	 edx
  00126	84 c9		 test	 cl, cl
  00128	75 f6		 jne	 SHORT $LL23@Init
  0012a	8b 96 64 09 00
	00		 mov	 edx, DWORD PTR [esi+2404]
  00130	c7 84 96 d4 07
	00 00 67 00 00
	00		 mov	 DWORD PTR [esi+edx*4+2004], 103 ; 00000067H
  0013b	8b 86 64 09 00
	00		 mov	 eax, DWORD PTR [esi+2404]
  00141	83 f8 63	 cmp	 eax, 99			; 00000063H
  00144	7d 07		 jge	 SHORT $LN20@Init
  00146	40		 inc	 eax
  00147	89 86 64 09 00
	00		 mov	 DWORD PTR [esi+2404], eax
$LN20@Init:

; 41   : 
; 42   : 	this->cCommand.Add(lMsg.Get(MSGGET(11, 188)), 105);

  0014d	68 bc 0b 00 00	 push	 3004			; 00000bbcH
  00152	b9 00 00 00 00	 mov	 ecx, OFFSET ?lMsg@@3VCMsg@@A ; lMsg
  00157	e8 00 00 00 00	 call	 ?Get@CMsg@@QAEPADH@Z	; CMsg::Get
  0015c	8b 8e 64 09 00
	00		 mov	 ecx, DWORD PTR [esi+2404]
  00162	8d 0c 89	 lea	 ecx, DWORD PTR [ecx+ecx*4]
  00165	8d 54 8e 04	 lea	 edx, DWORD PTR [esi+ecx*4+4]
  00169	8d a4 24 00 00
	00 00		 npad	 7
$LL27@Init:
  00170	8a 08		 mov	 cl, BYTE PTR [eax]
  00172	88 0a		 mov	 BYTE PTR [edx], cl
  00174	40		 inc	 eax
  00175	42		 inc	 edx
  00176	84 c9		 test	 cl, cl
  00178	75 f6		 jne	 SHORT $LL27@Init
  0017a	8b 96 64 09 00
	00		 mov	 edx, DWORD PTR [esi+2404]
  00180	c7 84 96 d4 07
	00 00 69 00 00
	00		 mov	 DWORD PTR [esi+edx*4+2004], 105 ; 00000069H
  0018b	8b 86 64 09 00
	00		 mov	 eax, DWORD PTR [esi+2404]
  00191	83 f8 63	 cmp	 eax, 99			; 00000063H
  00194	7d 07		 jge	 SHORT $LN24@Init
  00196	40		 inc	 eax
  00197	89 86 64 09 00
	00		 mov	 DWORD PTR [esi+2404], eax
$LN24@Init:

; 43   : 	this->cCommand.Add(lMsg.Get(MSGGET(11, 189)), 104);

  0019d	68 bd 0b 00 00	 push	 3005			; 00000bbdH
  001a2	b9 00 00 00 00	 mov	 ecx, OFFSET ?lMsg@@3VCMsg@@A ; lMsg
  001a7	e8 00 00 00 00	 call	 ?Get@CMsg@@QAEPADH@Z	; CMsg::Get
  001ac	8b 8e 64 09 00
	00		 mov	 ecx, DWORD PTR [esi+2404]
  001b2	8d 0c 89	 lea	 ecx, DWORD PTR [ecx+ecx*4]
  001b5	8d 54 8e 04	 lea	 edx, DWORD PTR [esi+ecx*4+4]
  001b9	8d a4 24 00 00
	00 00		 npad	 7
$LL31@Init:
  001c0	8a 08		 mov	 cl, BYTE PTR [eax]
  001c2	88 0a		 mov	 BYTE PTR [edx], cl
  001c4	40		 inc	 eax
  001c5	42		 inc	 edx
  001c6	84 c9		 test	 cl, cl
  001c8	75 f6		 jne	 SHORT $LL31@Init
  001ca	8b 96 64 09 00
	00		 mov	 edx, DWORD PTR [esi+2404]
  001d0	c7 84 96 d4 07
	00 00 68 00 00
	00		 mov	 DWORD PTR [esi+edx*4+2004], 104 ; 00000068H
  001db	8b 86 64 09 00
	00		 mov	 eax, DWORD PTR [esi+2404]
  001e1	83 f8 63	 cmp	 eax, 99			; 00000063H
  001e4	7d 07		 jge	 SHORT $LN28@Init
  001e6	40		 inc	 eax
  001e7	89 86 64 09 00
	00		 mov	 DWORD PTR [esi+2404], eax
$LN28@Init:

; 44   : 
; 45   : 	this->cCommand.Add(lMsg.Get(MSGGET(11, 190)), 106);

  001ed	68 be 0b 00 00	 push	 3006			; 00000bbeH
  001f2	b9 00 00 00 00	 mov	 ecx, OFFSET ?lMsg@@3VCMsg@@A ; lMsg
  001f7	e8 00 00 00 00	 call	 ?Get@CMsg@@QAEPADH@Z	; CMsg::Get
  001fc	8b 8e 64 09 00
	00		 mov	 ecx, DWORD PTR [esi+2404]
  00202	8d 0c 89	 lea	 ecx, DWORD PTR [ecx+ecx*4]
  00205	8d 54 8e 04	 lea	 edx, DWORD PTR [esi+ecx*4+4]
  00209	8d a4 24 00 00
	00 00		 npad	 7
$LL35@Init:
  00210	8a 08		 mov	 cl, BYTE PTR [eax]
  00212	88 0a		 mov	 BYTE PTR [edx], cl
  00214	40		 inc	 eax
  00215	42		 inc	 edx
  00216	84 c9		 test	 cl, cl
  00218	75 f6		 jne	 SHORT $LL35@Init
  0021a	8b 96 64 09 00
	00		 mov	 edx, DWORD PTR [esi+2404]
  00220	c7 84 96 d4 07
	00 00 6a 00 00
	00		 mov	 DWORD PTR [esi+edx*4+2004], 106 ; 0000006aH
  0022b	8b 86 64 09 00
	00		 mov	 eax, DWORD PTR [esi+2404]
  00231	83 f8 63	 cmp	 eax, 99			; 00000063H
  00234	7d 07		 jge	 SHORT $LN32@Init
  00236	40		 inc	 eax
  00237	89 86 64 09 00
	00		 mov	 DWORD PTR [esi+2404], eax
$LN32@Init:

; 46   : 
; 47   : 	this->cCommand.Add(lMsg.Get(MSGGET(11, 191)), 108);

  0023d	68 bf 0b 00 00	 push	 3007			; 00000bbfH
  00242	b9 00 00 00 00	 mov	 ecx, OFFSET ?lMsg@@3VCMsg@@A ; lMsg
  00247	e8 00 00 00 00	 call	 ?Get@CMsg@@QAEPADH@Z	; CMsg::Get
  0024c	8b 8e 64 09 00
	00		 mov	 ecx, DWORD PTR [esi+2404]
  00252	8d 0c 89	 lea	 ecx, DWORD PTR [ecx+ecx*4]
  00255	8d 54 8e 04	 lea	 edx, DWORD PTR [esi+ecx*4+4]
  00259	8d a4 24 00 00
	00 00		 npad	 7
$LL39@Init:
  00260	8a 08		 mov	 cl, BYTE PTR [eax]
  00262	88 0a		 mov	 BYTE PTR [edx], cl
  00264	40		 inc	 eax
  00265	42		 inc	 edx
  00266	84 c9		 test	 cl, cl
  00268	75 f6		 jne	 SHORT $LL39@Init
  0026a	8b 96 64 09 00
	00		 mov	 edx, DWORD PTR [esi+2404]
  00270	c7 84 96 d4 07
	00 00 6c 00 00
	00		 mov	 DWORD PTR [esi+edx*4+2004], 108 ; 0000006cH
  0027b	8b 86 64 09 00
	00		 mov	 eax, DWORD PTR [esi+2404]
  00281	83 f8 63	 cmp	 eax, 99			; 00000063H
  00284	7d 07		 jge	 SHORT $LN36@Init
  00286	40		 inc	 eax
  00287	89 86 64 09 00
	00		 mov	 DWORD PTR [esi+2404], eax
$LN36@Init:

; 48   : 
; 49   : 	this->cCommand.Add(lMsg.Get(MSGGET(11, 192)), 112);

  0028d	68 c0 0b 00 00	 push	 3008			; 00000bc0H
  00292	b9 00 00 00 00	 mov	 ecx, OFFSET ?lMsg@@3VCMsg@@A ; lMsg
  00297	e8 00 00 00 00	 call	 ?Get@CMsg@@QAEPADH@Z	; CMsg::Get
  0029c	8b 8e 64 09 00
	00		 mov	 ecx, DWORD PTR [esi+2404]
  002a2	8d 0c 89	 lea	 ecx, DWORD PTR [ecx+ecx*4]
  002a5	8d 54 8e 04	 lea	 edx, DWORD PTR [esi+ecx*4+4]
  002a9	8d a4 24 00 00
	00 00		 npad	 7
$LL43@Init:
  002b0	8a 08		 mov	 cl, BYTE PTR [eax]
  002b2	88 0a		 mov	 BYTE PTR [edx], cl
  002b4	40		 inc	 eax
  002b5	42		 inc	 edx
  002b6	84 c9		 test	 cl, cl
  002b8	75 f6		 jne	 SHORT $LL43@Init
  002ba	8b 96 64 09 00
	00		 mov	 edx, DWORD PTR [esi+2404]
  002c0	c7 84 96 d4 07
	00 00 70 00 00
	00		 mov	 DWORD PTR [esi+edx*4+2004], 112 ; 00000070H
  002cb	8b 86 64 09 00
	00		 mov	 eax, DWORD PTR [esi+2404]
  002d1	83 f8 63	 cmp	 eax, 99			; 00000063H
  002d4	7d 07		 jge	 SHORT $LN40@Init
  002d6	40		 inc	 eax
  002d7	89 86 64 09 00
	00		 mov	 DWORD PTR [esi+2404], eax
$LN40@Init:

; 50   : 	this->cCommand.Add(lMsg.Get(MSGGET(11, 193)), 111);

  002dd	68 c1 0b 00 00	 push	 3009			; 00000bc1H
  002e2	b9 00 00 00 00	 mov	 ecx, OFFSET ?lMsg@@3VCMsg@@A ; lMsg
  002e7	e8 00 00 00 00	 call	 ?Get@CMsg@@QAEPADH@Z	; CMsg::Get
  002ec	8b 8e 64 09 00
	00		 mov	 ecx, DWORD PTR [esi+2404]
  002f2	8d 0c 89	 lea	 ecx, DWORD PTR [ecx+ecx*4]
  002f5	8d 54 8e 04	 lea	 edx, DWORD PTR [esi+ecx*4+4]
  002f9	8d a4 24 00 00
	00 00		 npad	 7
$LL47@Init:
  00300	8a 08		 mov	 cl, BYTE PTR [eax]
  00302	88 0a		 mov	 BYTE PTR [edx], cl
  00304	40		 inc	 eax
  00305	42		 inc	 edx
  00306	84 c9		 test	 cl, cl
  00308	75 f6		 jne	 SHORT $LL47@Init
  0030a	8b 96 64 09 00
	00		 mov	 edx, DWORD PTR [esi+2404]
  00310	c7 84 96 d4 07
	00 00 6f 00 00
	00		 mov	 DWORD PTR [esi+edx*4+2004], 111 ; 0000006fH
  0031b	8b 86 64 09 00
	00		 mov	 eax, DWORD PTR [esi+2404]
  00321	83 f8 63	 cmp	 eax, 99			; 00000063H
  00324	7d 07		 jge	 SHORT $LN44@Init
  00326	40		 inc	 eax
  00327	89 86 64 09 00
	00		 mov	 DWORD PTR [esi+2404], eax
$LN44@Init:

; 51   : 
; 52   : 	this->cCommand.Add(lMsg.Get(MSGGET(11, 194)), 109);

  0032d	68 c2 0b 00 00	 push	 3010			; 00000bc2H
  00332	b9 00 00 00 00	 mov	 ecx, OFFSET ?lMsg@@3VCMsg@@A ; lMsg
  00337	e8 00 00 00 00	 call	 ?Get@CMsg@@QAEPADH@Z	; CMsg::Get
  0033c	8b 8e 64 09 00
	00		 mov	 ecx, DWORD PTR [esi+2404]
  00342	8d 0c 89	 lea	 ecx, DWORD PTR [ecx+ecx*4]
  00345	8d 54 8e 04	 lea	 edx, DWORD PTR [esi+ecx*4+4]
  00349	8d a4 24 00 00
	00 00		 npad	 7
$LL51@Init:
  00350	8a 08		 mov	 cl, BYTE PTR [eax]
  00352	88 0a		 mov	 BYTE PTR [edx], cl
  00354	40		 inc	 eax
  00355	42		 inc	 edx
  00356	84 c9		 test	 cl, cl
  00358	75 f6		 jne	 SHORT $LL51@Init
  0035a	8b 96 64 09 00
	00		 mov	 edx, DWORD PTR [esi+2404]
  00360	c7 84 96 d4 07
	00 00 6d 00 00
	00		 mov	 DWORD PTR [esi+edx*4+2004], 109 ; 0000006dH
  0036b	8b 86 64 09 00
	00		 mov	 eax, DWORD PTR [esi+2404]
  00371	83 f8 63	 cmp	 eax, 99			; 00000063H
  00374	7d 07		 jge	 SHORT $LN48@Init
  00376	40		 inc	 eax
  00377	89 86 64 09 00
	00		 mov	 DWORD PTR [esi+2404], eax
$LN48@Init:

; 53   : 	this->cCommand.Add(lMsg.Get(MSGGET(11, 195)), 110);

  0037d	68 c3 0b 00 00	 push	 3011			; 00000bc3H
  00382	b9 00 00 00 00	 mov	 ecx, OFFSET ?lMsg@@3VCMsg@@A ; lMsg
  00387	e8 00 00 00 00	 call	 ?Get@CMsg@@QAEPADH@Z	; CMsg::Get
  0038c	8b 8e 64 09 00
	00		 mov	 ecx, DWORD PTR [esi+2404]
  00392	8d 0c 89	 lea	 ecx, DWORD PTR [ecx+ecx*4]
  00395	8d 54 8e 04	 lea	 edx, DWORD PTR [esi+ecx*4+4]
  00399	8d a4 24 00 00
	00 00		 npad	 7
$LL55@Init:
  003a0	8a 08		 mov	 cl, BYTE PTR [eax]
  003a2	88 0a		 mov	 BYTE PTR [edx], cl
  003a4	40		 inc	 eax
  003a5	42		 inc	 edx
  003a6	84 c9		 test	 cl, cl
  003a8	75 f6		 jne	 SHORT $LL55@Init
  003aa	8b 96 64 09 00
	00		 mov	 edx, DWORD PTR [esi+2404]
  003b0	c7 84 96 d4 07
	00 00 6e 00 00
	00		 mov	 DWORD PTR [esi+edx*4+2004], 110 ; 0000006eH
  003bb	8b 86 64 09 00
	00		 mov	 eax, DWORD PTR [esi+2404]
  003c1	83 f8 63	 cmp	 eax, 99			; 00000063H
  003c4	7d 07		 jge	 SHORT $LN52@Init
  003c6	40		 inc	 eax
  003c7	89 86 64 09 00
	00		 mov	 DWORD PTR [esi+2404], eax
$LN52@Init:

; 54   : 
; 55   : 	this->cCommand.Add(lMsg.Get(MSGGET(11, 197)), 201);

  003cd	68 c5 0b 00 00	 push	 3013			; 00000bc5H
  003d2	b9 00 00 00 00	 mov	 ecx, OFFSET ?lMsg@@3VCMsg@@A ; lMsg
  003d7	e8 00 00 00 00	 call	 ?Get@CMsg@@QAEPADH@Z	; CMsg::Get
  003dc	8b 8e 64 09 00
	00		 mov	 ecx, DWORD PTR [esi+2404]
  003e2	8d 0c 89	 lea	 ecx, DWORD PTR [ecx+ecx*4]
  003e5	8d 54 8e 04	 lea	 edx, DWORD PTR [esi+ecx*4+4]
  003e9	8d a4 24 00 00
	00 00		 npad	 7
$LL59@Init:
  003f0	8a 08		 mov	 cl, BYTE PTR [eax]
  003f2	88 0a		 mov	 BYTE PTR [edx], cl
  003f4	40		 inc	 eax
  003f5	42		 inc	 edx
  003f6	84 c9		 test	 cl, cl
  003f8	75 f6		 jne	 SHORT $LL59@Init
  003fa	8b 96 64 09 00
	00		 mov	 edx, DWORD PTR [esi+2404]
  00400	c7 84 96 d4 07
	00 00 c9 00 00
	00		 mov	 DWORD PTR [esi+edx*4+2004], 201 ; 000000c9H
  0040b	8b 86 64 09 00
	00		 mov	 eax, DWORD PTR [esi+2404]
  00411	83 f8 63	 cmp	 eax, 99			; 00000063H
  00414	7d 07		 jge	 SHORT $LN56@Init
  00416	40		 inc	 eax
  00417	89 86 64 09 00
	00		 mov	 DWORD PTR [esi+2404], eax
$LN56@Init:

; 56   : 	this->cCommand.Add(lMsg.Get(MSGGET(11, 198)), 200);

  0041d	68 c6 0b 00 00	 push	 3014			; 00000bc6H
  00422	b9 00 00 00 00	 mov	 ecx, OFFSET ?lMsg@@3VCMsg@@A ; lMsg
  00427	e8 00 00 00 00	 call	 ?Get@CMsg@@QAEPADH@Z	; CMsg::Get
  0042c	8b 8e 64 09 00
	00		 mov	 ecx, DWORD PTR [esi+2404]
  00432	8d 0c 89	 lea	 ecx, DWORD PTR [ecx+ecx*4]
  00435	8d 54 8e 04	 lea	 edx, DWORD PTR [esi+ecx*4+4]
  00439	8d a4 24 00 00
	00 00		 npad	 7
$LL63@Init:
  00440	8a 08		 mov	 cl, BYTE PTR [eax]
  00442	88 0a		 mov	 BYTE PTR [edx], cl
  00444	40		 inc	 eax
  00445	42		 inc	 edx
  00446	84 c9		 test	 cl, cl
  00448	75 f6		 jne	 SHORT $LL63@Init
  0044a	8b 96 64 09 00
	00		 mov	 edx, DWORD PTR [esi+2404]
  00450	c7 84 96 d4 07
	00 00 c8 00 00
	00		 mov	 DWORD PTR [esi+edx*4+2004], 200 ; 000000c8H
  0045b	8b 86 64 09 00
	00		 mov	 eax, DWORD PTR [esi+2404]
  00461	83 f8 63	 cmp	 eax, 99			; 00000063H
  00464	7d 07		 jge	 SHORT $LN60@Init
  00466	40		 inc	 eax
  00467	89 86 64 09 00
	00		 mov	 DWORD PTR [esi+2404], eax
$LN60@Init:

; 57   : 
; 58   : 	this->cCommand.Add(lMsg.Get(MSGGET(11, 199)), 202);

  0046d	68 c7 0b 00 00	 push	 3015			; 00000bc7H
  00472	b9 00 00 00 00	 mov	 ecx, OFFSET ?lMsg@@3VCMsg@@A ; lMsg
  00477	e8 00 00 00 00	 call	 ?Get@CMsg@@QAEPADH@Z	; CMsg::Get
  0047c	8b 8e 64 09 00
	00		 mov	 ecx, DWORD PTR [esi+2404]
  00482	8d 0c 89	 lea	 ecx, DWORD PTR [ecx+ecx*4]
  00485	8d 54 8e 04	 lea	 edx, DWORD PTR [esi+ecx*4+4]
  00489	8d a4 24 00 00
	00 00		 npad	 7
$LL67@Init:
  00490	8a 08		 mov	 cl, BYTE PTR [eax]
  00492	88 0a		 mov	 BYTE PTR [edx], cl
  00494	40		 inc	 eax
  00495	42		 inc	 edx
  00496	84 c9		 test	 cl, cl
  00498	75 f6		 jne	 SHORT $LL67@Init
  0049a	8b 96 64 09 00
	00		 mov	 edx, DWORD PTR [esi+2404]
  004a0	c7 84 96 d4 07
	00 00 ca 00 00
	00		 mov	 DWORD PTR [esi+edx*4+2004], 202 ; 000000caH
  004ab	8b 86 64 09 00
	00		 mov	 eax, DWORD PTR [esi+2404]
  004b1	83 f8 63	 cmp	 eax, 99			; 00000063H
  004b4	7d 07		 jge	 SHORT $LN64@Init
  004b6	40		 inc	 eax
  004b7	89 86 64 09 00
	00		 mov	 DWORD PTR [esi+2404], eax
$LN64@Init:

; 59   : 	this->cCommand.Add(lMsg.Get(MSGGET(11, 200)), 203);

  004bd	68 c8 0b 00 00	 push	 3016			; 00000bc8H
  004c2	b9 00 00 00 00	 mov	 ecx, OFFSET ?lMsg@@3VCMsg@@A ; lMsg
  004c7	e8 00 00 00 00	 call	 ?Get@CMsg@@QAEPADH@Z	; CMsg::Get
  004cc	8b 8e 64 09 00
	00		 mov	 ecx, DWORD PTR [esi+2404]
  004d2	8d 0c 89	 lea	 ecx, DWORD PTR [ecx+ecx*4]
  004d5	8d 54 8e 04	 lea	 edx, DWORD PTR [esi+ecx*4+4]
  004d9	8d a4 24 00 00
	00 00		 npad	 7
$LL71@Init:
  004e0	8a 08		 mov	 cl, BYTE PTR [eax]
  004e2	88 0a		 mov	 BYTE PTR [edx], cl
  004e4	40		 inc	 eax
  004e5	42		 inc	 edx
  004e6	84 c9		 test	 cl, cl
  004e8	75 f6		 jne	 SHORT $LL71@Init
  004ea	8b 96 64 09 00
	00		 mov	 edx, DWORD PTR [esi+2404]
  004f0	c7 84 96 d4 07
	00 00 cb 00 00
	00		 mov	 DWORD PTR [esi+edx*4+2004], 203 ; 000000cbH
  004fb	8b 86 64 09 00
	00		 mov	 eax, DWORD PTR [esi+2404]
  00501	83 f8 63	 cmp	 eax, 99			; 00000063H
  00504	7d 07		 jge	 SHORT $LN68@Init
  00506	40		 inc	 eax
  00507	89 86 64 09 00
	00		 mov	 DWORD PTR [esi+2404], eax
$LN68@Init:

; 60   : 
; 61   : 
; 62   : 	this->cCommand.Add(lMsg.Get(MSGGET(11, 204)), 100);

  0050d	68 cc 0b 00 00	 push	 3020			; 00000bccH
  00512	b9 00 00 00 00	 mov	 ecx, OFFSET ?lMsg@@3VCMsg@@A ; lMsg
  00517	e8 00 00 00 00	 call	 ?Get@CMsg@@QAEPADH@Z	; CMsg::Get
  0051c	8b 8e 64 09 00
	00		 mov	 ecx, DWORD PTR [esi+2404]
  00522	8d 0c 89	 lea	 ecx, DWORD PTR [ecx+ecx*4]
  00525	8d 54 8e 04	 lea	 edx, DWORD PTR [esi+ecx*4+4]
  00529	8d a4 24 00 00
	00 00		 npad	 7
$LL75@Init:
  00530	8a 08		 mov	 cl, BYTE PTR [eax]
  00532	88 0a		 mov	 BYTE PTR [edx], cl
  00534	40		 inc	 eax
  00535	42		 inc	 edx
  00536	84 c9		 test	 cl, cl
  00538	75 f6		 jne	 SHORT $LL75@Init
  0053a	8b 96 64 09 00
	00		 mov	 edx, DWORD PTR [esi+2404]
  00540	c7 84 96 d4 07
	00 00 64 00 00
	00		 mov	 DWORD PTR [esi+edx*4+2004], 100 ; 00000064H
  0054b	8b 86 64 09 00
	00		 mov	 eax, DWORD PTR [esi+2404]
  00551	83 f8 63	 cmp	 eax, 99			; 00000063H
  00554	7d 07		 jge	 SHORT $LN72@Init
  00556	40		 inc	 eax
  00557	89 86 64 09 00
	00		 mov	 DWORD PTR [esi+2404], eax
$LN72@Init:

; 63   : 	this->cCommand.Add(lMsg.Get(MSGGET(11, 205)), 101);

  0055d	68 cd 0b 00 00	 push	 3021			; 00000bcdH
  00562	b9 00 00 00 00	 mov	 ecx, OFFSET ?lMsg@@3VCMsg@@A ; lMsg
  00567	e8 00 00 00 00	 call	 ?Get@CMsg@@QAEPADH@Z	; CMsg::Get
  0056c	8b 8e 64 09 00
	00		 mov	 ecx, DWORD PTR [esi+2404]
  00572	8d 0c 89	 lea	 ecx, DWORD PTR [ecx+ecx*4]
  00575	8d 54 8e 04	 lea	 edx, DWORD PTR [esi+ecx*4+4]
  00579	8d a4 24 00 00
	00 00		 npad	 7
$LL79@Init:
  00580	8a 08		 mov	 cl, BYTE PTR [eax]
  00582	88 0a		 mov	 BYTE PTR [edx], cl
  00584	40		 inc	 eax
  00585	42		 inc	 edx
  00586	84 c9		 test	 cl, cl
  00588	75 f6		 jne	 SHORT $LL79@Init
  0058a	8b 96 64 09 00
	00		 mov	 edx, DWORD PTR [esi+2404]
  00590	c7 84 96 d4 07
	00 00 65 00 00
	00		 mov	 DWORD PTR [esi+edx*4+2004], 101 ; 00000065H
  0059b	8b 86 64 09 00
	00		 mov	 eax, DWORD PTR [esi+2404]
  005a1	83 f8 63	 cmp	 eax, 99			; 00000063H
  005a4	7d 07		 jge	 SHORT $LN76@Init
  005a6	40		 inc	 eax
  005a7	89 86 64 09 00
	00		 mov	 DWORD PTR [esi+2404], eax
$LN76@Init:

; 64   : 	this->cCommand.Add(lMsg.Get(MSGGET(11, 206)), 102);

  005ad	68 ce 0b 00 00	 push	 3022			; 00000bceH
  005b2	b9 00 00 00 00	 mov	 ecx, OFFSET ?lMsg@@3VCMsg@@A ; lMsg
  005b7	e8 00 00 00 00	 call	 ?Get@CMsg@@QAEPADH@Z	; CMsg::Get
  005bc	8b 8e 64 09 00
	00		 mov	 ecx, DWORD PTR [esi+2404]
  005c2	8d 0c 89	 lea	 ecx, DWORD PTR [ecx+ecx*4]
  005c5	8d 54 8e 04	 lea	 edx, DWORD PTR [esi+ecx*4+4]
  005c9	8d a4 24 00 00
	00 00		 npad	 7
$LL83@Init:
  005d0	8a 08		 mov	 cl, BYTE PTR [eax]
  005d2	88 0a		 mov	 BYTE PTR [edx], cl
  005d4	40		 inc	 eax
  005d5	42		 inc	 edx
  005d6	84 c9		 test	 cl, cl
  005d8	75 f6		 jne	 SHORT $LL83@Init
  005da	8b 96 64 09 00
	00		 mov	 edx, DWORD PTR [esi+2404]
  005e0	c7 84 96 d4 07
	00 00 66 00 00
	00		 mov	 DWORD PTR [esi+edx*4+2004], 102 ; 00000066H
  005eb	8b 86 64 09 00
	00		 mov	 eax, DWORD PTR [esi+2404]
  005f1	83 f8 63	 cmp	 eax, 99			; 00000063H
  005f4	7d 07		 jge	 SHORT $LN80@Init
  005f6	40		 inc	 eax
  005f7	89 86 64 09 00
	00		 mov	 DWORD PTR [esi+2404], eax
$LN80@Init:

; 65   : 	this->cCommand.Add(lMsg.Get(MSGGET(11, 207)), 103);

  005fd	68 cf 0b 00 00	 push	 3023			; 00000bcfH
  00602	b9 00 00 00 00	 mov	 ecx, OFFSET ?lMsg@@3VCMsg@@A ; lMsg
  00607	e8 00 00 00 00	 call	 ?Get@CMsg@@QAEPADH@Z	; CMsg::Get
  0060c	8b 8e 64 09 00
	00		 mov	 ecx, DWORD PTR [esi+2404]
  00612	8d 0c 89	 lea	 ecx, DWORD PTR [ecx+ecx*4]
  00615	8d 54 8e 04	 lea	 edx, DWORD PTR [esi+ecx*4+4]
  00619	8d a4 24 00 00
	00 00		 npad	 7
$LL87@Init:
  00620	8a 08		 mov	 cl, BYTE PTR [eax]
  00622	88 0a		 mov	 BYTE PTR [edx], cl
  00624	40		 inc	 eax
  00625	42		 inc	 edx
  00626	84 c9		 test	 cl, cl
  00628	75 f6		 jne	 SHORT $LL87@Init
  0062a	8b 96 64 09 00
	00		 mov	 edx, DWORD PTR [esi+2404]
  00630	c7 84 96 d4 07
	00 00 67 00 00
	00		 mov	 DWORD PTR [esi+edx*4+2004], 103 ; 00000067H
  0063b	8b 86 64 09 00
	00		 mov	 eax, DWORD PTR [esi+2404]
  00641	83 f8 63	 cmp	 eax, 99			; 00000063H
  00644	7d 07		 jge	 SHORT $LN84@Init
  00646	40		 inc	 eax
  00647	89 86 64 09 00
	00		 mov	 DWORD PTR [esi+2404], eax
$LN84@Init:

; 66   : 
; 67   : 	this->cCommand.Add(lMsg.Get(MSGGET(11, 208)), 105);

  0064d	68 d0 0b 00 00	 push	 3024			; 00000bd0H
  00652	b9 00 00 00 00	 mov	 ecx, OFFSET ?lMsg@@3VCMsg@@A ; lMsg
  00657	e8 00 00 00 00	 call	 ?Get@CMsg@@QAEPADH@Z	; CMsg::Get
  0065c	8b 8e 64 09 00
	00		 mov	 ecx, DWORD PTR [esi+2404]
  00662	8d 0c 89	 lea	 ecx, DWORD PTR [ecx+ecx*4]
  00665	8d 54 8e 04	 lea	 edx, DWORD PTR [esi+ecx*4+4]
  00669	8d a4 24 00 00
	00 00		 npad	 7
$LL91@Init:
  00670	8a 08		 mov	 cl, BYTE PTR [eax]
  00672	88 0a		 mov	 BYTE PTR [edx], cl
  00674	40		 inc	 eax
  00675	42		 inc	 edx
  00676	84 c9		 test	 cl, cl
  00678	75 f6		 jne	 SHORT $LL91@Init
  0067a	8b 96 64 09 00
	00		 mov	 edx, DWORD PTR [esi+2404]
  00680	c7 84 96 d4 07
	00 00 69 00 00
	00		 mov	 DWORD PTR [esi+edx*4+2004], 105 ; 00000069H
  0068b	8b 86 64 09 00
	00		 mov	 eax, DWORD PTR [esi+2404]
  00691	83 f8 63	 cmp	 eax, 99			; 00000063H
  00694	7d 07		 jge	 SHORT $LN88@Init
  00696	40		 inc	 eax
  00697	89 86 64 09 00
	00		 mov	 DWORD PTR [esi+2404], eax
$LN88@Init:

; 68   : 	this->cCommand.Add(lMsg.Get(MSGGET(11, 209)), 104);

  0069d	68 d1 0b 00 00	 push	 3025			; 00000bd1H
  006a2	b9 00 00 00 00	 mov	 ecx, OFFSET ?lMsg@@3VCMsg@@A ; lMsg
  006a7	e8 00 00 00 00	 call	 ?Get@CMsg@@QAEPADH@Z	; CMsg::Get
  006ac	8b 8e 64 09 00
	00		 mov	 ecx, DWORD PTR [esi+2404]
  006b2	8d 0c 89	 lea	 ecx, DWORD PTR [ecx+ecx*4]
  006b5	8d 54 8e 04	 lea	 edx, DWORD PTR [esi+ecx*4+4]
  006b9	8d a4 24 00 00
	00 00		 npad	 7
$LL95@Init:
  006c0	8a 08		 mov	 cl, BYTE PTR [eax]
  006c2	88 0a		 mov	 BYTE PTR [edx], cl
  006c4	40		 inc	 eax
  006c5	42		 inc	 edx
  006c6	84 c9		 test	 cl, cl
  006c8	75 f6		 jne	 SHORT $LL95@Init
  006ca	8b 96 64 09 00
	00		 mov	 edx, DWORD PTR [esi+2404]
  006d0	c7 84 96 d4 07
	00 00 68 00 00
	00		 mov	 DWORD PTR [esi+edx*4+2004], 104 ; 00000068H
  006db	8b 86 64 09 00
	00		 mov	 eax, DWORD PTR [esi+2404]
  006e1	83 f8 63	 cmp	 eax, 99			; 00000063H
  006e4	7d 07		 jge	 SHORT $LN92@Init
  006e6	40		 inc	 eax
  006e7	89 86 64 09 00
	00		 mov	 DWORD PTR [esi+2404], eax
$LN92@Init:

; 69   : 
; 70   : 	this->cCommand.Add(lMsg.Get(MSGGET(11, 210)), 106);

  006ed	68 d2 0b 00 00	 push	 3026			; 00000bd2H
  006f2	b9 00 00 00 00	 mov	 ecx, OFFSET ?lMsg@@3VCMsg@@A ; lMsg
  006f7	e8 00 00 00 00	 call	 ?Get@CMsg@@QAEPADH@Z	; CMsg::Get
  006fc	8b 8e 64 09 00
	00		 mov	 ecx, DWORD PTR [esi+2404]
  00702	8d 0c 89	 lea	 ecx, DWORD PTR [ecx+ecx*4]
  00705	8d 54 8e 04	 lea	 edx, DWORD PTR [esi+ecx*4+4]
  00709	8d a4 24 00 00
	00 00		 npad	 7
$LL99@Init:
  00710	8a 08		 mov	 cl, BYTE PTR [eax]
  00712	88 0a		 mov	 BYTE PTR [edx], cl
  00714	40		 inc	 eax
  00715	42		 inc	 edx
  00716	84 c9		 test	 cl, cl
  00718	75 f6		 jne	 SHORT $LL99@Init
  0071a	8b 96 64 09 00
	00		 mov	 edx, DWORD PTR [esi+2404]
  00720	c7 84 96 d4 07
	00 00 6a 00 00
	00		 mov	 DWORD PTR [esi+edx*4+2004], 106 ; 0000006aH
  0072b	8b 86 64 09 00
	00		 mov	 eax, DWORD PTR [esi+2404]
  00731	83 f8 63	 cmp	 eax, 99			; 00000063H
  00734	7d 07		 jge	 SHORT $LN96@Init
  00736	40		 inc	 eax
  00737	89 86 64 09 00
	00		 mov	 DWORD PTR [esi+2404], eax
$LN96@Init:

; 71   : 
; 72   : 	this->cCommand.Add(lMsg.Get(MSGGET(11, 211)), 108);

  0073d	68 d3 0b 00 00	 push	 3027			; 00000bd3H
  00742	b9 00 00 00 00	 mov	 ecx, OFFSET ?lMsg@@3VCMsg@@A ; lMsg
  00747	e8 00 00 00 00	 call	 ?Get@CMsg@@QAEPADH@Z	; CMsg::Get
  0074c	8b 8e 64 09 00
	00		 mov	 ecx, DWORD PTR [esi+2404]
  00752	8d 0c 89	 lea	 ecx, DWORD PTR [ecx+ecx*4]
  00755	8d 54 8e 04	 lea	 edx, DWORD PTR [esi+ecx*4+4]
  00759	8d a4 24 00 00
	00 00		 npad	 7
$LL103@Init:
  00760	8a 08		 mov	 cl, BYTE PTR [eax]
  00762	88 0a		 mov	 BYTE PTR [edx], cl
  00764	40		 inc	 eax
  00765	42		 inc	 edx
  00766	84 c9		 test	 cl, cl
  00768	75 f6		 jne	 SHORT $LL103@Init
  0076a	8b 96 64 09 00
	00		 mov	 edx, DWORD PTR [esi+2404]
  00770	c7 84 96 d4 07
	00 00 6c 00 00
	00		 mov	 DWORD PTR [esi+edx*4+2004], 108 ; 0000006cH
  0077b	8b 86 64 09 00
	00		 mov	 eax, DWORD PTR [esi+2404]
  00781	83 f8 63	 cmp	 eax, 99			; 00000063H
  00784	7d 07		 jge	 SHORT $LN100@Init
  00786	40		 inc	 eax
  00787	89 86 64 09 00
	00		 mov	 DWORD PTR [esi+2404], eax
$LN100@Init:

; 73   : 
; 74   : 	this->cCommand.Add(lMsg.Get(MSGGET(11, 212)), 112);

  0078d	68 d4 0b 00 00	 push	 3028			; 00000bd4H
  00792	b9 00 00 00 00	 mov	 ecx, OFFSET ?lMsg@@3VCMsg@@A ; lMsg
  00797	e8 00 00 00 00	 call	 ?Get@CMsg@@QAEPADH@Z	; CMsg::Get
  0079c	8b 8e 64 09 00
	00		 mov	 ecx, DWORD PTR [esi+2404]
  007a2	8d 0c 89	 lea	 ecx, DWORD PTR [ecx+ecx*4]
  007a5	8d 54 8e 04	 lea	 edx, DWORD PTR [esi+ecx*4+4]
  007a9	8d a4 24 00 00
	00 00		 npad	 7
$LL107@Init:
  007b0	8a 08		 mov	 cl, BYTE PTR [eax]
  007b2	88 0a		 mov	 BYTE PTR [edx], cl
  007b4	40		 inc	 eax
  007b5	42		 inc	 edx
  007b6	84 c9		 test	 cl, cl
  007b8	75 f6		 jne	 SHORT $LL107@Init
  007ba	8b 96 64 09 00
	00		 mov	 edx, DWORD PTR [esi+2404]
  007c0	c7 84 96 d4 07
	00 00 70 00 00
	00		 mov	 DWORD PTR [esi+edx*4+2004], 112 ; 00000070H
  007cb	8b 86 64 09 00
	00		 mov	 eax, DWORD PTR [esi+2404]
  007d1	83 f8 63	 cmp	 eax, 99			; 00000063H
  007d4	7d 07		 jge	 SHORT $LN104@Init
  007d6	40		 inc	 eax
  007d7	89 86 64 09 00
	00		 mov	 DWORD PTR [esi+2404], eax
$LN104@Init:

; 75   : 	this->cCommand.Add(lMsg.Get(MSGGET(11, 213)), 111);

  007dd	68 d5 0b 00 00	 push	 3029			; 00000bd5H
  007e2	b9 00 00 00 00	 mov	 ecx, OFFSET ?lMsg@@3VCMsg@@A ; lMsg
  007e7	e8 00 00 00 00	 call	 ?Get@CMsg@@QAEPADH@Z	; CMsg::Get
  007ec	8b 8e 64 09 00
	00		 mov	 ecx, DWORD PTR [esi+2404]
  007f2	8d 0c 89	 lea	 ecx, DWORD PTR [ecx+ecx*4]
  007f5	8d 54 8e 04	 lea	 edx, DWORD PTR [esi+ecx*4+4]
  007f9	8d a4 24 00 00
	00 00		 npad	 7
$LL111@Init:
  00800	8a 08		 mov	 cl, BYTE PTR [eax]
  00802	88 0a		 mov	 BYTE PTR [edx], cl
  00804	40		 inc	 eax
  00805	42		 inc	 edx
  00806	84 c9		 test	 cl, cl
  00808	75 f6		 jne	 SHORT $LL111@Init
  0080a	8b 96 64 09 00
	00		 mov	 edx, DWORD PTR [esi+2404]
  00810	c7 84 96 d4 07
	00 00 6f 00 00
	00		 mov	 DWORD PTR [esi+edx*4+2004], 111 ; 0000006fH
  0081b	8b 86 64 09 00
	00		 mov	 eax, DWORD PTR [esi+2404]
  00821	83 f8 63	 cmp	 eax, 99			; 00000063H
  00824	7d 07		 jge	 SHORT $LN108@Init
  00826	40		 inc	 eax
  00827	89 86 64 09 00
	00		 mov	 DWORD PTR [esi+2404], eax
$LN108@Init:

; 76   : 
; 77   : 	this->cCommand.Add(lMsg.Get(MSGGET(11, 214)), 109);

  0082d	68 d6 0b 00 00	 push	 3030			; 00000bd6H
  00832	b9 00 00 00 00	 mov	 ecx, OFFSET ?lMsg@@3VCMsg@@A ; lMsg
  00837	e8 00 00 00 00	 call	 ?Get@CMsg@@QAEPADH@Z	; CMsg::Get
  0083c	8b 8e 64 09 00
	00		 mov	 ecx, DWORD PTR [esi+2404]
  00842	8d 0c 89	 lea	 ecx, DWORD PTR [ecx+ecx*4]
  00845	8d 54 8e 04	 lea	 edx, DWORD PTR [esi+ecx*4+4]
  00849	8d a4 24 00 00
	00 00		 npad	 7
$LL115@Init:
  00850	8a 08		 mov	 cl, BYTE PTR [eax]
  00852	88 0a		 mov	 BYTE PTR [edx], cl
  00854	40		 inc	 eax
  00855	42		 inc	 edx
  00856	84 c9		 test	 cl, cl
  00858	75 f6		 jne	 SHORT $LL115@Init
  0085a	8b 96 64 09 00
	00		 mov	 edx, DWORD PTR [esi+2404]
  00860	c7 84 96 d4 07
	00 00 6d 00 00
	00		 mov	 DWORD PTR [esi+edx*4+2004], 109 ; 0000006dH
  0086b	8b 86 64 09 00
	00		 mov	 eax, DWORD PTR [esi+2404]
  00871	83 f8 63	 cmp	 eax, 99			; 00000063H
  00874	7d 07		 jge	 SHORT $LN112@Init
  00876	40		 inc	 eax
  00877	89 86 64 09 00
	00		 mov	 DWORD PTR [esi+2404], eax
$LN112@Init:

; 78   : 	this->cCommand.Add(lMsg.Get(MSGGET(11, 215)), 110);

  0087d	68 d7 0b 00 00	 push	 3031			; 00000bd7H
  00882	b9 00 00 00 00	 mov	 ecx, OFFSET ?lMsg@@3VCMsg@@A ; lMsg
  00887	e8 00 00 00 00	 call	 ?Get@CMsg@@QAEPADH@Z	; CMsg::Get
  0088c	8b 8e 64 09 00
	00		 mov	 ecx, DWORD PTR [esi+2404]
  00892	8d 0c 89	 lea	 ecx, DWORD PTR [ecx+ecx*4]
  00895	8d 54 8e 04	 lea	 edx, DWORD PTR [esi+ecx*4+4]
  00899	8d a4 24 00 00
	00 00		 npad	 7
$LL119@Init:
  008a0	8a 08		 mov	 cl, BYTE PTR [eax]
  008a2	88 0a		 mov	 BYTE PTR [edx], cl
  008a4	40		 inc	 eax
  008a5	42		 inc	 edx
  008a6	84 c9		 test	 cl, cl
  008a8	75 f6		 jne	 SHORT $LL119@Init
  008aa	8b 96 64 09 00
	00		 mov	 edx, DWORD PTR [esi+2404]
  008b0	c7 84 96 d4 07
	00 00 6e 00 00
	00		 mov	 DWORD PTR [esi+edx*4+2004], 110 ; 0000006eH
  008bb	8b 86 64 09 00
	00		 mov	 eax, DWORD PTR [esi+2404]
  008c1	83 f8 63	 cmp	 eax, 99			; 00000063H
  008c4	7d 07		 jge	 SHORT $LN116@Init
  008c6	40		 inc	 eax
  008c7	89 86 64 09 00
	00		 mov	 DWORD PTR [esi+2404], eax
$LN116@Init:

; 79   : 
; 80   : 	this->cCommand.Add(lMsg.Get(MSGGET(11, 217)), 201);

  008cd	68 d9 0b 00 00	 push	 3033			; 00000bd9H
  008d2	b9 00 00 00 00	 mov	 ecx, OFFSET ?lMsg@@3VCMsg@@A ; lMsg
  008d7	e8 00 00 00 00	 call	 ?Get@CMsg@@QAEPADH@Z	; CMsg::Get
  008dc	8b 8e 64 09 00
	00		 mov	 ecx, DWORD PTR [esi+2404]
  008e2	8d 0c 89	 lea	 ecx, DWORD PTR [ecx+ecx*4]
  008e5	8d 54 8e 04	 lea	 edx, DWORD PTR [esi+ecx*4+4]
  008e9	8d a4 24 00 00
	00 00		 npad	 7
$LL123@Init:
  008f0	8a 08		 mov	 cl, BYTE PTR [eax]
  008f2	88 0a		 mov	 BYTE PTR [edx], cl
  008f4	40		 inc	 eax
  008f5	42		 inc	 edx
  008f6	84 c9		 test	 cl, cl
  008f8	75 f6		 jne	 SHORT $LL123@Init
  008fa	8b 96 64 09 00
	00		 mov	 edx, DWORD PTR [esi+2404]
  00900	c7 84 96 d4 07
	00 00 c9 00 00
	00		 mov	 DWORD PTR [esi+edx*4+2004], 201 ; 000000c9H
  0090b	8b 86 64 09 00
	00		 mov	 eax, DWORD PTR [esi+2404]
  00911	83 f8 63	 cmp	 eax, 99			; 00000063H
  00914	7d 07		 jge	 SHORT $LN120@Init
  00916	40		 inc	 eax
  00917	89 86 64 09 00
	00		 mov	 DWORD PTR [esi+2404], eax
$LN120@Init:

; 81   : 	this->cCommand.Add(lMsg.Get(MSGGET(11, 218)), 200);

  0091d	68 da 0b 00 00	 push	 3034			; 00000bdaH
  00922	b9 00 00 00 00	 mov	 ecx, OFFSET ?lMsg@@3VCMsg@@A ; lMsg
  00927	e8 00 00 00 00	 call	 ?Get@CMsg@@QAEPADH@Z	; CMsg::Get
  0092c	8b 8e 64 09 00
	00		 mov	 ecx, DWORD PTR [esi+2404]
  00932	8d 0c 89	 lea	 ecx, DWORD PTR [ecx+ecx*4]
  00935	8d 54 8e 04	 lea	 edx, DWORD PTR [esi+ecx*4+4]
  00939	8d a4 24 00 00
	00 00		 npad	 7
$LL127@Init:
  00940	8a 08		 mov	 cl, BYTE PTR [eax]
  00942	88 0a		 mov	 BYTE PTR [edx], cl
  00944	40		 inc	 eax
  00945	42		 inc	 edx
  00946	84 c9		 test	 cl, cl
  00948	75 f6		 jne	 SHORT $LL127@Init
  0094a	8b 96 64 09 00
	00		 mov	 edx, DWORD PTR [esi+2404]
  00950	c7 84 96 d4 07
	00 00 c8 00 00
	00		 mov	 DWORD PTR [esi+edx*4+2004], 200 ; 000000c8H
  0095b	8b 86 64 09 00
	00		 mov	 eax, DWORD PTR [esi+2404]
  00961	83 f8 63	 cmp	 eax, 99			; 00000063H
  00964	7d 07		 jge	 SHORT $LN124@Init
  00966	40		 inc	 eax
  00967	89 86 64 09 00
	00		 mov	 DWORD PTR [esi+2404], eax
$LN124@Init:

; 82   : 
; 83   : 	this->cCommand.Add(lMsg.Get(MSGGET(11, 219)), 202);

  0096d	68 db 0b 00 00	 push	 3035			; 00000bdbH
  00972	b9 00 00 00 00	 mov	 ecx, OFFSET ?lMsg@@3VCMsg@@A ; lMsg
  00977	e8 00 00 00 00	 call	 ?Get@CMsg@@QAEPADH@Z	; CMsg::Get
  0097c	8b 8e 64 09 00
	00		 mov	 ecx, DWORD PTR [esi+2404]
  00982	8d 0c 89	 lea	 ecx, DWORD PTR [ecx+ecx*4]
  00985	8d 54 8e 04	 lea	 edx, DWORD PTR [esi+ecx*4+4]
  00989	8d a4 24 00 00
	00 00		 npad	 7
$LL131@Init:
  00990	8a 08		 mov	 cl, BYTE PTR [eax]
  00992	88 0a		 mov	 BYTE PTR [edx], cl
  00994	40		 inc	 eax
  00995	42		 inc	 edx
  00996	84 c9		 test	 cl, cl
  00998	75 f6		 jne	 SHORT $LL131@Init
  0099a	8b 96 64 09 00
	00		 mov	 edx, DWORD PTR [esi+2404]
  009a0	c7 84 96 d4 07
	00 00 ca 00 00
	00		 mov	 DWORD PTR [esi+edx*4+2004], 202 ; 000000caH
  009ab	8b 86 64 09 00
	00		 mov	 eax, DWORD PTR [esi+2404]
  009b1	83 f8 63	 cmp	 eax, 99			; 00000063H
  009b4	7d 07		 jge	 SHORT $LN128@Init
  009b6	40		 inc	 eax
  009b7	89 86 64 09 00
	00		 mov	 DWORD PTR [esi+2404], eax
$LN128@Init:

; 84   : 	this->cCommand.Add(lMsg.Get(MSGGET(11, 220)), 203);

  009bd	68 dc 0b 00 00	 push	 3036			; 00000bdcH
  009c2	b9 00 00 00 00	 mov	 ecx, OFFSET ?lMsg@@3VCMsg@@A ; lMsg
  009c7	e8 00 00 00 00	 call	 ?Get@CMsg@@QAEPADH@Z	; CMsg::Get
  009cc	8b 8e 64 09 00
	00		 mov	 ecx, DWORD PTR [esi+2404]
  009d2	8d 0c 89	 lea	 ecx, DWORD PTR [ecx+ecx*4]
  009d5	8d 54 8e 04	 lea	 edx, DWORD PTR [esi+ecx*4+4]
  009d9	8d a4 24 00 00
	00 00		 npad	 7
$LL135@Init:
  009e0	8a 08		 mov	 cl, BYTE PTR [eax]
  009e2	88 0a		 mov	 BYTE PTR [edx], cl
  009e4	40		 inc	 eax
  009e5	42		 inc	 edx
  009e6	84 c9		 test	 cl, cl
  009e8	75 f6		 jne	 SHORT $LL135@Init
  009ea	8b 96 64 09 00
	00		 mov	 edx, DWORD PTR [esi+2404]
  009f0	c7 84 96 d4 07
	00 00 cb 00 00
	00		 mov	 DWORD PTR [esi+edx*4+2004], 203 ; 000000cbH
  009fb	8b 86 64 09 00
	00		 mov	 eax, DWORD PTR [esi+2404]
  00a01	83 f8 63	 cmp	 eax, 99			; 00000063H
  00a04	7d 07		 jge	 SHORT $LN132@Init
  00a06	40		 inc	 eax
  00a07	89 86 64 09 00
	00		 mov	 DWORD PTR [esi+2404], eax
$LN132@Init:

; 85   : 
; 86   : 	this->cCommand.Add(lMsg.Get(MSGGET(11, 201)), 214);

  00a0d	68 c9 0b 00 00	 push	 3017			; 00000bc9H
  00a12	b9 00 00 00 00	 mov	 ecx, OFFSET ?lMsg@@3VCMsg@@A ; lMsg
  00a17	e8 00 00 00 00	 call	 ?Get@CMsg@@QAEPADH@Z	; CMsg::Get
  00a1c	8b 8e 64 09 00
	00		 mov	 ecx, DWORD PTR [esi+2404]
  00a22	8d 0c 89	 lea	 ecx, DWORD PTR [ecx+ecx*4]
  00a25	8d 54 8e 04	 lea	 edx, DWORD PTR [esi+ecx*4+4]
  00a29	8d a4 24 00 00
	00 00		 npad	 7
$LL139@Init:
  00a30	8a 08		 mov	 cl, BYTE PTR [eax]
  00a32	88 0a		 mov	 BYTE PTR [edx], cl
  00a34	40		 inc	 eax
  00a35	42		 inc	 edx
  00a36	84 c9		 test	 cl, cl
  00a38	75 f6		 jne	 SHORT $LL139@Init
  00a3a	8b 96 64 09 00
	00		 mov	 edx, DWORD PTR [esi+2404]
  00a40	c7 84 96 d4 07
	00 00 d6 00 00
	00		 mov	 DWORD PTR [esi+edx*4+2004], 214 ; 000000d6H
  00a4b	8b 86 64 09 00
	00		 mov	 eax, DWORD PTR [esi+2404]
  00a51	83 f8 63	 cmp	 eax, 99			; 00000063H
  00a54	7d 07		 jge	 SHORT $LN136@Init
  00a56	40		 inc	 eax
  00a57	89 86 64 09 00
	00		 mov	 DWORD PTR [esi+2404], eax
$LN136@Init:

; 87   : 	this->cCommand.Add(lMsg.Get(MSGGET(11, 202)), 215);

  00a5d	68 ca 0b 00 00	 push	 3018			; 00000bcaH
  00a62	b9 00 00 00 00	 mov	 ecx, OFFSET ?lMsg@@3VCMsg@@A ; lMsg
  00a67	e8 00 00 00 00	 call	 ?Get@CMsg@@QAEPADH@Z	; CMsg::Get
  00a6c	8b 8e 64 09 00
	00		 mov	 ecx, DWORD PTR [esi+2404]
  00a72	8d 0c 89	 lea	 ecx, DWORD PTR [ecx+ecx*4]
  00a75	8d 54 8e 04	 lea	 edx, DWORD PTR [esi+ecx*4+4]
  00a79	8d a4 24 00 00
	00 00		 npad	 7
$LL143@Init:
  00a80	8a 08		 mov	 cl, BYTE PTR [eax]
  00a82	88 0a		 mov	 BYTE PTR [edx], cl
  00a84	40		 inc	 eax
  00a85	42		 inc	 edx
  00a86	84 c9		 test	 cl, cl
  00a88	75 f6		 jne	 SHORT $LL143@Init
  00a8a	8b 96 64 09 00
	00		 mov	 edx, DWORD PTR [esi+2404]
  00a90	c7 84 96 d4 07
	00 00 d7 00 00
	00		 mov	 DWORD PTR [esi+edx*4+2004], 215 ; 000000d7H
  00a9b	8b 86 64 09 00
	00		 mov	 eax, DWORD PTR [esi+2404]
  00aa1	83 f8 63	 cmp	 eax, 99			; 00000063H
  00aa4	7d 07		 jge	 SHORT $LN140@Init
  00aa6	40		 inc	 eax
  00aa7	89 86 64 09 00
	00		 mov	 DWORD PTR [esi+2404], eax
$LN140@Init:

; 88   : 	this->cCommand.Add(lMsg.Get(MSGGET(11, 203)), 216);

  00aad	68 cb 0b 00 00	 push	 3019			; 00000bcbH
  00ab2	b9 00 00 00 00	 mov	 ecx, OFFSET ?lMsg@@3VCMsg@@A ; lMsg
  00ab7	e8 00 00 00 00	 call	 ?Get@CMsg@@QAEPADH@Z	; CMsg::Get
  00abc	8b 8e 64 09 00
	00		 mov	 ecx, DWORD PTR [esi+2404]
  00ac2	8d 0c 89	 lea	 ecx, DWORD PTR [ecx+ecx*4]
  00ac5	8d 54 8e 04	 lea	 edx, DWORD PTR [esi+ecx*4+4]
  00ac9	8d a4 24 00 00
	00 00		 npad	 7
$LL147@Init:
  00ad0	8a 08		 mov	 cl, BYTE PTR [eax]
  00ad2	88 0a		 mov	 BYTE PTR [edx], cl
  00ad4	40		 inc	 eax
  00ad5	42		 inc	 edx
  00ad6	84 c9		 test	 cl, cl
  00ad8	75 f6		 jne	 SHORT $LL147@Init
  00ada	8b 96 64 09 00
	00		 mov	 edx, DWORD PTR [esi+2404]
  00ae0	c7 84 96 d4 07
	00 00 d8 00 00
	00		 mov	 DWORD PTR [esi+edx*4+2004], 216 ; 000000d8H
  00aeb	8b 86 64 09 00
	00		 mov	 eax, DWORD PTR [esi+2404]
  00af1	83 f8 63	 cmp	 eax, 99			; 00000063H
  00af4	7d 07		 jge	 SHORT $LN144@Init
  00af6	40		 inc	 eax
  00af7	89 86 64 09 00
	00		 mov	 DWORD PTR [esi+2404], eax
$LN144@Init:

; 89   : 
; 90   : 	this->cCommand.Add(lMsg.Get(MSGGET(11, 221)), 214);

  00afd	68 dd 0b 00 00	 push	 3037			; 00000bddH
  00b02	b9 00 00 00 00	 mov	 ecx, OFFSET ?lMsg@@3VCMsg@@A ; lMsg
  00b07	e8 00 00 00 00	 call	 ?Get@CMsg@@QAEPADH@Z	; CMsg::Get
  00b0c	8b 8e 64 09 00
	00		 mov	 ecx, DWORD PTR [esi+2404]
  00b12	8d 0c 89	 lea	 ecx, DWORD PTR [ecx+ecx*4]
  00b15	8d 54 8e 04	 lea	 edx, DWORD PTR [esi+ecx*4+4]
  00b19	8d a4 24 00 00
	00 00		 npad	 7
$LL151@Init:
  00b20	8a 08		 mov	 cl, BYTE PTR [eax]
  00b22	88 0a		 mov	 BYTE PTR [edx], cl
  00b24	40		 inc	 eax
  00b25	42		 inc	 edx
  00b26	84 c9		 test	 cl, cl
  00b28	75 f6		 jne	 SHORT $LL151@Init
  00b2a	8b 96 64 09 00
	00		 mov	 edx, DWORD PTR [esi+2404]
  00b30	c7 84 96 d4 07
	00 00 d6 00 00
	00		 mov	 DWORD PTR [esi+edx*4+2004], 214 ; 000000d6H
  00b3b	8b 86 64 09 00
	00		 mov	 eax, DWORD PTR [esi+2404]
  00b41	83 f8 63	 cmp	 eax, 99			; 00000063H
  00b44	7d 07		 jge	 SHORT $LN148@Init
  00b46	40		 inc	 eax
  00b47	89 86 64 09 00
	00		 mov	 DWORD PTR [esi+2404], eax
$LN148@Init:

; 91   : 	this->cCommand.Add(lMsg.Get(MSGGET(11, 222)), 215);

  00b4d	68 de 0b 00 00	 push	 3038			; 00000bdeH
  00b52	b9 00 00 00 00	 mov	 ecx, OFFSET ?lMsg@@3VCMsg@@A ; lMsg
  00b57	e8 00 00 00 00	 call	 ?Get@CMsg@@QAEPADH@Z	; CMsg::Get
  00b5c	8b 8e 64 09 00
	00		 mov	 ecx, DWORD PTR [esi+2404]
  00b62	8d 0c 89	 lea	 ecx, DWORD PTR [ecx+ecx*4]
  00b65	8d 54 8e 04	 lea	 edx, DWORD PTR [esi+ecx*4+4]
  00b69	8d a4 24 00 00
	00 00		 npad	 7
$LL155@Init:
  00b70	8a 08		 mov	 cl, BYTE PTR [eax]
  00b72	88 0a		 mov	 BYTE PTR [edx], cl
  00b74	40		 inc	 eax
  00b75	42		 inc	 edx
  00b76	84 c9		 test	 cl, cl
  00b78	75 f6		 jne	 SHORT $LL155@Init
  00b7a	8b 96 64 09 00
	00		 mov	 edx, DWORD PTR [esi+2404]
  00b80	c7 84 96 d4 07
	00 00 d7 00 00
	00		 mov	 DWORD PTR [esi+edx*4+2004], 215 ; 000000d7H
  00b8b	8b 86 64 09 00
	00		 mov	 eax, DWORD PTR [esi+2404]
  00b91	83 f8 63	 cmp	 eax, 99			; 00000063H
  00b94	7d 07		 jge	 SHORT $LN152@Init
  00b96	40		 inc	 eax
  00b97	89 86 64 09 00
	00		 mov	 DWORD PTR [esi+2404], eax
$LN152@Init:

; 92   : 	this->cCommand.Add(lMsg.Get(MSGGET(11, 223)), 216);

  00b9d	68 df 0b 00 00	 push	 3039			; 00000bdfH
  00ba2	b9 00 00 00 00	 mov	 ecx, OFFSET ?lMsg@@3VCMsg@@A ; lMsg
  00ba7	e8 00 00 00 00	 call	 ?Get@CMsg@@QAEPADH@Z	; CMsg::Get
  00bac	8b 8e 64 09 00
	00		 mov	 ecx, DWORD PTR [esi+2404]
  00bb2	8d 0c 89	 lea	 ecx, DWORD PTR [ecx+ecx*4]
  00bb5	8d 54 8e 04	 lea	 edx, DWORD PTR [esi+ecx*4+4]
  00bb9	8d a4 24 00 00
	00 00		 npad	 7
$LL159@Init:
  00bc0	8a 08		 mov	 cl, BYTE PTR [eax]
  00bc2	88 0a		 mov	 BYTE PTR [edx], cl
  00bc4	40		 inc	 eax
  00bc5	42		 inc	 edx
  00bc6	84 c9		 test	 cl, cl
  00bc8	75 f6		 jne	 SHORT $LL159@Init
  00bca	8b 96 64 09 00
	00		 mov	 edx, DWORD PTR [esi+2404]
  00bd0	c7 84 96 d4 07
	00 00 d8 00 00
	00		 mov	 DWORD PTR [esi+edx*4+2004], 216 ; 000000d8H
  00bdb	8b 86 64 09 00
	00		 mov	 eax, DWORD PTR [esi+2404]
  00be1	83 f8 63	 cmp	 eax, 99			; 00000063H
  00be4	7d 07		 jge	 SHORT $LN156@Init
  00be6	40		 inc	 eax
  00be7	89 86 64 09 00
	00		 mov	 DWORD PTR [esi+2404], eax
$LN156@Init:

; 93   : 
; 94   : 	// KUNDUN Commands
; 95   : 	this->cCommand.Add("/", 320);	// #translation 

  00bed	8b 86 64 09 00
	00		 mov	 eax, DWORD PTR [esi+2404]
  00bf3	8d 04 80	 lea	 eax, DWORD PTR [eax+eax*4]
  00bf6	b9 00 00 00 00	 mov	 ecx, OFFSET ??_C@_09OAOHLHFO@?1?D?o?$LF?P?$LL?s?E?B?$AA@
  00bfb	8d 54 86 04	 lea	 edx, DWORD PTR [esi+eax*4+4]
  00bff	90		 npad	 1
$LL163@Init:
  00c00	8a 01		 mov	 al, BYTE PTR [ecx]
  00c02	88 02		 mov	 BYTE PTR [edx], al
  00c04	41		 inc	 ecx
  00c05	42		 inc	 edx
  00c06	84 c0		 test	 al, al
  00c08	75 f6		 jne	 SHORT $LL163@Init
  00c0a	8b 8e 64 09 00
	00		 mov	 ecx, DWORD PTR [esi+2404]
  00c10	c7 84 8e d4 07
	00 00 40 01 00
	00		 mov	 DWORD PTR [esi+ecx*4+2004], 320 ; 00000140H
  00c1b	8b 86 64 09 00
	00		 mov	 eax, DWORD PTR [esi+2404]
  00c21	83 f8 63	 cmp	 eax, 99			; 00000063H
  00c24	7d 07		 jge	 SHORT $LN160@Init
  00c26	40		 inc	 eax
  00c27	89 86 64 09 00
	00		 mov	 DWORD PTR [esi+2404], eax
$LN160@Init:

; 96   : 	this->cCommand.Add("/", 321);	// #translation 

  00c2d	8b 86 64 09 00
	00		 mov	 eax, DWORD PTR [esi+2404]
  00c33	8d 14 80	 lea	 edx, DWORD PTR [eax+eax*4]
  00c36	b9 00 00 00 00	 mov	 ecx, OFFSET ??_C@_07ILODLNBC@?1?D?o?$LF?P?G?G?$AA@
  00c3b	8d 54 96 04	 lea	 edx, DWORD PTR [esi+edx*4+4]
  00c3f	90		 npad	 1
$LL167@Init:
  00c40	8a 01		 mov	 al, BYTE PTR [ecx]
  00c42	88 02		 mov	 BYTE PTR [edx], al
  00c44	41		 inc	 ecx
  00c45	42		 inc	 edx
  00c46	84 c0		 test	 al, al
  00c48	75 f6		 jne	 SHORT $LL167@Init
  00c4a	8b 86 64 09 00
	00		 mov	 eax, DWORD PTR [esi+2404]
  00c50	c7 84 86 d4 07
	00 00 41 01 00
	00		 mov	 DWORD PTR [esi+eax*4+2004], 321 ; 00000141H
  00c5b	8b 86 64 09 00
	00		 mov	 eax, DWORD PTR [esi+2404]
  00c61	83 f8 63	 cmp	 eax, 99			; 00000063H
  00c64	7d 07		 jge	 SHORT $LN164@Init
  00c66	40		 inc	 eax
  00c67	89 86 64 09 00
	00		 mov	 DWORD PTR [esi+2404], eax
$LN164@Init:

; 97   : 	this->cCommand.Add("/", 322);	// #translation 

  00c6d	8b 86 64 09 00
	00		 mov	 eax, DWORD PTR [esi+2404]
  00c73	8d 14 80	 lea	 edx, DWORD PTR [eax+eax*4]
  00c76	b9 00 00 00 00	 mov	 ecx, OFFSET ??_C@_0M@POALKPHK@?1?D?o?$LF?P?H?$LI?$LK?$LJ?$LH?$KO?$AA@
  00c7b	8d 54 96 04	 lea	 edx, DWORD PTR [esi+edx*4+4]
  00c7f	90		 npad	 1
$LL171@Init:
  00c80	8a 01		 mov	 al, BYTE PTR [ecx]
  00c82	88 02		 mov	 BYTE PTR [edx], al
  00c84	41		 inc	 ecx
  00c85	42		 inc	 edx
  00c86	84 c0		 test	 al, al
  00c88	75 f6		 jne	 SHORT $LL171@Init
  00c8a	8b 86 64 09 00
	00		 mov	 eax, DWORD PTR [esi+2404]
  00c90	c7 84 86 d4 07
	00 00 42 01 00
	00		 mov	 DWORD PTR [esi+eax*4+2004], 322 ; 00000142H
  00c9b	8b 86 64 09 00
	00		 mov	 eax, DWORD PTR [esi+2404]
  00ca1	83 f8 63	 cmp	 eax, 99			; 00000063H
  00ca4	7d 07		 jge	 SHORT $LN168@Init
  00ca6	40		 inc	 eax
  00ca7	89 86 64 09 00
	00		 mov	 DWORD PTR [esi+2404], eax
$LN168@Init:

; 98   : 	this->cCommand.Add("/", 323);	// #translation 

  00cad	8b 86 64 09 00
	00		 mov	 eax, DWORD PTR [esi+2404]
  00cb3	8d 14 80	 lea	 edx, DWORD PTR [eax+eax*4]
  00cb6	b9 00 00 00 00	 mov	 ecx, OFFSET ??_C@_0BA@DDJDJNOB@?1?D?o?$LF?P?C?J?$LE?g?H?$LI?$LK?$LJ?$LH?$KO?$AA@
  00cbb	8d 54 96 04	 lea	 edx, DWORD PTR [esi+edx*4+4]
  00cbf	90		 npad	 1
$LL175@Init:
  00cc0	8a 01		 mov	 al, BYTE PTR [ecx]
  00cc2	88 02		 mov	 BYTE PTR [edx], al
  00cc4	41		 inc	 ecx
  00cc5	42		 inc	 edx
  00cc6	84 c0		 test	 al, al
  00cc8	75 f6		 jne	 SHORT $LL175@Init
  00cca	8b 86 64 09 00
	00		 mov	 eax, DWORD PTR [esi+2404]
  00cd0	c7 84 86 d4 07
	00 00 43 01 00
	00		 mov	 DWORD PTR [esi+eax*4+2004], 323 ; 00000143H
  00cdb	8b 86 64 09 00
	00		 mov	 eax, DWORD PTR [esi+2404]
  00ce1	83 f8 63	 cmp	 eax, 99			; 00000063H
  00ce4	7d 07		 jge	 SHORT $LN172@Init
  00ce6	40		 inc	 eax
  00ce7	89 86 64 09 00
	00		 mov	 DWORD PTR [esi+2404], eax
$LN172@Init:

; 99   : 	this->cCommand.Add("/", 324);	// #translation 

  00ced	8b 86 64 09 00
	00		 mov	 eax, DWORD PTR [esi+2404]
  00cf3	8d 14 80	 lea	 edx, DWORD PTR [eax+eax*4]
  00cf6	b9 00 00 00 00	 mov	 ecx, OFFSET ??_C@_0O@FADBPHEL@?1?D?o?$LF?P?H?$LI?$LK?$LJ?$LN?C?$LA?$KD?$AA@
  00cfb	8d 54 96 04	 lea	 edx, DWORD PTR [esi+edx*4+4]
  00cff	90		 npad	 1
$LL179@Init:
  00d00	8a 01		 mov	 al, BYTE PTR [ecx]
  00d02	88 02		 mov	 BYTE PTR [edx], al
  00d04	41		 inc	 ecx
  00d05	42		 inc	 edx
  00d06	84 c0		 test	 al, al
  00d08	75 f6		 jne	 SHORT $LL179@Init
  00d0a	8b 86 64 09 00
	00		 mov	 eax, DWORD PTR [esi+2404]
  00d10	c7 84 86 d4 07
	00 00 44 01 00
	00		 mov	 DWORD PTR [esi+eax*4+2004], 324 ; 00000144H
  00d1b	8b 86 64 09 00
	00		 mov	 eax, DWORD PTR [esi+2404]
  00d21	83 f8 63	 cmp	 eax, 99			; 00000063H
  00d24	7d 07		 jge	 SHORT $LN176@Init
  00d26	40		 inc	 eax
  00d27	89 86 64 09 00
	00		 mov	 DWORD PTR [esi+2404], eax
$LN176@Init:

; 100  : 
; 101  : #if GS_CASTLE == 1
; 102  : 	this->cCommand.Add("/cschangeowner", 331);
; 103  : 	this->cCommand.Add("/cssetregsiege", 332);
; 104  : 	this->cCommand.Add("/cssetregmark", 333);
; 105  : 	this->cCommand.Add("/cssetnotify", 334);
; 106  : 	this->cCommand.Add("/cssetstart", 335);
; 107  : 	this->cCommand.Add("/cssetend", 336);
; 108  : 	this->cCommand.Add("/cscurowner", 337);
; 109  : 	this->cCommand.Add("/cscurstate", 338);
; 110  : 	this->cCommand.Add("/cschangeside", 340);
; 111  : 
; 112  : 	this->cCommand.Add(lMsg.Get(MSGGET(13,10)), 345);
; 113  : 	this->cCommand.Add(lMsg.Get(MSGGET(13,11)), 346);
; 114  : 	this->cCommand.Add(lMsg.Get(MSGGET(13,12)), 347);
; 115  : 	this->cCommand.Add(lMsg.Get(MSGGET(13,13)), 348);
; 116  : #else
; 117  : 	// KANTURU Commands
; 118  : 	this->cCommand.Add("/KanturuReady", 369);

  00d2d	8b 86 64 09 00
	00		 mov	 eax, DWORD PTR [esi+2404]
  00d33	8d 14 80	 lea	 edx, DWORD PTR [eax+eax*4]
  00d36	b9 00 00 00 00	 mov	 ecx, OFFSET ??_C@_0O@GJDLFDLK@?1KanturuReady?$AA@
  00d3b	8d 54 96 04	 lea	 edx, DWORD PTR [esi+edx*4+4]
  00d3f	90		 npad	 1
$LL183@Init:
  00d40	8a 01		 mov	 al, BYTE PTR [ecx]
  00d42	88 02		 mov	 BYTE PTR [edx], al
  00d44	41		 inc	 ecx
  00d45	42		 inc	 edx
  00d46	84 c0		 test	 al, al
  00d48	75 f6		 jne	 SHORT $LL183@Init
  00d4a	8b 86 64 09 00
	00		 mov	 eax, DWORD PTR [esi+2404]
  00d50	c7 84 86 d4 07
	00 00 71 01 00
	00		 mov	 DWORD PTR [esi+eax*4+2004], 369 ; 00000171H
  00d5b	8b 86 64 09 00
	00		 mov	 eax, DWORD PTR [esi+2404]
  00d61	83 f8 63	 cmp	 eax, 99			; 00000063H
  00d64	7d 07		 jge	 SHORT $LN180@Init
  00d66	40		 inc	 eax
  00d67	89 86 64 09 00
	00		 mov	 DWORD PTR [esi+2404], eax
$LN180@Init:

; 119  : 	this->cCommand.Add("/KanturuBattleMaya", 370);

  00d6d	8b 86 64 09 00
	00		 mov	 eax, DWORD PTR [esi+2404]
  00d73	8d 14 80	 lea	 edx, DWORD PTR [eax+eax*4]
  00d76	b9 00 00 00 00	 mov	 ecx, OFFSET ??_C@_0BD@ELNPBAOF@?1KanturuBattleMaya?$AA@
  00d7b	8d 54 96 04	 lea	 edx, DWORD PTR [esi+edx*4+4]
  00d7f	90		 npad	 1
$LL187@Init:
  00d80	8a 01		 mov	 al, BYTE PTR [ecx]
  00d82	88 02		 mov	 BYTE PTR [edx], al
  00d84	41		 inc	 ecx
  00d85	42		 inc	 edx
  00d86	84 c0		 test	 al, al
  00d88	75 f6		 jne	 SHORT $LL187@Init
  00d8a	8b 86 64 09 00
	00		 mov	 eax, DWORD PTR [esi+2404]
  00d90	c7 84 86 d4 07
	00 00 72 01 00
	00		 mov	 DWORD PTR [esi+eax*4+2004], 370 ; 00000172H
  00d9b	8b 86 64 09 00
	00		 mov	 eax, DWORD PTR [esi+2404]
  00da1	83 f8 63	 cmp	 eax, 99			; 00000063H
  00da4	7d 07		 jge	 SHORT $LN184@Init
  00da6	40		 inc	 eax
  00da7	89 86 64 09 00
	00		 mov	 DWORD PTR [esi+2404], eax
$LN184@Init:

; 120  : 	this->cCommand.Add("/1", 371);	// #translation 

  00dad	8b 86 64 09 00
	00		 mov	 eax, DWORD PTR [esi+2404]
  00db3	8d 14 80	 lea	 edx, DWORD PTR [eax+eax*4]
  00db6	b9 00 00 00 00	 mov	 ecx, OFFSET ??_C@_0N@EIMHGINI@?1?$LI?$LG?$LO?$NP?$LI?s?$LN?$LK?E?M1?$AA@
  00dbb	8d 54 96 04	 lea	 edx, DWORD PTR [esi+edx*4+4]
  00dbf	90		 npad	 1
$LL191@Init:
  00dc0	8a 01		 mov	 al, BYTE PTR [ecx]
  00dc2	88 02		 mov	 BYTE PTR [edx], al
  00dc4	41		 inc	 ecx
  00dc5	42		 inc	 edx
  00dc6	84 c0		 test	 al, al
  00dc8	75 f6		 jne	 SHORT $LL191@Init
  00dca	8b 86 64 09 00
	00		 mov	 eax, DWORD PTR [esi+2404]
  00dd0	c7 84 86 d4 07
	00 00 73 01 00
	00		 mov	 DWORD PTR [esi+eax*4+2004], 371 ; 00000173H
  00ddb	8b 86 64 09 00
	00		 mov	 eax, DWORD PTR [esi+2404]
  00de1	83 f8 63	 cmp	 eax, 99			; 00000063H
  00de4	7d 07		 jge	 SHORT $LN188@Init
  00de6	40		 inc	 eax
  00de7	89 86 64 09 00
	00		 mov	 DWORD PTR [esi+2404], eax
$LN188@Init:

; 121  : 	this->cCommand.Add("/1", 372);	// #translation 

  00ded	8b 86 64 09 00
	00		 mov	 eax, DWORD PTR [esi+2404]
  00df3	8d 14 80	 lea	 edx, DWORD PTR [eax+eax*4]
  00df6	b9 00 00 00 00	 mov	 ecx, OFFSET ??_C@_06IPFNEJEO@?1?$LI?$LG?$LO?$NP1?$AA@
  00dfb	8d 54 96 04	 lea	 edx, DWORD PTR [esi+edx*4+4]
  00dff	90		 npad	 1
$LL195@Init:
  00e00	8a 01		 mov	 al, BYTE PTR [ecx]
  00e02	88 02		 mov	 BYTE PTR [edx], al
  00e04	41		 inc	 ecx
  00e05	42		 inc	 edx
  00e06	84 c0		 test	 al, al
  00e08	75 f6		 jne	 SHORT $LL195@Init
  00e0a	8b 86 64 09 00
	00		 mov	 eax, DWORD PTR [esi+2404]
  00e10	c7 84 86 d4 07
	00 00 74 01 00
	00		 mov	 DWORD PTR [esi+eax*4+2004], 372 ; 00000174H
  00e1b	8b 86 64 09 00
	00		 mov	 eax, DWORD PTR [esi+2404]
  00e21	83 f8 63	 cmp	 eax, 99			; 00000063H
  00e24	7d 07		 jge	 SHORT $LN192@Init
  00e26	40		 inc	 eax
  00e27	89 86 64 09 00
	00		 mov	 DWORD PTR [esi+2404], eax
$LN192@Init:

; 122  : 	this->cCommand.Add("/2", 373);	// #translation 

  00e2d	8b 86 64 09 00
	00		 mov	 eax, DWORD PTR [esi+2404]
  00e33	8d 14 80	 lea	 edx, DWORD PTR [eax+eax*4]
  00e36	b9 00 00 00 00	 mov	 ecx, OFFSET ??_C@_0N@GDOKDLBL@?1?$LI?$LG?$LO?$NP?$LI?s?$LN?$LK?E?M2?$AA@
  00e3b	8d 54 96 04	 lea	 edx, DWORD PTR [esi+edx*4+4]
  00e3f	90		 npad	 1
$LL199@Init:
  00e40	8a 01		 mov	 al, BYTE PTR [ecx]
  00e42	88 02		 mov	 BYTE PTR [edx], al
  00e44	41		 inc	 ecx
  00e45	42		 inc	 edx
  00e46	84 c0		 test	 al, al
  00e48	75 f6		 jne	 SHORT $LL199@Init
  00e4a	8b 86 64 09 00
	00		 mov	 eax, DWORD PTR [esi+2404]
  00e50	c7 84 86 d4 07
	00 00 75 01 00
	00		 mov	 DWORD PTR [esi+eax*4+2004], 373 ; 00000175H
  00e5b	8b 86 64 09 00
	00		 mov	 eax, DWORD PTR [esi+2404]
  00e61	83 f8 63	 cmp	 eax, 99			; 00000063H
  00e64	7d 07		 jge	 SHORT $LN196@Init
  00e66	40		 inc	 eax
  00e67	89 86 64 09 00
	00		 mov	 DWORD PTR [esi+2404], eax
$LN196@Init:

; 123  : 	this->cCommand.Add("/2", 374);	// #translation 

  00e6d	8b 86 64 09 00
	00		 mov	 eax, DWORD PTR [esi+2404]
  00e73	8d 14 80	 lea	 edx, DWORD PTR [eax+eax*4]
  00e76	b9 00 00 00 00	 mov	 ecx, OFFSET ??_C@_06KEHABKIN@?1?$LI?$LG?$LO?$NP2?$AA@
  00e7b	8d 54 96 04	 lea	 edx, DWORD PTR [esi+edx*4+4]
  00e7f	90		 npad	 1
$LL203@Init:
  00e80	8a 01		 mov	 al, BYTE PTR [ecx]
  00e82	88 02		 mov	 BYTE PTR [edx], al
  00e84	41		 inc	 ecx
  00e85	42		 inc	 edx
  00e86	84 c0		 test	 al, al
  00e88	75 f6		 jne	 SHORT $LL203@Init
  00e8a	8b 86 64 09 00
	00		 mov	 eax, DWORD PTR [esi+2404]
  00e90	c7 84 86 d4 07
	00 00 76 01 00
	00		 mov	 DWORD PTR [esi+eax*4+2004], 374 ; 00000176H
  00e9b	8b 86 64 09 00
	00		 mov	 eax, DWORD PTR [esi+2404]
  00ea1	83 f8 63	 cmp	 eax, 99			; 00000063H
  00ea4	7d 07		 jge	 SHORT $LN200@Init
  00ea6	40		 inc	 eax
  00ea7	89 86 64 09 00
	00		 mov	 DWORD PTR [esi+2404], eax
$LN200@Init:

; 124  : 	this->cCommand.Add("/3", 375);	// #translation 

  00ead	8b 86 64 09 00
	00		 mov	 eax, DWORD PTR [esi+2404]
  00eb3	8d 14 80	 lea	 edx, DWORD PTR [eax+eax*4]
  00eb6	b9 00 00 00 00	 mov	 ecx, OFFSET ??_C@_0N@HKPBAKFK@?1?$LI?$LG?$LO?$NP?$LI?s?$LN?$LK?E?M3?$AA@
  00ebb	8d 54 96 04	 lea	 edx, DWORD PTR [esi+edx*4+4]
  00ebf	90		 npad	 1
$LL207@Init:
  00ec0	8a 01		 mov	 al, BYTE PTR [ecx]
  00ec2	88 02		 mov	 BYTE PTR [edx], al
  00ec4	41		 inc	 ecx
  00ec5	42		 inc	 edx
  00ec6	84 c0		 test	 al, al
  00ec8	75 f6		 jne	 SHORT $LL207@Init
  00eca	8b 86 64 09 00
	00		 mov	 eax, DWORD PTR [esi+2404]
  00ed0	c7 84 86 d4 07
	00 00 77 01 00
	00		 mov	 DWORD PTR [esi+eax*4+2004], 375 ; 00000177H
  00edb	8b 86 64 09 00
	00		 mov	 eax, DWORD PTR [esi+2404]
  00ee1	83 f8 63	 cmp	 eax, 99			; 00000063H
  00ee4	7d 07		 jge	 SHORT $LN204@Init
  00ee6	40		 inc	 eax
  00ee7	89 86 64 09 00
	00		 mov	 DWORD PTR [esi+2404], eax
$LN204@Init:

; 125  : 	this->cCommand.Add("/3", 376);	// #translation 

  00eed	8b 86 64 09 00
	00		 mov	 eax, DWORD PTR [esi+2404]
  00ef3	8d 14 80	 lea	 edx, DWORD PTR [eax+eax*4]
  00ef6	b9 00 00 00 00	 mov	 ecx, OFFSET ??_C@_06LNGLCLMM@?1?$LI?$LG?$LO?$NP3?$AA@
  00efb	8d 54 96 04	 lea	 edx, DWORD PTR [esi+edx*4+4]
  00eff	90		 npad	 1
$LL211@Init:
  00f00	8a 01		 mov	 al, BYTE PTR [ecx]
  00f02	88 02		 mov	 BYTE PTR [edx], al
  00f04	41		 inc	 ecx
  00f05	42		 inc	 edx
  00f06	84 c0		 test	 al, al
  00f08	75 f6		 jne	 SHORT $LL211@Init
  00f0a	8b 86 64 09 00
	00		 mov	 eax, DWORD PTR [esi+2404]
  00f10	c7 84 86 d4 07
	00 00 78 01 00
	00		 mov	 DWORD PTR [esi+eax*4+2004], 376 ; 00000178H
  00f1b	8b 86 64 09 00
	00		 mov	 eax, DWORD PTR [esi+2404]
  00f21	83 f8 63	 cmp	 eax, 99			; 00000063H
  00f24	7d 07		 jge	 SHORT $LN208@Init
  00f26	40		 inc	 eax
  00f27	89 86 64 09 00
	00		 mov	 DWORD PTR [esi+2404], eax
$LN208@Init:

; 126  : 	this->cCommand.Add("/3", 377);	// #translation 

  00f2d	8b 86 64 09 00
	00		 mov	 eax, DWORD PTR [esi+2404]
  00f33	8d 14 80	 lea	 edx, DWORD PTR [eax+eax*4]
  00f36	b9 00 00 00 00	 mov	 ecx, OFFSET ??_C@_0L@IFJJFLKM@?1?$LI?$LG?$LO?$NP3?$LM?$LK?$LA?x?$AA@
  00f3b	8d 54 96 04	 lea	 edx, DWORD PTR [esi+edx*4+4]
  00f3f	90		 npad	 1
$LL215@Init:
  00f40	8a 01		 mov	 al, BYTE PTR [ecx]
  00f42	88 02		 mov	 BYTE PTR [edx], al
  00f44	41		 inc	 ecx
  00f45	42		 inc	 edx
  00f46	84 c0		 test	 al, al
  00f48	75 f6		 jne	 SHORT $LL215@Init
  00f4a	8b 86 64 09 00
	00		 mov	 eax, DWORD PTR [esi+2404]
  00f50	c7 84 86 d4 07
	00 00 79 01 00
	00		 mov	 DWORD PTR [esi+eax*4+2004], 377 ; 00000179H
  00f5b	8b 86 64 09 00
	00		 mov	 eax, DWORD PTR [esi+2404]
  00f61	83 f8 63	 cmp	 eax, 99			; 00000063H
  00f64	7d 07		 jge	 SHORT $LN212@Init
  00f66	40		 inc	 eax
  00f67	89 86 64 09 00
	00		 mov	 DWORD PTR [esi+2404], eax
$LN212@Init:

; 127  : 	this->cCommand.Add(lMsg.Get(MSGGET(13, 60)), 378);	// "/"

  00f6d	68 3c 0d 00 00	 push	 3388			; 00000d3cH
  00f72	b9 00 00 00 00	 mov	 ecx, OFFSET ?lMsg@@3VCMsg@@A ; lMsg
  00f77	e8 00 00 00 00	 call	 ?Get@CMsg@@QAEPADH@Z	; CMsg::Get
  00f7c	8b 8e 64 09 00
	00		 mov	 ecx, DWORD PTR [esi+2404]
  00f82	8d 0c 89	 lea	 ecx, DWORD PTR [ecx+ecx*4]
  00f85	8d 54 8e 04	 lea	 edx, DWORD PTR [esi+ecx*4+4]
  00f89	8d a4 24 00 00
	00 00		 npad	 7
$LL219@Init:
  00f90	8a 08		 mov	 cl, BYTE PTR [eax]
  00f92	88 0a		 mov	 BYTE PTR [edx], cl
  00f94	40		 inc	 eax
  00f95	42		 inc	 edx
  00f96	84 c9		 test	 cl, cl
  00f98	75 f6		 jne	 SHORT $LL219@Init
  00f9a	8b 96 64 09 00
	00		 mov	 edx, DWORD PTR [esi+2404]
  00fa0	c7 84 96 d4 07
	00 00 7a 01 00
	00		 mov	 DWORD PTR [esi+edx*4+2004], 378 ; 0000017aH
  00fab	8b 86 64 09 00
	00		 mov	 eax, DWORD PTR [esi+2404]
  00fb1	83 f8 63	 cmp	 eax, 99			; 00000063H
  00fb4	7d 07		 jge	 SHORT $LN216@Init
  00fb6	40		 inc	 eax
  00fb7	89 86 64 09 00
	00		 mov	 DWORD PTR [esi+2404], eax
$LN216@Init:

; 128  : 	this->cCommand.Add("/", 379);	// #translation 

  00fbd	8b 86 64 09 00
	00		 mov	 eax, DWORD PTR [esi+2404]
  00fc3	8d 04 80	 lea	 eax, DWORD PTR [eax+eax*4]
  00fc6	b9 00 00 00 00	 mov	 ecx, OFFSET ??_C@_09MFPDNNIB@?1?$LI?$LG?$LO?$NP?$LN?G?F?P?$AA@
  00fcb	8d 54 86 04	 lea	 edx, DWORD PTR [esi+eax*4+4]
  00fcf	90		 npad	 1
$LL223@Init:
  00fd0	8a 01		 mov	 al, BYTE PTR [ecx]
  00fd2	88 02		 mov	 BYTE PTR [edx], al
  00fd4	41		 inc	 ecx
  00fd5	42		 inc	 edx
  00fd6	84 c0		 test	 al, al
  00fd8	75 f6		 jne	 SHORT $LL223@Init
  00fda	8b 8e 64 09 00
	00		 mov	 ecx, DWORD PTR [esi+2404]
  00fe0	c7 84 8e d4 07
	00 00 7b 01 00
	00		 mov	 DWORD PTR [esi+ecx*4+2004], 379 ; 0000017bH
  00feb	8b 86 64 09 00
	00		 mov	 eax, DWORD PTR [esi+2404]
  00ff1	83 f8 63	 cmp	 eax, 99			; 00000063H
  00ff4	7d 07		 jge	 SHORT $LN220@Init
  00ff6	40		 inc	 eax
  00ff7	89 86 64 09 00
	00		 mov	 DWORD PTR [esi+2404], eax
$LN220@Init:

; 129  : 	this->cCommand.Add("/KanturuBattleNightmare", 380);

  00ffd	8b 86 64 09 00
	00		 mov	 eax, DWORD PTR [esi+2404]
  01003	8d 14 80	 lea	 edx, DWORD PTR [eax+eax*4]
  01006	b9 00 00 00 00	 mov	 ecx, OFFSET ??_C@_0BI@LEEHMLLD@?1KanturuBattleNightmare?$AA@
  0100b	8d 54 96 04	 lea	 edx, DWORD PTR [esi+edx*4+4]
  0100f	90		 npad	 1
$LL227@Init:
  01010	8a 01		 mov	 al, BYTE PTR [ecx]
  01012	88 02		 mov	 BYTE PTR [edx], al
  01014	41		 inc	 ecx
  01015	42		 inc	 edx
  01016	84 c0		 test	 al, al
  01018	75 f6		 jne	 SHORT $LL227@Init
  0101a	8b 86 64 09 00
	00		 mov	 eax, DWORD PTR [esi+2404]
  01020	c7 84 86 d4 07
	00 00 7c 01 00
	00		 mov	 DWORD PTR [esi+eax*4+2004], 380 ; 0000017cH
  0102b	8b 86 64 09 00
	00		 mov	 eax, DWORD PTR [esi+2404]
  01031	83 f8 63	 cmp	 eax, 99			; 00000063H
  01034	7d 07		 jge	 SHORT $LN224@Init
  01036	40		 inc	 eax
  01037	89 86 64 09 00
	00		 mov	 DWORD PTR [esi+2404], eax
$LN224@Init:

; 130  : 	this->cCommand.Add(lMsg.Get(MSGGET(13, 61)), 381);	// "/"

  0103d	68 3d 0d 00 00	 push	 3389			; 00000d3dH
  01042	b9 00 00 00 00	 mov	 ecx, OFFSET ?lMsg@@3VCMsg@@A ; lMsg
  01047	e8 00 00 00 00	 call	 ?Get@CMsg@@QAEPADH@Z	; CMsg::Get
  0104c	8b 8e 64 09 00
	00		 mov	 ecx, DWORD PTR [esi+2404]
  01052	8d 0c 89	 lea	 ecx, DWORD PTR [ecx+ecx*4]
  01055	8d 54 8e 04	 lea	 edx, DWORD PTR [esi+ecx*4+4]
  01059	8d a4 24 00 00
	00 00		 npad	 7
$LL231@Init:
  01060	8a 08		 mov	 cl, BYTE PTR [eax]
  01062	88 0a		 mov	 BYTE PTR [edx], cl
  01064	40		 inc	 eax
  01065	42		 inc	 edx
  01066	84 c9		 test	 cl, cl
  01068	75 f6		 jne	 SHORT $LL231@Init
  0106a	8b 96 64 09 00
	00		 mov	 edx, DWORD PTR [esi+2404]
  01070	c7 84 96 d4 07
	00 00 7d 01 00
	00		 mov	 DWORD PTR [esi+edx*4+2004], 381 ; 0000017dH
  0107b	8b 86 64 09 00
	00		 mov	 eax, DWORD PTR [esi+2404]
  01081	83 f8 63	 cmp	 eax, 99			; 00000063H
  01084	7d 07		 jge	 SHORT $LN228@Init
  01086	40		 inc	 eax
  01087	89 86 64 09 00
	00		 mov	 DWORD PTR [esi+2404], eax
$LN228@Init:

; 131  : 	this->cCommand.Add("/", 382);	// #translation 

  0108d	8b 86 64 09 00
	00		 mov	 eax, DWORD PTR [esi+2404]
  01093	8d 04 80	 lea	 eax, DWORD PTR [eax+eax*4]
  01096	b9 00 00 00 00	 mov	 ecx, OFFSET ??_C@_0BA@JINAFOHA@?1?$LD?$KK?$MA?L?F?$KO?$LI?$NO?$LO?n?$LN?G?F?P?$AA@
  0109b	8d 54 86 04	 lea	 edx, DWORD PTR [esi+eax*4+4]
  0109f	90		 npad	 1
$LL235@Init:
  010a0	8a 01		 mov	 al, BYTE PTR [ecx]
  010a2	88 02		 mov	 BYTE PTR [edx], al
  010a4	41		 inc	 ecx
  010a5	42		 inc	 edx
  010a6	84 c0		 test	 al, al
  010a8	75 f6		 jne	 SHORT $LL235@Init
  010aa	8b 8e 64 09 00
	00		 mov	 ecx, DWORD PTR [esi+2404]
  010b0	c7 84 8e d4 07
	00 00 7e 01 00
	00		 mov	 DWORD PTR [esi+ecx*4+2004], 382 ; 0000017eH
  010bb	8b 86 64 09 00
	00		 mov	 eax, DWORD PTR [esi+2404]
  010c1	83 f8 63	 cmp	 eax, 99			; 00000063H
  010c4	7d 07		 jge	 SHORT $LN232@Init
  010c6	40		 inc	 eax
  010c7	89 86 64 09 00
	00		 mov	 DWORD PTR [esi+2404], eax
$LN232@Init:

; 132  : 	this->cCommand.Add("/KanturuTower", 383);

  010cd	8b 86 64 09 00
	00		 mov	 eax, DWORD PTR [esi+2404]
  010d3	8d 14 80	 lea	 edx, DWORD PTR [eax+eax*4]
  010d6	b9 00 00 00 00	 mov	 ecx, OFFSET ??_C@_0O@GCJGBDLJ@?1KanturuTower?$AA@
  010db	8d 54 96 04	 lea	 edx, DWORD PTR [esi+edx*4+4]
  010df	90		 npad	 1
$LL239@Init:
  010e0	8a 01		 mov	 al, BYTE PTR [ecx]
  010e2	88 02		 mov	 BYTE PTR [edx], al
  010e4	41		 inc	 ecx
  010e5	42		 inc	 edx
  010e6	84 c0		 test	 al, al
  010e8	75 f6		 jne	 SHORT $LL239@Init
  010ea	8b 86 64 09 00
	00		 mov	 eax, DWORD PTR [esi+2404]
  010f0	c7 84 86 d4 07
	00 00 7f 01 00
	00		 mov	 DWORD PTR [esi+eax*4+2004], 383 ; 0000017fH
  010fb	8b 86 64 09 00
	00		 mov	 eax, DWORD PTR [esi+2404]
  01101	83 f8 63	 cmp	 eax, 99			; 00000063H
  01104	7d 07		 jge	 SHORT $LN236@Init
  01106	40		 inc	 eax
  01107	89 86 64 09 00
	00		 mov	 DWORD PTR [esi+2404], eax
$LN236@Init:

; 133  : 	this->cCommand.Add("/KanturuTowerOpen", 384);

  0110d	8b 86 64 09 00
	00		 mov	 eax, DWORD PTR [esi+2404]
  01113	8d 14 80	 lea	 edx, DWORD PTR [eax+eax*4]
  01116	b9 00 00 00 00	 mov	 ecx, OFFSET ??_C@_0BC@POEDBBDH@?1KanturuTowerOpen?$AA@
  0111b	8d 54 96 04	 lea	 edx, DWORD PTR [esi+edx*4+4]
  0111f	90		 npad	 1
$LL243@Init:
  01120	8a 01		 mov	 al, BYTE PTR [ecx]
  01122	88 02		 mov	 BYTE PTR [edx], al
  01124	41		 inc	 ecx
  01125	42		 inc	 edx
  01126	84 c0		 test	 al, al
  01128	75 f6		 jne	 SHORT $LL243@Init
  0112a	8b 86 64 09 00
	00		 mov	 eax, DWORD PTR [esi+2404]
  01130	c7 84 86 d4 07
	00 00 80 01 00
	00		 mov	 DWORD PTR [esi+eax*4+2004], 384 ; 00000180H
  0113b	8b 86 64 09 00
	00		 mov	 eax, DWORD PTR [esi+2404]
  01141	83 f8 63	 cmp	 eax, 99			; 00000063H
  01144	7d 07		 jge	 SHORT $LN240@Init
  01146	40		 inc	 eax
  01147	89 86 64 09 00
	00		 mov	 DWORD PTR [esi+2404], eax
$LN240@Init:

; 134  : 	this->cCommand.Add("/KanturuTowerClose", 385);

  0114d	8b 86 64 09 00
	00		 mov	 eax, DWORD PTR [esi+2404]
  01153	8d 14 80	 lea	 edx, DWORD PTR [eax+eax*4]
  01156	b9 00 00 00 00	 mov	 ecx, OFFSET ??_C@_0BD@JFIBDED@?1KanturuTowerClose?$AA@
  0115b	8d 54 96 04	 lea	 edx, DWORD PTR [esi+edx*4+4]
  0115f	90		 npad	 1
$LL247@Init:
  01160	8a 01		 mov	 al, BYTE PTR [ecx]
  01162	88 02		 mov	 BYTE PTR [edx], al
  01164	41		 inc	 ecx
  01165	42		 inc	 edx
  01166	84 c0		 test	 al, al
  01168	75 f6		 jne	 SHORT $LL247@Init
  0116a	8b 86 64 09 00
	00		 mov	 eax, DWORD PTR [esi+2404]
  01170	c7 84 86 d4 07
	00 00 81 01 00
	00		 mov	 DWORD PTR [esi+eax*4+2004], 385 ; 00000181H
  0117b	8b 86 64 09 00
	00		 mov	 eax, DWORD PTR [esi+2404]
  01181	83 f8 63	 cmp	 eax, 99			; 00000063H
  01184	7d 07		 jge	 SHORT $LN244@Init
  01186	40		 inc	 eax
  01187	89 86 64 09 00
	00		 mov	 DWORD PTR [esi+2404], eax
$LN244@Init:

; 135  : 	this->cCommand.Add("/KanturuEnd", 386);

  0118d	8b 86 64 09 00
	00		 mov	 eax, DWORD PTR [esi+2404]
  01193	8d 14 80	 lea	 edx, DWORD PTR [eax+eax*4]
  01196	b9 00 00 00 00	 mov	 ecx, OFFSET ??_C@_0M@LPOCJFNP@?1KanturuEnd?$AA@
  0119b	8d 54 96 04	 lea	 edx, DWORD PTR [esi+edx*4+4]
  0119f	90		 npad	 1
$LL251@Init:
  011a0	8a 01		 mov	 al, BYTE PTR [ecx]
  011a2	88 02		 mov	 BYTE PTR [edx], al
  011a4	41		 inc	 ecx
  011a5	42		 inc	 edx
  011a6	84 c0		 test	 al, al
  011a8	75 f6		 jne	 SHORT $LL251@Init
  011aa	8b 86 64 09 00
	00		 mov	 eax, DWORD PTR [esi+2404]
  011b0	c7 84 86 d4 07
	00 00 82 01 00
	00		 mov	 DWORD PTR [esi+eax*4+2004], 386 ; 00000182H
  011bb	8b 86 64 09 00
	00		 mov	 eax, DWORD PTR [esi+2404]
  011c1	83 f8 63	 cmp	 eax, 99			; 00000063H
  011c4	7d 07		 jge	 SHORT $LN248@Init
  011c6	40		 inc	 eax
  011c7	89 86 64 09 00
	00		 mov	 DWORD PTR [esi+2404], eax
$LN248@Init:

; 136  : 
; 137  : 	this->cCommand.Add(lMsg.Get(MSGGET(13, 57)), 387);

  011cd	68 39 0d 00 00	 push	 3385			; 00000d39H
  011d2	b9 00 00 00 00	 mov	 ecx, OFFSET ?lMsg@@3VCMsg@@A ; lMsg
  011d7	e8 00 00 00 00	 call	 ?Get@CMsg@@QAEPADH@Z	; CMsg::Get
  011dc	8b 8e 64 09 00
	00		 mov	 ecx, DWORD PTR [esi+2404]
  011e2	8d 0c 89	 lea	 ecx, DWORD PTR [ecx+ecx*4]
  011e5	8d 54 8e 04	 lea	 edx, DWORD PTR [esi+ecx*4+4]
  011e9	8d a4 24 00 00
	00 00		 npad	 7
$LL255@Init:
  011f0	8a 08		 mov	 cl, BYTE PTR [eax]
  011f2	88 0a		 mov	 BYTE PTR [edx], cl
  011f4	40		 inc	 eax
  011f5	42		 inc	 edx
  011f6	84 c9		 test	 cl, cl
  011f8	75 f6		 jne	 SHORT $LL255@Init
  011fa	8b 96 64 09 00
	00		 mov	 edx, DWORD PTR [esi+2404]
  01200	c7 84 96 d4 07
	00 00 83 01 00
	00		 mov	 DWORD PTR [esi+edx*4+2004], 387 ; 00000183H
  0120b	8b 86 64 09 00
	00		 mov	 eax, DWORD PTR [esi+2404]
  01211	83 f8 63	 cmp	 eax, 99			; 00000063H
  01214	7d 07		 jge	 SHORT $LN252@Init
  01216	40		 inc	 eax
  01217	89 86 64 09 00
	00		 mov	 DWORD PTR [esi+2404], eax
$LN252@Init:

; 138  : 	this->cCommand.Add(lMsg.Get(MSGGET(13, 58)), 388);

  0121d	68 3a 0d 00 00	 push	 3386			; 00000d3aH
  01222	b9 00 00 00 00	 mov	 ecx, OFFSET ?lMsg@@3VCMsg@@A ; lMsg
  01227	e8 00 00 00 00	 call	 ?Get@CMsg@@QAEPADH@Z	; CMsg::Get
  0122c	8b 8e 64 09 00
	00		 mov	 ecx, DWORD PTR [esi+2404]
  01232	8d 0c 89	 lea	 ecx, DWORD PTR [ecx+ecx*4]
  01235	8d 54 8e 04	 lea	 edx, DWORD PTR [esi+ecx*4+4]
  01239	8d a4 24 00 00
	00 00		 npad	 7
$LL259@Init:
  01240	8a 08		 mov	 cl, BYTE PTR [eax]
  01242	88 0a		 mov	 BYTE PTR [edx], cl
  01244	40		 inc	 eax
  01245	42		 inc	 edx
  01246	84 c9		 test	 cl, cl
  01248	75 f6		 jne	 SHORT $LL259@Init
  0124a	8b 96 64 09 00
	00		 mov	 edx, DWORD PTR [esi+2404]
  01250	c7 84 96 d4 07
	00 00 84 01 00
	00		 mov	 DWORD PTR [esi+edx*4+2004], 388 ; 00000184H
  0125b	8b 86 64 09 00
	00		 mov	 eax, DWORD PTR [esi+2404]
  01261	83 f8 63	 cmp	 eax, 99			; 00000063H
  01264	7d 07		 jge	 SHORT $LN256@Init
  01266	40		 inc	 eax
  01267	89 86 64 09 00
	00		 mov	 DWORD PTR [esi+2404], eax
$LN256@Init:

; 139  : 	this->cCommand.Add(lMsg.Get(MSGGET(13, 59)), 389);

  0126d	68 3b 0d 00 00	 push	 3387			; 00000d3bH
  01272	b9 00 00 00 00	 mov	 ecx, OFFSET ?lMsg@@3VCMsg@@A ; lMsg
  01277	e8 00 00 00 00	 call	 ?Get@CMsg@@QAEPADH@Z	; CMsg::Get
  0127c	8b 8e 64 09 00
	00		 mov	 ecx, DWORD PTR [esi+2404]
  01282	8d 0c 89	 lea	 ecx, DWORD PTR [ecx+ecx*4]
  01285	8d 54 8e 04	 lea	 edx, DWORD PTR [esi+ecx*4+4]
  01289	8d a4 24 00 00
	00 00		 npad	 7
$LL263@Init:
  01290	8a 08		 mov	 cl, BYTE PTR [eax]
  01292	88 0a		 mov	 BYTE PTR [edx], cl
  01294	40		 inc	 eax
  01295	42		 inc	 edx
  01296	84 c9		 test	 cl, cl
  01298	75 f6		 jne	 SHORT $LL263@Init
  0129a	8b 96 64 09 00
	00		 mov	 edx, DWORD PTR [esi+2404]
  012a0	c7 84 96 d4 07
	00 00 85 01 00
	00		 mov	 DWORD PTR [esi+edx*4+2004], 389 ; 00000185H
  012ab	8b 86 64 09 00
	00		 mov	 eax, DWORD PTR [esi+2404]
  012b1	83 f8 63	 cmp	 eax, 99			; 00000063H
  012b4	7d 07		 jge	 SHORT $LN260@Init
  012b6	40		 inc	 eax
  012b7	89 86 64 09 00
	00		 mov	 DWORD PTR [esi+2404], eax
$LN260@Init:

; 140  : #endif
; 141  : 
; 142  : 	this->cCommand.Add("/", 217);	// Fire Cracker Effect	// #translation 

  012bd	8b 86 64 09 00
	00		 mov	 eax, DWORD PTR [esi+2404]
  012c3	8d 04 80	 lea	 eax, DWORD PTR [eax+eax*4]
  012c6	b9 00 00 00 00	 mov	 ecx, OFFSET ??_C@_05MDFEGFCD@?1?F?x?A?W?$AA@
  012cb	8d 54 86 04	 lea	 edx, DWORD PTR [esi+eax*4+4]
  012cf	90		 npad	 1
$LL267@Init:
  012d0	8a 01		 mov	 al, BYTE PTR [ecx]
  012d2	88 02		 mov	 BYTE PTR [edx], al
  012d4	41		 inc	 ecx
  012d5	42		 inc	 edx
  012d6	84 c0		 test	 al, al
  012d8	75 f6		 jne	 SHORT $LL267@Init
  012da	8b 8e 64 09 00
	00		 mov	 ecx, DWORD PTR [esi+2404]
  012e0	c7 84 8e d4 07
	00 00 d9 00 00
	00		 mov	 DWORD PTR [esi+ecx*4+2004], 217 ; 000000d9H
  012eb	8b 86 64 09 00
	00		 mov	 eax, DWORD PTR [esi+2404]
  012f1	83 f8 63	 cmp	 eax, 99			; 00000063H
  012f4	7d 07		 jge	 SHORT $LN335@Init
  012f6	40		 inc	 eax
  012f7	89 86 64 09 00
	00		 mov	 DWORD PTR [esi+2404], eax
$LN335@Init:

; 143  : 
; 144  : 	this->WatchTargetIndex = -1;

  012fd	c7 86 b4 09 00
	00 ff ff ff ff	 mov	 DWORD PTR [esi+2484], -1
  01307	5e		 pop	 esi

; 145  : }

  01308	c3		 ret	 0
?Init@CGMMng@@QAEXXZ ENDP				; CGMMng::Init
_TEXT	ENDS
PUBLIC	?ManagerInit@CGMMng@@QAEXXZ			; CGMMng::ManagerInit
; Function compile flags: /Ogtp
;	COMDAT ?ManagerInit@CGMMng@@QAEXXZ
_TEXT	SEGMENT
?ManagerInit@CGMMng@@QAEXXZ PROC			; CGMMng::ManagerInit, COMDAT
; _this$ = ecx

; 150  : 	for ( int n = 0;n<MAX_GAME_MASTER ; n++ )
; 151  : 	{
; 152  : 		this->ManagerIndex[n] = -1;

  00000	83 c8 ff	 or	 eax, -1
  00003	89 81 a0 09 00
	00		 mov	 DWORD PTR [ecx+2464], eax
  00009	89 81 a4 09 00
	00		 mov	 DWORD PTR [ecx+2468], eax
  0000f	89 81 a8 09 00
	00		 mov	 DWORD PTR [ecx+2472], eax
  00015	89 81 ac 09 00
	00		 mov	 DWORD PTR [ecx+2476], eax
  0001b	89 81 b0 09 00
	00		 mov	 DWORD PTR [ecx+2480], eax

; 153  : 	}
; 154  : }

  00021	c3		 ret	 0
?ManagerInit@CGMMng@@QAEXXZ ENDP			; CGMMng::ManagerInit
_TEXT	ENDS
PUBLIC	?ManagerAdd@CGMMng@@QAEHPADH@Z			; CGMMng::ManagerAdd
; Function compile flags: /Ogtp
;	COMDAT ?ManagerAdd@CGMMng@@QAEHPADH@Z
_TEXT	SEGMENT
_name$ = 8						; size = 4
_aIndex$ = 12						; size = 4
?ManagerAdd@CGMMng@@QAEHPADH@Z PROC			; CGMMng::ManagerAdd, COMDAT
; _this$ = ecx

; 158  : {

  00000	55		 push	 ebp
  00001	8b ec		 mov	 ebp, esp

; 159  : 	for ( int n=0 ; n<MAX_GAME_MASTER ; n++ )

  00003	33 c0		 xor	 eax, eax
  00005	8d 91 a0 09 00
	00		 lea	 edx, DWORD PTR [ecx+2464]
  0000b	eb 03 8d 49 00	 npad	 5
$LL4@ManagerAdd:

; 160  : 	{
; 161  : 		if ( this->ManagerIndex[n] == -1 )

  00010	83 3a ff	 cmp	 DWORD PTR [edx], -1
  00013	74 10		 je	 SHORT $LN10@ManagerAdd

; 159  : 	for ( int n=0 ; n<MAX_GAME_MASTER ; n++ )

  00015	40		 inc	 eax
  00016	83 c2 04	 add	 edx, 4
  00019	83 f8 05	 cmp	 eax, 5
  0001c	7c f2		 jl	 SHORT $LL4@ManagerAdd

; 165  : 			return n;
; 166  : 		}
; 167  : 	}
; 168  : 
; 169  : 	return -1;

  0001e	83 c8 ff	 or	 eax, -1

; 170  : }

  00021	5d		 pop	 ebp
  00022	c2 08 00	 ret	 8
$LN10@ManagerAdd:

; 162  : 		{
; 163  : 			strcpy(this->szManagerName[n], name);

  00025	8b 55 08	 mov	 edx, DWORD PTR _name$[ebp]
  00028	53		 push	 ebx
  00029	56		 push	 esi
  0002a	8b f0		 mov	 esi, eax
  0002c	6b f6 0b	 imul	 esi, 11			; 0000000bH
  0002f	8d b4 0e 68 09
	00 00		 lea	 esi, DWORD PTR [esi+ecx+2408]
  00036	2b f2		 sub	 esi, edx
$LL7@ManagerAdd:
  00038	8a 1a		 mov	 bl, BYTE PTR [edx]
  0003a	88 1c 16	 mov	 BYTE PTR [esi+edx], bl
  0003d	42		 inc	 edx
  0003e	84 db		 test	 bl, bl
  00040	75 f6		 jne	 SHORT $LL7@ManagerAdd

; 164  : 			this->ManagerIndex[n] = aIndex;

  00042	8b 55 0c	 mov	 edx, DWORD PTR _aIndex$[ebp]
  00045	5e		 pop	 esi
  00046	89 94 81 a0 09
	00 00		 mov	 DWORD PTR [ecx+eax*4+2464], edx
  0004d	5b		 pop	 ebx

; 170  : }

  0004e	5d		 pop	 ebp
  0004f	c2 08 00	 ret	 8
?ManagerAdd@CGMMng@@QAEHPADH@Z ENDP			; CGMMng::ManagerAdd
_TEXT	ENDS
PUBLIC	?ManagerDel@CGMMng@@QAEXPAD@Z			; CGMMng::ManagerDel
; Function compile flags: /Ogtp
;	COMDAT ?ManagerDel@CGMMng@@QAEXPAD@Z
_TEXT	SEGMENT
_this$ = -4						; size = 4
_name$ = 8						; size = 4
?ManagerDel@CGMMng@@QAEXPAD@Z PROC			; CGMMng::ManagerDel, COMDAT
; _this$ = ecx

; 174  : {

  00000	55		 push	 ebp
  00001	8b ec		 mov	 ebp, esp
  00003	51		 push	 ecx
  00004	53		 push	 ebx
  00005	56		 push	 esi
  00006	57		 push	 edi
  00007	89 4d fc	 mov	 DWORD PTR _this$[ebp], ecx

; 175  : 	for ( int n=0;n<MAX_GAME_MASTER;n++)

  0000a	33 f6		 xor	 esi, esi
  0000c	8d b9 68 09 00
	00		 lea	 edi, DWORD PTR [ecx+2408]
  00012	81 c1 a0 09 00
	00		 add	 ecx, 2464		; 000009a0H
$LL5@ManagerDel:

; 176  : 	{
; 177  : 		if ( this->ManagerIndex[n] != -1 )

  00018	83 39 ff	 cmp	 DWORD PTR [ecx], -1
  0001b	74 2e		 je	 SHORT $LN4@ManagerDel

; 178  : 		{
; 179  : 			if ( strcmp(this->szManagerName[n], name) == 0 )

  0001d	8b 55 08	 mov	 edx, DWORD PTR _name$[ebp]
  00020	8b c7		 mov	 eax, edi
$LL11@ManagerDel:
  00022	8a 18		 mov	 bl, BYTE PTR [eax]
  00024	3a 1a		 cmp	 bl, BYTE PTR [edx]
  00026	75 1a		 jne	 SHORT $LN12@ManagerDel
  00028	84 db		 test	 bl, bl
  0002a	74 12		 je	 SHORT $LN13@ManagerDel
  0002c	8a 58 01	 mov	 bl, BYTE PTR [eax+1]
  0002f	3a 5a 01	 cmp	 bl, BYTE PTR [edx+1]
  00032	75 0e		 jne	 SHORT $LN12@ManagerDel
  00034	83 c0 02	 add	 eax, 2
  00037	83 c2 02	 add	 edx, 2
  0003a	84 db		 test	 bl, bl
  0003c	75 e4		 jne	 SHORT $LL11@ManagerDel
$LN13@ManagerDel:
  0003e	33 c0		 xor	 eax, eax
  00040	eb 05		 jmp	 SHORT $LN14@ManagerDel
$LN12@ManagerDel:
  00042	1b c0		 sbb	 eax, eax
  00044	83 d8 ff	 sbb	 eax, -1
$LN14@ManagerDel:
  00047	85 c0		 test	 eax, eax
  00049	74 15		 je	 SHORT $LN9@ManagerDel
$LN4@ManagerDel:

; 175  : 	for ( int n=0;n<MAX_GAME_MASTER;n++)

  0004b	46		 inc	 esi
  0004c	83 c1 04	 add	 ecx, 4
  0004f	83 c7 0b	 add	 edi, 11			; 0000000bH
  00052	83 fe 05	 cmp	 esi, 5
  00055	7c c1		 jl	 SHORT $LL5@ManagerDel
  00057	5f		 pop	 edi
  00058	5e		 pop	 esi
  00059	5b		 pop	 ebx

; 182  : 				break;
; 183  : 			}
; 184  : 		}
; 185  : 	}
; 186  : }

  0005a	8b e5		 mov	 esp, ebp
  0005c	5d		 pop	 ebp
  0005d	c2 04 00	 ret	 4
$LN9@ManagerDel:

; 180  : 			{
; 181  : 				this->ManagerIndex[n] = -1;

  00060	8b 45 fc	 mov	 eax, DWORD PTR _this$[ebp]
  00063	5f		 pop	 edi
  00064	c7 84 b0 a0 09
	00 00 ff ff ff
	ff		 mov	 DWORD PTR [eax+esi*4+2464], -1
  0006f	5e		 pop	 esi
  00070	5b		 pop	 ebx

; 182  : 				break;
; 183  : 			}
; 184  : 		}
; 185  : 	}
; 186  : }

  00071	8b e5		 mov	 esp, ebp
  00073	5d		 pop	 ebp
  00074	c2 04 00	 ret	 4
?ManagerDel@CGMMng@@QAEXPAD@Z ENDP			; CGMMng::ManagerDel
_TEXT	ENDS
PUBLIC	?ManagerSendData@CGMMng@@QAEXPADH@Z		; CGMMng::ManagerSendData
EXTRN	?GCServerMsgStringSend@@YAXPADHE@Z:PROC		; GCServerMsgStringSend
; Function compile flags: /Ogtp
;	COMDAT ?ManagerSendData@CGMMng@@QAEXPADH@Z
_TEXT	SEGMENT
_szMsg$ = 8						; size = 4
_size$ = 12						; size = 4
?ManagerSendData@CGMMng@@QAEXPADH@Z PROC		; CGMMng::ManagerSendData, COMDAT
; _this$ = ecx

; 190  : {

  00000	55		 push	 ebp
  00001	8b ec		 mov	 ebp, esp
  00003	53		 push	 ebx

; 191  : 	for ( int n=0;n<MAX_GAME_MASTER;n++ )

  00004	8b 5d 08	 mov	 ebx, DWORD PTR _szMsg$[ebp]
  00007	56		 push	 esi
  00008	57		 push	 edi
  00009	8d b1 a0 09 00
	00		 lea	 esi, DWORD PTR [ecx+2464]
  0000f	bf 05 00 00 00	 mov	 edi, 5
$LL4@ManagerSen:

; 192  : 	{
; 193  : 		if ( this->ManagerIndex[n] != -1 )

  00014	8b 06		 mov	 eax, DWORD PTR [esi]
  00016	83 f8 ff	 cmp	 eax, -1
  00019	74 0c		 je	 SHORT $LN3@ManagerSen

; 194  : 		{
; 195  : 			GCServerMsgStringSend(szMsg, this->ManagerIndex[n], 0);

  0001b	6a 00		 push	 0
  0001d	50		 push	 eax
  0001e	53		 push	 ebx
  0001f	e8 00 00 00 00	 call	 ?GCServerMsgStringSend@@YAXPADHE@Z ; GCServerMsgStringSend
  00024	83 c4 0c	 add	 esp, 12			; 0000000cH
$LN3@ManagerSen:

; 191  : 	for ( int n=0;n<MAX_GAME_MASTER;n++ )

  00027	83 c6 04	 add	 esi, 4
  0002a	4f		 dec	 edi
  0002b	75 e7		 jne	 SHORT $LL4@ManagerSen
  0002d	5f		 pop	 edi
  0002e	5e		 pop	 esi
  0002f	5b		 pop	 ebx

; 196  : 		}
; 197  : 	}
; 198  : }

  00030	5d		 pop	 ebp
  00031	c2 08 00	 ret	 8
?ManagerSendData@CGMMng@@QAEXPADH@Z ENDP		; CGMMng::ManagerSendData
_TEXT	ENDS
PUBLIC	?DataSend@CGMMng@@QAEXPAEH@Z			; CGMMng::DataSend
EXTRN	?DataSend@@YAHHPAEK@Z:PROC			; DataSend
; Function compile flags: /Ogtp
;	COMDAT ?DataSend@CGMMng@@QAEXPAEH@Z
_TEXT	SEGMENT
_szMsg$ = 8						; size = 4
_size$ = 12						; size = 4
?DataSend@CGMMng@@QAEXPAEH@Z PROC			; CGMMng::DataSend, COMDAT
; _this$ = ecx

; 201  : {

  00000	55		 push	 ebp
  00001	8b ec		 mov	 ebp, esp
  00003	53		 push	 ebx

; 202  : 	for ( int n=0;n<MAX_GAME_MASTER;n++ )

  00004	8b 5d 0c	 mov	 ebx, DWORD PTR _size$[ebp]
  00007	56		 push	 esi
  00008	57		 push	 edi
  00009	8d b1 a0 09 00
	00		 lea	 esi, DWORD PTR [ecx+2464]
  0000f	bf 05 00 00 00	 mov	 edi, 5
$LL4@DataSend:

; 203  : 	{
; 204  : 		if ( this->ManagerIndex[n] != -1 )

  00014	8b 06		 mov	 eax, DWORD PTR [esi]
  00016	83 f8 ff	 cmp	 eax, -1
  00019	74 0e		 je	 SHORT $LN3@DataSend

; 205  : 		{
; 206  : 			::DataSend(this->ManagerIndex[n], szMsg, size);

  0001b	8b 4d 08	 mov	 ecx, DWORD PTR _szMsg$[ebp]
  0001e	53		 push	 ebx
  0001f	51		 push	 ecx
  00020	50		 push	 eax
  00021	e8 00 00 00 00	 call	 ?DataSend@@YAHHPAEK@Z	; DataSend
  00026	83 c4 0c	 add	 esp, 12			; 0000000cH
$LN3@DataSend:

; 202  : 	for ( int n=0;n<MAX_GAME_MASTER;n++ )

  00029	83 c6 04	 add	 esi, 4
  0002c	4f		 dec	 edi
  0002d	75 e5		 jne	 SHORT $LL4@DataSend
  0002f	5f		 pop	 edi
  00030	5e		 pop	 esi
  00031	5b		 pop	 ebx

; 207  : 		}
; 208  : 	}
; 209  : }

  00032	5d		 pop	 ebp
  00033	c2 08 00	 ret	 8
?DataSend@CGMMng@@QAEXPAEH@Z ENDP			; CGMMng::DataSend
_TEXT	ENDS
PUBLIC	?BattleInfoSend@CGMMng@@QAEXPADE0E@Z		; CGMMng::BattleInfoSend
EXTRN	?GCGoalSend@@YAXHPADE0E@Z:PROC			; GCGoalSend
; Function compile flags: /Ogtp
;	COMDAT ?BattleInfoSend@CGMMng@@QAEXPADE0E@Z
_TEXT	SEGMENT
tv174 = -4						; size = 4
_Name1$ = 8						; size = 4
_score1$ = 12						; size = 1
_Name2$ = 16						; size = 4
_score2$ = 20						; size = 1
?BattleInfoSend@CGMMng@@QAEXPADE0E@Z PROC		; CGMMng::BattleInfoSend, COMDAT
; _this$ = ecx

; 213  : {

  00000	55		 push	 ebp
  00001	8b ec		 mov	 ebp, esp
  00003	51		 push	 ecx
  00004	53		 push	 ebx

; 214  : 	for ( int n=0;n<MAX_GAME_MASTER;n++ )

  00005	8b 5d 08	 mov	 ebx, DWORD PTR _Name1$[ebp]
  00008	56		 push	 esi
  00009	57		 push	 edi
  0000a	8b 7d 10	 mov	 edi, DWORD PTR _Name2$[ebp]
  0000d	8d b1 a0 09 00
	00		 lea	 esi, DWORD PTR [ecx+2464]
  00013	c7 45 fc 05 00
	00 00		 mov	 DWORD PTR tv174[ebp], 5
  0001a	8d 9b 00 00 00
	00		 npad	 6
$LL4@BattleInfo:

; 215  : 	{
; 216  : 		if ( this->ManagerIndex[n] != -1 )

  00020	8b 06		 mov	 eax, DWORD PTR [esi]
  00022	83 f8 ff	 cmp	 eax, -1
  00025	74 13		 je	 SHORT $LN3@BattleInfo

; 217  : 		{
; 218  : 			GCGoalSend(this->ManagerIndex[n], Name1, score1, Name2, score2);

  00027	8b 4d 14	 mov	 ecx, DWORD PTR _score2$[ebp]
  0002a	8b 55 0c	 mov	 edx, DWORD PTR _score1$[ebp]
  0002d	51		 push	 ecx
  0002e	57		 push	 edi
  0002f	52		 push	 edx
  00030	53		 push	 ebx
  00031	50		 push	 eax
  00032	e8 00 00 00 00	 call	 ?GCGoalSend@@YAXHPADE0E@Z ; GCGoalSend
  00037	83 c4 14	 add	 esp, 20			; 00000014H
$LN3@BattleInfo:

; 214  : 	for ( int n=0;n<MAX_GAME_MASTER;n++ )

  0003a	83 c6 04	 add	 esi, 4
  0003d	ff 4d fc	 dec	 DWORD PTR tv174[ebp]
  00040	75 de		 jne	 SHORT $LL4@BattleInfo
  00042	5f		 pop	 edi
  00043	5e		 pop	 esi
  00044	5b		 pop	 ebx

; 219  : 		}
; 220  : 	}
; 221  : }

  00045	8b e5		 mov	 esp, ebp
  00047	5d		 pop	 ebp
  00048	c2 10 00	 ret	 16			; 00000010H
?BattleInfoSend@CGMMng@@QAEXPADE0E@Z ENDP		; CGMMng::BattleInfoSend
_TEXT	ENDS
PUBLIC	?GetCmd@CGMMng@@QAEHPAD@Z			; CGMMng::GetCmd
EXTRN	_stricmp:PROC
; Function compile flags: /Ogtp
;	COMDAT ?GetCmd@CGMMng@@QAEHPAD@Z
_TEXT	SEGMENT
_this$ = -4						; size = 4
_szCmd$ = 8						; size = 4
?GetCmd@CGMMng@@QAEHPAD@Z PROC				; CGMMng::GetCmd, COMDAT
; _this$ = ecx

; 225  : {

  00000	55		 push	 ebp
  00001	8b ec		 mov	 ebp, esp
  00003	51		 push	 ecx
  00004	53		 push	 ebx
  00005	56		 push	 esi
  00006	57		 push	 edi
  00007	89 4d fc	 mov	 DWORD PTR _this$[ebp], ecx

; 226  : 	for ( int n	=0; n< MAX_GM_COMMAND ; n++ )

  0000a	33 f6		 xor	 esi, esi
  0000c	8d 59 04	 lea	 ebx, DWORD PTR [ecx+4]
  0000f	8d b9 d4 07 00
	00		 lea	 edi, DWORD PTR [ecx+2004]
$LL11@GetCmd:

; 227  : 	{
; 228  : 		if ( this->cCommand.nCmdCode[n] > 0 )

  00015	83 3f 00	 cmp	 DWORD PTR [edi], 0
  00018	7e 11		 jle	 SHORT $LN4@GetCmd

; 229  : 		{
; 230  : 			if ( stricmp(szCmd, this->cCommand.szCmd[n]) == 0 )

  0001a	8b 45 08	 mov	 eax, DWORD PTR _szCmd$[ebp]
  0001d	53		 push	 ebx
  0001e	50		 push	 eax
  0001f	e8 00 00 00 00	 call	 _stricmp
  00024	83 c4 08	 add	 esp, 8
  00027	85 c0		 test	 eax, eax
  00029	74 17		 je	 SHORT $LN9@GetCmd
$LN4@GetCmd:

; 226  : 	for ( int n	=0; n< MAX_GM_COMMAND ; n++ )

  0002b	46		 inc	 esi
  0002c	83 c7 04	 add	 edi, 4
  0002f	83 c3 14	 add	 ebx, 20			; 00000014H
  00032	83 fe 64	 cmp	 esi, 100		; 00000064H
  00035	7c de		 jl	 SHORT $LL11@GetCmd

; 233  : 			}
; 234  : 		}
; 235  : 	}
; 236  : 
; 237  : 	return 0;

  00037	5f		 pop	 edi
  00038	5e		 pop	 esi
  00039	33 c0		 xor	 eax, eax
  0003b	5b		 pop	 ebx

; 238  : }

  0003c	8b e5		 mov	 esp, ebp
  0003e	5d		 pop	 ebp
  0003f	c2 04 00	 ret	 4
$LN9@GetCmd:

; 231  : 			{
; 232  : 				return this->cCommand.nCmdCode[n];

  00042	8b 4d fc	 mov	 ecx, DWORD PTR _this$[ebp]
  00045	8b 84 b1 d4 07
	00 00		 mov	 eax, DWORD PTR [ecx+esi*4+2004]
  0004c	5f		 pop	 edi
  0004d	5e		 pop	 esi
  0004e	5b		 pop	 ebx

; 238  : }

  0004f	8b e5		 mov	 esp, ebp
  00051	5d		 pop	 ebp
  00052	c2 04 00	 ret	 4
?GetCmd@CGMMng@@QAEHPAD@Z ENDP				; CGMMng::GetCmd
_TEXT	ENDS
PUBLIC	?GetTokenString@CGMMng@@QAEPADXZ		; CGMMng::GetTokenString
EXTRN	_strtok:PROC
; Function compile flags: /Ogtp
;	COMDAT ?GetTokenString@CGMMng@@QAEPADXZ
_TEXT	SEGMENT
_seps$ = -4						; size = 2
?GetTokenString@CGMMng@@QAEPADXZ PROC			; CGMMng::GetTokenString, COMDAT
; _this$ = ecx

; 243  : {

  00000	55		 push	 ebp
  00001	8b ec		 mov	 ebp, esp
  00003	51		 push	 ecx

; 244  : 	char seps[2] = " ";
; 245  : 	return strtok(0, seps);

  00004	8d 4d fc	 lea	 ecx, DWORD PTR _seps$[ebp]
  00007	51		 push	 ecx
  00008	b8 20 00 00 00	 mov	 eax, 32			; 00000020H
  0000d	6a 00		 push	 0
  0000f	66 89 45 fc	 mov	 WORD PTR _seps$[ebp], ax
  00013	e8 00 00 00 00	 call	 _strtok
  00018	83 c4 08	 add	 esp, 8

; 246  : }

  0001b	8b e5		 mov	 esp, ebp
  0001d	5d		 pop	 ebp
  0001e	c3		 ret	 0
?GetTokenString@CGMMng@@QAEPADXZ ENDP			; CGMMng::GetTokenString
_TEXT	ENDS
PUBLIC	?GetTokenNumber@CGMMng@@QAEHXZ			; CGMMng::GetTokenNumber
EXTRN	_atoi:PROC
; Function compile flags: /Ogtp
;	COMDAT ?GetTokenNumber@CGMMng@@QAEHXZ
_TEXT	SEGMENT
_seps$ = -4						; size = 2
?GetTokenNumber@CGMMng@@QAEHXZ PROC			; CGMMng::GetTokenNumber, COMDAT
; _this$ = ecx

; 250  : {

  00000	55		 push	 ebp
  00001	8b ec		 mov	 ebp, esp
  00003	51		 push	 ecx

; 251  : 	char seps[2] = " ";
; 252  : 	char * szToken = strtok(0, seps);

  00004	8d 4d fc	 lea	 ecx, DWORD PTR _seps$[ebp]
  00007	51		 push	 ecx
  00008	b8 20 00 00 00	 mov	 eax, 32			; 00000020H
  0000d	6a 00		 push	 0
  0000f	66 89 45 fc	 mov	 WORD PTR _seps$[ebp], ax
  00013	e8 00 00 00 00	 call	 _strtok
  00018	83 c4 08	 add	 esp, 8

; 253  : 
; 254  : 	if ( szToken != NULL )

  0001b	85 c0		 test	 eax, eax
  0001d	74 0d		 je	 SHORT $LN1@GetTokenNu

; 255  : 	{
; 256  : 		return atoi(szToken);

  0001f	50		 push	 eax
  00020	e8 00 00 00 00	 call	 _atoi
  00025	83 c4 04	 add	 esp, 4

; 260  : }

  00028	8b e5		 mov	 esp, ebp
  0002a	5d		 pop	 ebp
  0002b	c3		 ret	 0
$LN1@GetTokenNu:

; 257  : 	}
; 258  : 
; 259  : 	return 0;

  0002c	33 c0		 xor	 eax, eax

; 260  : }

  0002e	8b e5		 mov	 esp, ebp
  00030	5d		 pop	 ebp
  00031	c3		 ret	 0
?GetTokenNumber@CGMMng@@QAEHXZ ENDP			; CGMMng::GetTokenNumber
_TEXT	ENDS
PUBLIC	??_C@_0BD@ONJMFEJN@?D?o?$LF?PHP?H?$LI?$LK?$LJ?$LN?C?$LA?$KD?$LM?$LD?A?$KE?$AA@ ; `string'
PUBLIC	??_C@_0BF@IAPMHEEM@?D?o?$LF?PHP?C?J?$LE?g?H?$LI?$LK?$LJ?$LH?$KO?$LM?$LD?A?$KE?$AA@ ; `string'
PUBLIC	??_C@_0BB@FDCEFCLA@?D?o?$LF?PHP?H?$LI?$LK?$LJ?$LH?$KO?$LM?$LD?A?$KE?$AA@ ; `string'
PUBLIC	??_C@_0L@LMJDAGMB@?D?o?$LF?PHP?$LM?$LD?A?$KE?$AA@ ; `string'
PUBLIC	??_C@_0DC@DLDEMFJO@?D?o?$LF?P?5HP?5?C?J?$LE?g?H?$LI?$LK?$LJ?$LH?$KO?5?$DN?5?$CFd?5?H?$LI?$LK?$LJ?$LH?$KO?5?$DN@ ; `string'
PUBLIC	??_C@_0BI@FABGHCEJ@?D?o?$LF?P?5HP?5?$DN?5?$CF7?40f?5?1?5?$CF7?40f?$AA@ ; `string'
PUBLIC	??_C@_0DF@GLPGGMOI@?$FLKUNDUN?$FN?5Use?5GM?5Command?5?9?$DO?5?$FL?5?$CFs?5@ ; `string'
PUBLIC	??_C@_0N@DFKMJHLF@?D?o?$LF?P?$LL?s?E?B?$LK?$LI?$LB?b?$AA@ ; `string'
PUBLIC	??_C@_03MCADLMAF@off?$AA@			; `string'
PUBLIC	??_C@_02LIELOMNJ@on?$AA@			; `string'
PUBLIC	??_C@_0N@KELDLAKD@Set?5GuildWar?$AA@		; `string'
PUBLIC	??_C@_0BC@MOJFCJJN@Free?5Ban?9Chatting?$AA@	; `string'
PUBLIC	??_C@_0N@KILIGKJC@Ban?5Chatting?$AA@		; `string'
PUBLIC	??_C@_0N@GPDFKJGB@End?5GuildWar?$AA@		; `string'
PUBLIC	??_C@_0BC@DPMLLFMM@Stop?5BattleSoccer?$AA@	; `string'
PUBLIC	??_C@_0BD@EFECDMGE@Start?5BattleSoccer?$AA@	; `string'
PUBLIC	??_C@_0BC@HIAMIIED@Guild?5SetPosition?$AA@	; `string'
PUBLIC	??_C@_0BB@BCPFBGGF@Guild?5Disconnect?$AA@	; `string'
PUBLIC	??_C@_0BA@MEJDKKFB@User?5Disconnect?$AA@	; `string'
PUBLIC	??_C@_0BH@NPPBDIDN@User?5Stat?5?$CIconnection?$CJ?$AA@ ; `string'
PUBLIC	??_C@_0EA@DPOHDNID@Use?5GM?5Command?5?9?$DO?5?$FL?5?$CFs?5?$FN?7?$FL?5?$CFs?5?$FN?7@ ; `string'
PUBLIC	??_C@_0O@HBGDJJNF@User?5Tracking?$AA@		; `string'
PUBLIC	??_C@_0O@GFMKDCHA@?$CFs?5?3?5?$LA?$KI?$LN?C?$LN?C?$MA?$NL?$AA@ ; `string'
PUBLIC	??_C@_0O@MKODHHAM@?$CFs?5?3?5?$LA?$KI?$LN?C?G?X?A?$KG?$AA@ ; `string'
PUBLIC	??_C@_0EB@OBAKBBAF@Use?5GM?5Command?5?9?$DO?5?$FL?5?$CFs?5?$FN?7?$FL?5?$CFs?5?$FN?7@ ; `string'
PUBLIC	??_C@_0O@MIJMFKGB@User?5Watching?$AA@		; `string'
PUBLIC	??_C@_0CM@FGOOHLMI@Use?5GM?5Command?5?9?$DO?5?$FL?5?$CFs?5?$FN?7?$FL?5?$CFs?5?$FN?7@ ; `string'
PUBLIC	??_C@_0L@FKKMDPJD@FIRECRACK?4?$AA@		; `string'
PUBLIC	_aIndex$GSCopy$
PUBLIC	__$ArrayPad$
PUBLIC	?ManagementProc@CGMMng@@QAEHPAUOBJECTSTRUCT@@PADH@Z ; CGMMng::ManagementProc
EXTRN	?giKundunRefillHPSec@@3HA:DWORD			; giKundunRefillHPSec
EXTRN	?giKundunRefillHP@@3HA:DWORD			; giKundunRefillHP
EXTRN	?giKundunRefillHPTime@@3HA:DWORD		; giKundunRefillHPTime
EXTRN	?SendToUser@TNotice@@QAAXHPADZZ:PROC		; TNotice::SendToUser
EXTRN	??0TNotice@@QAE@E@Z:PROC			; TNotice::TNotice
EXTRN	?Output@CLogToFile@@QAAXPADZZ:PROC		; CLogToFile::Output
EXTRN	?gObjSetDuelOption@@YAXHH@Z:PROC		; gObjSetDuelOption
EXTRN	?gObjSetTradeOption@@YAXHH@Z:PROC		; gObjSetTradeOption
EXTRN	?gObjBillRequest@@YAXPAUOBJECTSTRUCT@@@Z:PROC	; gObjBillRequest
EXTRN	?gEnableBattleSoccer@@3HA:DWORD			; gEnableBattleSoccer
EXTRN	?GCManagerGuildWarSet@@YAXPAD0H@Z:PROC		; GCManagerGuildWarSet
EXTRN	?GCGuildWarRequestResult@@YAXPADHH@Z:PROC	; GCGuildWarRequestResult
EXTRN	?GCServerMsgStringSendGuild@@YAXPAU_GUILD_INFO_STRUCT@@PADE@Z:PROC ; GCServerMsgStringSendGuild
EXTRN	?gObjAddMsgSendDelay@@YAXPAUOBJECTSTRUCT@@HHHH@Z:PROC ; gObjAddMsgSendDelay
EXTRN	?GCManagerGuildWarEnd@@YAXPAD@Z:PROC		; GCManagerGuildWarEnd
EXTRN	?BattleSoccerGoalEnd@@YAXH@Z:PROC		; BattleSoccerGoalEnd
EXTRN	?BattleSoccerGoalStart@@YAXH@Z:PROC		; BattleSoccerGoalStart
EXTRN	?Move@CMoveCommand@@QAEHPAUOBJECTSTRUCT@@PAD@Z:PROC ; CMoveCommand::Move
EXTRN	?gMoveCommand@@3VCMoveCommand@@A:BYTE		; gMoveCommand
EXTRN	?gObj@@3PAUOBJECTSTRUCT@@A:BYTE			; gObj
EXTRN	?SearchGuild@CGuildClass@@QAEPAU_GUILD_INFO_STRUCT@@PAD@Z:PROC ; CGuildClass::SearchGuild
EXTRN	?Guild@@3VCGuildClass@@A:BYTE			; Guild
EXTRN	?CloseClient@@YAXH@Z:PROC			; CloseClient
EXTRN	?gObjGetIndex@@YAHPAD@Z:PROC			; gObjGetIndex
EXTRN	?gObjSendUserStatistic@@YAXHHH@Z:PROC		; gObjSendUserStatistic
EXTRN	?gObjTeleport@@YAXHHHH@Z:PROC			; gObjTeleport
EXTRN	__imp__wsprintfA:PROC
EXTRN	?gObjFind@@YAPAUOBJECTSTRUCT@@PAD@Z:PROC	; gObjFind
EXTRN	?MsgSendV2@@YAXPAUOBJECTSTRUCT@@PAEH@Z:PROC	; MsgSendV2
EXTRN	_rand:PROC
EXTRN	?PHeadSubSetB@@YAXPAEEEH@Z:PROC			; PHeadSubSetB
EXTRN	?LogAdd@@YAXW4eLogColor@@PADZZ:PROC		; LogAdd
EXTRN	___security_cookie:DWORD
EXTRN	__fltused:DWORD
EXTRN	@__security_check_cookie@4:PROC
EXTRN	__ftol2_sse:PROC
;	COMDAT ??_C@_0BD@ONJMFEJN@?D?o?$LF?PHP?H?$LI?$LK?$LJ?$LN?C?$LA?$KD?$LM?$LD?A?$KE?$AA@
CONST	SEGMENT
??_C@_0BD@ONJMFEJN@?D?o?$LF?PHP?H?$LI?$LK?$LJ?$LN?C?$LA?$KD?$LM?$LD?A?$KE?$AA@ DB 0c4H
	DB	0efH, 0b5H, 0d0H, 'HP', 0c8H, 0b8H, 0baH, 0b9H, 0bdH, 0c3H, 0b0H
	DB	0a3H, 0bcH, 0b3H, 0c1H, 0a4H, 00H		; `string'
CONST	ENDS
;	COMDAT ??_C@_0BF@IAPMHEEM@?D?o?$LF?PHP?C?J?$LE?g?H?$LI?$LK?$LJ?$LH?$KO?$LM?$LD?A?$KE?$AA@
CONST	SEGMENT
??_C@_0BF@IAPMHEEM@?D?o?$LF?PHP?C?J?$LE?g?H?$LI?$LK?$LJ?$LH?$KO?$LM?$LD?A?$KE?$AA@ DB 0c4H
	DB	0efH, 0b5H, 0d0H, 'HP', 0c3H, 0caH, 0b4H, 0e7H, 0c8H, 0b8H, 0baH
	DB	0b9H, 0b7H, 0aeH, 0bcH, 0b3H, 0c1H, 0a4H, 00H ; `string'
CONST	ENDS
;	COMDAT ??_C@_0BB@FDCEFCLA@?D?o?$LF?PHP?H?$LI?$LK?$LJ?$LH?$KO?$LM?$LD?A?$KE?$AA@
CONST	SEGMENT
??_C@_0BB@FDCEFCLA@?D?o?$LF?PHP?H?$LI?$LK?$LJ?$LH?$KO?$LM?$LD?A?$KE?$AA@ DB 0c4H
	DB	0efH, 0b5H, 0d0H, 'HP', 0c8H, 0b8H, 0baH, 0b9H, 0b7H, 0aeH, 0bcH
	DB	0b3H, 0c1H, 0a4H, 00H			; `string'
CONST	ENDS
;	COMDAT ??_C@_0L@LMJDAGMB@?D?o?$LF?PHP?$LM?$LD?A?$KE?$AA@
CONST	SEGMENT
??_C@_0L@LMJDAGMB@?D?o?$LF?PHP?$LM?$LD?A?$KE?$AA@ DB 0c4H, 0efH, 0b5H, 0d0H
	DB	'HP', 0bcH, 0b3H, 0c1H, 0a4H, 00H		; `string'
CONST	ENDS
;	COMDAT ??_C@_0DC@DLDEMFJO@?D?o?$LF?P?5HP?5?C?J?$LE?g?H?$LI?$LK?$LJ?$LH?$KO?5?$DN?5?$CFd?5?H?$LI?$LK?$LJ?$LH?$KO?5?$DN@
CONST	SEGMENT
??_C@_0DC@DLDEMFJO@?D?o?$LF?P?5HP?5?C?J?$LE?g?H?$LI?$LK?$LJ?$LH?$KO?5?$DN?5?$CFd?5?H?$LI?$LK?$LJ?$LH?$KO?5?$DN@ DB 0c4H
	DB	0efH, 0b5H, 0d0H, ' HP ', 0c3H, 0caH, 0b4H, 0e7H, 0c8H, 0b8H, 0baH
	DB	0b9H, 0b7H, 0aeH, ' = %d ', 0c8H, 0b8H, 0baH, 0b9H, 0b7H, 0aeH
	DB	' = %d ', 0c8H, 0b8H, 0baH, 0b9H, 0bdH, 0c3H, 0b0H, 0a3H, ' = '
	DB	'%d', 00H					; `string'
CONST	ENDS
;	COMDAT ??_C@_0BI@FABGHCEJ@?D?o?$LF?P?5HP?5?$DN?5?$CF7?40f?5?1?5?$CF7?40f?$AA@
CONST	SEGMENT
??_C@_0BI@FABGHCEJ@?D?o?$LF?P?5HP?5?$DN?5?$CF7?40f?5?1?5?$CF7?40f?$AA@ DB 0c4H
	DB	0efH, 0b5H, 0d0H, ' HP = %7.0f / %7.0f', 00H	; `string'
CONST	ENDS
;	COMDAT ??_C@_0DF@GLPGGMOI@?$FLKUNDUN?$FN?5Use?5GM?5Command?5?9?$DO?5?$FL?5?$CFs?5@
CONST	SEGMENT
??_C@_0DF@GLPGGMOI@?$FLKUNDUN?$FN?5Use?5GM?5Command?5?9?$DO?5?$FL?5?$CFs?5@ DB '['
	DB	'KUNDUN] Use GM Command -> [ %s ]', 09H, '[ %s ]', 09H, '[ %s '
	DB	'] : %s', 00H				; `string'
CONST	ENDS
;	COMDAT ??_C@_0N@DFKMJHLF@?D?o?$LF?P?$LL?s?E?B?$LK?$LI?$LB?b?$AA@
CONST	SEGMENT
??_C@_0N@DFKMJHLF@?D?o?$LF?P?$LL?s?E?B?$LK?$LI?$LB?b?$AA@ DB 0c4H, 0efH, 0b5H
	DB	0d0H, 0bbH, 0f3H, 0c5H, 0c2H, 0baH, 0b8H, 0b1H, 0e2H, 00H ; `string'
CONST	ENDS
;	COMDAT ??_C@_03MCADLMAF@off?$AA@
CONST	SEGMENT
??_C@_03MCADLMAF@off?$AA@ DB 'off', 00H			; `string'
CONST	ENDS
;	COMDAT ??_C@_02LIELOMNJ@on?$AA@
CONST	SEGMENT
??_C@_02LIELOMNJ@on?$AA@ DB 'on', 00H			; `string'
CONST	ENDS
;	COMDAT ??_C@_0N@KELDLAKD@Set?5GuildWar?$AA@
CONST	SEGMENT
??_C@_0N@KELDLAKD@Set?5GuildWar?$AA@ DB 'Set GuildWar', 00H ; `string'
CONST	ENDS
;	COMDAT ??_C@_0BC@MOJFCJJN@Free?5Ban?9Chatting?$AA@
CONST	SEGMENT
??_C@_0BC@MOJFCJJN@Free?5Ban?9Chatting?$AA@ DB 'Free Ban-Chatting', 00H ; `string'
CONST	ENDS
;	COMDAT ??_C@_0N@KILIGKJC@Ban?5Chatting?$AA@
CONST	SEGMENT
??_C@_0N@KILIGKJC@Ban?5Chatting?$AA@ DB 'Ban Chatting', 00H ; `string'
CONST	ENDS
;	COMDAT ??_C@_0N@GPDFKJGB@End?5GuildWar?$AA@
CONST	SEGMENT
??_C@_0N@GPDFKJGB@End?5GuildWar?$AA@ DB 'End GuildWar', 00H ; `string'
CONST	ENDS
;	COMDAT ??_C@_0BC@DPMLLFMM@Stop?5BattleSoccer?$AA@
CONST	SEGMENT
??_C@_0BC@DPMLLFMM@Stop?5BattleSoccer?$AA@ DB 'Stop BattleSoccer', 00H ; `string'
CONST	ENDS
;	COMDAT ??_C@_0BD@EFECDMGE@Start?5BattleSoccer?$AA@
CONST	SEGMENT
??_C@_0BD@EFECDMGE@Start?5BattleSoccer?$AA@ DB 'Start BattleSoccer', 00H ; `string'
CONST	ENDS
;	COMDAT ??_C@_0BC@HIAMIIED@Guild?5SetPosition?$AA@
CONST	SEGMENT
??_C@_0BC@HIAMIIED@Guild?5SetPosition?$AA@ DB 'Guild SetPosition', 00H ; `string'
CONST	ENDS
;	COMDAT ??_C@_0BB@BCPFBGGF@Guild?5Disconnect?$AA@
CONST	SEGMENT
??_C@_0BB@BCPFBGGF@Guild?5Disconnect?$AA@ DB 'Guild Disconnect', 00H ; `string'
CONST	ENDS
;	COMDAT ??_C@_0BA@MEJDKKFB@User?5Disconnect?$AA@
CONST	SEGMENT
??_C@_0BA@MEJDKKFB@User?5Disconnect?$AA@ DB 'User Disconnect', 00H ; `string'
CONST	ENDS
;	COMDAT ??_C@_0BH@NPPBDIDN@User?5Stat?5?$CIconnection?$CJ?$AA@
CONST	SEGMENT
??_C@_0BH@NPPBDIDN@User?5Stat?5?$CIconnection?$CJ?$AA@ DB 'User Stat (con'
	DB	'nection)', 00H				; `string'
CONST	ENDS
;	COMDAT ??_C@_0EA@DPOHDNID@Use?5GM?5Command?5?9?$DO?5?$FL?5?$CFs?5?$FN?7?$FL?5?$CFs?5?$FN?7@
CONST	SEGMENT
??_C@_0EA@DPOHDNID@Use?5GM?5Command?5?9?$DO?5?$FL?5?$CFs?5?$FN?7?$FL?5?$CFs?5?$FN?7@ DB 'U'
	DB	'se GM Command -> [ %s ]', 09H, '[ %s ]', 09H, '[ %s ] / Targe'
	DB	't : [%s][%s] : %s', 00H			; `string'
CONST	ENDS
;	COMDAT ??_C@_0O@HBGDJJNF@User?5Tracking?$AA@
CONST	SEGMENT
??_C@_0O@HBGDJJNF@User?5Tracking?$AA@ DB 'User Tracking', 00H ; `string'
CONST	ENDS
;	COMDAT ??_C@_0O@GFMKDCHA@?$CFs?5?3?5?$LA?$KI?$LN?C?$LN?C?$MA?$NL?$AA@
CONST	SEGMENT
??_C@_0O@GFMKDCHA@?$CFs?5?3?5?$LA?$KI?$LN?C?$LN?C?$MA?$NL?$AA@ DB '%s : ', 0b0H
	DB	0a8H, 0bdH, 0c3H, 0bdH, 0c3H, 0c0H, 0dbH, 00H ; `string'
CONST	ENDS
;	COMDAT ??_C@_0O@MKODHHAM@?$CFs?5?3?5?$LA?$KI?$LN?C?G?X?A?$KG?$AA@
CONST	SEGMENT
??_C@_0O@MKODHHAM@?$CFs?5?3?5?$LA?$KI?$LN?C?G?X?A?$KG?$AA@ DB '%s : ', 0b0H
	DB	0a8H, 0bdH, 0c3H, 0c7H, 0d8H, 0c1H, 0a6H, 00H ; `string'
CONST	ENDS
;	COMDAT ??_C@_0EB@OBAKBBAF@Use?5GM?5Command?5?9?$DO?5?$FL?5?$CFs?5?$FN?7?$FL?5?$CFs?5?$FN?7@
CONST	SEGMENT
??_C@_0EB@OBAKBBAF@Use?5GM?5Command?5?9?$DO?5?$FL?5?$CFs?5?$FN?7?$FL?5?$CFs?5?$FN?7@ DB 'U'
	DB	'se GM Command -> [ %s ]', 09H, '[ %s ]', 09H, '[ %s ] / Targe'
	DB	't : [%s][%s] : %s ', 00H			; `string'
CONST	ENDS
;	COMDAT ??_C@_0O@MIJMFKGB@User?5Watching?$AA@
CONST	SEGMENT
??_C@_0O@MIJMFKGB@User?5Watching?$AA@ DB 'User Watching', 00H ; `string'
CONST	ENDS
;	COMDAT ??_C@_0CM@FGOOHLMI@Use?5GM?5Command?5?9?$DO?5?$FL?5?$CFs?5?$FN?7?$FL?5?$CFs?5?$FN?7@
CONST	SEGMENT
??_C@_0CM@FGOOHLMI@Use?5GM?5Command?5?9?$DO?5?$FL?5?$CFs?5?$FN?7?$FL?5?$CFs?5?$FN?7@ DB 'U'
	DB	'se GM Command -> [ %s ]', 09H, '[ %s ]', 09H, '[ %s ] : %s', 00H ; `string'
CONST	ENDS
;	COMDAT ??_C@_0L@FKKMDPJD@FIRECRACK?4?$AA@
CONST	SEGMENT
??_C@_0L@FKKMDPJD@FIRECRACK?4?$AA@ DB 'FIRECRACK.', 00H	; `string'
; Function compile flags: /Ogtp
CONST	ENDS
;	COMDAT ?ManagementProc@CGMMng@@QAEHPAUOBJECTSTRUCT@@PADH@Z
_TEXT	SEGMENT
_seps$ = -648						; size = 2
tv744 = -644						; size = 4
_bState$154143 = -644					; size = 4
_iTokenNumber1$154083 = -644				; size = 4
_y$154005 = -644					; size = 4
tv1131 = -640						; size = 4
_aIndex$GSCopy$ = -640					; size = 4
tv724 = -640						; size = 4
tv571 = -640						; size = 4
tv381 = -640						; size = 4
_iLife$154169 = -640					; size = 4
_lc151$154041 = -640					; size = 4
_pMsg$154006 = -640					; size = 7
_pNotice$154202 = -632					; size = 272
_pNotice$154188 = -632					; size = 272
_pNotice$154181 = -632					; size = 272
_pNotice$154163 = -632					; size = 272
_szTemp$154021 = -616					; size = 256
_string$ = -360						; size = 256
_szTemp$154112 = -104					; size = 100
__$ArrayPad$ = -4					; size = 4
_lpObj$ = 8						; size = 4
_szCmd$ = 12						; size = 4
_aIndex$ = 16						; size = 4
?ManagementProc@CGMMng@@QAEHPAUOBJECTSTRUCT@@PADH@Z PROC ; CGMMng::ManagementProc, COMDAT
; _this$ = ecx

; 266  : {

  00000	55		 push	 ebp
  00001	8b ec		 mov	 ebp, esp
  00003	81 ec 88 02 00
	00		 sub	 esp, 648		; 00000288H
  00009	a1 00 00 00 00	 mov	 eax, DWORD PTR ___security_cookie
  0000e	33 c5		 xor	 eax, ebp
  00010	89 45 fc	 mov	 DWORD PTR __$ArrayPad$[ebp], eax
  00013	8b 45 10	 mov	 eax, DWORD PTR _aIndex$[ebp]
  00016	53		 push	 ebx

; 267  : 	char seps[2] = " ";
; 268  : 	char * szCmdToken;
; 269  : 	char string[256];
; 270  : 	char szId[20];
; 271  : 	char * pId = szId;
; 272  : 	int len = strlen(szCmd);

  00017	8b 5d 0c	 mov	 ebx, DWORD PTR _szCmd$[ebp]
  0001a	56		 push	 esi
  0001b	8b 75 08	 mov	 esi, DWORD PTR _lpObj$[ebp]
  0001e	57		 push	 edi
  0001f	8b f9		 mov	 edi, ecx

; 276  : 	{
; 277  : 		return 0;
; 278  : 	}
; 279  : 
; 280  : 	memset(szId, 0, sizeof(szId));
; 281  : 	strcpy(string, szCmd);

  00021	89 85 80 fd ff
	ff		 mov	 DWORD PTR _aIndex$GSCopy$[ebp], eax
  00027	b9 20 00 00 00	 mov	 ecx, 32			; 00000020H
  0002c	8b c3		 mov	 eax, ebx
  0002e	66 89 8d 78 fd
	ff ff		 mov	 WORD PTR _seps$[ebp], cx
  00035	8d 50 01	 lea	 edx, DWORD PTR [eax+1]
$LL145@Management:

; 267  : 	char seps[2] = " ";
; 268  : 	char * szCmdToken;
; 269  : 	char string[256];
; 270  : 	char szId[20];
; 271  : 	char * pId = szId;
; 272  : 	int len = strlen(szCmd);

  00038	8a 08		 mov	 cl, BYTE PTR [eax]
  0003a	40		 inc	 eax
  0003b	84 c9		 test	 cl, cl
  0003d	75 f9		 jne	 SHORT $LL145@Management
  0003f	2b c2		 sub	 eax, edx

; 273  : 	int command_number;
; 274  : 
; 275  : 	if ( len < 1 || len > 250 )

  00041	48		 dec	 eax
  00042	3d f9 00 00 00	 cmp	 eax, 249		; 000000f9H
  00047	0f 87 b0 0d 00
	00		 ja	 $LN127@Management

; 276  : 	{
; 277  : 		return 0;
; 278  : 	}
; 279  : 
; 280  : 	memset(szId, 0, sizeof(szId));
; 281  : 	strcpy(string, szCmd);

  0004d	8d 95 98 fe ff
	ff		 lea	 edx, DWORD PTR _string$[ebp]
  00053	8b c3		 mov	 eax, ebx
  00055	2b d3		 sub	 edx, ebx
$LL131@Management:
  00057	8a 08		 mov	 cl, BYTE PTR [eax]
  00059	88 0c 02	 mov	 BYTE PTR [edx+eax], cl
  0005c	40		 inc	 eax
  0005d	84 c9		 test	 cl, cl
  0005f	75 f6		 jne	 SHORT $LL131@Management

; 282  : 	szCmdToken = strtok(string, seps);

  00061	8d 95 78 fd ff
	ff		 lea	 edx, DWORD PTR _seps$[ebp]
  00067	52		 push	 edx
  00068	8d 85 98 fe ff
	ff		 lea	 eax, DWORD PTR _string$[ebp]
  0006e	50		 push	 eax
  0006f	e8 00 00 00 00	 call	 _strtok
  00074	83 c4 08	 add	 esp, 8

; 283  : 	command_number = this->GetCmd(szCmdToken);

  00077	50		 push	 eax
  00078	8b cf		 mov	 ecx, edi
  0007a	e8 00 00 00 00	 call	 ?GetCmd@CGMMng@@QAEHPAD@Z ; CGMMng::GetCmd

; 284  : 
; 285  : 	switch ( command_number )

  0007f	83 c0 9c	 add	 eax, -100		; ffffff9cH
  00082	3d e0 00 00 00	 cmp	 eax, 224		; 000000e0H
  00087	0f 87 70 0d 00
	00		 ja	 $LN127@Management
  0008d	0f b6 88 00 00
	00 00		 movzx	 ecx, BYTE PTR $LN146@Management[eax]
  00094	ff 24 8d 00 00
	00 00		 jmp	 DWORD PTR $LN171@Management[ecx*4]
$LN124@Management:

; 286  : 	{
; 287  : 		case 217:	//116:
; 288  : 			{
; 289  : 				if ( (lpObj->Authority & 2) != 2 && (lpObj->Authority & 0x20) != 0x20 )

  0009b	f6 86 a4 01 00
	00 22		 test	 BYTE PTR [esi+420], 34	; 00000022H

; 290  : 				{
; 291  : 					return 0;

  000a2	0f 84 55 0d 00
	00		 je	 $LN127@Management

; 292  : 				}
; 293  : 
; 294  : 				LogAdd(LOG_BLACK, "Use GM Command -> [ %s ]\t[ %s ]\t[ %s ] : %s",
; 295  : 					lpObj->Ip_addr, lpObj->AccountID, lpObj->Name, "FIRECRACK.");

  000a8	68 00 00 00 00	 push	 OFFSET ??_C@_0L@FKKMDPJD@FIRECRACK?4?$AA@
  000ad	8d 56 6f	 lea	 edx, DWORD PTR [esi+111]
  000b0	52		 push	 edx
  000b1	8d 46 64	 lea	 eax, DWORD PTR [esi+100]
  000b4	50		 push	 eax
  000b5	8d 4e 14	 lea	 ecx, DWORD PTR [esi+20]
  000b8	51		 push	 ecx
  000b9	68 00 00 00 00	 push	 OFFSET ??_C@_0CM@FGOOHLMI@Use?5GM?5Command?5?9?$DO?5?$FL?5?$CFs?5?$FN?7?$FL?5?$CFs?5?$FN?7@
  000be	6a 00		 push	 0
  000c0	e8 00 00 00 00	 call	 ?LogAdd@@YAXW4eLogColor@@PADZZ ; LogAdd

; 296  : 				int x = lpObj->X;
; 297  : 				int y = lpObj->Y;

  000c5	0f bf 96 06 01
	00 00		 movsx	 edx, WORD PTR [esi+262]
  000cc	0f bf 9e 04 01
	00 00		 movsx	 ebx, WORD PTR [esi+260]

; 298  : 				PMSG_SERVERCMD pMsg;
; 299  : 
; 300  : 				PHeadSubSetB((LPBYTE)&pMsg,0xF3,0x40, sizeof(pMsg));

  000d3	6a 07		 push	 7
  000d5	6a 40		 push	 64			; 00000040H
  000d7	8d 85 80 fd ff
	ff		 lea	 eax, DWORD PTR _pMsg$154006[ebp]
  000dd	68 f3 00 00 00	 push	 243			; 000000f3H
  000e2	50		 push	 eax
  000e3	89 95 7c fd ff
	ff		 mov	 DWORD PTR _y$154005[ebp], edx
  000e9	e8 00 00 00 00	 call	 ?PHeadSubSetB@@YAXPAEEEH@Z ; PHeadSubSetB
  000ee	83 c4 28	 add	 esp, 40			; 00000028H

; 301  : 				pMsg.CmdType = 0;

  000f1	c6 85 84 fd ff
	ff 00		 mov	 BYTE PTR _pMsg$154006[ebp+4], 0
  000f8	bf 0f 00 00 00	 mov	 edi, 15			; 0000000fH
  000fd	8d 49 00	 npad	 3
$LL122@Management:

; 302  : 
; 303  : 				for ( int i=0;i<15;i++)
; 304  : 				{
; 305  : 					pMsg.X = x+(rand() % 5)*2 - 4;

  00100	e8 00 00 00 00	 call	 _rand
  00105	99		 cdq
  00106	b9 05 00 00 00	 mov	 ecx, 5
  0010b	f7 f9		 idiv	 ecx
  0010d	02 d2		 add	 dl, dl
  0010f	02 d3		 add	 dl, bl
  00111	80 ea 04	 sub	 dl, 4
  00114	88 95 85 fd ff
	ff		 mov	 BYTE PTR _pMsg$154006[ebp+5], dl

; 306  : 					pMsg.Y = y+(rand() % 5)*2 - 4;

  0011a	e8 00 00 00 00	 call	 _rand
  0011f	99		 cdq
  00120	b9 05 00 00 00	 mov	 ecx, 5
  00125	f7 f9		 idiv	 ecx

; 307  : 					MsgSendV2(lpObj,(UCHAR*)&pMsg, sizeof(pMsg));

  00127	6a 07		 push	 7
  00129	02 d2		 add	 dl, dl
  0012b	02 95 7c fd ff
	ff		 add	 dl, BYTE PTR _y$154005[ebp]
  00131	80 ea 04	 sub	 dl, 4
  00134	88 95 86 fd ff
	ff		 mov	 BYTE PTR _pMsg$154006[ebp+6], dl
  0013a	8d 95 80 fd ff
	ff		 lea	 edx, DWORD PTR _pMsg$154006[ebp]
  00140	52		 push	 edx
  00141	56		 push	 esi
  00142	e8 00 00 00 00	 call	 ?MsgSendV2@@YAXPAUOBJECTSTRUCT@@PAEH@Z ; MsgSendV2

; 308  : 					::DataSend(lpObj->m_Index ,(UCHAR*)&pMsg, sizeof(pMsg));

  00147	8b 0e		 mov	 ecx, DWORD PTR [esi]
  00149	6a 07		 push	 7
  0014b	8d 85 80 fd ff
	ff		 lea	 eax, DWORD PTR _pMsg$154006[ebp]
  00151	50		 push	 eax
  00152	51		 push	 ecx
  00153	e8 00 00 00 00	 call	 ?DataSend@@YAHHPAEK@Z	; DataSend
  00158	83 c4 18	 add	 esp, 24			; 00000018H
  0015b	4f		 dec	 edi
  0015c	75 a2		 jne	 SHORT $LL122@Management

; 309  : 				}
; 310  : 			}
; 311  : 			break;

  0015e	e9 9a 0c 00 00	 jmp	 $LN127@Management
$LN119@Management:

; 312  : 
; 313  : 		case 216:	//115:
; 314  : 			{
; 315  : 				if ( (lpObj->Authority & 2) != 2 && (lpObj->Authority & 0x20) != 0x20 )

  00163	f6 86 a4 01 00
	00 22		 test	 BYTE PTR [esi+420], 34	; 00000022H

; 316  : 				{
; 317  : 					return 0;

  0016a	0f 84 8d 0c 00
	00		 je	 $LN127@Management

; 318  : 				}
; 319  : 
; 320  : 				pId = this->GetTokenString();

  00170	8b cf		 mov	 ecx, edi
  00172	e8 00 00 00 00	 call	 ?GetTokenString@CGMMng@@QAEPADXZ ; CGMMng::GetTokenString

; 321  : 
; 322  : 				if ( pId == NULL )

  00177	85 c0		 test	 eax, eax

; 323  : 				{
; 324  : 					return 0;

  00179	0f 84 7e 0c 00
	00		 je	 $LN127@Management

; 325  : 				}
; 326  : 
; 327  : 				LPOBJ lpTargetObj = gObjFind(pId);

  0017f	50		 push	 eax
  00180	e8 00 00 00 00	 call	 ?gObjFind@@YAPAUOBJECTSTRUCT@@PAD@Z ; gObjFind
  00185	8b d8		 mov	 ebx, eax
  00187	83 c4 04	 add	 esp, 4

; 328  : 
; 329  : 				if ( lpTargetObj == NULL )

  0018a	85 db		 test	 ebx, ebx

; 330  : 				{
; 331  : 					return 0;

  0018c	0f 84 6b 0c 00
	00		 je	 $LN127@Management

; 332  : 				}
; 333  : 
; 334  : 				LogAdd(LOG_BLACK, "Use GM Command -> [ %s ]	[ %s ]	[ %s ] / Target : [%s][%s] : %s ",
; 335  : 					lpObj->Ip_addr, lpObj->AccountID, lpObj->Name, lpTargetObj->AccountID,
; 336  : 					lpTargetObj->Name, "User Watching");

  00192	68 00 00 00 00	 push	 OFFSET ??_C@_0O@MIJMFKGB@User?5Watching?$AA@
  00197	8d 43 6f	 lea	 eax, DWORD PTR [ebx+111]
  0019a	50		 push	 eax
  0019b	8d 53 64	 lea	 edx, DWORD PTR [ebx+100]
  0019e	52		 push	 edx
  0019f	89 85 80 fd ff
	ff		 mov	 DWORD PTR tv1131[ebp], eax
  001a5	8d 46 6f	 lea	 eax, DWORD PTR [esi+111]
  001a8	50		 push	 eax
  001a9	8d 4e 64	 lea	 ecx, DWORD PTR [esi+100]
  001ac	51		 push	 ecx
  001ad	8d 56 14	 lea	 edx, DWORD PTR [esi+20]
  001b0	52		 push	 edx
  001b1	68 00 00 00 00	 push	 OFFSET ??_C@_0EB@OBAKBBAF@Use?5GM?5Command?5?9?$DO?5?$FL?5?$CFs?5?$FN?7?$FL?5?$CFs?5?$FN?7@
  001b6	6a 00		 push	 0
  001b8	e8 00 00 00 00	 call	 ?LogAdd@@YAXW4eLogColor@@PADZZ ; LogAdd

; 337  : 
; 338  : 				char szTemp[256];
; 339  : 
; 340  : 				if ( this->WatchTargetIndex == lpTargetObj->m_Index )

  001bd	8b 87 b4 09 00
	00		 mov	 eax, DWORD PTR [edi+2484]
  001c3	83 c4 20	 add	 esp, 32			; 00000020H
  001c6	3b 03		 cmp	 eax, DWORD PTR [ebx]
  001c8	75 39		 jne	 SHORT $LN115@Management

; 341  : 				{
; 342  : 					this->WatchTargetIndex = -1;
; 343  : 					
; 344  : 					wsprintf(szTemp, "%s : ", lpTargetObj->Name);	// #translation

  001ca	8b 8d 80 fd ff
	ff		 mov	 ecx, DWORD PTR tv1131[ebp]
  001d0	51		 push	 ecx
  001d1	8d 95 98 fd ff
	ff		 lea	 edx, DWORD PTR _szTemp$154021[ebp]
  001d7	68 00 00 00 00	 push	 OFFSET ??_C@_0O@MKODHHAM@?$CFs?5?3?5?$LA?$KI?$LN?C?G?X?A?$KG?$AA@
  001dc	52		 push	 edx
  001dd	c7 87 b4 09 00
	00 ff ff ff ff	 mov	 DWORD PTR [edi+2484], -1
  001e7	ff 15 00 00 00
	00		 call	 DWORD PTR __imp__wsprintfA

; 345  : 					GCServerMsgStringSend(szTemp, lpObj->m_Index, 1);

  001ed	8b 06		 mov	 eax, DWORD PTR [esi]
  001ef	6a 01		 push	 1
  001f1	50		 push	 eax
  001f2	8d 8d 98 fd ff
	ff		 lea	 ecx, DWORD PTR _szTemp$154021[ebp]
  001f8	51		 push	 ecx
  001f9	e8 00 00 00 00	 call	 ?GCServerMsgStringSend@@YAXPADHE@Z ; GCServerMsgStringSend

; 346  : 				}
; 347  : 				else

  001fe	e9 f7 0b 00 00	 jmp	 $LN169@Management
$LN115@Management:

; 348  : 				{
; 349  : 					wsprintf(szTemp, "%s : ", lpTargetObj->Name);	// #translation

  00203	8b 95 80 fd ff
	ff		 mov	 edx, DWORD PTR tv1131[ebp]
  00209	52		 push	 edx
  0020a	8d 85 98 fd ff
	ff		 lea	 eax, DWORD PTR _szTemp$154021[ebp]
  00210	68 00 00 00 00	 push	 OFFSET ??_C@_0O@GFMKDCHA@?$CFs?5?3?5?$LA?$KI?$LN?C?$LN?C?$MA?$NL?$AA@
  00215	50		 push	 eax
  00216	ff 15 00 00 00
	00		 call	 DWORD PTR __imp__wsprintfA

; 350  : 					GCServerMsgStringSend(szTemp, lpObj->m_Index, 1);

  0021c	8b 0e		 mov	 ecx, DWORD PTR [esi]
  0021e	6a 01		 push	 1
  00220	51		 push	 ecx
  00221	8d 95 98 fd ff
	ff		 lea	 edx, DWORD PTR _szTemp$154021[ebp]
  00227	52		 push	 edx
  00228	e8 00 00 00 00	 call	 ?GCServerMsgStringSend@@YAXPADHE@Z ; GCServerMsgStringSend

; 351  : 					this->WatchTargetIndex = lpTargetObj->m_Index;

  0022d	8b 03		 mov	 eax, DWORD PTR [ebx]
  0022f	89 87 b4 09 00
	00		 mov	 DWORD PTR [edi+2484], eax

; 352  : 				}
; 353  : 			}
; 354  : 			break;

  00235	e9 c0 0b 00 00	 jmp	 $LN169@Management
$LN113@Management:

; 355  : 
; 356  : 		case 215:	//114:
; 357  : 			{
; 358  : 				if ( (lpObj->Authority & 2) != 2 && (lpObj->Authority & 0x20) != 0x20 )

  0023a	f6 86 a4 01 00
	00 22		 test	 BYTE PTR [esi+420], 34	; 00000022H

; 359  : 				{
; 360  : 					return 0;

  00241	0f 84 b6 0b 00
	00		 je	 $LN127@Management

; 361  : 				}
; 362  : 
; 363  : 				pId = this->GetTokenString();

  00247	8b cf		 mov	 ecx, edi
  00249	e8 00 00 00 00	 call	 ?GetTokenString@CGMMng@@QAEPADXZ ; CGMMng::GetTokenString

; 364  : 
; 365  : 				if ( pId == NULL )

  0024e	85 c0		 test	 eax, eax

; 366  : 				{
; 367  : 					return 0;

  00250	0f 84 a7 0b 00
	00		 je	 $LN127@Management

; 368  : 				}
; 369  : 
; 370  : 				int map;
; 371  : 				int iX;
; 372  : 				int iY;
; 373  : 				LPOBJ lpTargetObj = gObjFind(pId);

  00256	50		 push	 eax
  00257	e8 00 00 00 00	 call	 ?gObjFind@@YAPAUOBJECTSTRUCT@@PAD@Z ; gObjFind
  0025c	8b f8		 mov	 edi, eax
  0025e	83 c4 04	 add	 esp, 4

; 374  : 				int iIndex;
; 375  : 
; 376  : 				if ( lpTargetObj == NULL )

  00261	85 ff		 test	 edi, edi

; 377  : 				{
; 378  : 					return 0;

  00263	0f 84 94 0b 00
	00		 je	 $LN127@Management

; 379  : 				}
; 380  : 
; 381  : 				LogAdd(LOG_BLACK, "Use GM Command -> [ %s ]\t[ %s ]\t[ %s ] / Target : [%s][%s] : %s",
; 382  : 					lpObj->Ip_addr, lpObj->AccountID, lpObj->Name, lpTargetObj->AccountID,
; 383  : 					lpTargetObj->Name, "User Tracking");

  00269	68 00 00 00 00	 push	 OFFSET ??_C@_0O@HBGDJJNF@User?5Tracking?$AA@
  0026e	8d 4f 6f	 lea	 ecx, DWORD PTR [edi+111]
  00271	51		 push	 ecx
  00272	8d 57 64	 lea	 edx, DWORD PTR [edi+100]
  00275	52		 push	 edx
  00276	8d 46 6f	 lea	 eax, DWORD PTR [esi+111]
  00279	50		 push	 eax
  0027a	8d 4e 64	 lea	 ecx, DWORD PTR [esi+100]
  0027d	51		 push	 ecx
  0027e	8d 56 14	 lea	 edx, DWORD PTR [esi+20]
  00281	52		 push	 edx
  00282	68 00 00 00 00	 push	 OFFSET ??_C@_0EA@DPOHDNID@Use?5GM?5Command?5?9?$DO?5?$FL?5?$CFs?5?$FN?7?$FL?5?$CFs?5?$FN?7@
  00287	6a 00		 push	 0
  00289	e8 00 00 00 00	 call	 ?LogAdd@@YAXW4eLogColor@@PADZZ ; LogAdd

; 384  : 				map = lpTargetObj->MapNumber;
; 385  : 				iX = lpTargetObj->X;
; 386  : 				iY = lpTargetObj->Y;
; 387  : 				iIndex = lpObj->m_Index;

  0028e	8b 36		 mov	 esi, DWORD PTR [esi]
  00290	83 c4 20	 add	 esp, 32			; 00000020H

; 388  : 
; 389  : 				if ( iIndex >= 0 )

  00293	85 f6		 test	 esi, esi
  00295	0f 88 62 0b 00
	00		 js	 $LN127@Management

; 390  : 				{
; 391  : 					gObjTeleport(iIndex, map, iX, iY);

  0029b	0f bf 87 06 01
	00 00		 movsx	 eax, WORD PTR [edi+262]
  002a2	0f bf 8f 04 01
	00 00		 movsx	 ecx, WORD PTR [edi+260]
  002a9	0f b6 97 09 01
	00 00		 movzx	 edx, BYTE PTR [edi+265]
  002b0	50		 push	 eax
  002b1	51		 push	 ecx
  002b2	52		 push	 edx
  002b3	56		 push	 esi
  002b4	e8 00 00 00 00	 call	 ?gObjTeleport@@YAXHHHH@Z ; gObjTeleport
  002b9	83 c4 10	 add	 esp, 16			; 00000010H

; 392  : 				}
; 393  : 			}
; 394  : 			break;

  002bc	e9 3c 0b 00 00	 jmp	 $LN127@Management
$LN108@Management:

; 395  : 
; 396  : 		case 214:	//113:
; 397  : 			{
; 398  : 				if ( (lpObj->Authority & 2) != 2 )

  002c1	f6 86 a4 01 00
	00 02		 test	 BYTE PTR [esi+420], 2

; 399  : 				{
; 400  : 					return 0;

  002c8	0f 84 2f 0b 00
	00		 je	 $LN127@Management

; 401  : 				}
; 402  : 
; 403  : 				LogAdd(LOG_BLACK, "Use GM Command -> [ %s ]\t[ %s ]\t[ %s ] : %s",
; 404  : 					lpObj->Ip_addr, lpObj->AccountID, lpObj->Name, 
; 405  : 					"User Stat (connection)");

  002ce	68 00 00 00 00	 push	 OFFSET ??_C@_0BH@NPPBDIDN@User?5Stat?5?$CIconnection?$CJ?$AA@
  002d3	8d 46 6f	 lea	 eax, DWORD PTR [esi+111]
  002d6	50		 push	 eax
  002d7	8d 4e 64	 lea	 ecx, DWORD PTR [esi+100]
  002da	51		 push	 ecx
  002db	8d 56 14	 lea	 edx, DWORD PTR [esi+20]
  002de	52		 push	 edx
  002df	68 00 00 00 00	 push	 OFFSET ??_C@_0CM@FGOOHLMI@Use?5GM?5Command?5?9?$DO?5?$FL?5?$CFs?5?$FN?7?$FL?5?$CFs?5?$FN?7@
  002e4	6a 00		 push	 0
  002e6	e8 00 00 00 00	 call	 ?LogAdd@@YAXW4eLogColor@@PADZZ ; LogAdd
  002eb	83 c4 18	 add	 esp, 24			; 00000018H

; 406  : 
; 407  : 				int lc151 = 0;
; 408  : 				int lc152 = 400;
; 409  : 				int iTokenNumber = this->GetTokenNumber();

  002ee	8b cf		 mov	 ecx, edi
  002f0	c7 85 80 fd ff
	ff 00 00 00 00	 mov	 DWORD PTR _lc151$154041[ebp], 0
  002fa	bb 90 01 00 00	 mov	 ebx, 400		; 00000190H
  002ff	e8 00 00 00 00	 call	 ?GetTokenNumber@CGMMng@@QAEHXZ ; CGMMng::GetTokenNumber

; 410  : 
; 411  : 				if ( iTokenNumber > 0 )

  00304	85 c0		 test	 eax, eax
  00306	7e 06		 jle	 SHORT $LN106@Management

; 412  : 				{
; 413  : 					lc151 = iTokenNumber;

  00308	89 85 80 fd ff
	ff		 mov	 DWORD PTR _lc151$154041[ebp], eax
$LN106@Management:

; 414  : 				}
; 415  : 
; 416  : 				int iTokenNumber2 = this->GetTokenNumber();

  0030e	8b cf		 mov	 ecx, edi
  00310	e8 00 00 00 00	 call	 ?GetTokenNumber@CGMMng@@QAEHXZ ; CGMMng::GetTokenNumber

; 417  : 
; 418  : 				if ( iTokenNumber2 > 0 )

  00315	85 c0		 test	 eax, eax
  00317	7e 02		 jle	 SHORT $LN105@Management

; 419  : 				{
; 420  : 					lc152 = iTokenNumber2;

  00319	8b d8		 mov	 ebx, eax
$LN105@Management:

; 421  : 				}
; 422  : 
; 423  : 				gObjSendUserStatistic(lpObj->m_Index, lc151, lc152);

  0031b	8b 85 80 fd ff
	ff		 mov	 eax, DWORD PTR _lc151$154041[ebp]
  00321	8b 0e		 mov	 ecx, DWORD PTR [esi]
  00323	53		 push	 ebx
  00324	50		 push	 eax
  00325	51		 push	 ecx
  00326	e8 00 00 00 00	 call	 ?gObjSendUserStatistic@@YAXHHH@Z ; gObjSendUserStatistic

; 513  : 					{
; 514  : 						GCServerMsgStringSend(lMsg.Get(MSGGET(6, 68)), lpObj->m_Index, 1);

  0032b	83 c4 0c	 add	 esp, 12			; 0000000cH

; 515  : 						return 0;

  0032e	e9 ca 0a 00 00	 jmp	 $LN127@Management
$LN104@Management:

; 424  : 			}
; 425  : 			break;
; 426  : 
; 427  : 		case 100:	//100:
; 428  : 			{
; 429  : 				if ( (lpObj->AuthorityCode &4) != 4 )

  00333	f6 86 a8 01 00
	00 04		 test	 BYTE PTR [esi+424], 4

; 430  : 				{
; 431  : 					return 0;

  0033a	0f 84 bd 0a 00
	00		 je	 $LN127@Management

; 432  : 				}
; 433  : 
; 434  : 				pId = this->GetTokenString();

  00340	8b cf		 mov	 ecx, edi
  00342	e8 00 00 00 00	 call	 ?GetTokenString@CGMMng@@QAEPADXZ ; CGMMng::GetTokenString
  00347	8b f8		 mov	 edi, eax

; 435  : 
; 436  : 				if ( pId == NULL )

  00349	85 ff		 test	 edi, edi

; 437  : 				{
; 438  : 					return 0;

  0034b	0f 84 ac 0a 00
	00		 je	 $LN127@Management

; 439  : 				}
; 440  : 
; 441  : 				int iTargetIndex = gObjGetIndex(pId);

  00351	57		 push	 edi
  00352	e8 00 00 00 00	 call	 ?gObjGetIndex@@YAHPAD@Z	; gObjGetIndex
  00357	8b d8		 mov	 ebx, eax
  00359	83 c4 04	 add	 esp, 4

; 442  : 				
; 443  : 
; 444  : 				if ( iTargetIndex >= 0 )

  0035c	85 db		 test	 ebx, ebx
  0035e	0f 88 99 0a 00
	00		 js	 $LN127@Management

; 445  : 				{
; 446  : 					LPOBJ lpTargetObj = gObjFind(pId);

  00364	57		 push	 edi
  00365	e8 00 00 00 00	 call	 ?gObjFind@@YAPAUOBJECTSTRUCT@@PAD@Z ; gObjFind
  0036a	83 c4 04	 add	 esp, 4

; 447  : 
; 448  : 					if ( lpTargetObj == NULL )

  0036d	85 c0		 test	 eax, eax

; 449  : 					{
; 450  : 						return 0;

  0036f	0f 84 88 0a 00
	00		 je	 $LN127@Management

; 451  : 					}
; 452  : 
; 453  : 					LogAdd(LOG_BLACK, "Use GM Command -> [ %s ]\t[ %s ]\t[ %s ] / Target : [%s][%s] : %s",
; 454  : 						lpObj->Ip_addr, lpObj->AccountID, lpObj->Name, lpTargetObj->AccountID,
; 455  : 						lpTargetObj->Name, "User Disconnect");

  00375	68 00 00 00 00	 push	 OFFSET ??_C@_0BA@MEJDKKFB@User?5Disconnect?$AA@
  0037a	8d 50 6f	 lea	 edx, DWORD PTR [eax+111]
  0037d	52		 push	 edx
  0037e	83 c0 64	 add	 eax, 100		; 00000064H
  00381	50		 push	 eax
  00382	8d 46 6f	 lea	 eax, DWORD PTR [esi+111]
  00385	50		 push	 eax
  00386	8d 4e 64	 lea	 ecx, DWORD PTR [esi+100]
  00389	51		 push	 ecx
  0038a	83 c6 14	 add	 esi, 20			; 00000014H
  0038d	56		 push	 esi
  0038e	68 00 00 00 00	 push	 OFFSET ??_C@_0EA@DPOHDNID@Use?5GM?5Command?5?9?$DO?5?$FL?5?$CFs?5?$FN?7?$FL?5?$CFs?5?$FN?7@
  00393	6a 00		 push	 0
  00395	e8 00 00 00 00	 call	 ?LogAdd@@YAXW4eLogColor@@PADZZ ; LogAdd
  0039a	83 c4 20	 add	 esp, 32			; 00000020H

; 456  : 					LogAdd(LOG_BLACK, lMsg.Get(MSGGET(1, 191)), pId);

  0039d	57		 push	 edi
  0039e	68 bf 01 00 00	 push	 447			; 000001bfH
  003a3	b9 00 00 00 00	 mov	 ecx, OFFSET ?lMsg@@3VCMsg@@A ; lMsg
  003a8	e8 00 00 00 00	 call	 ?Get@CMsg@@QAEPADH@Z	; CMsg::Get
  003ad	50		 push	 eax
  003ae	6a 00		 push	 0
  003b0	e8 00 00 00 00	 call	 ?LogAdd@@YAXW4eLogColor@@PADZZ ; LogAdd

; 457  : 					CloseClient(iTargetIndex);

  003b5	53		 push	 ebx
  003b6	e8 00 00 00 00	 call	 ?CloseClient@@YAXH@Z	; CloseClient
  003bb	83 c4 10	 add	 esp, 16			; 00000010H

; 458  : 				}
; 459  : 			}
; 460  : 			break;

  003be	e9 3a 0a 00 00	 jmp	 $LN127@Management
$LN99@Management:

; 461  : 
; 462  : 		case 112:	//108:
; 463  : 			{
; 464  : 				if ( (lpObj->AuthorityCode &4) != 4 )

  003c3	f6 86 a8 01 00
	00 04		 test	 BYTE PTR [esi+424], 4

; 465  : 				{
; 466  : 					return 0;

  003ca	0f 84 2d 0a 00
	00		 je	 $LN127@Management

; 467  : 				}
; 468  : 
; 469  : 				LogAdd(LOG_BLACK, "Use GM Command -> [ %s ]\t[ %s ]\t[ %s ] : %s",
; 470  : 					lpObj->Ip_addr, lpObj->AccountID, lpObj->Name,
; 471  : 					"Guild Disconnect");

  003d0	68 00 00 00 00	 push	 OFFSET ??_C@_0BB@BCPFBGGF@Guild?5Disconnect?$AA@
  003d5	8d 56 6f	 lea	 edx, DWORD PTR [esi+111]
  003d8	52		 push	 edx
  003d9	8d 46 64	 lea	 eax, DWORD PTR [esi+100]
  003dc	50		 push	 eax
  003dd	83 c6 14	 add	 esi, 20			; 00000014H
  003e0	56		 push	 esi
  003e1	68 00 00 00 00	 push	 OFFSET ??_C@_0CM@FGOOHLMI@Use?5GM?5Command?5?9?$DO?5?$FL?5?$CFs?5?$FN?7?$FL?5?$CFs?5?$FN?7@
  003e6	6a 00		 push	 0
  003e8	e8 00 00 00 00	 call	 ?LogAdd@@YAXW4eLogColor@@PADZZ ; LogAdd
  003ed	83 c4 18	 add	 esp, 24			; 00000018H

; 472  : 
; 473  : 				pId = this->GetTokenString();

  003f0	8b cf		 mov	 ecx, edi
  003f2	e8 00 00 00 00	 call	 ?GetTokenString@CGMMng@@QAEPADXZ ; CGMMng::GetTokenString
  003f7	8b f8		 mov	 edi, eax

; 474  : 
; 475  : 				if ( pId == NULL )

  003f9	85 ff		 test	 edi, edi

; 476  : 				{
; 477  : 					return 0;

  003fb	0f 84 fc 09 00
	00		 je	 $LN127@Management

; 478  : 				}
; 479  : 
; 480  : 				_GUILD_INFO_STRUCT * lpGuild = Guild.SearchGuild(pId);

  00401	57		 push	 edi
  00402	b9 00 00 00 00	 mov	 ecx, OFFSET ?Guild@@3VCGuildClass@@A ; Guild
  00407	e8 00 00 00 00	 call	 ?SearchGuild@CGuildClass@@QAEPAU_GUILD_INFO_STRUCT@@PAD@Z ; CGuildClass::SearchGuild

; 481  : 				int iIndex;
; 482  : 
; 483  : 				if ( lpGuild != NULL )

  0040c	85 c0		 test	 eax, eax
  0040e	0f 84 e9 09 00
	00		 je	 $LN127@Management

; 484  : 				{
; 485  : 					for ( int i=0;i<MAX_USER_GUILD ; i++ )

  00414	8d 98 a0 03 00
	00		 lea	 ebx, DWORD PTR [eax+928]
  0041a	c7 85 80 fd ff
	ff 50 00 00 00	 mov	 DWORD PTR tv381[ebp], 80 ; 00000050H
$LL95@Management:

; 486  : 					{
; 487  : 						if ( lpGuild->Index[i] >= 0 )

  00424	0f b7 03	 movzx	 eax, WORD PTR [ebx]
  00427	66 85 c0	 test	 ax, ax
  0042a	78 28		 js	 SHORT $LN94@Management

; 488  : 						{
; 489  : 							iIndex = lpGuild->Index[i];

  0042c	0f bf f0	 movsx	 esi, ax

; 490  : 
; 491  : 							if ( iIndex >= 0 )

  0042f	85 f6		 test	 esi, esi
  00431	78 21		 js	 SHORT $LN94@Management

; 492  : 							{
; 493  : 								LogAdd(LOG_BLACK, lMsg.Get(MSGGET(1, 191)), pId);

  00433	57		 push	 edi
  00434	68 bf 01 00 00	 push	 447			; 000001bfH
  00439	b9 00 00 00 00	 mov	 ecx, OFFSET ?lMsg@@3VCMsg@@A ; lMsg
  0043e	e8 00 00 00 00	 call	 ?Get@CMsg@@QAEPADH@Z	; CMsg::Get
  00443	50		 push	 eax
  00444	6a 00		 push	 0
  00446	e8 00 00 00 00	 call	 ?LogAdd@@YAXW4eLogColor@@PADZZ ; LogAdd

; 494  : 								CloseClient(iIndex);

  0044b	56		 push	 esi
  0044c	e8 00 00 00 00	 call	 ?CloseClient@@YAXH@Z	; CloseClient
  00451	83 c4 10	 add	 esp, 16			; 00000010H
$LN94@Management:

; 484  : 				{
; 485  : 					for ( int i=0;i<MAX_USER_GUILD ; i++ )

  00454	83 c3 02	 add	 ebx, 2
  00457	ff 8d 80 fd ff
	ff		 dec	 DWORD PTR tv381[ebp]
  0045d	75 c5		 jne	 SHORT $LL95@Management

; 495  : 							}
; 496  : 						}
; 497  : 					}
; 498  : 				}
; 499  : 			}
; 500  : 			break;

  0045f	e9 99 09 00 00	 jmp	 $LN127@Management
$LN90@Management:

; 501  : 
; 502  : 		case 101:	//101:
; 503  : 			{
; 504  : 				pId = this->GetTokenString();

  00464	8b cf		 mov	 ecx, edi
  00466	e8 00 00 00 00	 call	 ?GetTokenString@CGMMng@@QAEPADXZ ; CGMMng::GetTokenString

; 505  : 
; 506  : 				if ( pId != NULL )

  0046b	85 c0		 test	 eax, eax
  0046d	0f 84 8a 09 00
	00		 je	 $LN127@Management

; 507  : 				{
; 508  : 					int lc165 = -1;
; 509  : 					int lc166 = 0;
; 510  : 					int lc167 = 0;
; 511  : 
; 512  : 					if ( lpObj->Teleport != 0 )

  00473	80 be 00 02 00
	00 00		 cmp	 BYTE PTR [esi+512], 0
  0047a	74 22		 je	 SHORT $LN88@Management
$LN166@Management:

; 513  : 					{
; 514  : 						GCServerMsgStringSend(lMsg.Get(MSGGET(6, 68)), lpObj->m_Index, 1);

  0047c	8b 0e		 mov	 ecx, DWORD PTR [esi]
  0047e	6a 01		 push	 1
  00480	51		 push	 ecx
$LN165@Management:
  00481	68 44 06 00 00	 push	 1604			; 00000644H
$LN167@Management:
  00486	b9 00 00 00 00	 mov	 ecx, OFFSET ?lMsg@@3VCMsg@@A ; lMsg
  0048b	e8 00 00 00 00	 call	 ?Get@CMsg@@QAEPADH@Z	; CMsg::Get
  00490	50		 push	 eax
  00491	e8 00 00 00 00	 call	 ?GCServerMsgStringSend@@YAXPADHE@Z ; GCServerMsgStringSend
  00496	83 c4 0c	 add	 esp, 12			; 0000000cH

; 515  : 						return 0;

  00499	e9 5f 09 00 00	 jmp	 $LN127@Management
$LN88@Management:

; 516  : 					}
; 517  : 
; 518  : 					if ( (lpObj->m_IfState.use) != 0 )

  0049e	8b 8e 84 0c 00
	00		 mov	 ecx, DWORD PTR [esi+3204]
  004a4	f6 c1 03	 test	 cl, 3
  004a7	74 26		 je	 SHORT $LN86@Management

; 519  : 					{
; 520  : 						if ( lpObj->m_IfState.type  == 3 )

  004a9	8b d1		 mov	 edx, ecx
  004ab	81 e2 c0 ff 00
	00		 and	 edx, 65472		; 0000ffc0H
  004b1	81 fa c0 00 00
	00		 cmp	 edx, 192		; 000000c0H
  004b7	75 16		 jne	 SHORT $LN86@Management

; 521  : 						{
; 522  : 							lpObj->TargetShopNumber = -1;

  004b9	83 ca ff	 or	 edx, -1

; 523  : 							lpObj->m_IfState.type = 0;
; 524  : 							lpObj->m_IfState.use = 0;

  004bc	81 e1 3c 00 ff
	ff		 and	 ecx, -65476		; ffff003cH
  004c2	66 89 96 d6 02
	00 00		 mov	 WORD PTR [esi+726], dx
  004c9	89 8e 84 0c 00
	00		 mov	 DWORD PTR [esi+3204], ecx
$LN86@Management:

; 525  : 						}
; 526  : 					}
; 527  : 
; 528  : 					if ( lpObj->m_IfState.use > 0 )

  004cf	f6 86 84 0c 00
	00 03		 test	 BYTE PTR [esi+3204], 3
  004d6	76 07		 jbe	 SHORT $LN85@Management

; 529  : 					{
; 530  : 						GCServerMsgStringSend(lMsg.Get(MSGGET(6, 68)), lpObj->m_Index, 1);

  004d8	8b 06		 mov	 eax, DWORD PTR [esi]
  004da	6a 01		 push	 1
  004dc	50		 push	 eax

; 531  : 						return 0;

  004dd	eb a2		 jmp	 SHORT $LN165@Management
$LN85@Management:

; 532  : 					}
; 533  : 
; 534  : 					if ( gObj[aIndex].IsInBattleGround != false )

  004df	8b 8d 80 fd ff
	ff		 mov	 ecx, DWORD PTR _aIndex$GSCopy$[ebp]
  004e5	69 c9 64 15 00
	00		 imul	 ecx, 5476		; 00001564H
  004eb	80 b9 aa 0e 00
	00 00		 cmp	 BYTE PTR ?gObj@@3PAUOBJECTSTRUCT@@A[ecx+3754], 0

; 535  : 					{
; 536  : 						GCServerMsgStringSend(lMsg.Get(MSGGET(6, 68)), lpObj->m_Index, 1);
; 537  : 						return 0;

  004f2	75 88		 jne	 SHORT $LN166@Management

; 538  : 					}
; 539  : 
; 540  : 					if ( lpObj->m_PK_Level >= 6 )

  004f4	80 be fd 00 00
	00 06		 cmp	 BYTE PTR [esi+253], 6
  004fb	7c 0f		 jl	 SHORT $LN83@Management

; 541  : 					{
; 542  : 						GCServerMsgStringSend(lMsg.Get(MSGGET(4, 101)), lpObj->m_Index, 1);

  004fd	8b 16		 mov	 edx, DWORD PTR [esi]
  004ff	6a 01		 push	 1
  00501	52		 push	 edx
  00502	68 65 04 00 00	 push	 1125			; 00000465H

; 543  : 						return 0;

  00507	e9 7a ff ff ff	 jmp	 $LN167@Management
$LN83@Management:

; 544  : 					}
; 545  : 
; 546  : 					gMoveCommand.Move(lpObj, pId);

  0050c	50		 push	 eax
  0050d	56		 push	 esi
  0050e	b9 00 00 00 00	 mov	 ecx, OFFSET ?gMoveCommand@@3VCMoveCommand@@A ; gMoveCommand
  00513	e8 00 00 00 00	 call	 ?Move@CMoveCommand@@QAEHPAUOBJECTSTRUCT@@PAD@Z ; CMoveCommand::Move

; 547  : 				}
; 548  : 			}
; 549  : 			break;

  00518	e9 e0 08 00 00	 jmp	 $LN127@Management
$LN82@Management:

; 550  : 
; 551  : 		case 108:	//104:
; 552  : 			{
; 553  : 				if ( (lpObj->AuthorityCode &8)!= 8 )

  0051d	f6 86 a8 01 00
	00 08		 test	 BYTE PTR [esi+424], 8

; 554  : 				{
; 555  : 					return 0;

  00524	0f 84 d3 08 00
	00		 je	 $LN127@Management

; 556  : 				}
; 557  : 
; 558  : 				LogAdd(LOG_BLACK, "Use GM Command -> [ %s ]\t[ %s ]\t[ %s ] : %s",
; 559  : 					lpObj->Ip_addr, lpObj->AccountID, lpObj->Name, 
; 560  : 					"Guild SetPosition");

  0052a	68 00 00 00 00	 push	 OFFSET ??_C@_0BC@HIAMIIED@Guild?5SetPosition?$AA@
  0052f	8d 46 6f	 lea	 eax, DWORD PTR [esi+111]
  00532	50		 push	 eax
  00533	8d 4e 64	 lea	 ecx, DWORD PTR [esi+100]
  00536	51		 push	 ecx
  00537	83 c6 14	 add	 esi, 20			; 00000014H
  0053a	56		 push	 esi
  0053b	68 00 00 00 00	 push	 OFFSET ??_C@_0CM@FGOOHLMI@Use?5GM?5Command?5?9?$DO?5?$FL?5?$CFs?5?$FN?7?$FL?5?$CFs?5?$FN?7@
  00540	6a 00		 push	 0
  00542	e8 00 00 00 00	 call	 ?LogAdd@@YAXW4eLogColor@@PADZZ ; LogAdd
  00547	83 c4 18	 add	 esp, 24			; 00000018H

; 561  : 
; 562  : 				pId = this->GetTokenString();

  0054a	8b cf		 mov	 ecx, edi
  0054c	e8 00 00 00 00	 call	 ?GetTokenString@CGMMng@@QAEPADXZ ; CGMMng::GetTokenString
  00551	8b d8		 mov	 ebx, eax

; 563  : 
; 564  : 				if ( pId == NULL )

  00553	85 db		 test	 ebx, ebx

; 565  : 				{
; 566  : 					return 0;

  00555	0f 84 a2 08 00
	00		 je	 $LN127@Management

; 567  : 				}
; 568  : 
; 569  : 				int iTokenNumber1 = this->GetTokenNumber();

  0055b	8b cf		 mov	 ecx, edi
  0055d	e8 00 00 00 00	 call	 ?GetTokenNumber@CGMMng@@QAEHXZ ; CGMMng::GetTokenNumber

; 570  : 				int iTokenNumber2 = this->GetTokenNumber();

  00562	8b cf		 mov	 ecx, edi
  00564	89 85 7c fd ff
	ff		 mov	 DWORD PTR _iTokenNumber1$154083[ebp], eax
  0056a	e8 00 00 00 00	 call	 ?GetTokenNumber@CGMMng@@QAEHXZ ; CGMMng::GetTokenNumber

; 571  : 				int iTokenNumber3 = this->GetTokenNumber();

  0056f	8b cf		 mov	 ecx, edi
  00571	8b f0		 mov	 esi, eax
  00573	e8 00 00 00 00	 call	 ?GetTokenNumber@CGMMng@@QAEHXZ ; CGMMng::GetTokenNumber

; 572  : 				_GUILD_INFO_STRUCT* lpGuild = Guild.SearchGuild(pId);

  00578	53		 push	 ebx
  00579	b9 00 00 00 00	 mov	 ecx, OFFSET ?Guild@@3VCGuildClass@@A ; Guild
  0057e	8b f8		 mov	 edi, eax
  00580	e8 00 00 00 00	 call	 ?SearchGuild@CGuildClass@@QAEPAU_GUILD_INFO_STRUCT@@PAD@Z ; CGuildClass::SearchGuild

; 573  : 				int iIndex;
; 574  : 
; 575  : 				if ( lpGuild != NULL )

  00585	85 c0		 test	 eax, eax
  00587	0f 84 70 08 00
	00		 je	 $LN127@Management

; 576  : 				{
; 577  : 					for ( int i=0;i<MAX_USER_GUILD;i++)

  0058d	8d 98 a0 03 00
	00		 lea	 ebx, DWORD PTR [eax+928]
  00593	c7 85 80 fd ff
	ff 50 00 00 00	 mov	 DWORD PTR tv724[ebp], 80 ; 00000050H
  0059d	8d 49 00	 npad	 3
$LL78@Management:

; 578  : 					{
; 579  : 						if (lpGuild->Index[i] >= 0 )

  005a0	0f b7 03	 movzx	 eax, WORD PTR [ebx]
  005a3	66 85 c0	 test	 ax, ax
  005a6	78 14		 js	 SHORT $LN77@Management

; 580  : 						{
; 581  : 							iIndex = lpGuild->Index[i];
; 582  : 							gObjTeleport(iIndex, iTokenNumber1, iTokenNumber2++, iTokenNumber3);

  005a8	8b 95 7c fd ff
	ff		 mov	 edx, DWORD PTR _iTokenNumber1$154083[ebp]
  005ae	57		 push	 edi
  005af	56		 push	 esi
  005b0	98		 cwde
  005b1	52		 push	 edx
  005b2	50		 push	 eax
  005b3	e8 00 00 00 00	 call	 ?gObjTeleport@@YAXHHHH@Z ; gObjTeleport
  005b8	83 c4 10	 add	 esp, 16			; 00000010H
  005bb	46		 inc	 esi
$LN77@Management:

; 576  : 				{
; 577  : 					for ( int i=0;i<MAX_USER_GUILD;i++)

  005bc	83 c3 02	 add	 ebx, 2
  005bf	ff 8d 80 fd ff
	ff		 dec	 DWORD PTR tv724[ebp]
  005c5	75 d9		 jne	 SHORT $LL78@Management

; 583  : 						}
; 584  : 					}
; 585  : 				}
; 586  : 			}
; 587  : 			break;

  005c7	e9 31 08 00 00	 jmp	 $LN127@Management
$LN74@Management:

; 588  : 
; 589  : 		case 109:	//105:
; 590  : 			{
; 591  : 				if ( (lpObj->Authority &2)== 2 )

  005cc	f6 86 a4 01 00
	00 02		 test	 BYTE PTR [esi+420], 2
  005d3	0f 84 24 08 00
	00		 je	 $LN127@Management

; 592  : 				{
; 593  : 					LogAdd(LOG_BLACK, "Use GM Command -> [ %s ]\t[ %s ]\t[ %s ] : %s",
; 594  : 						lpObj->Ip_addr, lpObj->AccountID, lpObj->Name,
; 595  : 						"Start BattleSoccer");

  005d9	68 00 00 00 00	 push	 OFFSET ??_C@_0BD@EFECDMGE@Start?5BattleSoccer?$AA@
  005de	8d 4e 6f	 lea	 ecx, DWORD PTR [esi+111]
  005e1	51		 push	 ecx
  005e2	8d 56 64	 lea	 edx, DWORD PTR [esi+100]
  005e5	52		 push	 edx
  005e6	83 c6 14	 add	 esi, 20			; 00000014H
  005e9	56		 push	 esi
  005ea	68 00 00 00 00	 push	 OFFSET ??_C@_0CM@FGOOHLMI@Use?5GM?5Command?5?9?$DO?5?$FL?5?$CFs?5?$FN?7?$FL?5?$CFs?5?$FN?7@
  005ef	6a 00		 push	 0
  005f1	e8 00 00 00 00	 call	 ?LogAdd@@YAXW4eLogColor@@PADZZ ; LogAdd

; 596  : 
; 597  : 					BattleSoccerGoalStart(0);

  005f6	6a 00		 push	 0
  005f8	e8 00 00 00 00	 call	 ?BattleSoccerGoalStart@@YAXH@Z ; BattleSoccerGoalStart
  005fd	83 c4 1c	 add	 esp, 28			; 0000001cH

; 598  : 				}
; 599  : 			}
; 600  : 			break;

  00600	e9 f8 07 00 00	 jmp	 $LN127@Management
$LN72@Management:

; 601  : 
; 602  : 		case 110:	//106:
; 603  : 			{
; 604  : 				if ( (lpObj->Authority &2) == 2 )

  00605	f6 86 a4 01 00
	00 02		 test	 BYTE PTR [esi+420], 2
  0060c	0f 84 eb 07 00
	00		 je	 $LN127@Management

; 605  : 				{
; 606  : 					LogAdd(LOG_BLACK, "Use GM Command -> [ %s ]\t[ %s ]\t[ %s ] : %s",
; 607  : 						lpObj->Ip_addr, lpObj->AccountID, lpObj->Name,
; 608  : 						"Stop BattleSoccer");

  00612	68 00 00 00 00	 push	 OFFSET ??_C@_0BC@DPMLLFMM@Stop?5BattleSoccer?$AA@
  00617	8d 46 6f	 lea	 eax, DWORD PTR [esi+111]
  0061a	50		 push	 eax
  0061b	8d 4e 64	 lea	 ecx, DWORD PTR [esi+100]
  0061e	51		 push	 ecx
  0061f	83 c6 14	 add	 esi, 20			; 00000014H
  00622	56		 push	 esi
  00623	68 00 00 00 00	 push	 OFFSET ??_C@_0CM@FGOOHLMI@Use?5GM?5Command?5?9?$DO?5?$FL?5?$CFs?5?$FN?7?$FL?5?$CFs?5?$FN?7@
  00628	6a 00		 push	 0
  0062a	e8 00 00 00 00	 call	 ?LogAdd@@YAXW4eLogColor@@PADZZ ; LogAdd

; 609  : 
; 610  : 					BattleSoccerGoalEnd(0);

  0062f	6a 00		 push	 0
  00631	e8 00 00 00 00	 call	 ?BattleSoccerGoalEnd@@YAXH@Z ; BattleSoccerGoalEnd
  00636	83 c4 1c	 add	 esp, 28			; 0000001cH

; 611  : 				}
; 612  : 				else
; 613  : 				{
; 614  : 					if ( gObj[aIndex].lpGuild != NULL )
; 615  : 					{
; 616  : 						if (gObj[aIndex].lpGuild->WarType == 1 )
; 617  : 						{
; 618  : 							strcmp(gObj[aIndex].Name, gObj[aIndex].lpGuild->Names[0] );
; 619  : 						}
; 620  : 					}
; 621  : 				}
; 622  : 			}
; 623  : 
; 624  : 			break;

  00639	e9 bf 07 00 00	 jmp	 $LN127@Management
$LN67@Management:

; 625  : 
; 626  : 		case 111:	//107:
; 627  : 			{
; 628  : 				if ( (lpObj->Authority & 2) == 2 )

  0063e	f6 86 a4 01 00
	00 02		 test	 BYTE PTR [esi+420], 2
  00645	74 3d		 je	 SHORT $LN66@Management

; 629  : 				{
; 630  : 					LogAdd(LOG_BLACK, "Use GM Command -> [ %s ]\t[ %s ]\t[ %s ] : %s",
; 631  : 						lpObj->Ip_addr, lpObj->AccountID, lpObj->Name, "End GuildWar");

  00647	68 00 00 00 00	 push	 OFFSET ??_C@_0N@GPDFKJGB@End?5GuildWar?$AA@
  0064c	8d 56 6f	 lea	 edx, DWORD PTR [esi+111]
  0064f	52		 push	 edx
  00650	8d 46 64	 lea	 eax, DWORD PTR [esi+100]
  00653	50		 push	 eax
  00654	83 c6 14	 add	 esi, 20			; 00000014H
  00657	56		 push	 esi
  00658	68 00 00 00 00	 push	 OFFSET ??_C@_0CM@FGOOHLMI@Use?5GM?5Command?5?9?$DO?5?$FL?5?$CFs?5?$FN?7?$FL?5?$CFs?5?$FN?7@
  0065d	6a 00		 push	 0
  0065f	e8 00 00 00 00	 call	 ?LogAdd@@YAXW4eLogColor@@PADZZ ; LogAdd
  00664	83 c4 18	 add	 esp, 24			; 00000018H

; 632  : 
; 633  : 					char * szGuild = this->GetTokenString();

  00667	8b cf		 mov	 ecx, edi
  00669	e8 00 00 00 00	 call	 ?GetTokenString@CGMMng@@QAEPADXZ ; CGMMng::GetTokenString

; 634  : 
; 635  : 					if ( szGuild != NULL )

  0066e	85 c0		 test	 eax, eax
  00670	0f 84 87 07 00
	00		 je	 $LN127@Management

; 636  : 					{
; 637  : 						GCManagerGuildWarEnd(szGuild);

  00676	50		 push	 eax
  00677	e8 00 00 00 00	 call	 ?GCManagerGuildWarEnd@@YAXPAD@Z ; GCManagerGuildWarEnd
  0067c	83 c4 04	 add	 esp, 4

; 638  : 					}
; 639  : 				}
; 640  : 				else

  0067f	e9 79 07 00 00	 jmp	 $LN127@Management
$LN66@Management:

; 641  : 				{
; 642  : 					if ( gObj[aIndex].lpGuild != NULL && gObj[aIndex].lpGuild->lpTargetGuildNode != NULL)

  00684	8b 9d 80 fd ff
	ff		 mov	 ebx, DWORD PTR _aIndex$GSCopy$[ebp]
  0068a	8b f3		 mov	 esi, ebx
  0068c	69 f6 64 15 00
	00		 imul	 esi, 5476		; 00001564H
  00692	8b be b4 02 00
	00		 mov	 edi, DWORD PTR ?gObj@@3PAUOBJECTSTRUCT@@A[esi+692]
  00698	85 ff		 test	 edi, edi
  0069a	0f 84 5d 07 00
	00		 je	 $LN127@Management
  006a0	83 bf 8c 05 00
	00 00		 cmp	 DWORD PTR [edi+1420], 0
  006a7	0f 84 50 07 00
	00		 je	 $LN127@Management

; 643  : 					{
; 644  : 						if ( strcmp( gObj[aIndex].Name, gObj[aIndex].lpGuild->Names[0] ) ==  0)

  006ad	8d 4f 2f	 lea	 ecx, DWORD PTR [edi+47]
  006b0	8d 86 6f 00 00
	00		 lea	 eax, DWORD PTR ?gObj@@3PAUOBJECTSTRUCT@@A[esi+111]
$LL147@Management:
  006b6	8a 10		 mov	 dl, BYTE PTR [eax]
  006b8	3a 11		 cmp	 dl, BYTE PTR [ecx]
  006ba	75 1a		 jne	 SHORT $LN148@Management
  006bc	84 d2		 test	 dl, dl
  006be	74 12		 je	 SHORT $LN149@Management
  006c0	8a 50 01	 mov	 dl, BYTE PTR [eax+1]
  006c3	3a 51 01	 cmp	 dl, BYTE PTR [ecx+1]
  006c6	75 0e		 jne	 SHORT $LN148@Management
  006c8	83 c0 02	 add	 eax, 2
  006cb	83 c1 02	 add	 ecx, 2
  006ce	84 d2		 test	 dl, dl
  006d0	75 e4		 jne	 SHORT $LL147@Management
$LN149@Management:
  006d2	33 c0		 xor	 eax, eax
  006d4	eb 05		 jmp	 SHORT $LN150@Management
$LN148@Management:
  006d6	1b c0		 sbb	 eax, eax
  006d8	83 d8 ff	 sbb	 eax, -1
$LN150@Management:
  006db	85 c0		 test	 eax, eax
  006dd	0f 85 1a 07 00
	00		 jne	 $LN127@Management

; 645  : 						{
; 646  : 							if ( gObj[aIndex].lpGuild->BattleGroundIndex >= 0 && gObj[aIndex].lpGuild->WarType == 1 )

  006e3	80 bf 92 05 00
	00 01		 cmp	 BYTE PTR [edi+1426], 1
  006ea	0f 85 0d 07 00
	00		 jne	 $LN127@Management

; 647  : 							{
; 648  : 								::gObjAddMsgSendDelay(&gObj[aIndex], 7, aIndex, 10000, 0);

  006f0	50		 push	 eax
  006f1	68 10 27 00 00	 push	 10000			; 00002710H
  006f6	53		 push	 ebx
  006f7	8d 8e 00 00 00
	00		 lea	 ecx, DWORD PTR ?gObj@@3PAUOBJECTSTRUCT@@A[esi]
  006fd	6a 07		 push	 7
  006ff	51		 push	 ecx
  00700	e8 00 00 00 00	 call	 ?gObjAddMsgSendDelay@@YAXPAUOBJECTSTRUCT@@HHHH@Z ; gObjAddMsgSendDelay

; 649  : 
; 650  : 								char szTemp[100];
; 651  : 
; 652  : 								wsprintf(szTemp, lMsg.Get(MSGGET(4, 129)), gObj[aIndex].lpGuild->Names[0] );

  00705	8b 96 b4 02 00
	00		 mov	 edx, DWORD PTR ?gObj@@3PAUOBJECTSTRUCT@@A[esi+692]
  0070b	83 c4 14	 add	 esp, 20			; 00000014H
  0070e	83 c2 2f	 add	 edx, 47			; 0000002fH
  00711	52		 push	 edx
  00712	68 81 04 00 00	 push	 1153			; 00000481H
  00717	b9 00 00 00 00	 mov	 ecx, OFFSET ?lMsg@@3VCMsg@@A ; lMsg
  0071c	e8 00 00 00 00	 call	 ?Get@CMsg@@QAEPADH@Z	; CMsg::Get
  00721	50		 push	 eax
  00722	8d 45 98	 lea	 eax, DWORD PTR _szTemp$154112[ebp]
  00725	50		 push	 eax
  00726	ff 15 00 00 00
	00		 call	 DWORD PTR __imp__wsprintfA

; 653  : 								::GCServerMsgStringSendGuild(gObj[aIndex].lpGuild, szTemp, 1);

  0072c	8b 96 b4 02 00
	00		 mov	 edx, DWORD PTR ?gObj@@3PAUOBJECTSTRUCT@@A[esi+692]
  00732	6a 01		 push	 1
  00734	8d 4d 98	 lea	 ecx, DWORD PTR _szTemp$154112[ebp]
  00737	51		 push	 ecx
  00738	52		 push	 edx
  00739	e8 00 00 00 00	 call	 ?GCServerMsgStringSendGuild@@YAXPAU_GUILD_INFO_STRUCT@@PADE@Z ; GCServerMsgStringSendGuild

; 654  : 								::GCServerMsgStringSendGuild(gObj[aIndex].lpGuild->lpTargetGuildNode, szTemp, 1);

  0073e	8b 8e b4 02 00
	00		 mov	 ecx, DWORD PTR ?gObj@@3PAUOBJECTSTRUCT@@A[esi+692]
  00744	8b 91 8c 05 00
	00		 mov	 edx, DWORD PTR [ecx+1420]
  0074a	6a 01		 push	 1
  0074c	8d 45 98	 lea	 eax, DWORD PTR _szTemp$154112[ebp]
  0074f	50		 push	 eax
  00750	52		 push	 edx
  00751	e8 00 00 00 00	 call	 ?GCServerMsgStringSendGuild@@YAXPAU_GUILD_INFO_STRUCT@@PADE@Z ; GCServerMsgStringSendGuild
  00756	83 c4 24	 add	 esp, 36			; 00000024H

; 655  : 							}
; 656  : 						}
; 657  : 					}
; 658  : 				}
; 659  : 			}
; 660  : 			break;

  00759	e9 9f 06 00 00	 jmp	 $LN127@Management
$LN60@Management:

; 661  : 
; 662  : 		case 104:	//102:
; 663  : 			{
; 664  : 				if ( (lpObj->AuthorityCode&0x20 ) != 0x20 )

  0075e	f6 86 a8 01 00
	00 20		 test	 BYTE PTR [esi+424], 32	; 00000020H

; 665  : 				{
; 666  : 					return FALSE;

  00765	0f 84 92 06 00
	00		 je	 $LN127@Management

; 667  : 				}
; 668  : 
; 669  : 				LogAdd(LOG_BLACK, "Use GM Command -> [ %s ]\t[ %s ]\t[ %s ] : %s", lpObj->Ip_addr, lpObj->AccountID,
; 670  : 					lpObj->Name, "Ban Chatting");

  0076b	68 00 00 00 00	 push	 OFFSET ??_C@_0N@KILIGKJC@Ban?5Chatting?$AA@
  00770	8d 46 6f	 lea	 eax, DWORD PTR [esi+111]
  00773	50		 push	 eax
  00774	8d 4e 64	 lea	 ecx, DWORD PTR [esi+100]
  00777	51		 push	 ecx
  00778	83 c6 14	 add	 esi, 20			; 00000014H
  0077b	56		 push	 esi
  0077c	68 00 00 00 00	 push	 OFFSET ??_C@_0CM@FGOOHLMI@Use?5GM?5Command?5?9?$DO?5?$FL?5?$CFs?5?$FN?7?$FL?5?$CFs?5?$FN?7@
  00781	6a 00		 push	 0
  00783	e8 00 00 00 00	 call	 ?LogAdd@@YAXW4eLogColor@@PADZZ ; LogAdd
  00788	83 c4 18	 add	 esp, 24			; 00000018H

; 671  : 
; 672  : 				pId = this->GetTokenString();

  0078b	8b cf		 mov	 ecx, edi
  0078d	e8 00 00 00 00	 call	 ?GetTokenString@CGMMng@@QAEPADXZ ; CGMMng::GetTokenString

; 673  : 
; 674  : 				if ( pId == NULL )

  00792	85 c0		 test	 eax, eax

; 675  : 				{
; 676  : 					return FALSE;

  00794	0f 84 63 06 00
	00		 je	 $LN127@Management

; 677  : 				}
; 678  : 
; 679  : 				int Index = ::gObjGetIndex(pId);

  0079a	50		 push	 eax
  0079b	e8 00 00 00 00	 call	 ?gObjGetIndex@@YAHPAD@Z	; gObjGetIndex
  007a0	83 c4 04	 add	 esp, 4

; 680  : 
; 681  : 				if ( Index >= 0 )

  007a3	85 c0		 test	 eax, eax
  007a5	0f 88 52 06 00
	00		 js	 $LN127@Management

; 682  : 				{
; 683  : 					gObj[Index].Penalty |= 2;

  007ab	69 c0 64 15 00
	00		 imul	 eax, 5476		; 00001564H
  007b1	83 88 ac 01 00
	00 02		 or	 DWORD PTR ?gObj@@3PAUOBJECTSTRUCT@@A[eax+428], 2
  007b8	8d 80 ac 01 00
	00		 lea	 eax, DWORD PTR ?gObj@@3PAUOBJECTSTRUCT@@A[eax+428]

; 684  : 				}
; 685  : 
; 686  : 			}
; 687  : 			break;

  007be	e9 3a 06 00 00	 jmp	 $LN127@Management
$LN56@Management:

; 688  : 
; 689  : 		case 106:	//103:
; 690  : 			{
; 691  : 				if ( (lpObj->AuthorityCode & 32 ) != 32 )

  007c3	f6 86 a8 01 00
	00 20		 test	 BYTE PTR [esi+424], 32	; 00000020H

; 692  : 				{
; 693  : 					return FALSE;

  007ca	0f 84 2d 06 00
	00		 je	 $LN127@Management

; 694  : 				}
; 695  : 
; 696  : 				LogAdd(LOG_BLACK, "Use GM Command -> [ %s ]\t[ %s ]\t[ %s ] : %s", lpObj->Ip_addr, lpObj->AccountID,
; 697  : 					lpObj->Name, "Free Ban-Chatting");

  007d0	68 00 00 00 00	 push	 OFFSET ??_C@_0BC@MOJFCJJN@Free?5Ban?9Chatting?$AA@
  007d5	8d 56 6f	 lea	 edx, DWORD PTR [esi+111]
  007d8	52		 push	 edx
  007d9	8d 46 64	 lea	 eax, DWORD PTR [esi+100]
  007dc	50		 push	 eax
  007dd	83 c6 14	 add	 esi, 20			; 00000014H
  007e0	56		 push	 esi
  007e1	68 00 00 00 00	 push	 OFFSET ??_C@_0CM@FGOOHLMI@Use?5GM?5Command?5?9?$DO?5?$FL?5?$CFs?5?$FN?7?$FL?5?$CFs?5?$FN?7@
  007e6	6a 00		 push	 0
  007e8	e8 00 00 00 00	 call	 ?LogAdd@@YAXW4eLogColor@@PADZZ ; LogAdd
  007ed	83 c4 18	 add	 esp, 24			; 00000018H

; 698  : 
; 699  : 				pId = this->GetTokenString();

  007f0	8b cf		 mov	 ecx, edi
  007f2	e8 00 00 00 00	 call	 ?GetTokenString@CGMMng@@QAEPADXZ ; CGMMng::GetTokenString

; 700  : 
; 701  : 				if ( pId == NULL )

  007f7	85 c0		 test	 eax, eax

; 702  : 				{
; 703  : 					return FALSE;

  007f9	0f 84 fe 05 00
	00		 je	 $LN127@Management

; 704  : 				}
; 705  : 
; 706  : 				int Index = ::gObjGetIndex(pId);

  007ff	50		 push	 eax
  00800	e8 00 00 00 00	 call	 ?gObjGetIndex@@YAHPAD@Z	; gObjGetIndex
  00805	83 c4 04	 add	 esp, 4

; 707  : 
; 708  : 				if ( Index >= 0 )

  00808	85 c0		 test	 eax, eax
  0080a	0f 88 ed 05 00
	00		 js	 $LN127@Management

; 709  : 				{
; 710  : 					gObj[Index].Penalty &= ~2;

  00810	69 c0 64 15 00
	00		 imul	 eax, 5476		; 00001564H
  00816	83 a0 ac 01 00
	00 fd		 and	 DWORD PTR ?gObj@@3PAUOBJECTSTRUCT@@A[eax+428], -3 ; fffffffdH
  0081d	8d 80 ac 01 00
	00		 lea	 eax, DWORD PTR ?gObj@@3PAUOBJECTSTRUCT@@A[eax+428]

; 711  : 				}
; 712  : 			}
; 713  : 			break;

  00823	e9 d5 05 00 00	 jmp	 $LN127@Management
$LN52@Management:

; 714  : 
; 715  : 		case 200:	//109:
; 716  : 			{
; 717  : 				pId = this->GetTokenString();

  00828	8b cf		 mov	 ecx, edi
  0082a	e8 00 00 00 00	 call	 ?GetTokenString@CGMMng@@QAEPADXZ ; CGMMng::GetTokenString

; 718  : 
; 719  : 				if ( pId != NULL )

  0082f	85 c0		 test	 eax, eax
  00831	0f 84 c6 05 00
	00		 je	 $LN127@Management

; 720  : 				{
; 721  : 					if ( strlen(pId) >= 1 )

  00837	8b c8		 mov	 ecx, eax
  00839	8d 71 01	 lea	 esi, DWORD PTR [ecx+1]
  0083c	8d 64 24 00	 npad	 4
$LL151@Management:
  00840	8a 11		 mov	 dl, BYTE PTR [ecx]
  00842	41		 inc	 ecx
  00843	84 d2		 test	 dl, dl
  00845	75 f9		 jne	 SHORT $LL151@Management
  00847	2b ce		 sub	 ecx, esi
  00849	83 f9 01	 cmp	 ecx, 1
  0084c	0f 82 ab 05 00
	00		 jb	 $LN127@Management

; 722  : 					{
; 723  : 						::GCGuildWarRequestResult(pId, aIndex, 0);

  00852	8b 8d 80 fd ff
	ff		 mov	 ecx, DWORD PTR _aIndex$GSCopy$[ebp]
  00858	6a 00		 push	 0
  0085a	51		 push	 ecx
  0085b	50		 push	 eax
  0085c	e8 00 00 00 00	 call	 ?GCGuildWarRequestResult@@YAXPADHH@Z ; GCGuildWarRequestResult
  00861	83 c4 0c	 add	 esp, 12			; 0000000cH
  00864	e9 94 05 00 00	 jmp	 $LN127@Management
$LN49@Management:

; 724  : 					}
; 725  : 				}
; 726  : 			}
; 727  : 
; 728  : 			break;
; 729  : 
; 730  : 		case 202:	//111:
; 731  : 			{
; 732  : 				if ( (lpObj->Authority & 2 ) == 2 )

  00869	f6 86 a4 01 00
	00 02		 test	 BYTE PTR [esi+420], 2
  00870	0f 84 84 00 00
	00		 je	 $LN48@Management

; 733  : 				{
; 734  : 					LogAdd(LOG_BLACK, "Use GM Command -> [ %s ]\t[ %s ]\t[ %s ] : %s", lpObj->Ip_addr, lpObj->AccountID,
; 735  : 						lpObj->Name, "Set GuildWar");

  00876	68 00 00 00 00	 push	 OFFSET ??_C@_0N@KELDLAKD@Set?5GuildWar?$AA@
  0087b	8d 56 6f	 lea	 edx, DWORD PTR [esi+111]
  0087e	52		 push	 edx
  0087f	8d 46 64	 lea	 eax, DWORD PTR [esi+100]
  00882	50		 push	 eax
  00883	83 c6 14	 add	 esi, 20			; 00000014H
  00886	56		 push	 esi
  00887	68 00 00 00 00	 push	 OFFSET ??_C@_0CM@FGOOHLMI@Use?5GM?5Command?5?9?$DO?5?$FL?5?$CFs?5?$FN?7?$FL?5?$CFs?5?$FN?7@
  0088c	6a 00		 push	 0
  0088e	e8 00 00 00 00	 call	 ?LogAdd@@YAXW4eLogColor@@PADZZ ; LogAdd
  00893	83 c4 18	 add	 esp, 24			; 00000018H

; 736  : 		
; 737  : 					pId = this->GetTokenString();

  00896	8b cf		 mov	 ecx, edi
  00898	e8 00 00 00 00	 call	 ?GetTokenString@CGMMng@@QAEPADXZ ; CGMMng::GetTokenString
  0089d	8b d8		 mov	 ebx, eax

; 738  : 
; 739  : 					if ( pId != NULL )

  0089f	85 db		 test	 ebx, ebx
  008a1	0f 84 56 05 00
	00		 je	 $LN127@Management

; 740  : 					{
; 741  : 						char * Rival = this->GetTokenString();

  008a7	8b cf		 mov	 ecx, edi
  008a9	e8 00 00 00 00	 call	 ?GetTokenString@CGMMng@@QAEPADXZ ; CGMMng::GetTokenString

; 742  : 
; 743  : 						if ( Rival != NULL )

  008ae	85 c0		 test	 eax, eax
  008b0	0f 84 47 05 00
	00		 je	 $LN127@Management

; 744  : 						{
; 745  : 							if ( strlen(pId) >= 1 )

  008b6	8b cb		 mov	 ecx, ebx
  008b8	8d 71 01	 lea	 esi, DWORD PTR [ecx+1]
  008bb	eb 03 8d 49 00	 npad	 5
$LL152@Management:
  008c0	8a 11		 mov	 dl, BYTE PTR [ecx]
  008c2	41		 inc	 ecx
  008c3	84 d2		 test	 dl, dl
  008c5	75 f9		 jne	 SHORT $LL152@Management
  008c7	2b ce		 sub	 ecx, esi
  008c9	83 f9 01	 cmp	 ecx, 1
  008cc	0f 82 2b 05 00
	00		 jb	 $LN127@Management

; 746  : 							{
; 747  : 								if ( strlen(Rival) >= 1 )

  008d2	8b c8		 mov	 ecx, eax
  008d4	8d 71 01	 lea	 esi, DWORD PTR [ecx+1]
$LL153@Management:
  008d7	8a 11		 mov	 dl, BYTE PTR [ecx]
  008d9	41		 inc	 ecx
  008da	84 d2		 test	 dl, dl
  008dc	75 f9		 jne	 SHORT $LL153@Management
  008de	2b ce		 sub	 ecx, esi
  008e0	83 f9 01	 cmp	 ecx, 1
  008e3	0f 82 14 05 00
	00		 jb	 $LN127@Management

; 748  : 								{
; 749  : 									::GCManagerGuildWarSet(pId, Rival, 1);

  008e9	6a 01		 push	 1
  008eb	50		 push	 eax
  008ec	53		 push	 ebx
  008ed	e8 00 00 00 00	 call	 ?GCManagerGuildWarSet@@YAXPAD0H@Z ; GCManagerGuildWarSet
  008f2	83 c4 0c	 add	 esp, 12			; 0000000cH
  008f5	e9 03 05 00 00	 jmp	 $LN127@Management
$LN48@Management:

; 750  : 								}
; 751  : 							}
; 752  : 						}
; 753  : 					}
; 754  : 				}
; 755  : 				else
; 756  : 				{
; 757  : 					if ( gEnableBattleSoccer != FALSE )

  008fa	83 3d 00 00 00
	00 00		 cmp	 DWORD PTR ?gEnableBattleSoccer@@3HA, 0 ; gEnableBattleSoccer
  00901	0f 84 f6 04 00
	00		 je	 $LN127@Management

; 758  : 					{
; 759  : 						pId = this->GetTokenString();

  00907	8b cf		 mov	 ecx, edi
  00909	e8 00 00 00 00	 call	 ?GetTokenString@CGMMng@@QAEPADXZ ; CGMMng::GetTokenString

; 760  : 
; 761  : 						if ( pId != NULL )

  0090e	85 c0		 test	 eax, eax
  00910	0f 84 e7 04 00
	00		 je	 $LN127@Management

; 762  : 						{
; 763  : 							if ( strlen(pId) >= 1 )

  00916	8b c8		 mov	 ecx, eax
  00918	8d 71 01	 lea	 esi, DWORD PTR [ecx+1]
  0091b	eb 03 8d 49 00	 npad	 5
$LL154@Management:
  00920	8a 11		 mov	 dl, BYTE PTR [ecx]
  00922	41		 inc	 ecx
  00923	84 d2		 test	 dl, dl
  00925	75 f9		 jne	 SHORT $LL154@Management
  00927	2b ce		 sub	 ecx, esi
  00929	83 f9 01	 cmp	 ecx, 1
  0092c	0f 82 cb 04 00
	00		 jb	 $LN127@Management

; 764  : 							{
; 765  : 								::GCGuildWarRequestResult(pId, aIndex, 1);

  00932	8b 8d 80 fd ff
	ff		 mov	 ecx, DWORD PTR _aIndex$GSCopy$[ebp]
  00938	6a 01		 push	 1
  0093a	51		 push	 ecx
  0093b	50		 push	 eax
  0093c	e8 00 00 00 00	 call	 ?GCGuildWarRequestResult@@YAXPADHH@Z ; GCGuildWarRequestResult
  00941	83 c4 0c	 add	 esp, 12			; 0000000cH
  00944	e9 b4 04 00 00	 jmp	 $LN127@Management
$LN39@Management:

; 766  : 							}
; 767  : 						}
; 768  : 					}
; 769  : 				}
; 770  : 			}
; 771  : 
; 772  : 			break;
; 773  : 
; 774  : 		case 201:	//110:
; 775  : 			{
; 776  : 				gObjBillRequest(&gObj[aIndex]);

  00949	8b 85 80 fd ff
	ff		 mov	 eax, DWORD PTR _aIndex$GSCopy$[ebp]
  0094f	69 c0 64 15 00
	00		 imul	 eax, 5476		; 00001564H
  00955	05 00 00 00 00	 add	 eax, OFFSET ?gObj@@3PAUOBJECTSTRUCT@@A ; gObj
  0095a	50		 push	 eax
  0095b	e8 00 00 00 00	 call	 ?gObjBillRequest@@YAXPAUOBJECTSTRUCT@@@Z ; gObjBillRequest
  00960	83 c4 04	 add	 esp, 4

; 777  : 			}
; 778  : 			break;

  00963	e9 95 04 00 00	 jmp	 $LN127@Management
$LN38@Management:

; 779  : 
; 780  : 		case 203:	//112:
; 781  : 			{
; 782  : 				pId = this->GetTokenString();

  00968	8b cf		 mov	 ecx, edi
  0096a	e8 00 00 00 00	 call	 ?GetTokenString@CGMMng@@QAEPADXZ ; CGMMng::GetTokenString
  0096f	8b f0		 mov	 esi, eax

; 783  : 
; 784  : 				if ( pId != NULL )

  00971	85 f6		 test	 esi, esi
  00973	0f 84 84 04 00
	00		 je	 $LN127@Management

; 785  : 				{
; 786  : 					BOOL bState;
; 787  : 
; 788  : 					if ( strcmp(pId, "on" ) == 0 )

  00979	ba 00 00 00 00	 mov	 edx, OFFSET ??_C@_02LIELOMNJ@on?$AA@
  0097e	8b ce		 mov	 ecx, esi
$LL155@Management:
  00980	8a 01		 mov	 al, BYTE PTR [ecx]
  00982	3a 02		 cmp	 al, BYTE PTR [edx]
  00984	75 1a		 jne	 SHORT $LN156@Management
  00986	84 c0		 test	 al, al
  00988	74 12		 je	 SHORT $LN157@Management
  0098a	8a 41 01	 mov	 al, BYTE PTR [ecx+1]
  0098d	3a 42 01	 cmp	 al, BYTE PTR [edx+1]
  00990	75 0e		 jne	 SHORT $LN156@Management
  00992	83 c1 02	 add	 ecx, 2
  00995	83 c2 02	 add	 edx, 2
  00998	84 c0		 test	 al, al
  0099a	75 e4		 jne	 SHORT $LL155@Management
$LN157@Management:
  0099c	33 c0		 xor	 eax, eax
  0099e	eb 05		 jmp	 SHORT $LN158@Management
$LN156@Management:
  009a0	1b c0		 sbb	 eax, eax
  009a2	83 d8 ff	 sbb	 eax, -1
$LN158@Management:
  009a5	85 c0		 test	 eax, eax
  009a7	75 05		 jne	 SHORT $LN36@Management

; 789  : 					{
; 790  : 						bState = TRUE;

  009a9	8d 70 01	 lea	 esi, DWORD PTR [eax+1]
  009ac	eb 4b		 jmp	 SHORT $LN144@Management
$LN36@Management:

; 791  : 					}
; 792  : 					else if ( strcmp(pId, "off") == 0 )

  009ae	b9 00 00 00 00	 mov	 ecx, OFFSET ??_C@_03MCADLMAF@off?$AA@
  009b3	8b c6		 mov	 eax, esi
$LL159@Management:
  009b5	8a 10		 mov	 dl, BYTE PTR [eax]
  009b7	3a 11		 cmp	 dl, BYTE PTR [ecx]
  009b9	75 1a		 jne	 SHORT $LN160@Management
  009bb	84 d2		 test	 dl, dl
  009bd	74 12		 je	 SHORT $LN161@Management
  009bf	8a 50 01	 mov	 dl, BYTE PTR [eax+1]
  009c2	3a 51 01	 cmp	 dl, BYTE PTR [ecx+1]
  009c5	75 0e		 jne	 SHORT $LN160@Management
  009c7	83 c0 02	 add	 eax, 2
  009ca	83 c1 02	 add	 ecx, 2
  009cd	84 d2		 test	 dl, dl
  009cf	75 e4		 jne	 SHORT $LL159@Management
$LN161@Management:
  009d1	33 c0		 xor	 eax, eax
  009d3	eb 05		 jmp	 SHORT $LN162@Management
$LN160@Management:
  009d5	1b c0		 sbb	 eax, eax
  009d7	83 d8 ff	 sbb	 eax, -1
$LN162@Management:
  009da	85 c0		 test	 eax, eax
  009dc	75 04		 jne	 SHORT $LN34@Management

; 793  : 					{
; 794  : 						bState = FALSE;

  009de	33 f6		 xor	 esi, esi

; 795  : 					}
; 796  : 
; 797  : 					if ( bState >= FALSE && bState <= TRUE )

  009e0	eb 17		 jmp	 SHORT $LN144@Management
$LN34@Management:
  009e2	8b b5 7c fd ff
	ff		 mov	 esi, DWORD PTR _bState$154143[ebp]
  009e8	85 f6		 test	 esi, esi
  009ea	0f 88 0d 04 00
	00		 js	 $LN127@Management
  009f0	83 fe 01	 cmp	 esi, 1
  009f3	0f 8f 04 04 00
	00		 jg	 $LN127@Management
$LN144@Management:

; 798  : 					{
; 799  : 						::gObjSetTradeOption(aIndex, bState);

  009f9	8b bd 80 fd ff
	ff		 mov	 edi, DWORD PTR _aIndex$GSCopy$[ebp]
  009ff	56		 push	 esi
  00a00	57		 push	 edi
  00a01	e8 00 00 00 00	 call	 ?gObjSetTradeOption@@YAXHH@Z ; gObjSetTradeOption

; 800  : 						::gObjSetDuelOption(aIndex, bState);

  00a06	56		 push	 esi
  00a07	57		 push	 edi
  00a08	e8 00 00 00 00	 call	 ?gObjSetDuelOption@@YAXHH@Z ; gObjSetDuelOption
  00a0d	83 c4 10	 add	 esp, 16			; 00000010H

; 801  : 					}
; 802  : 				}
; 803  : 			}
; 804  : 			break;

  00a10	e9 e8 03 00 00	 jmp	 $LN127@Management
$LN32@Management:

; 805  : 
; 806  : 		case 320:	//117:
; 807  : 			{
; 808  : 				if ( (lpObj->Authority &2) != 2 )

  00a15	f6 86 a4 01 00
	00 02		 test	 BYTE PTR [esi+420], 2

; 809  : 				{
; 810  : 					return FALSE;

  00a1c	0f 84 db 03 00
	00		 je	 $LN127@Management

; 811  : 				}
; 812  : 
; 813  : 				LogAdd(LOG_BLACK, "[KUNDUN] Use GM Command -> [ %s ]\t[ %s ]\t[ %s ] : %s", lpObj->Ip_addr, lpObj->AccountID,
; 814  : 					lpObj->Name, "");	// #translation Require Translation

  00a22	68 00 00 00 00	 push	 OFFSET ??_C@_0N@DFKMJHLF@?D?o?$LF?P?$LL?s?E?B?$LK?$LI?$LB?b?$AA@
  00a27	8d 7e 6f	 lea	 edi, DWORD PTR [esi+111]
  00a2a	57		 push	 edi
  00a2b	8d 5e 64	 lea	 ebx, DWORD PTR [esi+100]
  00a2e	53		 push	 ebx
  00a2f	8d 46 14	 lea	 eax, DWORD PTR [esi+20]
  00a32	50		 push	 eax
  00a33	68 00 00 00 00	 push	 OFFSET ??_C@_0DF@GLPGGMOI@?$FLKUNDUN?$FN?5Use?5GM?5Command?5?9?$DO?5?$FL?5?$CFs?5@
  00a38	6a 00		 push	 0
  00a3a	e8 00 00 00 00	 call	 ?LogAdd@@YAXW4eLogColor@@PADZZ ; LogAdd

; 815  : 				KUNDUN_GM_LOG.Output("[KUNDUN] Use GM Command -> [ %s ]\t[ %s ]\t[ %s ] : %s", lpObj->Ip_addr, lpObj->AccountID,
; 816  : 					lpObj->Name, "");	// #translation  Require Translation

  00a3f	68 00 00 00 00	 push	 OFFSET ??_C@_0N@DFKMJHLF@?D?o?$LF?P?$LL?s?E?B?$LK?$LI?$LB?b?$AA@
  00a44	57		 push	 edi
  00a45	53		 push	 ebx
  00a46	8d 46 14	 lea	 eax, DWORD PTR [esi+20]
  00a49	50		 push	 eax
  00a4a	68 00 00 00 00	 push	 OFFSET ??_C@_0DF@GLPGGMOI@?$FLKUNDUN?$FN?5Use?5GM?5Command?5?9?$DO?5?$FL?5?$CFs?5@
  00a4f	68 00 00 00 00	 push	 OFFSET ?KUNDUN_GM_LOG@@3VCLogToFile@@A ; KUNDUN_GM_LOG
  00a54	e8 00 00 00 00	 call	 ?Output@CLogToFile@@QAAXPADZZ ; CLogToFile::Output
  00a59	83 c4 30	 add	 esp, 48			; 00000030H
  00a5c	8d 9e 92 03 00
	00		 lea	 ebx, DWORD PTR [esi+914]
  00a62	c7 85 80 fd ff
	ff 4b 00 00 00	 mov	 DWORD PTR tv571[ebp], 75 ; 0000004bH
  00a6c	8d 64 24 00	 npad	 4
$LL30@Management:

; 819  : 				{
; 820  : 					if ( lpObj->VpPlayer[n].state != 0 )

  00a70	80 7b fe 00	 cmp	 BYTE PTR [ebx-2], 0
  00a74	0f 84 95 00 00
	00		 je	 $LN29@Management

; 821  : 					{
; 822  : 						if ( lpObj->VpPlayer[n].type == OBJ_MONSTER )

  00a7a	80 7b 02 02	 cmp	 BYTE PTR [ebx+2], 2
  00a7e	0f 85 8b 00 00
	00		 jne	 $LN29@Management

; 823  : 						{
; 824  : 							if ( lpObj->VpPlayer[n].number >= 0 )

  00a84	0f b7 03	 movzx	 eax, WORD PTR [ebx]
  00a87	66 85 c0	 test	 ax, ax
  00a8a	0f 88 7f 00 00
	00		 js	 $LN29@Management

; 825  : 							{
; 826  : 								LPOBJ lpTarget = &gObj[lpObj->VpPlayer[n].number];

  00a90	0f bf f8	 movsx	 edi, ax
  00a93	69 ff 64 15 00
	00		 imul	 edi, 5476		; 00001564H
  00a99	81 c7 00 00 00
	00		 add	 edi, OFFSET ?gObj@@3PAUOBJECTSTRUCT@@A ; gObj

; 827  : 
; 828  : 								if ( lpTarget->Class == 275 )

  00a9f	ba 13 01 00 00	 mov	 edx, 275		; 00000113H
  00aa4	66 39 97 98 00
	00 00		 cmp	 WORD PTR [edi+152], dx
  00aab	75 62		 jne	 SHORT $LN29@Management

; 829  : 								{
; 830  : 									TNotice pNotice(1);

  00aad	6a 01		 push	 1
  00aaf	8d 8d 88 fd ff
	ff		 lea	 ecx, DWORD PTR _pNotice$154163[ebp]
  00ab5	e8 00 00 00 00	 call	 ??0TNotice@@QAE@E@Z	; TNotice::TNotice

; 831  : 
; 832  : 									pNotice.SendToUser(lpObj->m_Index, " HP = %7.0f / %7.0f", lpTarget->Life, lpTarget->MaxLife); //Require Translation

  00aba	d9 87 c0 00 00
	00		 fld	 DWORD PTR [edi+192]
  00ac0	8b 06		 mov	 eax, DWORD PTR [esi]
  00ac2	83 ec 10	 sub	 esp, 16			; 00000010H
  00ac5	dd 5c 24 08	 fstp	 QWORD PTR [esp+8]
  00ac9	8d 8d 88 fd ff
	ff		 lea	 ecx, DWORD PTR _pNotice$154163[ebp]
  00acf	d9 87 bc 00 00
	00		 fld	 DWORD PTR [edi+188]
  00ad5	dd 1c 24	 fstp	 QWORD PTR [esp]
  00ad8	68 00 00 00 00	 push	 OFFSET ??_C@_0BI@FABGHCEJ@?D?o?$LF?P?5HP?5?$DN?5?$CF7?40f?5?1?5?$CF7?40f?$AA@
  00add	50		 push	 eax
  00ade	51		 push	 ecx
  00adf	e8 00 00 00 00	 call	 ?SendToUser@TNotice@@QAAXHPADZZ ; TNotice::SendToUser

; 833  : 									pNotice.SendToUser(lpObj->m_Index, " HP  = %d  = %d  = %d", giKundunRefillHPSec, giKundunRefillHP, giKundunRefillHPTime);	// Require Translation

  00ae4	8b 15 00 00 00
	00		 mov	 edx, DWORD PTR ?giKundunRefillHPTime@@3HA ; giKundunRefillHPTime
  00aea	a1 00 00 00 00	 mov	 eax, DWORD PTR ?giKundunRefillHP@@3HA ; giKundunRefillHP
  00aef	8b 0d 00 00 00
	00		 mov	 ecx, DWORD PTR ?giKundunRefillHPSec@@3HA ; giKundunRefillHPSec
  00af5	52		 push	 edx
  00af6	8b 16		 mov	 edx, DWORD PTR [esi]
  00af8	50		 push	 eax
  00af9	51		 push	 ecx
  00afa	68 00 00 00 00	 push	 OFFSET ??_C@_0DC@DLDEMFJO@?D?o?$LF?P?5HP?5?C?J?$LE?g?H?$LI?$LK?$LJ?$LH?$KO?5?$DN?5?$CFd?5?H?$LI?$LK?$LJ?$LH?$KO?5?$DN@
  00aff	52		 push	 edx
  00b00	8d 85 88 fd ff
	ff		 lea	 eax, DWORD PTR _pNotice$154163[ebp]
  00b06	50		 push	 eax
  00b07	e8 00 00 00 00	 call	 ?SendToUser@TNotice@@QAAXHPADZZ ; TNotice::SendToUser
  00b0c	83 c4 34	 add	 esp, 52			; 00000034H
$LN29@Management:

; 817  : 
; 818  : 				for ( int n=0;n<MAX_VIEWPORT;n++)

  00b0f	83 c3 0c	 add	 ebx, 12			; 0000000cH
  00b12	ff 8d 80 fd ff
	ff		 dec	 DWORD PTR tv571[ebp]
  00b18	0f 85 52 ff ff
	ff		 jne	 $LL30@Management

; 834  : 								}
; 835  : 							}
; 836  : 						}
; 837  : 					}
; 838  : 				}
; 839  : 
; 840  : 			}
; 841  : 			break;

  00b1e	e9 da 02 00 00	 jmp	 $LN127@Management
$LN23@Management:

; 842  : 
; 843  : 		case 321:	//118:
; 844  : 			{
; 845  : 				if ( (lpObj->Authority &2 ) != 2 )

  00b23	f6 86 a4 01 00
	00 02		 test	 BYTE PTR [esi+420], 2

; 846  : 				{
; 847  : 					return FALSE;

  00b2a	0f 84 cd 02 00
	00		 je	 $LN127@Management

; 848  : 				}
; 849  : 
; 850  : 				LogAdd(LOG_BLACK, "[KUNDUN] Use GM Command -> [ %s ]\t[ %s ]\t[ %s ] : %s", lpObj->Ip_addr, lpObj->AccountID,
; 851  : 					lpObj->Name, "HP");	// Require Translation

  00b30	68 00 00 00 00	 push	 OFFSET ??_C@_0L@LMJDAGMB@?D?o?$LF?PHP?$LM?$LD?A?$KE?$AA@
  00b35	8d 5e 6f	 lea	 ebx, DWORD PTR [esi+111]
  00b38	53		 push	 ebx
  00b39	8d 46 64	 lea	 eax, DWORD PTR [esi+100]
  00b3c	50		 push	 eax
  00b3d	8d 4e 14	 lea	 ecx, DWORD PTR [esi+20]
  00b40	51		 push	 ecx
  00b41	68 00 00 00 00	 push	 OFFSET ??_C@_0DF@GLPGGMOI@?$FLKUNDUN?$FN?5Use?5GM?5Command?5?9?$DO?5?$FL?5?$CFs?5@
  00b46	6a 00		 push	 0
  00b48	e8 00 00 00 00	 call	 ?LogAdd@@YAXW4eLogColor@@PADZZ ; LogAdd

; 852  : 				KUNDUN_GM_LOG.Output("[KUNDUN] Use GM Command -> [ %s ]\t[ %s ]\t[ %s ] : %s", lpObj->Ip_addr, lpObj->AccountID,
; 853  : 					lpObj->Name, "HP");	// Require Translation

  00b4d	68 00 00 00 00	 push	 OFFSET ??_C@_0L@LMJDAGMB@?D?o?$LF?PHP?$LM?$LD?A?$KE?$AA@
  00b52	53		 push	 ebx
  00b53	8d 46 64	 lea	 eax, DWORD PTR [esi+100]
  00b56	50		 push	 eax
  00b57	8d 46 14	 lea	 eax, DWORD PTR [esi+20]
  00b5a	50		 push	 eax
  00b5b	68 00 00 00 00	 push	 OFFSET ??_C@_0DF@GLPGGMOI@?$FLKUNDUN?$FN?5Use?5GM?5Command?5?9?$DO?5?$FL?5?$CFs?5@
  00b60	68 00 00 00 00	 push	 OFFSET ?KUNDUN_GM_LOG@@3VCLogToFile@@A ; KUNDUN_GM_LOG
  00b65	e8 00 00 00 00	 call	 ?Output@CLogToFile@@QAAXPADZZ ; CLogToFile::Output
  00b6a	83 c4 30	 add	 esp, 48			; 00000030H

; 854  : 
; 855  : 				int iLife = this->GetTokenNumber();

  00b6d	8b cf		 mov	 ecx, edi
  00b6f	e8 00 00 00 00	 call	 ?GetTokenNumber@CGMMng@@QAEHXZ ; CGMMng::GetTokenNumber
  00b74	89 85 80 fd ff
	ff		 mov	 DWORD PTR _iLife$154169[ebp], eax
  00b7a	8d 9e 92 03 00
	00		 lea	 ebx, DWORD PTR [esi+914]
  00b80	c7 85 7c fd ff
	ff 4b 00 00 00	 mov	 DWORD PTR tv744[ebp], 75 ; 0000004bH
  00b8a	b9 88 13 00 00	 mov	 ecx, 5000		; 00001388H
  00b8f	90		 npad	 1
$LL21@Management:

; 858  : 				{
; 859  : 					if ( lpObj->VpPlayer[n].state != FALSE )

  00b90	80 7b fe 00	 cmp	 BYTE PTR [ebx-2], 0
  00b94	0f 84 b6 00 00
	00		 je	 $LN20@Management

; 860  : 					{
; 861  : 						if ( lpObj->VpPlayer[n].type == OBJ_MONSTER )

  00b9a	80 7b 02 02	 cmp	 BYTE PTR [ebx+2], 2
  00b9e	0f 85 ac 00 00
	00		 jne	 $LN20@Management

; 862  : 						{
; 863  : 							if ( lpObj->VpPlayer[n].number >= 0 )

  00ba4	0f b7 03	 movzx	 eax, WORD PTR [ebx]
  00ba7	66 85 c0	 test	 ax, ax
  00baa	0f 88 a0 00 00
	00		 js	 $LN20@Management

; 864  : 							{
; 865  : 								LPOBJ lpTarget = &gObj[lpObj->VpPlayer[n].number];

  00bb0	0f bf f8	 movsx	 edi, ax
  00bb3	69 ff 64 15 00
	00		 imul	 edi, 5476		; 00001564H
  00bb9	81 c7 00 00 00
	00		 add	 edi, OFFSET ?gObj@@3PAUOBJECTSTRUCT@@A ; gObj

; 866  : 
; 867  : 								if ( lpTarget->Class == 275 )

  00bbf	ba 13 01 00 00	 mov	 edx, 275		; 00000113H
  00bc4	66 39 97 98 00
	00 00		 cmp	 WORD PTR [edi+152], dx
  00bcb	0f 85 7f 00 00
	00		 jne	 $LN20@Management

; 868  : 								{
; 869  : 									if  ( iLife <= 5000 )

  00bd1	39 8d 80 fd ff
	ff		 cmp	 DWORD PTR _iLife$154169[ebp], ecx
  00bd7	7f 06		 jg	 SHORT $LN14@Management

; 870  : 									{
; 871  : 										iLife = 5000 ;

  00bd9	89 8d 80 fd ff
	ff		 mov	 DWORD PTR _iLife$154169[ebp], ecx
$LN14@Management:

; 872  : 									}
; 873  : 
; 874  : 									if ( iLife > lpTarget->MaxLife )

  00bdf	db 85 80 fd ff
	ff		 fild	 DWORD PTR _iLife$154169[ebp]
  00be5	d9 87 c0 00 00
	00		 fld	 DWORD PTR [edi+192]
  00beb	de d9		 fcompp
  00bed	df e0		 fnstsw	 ax
  00bef	f6 c4 05	 test	 ah, 5
  00bf2	7a 11		 jp	 SHORT $LN13@Management

; 875  : 									{
; 876  : 										iLife = lpTarget->MaxLife;

  00bf4	d9 87 c0 00 00
	00		 fld	 DWORD PTR [edi+192]
  00bfa	e8 00 00 00 00	 call	 __ftol2_sse
  00bff	89 85 80 fd ff
	ff		 mov	 DWORD PTR _iLife$154169[ebp], eax
$LN13@Management:

; 877  : 									}
; 878  : 
; 879  : 									lpTarget->Life = iLife;

  00c05	db 85 80 fd ff
	ff		 fild	 DWORD PTR _iLife$154169[ebp]

; 880  : 								
; 881  : 									TNotice pNotice(1);

  00c0b	6a 01		 push	 1
  00c0d	8d 8d 88 fd ff
	ff		 lea	 ecx, DWORD PTR _pNotice$154181[ebp]
  00c13	d9 9f bc 00 00
	00		 fstp	 DWORD PTR [edi+188]
  00c19	e8 00 00 00 00	 call	 ??0TNotice@@QAE@E@Z	; TNotice::TNotice

; 882  : 
; 883  : 									pNotice.SendToUser(lpObj->m_Index, " HP = %7.0f / %7.0f", lpTarget->Life, lpTarget->MaxLife); //Require Translation

  00c1e	d9 87 c0 00 00
	00		 fld	 DWORD PTR [edi+192]
  00c24	8b 06		 mov	 eax, DWORD PTR [esi]
  00c26	83 ec 10	 sub	 esp, 16			; 00000010H
  00c29	dd 5c 24 08	 fstp	 QWORD PTR [esp+8]
  00c2d	8d 8d 88 fd ff
	ff		 lea	 ecx, DWORD PTR _pNotice$154181[ebp]
  00c33	d9 87 bc 00 00
	00		 fld	 DWORD PTR [edi+188]
  00c39	dd 1c 24	 fstp	 QWORD PTR [esp]
  00c3c	68 00 00 00 00	 push	 OFFSET ??_C@_0BI@FABGHCEJ@?D?o?$LF?P?5HP?5?$DN?5?$CF7?40f?5?1?5?$CF7?40f?$AA@
  00c41	50		 push	 eax
  00c42	51		 push	 ecx
  00c43	e8 00 00 00 00	 call	 ?SendToUser@TNotice@@QAAXHPADZZ ; TNotice::SendToUser
  00c48	83 c4 1c	 add	 esp, 28			; 0000001cH
  00c4b	b9 88 13 00 00	 mov	 ecx, 5000		; 00001388H
$LN20@Management:

; 856  : 
; 857  : 				for ( int n=0;n<MAX_VIEWPORT;n++)

  00c50	83 c3 0c	 add	 ebx, 12			; 0000000cH
  00c53	ff 8d 7c fd ff
	ff		 dec	 DWORD PTR tv744[ebp]
  00c59	0f 85 31 ff ff
	ff		 jne	 $LL21@Management

; 884  : 								}
; 885  : 							}
; 886  : 						}
; 887  : 					}
; 888  : 				}
; 889  : 			}
; 890  : 			break;

  00c5f	e9 99 01 00 00	 jmp	 $LN127@Management
$LN12@Management:

; 891  : 
; 892  : 		case 322:	//119:
; 893  : 			{
; 894  : 				if ( (lpObj->Authority &2 ) != 2 )

  00c64	f6 86 a4 01 00
	00 02		 test	 BYTE PTR [esi+420], 2

; 895  : 				{
; 896  : 					return FALSE;

  00c6b	0f 84 8c 01 00
	00		 je	 $LN127@Management

; 897  : 				}
; 898  : 
; 899  : 				LogAdd(LOG_BLACK, "[KUNDUN] Use GM Command -> [ %s ]\t[ %s ]\t[ %s ] : %s", lpObj->Ip_addr, lpObj->AccountID,
; 900  : 					lpObj->Name, "HP");	// Require Translation

  00c71	68 00 00 00 00	 push	 OFFSET ??_C@_0BB@FDCEFCLA@?D?o?$LF?PHP?H?$LI?$LK?$LJ?$LH?$KO?$LM?$LD?A?$KE?$AA@
  00c76	8d 5e 6f	 lea	 ebx, DWORD PTR [esi+111]
  00c79	53		 push	 ebx
  00c7a	8d 46 64	 lea	 eax, DWORD PTR [esi+100]
  00c7d	50		 push	 eax
  00c7e	8d 4e 14	 lea	 ecx, DWORD PTR [esi+20]
  00c81	51		 push	 ecx
  00c82	68 00 00 00 00	 push	 OFFSET ??_C@_0DF@GLPGGMOI@?$FLKUNDUN?$FN?5Use?5GM?5Command?5?9?$DO?5?$FL?5?$CFs?5@
  00c87	6a 00		 push	 0
  00c89	e8 00 00 00 00	 call	 ?LogAdd@@YAXW4eLogColor@@PADZZ ; LogAdd

; 901  : 				KUNDUN_GM_LOG.Output("[KUNDUN] Use GM Command -> [ %s ]\t[ %s ]\t[ %s ] : %s", lpObj->Ip_addr, lpObj->AccountID,
; 902  : 					lpObj->Name, "HP");	// Require Translation

  00c8e	68 00 00 00 00	 push	 OFFSET ??_C@_0BB@FDCEFCLA@?D?o?$LF?PHP?H?$LI?$LK?$LJ?$LH?$KO?$LM?$LD?A?$KE?$AA@
  00c93	53		 push	 ebx
  00c94	8d 46 64	 lea	 eax, DWORD PTR [esi+100]
  00c97	50		 push	 eax
  00c98	8d 46 14	 lea	 eax, DWORD PTR [esi+20]
  00c9b	50		 push	 eax
  00c9c	68 00 00 00 00	 push	 OFFSET ??_C@_0DF@GLPGGMOI@?$FLKUNDUN?$FN?5Use?5GM?5Command?5?9?$DO?5?$FL?5?$CFs?5@
  00ca1	68 00 00 00 00	 push	 OFFSET ?KUNDUN_GM_LOG@@3VCLogToFile@@A ; KUNDUN_GM_LOG
  00ca6	e8 00 00 00 00	 call	 ?Output@CLogToFile@@QAAXPADZZ ; CLogToFile::Output
  00cab	83 c4 30	 add	 esp, 48			; 00000030H

; 903  : 
; 904  : 				int RefillHP = this->GetTokenNumber();

  00cae	8b cf		 mov	 ecx, edi
  00cb0	e8 00 00 00 00	 call	 ?GetTokenNumber@CGMMng@@QAEHXZ ; CGMMng::GetTokenNumber

; 905  : 
; 906  : 				if ( RefillHP <= 0 || RefillHP > 5000000 )

  00cb5	8d 50 ff	 lea	 edx, DWORD PTR [eax-1]
  00cb8	81 fa 3f 4b 4c
	00		 cmp	 edx, 4999999		; 004c4b3fH
  00cbe	0f 87 39 01 00
	00		 ja	 $LN127@Management

; 907  : 				{
; 908  : 					return 0;
; 909  : 				}
; 910  : 
; 911  : 				giKundunRefillHP = RefillHP;

  00cc4	a3 00 00 00 00	 mov	 DWORD PTR ?giKundunRefillHP@@3HA, eax ; giKundunRefillHP
$LN163@Management:

; 912  : 
; 913  : 				TNotice pNotice(0);

  00cc9	6a 00		 push	 0
  00ccb	8d 8d 88 fd ff
	ff		 lea	 ecx, DWORD PTR _pNotice$154188[ebp]
  00cd1	e8 00 00 00 00	 call	 ??0TNotice@@QAE@E@Z	; TNotice::TNotice

; 914  : 
; 915  : 				pNotice.SendToUser(lpObj->m_Index, " HP  = %d  = %d  = %d", giKundunRefillHPSec, giKundunRefillHP, giKundunRefillHPTime);	// Require Translation

  00cd6	a1 00 00 00 00	 mov	 eax, DWORD PTR ?giKundunRefillHPTime@@3HA ; giKundunRefillHPTime
  00cdb	8b 0d 00 00 00
	00		 mov	 ecx, DWORD PTR ?giKundunRefillHP@@3HA ; giKundunRefillHP
  00ce1	8b 15 00 00 00
	00		 mov	 edx, DWORD PTR ?giKundunRefillHPSec@@3HA ; giKundunRefillHPSec
  00ce7	50		 push	 eax
  00ce8	8b 06		 mov	 eax, DWORD PTR [esi]
  00cea	51		 push	 ecx
  00ceb	52		 push	 edx
  00cec	68 00 00 00 00	 push	 OFFSET ??_C@_0DC@DLDEMFJO@?D?o?$LF?P?5HP?5?C?J?$LE?g?H?$LI?$LK?$LJ?$LH?$KO?5?$DN?5?$CFd?5?H?$LI?$LK?$LJ?$LH?$KO?5?$DN@
  00cf1	50		 push	 eax
  00cf2	8d 8d 88 fd ff
	ff		 lea	 ecx, DWORD PTR _pNotice$154188[ebp]
  00cf8	51		 push	 ecx

; 916  : 
; 917  : 			}
; 918  : 
; 919  : 			break;

  00cf9	e9 f7 00 00 00	 jmp	 $LN170@Management
$LN8@Management:

; 920  : 
; 921  : 		case 323:	//120:
; 922  : 			{
; 923  : 				if ( (lpObj->Authority &2 ) != 2 )

  00cfe	f6 86 a4 01 00
	00 02		 test	 BYTE PTR [esi+420], 2

; 924  : 				{
; 925  : 					return FALSE;

  00d05	0f 84 f2 00 00
	00		 je	 $LN127@Management

; 926  : 				}
; 927  : 
; 928  : 				LogAdd(LOG_BLACK, "[KUNDUN] Use GM Command -> [ %s ]\t[ %s ]\t[ %s ] : %s", lpObj->Ip_addr, lpObj->AccountID,
; 929  : 					lpObj->Name, "HP");	// Require Translation

  00d0b	68 00 00 00 00	 push	 OFFSET ??_C@_0BF@IAPMHEEM@?D?o?$LF?PHP?C?J?$LE?g?H?$LI?$LK?$LJ?$LH?$KO?$LM?$LD?A?$KE?$AA@
  00d10	8d 5e 6f	 lea	 ebx, DWORD PTR [esi+111]
  00d13	53		 push	 ebx
  00d14	8d 46 64	 lea	 eax, DWORD PTR [esi+100]
  00d17	50		 push	 eax
  00d18	8d 4e 14	 lea	 ecx, DWORD PTR [esi+20]
  00d1b	51		 push	 ecx
  00d1c	68 00 00 00 00	 push	 OFFSET ??_C@_0DF@GLPGGMOI@?$FLKUNDUN?$FN?5Use?5GM?5Command?5?9?$DO?5?$FL?5?$CFs?5@
  00d21	6a 00		 push	 0
  00d23	e8 00 00 00 00	 call	 ?LogAdd@@YAXW4eLogColor@@PADZZ ; LogAdd

; 930  : 				KUNDUN_GM_LOG.Output("[KUNDUN] Use GM Command -> [ %s ]\t[ %s ]\t[ %s ] : %s", lpObj->Ip_addr, lpObj->AccountID,
; 931  : 					lpObj->Name, "HP");	// Require Translation

  00d28	68 00 00 00 00	 push	 OFFSET ??_C@_0BF@IAPMHEEM@?D?o?$LF?PHP?C?J?$LE?g?H?$LI?$LK?$LJ?$LH?$KO?$LM?$LD?A?$KE?$AA@
  00d2d	53		 push	 ebx
  00d2e	8d 46 64	 lea	 eax, DWORD PTR [esi+100]
  00d31	50		 push	 eax
  00d32	8d 46 14	 lea	 eax, DWORD PTR [esi+20]
  00d35	50		 push	 eax
  00d36	68 00 00 00 00	 push	 OFFSET ??_C@_0DF@GLPGGMOI@?$FLKUNDUN?$FN?5Use?5GM?5Command?5?9?$DO?5?$FL?5?$CFs?5@
  00d3b	68 00 00 00 00	 push	 OFFSET ?KUNDUN_GM_LOG@@3VCLogToFile@@A ; KUNDUN_GM_LOG
  00d40	e8 00 00 00 00	 call	 ?Output@CLogToFile@@QAAXPADZZ ; CLogToFile::Output
  00d45	83 c4 30	 add	 esp, 48			; 00000030H

; 932  : 
; 933  : 				int RefillHPSec = this->GetTokenNumber();

  00d48	8b cf		 mov	 ecx, edi
  00d4a	e8 00 00 00 00	 call	 ?GetTokenNumber@CGMMng@@QAEHXZ ; CGMMng::GetTokenNumber

; 934  : 
; 935  : 				if ( RefillHPSec <= 0 || RefillHPSec > 10000 )

  00d4f	8d 50 ff	 lea	 edx, DWORD PTR [eax-1]
  00d52	81 fa 0f 27 00
	00		 cmp	 edx, 9999		; 0000270fH
  00d58	0f 87 9f 00 00
	00		 ja	 $LN127@Management

; 936  : 				{
; 937  : 					return 0;
; 938  : 				}
; 939  : 
; 940  : 				giKundunRefillHPSec = RefillHPSec;

  00d5e	a3 00 00 00 00	 mov	 DWORD PTR ?giKundunRefillHPSec@@3HA, eax ; giKundunRefillHPSec

; 941  : 
; 942  : 				TNotice pNotice(0);
; 943  : 
; 944  : 				pNotice.SendToUser(lpObj->m_Index, " HP  = %d  = %d  = %d",
; 945  : 					giKundunRefillHPSec, giKundunRefillHP, giKundunRefillHPTime);	// Require Translation
; 946  : 
; 947  : 			}
; 948  : 
; 949  : 			break;

  00d63	e9 61 ff ff ff	 jmp	 $LN163@Management
$LN4@Management:

; 950  : 
; 951  : 		case 324:	//121:
; 952  : 			{
; 953  : 				if ( (lpObj->Authority &2 ) != 2 )

  00d68	f6 86 a4 01 00
	00 02		 test	 BYTE PTR [esi+420], 2

; 954  : 				{
; 955  : 					return FALSE;

  00d6f	0f 84 88 00 00
	00		 je	 $LN127@Management

; 956  : 				}
; 957  : 
; 958  : 				LogAdd(LOG_BLACK, "[KUNDUN] Use GM Command -> [ %s ]\t[ %s ]\t[ %s ] : %s", lpObj->Ip_addr, lpObj->AccountID,
; 959  : 					lpObj->Name, "HP");	// Require Translation

  00d75	68 00 00 00 00	 push	 OFFSET ??_C@_0BD@ONJMFEJN@?D?o?$LF?PHP?H?$LI?$LK?$LJ?$LN?C?$LA?$KD?$LM?$LD?A?$KE?$AA@
  00d7a	8d 5e 6f	 lea	 ebx, DWORD PTR [esi+111]
  00d7d	53		 push	 ebx
  00d7e	8d 46 64	 lea	 eax, DWORD PTR [esi+100]
  00d81	50		 push	 eax
  00d82	8d 4e 14	 lea	 ecx, DWORD PTR [esi+20]
  00d85	51		 push	 ecx
  00d86	68 00 00 00 00	 push	 OFFSET ??_C@_0DF@GLPGGMOI@?$FLKUNDUN?$FN?5Use?5GM?5Command?5?9?$DO?5?$FL?5?$CFs?5@
  00d8b	6a 00		 push	 0
  00d8d	e8 00 00 00 00	 call	 ?LogAdd@@YAXW4eLogColor@@PADZZ ; LogAdd

; 960  : 				KUNDUN_GM_LOG.Output("[KUNDUN] Use GM Command -> [ %s ]\t[ %s ]\t[ %s ] : %s", lpObj->Ip_addr, lpObj->AccountID,
; 961  : 					lpObj->Name, "HP");	// Require Translation

  00d92	68 00 00 00 00	 push	 OFFSET ??_C@_0BD@ONJMFEJN@?D?o?$LF?PHP?H?$LI?$LK?$LJ?$LN?C?$LA?$KD?$LM?$LD?A?$KE?$AA@
  00d97	53		 push	 ebx
  00d98	8d 46 64	 lea	 eax, DWORD PTR [esi+100]
  00d9b	50		 push	 eax
  00d9c	8d 46 14	 lea	 eax, DWORD PTR [esi+20]
  00d9f	50		 push	 eax
  00da0	68 00 00 00 00	 push	 OFFSET ??_C@_0DF@GLPGGMOI@?$FLKUNDUN?$FN?5Use?5GM?5Command?5?9?$DO?5?$FL?5?$CFs?5@
  00da5	68 00 00 00 00	 push	 OFFSET ?KUNDUN_GM_LOG@@3VCLogToFile@@A ; KUNDUN_GM_LOG
  00daa	e8 00 00 00 00	 call	 ?Output@CLogToFile@@QAAXPADZZ ; CLogToFile::Output
  00daf	83 c4 30	 add	 esp, 48			; 00000030H

; 962  : 
; 963  : 				int RefillHPTime = this->GetTokenNumber();

  00db2	8b cf		 mov	 ecx, edi
  00db4	e8 00 00 00 00	 call	 ?GetTokenNumber@CGMMng@@QAEHXZ ; CGMMng::GetTokenNumber

; 964  : 
; 965  : 				if ( RefillHPTime < 0 || RefillHPTime > 60000 )

  00db9	3d 60 ea 00 00	 cmp	 eax, 60000		; 0000ea60H
  00dbe	77 3d		 ja	 SHORT $LN127@Management

; 966  : 				{
; 967  : 					return 0;
; 968  : 				}
; 969  : 
; 970  : 				giKundunRefillHPTime = RefillHPTime;
; 971  : 
; 972  : 				TNotice pNotice(0);

  00dc0	6a 00		 push	 0
  00dc2	8d 8d 88 fd ff
	ff		 lea	 ecx, DWORD PTR _pNotice$154202[ebp]
  00dc8	a3 00 00 00 00	 mov	 DWORD PTR ?giKundunRefillHPTime@@3HA, eax ; giKundunRefillHPTime
  00dcd	e8 00 00 00 00	 call	 ??0TNotice@@QAE@E@Z	; TNotice::TNotice

; 973  : 
; 974  : 				pNotice.SendToUser(lpObj->m_Index, " HP  = %d  = %d  = %d", giKundunRefillHPSec, giKundunRefillHP, giKundunRefillHPTime);	// Require Translation

  00dd2	8b 15 00 00 00
	00		 mov	 edx, DWORD PTR ?giKundunRefillHPTime@@3HA ; giKundunRefillHPTime
  00dd8	a1 00 00 00 00	 mov	 eax, DWORD PTR ?giKundunRefillHP@@3HA ; giKundunRefillHP
  00ddd	8b 0d 00 00 00
	00		 mov	 ecx, DWORD PTR ?giKundunRefillHPSec@@3HA ; giKundunRefillHPSec
  00de3	52		 push	 edx
  00de4	8b 16		 mov	 edx, DWORD PTR [esi]
  00de6	50		 push	 eax
  00de7	51		 push	 ecx
  00de8	68 00 00 00 00	 push	 OFFSET ??_C@_0DC@DLDEMFJO@?D?o?$LF?P?5HP?5?C?J?$LE?g?H?$LI?$LK?$LJ?$LH?$KO?5?$DN?5?$CFd?5?H?$LI?$LK?$LJ?$LH?$KO?5?$DN@
  00ded	52		 push	 edx
  00dee	8d 85 88 fd ff
	ff		 lea	 eax, DWORD PTR _pNotice$154202[ebp]
  00df4	50		 push	 eax
$LN170@Management:
  00df5	e8 00 00 00 00	 call	 ?SendToUser@TNotice@@QAAXHPADZZ ; TNotice::SendToUser
$LN169@Management:
  00dfa	83 c4 18	 add	 esp, 24			; 00000018H
$LN127@Management:

; 975  : 
; 976  : 			}
; 977  : 			break;
; 978  : #if GS_CASTLE == 1
; 979  : 		case 331:
; 980  : 			{
; 981  : 				char *pId = this->GetTokenString();
; 982  : 				g_CastleSiege.OperateGmCommand(lpObj->m_Index, 0, pId);
; 983  : 			}
; 984  : 			break;
; 985  : 		case 332:
; 986  : 			g_CastleSiege.OperateGmCommand(lpObj->m_Index, 1, NULL);
; 987  : 			break;
; 988  : 		case 333:
; 989  : 			g_CastleSiege.OperateGmCommand(lpObj->m_Index, 2, NULL);
; 990  : 			break;
; 991  : 		case 334:
; 992  : 			g_CastleSiege.OperateGmCommand(lpObj->m_Index, 3, NULL);
; 993  : 			break;
; 994  : 		case 335:
; 995  : 			g_CastleSiege.OperateGmCommand(lpObj->m_Index, 4, NULL);
; 996  : 			break;
; 997  : 		case 336:
; 998  : 			g_CastleSiege.OperateGmCommand(lpObj->m_Index, 5, NULL);
; 999  : 			break;
; 1000 : 		case 337:
; 1001 : 			g_CastleSiege.OperateGmCommand(lpObj->m_Index, 6, NULL);
; 1002 : 			break;
; 1003 : 		case 338:
; 1004 : 			g_CastleSiege.OperateGmCommand(lpObj->m_Index, 7, NULL);
; 1005 : 			break;
; 1006 : 		case 340:
; 1007 : 			{
; 1008 : 				char *pId = this->GetTokenString();
; 1009 : 				g_CastleSiege.OperateGmCommand(lpObj->m_Index, 8, pId);
; 1010 : 			}
; 1011 : 			break;
; 1012 : #endif
; 1013 : 	}
; 1014 : 	return 0;
; 1015 : }

  00dfd	8b 4d fc	 mov	 ecx, DWORD PTR __$ArrayPad$[ebp]
  00e00	5f		 pop	 edi
  00e01	5e		 pop	 esi
  00e02	33 cd		 xor	 ecx, ebp
  00e04	33 c0		 xor	 eax, eax
  00e06	5b		 pop	 ebx
  00e07	e8 00 00 00 00	 call	 @__security_check_cookie@4
  00e0c	8b e5		 mov	 esp, ebp
  00e0e	5d		 pop	 ebp
  00e0f	c2 0c 00	 ret	 12			; 0000000cH
  00e12	8b ff		 npad	 2
$LN171@Management:
  00e14	00 00 00 00	 DD	 $LN104@Management
  00e18	00 00 00 00	 DD	 $LN90@Management
  00e1c	00 00 00 00	 DD	 $LN60@Management
  00e20	00 00 00 00	 DD	 $LN56@Management
  00e24	00 00 00 00	 DD	 $LN82@Management
  00e28	00 00 00 00	 DD	 $LN74@Management
  00e2c	00 00 00 00	 DD	 $LN72@Management
  00e30	00 00 00 00	 DD	 $LN67@Management
  00e34	00 00 00 00	 DD	 $LN99@Management
  00e38	00 00 00 00	 DD	 $LN52@Management
  00e3c	00 00 00 00	 DD	 $LN39@Management
  00e40	00 00 00 00	 DD	 $LN49@Management
  00e44	00 00 00 00	 DD	 $LN38@Management
  00e48	00 00 00 00	 DD	 $LN108@Management
  00e4c	00 00 00 00	 DD	 $LN113@Management
  00e50	00 00 00 00	 DD	 $LN119@Management
  00e54	00 00 00 00	 DD	 $LN124@Management
  00e58	00 00 00 00	 DD	 $LN32@Management
  00e5c	00 00 00 00	 DD	 $LN23@Management
  00e60	00 00 00 00	 DD	 $LN12@Management
  00e64	00 00 00 00	 DD	 $LN8@Management
  00e68	00 00 00 00	 DD	 $LN4@Management
  00e6c	00 00 00 00	 DD	 $LN127@Management
$LN146@Management:
  00e70	00		 DB	 0
  00e71	01		 DB	 1
  00e72	16		 DB	 22			; 00000016H
  00e73	16		 DB	 22			; 00000016H
  00e74	02		 DB	 2
  00e75	16		 DB	 22			; 00000016H
  00e76	03		 DB	 3
  00e77	16		 DB	 22			; 00000016H
  00e78	04		 DB	 4
  00e79	05		 DB	 5
  00e7a	06		 DB	 6
  00e7b	07		 DB	 7
  00e7c	08		 DB	 8
  00e7d	16		 DB	 22			; 00000016H
  00e7e	16		 DB	 22			; 00000016H
  00e7f	16		 DB	 22			; 00000016H
  00e80	16		 DB	 22			; 00000016H
  00e81	16		 DB	 22			; 00000016H
  00e82	16		 DB	 22			; 00000016H
  00e83	16		 DB	 22			; 00000016H
  00e84	16		 DB	 22			; 00000016H
  00e85	16		 DB	 22			; 00000016H
  00e86	16		 DB	 22			; 00000016H
  00e87	16		 DB	 22			; 00000016H
  00e88	16		 DB	 22			; 00000016H
  00e89	16		 DB	 22			; 00000016H
  00e8a	16		 DB	 22			; 00000016H
  00e8b	16		 DB	 22			; 00000016H
  00e8c	16		 DB	 22			; 00000016H
  00e8d	16		 DB	 22			; 00000016H
  00e8e	16		 DB	 22			; 00000016H
  00e8f	16		 DB	 22			; 00000016H
  00e90	16		 DB	 22			; 00000016H
  00e91	16		 DB	 22			; 00000016H
  00e92	16		 DB	 22			; 00000016H
  00e93	16		 DB	 22			; 00000016H
  00e94	16		 DB	 22			; 00000016H
  00e95	16		 DB	 22			; 00000016H
  00e96	16		 DB	 22			; 00000016H
  00e97	16		 DB	 22			; 00000016H
  00e98	16		 DB	 22			; 00000016H
  00e99	16		 DB	 22			; 00000016H
  00e9a	16		 DB	 22			; 00000016H
  00e9b	16		 DB	 22			; 00000016H
  00e9c	16		 DB	 22			; 00000016H
  00e9d	16		 DB	 22			; 00000016H
  00e9e	16		 DB	 22			; 00000016H
  00e9f	16		 DB	 22			; 00000016H
  00ea0	16		 DB	 22			; 00000016H
  00ea1	16		 DB	 22			; 00000016H
  00ea2	16		 DB	 22			; 00000016H
  00ea3	16		 DB	 22			; 00000016H
  00ea4	16		 DB	 22			; 00000016H
  00ea5	16		 DB	 22			; 00000016H
  00ea6	16		 DB	 22			; 00000016H
  00ea7	16		 DB	 22			; 00000016H
  00ea8	16		 DB	 22			; 00000016H
  00ea9	16		 DB	 22			; 00000016H
  00eaa	16		 DB	 22			; 00000016H
  00eab	16		 DB	 22			; 00000016H
  00eac	16		 DB	 22			; 00000016H
  00ead	16		 DB	 22			; 00000016H
  00eae	16		 DB	 22			; 00000016H
  00eaf	16		 DB	 22			; 00000016H
  00eb0	16		 DB	 22			; 00000016H
  00eb1	16		 DB	 22			; 00000016H
  00eb2	16		 DB	 22			; 00000016H
  00eb3	16		 DB	 22			; 00000016H
  00eb4	16		 DB	 22			; 00000016H
  00eb5	16		 DB	 22			; 00000016H
  00eb6	16		 DB	 22			; 00000016H
  00eb7	16		 DB	 22			; 00000016H
  00eb8	16		 DB	 22			; 00000016H
  00eb9	16		 DB	 22			; 00000016H
  00eba	16		 DB	 22			; 00000016H
  00ebb	16		 DB	 22			; 00000016H
  00ebc	16		 DB	 22			; 00000016H
  00ebd	16		 DB	 22			; 00000016H
  00ebe	16		 DB	 22			; 00000016H
  00ebf	16		 DB	 22			; 00000016H
  00ec0	16		 DB	 22			; 00000016H
  00ec1	16		 DB	 22			; 00000016H
  00ec2	16		 DB	 22			; 00000016H
  00ec3	16		 DB	 22			; 00000016H
  00ec4	16		 DB	 22			; 00000016H
  00ec5	16		 DB	 22			; 00000016H
  00ec6	16		 DB	 22			; 00000016H
  00ec7	16		 DB	 22			; 00000016H
  00ec8	16		 DB	 22			; 00000016H
  00ec9	16		 DB	 22			; 00000016H
  00eca	16		 DB	 22			; 00000016H
  00ecb	16		 DB	 22			; 00000016H
  00ecc	16		 DB	 22			; 00000016H
  00ecd	16		 DB	 22			; 00000016H
  00ece	16		 DB	 22			; 00000016H
  00ecf	16		 DB	 22			; 00000016H
  00ed0	16		 DB	 22			; 00000016H
  00ed1	16		 DB	 22			; 00000016H
  00ed2	16		 DB	 22			; 00000016H
  00ed3	16		 DB	 22			; 00000016H
  00ed4	09		 DB	 9
  00ed5	0a		 DB	 10			; 0000000aH
  00ed6	0b		 DB	 11			; 0000000bH
  00ed7	0c		 DB	 12			; 0000000cH
  00ed8	16		 DB	 22			; 00000016H
  00ed9	16		 DB	 22			; 00000016H
  00eda	16		 DB	 22			; 00000016H
  00edb	16		 DB	 22			; 00000016H
  00edc	16		 DB	 22			; 00000016H
  00edd	16		 DB	 22			; 00000016H
  00ede	16		 DB	 22			; 00000016H
  00edf	16		 DB	 22			; 00000016H
  00ee0	16		 DB	 22			; 00000016H
  00ee1	16		 DB	 22			; 00000016H
  00ee2	0d		 DB	 13			; 0000000dH
  00ee3	0e		 DB	 14			; 0000000eH
  00ee4	0f		 DB	 15			; 0000000fH
  00ee5	10		 DB	 16			; 00000010H
  00ee6	16		 DB	 22			; 00000016H
  00ee7	16		 DB	 22			; 00000016H
  00ee8	16		 DB	 22			; 00000016H
  00ee9	16		 DB	 22			; 00000016H
  00eea	16		 DB	 22			; 00000016H
  00eeb	16		 DB	 22			; 00000016H
  00eec	16		 DB	 22			; 00000016H
  00eed	16		 DB	 22			; 00000016H
  00eee	16		 DB	 22			; 00000016H
  00eef	16		 DB	 22			; 00000016H
  00ef0	16		 DB	 22			; 00000016H
  00ef1	16		 DB	 22			; 00000016H
  00ef2	16		 DB	 22			; 00000016H
  00ef3	16		 DB	 22			; 00000016H
  00ef4	16		 DB	 22			; 00000016H
  00ef5	16		 DB	 22			; 00000016H
  00ef6	16		 DB	 22			; 00000016H
  00ef7	16		 DB	 22			; 00000016H
  00ef8	16		 DB	 22			; 00000016H
  00ef9	16		 DB	 22			; 00000016H
  00efa	16		 DB	 22			; 00000016H
  00efb	16		 DB	 22			; 00000016H
  00efc	16		 DB	 22			; 00000016H
  00efd	16		 DB	 22			; 00000016H
  00efe	16		 DB	 22			; 00000016H
  00eff	16		 DB	 22			; 00000016H
  00f00	16		 DB	 22			; 00000016H
  00f01	16		 DB	 22			; 00000016H
  00f02	16		 DB	 22			; 00000016H
  00f03	16		 DB	 22			; 00000016H
  00f04	16		 DB	 22			; 00000016H
  00f05	16		 DB	 22			; 00000016H
  00f06	16		 DB	 22			; 00000016H
  00f07	16		 DB	 22			; 00000016H
  00f08	16		 DB	 22			; 00000016H
  00f09	16		 DB	 22			; 00000016H
  00f0a	16		 DB	 22			; 00000016H
  00f0b	16		 DB	 22			; 00000016H
  00f0c	16		 DB	 22			; 00000016H
  00f0d	16		 DB	 22			; 00000016H
  00f0e	16		 DB	 22			; 00000016H
  00f0f	16		 DB	 22			; 00000016H
  00f10	16		 DB	 22			; 00000016H
  00f11	16		 DB	 22			; 00000016H
  00f12	16		 DB	 22			; 00000016H
  00f13	16		 DB	 22			; 00000016H
  00f14	16		 DB	 22			; 00000016H
  00f15	16		 DB	 22			; 00000016H
  00f16	16		 DB	 22			; 00000016H
  00f17	16		 DB	 22			; 00000016H
  00f18	16		 DB	 22			; 00000016H
  00f19	16		 DB	 22			; 00000016H
  00f1a	16		 DB	 22			; 00000016H
  00f1b	16		 DB	 22			; 00000016H
  00f1c	16		 DB	 22			; 00000016H
  00f1d	16		 DB	 22			; 00000016H
  00f1e	16		 DB	 22			; 00000016H
  00f1f	16		 DB	 22			; 00000016H
  00f20	16		 DB	 22			; 00000016H
  00f21	16		 DB	 22			; 00000016H
  00f22	16		 DB	 22			; 00000016H
  00f23	16		 DB	 22			; 00000016H
  00f24	16		 DB	 22			; 00000016H
  00f25	16		 DB	 22			; 00000016H
  00f26	16		 DB	 22			; 00000016H
  00f27	16		 DB	 22			; 00000016H
  00f28	16		 DB	 22			; 00000016H
  00f29	16		 DB	 22			; 00000016H
  00f2a	16		 DB	 22			; 00000016H
  00f2b	16		 DB	 22			; 00000016H
  00f2c	16		 DB	 22			; 00000016H
  00f2d	16		 DB	 22			; 00000016H
  00f2e	16		 DB	 22			; 00000016H
  00f2f	16		 DB	 22			; 00000016H
  00f30	16		 DB	 22			; 00000016H
  00f31	16		 DB	 22			; 00000016H
  00f32	16		 DB	 22			; 00000016H
  00f33	16		 DB	 22			; 00000016H
  00f34	16		 DB	 22			; 00000016H
  00f35	16		 DB	 22			; 00000016H
  00f36	16		 DB	 22			; 00000016H
  00f37	16		 DB	 22			; 00000016H
  00f38	16		 DB	 22			; 00000016H
  00f39	16		 DB	 22			; 00000016H
  00f3a	16		 DB	 22			; 00000016H
  00f3b	16		 DB	 22			; 00000016H
  00f3c	16		 DB	 22			; 00000016H
  00f3d	16		 DB	 22			; 00000016H
  00f3e	16		 DB	 22			; 00000016H
  00f3f	16		 DB	 22			; 00000016H
  00f40	16		 DB	 22			; 00000016H
  00f41	16		 DB	 22			; 00000016H
  00f42	16		 DB	 22			; 00000016H
  00f43	16		 DB	 22			; 00000016H
  00f44	16		 DB	 22			; 00000016H
  00f45	16		 DB	 22			; 00000016H
  00f46	16		 DB	 22			; 00000016H
  00f47	16		 DB	 22			; 00000016H
  00f48	16		 DB	 22			; 00000016H
  00f49	16		 DB	 22			; 00000016H
  00f4a	16		 DB	 22			; 00000016H
  00f4b	16		 DB	 22			; 00000016H
  00f4c	11		 DB	 17			; 00000011H
  00f4d	12		 DB	 18			; 00000012H
  00f4e	13		 DB	 19			; 00000013H
  00f4f	14		 DB	 20			; 00000014H
  00f50	15		 DB	 21			; 00000015H
?ManagementProc@CGMMng@@QAEHPAUOBJECTSTRUCT@@PADH@Z ENDP ; CGMMng::ManagementProc
_TEXT	ENDS
PUBLIC	??_C@_0DB@IEAALEDF@?$MA?N?G?G?$LE?O?F?$LM?5?$LO?V?$LH?N?$LP?l?5MP?5?$LM?R?$LI?p?$LH?$KO?$FL?$CL0?3?$CFd?$FN@ ; `string'
PUBLIC	?GetInfinityArrowMPConsumption@CGMMng@@QAEXPAUOBJECTSTRUCT@@@Z ; CGMMng::GetInfinityArrowMPConsumption
EXTRN	?MsgOutput@@YAXHPADZZ:PROC			; MsgOutput
EXTRN	?g_SkillAdditionInfo@@3VCSkillAdditionInfo@@A:BYTE ; g_SkillAdditionInfo
;	COMDAT ??_C@_0DB@IEAALEDF@?$MA?N?G?G?$LE?O?F?$LM?5?$LO?V?$LH?N?$LP?l?5MP?5?$LM?R?$LI?p?$LH?$KO?$FL?$CL0?3?$CFd?$FN@
; File c:\users\faelhs\mu-1.1\emu - gameserver sapphire s0\gameserver\skilladditioninfo.h
CONST	SEGMENT
??_C@_0DB@IEAALEDF@?$MA?N?G?G?$LE?O?F?$LM?5?$LO?V?$LH?N?$LP?l?5MP?5?$LM?R?$LI?p?$LH?$KO?$FL?$CL0?3?$CFd?$FN@ DB 0c0H
	DB	0ceH, 0c7H, 0c7H, 0b4H, 0cfH, 0c6H, 0bcH, ' ', 0beH, 0d6H, 0b7H
	DB	0ceH, 0bfH, 0ecH, ' MP ', 0bcH, 0d2H, 0b8H, 0f0H, 0b7H, 0aeH, '['
	DB	'+0:%d] [+1:%d] [+2:%d]', 00H		; `string'
; Function compile flags: /Ogtp
; File c:\users\faelhs\mu-1.1\emu - gameserver sapphire s0\gameserver\gmmng.cpp
CONST	ENDS
;	COMDAT ?GetInfinityArrowMPConsumption@CGMMng@@QAEXPAUOBJECTSTRUCT@@@Z
_TEXT	SEGMENT
_lpObj$ = 8						; size = 4
?GetInfinityArrowMPConsumption@CGMMng@@QAEXPAUOBJECTSTRUCT@@@Z PROC ; CGMMng::GetInfinityArrowMPConsumption, COMDAT
; _this$ = ecx

; 1024 : {

  00000	55		 push	 ebp
  00001	8b ec		 mov	 ebp, esp

; 1025 : 	MsgOutput(lpObj->m_Index, "  MP [+0:%d] [+1:%d] [+2:%d]",
; 1026 : 		g_SkillAdditionInfo.GetInfinityArrowMPConsumptionPlus0(),
; 1027 : 		g_SkillAdditionInfo.GetInfinityArrowMPConsumptionPlus1(),
; 1028 : 		g_SkillAdditionInfo.GetInfinityArrowMPConsumptionPlus2());

  00003	a1 14 00 00 00	 mov	 eax, DWORD PTR ?g_SkillAdditionInfo@@3VCSkillAdditionInfo@@A+20
  00008	8b 0d 10 00 00
	00		 mov	 ecx, DWORD PTR ?g_SkillAdditionInfo@@3VCSkillAdditionInfo@@A+16
  0000e	8b 15 0c 00 00
	00		 mov	 edx, DWORD PTR ?g_SkillAdditionInfo@@3VCSkillAdditionInfo@@A+12
  00014	50		 push	 eax
  00015	8b 45 08	 mov	 eax, DWORD PTR _lpObj$[ebp]
  00018	51		 push	 ecx
  00019	8b 08		 mov	 ecx, DWORD PTR [eax]
  0001b	52		 push	 edx
  0001c	68 00 00 00 00	 push	 OFFSET ??_C@_0DB@IEAALEDF@?$MA?N?G?G?$LE?O?F?$LM?5?$LO?V?$LH?N?$LP?l?5MP?5?$LM?R?$LI?p?$LH?$KO?$FL?$CL0?3?$CFd?$FN@
  00021	51		 push	 ecx
  00022	e8 00 00 00 00	 call	 ?MsgOutput@@YAXHPADZZ	; MsgOutput
  00027	83 c4 14	 add	 esp, 20			; 00000014H

; 1029 : }

  0002a	5d		 pop	 ebp
  0002b	c2 04 00	 ret	 4
?GetInfinityArrowMPConsumption@CGMMng@@QAEXPAUOBJECTSTRUCT@@@Z ENDP ; CGMMng::GetInfinityArrowMPConsumption
_TEXT	ENDS
PUBLIC	??_C@_0CI@PGJBGCEL@?$MA?N?G?G?$LE?O?F?$LM?5?$LO?V?$LH?N?$LP?l?5MP?5?$LM?R?$LI?p?$LH?$KO?5?$LK?$KP?$LA?f?$CI?$CL@ ; `string'
PUBLIC	?ControlInfinityArrowMPConsumption0@CGMMng@@QAEXPAUOBJECTSTRUCT@@H@Z ; CGMMng::ControlInfinityArrowMPConsumption0
;	COMDAT ??_C@_0CI@PGJBGCEL@?$MA?N?G?G?$LE?O?F?$LM?5?$LO?V?$LH?N?$LP?l?5MP?5?$LM?R?$LI?p?$LH?$KO?5?$LK?$KP?$LA?f?$CI?$CL@
; File c:\users\faelhs\mu-1.1\emu - gameserver sapphire s0\gameserver\skilladditioninfo.h
CONST	SEGMENT
??_C@_0CI@PGJBGCEL@?$MA?N?G?G?$LE?O?F?$LM?5?$LO?V?$LH?N?$LP?l?5MP?5?$LM?R?$LI?p?$LH?$KO?5?$LK?$KP?$LA?f?$CI?$CL@ DB 0c0H
	DB	0ceH, 0c7H, 0c7H, 0b4H, 0cfH, 0c6H, 0bcH, ' ', 0beH, 0d6H, 0b7H
	DB	0ceH, 0bfH, 0ecH, ' MP ', 0bcH, 0d2H, 0b8H, 0f0H, 0b7H, 0aeH, ' '
	DB	0baH, 0afH, 0b0H, 0e6H, '(+0) : %d', 00H	; `string'
; Function compile flags: /Ogtp
; File c:\users\faelhs\mu-1.1\emu - gameserver sapphire s0\gameserver\gmmng.cpp
CONST	ENDS
;	COMDAT ?ControlInfinityArrowMPConsumption0@CGMMng@@QAEXPAUOBJECTSTRUCT@@H@Z
_TEXT	SEGMENT
_lpObj$ = 8						; size = 4
_iValue$ = 12						; size = 4
?ControlInfinityArrowMPConsumption0@CGMMng@@QAEXPAUOBJECTSTRUCT@@H@Z PROC ; CGMMng::ControlInfinityArrowMPConsumption0, COMDAT
; _this$ = ecx

; 1035 : {

  00000	55		 push	 ebp
  00001	8b ec		 mov	 ebp, esp

; 1036 : 	g_SkillAdditionInfo.SetInfinityArrowMPConsumptionPlus0(iValue);

  00003	8b 45 0c	 mov	 eax, DWORD PTR _iValue$[ebp]

; 1037 : 	MsgOutput(lpObj->m_Index, "  MP  (+0) : %d",iValue);

  00006	50		 push	 eax
  00007	a3 0c 00 00 00	 mov	 DWORD PTR ?g_SkillAdditionInfo@@3VCSkillAdditionInfo@@A+12, eax
  0000c	8b 45 08	 mov	 eax, DWORD PTR _lpObj$[ebp]
  0000f	8b 08		 mov	 ecx, DWORD PTR [eax]
  00011	68 00 00 00 00	 push	 OFFSET ??_C@_0CI@PGJBGCEL@?$MA?N?G?G?$LE?O?F?$LM?5?$LO?V?$LH?N?$LP?l?5MP?5?$LM?R?$LI?p?$LH?$KO?5?$LK?$KP?$LA?f?$CI?$CL@
  00016	51		 push	 ecx
  00017	e8 00 00 00 00	 call	 ?MsgOutput@@YAXHPADZZ	; MsgOutput
  0001c	83 c4 0c	 add	 esp, 12			; 0000000cH

; 1038 : 
; 1039 : }	

  0001f	5d		 pop	 ebp
  00020	c2 08 00	 ret	 8
?ControlInfinityArrowMPConsumption0@CGMMng@@QAEXPAUOBJECTSTRUCT@@H@Z ENDP ; CGMMng::ControlInfinityArrowMPConsumption0
_TEXT	ENDS
PUBLIC	??_C@_0CI@DKDLGCNF@?$MA?N?G?G?$LE?O?F?$LM?5?$LO?V?$LH?N?$LP?l?5MP?5?$LM?R?$LI?p?$LH?$KO?5?$LK?$KP?$LA?f?$CI?$CL@ ; `string'
PUBLIC	?ControlInfinityArrowMPConsumption1@CGMMng@@QAEXPAUOBJECTSTRUCT@@H@Z ; CGMMng::ControlInfinityArrowMPConsumption1
;	COMDAT ??_C@_0CI@DKDLGCNF@?$MA?N?G?G?$LE?O?F?$LM?5?$LO?V?$LH?N?$LP?l?5MP?5?$LM?R?$LI?p?$LH?$KO?5?$LK?$KP?$LA?f?$CI?$CL@
; File c:\users\faelhs\mu-1.1\emu - gameserver sapphire s0\gameserver\skilladditioninfo.h
CONST	SEGMENT
??_C@_0CI@DKDLGCNF@?$MA?N?G?G?$LE?O?F?$LM?5?$LO?V?$LH?N?$LP?l?5MP?5?$LM?R?$LI?p?$LH?$KO?5?$LK?$KP?$LA?f?$CI?$CL@ DB 0c0H
	DB	0ceH, 0c7H, 0c7H, 0b4H, 0cfH, 0c6H, 0bcH, ' ', 0beH, 0d6H, 0b7H
	DB	0ceH, 0bfH, 0ecH, ' MP ', 0bcH, 0d2H, 0b8H, 0f0H, 0b7H, 0aeH, ' '
	DB	0baH, 0afH, 0b0H, 0e6H, '(+1) : %d', 00H	; `string'
; Function compile flags: /Ogtp
; File c:\users\faelhs\mu-1.1\emu - gameserver sapphire s0\gameserver\gmmng.cpp
CONST	ENDS
;	COMDAT ?ControlInfinityArrowMPConsumption1@CGMMng@@QAEXPAUOBJECTSTRUCT@@H@Z
_TEXT	SEGMENT
_lpObj$ = 8						; size = 4
_iValue$ = 12						; size = 4
?ControlInfinityArrowMPConsumption1@CGMMng@@QAEXPAUOBJECTSTRUCT@@H@Z PROC ; CGMMng::ControlInfinityArrowMPConsumption1, COMDAT
; _this$ = ecx

; 1043 : {

  00000	55		 push	 ebp
  00001	8b ec		 mov	 ebp, esp

; 1044 : 	g_SkillAdditionInfo.SetInfinityArrowMPConsumptionPlus1(iValue);

  00003	8b 45 0c	 mov	 eax, DWORD PTR _iValue$[ebp]

; 1045 : 	MsgOutput(lpObj->m_Index, "  MP  (+1) : %d",iValue);

  00006	50		 push	 eax
  00007	a3 10 00 00 00	 mov	 DWORD PTR ?g_SkillAdditionInfo@@3VCSkillAdditionInfo@@A+16, eax
  0000c	8b 45 08	 mov	 eax, DWORD PTR _lpObj$[ebp]
  0000f	8b 08		 mov	 ecx, DWORD PTR [eax]
  00011	68 00 00 00 00	 push	 OFFSET ??_C@_0CI@DKDLGCNF@?$MA?N?G?G?$LE?O?F?$LM?5?$LO?V?$LH?N?$LP?l?5MP?5?$LM?R?$LI?p?$LH?$KO?5?$LK?$KP?$LA?f?$CI?$CL@
  00016	51		 push	 ecx
  00017	e8 00 00 00 00	 call	 ?MsgOutput@@YAXHPADZZ	; MsgOutput
  0001c	83 c4 0c	 add	 esp, 12			; 0000000cH

; 1046 : 
; 1047 : }

  0001f	5d		 pop	 ebp
  00020	c2 08 00	 ret	 8
?ControlInfinityArrowMPConsumption1@CGMMng@@QAEXPAUOBJECTSTRUCT@@H@Z ENDP ; CGMMng::ControlInfinityArrowMPConsumption1
_TEXT	ENDS
PUBLIC	??_C@_0CI@LELEGFDG@?$MA?N?G?G?$LE?O?F?$LM?5?$LO?V?$LH?N?$LP?l?5MP?5?$LM?R?$LI?p?$LH?$KO?5?$LK?$KP?$LA?f?$CI?$CL@ ; `string'
PUBLIC	?ControlInfinityArrowMPConsumption2@CGMMng@@QAEXPAUOBJECTSTRUCT@@H@Z ; CGMMng::ControlInfinityArrowMPConsumption2
;	COMDAT ??_C@_0CI@LELEGFDG@?$MA?N?G?G?$LE?O?F?$LM?5?$LO?V?$LH?N?$LP?l?5MP?5?$LM?R?$LI?p?$LH?$KO?5?$LK?$KP?$LA?f?$CI?$CL@
; File c:\users\faelhs\mu-1.1\emu - gameserver sapphire s0\gameserver\skilladditioninfo.h
CONST	SEGMENT
??_C@_0CI@LELEGFDG@?$MA?N?G?G?$LE?O?F?$LM?5?$LO?V?$LH?N?$LP?l?5MP?5?$LM?R?$LI?p?$LH?$KO?5?$LK?$KP?$LA?f?$CI?$CL@ DB 0c0H
	DB	0ceH, 0c7H, 0c7H, 0b4H, 0cfH, 0c6H, 0bcH, ' ', 0beH, 0d6H, 0b7H
	DB	0ceH, 0bfH, 0ecH, ' MP ', 0bcH, 0d2H, 0b8H, 0f0H, 0b7H, 0aeH, ' '
	DB	0baH, 0afH, 0b0H, 0e6H, '(+2) : %d', 00H	; `string'
; Function compile flags: /Ogtp
; File c:\users\faelhs\mu-1.1\emu - gameserver sapphire s0\gameserver\gmmng.cpp
CONST	ENDS
;	COMDAT ?ControlInfinityArrowMPConsumption2@CGMMng@@QAEXPAUOBJECTSTRUCT@@H@Z
_TEXT	SEGMENT
_lpObj$ = 8						; size = 4
_iValue$ = 12						; size = 4
?ControlInfinityArrowMPConsumption2@CGMMng@@QAEXPAUOBJECTSTRUCT@@H@Z PROC ; CGMMng::ControlInfinityArrowMPConsumption2, COMDAT
; _this$ = ecx

; 1050 : {

  00000	55		 push	 ebp
  00001	8b ec		 mov	 ebp, esp

; 1051 : 	g_SkillAdditionInfo.SetInfinityArrowMPConsumptionPlus2(iValue);

  00003	8b 45 0c	 mov	 eax, DWORD PTR _iValue$[ebp]

; 1052 : 	MsgOutput(lpObj->m_Index, "  MP  (+2) : %d",iValue);

  00006	50		 push	 eax
  00007	a3 14 00 00 00	 mov	 DWORD PTR ?g_SkillAdditionInfo@@3VCSkillAdditionInfo@@A+20, eax
  0000c	8b 45 08	 mov	 eax, DWORD PTR _lpObj$[ebp]
  0000f	8b 08		 mov	 ecx, DWORD PTR [eax]
  00011	68 00 00 00 00	 push	 OFFSET ??_C@_0CI@LELEGFDG@?$MA?N?G?G?$LE?O?F?$LM?5?$LO?V?$LH?N?$LP?l?5MP?5?$LM?R?$LI?p?$LH?$KO?5?$LK?$KP?$LA?f?$CI?$CL@
  00016	51		 push	 ecx
  00017	e8 00 00 00 00	 call	 ?MsgOutput@@YAXHPADZZ	; MsgOutput
  0001c	83 c4 0c	 add	 esp, 12			; 0000000cH

; 1053 : 
; 1054 : }

  0001f	5d		 pop	 ebp
  00020	c2 08 00	 ret	 8
?ControlInfinityArrowMPConsumption2@CGMMng@@QAEXPAUOBJECTSTRUCT@@H@Z ENDP ; CGMMng::ControlInfinityArrowMPConsumption2
_TEXT	ENDS
PUBLIC	??_C@_0CI@CKDLLIEC@220?$LH?$LJ?$LK?$KH?5?$MA?L?$LL?s?5?$LJ?B?A?n?$LP?$KE?G?A?$LI?$LI?5?$LL?g?$LP?k?$LA?$KB?$LE?I@ ; `string'
PUBLIC	??_C@_0CG@FOEJGLLM@?$MA?N?G?G?$LE?O?F?$LM?5?$LO?V?$LH?N?$LP?l?5?$LN?C?$LA?$KD?5?$LA?$KN?A?$KG?5?$LM?$LD?A?$KE?5?3@ ; `string'
PUBLIC	?SetInfinityArrowTime@CGMMng@@QAEXPAUOBJECTSTRUCT@@H@Z ; CGMMng::SetInfinityArrowTime
;	COMDAT ??_C@_0CI@CKDLLIEC@220?$LH?$LJ?$LK?$KH?5?$MA?L?$LL?s?5?$LJ?B?A?n?$LP?$KE?G?A?$LI?$LI?5?$LL?g?$LP?k?$LA?$KB?$LE?I@
CONST	SEGMENT
??_C@_0CI@CKDLLIEC@220?$LH?$LJ?$LK?$KH?5?$MA?L?$LL?s?5?$LJ?B?A?n?$LP?$KE?G?A?$LI?$LI?5?$LL?g?$LP?k?$LA?$KB?$LE?I@ DB '2'
	DB	'20', 0b7H, 0b9H, 0baH, 0a7H, ' ', 0c0H, 0ccH, 0bbH, 0f3H, ' ', 0b9H
	DB	0c2H, 0c1H, 0eeH, 0bfH, 0a4H, 0c7H, 0c1H, 0b8H, 0b8H, ' ', 0bbH
	DB	0e7H, 0bfH, 0ebH, 0b0H, 0a1H, 0b4H, 0c9H, 0c7H, 0d5H, 0b4H, 0cfH
	DB	0b4H, 0d9H, '.', 00H				; `string'
CONST	ENDS
;	COMDAT ??_C@_0CG@FOEJGLLM@?$MA?N?G?G?$LE?O?F?$LM?5?$LO?V?$LH?N?$LP?l?5?$LN?C?$LA?$KD?5?$LA?$KN?A?$KG?5?$LM?$LD?A?$KE?5?3@
CONST	SEGMENT
??_C@_0CG@FOEJGLLM@?$MA?N?G?G?$LE?O?F?$LM?5?$LO?V?$LH?N?$LP?l?5?$LN?C?$LA?$KD?5?$LA?$KN?A?$KG?5?$LM?$LD?A?$KE?5?3@ DB 0c0H
	DB	0ceH, 0c7H, 0c7H, 0b4H, 0cfH, 0c6H, 0bcH, ' ', 0beH, 0d6H, 0b7H
	DB	0ceH, 0bfH, 0ecH, ' ', 0bdH, 0c3H, 0b0H, 0a3H, ' ', 0b0H, 0adH
	DB	0c1H, 0a6H, ' ', 0bcH, 0b3H, 0c1H, 0a4H, ' : %d', 0c3H, 0caH, 00H ; `string'
; Function compile flags: /Ogtp
CONST	ENDS
;	COMDAT ?SetInfinityArrowTime@CGMMng@@QAEXPAUOBJECTSTRUCT@@H@Z
_TEXT	SEGMENT
_lpObj$ = 8						; size = 4
_iValue$ = 12						; size = 4
?SetInfinityArrowTime@CGMMng@@QAEXPAUOBJECTSTRUCT@@H@Z PROC ; CGMMng::SetInfinityArrowTime, COMDAT
; _this$ = ecx

; 1058 : {

  00000	55		 push	 ebp
  00001	8b ec		 mov	 ebp, esp

; 1059 : 	if ( lpObj->Class == CLASS_ELF && lpObj->Type == OBJ_USER && lpObj->ChangeUP == 1 )

  00003	8b 45 08	 mov	 eax, DWORD PTR _lpObj$[ebp]
  00006	66 83 b8 98 00
	00 00 02	 cmp	 WORD PTR [eax+152], 2
  0000e	75 31		 jne	 SHORT $LN2@SetInfinit
  00010	b9 01 00 00 00	 mov	 ecx, 1
  00015	66 39 48 60	 cmp	 WORD PTR [eax+96], cx
  00019	75 26		 jne	 SHORT $LN2@SetInfinit
  0001b	38 88 9b 00 00
	00		 cmp	 BYTE PTR [eax+155], cl
  00021	75 1e		 jne	 SHORT $LN2@SetInfinit

; 1060 : 	{
; 1061 : 		lpObj->m_iMuseElfInfinityArrowSkillTime = iValue;

  00023	8b 4d 0c	 mov	 ecx, DWORD PTR _iValue$[ebp]

; 1062 : 		MsgOutput(lpObj->m_Index, "     : %d", iValue);

  00026	51		 push	 ecx
  00027	89 88 30 15 00
	00		 mov	 DWORD PTR [eax+5424], ecx
  0002d	8b 00		 mov	 eax, DWORD PTR [eax]
  0002f	68 00 00 00 00	 push	 OFFSET ??_C@_0CG@FOEJGLLM@?$MA?N?G?G?$LE?O?F?$LM?5?$LO?V?$LH?N?$LP?l?5?$LN?C?$LA?$KD?5?$LA?$KN?A?$KG?5?$LM?$LD?A?$KE?5?3@
  00034	50		 push	 eax
  00035	e8 00 00 00 00	 call	 ?MsgOutput@@YAXHPADZZ	; MsgOutput
  0003a	83 c4 0c	 add	 esp, 12			; 0000000cH

; 1067 : 	}
; 1068 : }

  0003d	5d		 pop	 ebp
  0003e	c2 08 00	 ret	 8
$LN2@SetInfinit:

; 1063 : 	}
; 1064 : 	else
; 1065 : 	{
; 1066 : 		MsgOutput(lpObj->m_Index, "220   .");

  00041	8b 08		 mov	 ecx, DWORD PTR [eax]
  00043	68 00 00 00 00	 push	 OFFSET ??_C@_0CI@CKDLLIEC@220?$LH?$LJ?$LK?$KH?5?$MA?L?$LL?s?5?$LJ?B?A?n?$LP?$KE?G?A?$LI?$LI?5?$LL?g?$LP?k?$LA?$KB?$LE?I@
  00048	51		 push	 ecx
  00049	e8 00 00 00 00	 call	 ?MsgOutput@@YAXHPADZZ	; MsgOutput
  0004e	83 c4 08	 add	 esp, 8

; 1067 : 	}
; 1068 : }

  00051	5d		 pop	 ebp
  00052	c2 08 00	 ret	 8
?SetInfinityArrowTime@CGMMng@@QAEXPAUOBJECTSTRUCT@@H@Z ENDP ; CGMMng::SetInfinityArrowTime
_TEXT	ENDS
PUBLIC	??_C@_0CJ@MAGHDNFM@?F?D?$MA?L?$LO?n?$LN?$LK?E?$KJ?$LI?$LC?5?$LE?u?$LK?m?$LF?$KF?$LJ?L?A?v?5?F?x?$LJ?$NP?$LA?E?$LI?$KO@ ; `string'
PUBLIC	?ControlFireScreamDoubleAttackDistance@CGMMng@@QAEXPAUOBJECTSTRUCT@@H@Z ; CGMMng::ControlFireScreamDoubleAttackDistance
;	COMDAT ??_C@_0CJ@MAGHDNFM@?F?D?$MA?L?$LO?n?$LN?$LK?E?$KJ?$LI?$LC?5?$LE?u?$LK?m?$LF?$KF?$LJ?L?A?v?5?F?x?$LJ?$NP?$LA?E?$LI?$KO@
; File c:\users\faelhs\mu-1.1\emu - gameserver sapphire s0\gameserver\skilladditioninfo.h
CONST	SEGMENT
??_C@_0CJ@MAGHDNFM@?F?D?$MA?L?$LO?n?$LN?$LK?E?$KJ?$LI?$LC?5?$LE?u?$LK?m?$LF?$KF?$LJ?L?A?v?5?F?x?$LJ?$NP?$LA?E?$LI?$KO@ DB 0c6H
	DB	0c4H, 0c0H, 0ccH, 0beH, 0eeH, 0bdH, 0baH, 0c5H, 0a9H, 0b8H, 0b2H
	DB	' ', 0b4H, 0f5H, 0baH, 0edH, 0b5H, 0a5H, 0b9H, 0ccH, 0c1H, 0f6H
	DB	' ', 0c6H, 0f8H, 0b9H, 0dfH, 0b0H, 0c5H, 0b8H, 0aeH, ' ', 0baH
	DB	0afH, 0b0H, 0e6H, ':%d', 00H			; `string'
; Function compile flags: /Ogtp
; File c:\users\faelhs\mu-1.1\emu - gameserver sapphire s0\gameserver\gmmng.cpp
CONST	ENDS
;	COMDAT ?ControlFireScreamDoubleAttackDistance@CGMMng@@QAEXPAUOBJECTSTRUCT@@H@Z
_TEXT	SEGMENT
_lpObj$ = 8						; size = 4
_iValue$ = 12						; size = 4
?ControlFireScreamDoubleAttackDistance@CGMMng@@QAEXPAUOBJECTSTRUCT@@H@Z PROC ; CGMMng::ControlFireScreamDoubleAttackDistance, COMDAT
; _this$ = ecx

; 1073 : {

  00000	55		 push	 ebp
  00001	8b ec		 mov	 ebp, esp

; 1074 : 	g_SkillAdditionInfo.SetFireScreamExplosionAttackDistance(iValue);

  00003	8b 45 0c	 mov	 eax, DWORD PTR _iValue$[ebp]

; 1075 : 	MsgOutput(lpObj->m_Index, "   :%d", iValue);

  00006	50		 push	 eax
  00007	a3 1c 00 00 00	 mov	 DWORD PTR ?g_SkillAdditionInfo@@3VCSkillAdditionInfo@@A+28, eax
  0000c	8b 45 08	 mov	 eax, DWORD PTR _lpObj$[ebp]
  0000f	8b 08		 mov	 ecx, DWORD PTR [eax]
  00011	68 00 00 00 00	 push	 OFFSET ??_C@_0CJ@MAGHDNFM@?F?D?$MA?L?$LO?n?$LN?$LK?E?$KJ?$LI?$LC?5?$LE?u?$LK?m?$LF?$KF?$LJ?L?A?v?5?F?x?$LJ?$NP?$LA?E?$LI?$KO@
  00016	51		 push	 ecx
  00017	e8 00 00 00 00	 call	 ?MsgOutput@@YAXHPADZZ	; MsgOutput
  0001c	83 c4 0c	 add	 esp, 12			; 0000000cH

; 1076 : }

  0001f	5d		 pop	 ebp
  00020	c2 08 00	 ret	 8
?ControlFireScreamDoubleAttackDistance@CGMMng@@QAEXPAUOBJECTSTRUCT@@H@Z ENDP ; CGMMng::ControlFireScreamDoubleAttackDistance
_TEXT	ENDS
PUBLIC	??0CGMCommand@@QAE@XZ				; CGMCommand::CGMCommand
; Function compile flags: /Ogtp
; File c:\users\faelhs\mu-1.1\emu - gameserver sapphire s0\gameserver\gmmng.h
;	COMDAT ??0CGMCommand@@QAE@XZ
_TEXT	SEGMENT
??0CGMCommand@@QAE@XZ PROC				; CGMCommand::CGMCommand, COMDAT
; _this$ = ecx

; 22   : 	CGMCommand() // line : 119

  00000	8b c1		 mov	 eax, ecx
  00002	c7 80 d0 07 00
	00 ff ff ff ff	 mov	 DWORD PTR [eax+2000], -1

; 23   : 	{
; 24   : 		this->Init();

  0000c	c7 80 60 09 00
	00 00 00 00 00	 mov	 DWORD PTR [eax+2400], 0

; 25   : 	}	// line : 122

  00016	c3		 ret	 0
??0CGMCommand@@QAE@XZ ENDP				; CGMCommand::CGMCommand
_TEXT	ENDS
PUBLIC	??0CGMMng@@QAE@XZ				; CGMMng::CGMMng
; Function compile flags: /Ogtp
; File c:\users\faelhs\mu-1.1\emu - gameserver sapphire s0\gameserver\gmmng.cpp
;	COMDAT ??0CGMMng@@QAE@XZ
_TEXT	SEGMENT
??0CGMMng@@QAE@XZ PROC					; CGMMng::CGMMng, COMDAT
; _this$ = ecx

; 24   : {

  00000	c7 01 00 00 00
	00		 mov	 DWORD PTR [ecx], OFFSET ??_7CGMMng@@6B@
  00006	c7 81 d4 07 00
	00 ff ff ff ff	 mov	 DWORD PTR [ecx+2004], -1
  00010	c7 81 64 09 00
	00 00 00 00 00	 mov	 DWORD PTR [ecx+2404], 0

; 25   : 	this->ManagerInit();

  0001a	e8 00 00 00 00	 call	 ?ManagerInit@CGMMng@@QAEXXZ ; CGMMng::ManagerInit

; 26   : }

  0001f	8b c1		 mov	 eax, ecx
  00021	c3		 ret	 0
??0CGMMng@@QAE@XZ ENDP					; CGMMng::CGMMng
_TEXT	ENDS
EXTRN	??3@YAXPAX@Z:PROC				; operator delete
; Function compile flags: /Ogtp
;	COMDAT ??_GCGMMng@@UAEPAXI@Z
_TEXT	SEGMENT
___flags$ = 8						; size = 4
??_GCGMMng@@UAEPAXI@Z PROC				; CGMMng::`scalar deleting destructor', COMDAT
; _this$ = ecx
  00000	55		 push	 ebp
  00001	8b ec		 mov	 ebp, esp
  00003	56		 push	 esi
  00004	8b f1		 mov	 esi, ecx
  00006	e8 00 00 00 00	 call	 ??1CGMMng@@UAE@XZ	; CGMMng::~CGMMng
  0000b	f6 45 08 01	 test	 BYTE PTR ___flags$[ebp], 1
  0000f	74 09		 je	 SHORT $LN4@scalar
  00011	56		 push	 esi
  00012	e8 00 00 00 00	 call	 ??3@YAXPAX@Z		; operator delete
  00017	83 c4 04	 add	 esp, 4
$LN4@scalar:
  0001a	8b c6		 mov	 eax, esi
  0001c	5e		 pop	 esi
  0001d	5d		 pop	 ebp
  0001e	c2 04 00	 ret	 4
??_GCGMMng@@UAEPAXI@Z ENDP				; CGMMng::`scalar deleting destructor'
_TEXT	ENDS
PUBLIC	??_C@_0BE@JELMHMFI@KUNDUN_EVENT_GM_LOG?$AA@	; `string'
PUBLIC	??_C@_0BK@KGNFDHGA@?4?2Log?2KUNDUN_EVENT_GM_LOG?$AA@ ; `string'
EXTRN	_atexit:PROC
EXTRN	??0CLogToFile@@QAE@QAD0H@Z:PROC			; CLogToFile::CLogToFile
;	COMDAT ??_C@_0BE@JELMHMFI@KUNDUN_EVENT_GM_LOG?$AA@
CONST	SEGMENT
??_C@_0BE@JELMHMFI@KUNDUN_EVENT_GM_LOG?$AA@ DB 'KUNDUN_EVENT_GM_LOG', 00H ; `string'
CONST	ENDS
;	COMDAT ??_C@_0BK@KGNFDHGA@?4?2Log?2KUNDUN_EVENT_GM_LOG?$AA@
CONST	SEGMENT
??_C@_0BK@KGNFDHGA@?4?2Log?2KUNDUN_EVENT_GM_LOG?$AA@ DB '.\Log\KUNDUN_EVE'
	DB	'NT_GM_LOG', 00H				; `string'
; Function compile flags: /Ogtp
CONST	ENDS
;	COMDAT ??__EKUNDUN_GM_LOG@@YAXXZ
text$yc	SEGMENT
??__EKUNDUN_GM_LOG@@YAXXZ PROC				; `dynamic initializer for 'KUNDUN_GM_LOG'', COMDAT

; 20   : CLogToFile KUNDUN_GM_LOG( "KUNDUN_EVENT_GM_LOG", ".\\Log\\KUNDUN_EVENT_GM_LOG", 1);

  00000	6a 01		 push	 1
  00002	68 00 00 00 00	 push	 OFFSET ??_C@_0BK@KGNFDHGA@?4?2Log?2KUNDUN_EVENT_GM_LOG?$AA@
  00007	68 00 00 00 00	 push	 OFFSET ??_C@_0BE@JELMHMFI@KUNDUN_EVENT_GM_LOG?$AA@
  0000c	b9 00 00 00 00	 mov	 ecx, OFFSET ?KUNDUN_GM_LOG@@3VCLogToFile@@A ; KUNDUN_GM_LOG
  00011	e8 00 00 00 00	 call	 ??0CLogToFile@@QAE@QAD0H@Z ; CLogToFile::CLogToFile
  00016	68 00 00 00 00	 push	 OFFSET ??__FKUNDUN_GM_LOG@@YAXXZ ; `dynamic atexit destructor for 'KUNDUN_GM_LOG''
  0001b	e8 00 00 00 00	 call	 _atexit
  00020	59		 pop	 ecx
  00021	c3		 ret	 0
??__EKUNDUN_GM_LOG@@YAXXZ ENDP				; `dynamic initializer for 'KUNDUN_GM_LOG''
; Function compile flags: /Ogtp
text$yc	ENDS
;	COMDAT ??__EcManager@@YAXXZ
text$yc	SEGMENT
??__EcManager@@YAXXZ PROC				; `dynamic initializer for 'cManager'', COMDAT

; 21   : CGMMng cManager;

  00000	b9 00 00 00 00	 mov	 ecx, OFFSET ?cManager@@3VCGMMng@@A ; cManager
  00005	e8 00 00 00 00	 call	 ??0CGMMng@@QAE@XZ	; CGMMng::CGMMng
  0000a	68 00 00 00 00	 push	 OFFSET ??__FcManager@@YAXXZ ; `dynamic atexit destructor for 'cManager''
  0000f	e8 00 00 00 00	 call	 _atexit
  00014	59		 pop	 ecx
  00015	c3		 ret	 0
??__EcManager@@YAXXZ ENDP				; `dynamic initializer for 'cManager''
text$yc	ENDS
EXTRN	??1CLogToFile@@QAE@XZ:PROC			; CLogToFile::~CLogToFile
; Function compile flags: /Ogtp
;	COMDAT ??__FKUNDUN_GM_LOG@@YAXXZ
text$yd	SEGMENT
??__FKUNDUN_GM_LOG@@YAXXZ PROC				; `dynamic atexit destructor for 'KUNDUN_GM_LOG'', COMDAT
  00000	b9 00 00 00 00	 mov	 ecx, OFFSET ?KUNDUN_GM_LOG@@3VCLogToFile@@A ; KUNDUN_GM_LOG
  00005	e9 00 00 00 00	 jmp	 ??1CLogToFile@@QAE@XZ	; CLogToFile::~CLogToFile
??__FKUNDUN_GM_LOG@@YAXXZ ENDP				; `dynamic atexit destructor for 'KUNDUN_GM_LOG''
; Function compile flags: /Ogtp
text$yd	ENDS
;	COMDAT ??__FcManager@@YAXXZ
text$yd	SEGMENT
??__FcManager@@YAXXZ PROC				; `dynamic atexit destructor for 'cManager'', COMDAT
  00000	b9 00 00 00 00	 mov	 ecx, OFFSET ?cManager@@3VCGMMng@@A ; cManager
  00005	e9 00 00 00 00	 jmp	 ??1CGMMng@@UAE@XZ	; CGMMng::~CGMMng
??__FcManager@@YAXXZ ENDP				; `dynamic atexit destructor for 'cManager''
text$yd	ENDS
PUBLIC	?cManager@@3VCGMMng@@A				; cManager
PUBLIC	?KUNDUN_GM_LOG@@3VCLogToFile@@A			; KUNDUN_GM_LOG
_BSS	SEGMENT
?cManager@@3VCGMMng@@A DB 09b8H DUP (?)			; cManager
?KUNDUN_GM_LOG@@3VCLogToFile@@A DB 010228H DUP (?)	; KUNDUN_GM_LOG
_BSS	ENDS
CRT$XCU	SEGMENT
_KUNDUN_GM_LOG$initializer$ DD FLAT:??__EKUNDUN_GM_LOG@@YAXXZ
_cManager$initializer$ DD FLAT:??__EcManager@@YAXXZ
CRT$XCU	ENDS
END
