; Listing generated by Microsoft (R) Optimizing Compiler Version 16.00.30319.01 

	TITLE	C:\Users\faelhs\mu-1.1\eMu - GameServer Sapphire S0\GameServer\MiniDump.cpp
	.686P
	.XMM
	include listing.inc
	.model	flat

INCLUDELIB LIBCMT
INCLUDELIB OLDNAMES

PUBLIC	?PreviousExceptionFilter@@3P6GJPAU_EXCEPTION_POINTERS@@@ZA ; PreviousExceptionFilter
_BSS	SEGMENT
?PreviousExceptionFilter@@3P6GJPAU_EXCEPTION_POINTERS@@@ZA DD 01H DUP (?) ; PreviousExceptionFilter
_BSS	ENDS
PUBLIC	??_C@_0BH@IILLLNL@?$CFd?9?$CFd?9?$CFd_?$CFdh?$CFdm?$CFds?4dmp?$AA@ ; `string'
PUBLIC	__$ArrayPad$
PUBLIC	?DumpExceptionFilter@@YGJPAU_EXCEPTION_POINTERS@@@Z ; DumpExceptionFilter
EXTRN	__imp__CloseHandle@4:PROC
EXTRN	_MiniDumpWriteDump@28:PROC
EXTRN	__imp__GetCurrentProcess@0:PROC
EXTRN	__imp__GetCurrentProcessId@0:PROC
EXTRN	__imp__GetCurrentThreadId@0:PROC
EXTRN	__imp__CreateFileA@28:PROC
EXTRN	__imp__wsprintfA:PROC
EXTRN	__imp__GetLocalTime@4:PROC
EXTRN	___security_cookie:DWORD
EXTRN	@__security_check_cookie@4:PROC
;	COMDAT ??_C@_0BH@IILLLNL@?$CFd?9?$CFd?9?$CFd_?$CFdh?$CFdm?$CFds?4dmp?$AA@
; File c:\users\faelhs\mu-1.1\emu - gameserver sapphire s0\gameserver\minidump.cpp
CONST	SEGMENT
??_C@_0BH@IILLLNL@?$CFd?9?$CFd?9?$CFd_?$CFdh?$CFdm?$CFds?4dmp?$AA@ DB '%d'
	DB	'-%d-%d_%dh%dm%ds.dmp', 00H			; `string'
; Function compile flags: /Ogtp
CONST	ENDS
;	COMDAT ?DumpExceptionFilter@@YGJPAU_EXCEPTION_POINTERS@@@Z
_TEXT	SEGMENT
_mdei$156775 = -292					; size = 12
_SystemTime$ = -280					; size = 16
_path$ = -264						; size = 260
__$ArrayPad$ = -4					; size = 4
_info$ = 8						; size = 4
?DumpExceptionFilter@@YGJPAU_EXCEPTION_POINTERS@@@Z PROC ; DumpExceptionFilter, COMDAT

; 10   : {

  00000	55		 push	 ebp
  00001	8b ec		 mov	 ebp, esp
  00003	81 ec 24 01 00
	00		 sub	 esp, 292		; 00000124H
  00009	a1 00 00 00 00	 mov	 eax, DWORD PTR ___security_cookie
  0000e	33 c5		 xor	 eax, ebp
  00010	89 45 fc	 mov	 DWORD PTR __$ArrayPad$[ebp], eax
  00013	56		 push	 esi
  00014	57		 push	 edi
  00015	8b 7d 08	 mov	 edi, DWORD PTR _info$[ebp]

; 11   : 	char path[MAX_PATH];
; 12   : 
; 13   : 	SYSTEMTIME SystemTime;
; 14   : 
; 15   : 	GetLocalTime(&SystemTime);

  00018	8d 85 e8 fe ff
	ff		 lea	 eax, DWORD PTR _SystemTime$[ebp]
  0001e	50		 push	 eax
  0001f	ff 15 00 00 00
	00		 call	 DWORD PTR __imp__GetLocalTime@4

; 16   : 
; 17   : 	wsprintf(path,"%d-%d-%d_%dh%dm%ds.dmp",SystemTime.wYear,SystemTime.wMonth,SystemTime.wDay,SystemTime.wHour,SystemTime.wMinute,SystemTime.wSecond);

  00025	0f b7 8d f4 fe
	ff ff		 movzx	 ecx, WORD PTR _SystemTime$[ebp+12]
  0002c	0f b7 95 f2 fe
	ff ff		 movzx	 edx, WORD PTR _SystemTime$[ebp+10]
  00033	0f b7 85 f0 fe
	ff ff		 movzx	 eax, WORD PTR _SystemTime$[ebp+8]
  0003a	51		 push	 ecx
  0003b	0f b7 8d ee fe
	ff ff		 movzx	 ecx, WORD PTR _SystemTime$[ebp+6]
  00042	52		 push	 edx
  00043	0f b7 95 ea fe
	ff ff		 movzx	 edx, WORD PTR _SystemTime$[ebp+2]
  0004a	50		 push	 eax
  0004b	0f b7 85 e8 fe
	ff ff		 movzx	 eax, WORD PTR _SystemTime$[ebp]
  00052	51		 push	 ecx
  00053	52		 push	 edx
  00054	50		 push	 eax
  00055	8d 8d f8 fe ff
	ff		 lea	 ecx, DWORD PTR _path$[ebp]
  0005b	68 00 00 00 00	 push	 OFFSET ??_C@_0BH@IILLLNL@?$CFd?9?$CFd?9?$CFd_?$CFdh?$CFdm?$CFds?4dmp?$AA@
  00060	51		 push	 ecx
  00061	ff 15 00 00 00
	00		 call	 DWORD PTR __imp__wsprintfA
  00067	83 c4 20	 add	 esp, 32			; 00000020H

; 18   : 
; 19   : 	HANDLE file = CreateFile(path,GENERIC_WRITE,FILE_SHARE_WRITE,0,CREATE_ALWAYS,FILE_ATTRIBUTE_NORMAL,0);

  0006a	6a 00		 push	 0
  0006c	68 80 00 00 00	 push	 128			; 00000080H
  00071	6a 02		 push	 2
  00073	6a 00		 push	 0
  00075	6a 02		 push	 2
  00077	68 00 00 00 40	 push	 1073741824		; 40000000H
  0007c	8d 95 f8 fe ff
	ff		 lea	 edx, DWORD PTR _path$[ebp]
  00082	52		 push	 edx
  00083	ff 15 00 00 00
	00		 call	 DWORD PTR __imp__CreateFileA@28
  00089	8b f0		 mov	 esi, eax

; 20   : 
; 21   : 	if(file != INVALID_HANDLE_VALUE)

  0008b	83 fe ff	 cmp	 esi, -1
  0008e	74 5f		 je	 SHORT $LN1@DumpExcept

; 22   : 	{
; 23   : 		MINIDUMP_EXCEPTION_INFORMATION mdei;
; 24   : 
; 25   : 		mdei.ThreadId = GetCurrentThreadId();

  00090	ff 15 00 00 00
	00		 call	 DWORD PTR __imp__GetCurrentThreadId@0

; 26   : 
; 27   : 		mdei.ExceptionPointers = info;
; 28   : 
; 29   : 		mdei.ClientPointers = 0;
; 30   : 
; 31   : 		if(MiniDumpWriteDump(GetCurrentProcess(),GetCurrentProcessId(),file,(MINIDUMP_TYPE)(MiniDumpScanMemory+MiniDumpWithIndirectlyReferencedMemory),&mdei,0,0) != 0)

  00096	6a 00		 push	 0
  00098	6a 00		 push	 0
  0009a	89 85 dc fe ff
	ff		 mov	 DWORD PTR _mdei$156775[ebp], eax
  000a0	8d 85 dc fe ff
	ff		 lea	 eax, DWORD PTR _mdei$156775[ebp]
  000a6	50		 push	 eax
  000a7	6a 50		 push	 80			; 00000050H
  000a9	56		 push	 esi
  000aa	89 bd e0 fe ff
	ff		 mov	 DWORD PTR _mdei$156775[ebp+4], edi
  000b0	c7 85 e4 fe ff
	ff 00 00 00 00	 mov	 DWORD PTR _mdei$156775[ebp+8], 0
  000ba	ff 15 00 00 00
	00		 call	 DWORD PTR __imp__GetCurrentProcessId@0
  000c0	50		 push	 eax
  000c1	ff 15 00 00 00
	00		 call	 DWORD PTR __imp__GetCurrentProcess@0
  000c7	50		 push	 eax
  000c8	e8 00 00 00 00	 call	 _MiniDumpWriteDump@28
  000cd	85 c0		 test	 eax, eax
  000cf	74 1e		 je	 SHORT $LN1@DumpExcept

; 32   : 		{
; 33   : 			CloseHandle(file);

  000d1	56		 push	 esi
  000d2	ff 15 00 00 00
	00		 call	 DWORD PTR __imp__CloseHandle@4
  000d8	5f		 pop	 edi

; 34   : 			return EXCEPTION_EXECUTE_HANDLER;

  000d9	b8 01 00 00 00	 mov	 eax, 1
  000de	5e		 pop	 esi

; 39   : 
; 40   : 	return EXCEPTION_CONTINUE_SEARCH;
; 41   : }

  000df	8b 4d fc	 mov	 ecx, DWORD PTR __$ArrayPad$[ebp]
  000e2	33 cd		 xor	 ecx, ebp
  000e4	e8 00 00 00 00	 call	 @__security_check_cookie@4
  000e9	8b e5		 mov	 esp, ebp
  000eb	5d		 pop	 ebp
  000ec	c2 04 00	 ret	 4
$LN1@DumpExcept:

; 35   : 		}
; 36   : 	}
; 37   : 
; 38   : 	CloseHandle(file);

  000ef	56		 push	 esi
  000f0	ff 15 00 00 00
	00		 call	 DWORD PTR __imp__CloseHandle@4

; 39   : 
; 40   : 	return EXCEPTION_CONTINUE_SEARCH;
; 41   : }

  000f6	8b 4d fc	 mov	 ecx, DWORD PTR __$ArrayPad$[ebp]
  000f9	5f		 pop	 edi
  000fa	33 cd		 xor	 ecx, ebp
  000fc	33 c0		 xor	 eax, eax
  000fe	5e		 pop	 esi
  000ff	e8 00 00 00 00	 call	 @__security_check_cookie@4
  00104	8b e5		 mov	 esp, ebp
  00106	5d		 pop	 ebp
  00107	c2 04 00	 ret	 4
?DumpExceptionFilter@@YGJPAU_EXCEPTION_POINTERS@@@Z ENDP ; DumpExceptionFilter
_TEXT	ENDS
PUBLIC	?Start@CMiniDump@@SAXXZ				; CMiniDump::Start
EXTRN	__imp__SetUnhandledExceptionFilter@4:PROC
EXTRN	__imp__SetErrorMode@4:PROC
; Function compile flags: /Ogtp
;	COMDAT ?Start@CMiniDump@@SAXXZ
_TEXT	SEGMENT
?Start@CMiniDump@@SAXXZ PROC				; CMiniDump::Start, COMDAT

; 45   : 	SetErrorMode(SEM_FAILCRITICALERRORS);

  00000	6a 01		 push	 1
  00002	ff 15 00 00 00
	00		 call	 DWORD PTR __imp__SetErrorMode@4

; 46   : 
; 47   : 	PreviousExceptionFilter = SetUnhandledExceptionFilter(DumpExceptionFilter);

  00008	68 00 00 00 00	 push	 OFFSET ?DumpExceptionFilter@@YGJPAU_EXCEPTION_POINTERS@@@Z ; DumpExceptionFilter
  0000d	ff 15 00 00 00
	00		 call	 DWORD PTR __imp__SetUnhandledExceptionFilter@4
  00013	a3 00 00 00 00	 mov	 DWORD PTR ?PreviousExceptionFilter@@3P6GJPAU_EXCEPTION_POINTERS@@@ZA, eax ; PreviousExceptionFilter

; 48   : }

  00018	c3		 ret	 0
?Start@CMiniDump@@SAXXZ ENDP				; CMiniDump::Start
_TEXT	ENDS
PUBLIC	?Clean@CMiniDump@@SAXXZ				; CMiniDump::Clean
; Function compile flags: /Ogtp
;	COMDAT ?Clean@CMiniDump@@SAXXZ
_TEXT	SEGMENT
?Clean@CMiniDump@@SAXXZ PROC				; CMiniDump::Clean, COMDAT

; 52   : 	SetUnhandledExceptionFilter(PreviousExceptionFilter);

  00000	a1 00 00 00 00	 mov	 eax, DWORD PTR ?PreviousExceptionFilter@@3P6GJPAU_EXCEPTION_POINTERS@@@ZA ; PreviousExceptionFilter
  00005	50		 push	 eax
  00006	ff 15 00 00 00
	00		 call	 DWORD PTR __imp__SetUnhandledExceptionFilter@4

; 53   : }

  0000c	c3		 ret	 0
?Clean@CMiniDump@@SAXXZ ENDP				; CMiniDump::Clean
_TEXT	ENDS
END
