; Listing generated by Microsoft (R) Optimizing Compiler Version 16.00.30319.01 

	TITLE	C:\Users\faelhs\mu-1.1\eMu - GameServer Sapphire S0\GameServer\NpcTalk.cpp
	.686P
	.XMM
	include listing.inc
	.model	flat

INCLUDELIB LIBCMT
INCLUDELIB OLDNAMES

PUBLIC	?g_bUseLotterySystem@@3HA			; g_bUseLotterySystem
_DATA	SEGMENT
_g_sttBLOODCASTLE_LEVEL DD 0fH
	DD	050H
	DD	0aH
	DD	03cH
	DD	051H
	DD	082H
	DD	03dH
	DD	06eH
	DD	083H
	DD	0b4H
	DD	06fH
	DD	0a0H
	DD	0b5H
	DD	0e6H
	DD	0a1H
	DD	0d2H
	DD	0e7H
	DD	0118H
	DD	0d3H
	DD	0104H
	DD	0119H
	DD	014aH
	DD	0105H
	DD	0136H
	DD	014bH
	DD	0190H
	DD	0137H
	DD	0190H
_g_sttDEVILSQUARE_LEVEL DD 0fH
	DD	082H
	DD	0aH
	DD	06eH
	DD	03aH
	DD	083H
	DD	0b4H
	DD	06fH
	DD	0a0H
	DD	03bH
	DD	0b5H
	DD	0e6H
	DD	0a1H
	DD	0d2H
	DD	03cH
	DD	0e7H
	DD	0118H
	DD	0d3H
	DD	0104H
	DD	03dH
	DD	0119H
	DD	014aH
	DD	0105H
	DD	0136H
	DD	06fH
	DD	014bH
	DD	0190H
	DD	0137H
	DD	0190H
	DD	070H
?g_bUseLotterySystem@@3HA DD 01H			; g_bUseLotterySystem
_DATA	ENDS
PUBLIC	?GetState@CDevilSquare@@QAE?AW4eDevilSquareState@@XZ ; CDevilSquare::GetState
; Function compile flags: /Ogtp
; File c:\users\faelhs\mu-1.1\emu - gameserver sapphire s0\gameserver\devilsquare.h
;	COMDAT ?GetState@CDevilSquare@@QAE?AW4eDevilSquareState@@XZ
_TEXT	SEGMENT
?GetState@CDevilSquare@@QAE?AW4eDevilSquareState@@XZ PROC ; CDevilSquare::GetState, COMDAT
; _this$ = ecx

; 42   : 	enum eDevilSquareState GetState(){return this->m_eState;};	// line : 93

  00000	8b 41 04	 mov	 eax, DWORD PTR [ecx+4]
  00003	c3		 ret	 0
?GetState@CDevilSquare@@QAE?AW4eDevilSquareState@@XZ ENDP ; CDevilSquare::GetState
_TEXT	ENDS
PUBLIC	?NpcReira@@YAHPAUOBJECTSTRUCT@@0@Z		; NpcReira
; Function compile flags: /Ogtp
; File c:\users\faelhs\mu-1.1\emu - gameserver sapphire s0\gameserver\npctalk.cpp
;	COMDAT ?NpcReira@@YAHPAUOBJECTSTRUCT@@0@Z
_TEXT	SEGMENT
_lpNpc$ = 8						; size = 4
_lpObj$ = 12						; size = 4
?NpcReira@@YAHPAUOBJECTSTRUCT@@0@Z PROC			; NpcReira, COMDAT

; 291  : 	return FALSE;

  00000	33 c0		 xor	 eax, eax

; 292  : }

  00002	c3		 ret	 0
?NpcReira@@YAHPAUOBJECTSTRUCT@@0@Z ENDP			; NpcReira
_TEXT	ENDS
PUBLIC	?NpcBattleAnnouncer@@YAHPAUOBJECTSTRUCT@@0@Z	; NpcBattleAnnouncer
; Function compile flags: /Ogtp
;	COMDAT ?NpcBattleAnnouncer@@YAHPAUOBJECTSTRUCT@@0@Z
_TEXT	SEGMENT
_lpNpc$ = 8						; size = 4
_lpObj$ = 12						; size = 4
?NpcBattleAnnouncer@@YAHPAUOBJECTSTRUCT@@0@Z PROC	; NpcBattleAnnouncer, COMDAT

; 296  : #if (GS_CASTLE==1)
; 297  : 
; 298  : #endif
; 299  : 
; 300  : 	return 0;

  00000	33 c0		 xor	 eax, eax

; 301  : }

  00002	c3		 ret	 0
?NpcBattleAnnouncer@@YAHPAUOBJECTSTRUCT@@0@Z ENDP	; NpcBattleAnnouncer
_TEXT	ENDS
PUBLIC	__$ArrayPad$
PUBLIC	?NpcFasi@@YAHPAUOBJECTSTRUCT@@0@Z		; NpcFasi
EXTRN	_rand:PROC
EXTRN	?gPkLimitFree@@3HA:DWORD			; gPkLimitFree
EXTRN	?ChatTargetSend@@YAXPAUOBJECTSTRUCT@@PADH@Z:PROC ; ChatTargetSend
EXTRN	__imp__wsprintfA:PROC
EXTRN	?Get@CMsg@@QAEPADH@Z:PROC			; CMsg::Get
EXTRN	?lMsg@@3VCMsg@@A:BYTE				; lMsg
EXTRN	?gObjGetPkTime@@YAHPAUOBJECTSTRUCT@@AAH1@Z:PROC	; gObjGetPkTime
EXTRN	?GCServerCmd@@YAXHEEE@Z:PROC			; GCServerCmd
EXTRN	?gDevilSquareEvent@@3HA:DWORD			; gDevilSquareEvent
EXTRN	?gLanguage@@3HA:DWORD				; gLanguage
EXTRN	___security_cookie:DWORD
EXTRN	@__security_check_cookie@4:PROC
; Function compile flags: /Ogtp
;	COMDAT ?NpcFasi@@YAHPAUOBJECTSTRUCT@@0@Z
_TEXT	SEGMENT
_min$155097 = -112					; size = 4
_hour$155096 = -108					; size = 4
_szTemp$155100 = -104					; size = 100
__$ArrayPad$ = -4					; size = 4
_lpNpc$ = 8						; size = 4
_lpObj$ = 12						; size = 4
?NpcFasi@@YAHPAUOBJECTSTRUCT@@0@Z PROC			; NpcFasi, COMDAT

; 305  : {

  00000	55		 push	 ebp
  00001	8b ec		 mov	 ebp, esp
  00003	83 ec 70	 sub	 esp, 112		; 00000070H
  00006	a1 00 00 00 00	 mov	 eax, DWORD PTR ___security_cookie
  0000b	33 c5		 xor	 eax, ebp
  0000d	89 45 fc	 mov	 DWORD PTR __$ArrayPad$[ebp], eax

; 306  : 	if ( gLanguage != 0 )

  00010	83 3d 00 00 00
	00 00		 cmp	 DWORD PTR ?gLanguage@@3HA, 0 ; gLanguage
  00017	56		 push	 esi
  00018	8b 75 0c	 mov	 esi, DWORD PTR _lpObj$[ebp]
  0001b	57		 push	 edi
  0001c	8b 7d 08	 mov	 edi, DWORD PTR _lpNpc$[ebp]
  0001f	74 1a		 je	 SHORT $LN11@NpcFasi

; 307  : 	{
; 308  : 		if ( gDevilSquareEvent != FALSE )

  00021	83 3d 00 00 00
	00 00		 cmp	 DWORD PTR ?gDevilSquareEvent@@3HA, 0 ; gDevilSquareEvent
  00028	74 11		 je	 SHORT $LN11@NpcFasi

; 309  : 		{
; 310  : 			GCServerCmd(lpObj->m_Index, 1, 6, 0);

  0002a	8b 06		 mov	 eax, DWORD PTR [esi]
  0002c	6a 00		 push	 0
  0002e	6a 06		 push	 6
  00030	6a 01		 push	 1
  00032	50		 push	 eax
  00033	e8 00 00 00 00	 call	 ?GCServerCmd@@YAXHEEE@Z	; GCServerCmd
  00038	83 c4 10	 add	 esp, 16			; 00000010H
$LN11@NpcFasi:

; 311  : 		}
; 312  : 	}
; 313  : 
; 314  : 	if ( lpObj->m_PK_Level > 4 )

  0003b	80 be fd 00 00
	00 04		 cmp	 BYTE PTR [esi+253], 4
  00042	7e 6b		 jle	 SHORT $LN6@NpcFasi

; 315  : 	{
; 316  : 		int hour = 0;
; 317  : 		int min = 0;
; 318  : 
; 319  : 		if ( lpNpc->TargetNumber != lpObj->m_Index )

  00044	0f bf 8f d4 02
	00 00		 movsx	 ecx, WORD PTR [edi+724]
  0004b	c7 45 94 00 00
	00 00		 mov	 DWORD PTR _hour$155096[ebp], 0
  00052	c7 45 90 00 00
	00 00		 mov	 DWORD PTR _min$155097[ebp], 0
  00059	3b 0e		 cmp	 ecx, DWORD PTR [esi]
  0005b	74 64		 je	 SHORT $LN9@NpcFasi

; 320  : 		{
; 321  : 			if ( gObjGetPkTime(lpObj, hour, min) == TRUE )

  0005d	8d 55 90	 lea	 edx, DWORD PTR _min$155097[ebp]
  00060	52		 push	 edx
  00061	8d 45 94	 lea	 eax, DWORD PTR _hour$155096[ebp]
  00064	50		 push	 eax
  00065	56		 push	 esi
  00066	e8 00 00 00 00	 call	 ?gObjGetPkTime@@YAHPAUOBJECTSTRUCT@@AAH1@Z ; gObjGetPkTime
  0006b	83 c4 0c	 add	 esp, 12			; 0000000cH
  0006e	83 f8 01	 cmp	 eax, 1
  00071	75 3c		 jne	 SHORT $LN6@NpcFasi

; 322  : 			{
; 323  : 				char szTemp[100];
; 324  : 
; 325  : 				wsprintf(szTemp, lMsg.Get(MSGGET(4, 79)), hour, min);

  00073	8b 4d 90	 mov	 ecx, DWORD PTR _min$155097[ebp]
  00076	8b 55 94	 mov	 edx, DWORD PTR _hour$155096[ebp]
  00079	51		 push	 ecx
  0007a	52		 push	 edx
  0007b	68 4f 04 00 00	 push	 1103			; 0000044fH
  00080	b9 00 00 00 00	 mov	 ecx, OFFSET ?lMsg@@3VCMsg@@A ; lMsg
  00085	e8 00 00 00 00	 call	 ?Get@CMsg@@QAEPADH@Z	; CMsg::Get
  0008a	50		 push	 eax
  0008b	8d 45 98	 lea	 eax, DWORD PTR _szTemp$155100[ebp]
  0008e	50		 push	 eax
  0008f	ff 15 00 00 00
	00		 call	 DWORD PTR __imp__wsprintfA

; 326  : 
; 327  : 				ChatTargetSend(lpNpc, szTemp, lpObj->m_Index);

  00095	8b 0e		 mov	 ecx, DWORD PTR [esi]
  00097	51		 push	 ecx
  00098	8d 55 98	 lea	 edx, DWORD PTR _szTemp$155100[ebp]
  0009b	52		 push	 edx
  0009c	57		 push	 edi
  0009d	e8 00 00 00 00	 call	 ?ChatTargetSend@@YAXPAUOBJECTSTRUCT@@PADH@Z ; ChatTargetSend

; 328  : 
; 329  : 				lpNpc->TargetNumber = lpObj->m_Index;

  000a2	66 8b 06	 mov	 ax, WORD PTR [esi]
  000a5	83 c4 1c	 add	 esp, 28			; 0000001cH
  000a8	66 89 87 d4 02
	00 00		 mov	 WORD PTR [edi+724], ax
$LN6@NpcFasi:

; 354  : 			}
; 355  : 
; 356  : 			lpNpc->TargetNumber = 0;	// Apply Deathway Fix, change 0 to -1;
; 357  : 			return TRUE;
; 358  : 		}
; 359  : 	}
; 360  : 
; 361  : 	return FALSE;

  000af	5f		 pop	 edi
  000b0	33 c0		 xor	 eax, eax
  000b2	5e		 pop	 esi

; 362  : }

  000b3	8b 4d fc	 mov	 ecx, DWORD PTR __$ArrayPad$[ebp]
  000b6	33 cd		 xor	 ecx, ebp
  000b8	e8 00 00 00 00	 call	 @__security_check_cookie@4
  000bd	8b e5		 mov	 esp, ebp
  000bf	5d		 pop	 ebp
  000c0	c3		 ret	 0
$LN9@NpcFasi:

; 330  : 
; 331  : 				/*if ( gPkLimitFree == FALSE )
; 332  : 				{
; 333  : 					return TRUE;
; 334  : 				}*/
; 335  : 			}
; 336  : 		}
; 337  : 		else if ( gPkLimitFree == FALSE )

  000c1	83 3d 00 00 00
	00 00		 cmp	 DWORD PTR ?gPkLimitFree@@3HA, 0 ; gPkLimitFree
  000c8	75 e5		 jne	 SHORT $LN6@NpcFasi

; 338  : 		{
; 339  : 			int numbertext = rand() % 3;

  000ca	e8 00 00 00 00	 call	 _rand
  000cf	99		 cdq
  000d0	b9 03 00 00 00	 mov	 ecx, 3
  000d5	f7 f9		 idiv	 ecx

; 340  : 
; 341  : 			switch ( numbertext )

  000d7	83 ea 00	 sub	 edx, 0
  000da	74 1a		 je	 SHORT $LN3@NpcFasi
  000dc	4a		 dec	 edx
  000dd	74 0d		 je	 SHORT $LN2@NpcFasi
  000df	4a		 dec	 edx
  000e0	75 30		 jne	 SHORT $LN4@NpcFasi

; 350  : 
; 351  : 				case 2:
; 352  : 					ChatTargetSend(lpNpc, lMsg.Get(MSGGET(4, 100)), lpObj->m_Index);

  000e2	8b 16		 mov	 edx, DWORD PTR [esi]
  000e4	52		 push	 edx
  000e5	68 64 04 00 00	 push	 1124			; 00000464H

; 353  : 					break;

  000ea	eb 12		 jmp	 SHORT $LN15@NpcFasi
$LN2@NpcFasi:

; 345  : 					break;
; 346  : 
; 347  : 				case 1:
; 348  : 					ChatTargetSend(lpNpc, lMsg.Get(MSGGET(4, 99)), lpObj->m_Index);

  000ec	8b 06		 mov	 eax, DWORD PTR [esi]
  000ee	50		 push	 eax
  000ef	68 63 04 00 00	 push	 1123			; 00000463H

; 349  : 					break;

  000f4	eb 08		 jmp	 SHORT $LN15@NpcFasi
$LN3@NpcFasi:

; 342  : 			{
; 343  : 				case 0:
; 344  : 					ChatTargetSend(lpNpc, lMsg.Get(MSGGET(4, 98)), lpObj->m_Index);

  000f6	8b 0e		 mov	 ecx, DWORD PTR [esi]
  000f8	51		 push	 ecx
  000f9	68 62 04 00 00	 push	 1122			; 00000462H
$LN15@NpcFasi:
  000fe	b9 00 00 00 00	 mov	 ecx, OFFSET ?lMsg@@3VCMsg@@A ; lMsg
  00103	e8 00 00 00 00	 call	 ?Get@CMsg@@QAEPADH@Z	; CMsg::Get
  00108	50		 push	 eax
  00109	57		 push	 edi
  0010a	e8 00 00 00 00	 call	 ?ChatTargetSend@@YAXPAUOBJECTSTRUCT@@PADH@Z ; ChatTargetSend
  0010f	83 c4 0c	 add	 esp, 12			; 0000000cH
$LN4@NpcFasi:

; 362  : }

  00112	8b 4d fc	 mov	 ecx, DWORD PTR __$ArrayPad$[ebp]
  00115	33 d2		 xor	 edx, edx
  00117	66 89 97 d4 02
	00 00		 mov	 WORD PTR [edi+724], dx
  0011e	5f		 pop	 edi
  0011f	33 cd		 xor	 ecx, ebp
  00121	8d 42 01	 lea	 eax, DWORD PTR [edx+1]
  00124	5e		 pop	 esi
  00125	e8 00 00 00 00	 call	 @__security_check_cookie@4
  0012a	8b e5		 mov	 esp, ebp
  0012c	5d		 pop	 ebp
  0012d	c3		 ret	 0
?NpcFasi@@YAHPAUOBJECTSTRUCT@@0@Z ENDP			; NpcFasi
_TEXT	ENDS
PUBLIC	??_C@_0CN@BIAKPPND@?$LM?$KN?$LJ?v?$LK?P?G?R?5?$LB?b?$LA?$KD?$LP?$KB?$LE?B?5?$LB?f?$LF?e?$LI?$KG?5?$LL?$PN?$LM?$LK?G?R?$LM@ ; `string'
PUBLIC	?NpcGuildMasterTalk@@YAHPAUOBJECTSTRUCT@@0@Z	; NpcGuildMasterTalk
EXTRN	?GCGuildMasterQuestionSend@@YAXH@Z:PROC		; GCGuildMasterQuestionSend
EXTRN	?gObjGuildMasterCapacityTest@@YAHPAUOBJECTSTRUCT@@@Z:PROC ; gObjGuildMasterCapacityTest
EXTRN	?gGuildCreate@@3HA:DWORD			; gGuildCreate
;	COMDAT ??_C@_0CN@BIAKPPND@?$LM?$KN?$LJ?v?$LK?P?G?R?5?$LB?b?$LA?$KD?$LP?$KB?$LE?B?5?$LB?f?$LF?e?$LI?$KG?5?$LL?$PN?$LM?$LK?G?R?$LM@
CONST	SEGMENT
??_C@_0CN@BIAKPPND@?$LM?$KN?$LJ?v?$LK?P?G?R?5?$LB?b?$LA?$KD?$LP?$KB?$LE?B?5?$LB?f?$LF?e?$LI?$KG?5?$LL?$PN?$LM?$LK?G?R?$LM@ DB 0bcH
	DB	0adH, 0b9H, 0f6H, 0baH, 0d0H, 0c7H, 0d2H, ' ', 0b1H, 0e2H, 0b0H
	DB	0a3H, 0bfH, 0a1H, 0b4H, 0c2H, ' ', 0b1H, 0e6H, 0b5H, 0e5H, 0b8H
	DB	0a6H, ' ', 0bbH, 0fdH, 0bcH, 0baH, 0c7H, 0d2H, 0bcH, 0f6H, 0b0H
	DB	0a1H, ' ', 0beH, 0f8H, 0bdH, 0c0H, 0b4H, 0cfH, 0b4H, 0d9H, 00H ; `string'
; Function compile flags: /Ogtp
CONST	ENDS
;	COMDAT ?NpcGuildMasterTalk@@YAHPAUOBJECTSTRUCT@@0@Z
_TEXT	SEGMENT
_lpNpc$ = 8						; size = 4
_lpObj$ = 12						; size = 4
?NpcGuildMasterTalk@@YAHPAUOBJECTSTRUCT@@0@Z PROC	; NpcGuildMasterTalk, COMDAT

; 368  : {

  00000	55		 push	 ebp
  00001	8b ec		 mov	 ebp, esp

; 369  : 	if ( gGuildCreate == FALSE )

  00003	83 3d 00 00 00
	00 00		 cmp	 DWORD PTR ?gGuildCreate@@3HA, 0 ; gGuildCreate
  0000a	75 1e		 jne	 SHORT $LN6@NpcGuildMa

; 370  : 	{
; 371  : 		ChatTargetSend(lpNpc, "서버분할 기간에는 길드를 생성할수가 없습니다", lpObj->m_Index);

  0000c	8b 45 0c	 mov	 eax, DWORD PTR _lpObj$[ebp]
  0000f	8b 08		 mov	 ecx, DWORD PTR [eax]
  00011	8b 55 08	 mov	 edx, DWORD PTR _lpNpc$[ebp]
  00014	51		 push	 ecx
  00015	68 00 00 00 00	 push	 OFFSET ??_C@_0CN@BIAKPPND@?$LM?$KN?$LJ?v?$LK?P?G?R?5?$LB?b?$LA?$KD?$LP?$KB?$LE?B?5?$LB?f?$LF?e?$LI?$KG?5?$LL?$PN?$LM?$LK?G?R?$LM@
  0001a	52		 push	 edx
  0001b	e8 00 00 00 00	 call	 ?ChatTargetSend@@YAXPAUOBJECTSTRUCT@@PADH@Z ; ChatTargetSend
  00020	83 c4 0c	 add	 esp, 12			; 0000000cH

; 394  : 	}
; 395  : 
; 396  : 	return TRUE;

  00023	b8 01 00 00 00	 mov	 eax, 1

; 397  : }

  00028	5d		 pop	 ebp
  00029	c3		 ret	 0
$LN6@NpcGuildMa:
  0002a	56		 push	 esi

; 372  : 		return TRUE;
; 373  : 	}
; 374  : 
; 375  : 	if ( lpObj->GuildNumber > 0 )

  0002b	8b 75 0c	 mov	 esi, DWORD PTR _lpObj$[ebp]
  0002e	83 be b0 02 00
	00 00		 cmp	 DWORD PTR [esi+688], 0
  00035	7e 27		 jle	 SHORT $LN5@NpcGuildMa

; 376  : 	{
; 377  : 		ChatTargetSend(lpNpc, lMsg.Get(MSGGET(4, 116)), lpObj->m_Index);

  00037	8b 06		 mov	 eax, DWORD PTR [esi]
  00039	50		 push	 eax
  0003a	68 74 04 00 00	 push	 1140			; 00000474H
  0003f	b9 00 00 00 00	 mov	 ecx, OFFSET ?lMsg@@3VCMsg@@A ; lMsg
  00044	e8 00 00 00 00	 call	 ?Get@CMsg@@QAEPADH@Z	; CMsg::Get
  00049	8b 4d 08	 mov	 ecx, DWORD PTR _lpNpc$[ebp]
  0004c	50		 push	 eax
  0004d	51		 push	 ecx
  0004e	e8 00 00 00 00	 call	 ?ChatTargetSend@@YAXPAUOBJECTSTRUCT@@PADH@Z ; ChatTargetSend
  00053	83 c4 0c	 add	 esp, 12			; 0000000cH
  00056	5e		 pop	 esi

; 394  : 	}
; 395  : 
; 396  : 	return TRUE;

  00057	b8 01 00 00 00	 mov	 eax, 1

; 397  : }

  0005c	5d		 pop	 ebp
  0005d	c3		 ret	 0
$LN5@NpcGuildMa:

; 378  : 		return TRUE;
; 379  : 	}
; 380  : 
; 381  : 	int capacity = gObjGuildMasterCapacityTest(lpObj);

  0005e	56		 push	 esi
  0005f	e8 00 00 00 00	 call	 ?gObjGuildMasterCapacityTest@@YAHPAUOBJECTSTRUCT@@@Z ; gObjGuildMasterCapacityTest
  00064	83 c4 04	 add	 esp, 4

; 382  : 
; 383  : 	if ( capacity == 0 )

  00067	85 c0		 test	 eax, eax
  00069	75 27		 jne	 SHORT $LN4@NpcGuildMa

; 384  : 	{
; 385  : 		ChatTargetSend(lpNpc, lMsg.Get(MSGGET(4, 117)), lpObj->m_Index);

  0006b	8b 16		 mov	 edx, DWORD PTR [esi]
  0006d	52		 push	 edx
  0006e	68 75 04 00 00	 push	 1141			; 00000475H
  00073	b9 00 00 00 00	 mov	 ecx, OFFSET ?lMsg@@3VCMsg@@A ; lMsg
  00078	e8 00 00 00 00	 call	 ?Get@CMsg@@QAEPADH@Z	; CMsg::Get
  0007d	50		 push	 eax
  0007e	8b 45 08	 mov	 eax, DWORD PTR _lpNpc$[ebp]
  00081	50		 push	 eax
  00082	e8 00 00 00 00	 call	 ?ChatTargetSend@@YAXPAUOBJECTSTRUCT@@PADH@Z ; ChatTargetSend
  00087	83 c4 0c	 add	 esp, 12			; 0000000cH
  0008a	5e		 pop	 esi

; 394  : 	}
; 395  : 
; 396  : 	return TRUE;

  0008b	b8 01 00 00 00	 mov	 eax, 1

; 397  : }

  00090	5d		 pop	 ebp
  00091	c3		 ret	 0
$LN4@NpcGuildMa:

; 386  : 	}
; 387  : 	else if ( capacity == 2 )

  00092	83 f8 02	 cmp	 eax, 2
  00095	75 27		 jne	 SHORT $LN2@NpcGuildMa

; 388  : 	{
; 389  : 		ChatTargetSend(lpNpc, lMsg.Get(MSGGET(4, 118)), lpObj->m_Index);

  00097	8b 0e		 mov	 ecx, DWORD PTR [esi]
  00099	51		 push	 ecx
  0009a	68 76 04 00 00	 push	 1142			; 00000476H
  0009f	b9 00 00 00 00	 mov	 ecx, OFFSET ?lMsg@@3VCMsg@@A ; lMsg
  000a4	e8 00 00 00 00	 call	 ?Get@CMsg@@QAEPADH@Z	; CMsg::Get
  000a9	8b 55 08	 mov	 edx, DWORD PTR _lpNpc$[ebp]
  000ac	50		 push	 eax
  000ad	52		 push	 edx
  000ae	e8 00 00 00 00	 call	 ?ChatTargetSend@@YAXPAUOBJECTSTRUCT@@PADH@Z ; ChatTargetSend
  000b3	83 c4 0c	 add	 esp, 12			; 0000000cH
  000b6	5e		 pop	 esi

; 394  : 	}
; 395  : 
; 396  : 	return TRUE;

  000b7	b8 01 00 00 00	 mov	 eax, 1

; 397  : }

  000bc	5d		 pop	 ebp
  000bd	c3		 ret	 0
$LN2@NpcGuildMa:

; 390  : 	}
; 391  : 	else
; 392  : 	{
; 393  : 		GCGuildMasterQuestionSend(lpObj->m_Index);

  000be	8b 06		 mov	 eax, DWORD PTR [esi]
  000c0	50		 push	 eax
  000c1	e8 00 00 00 00	 call	 ?GCGuildMasterQuestionSend@@YAXH@Z ; GCGuildMasterQuestionSend
  000c6	83 c4 04	 add	 esp, 4
  000c9	5e		 pop	 esi

; 394  : 	}
; 395  : 
; 396  : 	return TRUE;

  000ca	b8 01 00 00 00	 mov	 eax, 1

; 397  : }

  000cf	5d		 pop	 ebp
  000d0	c3		 ret	 0
?NpcGuildMasterTalk@@YAHPAUOBJECTSTRUCT@@0@Z ENDP	; NpcGuildMasterTalk
_TEXT	ENDS
PUBLIC	?NpcRolensiaGuard@@YAHPAUOBJECTSTRUCT@@0@Z	; NpcRolensiaGuard
EXTRN	?gEnableEventNPCTalk@@3HA:DWORD			; gEnableEventNPCTalk
; Function compile flags: /Ogtp
;	COMDAT ?NpcRolensiaGuard@@YAHPAUOBJECTSTRUCT@@0@Z
_TEXT	SEGMENT
_lpNpc$ = 8						; size = 4
_lpObj$ = 12						; size = 4
?NpcRolensiaGuard@@YAHPAUOBJECTSTRUCT@@0@Z PROC		; NpcRolensiaGuard, COMDAT

; 403  : {

  00000	55		 push	 ebp
  00001	8b ec		 mov	 ebp, esp

; 404  : 	if ( gLanguage != 0 )

  00003	83 3d 00 00 00
	00 00		 cmp	 DWORD PTR ?gLanguage@@3HA, 0 ; gLanguage
  0000a	75 1d		 jne	 SHORT $LN7@NpcRolensi

; 405  : 	{
; 406  : 	
; 407  : 	}
; 408  : 	else if ( gEnableEventNPCTalk != FALSE )

  0000c	83 3d 00 00 00
	00 00		 cmp	 DWORD PTR ?gEnableEventNPCTalk@@3HA, 0 ; gEnableEventNPCTalk
  00013	74 14		 je	 SHORT $LN7@NpcRolensi

; 409  : 	{
; 410  : 		GCServerCmd(lpObj->m_Index, 4, 0, 0);

  00015	8b 45 0c	 mov	 eax, DWORD PTR _lpObj$[ebp]
  00018	8b 08		 mov	 ecx, DWORD PTR [eax]
  0001a	6a 00		 push	 0
  0001c	6a 00		 push	 0
  0001e	6a 04		 push	 4
  00020	51		 push	 ecx
  00021	e8 00 00 00 00	 call	 ?GCServerCmd@@YAXHEEE@Z	; GCServerCmd
  00026	83 c4 10	 add	 esp, 16			; 00000010H
$LN7@NpcRolensi:

; 411  : 	}
; 412  : 
; 413  : 	return TRUE;

  00029	b8 01 00 00 00	 mov	 eax, 1

; 414  : }

  0002e	5d		 pop	 ebp
  0002f	c3		 ret	 0
?NpcRolensiaGuard@@YAHPAUOBJECTSTRUCT@@0@Z ENDP		; NpcRolensiaGuard
_TEXT	ENDS
PUBLIC	?NpcChaosGoblelin@@YAHPAUOBJECTSTRUCT@@0@Z	; NpcChaosGoblelin
EXTRN	?gUserFindDevilSquareKeyEyes@@YAHH@Z:PROC	; gUserFindDevilSquareKeyEyes
; Function compile flags: /Ogtp
;	COMDAT ?NpcChaosGoblelin@@YAHPAUOBJECTSTRUCT@@0@Z
_TEXT	SEGMENT
_lpNpc$ = 8						; size = 4
_lpObj$ = 12						; size = 4
?NpcChaosGoblelin@@YAHPAUOBJECTSTRUCT@@0@Z PROC		; NpcChaosGoblelin, COMDAT

; 421  : {

  00000	55		 push	 ebp
  00001	8b ec		 mov	 ebp, esp

; 422  : 	gUserFindDevilSquareKeyEyes(lpObj->m_Index);

  00003	8b 45 0c	 mov	 eax, DWORD PTR _lpObj$[ebp]
  00006	8b 08		 mov	 ecx, DWORD PTR [eax]
  00008	51		 push	 ecx
  00009	e8 00 00 00 00	 call	 ?gUserFindDevilSquareKeyEyes@@YAHH@Z ; gUserFindDevilSquareKeyEyes
  0000e	83 c4 04	 add	 esp, 4

; 423  : 
; 424  : 	return FALSE;

  00011	33 c0		 xor	 eax, eax

; 425  : }

  00013	5d		 pop	 ebp
  00014	c3		 ret	 0
?NpcChaosGoblelin@@YAHPAUOBJECTSTRUCT@@0@Z ENDP		; NpcChaosGoblelin
_TEXT	ENDS
PUBLIC	??_C@_0CL@KMBDNKMH@?$FLJewelMix?$FN?5?$FL?$CFs?$FN?$FL?$CFs?$FN?5Jewel?5Mix?5De@ ; `string'
PUBLIC	??_C@_0DD@KJEEOOOJ@?$FL?$CFs?$FN?$FL?$CFs?$FN?5is?5Already?5Opening?5PSho@ ; `string'
PUBLIC	__$ArrayPad$
PUBLIC	?NpcChaosCardMaster@@YAHPAUOBJECTSTRUCT@@0@Z	; NpcChaosCardMaster
EXTRN	?gObjWarehouseTextSave@@YAXPAUOBJECTSTRUCT@@@Z:PROC ; gObjWarehouseTextSave
EXTRN	?gObjItemTextSave@@YAXPAUOBJECTSTRUCT@@@Z:PROC	; gObjItemTextSave
EXTRN	?DataSend@@YAHHPAEK@Z:PROC			; DataSend
EXTRN	?GCServerMsgStringSend@@YAXPADHE@Z:PROC		; GCServerMsgStringSend
EXTRN	?LogAdd@@YAXW4eLogColor@@PADZZ:PROC		; LogAdd
EXTRN	?bCanChaosBox@@3HA:DWORD			; bCanChaosBox
;	COMDAT ??_C@_0CL@KMBDNKMH@?$FLJewelMix?$FN?5?$FL?$CFs?$FN?$FL?$CFs?$FN?5Jewel?5Mix?5De@
CONST	SEGMENT
??_C@_0CL@KMBDNKMH@?$FLJewelMix?$FN?5?$FL?$CFs?$FN?$FL?$CFs?$FN?5Jewel?5Mix?5De@ DB '['
	DB	'JewelMix] [%s][%s] Jewel Mix Dealer Start', 00H ; `string'
CONST	ENDS
;	COMDAT ??_C@_0DD@KJEEOOOJ@?$FL?$CFs?$FN?$FL?$CFs?$FN?5is?5Already?5Opening?5PSho@
CONST	SEGMENT
??_C@_0DD@KJEEOOOJ@?$FL?$CFs?$FN?$FL?$CFs?$FN?5is?5Already?5Opening?5PSho@ DB '['
	DB	'%s][%s] is Already Opening PShop, ChaosBox Failed', 00H ; `string'
; Function compile flags: /Ogtp
CONST	ENDS
;	COMDAT ?NpcChaosCardMaster@@YAHPAUOBJECTSTRUCT@@0@Z
_TEXT	SEGMENT
_pMsg$155144 = -16					; size = 10
__$ArrayPad$ = -4					; size = 4
_lpNpc$ = 8						; size = 4
_lpObj$ = 12						; size = 4
?NpcChaosCardMaster@@YAHPAUOBJECTSTRUCT@@0@Z PROC	; NpcChaosCardMaster, COMDAT

; 433  : {

  00000	55		 push	 ebp
  00001	8b ec		 mov	 ebp, esp
  00003	83 ec 10	 sub	 esp, 16			; 00000010H
  00006	a1 00 00 00 00	 mov	 eax, DWORD PTR ___security_cookie
  0000b	33 c5		 xor	 eax, ebp
  0000d	89 45 fc	 mov	 DWORD PTR __$ArrayPad$[ebp], eax

; 434  : 	if ( g_bUseLotterySystem == FALSE )

  00010	83 3d 00 00 00
	00 00		 cmp	 DWORD PTR ?g_bUseLotterySystem@@3HA, 0 ; g_bUseLotterySystem
  00017	56		 push	 esi
  00018	8b 75 0c	 mov	 esi, DWORD PTR _lpObj$[ebp]
  0001b	75 11		 jne	 SHORT $LN4@NpcChaosCa
$LN7@NpcChaosCa:

; 435  : 		return FALSE;

  0001d	33 c0		 xor	 eax, eax
  0001f	5e		 pop	 esi

; 471  : }

  00020	8b 4d fc	 mov	 ecx, DWORD PTR __$ArrayPad$[ebp]
  00023	33 cd		 xor	 ecx, ebp
  00025	e8 00 00 00 00	 call	 @__security_check_cookie@4
  0002a	8b e5		 mov	 esp, ebp
  0002c	5d		 pop	 ebp
  0002d	c3		 ret	 0
$LN4@NpcChaosCa:

; 436  : 
; 437  : 	if ( bCanChaosBox == TRUE )

  0002e	83 3d 00 00 00
	00 01		 cmp	 DWORD PTR ?bCanChaosBox@@3HA, 1 ; bCanChaosBox
  00035	0f 85 b1 00 00
	00		 jne	 $LN3@NpcChaosCa

; 438  : 	{
; 439  : 		if ( lpObj->m_IfState.use > 0 )

  0003b	f6 86 84 0c 00
	00 03		 test	 BYTE PTR [esi+3204], 3

; 440  : 			return FALSE;

  00042	77 d9		 ja	 SHORT $LN7@NpcChaosCa

; 441  : 
; 442  : 		if ( lpObj->m_bPShopOpen == true )

  00044	80 be 28 0d 00
	00 01		 cmp	 BYTE PTR [esi+3368], 1
  0004b	75 48		 jne	 SHORT $LN1@NpcChaosCa

; 443  : 		{
; 444  : 			LogAdd(LOG_BLACK, "[%s][%s] is Already Opening PShop, ChaosBox Failed",
; 445  : 				lpObj->AccountID, lpObj->Name);

  0004d	8d 46 6f	 lea	 eax, DWORD PTR [esi+111]
  00050	50		 push	 eax
  00051	8d 4e 64	 lea	 ecx, DWORD PTR [esi+100]
  00054	51		 push	 ecx
  00055	68 00 00 00 00	 push	 OFFSET ??_C@_0DD@KJEEOOOJ@?$FL?$CFs?$FN?$FL?$CFs?$FN?5is?5Already?5Opening?5PSho@
  0005a	6a 00		 push	 0
  0005c	e8 00 00 00 00	 call	 ?LogAdd@@YAXW4eLogColor@@PADZZ ; LogAdd

; 446  : 
; 447  : 			GCServerMsgStringSend(lMsg.Get(MSGGET(4,194)), lpObj->m_Index, 1);

  00061	8b 16		 mov	 edx, DWORD PTR [esi]
  00063	83 c4 10	 add	 esp, 16			; 00000010H
  00066	6a 01		 push	 1
  00068	52		 push	 edx
  00069	68 c2 04 00 00	 push	 1218			; 000004c2H
  0006e	b9 00 00 00 00	 mov	 ecx, OFFSET ?lMsg@@3VCMsg@@A ; lMsg
  00073	e8 00 00 00 00	 call	 ?Get@CMsg@@QAEPADH@Z	; CMsg::Get
  00078	50		 push	 eax
  00079	e8 00 00 00 00	 call	 ?GCServerMsgStringSend@@YAXPADHE@Z ; GCServerMsgStringSend
  0007e	83 c4 0c	 add	 esp, 12			; 0000000cH

; 468  : 	}
; 469  : 
; 470  : 	return TRUE;

  00081	b8 01 00 00 00	 mov	 eax, 1
  00086	5e		 pop	 esi

; 471  : }

  00087	8b 4d fc	 mov	 ecx, DWORD PTR __$ArrayPad$[ebp]
  0008a	33 cd		 xor	 ecx, ebp
  0008c	e8 00 00 00 00	 call	 @__security_check_cookie@4
  00091	8b e5		 mov	 esp, ebp
  00093	5d		 pop	 ebp
  00094	c3		 ret	 0
$LN1@NpcChaosCa:

; 448  : 			return TRUE;
; 449  : 		}
; 450  : 
; 451  : 		PMSG_TALKRESULT pMsg;
; 452  : 
; 453  : 		pMsg.h.c = 0xC3;
; 454  : 		pMsg.h.headcode = 0x30;
; 455  : 		pMsg.h.size = sizeof(pMsg);
; 456  : 		pMsg.result = 0x15;
; 457  : 
; 458  : 		DataSend(lpObj->m_Index, (LPBYTE)&pMsg, pMsg.h.size);

  00095	8b 0e		 mov	 ecx, DWORD PTR [esi]
  00097	6a 0a		 push	 10			; 0000000aH
  00099	8d 45 f0	 lea	 eax, DWORD PTR _pMsg$155144[ebp]
  0009c	50		 push	 eax
  0009d	51		 push	 ecx
  0009e	c6 45 f0 c3	 mov	 BYTE PTR _pMsg$155144[ebp], 195 ; 000000c3H
  000a2	66 c7 45 f1 0a
	30		 mov	 WORD PTR _pMsg$155144[ebp+1], 12298 ; 0000300aH
  000a8	c6 45 f3 15	 mov	 BYTE PTR _pMsg$155144[ebp+3], 21 ; 00000015H
  000ac	e8 00 00 00 00	 call	 ?DataSend@@YAHHPAEK@Z	; DataSend

; 459  : 
; 460  : 		lpObj->m_IfState.use = 1;
; 461  : 		lpObj->m_IfState.type = 7;

  000b1	8b 96 84 0c 00
	00		 mov	 edx, DWORD PTR [esi+3204]

; 462  : 
; 463  : 		LogAdd(LOG_BLACK, "[JewelMix] [%s][%s] Jewel Mix Dealer Start",
; 464  : 			lpObj->AccountID, lpObj->Name);

  000b7	8d 46 6f	 lea	 eax, DWORD PTR [esi+111]
  000ba	50		 push	 eax
  000bb	8d 4e 64	 lea	 ecx, DWORD PTR [esi+100]
  000be	51		 push	 ecx
  000bf	81 e2 fd 01 ff
	ff		 and	 edx, -65027		; ffff01fdH
  000c5	81 ca c1 01 00
	00		 or	 edx, 449		; 000001c1H
  000cb	68 00 00 00 00	 push	 OFFSET ??_C@_0CL@KMBDNKMH@?$FLJewelMix?$FN?5?$FL?$CFs?$FN?$FL?$CFs?$FN?5Jewel?5Mix?5De@
  000d0	6a 00		 push	 0
  000d2	89 96 84 0c 00
	00		 mov	 DWORD PTR [esi+3204], edx
  000d8	e8 00 00 00 00	 call	 ?LogAdd@@YAXW4eLogColor@@PADZZ ; LogAdd

; 465  : 
; 466  : 		gObjItemTextSave(lpObj);

  000dd	56		 push	 esi
  000de	e8 00 00 00 00	 call	 ?gObjItemTextSave@@YAXPAUOBJECTSTRUCT@@@Z ; gObjItemTextSave

; 467  : 		gObjWarehouseTextSave(lpObj);

  000e3	56		 push	 esi
  000e4	e8 00 00 00 00	 call	 ?gObjWarehouseTextSave@@YAXPAUOBJECTSTRUCT@@@Z ; gObjWarehouseTextSave
  000e9	83 c4 24	 add	 esp, 36			; 00000024H
$LN3@NpcChaosCa:

; 471  : }

  000ec	8b 4d fc	 mov	 ecx, DWORD PTR __$ArrayPad$[ebp]
  000ef	33 cd		 xor	 ecx, ebp
  000f1	b8 01 00 00 00	 mov	 eax, 1
  000f6	5e		 pop	 esi
  000f7	e8 00 00 00 00	 call	 @__security_check_cookie@4
  000fc	8b e5		 mov	 esp, ebp
  000fe	5d		 pop	 ebp
  000ff	c3		 ret	 0
?NpcChaosCardMaster@@YAHPAUOBJECTSTRUCT@@0@Z ENDP	; NpcChaosCardMaster
_TEXT	ENDS
PUBLIC	__$ArrayPad$
PUBLIC	?NpcRusipher@@YAHPAUOBJECTSTRUCT@@0@Z		; NpcRusipher
EXTRN	?g_DevilSquare@@3VCDevilSquare@@A:BYTE		; g_DevilSquare
EXTRN	?gUserFindDevilSquareInvitation@@YAHH@Z:PROC	; gUserFindDevilSquareInvitation
; Function compile flags: /Ogtp
;	COMDAT ?NpcRusipher@@YAHPAUOBJECTSTRUCT@@0@Z
_TEXT	SEGMENT
_pMsg$155157 = -16					; size = 10
__$ArrayPad$ = -4					; size = 4
_lpNpc$ = 8						; size = 4
_lpObj$ = 12						; size = 4
?NpcRusipher@@YAHPAUOBJECTSTRUCT@@0@Z PROC		; NpcRusipher, COMDAT

; 477  : {

  00000	55		 push	 ebp
  00001	8b ec		 mov	 ebp, esp
  00003	83 ec 10	 sub	 esp, 16			; 00000010H
  00006	a1 00 00 00 00	 mov	 eax, DWORD PTR ___security_cookie
  0000b	33 c5		 xor	 eax, ebp
  0000d	89 45 fc	 mov	 DWORD PTR __$ArrayPad$[ebp], eax

; 478  : 	if ( gDevilSquareEvent == FALSE )

  00010	83 3d 00 00 00
	00 00		 cmp	 DWORD PTR ?gDevilSquareEvent@@3HA, 0 ; gDevilSquareEvent
  00017	56		 push	 esi
  00018	8b 75 0c	 mov	 esi, DWORD PTR _lpObj$[ebp]

; 479  : 	{
; 480  : 		return TRUE;

  0001b	74 70		 je	 SHORT $LN13@NpcRusiphe

; 481  : 	}
; 482  : 
; 483  : 
; 484  : 	int aIndex = lpObj->m_Index;
; 485  : 
; 486  : 	if ( (lpObj->m_IfState.use ) > 0 )

  0001d	f6 86 84 0c 00
	00 03		 test	 BYTE PTR [esi+3204], 3
  00024	57		 push	 edi
  00025	8b 3e		 mov	 edi, DWORD PTR [esi]

; 487  : 	{
; 488  : 		return TRUE;

  00027	77 63		 ja	 SHORT $LN1@NpcRusiphe

; 489  : 	}
; 490  : 
; 491  : 	if ( gUserFindDevilSquareInvitation(aIndex) == FALSE )

  00029	57		 push	 edi
  0002a	e8 00 00 00 00	 call	 ?gUserFindDevilSquareInvitation@@YAHH@Z ; gUserFindDevilSquareInvitation
  0002f	83 c4 04	 add	 esp, 4
  00032	85 c0		 test	 eax, eax
  00034	75 05		 jne	 SHORT $LN4@NpcRusiphe

; 492  : 	{
; 493  : 		GCServerCmd(lpObj->m_Index, 1, 2 ,0);

  00036	50		 push	 eax
  00037	6a 02		 push	 2
  00039	eb 44		 jmp	 SHORT $LN12@NpcRusiphe
$LN4@NpcRusiphe:

; 494  : 	}
; 495  : 	else if ( g_DevilSquare.GetState() == 1 )

  0003b	83 3d 04 00 00
	00 01		 cmp	 DWORD PTR ?g_DevilSquare@@3VCDevilSquare@@A+4, 1
  00042	75 37		 jne	 SHORT $LN2@NpcRusiphe

; 496  : 	{
; 497  : 		PMSG_TALKRESULT pMsg;
; 498  : 
; 499  : 		pMsg.h.c = 0xC3;
; 500  : 		pMsg.h.headcode = 0x30;
; 501  : 		pMsg.h.size = sizeof(pMsg);
; 502  : 		pMsg.result = 0x04;
; 503  : 
; 504  : 		DataSend(aIndex, (LPBYTE)&pMsg, pMsg.h.size);

  00044	6a 0a		 push	 10			; 0000000aH
  00046	8d 4d f0	 lea	 ecx, DWORD PTR _pMsg$155157[ebp]
  00049	51		 push	 ecx
  0004a	57		 push	 edi
  0004b	c6 45 f0 c3	 mov	 BYTE PTR _pMsg$155157[ebp], 195 ; 000000c3H
  0004f	66 c7 45 f1 0a
	30		 mov	 WORD PTR _pMsg$155157[ebp+1], 12298 ; 0000300aH
  00055	c6 45 f3 04	 mov	 BYTE PTR _pMsg$155157[ebp+3], 4
  00059	e8 00 00 00 00	 call	 ?DataSend@@YAHHPAEK@Z	; DataSend

; 505  : 
; 506  : 		lpObj->m_IfState.use = 1;
; 507  : 		lpObj->m_IfState.type = 12;

  0005e	8b 96 84 0c 00
	00		 mov	 edx, DWORD PTR [esi+3204]
  00064	81 e2 3d 03 ff
	ff		 and	 edx, -64707		; ffff033dH
  0006a	83 c4 0c	 add	 esp, 12			; 0000000cH
  0006d	81 ca 01 03 00
	00		 or	 edx, 769		; 00000301H
  00073	89 96 84 0c 00
	00		 mov	 DWORD PTR [esi+3204], edx

; 508  : 	}
; 509  : 	else

  00079	eb 11		 jmp	 SHORT $LN1@NpcRusiphe
$LN2@NpcRusiphe:

; 510  : 	{
; 511  : 		GCServerCmd(lpObj->m_Index, 1, 3, 0);

  0007b	6a 00		 push	 0
  0007d	6a 03		 push	 3
$LN12@NpcRusiphe:
  0007f	8b 06		 mov	 eax, DWORD PTR [esi]
  00081	6a 01		 push	 1
  00083	50		 push	 eax
  00084	e8 00 00 00 00	 call	 ?GCServerCmd@@YAXHEEE@Z	; GCServerCmd
  00089	83 c4 10	 add	 esp, 16			; 00000010H
$LN1@NpcRusiphe:
  0008c	5f		 pop	 edi
$LN13@NpcRusiphe:

; 512  : 	}
; 513  : 
; 514  : 	return TRUE;
; 515  : }

  0008d	8b 4d fc	 mov	 ecx, DWORD PTR __$ArrayPad$[ebp]
  00090	33 cd		 xor	 ecx, ebp
  00092	b8 01 00 00 00	 mov	 eax, 1
  00097	5e		 pop	 esi
  00098	e8 00 00 00 00	 call	 @__security_check_cookie@4
  0009d	8b e5		 mov	 esp, ebp
  0009f	5d		 pop	 ebp
  000a0	c3		 ret	 0
?NpcRusipher@@YAHPAUOBJECTSTRUCT@@0@Z ENDP		; NpcRusipher
_TEXT	ENDS
PUBLIC	?NpcPosionGirl@@YAHPAUOBJECTSTRUCT@@0@Z		; NpcPosionGirl
; Function compile flags: /Ogtp
;	COMDAT ?NpcPosionGirl@@YAHPAUOBJECTSTRUCT@@0@Z
_TEXT	SEGMENT
_lpNpc$ = 8						; size = 4
_lpObj$ = 12						; size = 4
?NpcPosionGirl@@YAHPAUOBJECTSTRUCT@@0@Z PROC		; NpcPosionGirl, COMDAT

; 522  : 	return FALSE;

  00000	33 c0		 xor	 eax, eax

; 523  : }

  00002	c3		 ret	 0
?NpcPosionGirl@@YAHPAUOBJECTSTRUCT@@0@Z ENDP		; NpcPosionGirl
_TEXT	ENDS
PUBLIC	?NpcDeviasWizard@@YAHPAUOBJECTSTRUCT@@0@Z	; NpcDeviasWizard
; Function compile flags: /Ogtp
;	COMDAT ?NpcDeviasWizard@@YAHPAUOBJECTSTRUCT@@0@Z
_TEXT	SEGMENT
_lpNpc$ = 8						; size = 4
_lpObj$ = 12						; size = 4
?NpcDeviasWizard@@YAHPAUOBJECTSTRUCT@@0@Z PROC		; NpcDeviasWizard, COMDAT

; 530  : 	return FALSE;

  00000	33 c0		 xor	 eax, eax

; 531  : }

  00002	c3		 ret	 0
?NpcDeviasWizard@@YAHPAUOBJECTSTRUCT@@0@Z ENDP		; NpcDeviasWizard
_TEXT	ENDS
PUBLIC	?NpcDeviasGuard@@YAHPAUOBJECTSTRUCT@@0@Z	; NpcDeviasGuard
; Function compile flags: /Ogtp
;	COMDAT ?NpcDeviasGuard@@YAHPAUOBJECTSTRUCT@@0@Z
_TEXT	SEGMENT
_lpNpc$ = 8						; size = 4
_lpObj$ = 12						; size = 4
?NpcDeviasGuard@@YAHPAUOBJECTSTRUCT@@0@Z PROC		; NpcDeviasGuard, COMDAT

; 537  : 	return TRUE;

  00000	b8 01 00 00 00	 mov	 eax, 1

; 538  : }

  00005	c3		 ret	 0
?NpcDeviasGuard@@YAHPAUOBJECTSTRUCT@@0@Z ENDP		; NpcDeviasGuard
_TEXT	ENDS
PUBLIC	?NpcDeviasWareHousemen@@YAHPAUOBJECTSTRUCT@@0@Z	; NpcDeviasWareHousemen
; Function compile flags: /Ogtp
;	COMDAT ?NpcDeviasWareHousemen@@YAHPAUOBJECTSTRUCT@@0@Z
_TEXT	SEGMENT
_lpNpc$ = 8						; size = 4
_lpObj$ = 12						; size = 4
?NpcDeviasWareHousemen@@YAHPAUOBJECTSTRUCT@@0@Z PROC	; NpcDeviasWareHousemen, COMDAT

; 544  : 	return FALSE;

  00000	33 c0		 xor	 eax, eax

; 545  : }

  00002	c3		 ret	 0
?NpcDeviasWareHousemen@@YAHPAUOBJECTSTRUCT@@0@Z ENDP	; NpcDeviasWareHousemen
_TEXT	ENDS
PUBLIC	?NpcWarehouse@@YAHPAUOBJECTSTRUCT@@0@Z		; NpcWarehouse
; Function compile flags: /Ogtp
;	COMDAT ?NpcWarehouse@@YAHPAUOBJECTSTRUCT@@0@Z
_TEXT	SEGMENT
_lpNpc$ = 8						; size = 4
_lpObj$ = 12						; size = 4
?NpcWarehouse@@YAHPAUOBJECTSTRUCT@@0@Z PROC		; NpcWarehouse, COMDAT

; 550  : 	return FALSE;

  00000	33 c0		 xor	 eax, eax

; 551  : }

  00002	c3		 ret	 0
?NpcWarehouse@@YAHPAUOBJECTSTRUCT@@0@Z ENDP		; NpcWarehouse
_TEXT	ENDS
PUBLIC	?NpcNoriaRara@@YAHPAUOBJECTSTRUCT@@0@Z		; NpcNoriaRara
; Function compile flags: /Ogtp
;	COMDAT ?NpcNoriaRara@@YAHPAUOBJECTSTRUCT@@0@Z
_TEXT	SEGMENT
_lpNpc$ = 8						; size = 4
_lpObj$ = 12						; size = 4
?NpcNoriaRara@@YAHPAUOBJECTSTRUCT@@0@Z PROC		; NpcNoriaRara, COMDAT

; 556  : {

  00000	55		 push	 ebp
  00001	8b ec		 mov	 ebp, esp

; 557  : 	if ( gLanguage != 0 )

  00003	83 3d 00 00 00
	00 00		 cmp	 DWORD PTR ?gLanguage@@3HA, 0 ; gLanguage
  0000a	75 1d		 jne	 SHORT $LN7@NpcNoriaRa

; 558  : 	{
; 559  : 	
; 560  : 	}
; 561  : 	else if ( gEnableEventNPCTalk != FALSE )

  0000c	83 3d 00 00 00
	00 00		 cmp	 DWORD PTR ?gEnableEventNPCTalk@@3HA, 0 ; gEnableEventNPCTalk
  00013	74 14		 je	 SHORT $LN7@NpcNoriaRa

; 562  : 	{
; 563  : 		GCServerCmd(lpObj->m_Index, 4, 2, 0);

  00015	8b 45 0c	 mov	 eax, DWORD PTR _lpObj$[ebp]
  00018	8b 08		 mov	 ecx, DWORD PTR [eax]
  0001a	6a 00		 push	 0
  0001c	6a 02		 push	 2
  0001e	6a 04		 push	 4
  00020	51		 push	 ecx
  00021	e8 00 00 00 00	 call	 ?GCServerCmd@@YAXHEEE@Z	; GCServerCmd
  00026	83 c4 10	 add	 esp, 16			; 00000010H
$LN7@NpcNoriaRa:

; 564  : 	}
; 565  : 
; 566  : 	return FALSE;

  00029	33 c0		 xor	 eax, eax

; 567  : }

  0002b	5d		 pop	 ebp
  0002c	c3		 ret	 0
?NpcNoriaRara@@YAHPAUOBJECTSTRUCT@@0@Z ENDP		; NpcNoriaRara
_TEXT	ENDS
PUBLIC	?NpcDeviasMadam@@YAHPAUOBJECTSTRUCT@@0@Z	; NpcDeviasMadam
; Function compile flags: /Ogtp
;	COMDAT ?NpcDeviasMadam@@YAHPAUOBJECTSTRUCT@@0@Z
_TEXT	SEGMENT
_lpNpc$ = 8						; size = 4
_lpObj$ = 12						; size = 4
?NpcDeviasMadam@@YAHPAUOBJECTSTRUCT@@0@Z PROC		; NpcDeviasMadam, COMDAT

; 571  : {

  00000	55		 push	 ebp
  00001	8b ec		 mov	 ebp, esp

; 572  : 	if ( gLanguage != 0 )

  00003	83 3d 00 00 00
	00 00		 cmp	 DWORD PTR ?gLanguage@@3HA, 0 ; gLanguage
  0000a	75 1d		 jne	 SHORT $LN7@NpcDeviasM

; 573  : 	{
; 574  : 	
; 575  : 	}
; 576  : 	else if ( gEnableEventNPCTalk != FALSE )

  0000c	83 3d 00 00 00
	00 00		 cmp	 DWORD PTR ?gEnableEventNPCTalk@@3HA, 0 ; gEnableEventNPCTalk
  00013	74 14		 je	 SHORT $LN7@NpcDeviasM

; 577  : 	{
; 578  : 		GCServerCmd(lpObj->m_Index, 4, 1, 0);

  00015	8b 45 0c	 mov	 eax, DWORD PTR _lpObj$[ebp]
  00018	8b 08		 mov	 ecx, DWORD PTR [eax]
  0001a	6a 00		 push	 0
  0001c	6a 01		 push	 1
  0001e	6a 04		 push	 4
  00020	51		 push	 ecx
  00021	e8 00 00 00 00	 call	 ?GCServerCmd@@YAXHEEE@Z	; GCServerCmd
  00026	83 c4 10	 add	 esp, 16			; 00000010H
$LN7@NpcDeviasM:

; 579  : 	}
; 580  : 
; 581  : 	return FALSE;

  00029	33 c0		 xor	 eax, eax

; 582  : }

  0002b	5d		 pop	 ebp
  0002c	c3		 ret	 0
?NpcDeviasMadam@@YAHPAUOBJECTSTRUCT@@0@Z ENDP		; NpcDeviasMadam
_TEXT	ENDS
PUBLIC	__$ArrayPad$
PUBLIC	?NpcEventChipNPC@@YAHPAUOBJECTSTRUCT@@0@Z	; NpcEventChipNPC
EXTRN	?DataSendEventChip@@YAXPADH@Z:PROC		; DataSendEventChip
EXTRN	?pEventObj@@3PAUOBJECTSTRUCT@@A:DWORD		; pEventObj
EXTRN	?PHeadSetB@@YAXPAEEH@Z:PROC			; PHeadSetB
; Function compile flags: /Ogtp
;	COMDAT ?NpcEventChipNPC@@YAHPAUOBJECTSTRUCT@@0@Z
_TEXT	SEGMENT
_pMsgTha$155210 = -24					; size = 20
_Result$155214 = -16					; size = 12
__$ArrayPad$ = -4					; size = 4
_lpNpc$ = 8						; size = 4
_lpObj$ = 12						; size = 4
?NpcEventChipNPC@@YAHPAUOBJECTSTRUCT@@0@Z PROC		; NpcEventChipNPC, COMDAT

; 594  : {

  00000	55		 push	 ebp
  00001	8b ec		 mov	 ebp, esp
  00003	83 ec 18	 sub	 esp, 24			; 00000018H
  00006	a1 00 00 00 00	 mov	 eax, DWORD PTR ___security_cookie
  0000b	33 c5		 xor	 eax, ebp
  0000d	89 45 fc	 mov	 DWORD PTR __$ArrayPad$[ebp], eax
  00010	56		 push	 esi
  00011	8b 75 0c	 mov	 esi, DWORD PTR _lpObj$[ebp]

; 595  : 	if ( (lpObj->m_IfState.use) > 0 )

  00014	f6 86 84 0c 00
	00 03		 test	 BYTE PTR [esi+3204], 3
  0001b	76 14		 jbe	 SHORT $LN3@NpcEventCh

; 596  : 	{
; 597  : 		return TRUE;

  0001d	b8 01 00 00 00	 mov	 eax, 1
  00022	5e		 pop	 esi

; 632  : 	}
; 633  : 
; 634  : 	return FALSE;
; 635  : }

  00023	8b 4d fc	 mov	 ecx, DWORD PTR __$ArrayPad$[ebp]
  00026	33 cd		 xor	 ecx, ebp
  00028	e8 00 00 00 00	 call	 @__security_check_cookie@4
  0002d	8b e5		 mov	 esp, ebp
  0002f	5d		 pop	 ebp
  00030	c3		 ret	 0
$LN3@NpcEventCh:
  00031	57		 push	 edi

; 598  : 	}
; 599  : 	
; 600  : 	if ( lpNpc->MapNumber == 0 )

  00032	8b 7d 08	 mov	 edi, DWORD PTR _lpNpc$[ebp]
  00035	8a 87 09 01 00
	00		 mov	 al, BYTE PTR [edi+265]
  0003b	84 c0		 test	 al, al
  0003d	75 6a		 jne	 SHORT $LN2@NpcEventCh

; 601  : 	{
; 602  : 		PMSG_REQ_VIEW_EC_MN pMsgTha;
; 603  : 
; 604  : 		PHeadSetB((LPBYTE)&pMsgTha, 0x01, sizeof(pMsgTha));

  0003f	6a 14		 push	 20			; 00000014H
  00041	8d 45 e8	 lea	 eax, DWORD PTR _pMsgTha$155210[ebp]
  00044	6a 01		 push	 1
  00046	50		 push	 eax
  00047	e8 00 00 00 00	 call	 ?PHeadSetB@@YAXPAEEH@Z	; PHeadSetB

; 605  : 		pMsgTha.iINDEX = lpObj->m_Index;

  0004c	8b 0e		 mov	 ecx, DWORD PTR [esi]

; 606  : 		strcpy(pMsgTha.szUID, lpObj->AccountID);

  0004e	8d 46 64	 lea	 eax, DWORD PTR [esi+100]
  00051	8d 55 f0	 lea	 edx, DWORD PTR _pMsgTha$155210[ebp+8]
  00054	83 c4 0c	 add	 esp, 12			; 0000000cH
  00057	89 4d ec	 mov	 DWORD PTR _pMsgTha$155210[ebp+4], ecx
  0005a	2b d0		 sub	 edx, eax
  0005c	8d 64 24 00	 npad	 4
$LL6@NpcEventCh:
  00060	8a 08		 mov	 cl, BYTE PTR [eax]
  00062	88 0c 02	 mov	 BYTE PTR [edx+eax], cl
  00065	40		 inc	 eax
  00066	84 c9		 test	 cl, cl
  00068	75 f6		 jne	 SHORT $LL6@NpcEventCh

; 607  : 		pEventObj = lpNpc;
; 608  : 
; 609  : 		DataSendEventChip((char*)&pMsgTha, sizeof(pMsgTha));

  0006a	8d 55 e8	 lea	 edx, DWORD PTR _pMsgTha$155210[ebp]
  0006d	6a 14		 push	 20			; 00000014H
  0006f	52		 push	 edx
  00070	89 3d 00 00 00
	00		 mov	 DWORD PTR ?pEventObj@@3PAUOBJECTSTRUCT@@A, edi ; pEventObj
  00076	e8 00 00 00 00	 call	 ?DataSendEventChip@@YAXPADH@Z ; DataSendEventChip

; 610  : 		
; 611  : 		lpObj->m_IfState.type = 9;
; 612  : 		lpObj->m_IfState.state = 0;
; 613  : 		lpObj->m_IfState.use = 1;

  0007b	8b 86 84 0c 00
	00		 mov	 eax, DWORD PTR [esi+3204]
  00081	83 c4 08	 add	 esp, 8
  00084	25 41 02 ff ff	 and	 eax, -64959		; ffff0241H
  00089	0d 41 02 00 00	 or	 eax, 577		; 00000241H
  0008e	89 86 84 0c 00
	00		 mov	 DWORD PTR [esi+3204], eax
  00094	5f		 pop	 edi

; 614  : 
; 615  : 		return TRUE;

  00095	b8 01 00 00 00	 mov	 eax, 1
  0009a	5e		 pop	 esi

; 632  : 	}
; 633  : 
; 634  : 	return FALSE;
; 635  : }

  0009b	8b 4d fc	 mov	 ecx, DWORD PTR __$ArrayPad$[ebp]
  0009e	33 cd		 xor	 ecx, ebp
  000a0	e8 00 00 00 00	 call	 @__security_check_cookie@4
  000a5	8b e5		 mov	 esp, ebp
  000a7	5d		 pop	 ebp
  000a8	c3		 ret	 0
$LN2@NpcEventCh:

; 616  : 	}
; 617  : 
; 618  : 	if ( lpNpc->MapNumber == 2 )

  000a9	3c 02		 cmp	 al, 2
  000ab	75 55		 jne	 SHORT $LN1@NpcEventCh

; 619  : 	{
; 620  : 		PMSG_EVENTCHIPINFO Result;
; 621  : 
; 622  : 		PHeadSetB((LPBYTE)&Result, 0x94, sizeof(Result));

  000ad	6a 0c		 push	 12			; 0000000cH
  000af	8d 4d f0	 lea	 ecx, DWORD PTR _Result$155214[ebp]
  000b2	68 94 00 00 00	 push	 148			; 00000094H
  000b7	51		 push	 ecx
  000b8	e8 00 00 00 00	 call	 ?PHeadSetB@@YAXPAEEH@Z	; PHeadSetB

; 623  : 		Result.Type = 2;
; 624  : 		
; 625  : 		DataSend(lpObj->m_Index, (LPBYTE)&Result, Result.h.size);

  000bd	0f b6 55 f1	 movzx	 edx, BYTE PTR _Result$155214[ebp+1]
  000c1	8b 0e		 mov	 ecx, DWORD PTR [esi]
  000c3	52		 push	 edx
  000c4	8d 45 f0	 lea	 eax, DWORD PTR _Result$155214[ebp]
  000c7	50		 push	 eax
  000c8	51		 push	 ecx
  000c9	c6 45 f3 02	 mov	 BYTE PTR _Result$155214[ebp+3], 2
  000cd	e8 00 00 00 00	 call	 ?DataSend@@YAHHPAEK@Z	; DataSend

; 626  : 
; 627  : 		lpObj->m_IfState.type = 9;
; 628  : 		lpObj->m_IfState.state = 0;
; 629  : 		lpObj->m_IfState.use = 1;

  000d2	8b 96 84 0c 00
	00		 mov	 edx, DWORD PTR [esi+3204]
  000d8	83 c4 18	 add	 esp, 24			; 00000018H
  000db	81 e2 41 02 ff
	ff		 and	 edx, -64959		; ffff0241H
  000e1	81 ca 41 02 00
	00		 or	 edx, 577		; 00000241H
  000e7	5f		 pop	 edi
  000e8	89 96 84 0c 00
	00		 mov	 DWORD PTR [esi+3204], edx

; 630  : 
; 631  : 		return TRUE;

  000ee	b8 01 00 00 00	 mov	 eax, 1
  000f3	5e		 pop	 esi

; 632  : 	}
; 633  : 
; 634  : 	return FALSE;
; 635  : }

  000f4	8b 4d fc	 mov	 ecx, DWORD PTR __$ArrayPad$[ebp]
  000f7	33 cd		 xor	 ecx, ebp
  000f9	e8 00 00 00 00	 call	 @__security_check_cookie@4
  000fe	8b e5		 mov	 esp, ebp
  00100	5d		 pop	 ebp
  00101	c3		 ret	 0
$LN1@NpcEventCh:
  00102	8b 4d fc	 mov	 ecx, DWORD PTR __$ArrayPad$[ebp]
  00105	5f		 pop	 edi
  00106	33 cd		 xor	 ecx, ebp
  00108	33 c0		 xor	 eax, eax
  0010a	5e		 pop	 esi
  0010b	e8 00 00 00 00	 call	 @__security_check_cookie@4
  00110	8b e5		 mov	 esp, ebp
  00112	5d		 pop	 ebp
  00113	c3		 ret	 0
?NpcEventChipNPC@@YAHPAUOBJECTSTRUCT@@0@Z ENDP		; NpcEventChipNPC
_TEXT	ENDS
PUBLIC	?NpcRorensiaSmith@@YAHPAUOBJECTSTRUCT@@0@Z	; NpcRorensiaSmith
; Function compile flags: /Ogtp
;	COMDAT ?NpcRorensiaSmith@@YAHPAUOBJECTSTRUCT@@0@Z
_TEXT	SEGMENT
_lpNpc$ = 8						; size = 4
_lpObj$ = 12						; size = 4
?NpcRorensiaSmith@@YAHPAUOBJECTSTRUCT@@0@Z PROC		; NpcRorensiaSmith, COMDAT

; 641  : 	return FALSE;

  00000	33 c0		 xor	 eax, eax

; 642  : }

  00002	c3		 ret	 0
?NpcRorensiaSmith@@YAHPAUOBJECTSTRUCT@@0@Z ENDP		; NpcRorensiaSmith
_TEXT	ENDS
PUBLIC	?NpcNoriJangIn@@YAHPAUOBJECTSTRUCT@@0@Z		; NpcNoriJangIn
; Function compile flags: /Ogtp
;	COMDAT ?NpcNoriJangIn@@YAHPAUOBJECTSTRUCT@@0@Z
_TEXT	SEGMENT
_lpNpc$ = 8						; size = 4
_lpObj$ = 12						; size = 4
?NpcNoriJangIn@@YAHPAUOBJECTSTRUCT@@0@Z PROC		; NpcNoriJangIn, COMDAT

; 649  : 	return FALSE;

  00000	33 c0		 xor	 eax, eax

; 650  : }

  00002	c3		 ret	 0
?NpcNoriJangIn@@YAHPAUOBJECTSTRUCT@@0@Z ENDP		; NpcNoriJangIn
_TEXT	ENDS
PUBLIC	?NpcQuestCheck@@YAHPAUOBJECTSTRUCT@@0@Z		; NpcQuestCheck
EXTRN	?NpcTalk@CQuestInfo@@QAEHPAUOBJECTSTRUCT@@0@Z:PROC ; CQuestInfo::NpcTalk
EXTRN	?g_QuestInfo@@3VCQuestInfo@@A:BYTE		; g_QuestInfo
; Function compile flags: /Ogtp
;	COMDAT ?NpcQuestCheck@@YAHPAUOBJECTSTRUCT@@0@Z
_TEXT	SEGMENT
_lpNpc$ = 8						; size = 4
_lpObj$ = 12						; size = 4
?NpcQuestCheck@@YAHPAUOBJECTSTRUCT@@0@Z PROC		; NpcQuestCheck, COMDAT

; 657  : {

  00000	55		 push	 ebp
  00001	8b ec		 mov	 ebp, esp

; 658  : 	if ( g_QuestInfo.NpcTalk(lpNpc, lpObj) != FALSE )

  00003	8b 45 0c	 mov	 eax, DWORD PTR _lpObj$[ebp]
  00006	8b 4d 08	 mov	 ecx, DWORD PTR _lpNpc$[ebp]
  00009	50		 push	 eax
  0000a	51		 push	 ecx
  0000b	b9 00 00 00 00	 mov	 ecx, OFFSET ?g_QuestInfo@@3VCQuestInfo@@A ; g_QuestInfo
  00010	e8 00 00 00 00	 call	 ?NpcTalk@CQuestInfo@@QAEHPAUOBJECTSTRUCT@@0@Z ; CQuestInfo::NpcTalk
  00015	f7 d8		 neg	 eax
  00017	1b c0		 sbb	 eax, eax
  00019	f7 d8		 neg	 eax

; 659  : 	{
; 660  : 		return TRUE;
; 661  : 	}
; 662  : 
; 663  : 	return FALSE;
; 664  : }

  0001b	5d		 pop	 ebp
  0001c	c3		 ret	 0
?NpcQuestCheck@@YAHPAUOBJECTSTRUCT@@0@Z ENDP		; NpcQuestCheck
_TEXT	ENDS
PUBLIC	?NpcServerDivision@@YAHPAUOBJECTSTRUCT@@0@Z	; NpcServerDivision
EXTRN	?gEnableServerDivision@@3HA:DWORD		; gEnableServerDivision
; Function compile flags: /Ogtp
;	COMDAT ?NpcServerDivision@@YAHPAUOBJECTSTRUCT@@0@Z
_TEXT	SEGMENT
_lpNpc$ = 8						; size = 4
_lpObj$ = 12						; size = 4
?NpcServerDivision@@YAHPAUOBJECTSTRUCT@@0@Z PROC	; NpcServerDivision, COMDAT

; 670  : {

  00000	55		 push	 ebp
  00001	8b ec		 mov	 ebp, esp

; 671  : 	if ( gEnableServerDivision == FALSE )

  00003	83 3d 00 00 00
	00 00		 cmp	 DWORD PTR ?gEnableServerDivision@@3HA, 0 ; gEnableServerDivision

; 672  : 	{
; 673  : 		return TRUE;

  0000a	74 1d		 je	 SHORT $LN5@NpcServerD

; 674  : 	}
; 675  : 
; 676  : 	if ( lpObj->lpGuild != NULL )

  0000c	8b 45 0c	 mov	 eax, DWORD PTR _lpObj$[ebp]
  0000f	83 b8 b4 02 00
	00 00		 cmp	 DWORD PTR [eax+692], 0
  00016	74 18		 je	 SHORT $LN1@NpcServerD

; 677  : 	{
; 678  : 		GCServerCmd(lpObj->m_Index, 6, 0, 0);

  00018	8b 00		 mov	 eax, DWORD PTR [eax]
  0001a	6a 00		 push	 0
  0001c	6a 00		 push	 0
  0001e	6a 06		 push	 6
  00020	50		 push	 eax
  00021	e8 00 00 00 00	 call	 ?GCServerCmd@@YAXHEEE@Z	; GCServerCmd
  00026	83 c4 10	 add	 esp, 16			; 00000010H
$LN5@NpcServerD:

; 679  : 		return TRUE;

  00029	b8 01 00 00 00	 mov	 eax, 1

; 687  : }

  0002e	5d		 pop	 ebp
  0002f	c3		 ret	 0
$LN1@NpcServerD:

; 680  : 	}
; 681  : 
; 682  : 	lpObj->m_IfState.type = 11;
; 683  : 	lpObj->m_IfState.state = 0;
; 684  : 	lpObj->m_IfState.use = 1;

  00030	8b 88 84 0c 00
	00		 mov	 ecx, DWORD PTR [eax+3204]
  00036	81 e1 c1 02 ff
	ff		 and	 ecx, -64831		; ffff02c1H
  0003c	81 c9 c1 02 00
	00		 or	 ecx, 705		; 000002c1H
  00042	89 88 84 0c 00
	00		 mov	 DWORD PTR [eax+3204], ecx

; 685  : 
; 686  : 	return FALSE;

  00048	33 c0		 xor	 eax, eax

; 687  : }

  0004a	5d		 pop	 ebp
  0004b	c3		 ret	 0
?NpcServerDivision@@YAHPAUOBJECTSTRUCT@@0@Z ENDP	; NpcServerDivision
_TEXT	ENDS
PUBLIC	?NpcRoadMerchant@@YAHPAUOBJECTSTRUCT@@0@Z	; NpcRoadMerchant
; Function compile flags: /Ogtp
;	COMDAT ?NpcRoadMerchant@@YAHPAUOBJECTSTRUCT@@0@Z
_TEXT	SEGMENT
_lpNpc$ = 8						; size = 4
_lpObj$ = 12						; size = 4
?NpcRoadMerchant@@YAHPAUOBJECTSTRUCT@@0@Z PROC		; NpcRoadMerchant, COMDAT

; 693  : 	return FALSE;

  00000	33 c0		 xor	 eax, eax

; 694  : }

  00002	c3		 ret	 0
?NpcRoadMerchant@@YAHPAUOBJECTSTRUCT@@0@Z ENDP		; NpcRoadMerchant
_TEXT	ENDS
PUBLIC	??_C@_0EC@IJDIINJB@?$FLBlood?5Castle?$FN?5?$CI?$CFd?$CJ?5?$CIAccount?3?$CFs?0@ ; `string'
PUBLIC	??_C@_0FO@BJDLMIAN@?$FLBlood?5Castle?$FN?5?$CI?$CFd?$CJ?5?$CIAccount?3?$CFs?0@ ; `string'
PUBLIC	??_C@_0EF@JFCICCDP@?$FLBlood?5Castle?$FN?5?$CI?$CFd?$CJ?5?$CIAccount?3?$CFs?0@ ; `string'
PUBLIC	??_C@_0EM@MPNDNNH@?$FLBlood?5Castle?$FN?5?$CI?$CFd?$CJ?5Blood?5Castle@ ; `string'
PUBLIC	??_C@_0FH@ONKNIFFP@?$FLBlood?5Castle?$FN?5?$CI?$CFd?$CJ?5Blood?5Castle@ ; `string'
PUBLIC	??_C@_0FG@CNLFICGI@?$FLBlood?5Castle?$FN?5?$CI?$CFd?$CJ?5Blood?5Castle@ ; `string'
PUBLIC	??_C@_0DA@BCJAGFAG@?$FLBlood?5Castle?$FN?5?$CI?$CFd?$CJ?5?$FL?$CFs?$FN?$FL?$CFs?$FN?5Tal@ ; `string'
PUBLIC	?NpcAngelKing@@YAHPAUOBJECTSTRUCT@@0@Z		; NpcAngelKing
EXTRN	?CheckUserWinnerParty@CBloodCastle@@QAE_NHH@Z:PROC ; CBloodCastle::CheckUserWinnerParty
EXTRN	?SearchUserDeleteQuestItem@CBloodCastle@@QAEXH@Z:PROC ; CBloodCastle::SearchUserDeleteQuestItem
EXTRN	?CheckPartyExist@CBloodCastle@@QAE_NH@Z:PROC	; CBloodCastle::CheckPartyExist
EXTRN	?SetBridgeWinner@CBloodCastle@@QAE_NHH@Z:PROC	; CBloodCastle::SetBridgeWinner
EXTRN	?SetUserState@CBloodCastle@@QAEXHH@Z:PROC	; CBloodCastle::SetUserState
EXTRN	?CheckUserBridgeMember@CBloodCastle@@QAE_NHH@Z:PROC ; CBloodCastle::CheckUserBridgeMember
EXTRN	?CheckQuestItem@CBloodCastle@@QAEHH@Z:PROC	; CBloodCastle::CheckQuestItem
EXTRN	?CheckPlayStart@CBloodCastle@@QAE_NH@Z:PROC	; CBloodCastle::CheckPlayStart
EXTRN	?GetCurrentState@CBloodCastle@@QAEHH@Z:PROC	; CBloodCastle::GetCurrentState
EXTRN	?g_BloodCastle@@3VCBloodCastle@@A:BYTE		; g_BloodCastle
;	COMDAT ??_C@_0EC@IJDIINJB@?$FLBlood?5Castle?$FN?5?$CI?$CFd?$CJ?5?$CIAccount?3?$CFs?0@
CONST	SEGMENT
??_C@_0EC@IJDIINJB@?$FLBlood?5Castle?$FN?5?$CI?$CFd?$CJ?5?$CIAccount?3?$CFs?0@ DB '['
	DB	'Blood Castle] (%d) (Account:%s, Name:%s) Winner Already Exist'
	DB	' !!', 00H					; `string'
CONST	ENDS
;	COMDAT ??_C@_0FO@BJDLMIAN@?$FLBlood?5Castle?$FN?5?$CI?$CFd?$CJ?5?$CIAccount?3?$CFs?0@
CONST	SEGMENT
??_C@_0FO@BJDLMIAN@?$FLBlood?5Castle?$FN?5?$CI?$CFd?$CJ?5?$CIAccount?3?$CFs?0@ DB '['
	DB	'Blood Castle] (%d) (Account:%s, Name:%s) Succeed Blood Castle'
	DB	' Quest - More Party to register', 00H	; `string'
CONST	ENDS
;	COMDAT ??_C@_0EF@JFCICCDP@?$FLBlood?5Castle?$FN?5?$CI?$CFd?$CJ?5?$CIAccount?3?$CFs?0@
CONST	SEGMENT
??_C@_0EF@JFCICCDP@?$FLBlood?5Castle?$FN?5?$CI?$CFd?$CJ?5?$CIAccount?3?$CFs?0@ DB '['
	DB	'Blood Castle] (%d) (Account:%s, Name:%s) Succeed Blood Castle'
	DB	' Quest', 00H				; `string'
CONST	ENDS
;	COMDAT ??_C@_0EM@MPNDNNH@?$FLBlood?5Castle?$FN?5?$CI?$CFd?$CJ?5Blood?5Castle@
CONST	SEGMENT
??_C@_0EM@MPNDNNH@?$FLBlood?5Castle?$FN?5?$CI?$CFd?$CJ?5Blood?5Castle@ DB '['
	DB	'Blood Castle] (%d) Blood Castle Quest Succeed Result -> Win Q'
	DB	'uest [%s][%s]', 00H				; `string'
CONST	ENDS
;	COMDAT ??_C@_0FH@ONKNIFFP@?$FLBlood?5Castle?$FN?5?$CI?$CFd?$CJ?5Blood?5Castle@
CONST	SEGMENT
??_C@_0FH@ONKNIFFP@?$FLBlood?5Castle?$FN?5?$CI?$CFd?$CJ?5Blood?5Castle@ DB '['
	DB	'Blood Castle] (%d) Blood Castle Quest Succeed Result -> Destr'
	DB	'oy Saint Status [%s][%s]', 00H		; `string'
CONST	ENDS
;	COMDAT ??_C@_0FG@CNLFICGI@?$FLBlood?5Castle?$FN?5?$CI?$CFd?$CJ?5Blood?5Castle@
CONST	SEGMENT
??_C@_0FG@CNLFICGI@?$FLBlood?5Castle?$FN?5?$CI?$CFd?$CJ?5Blood?5Castle@ DB '['
	DB	'Blood Castle] (%d) Blood Castle Quest Succeed Result -> Destr'
	DB	'oy Castle Door [%s][%s]', 00H		; `string'
CONST	ENDS
;	COMDAT ??_C@_0DA@BCJAGFAG@?$FLBlood?5Castle?$FN?5?$CI?$CFd?$CJ?5?$FL?$CFs?$FN?$FL?$CFs?$FN?5Tal@
CONST	SEGMENT
??_C@_0DA@BCJAGFAG@?$FLBlood?5Castle?$FN?5?$CI?$CFd?$CJ?5?$FL?$CFs?$FN?$FL?$CFs?$FN?5Tal@ DB '['
	DB	'Blood Castle] (%d) [%s][%s] Talk to Angel King', 00H ; `string'
; Function compile flags: /Ogtp
CONST	ENDS
;	COMDAT ?NpcAngelKing@@YAHPAUOBJECTSTRUCT@@0@Z
_TEXT	SEGMENT
_lpNpc$ = 8						; size = 4
_lpObj$ = 12						; size = 4
?NpcAngelKing@@YAHPAUOBJECTSTRUCT@@0@Z PROC		; NpcAngelKing, COMDAT

; 701  : {

  00000	55		 push	 ebp
  00001	8b ec		 mov	 ebp, esp
  00003	56		 push	 esi

; 702  : 	int iITEM_LEVEL = 0;
; 703  : 
; 704  : 	if ( (  (lpObj->m_cBloodCastleIndex < 0)?FALSE:(lpObj->m_cBloodCastleIndex > MAX_BLOOD_CASTLE_LEVEL-1)?FALSE:TRUE ) == FALSE )

  00004	8b 75 0c	 mov	 esi, DWORD PTR _lpObj$[ebp]
  00007	8a 86 02 0d 00
	00		 mov	 al, BYTE PTR [esi+3330]
  0000d	84 c0		 test	 al, al
  0000f	78 0b		 js	 SHORT $LN24@NpcAngelKi
  00011	33 c9		 xor	 ecx, ecx
  00013	3c 06		 cmp	 al, 6
  00015	0f 9e c1	 setle	 cl
  00018	85 c9		 test	 ecx, ecx
  0001a	75 16		 jne	 SHORT $LN16@NpcAngelKi
$LN24@NpcAngelKi:

; 705  : 	{
; 706  : 		GCServerCmd(lpObj->m_Index, 1, 0x18, 0);

  0001c	8b 06		 mov	 eax, DWORD PTR [esi]
  0001e	6a 00		 push	 0
  00020	6a 18		 push	 24			; 00000018H
  00022	6a 01		 push	 1
  00024	50		 push	 eax
  00025	e8 00 00 00 00	 call	 ?GCServerCmd@@YAXHEEE@Z	; GCServerCmd
  0002a	83 c4 10	 add	 esp, 16			; 00000010H

; 722  : 		return FALSE;

  0002d	33 c0		 xor	 eax, eax
  0002f	5e		 pop	 esi

; 815  : 	}
; 816  : 	
; 817  : 	return FALSE;
; 818  : }

  00030	5d		 pop	 ebp
  00031	c3		 ret	 0
$LN16@NpcAngelKi:
  00032	53		 push	 ebx
  00033	57		 push	 edi

; 707  : 		return FALSE;
; 708  : 	}
; 709  : 
; 710  : 	LogAdd(LOG_BLACK, "[Blood Castle] (%d) [%s][%s] Talk to Angel King",
; 711  : 		lpObj->m_cBloodCastleIndex+1, lpObj->AccountID, lpObj->Name);

  00034	0f be c8	 movsx	 ecx, al
  00037	8d 7e 6f	 lea	 edi, DWORD PTR [esi+111]
  0003a	57		 push	 edi
  0003b	8d 5e 64	 lea	 ebx, DWORD PTR [esi+100]
  0003e	53		 push	 ebx
  0003f	41		 inc	 ecx
  00040	51		 push	 ecx
  00041	68 00 00 00 00	 push	 OFFSET ??_C@_0DA@BCJAGFAG@?$FLBlood?5Castle?$FN?5?$CI?$CFd?$CJ?5?$FL?$CFs?$FN?$FL?$CFs?$FN?5Tal@
  00046	6a 00		 push	 0
  00048	e8 00 00 00 00	 call	 ?LogAdd@@YAXW4eLogColor@@PADZZ ; LogAdd

; 712  : 
; 713  : 	if ( g_BloodCastle.m_BridgeData[lpObj->m_cBloodCastleIndex].m_bBC_REWARDED != false )

  0004d	0f be 86 02 0d
	00 00		 movsx	 eax, BYTE PTR [esi+3330]
  00054	8b d0		 mov	 edx, eax
  00056	c1 e2 09	 shl	 edx, 9
  00059	83 c4 14	 add	 esp, 20			; 00000014H
  0005c	80 ba 66 01 00
	00 00		 cmp	 BYTE PTR ?g_BloodCastle@@3VCBloodCastle@@A[edx+358], 0
  00063	74 18		 je	 SHORT $LN15@NpcAngelKi

; 714  : 	{
; 715  : 		GCServerCmd(lpObj->m_Index, 1, 0x2E, 0);

  00065	8b 06		 mov	 eax, DWORD PTR [esi]
  00067	6a 00		 push	 0
  00069	6a 2e		 push	 46			; 0000002eH
  0006b	6a 01		 push	 1
  0006d	50		 push	 eax

; 720  : 	{
; 721  : 		GCServerCmd(lpObj->m_Index, 1, 0x18, 0);

  0006e	e8 00 00 00 00	 call	 ?GCServerCmd@@YAXHEEE@Z	; GCServerCmd
  00073	83 c4 10	 add	 esp, 16			; 00000010H
  00076	5f		 pop	 edi
  00077	5b		 pop	 ebx

; 722  : 		return FALSE;

  00078	33 c0		 xor	 eax, eax
  0007a	5e		 pop	 esi

; 815  : 	}
; 816  : 	
; 817  : 	return FALSE;
; 818  : }

  0007b	5d		 pop	 ebp
  0007c	c3		 ret	 0
$LN15@NpcAngelKi:

; 716  : 		return FALSE;
; 717  : 	}
; 718  : 
; 719  : 	if ( g_BloodCastle.GetCurrentState(lpObj->m_cBloodCastleIndex) != 2 || g_BloodCastle.CheckPlayStart(lpObj->m_cBloodCastleIndex) == false)

  0007d	50		 push	 eax
  0007e	b9 00 00 00 00	 mov	 ecx, OFFSET ?g_BloodCastle@@3VCBloodCastle@@A ; g_BloodCastle
  00083	e8 00 00 00 00	 call	 ?GetCurrentState@CBloodCastle@@QAEHH@Z ; CBloodCastle::GetCurrentState
  00088	83 f8 02	 cmp	 eax, 2
  0008b	0f 85 21 03 00
	00		 jne	 $LN13@NpcAngelKi
  00091	0f be 8e 02 0d
	00 00		 movsx	 ecx, BYTE PTR [esi+3330]
  00098	51		 push	 ecx
  00099	b9 00 00 00 00	 mov	 ecx, OFFSET ?g_BloodCastle@@3VCBloodCastle@@A ; g_BloodCastle
  0009e	e8 00 00 00 00	 call	 ?CheckPlayStart@CBloodCastle@@QAE_NH@Z ; CBloodCastle::CheckPlayStart
  000a3	84 c0		 test	 al, al
  000a5	0f 84 07 03 00
	00		 je	 $LN13@NpcAngelKi

; 723  : 	}
; 724  : 
; 725  : 	if ( lpObj->m_bBloodCastleComplete == true)

  000ab	80 be 08 0d 00
	00 01		 cmp	 BYTE PTR [esi+3336], 1
  000b2	75 18		 jne	 SHORT $LN12@NpcAngelKi

; 726  : 	{
; 727  : 		GCServerCmd(lpObj->m_Index, 1, 0x2E, 0);

  000b4	8b 16		 mov	 edx, DWORD PTR [esi]
  000b6	6a 00		 push	 0
  000b8	6a 2e		 push	 46			; 0000002eH
  000ba	6a 01		 push	 1
  000bc	52		 push	 edx
  000bd	e8 00 00 00 00	 call	 ?GCServerCmd@@YAXHEEE@Z	; GCServerCmd
  000c2	83 c4 10	 add	 esp, 16			; 00000010H
  000c5	5f		 pop	 edi
  000c6	5b		 pop	 ebx
  000c7	33 c0		 xor	 eax, eax
  000c9	5e		 pop	 esi

; 815  : 	}
; 816  : 	
; 817  : 	return FALSE;
; 818  : }

  000ca	5d		 pop	 ebp
  000cb	c3		 ret	 0
$LN12@NpcAngelKi:

; 728  : 		return FALSE;
; 729  : 	}
; 730  : 
; 731  : 	if ( iITEM_LEVEL = iITEM_LEVEL = CHECK_LIMIT( g_BloodCastle.CheckQuestItem(lpObj->m_Index), 3)  )

  000cc	8b 06		 mov	 eax, DWORD PTR [esi]
  000ce	50		 push	 eax
  000cf	b9 00 00 00 00	 mov	 ecx, OFFSET ?g_BloodCastle@@3VCBloodCastle@@A ; g_BloodCastle
  000d4	e8 00 00 00 00	 call	 ?CheckQuestItem@CBloodCastle@@QAEHH@Z ; CBloodCastle::CheckQuestItem
  000d9	85 c0		 test	 eax, eax
  000db	0f 88 2a 02 00
	00		 js	 $LN11@NpcAngelKi
  000e1	8b 0e		 mov	 ecx, DWORD PTR [esi]
  000e3	51		 push	 ecx
  000e4	b9 00 00 00 00	 mov	 ecx, OFFSET ?g_BloodCastle@@3VCBloodCastle@@A ; g_BloodCastle
  000e9	e8 00 00 00 00	 call	 ?CheckQuestItem@CBloodCastle@@QAEHH@Z ; CBloodCastle::CheckQuestItem
  000ee	33 d2		 xor	 edx, edx
  000f0	83 f8 02	 cmp	 eax, 2
  000f3	0f 9e c2	 setle	 dl
  000f6	8b c2		 mov	 eax, edx
  000f8	85 c0		 test	 eax, eax
  000fa	0f 84 0b 02 00
	00		 je	 $LN11@NpcAngelKi

; 732  : 	{
; 733  : 		if ( lpNpc->m_cBloodCastleIndex != lpObj->m_cBloodCastleIndex )

  00100	8a 86 02 0d 00
	00		 mov	 al, BYTE PTR [esi+3330]
  00106	8b 4d 08	 mov	 ecx, DWORD PTR _lpNpc$[ebp]
  00109	38 81 02 0d 00
	00		 cmp	 BYTE PTR [ecx+3330], al

; 734  : 		{
; 735  : 			GCServerCmd(lpObj->m_Index, 1, 0x18, 0);
; 736  : 			return FALSE;

  0010f	0f 85 9d 02 00
	00		 jne	 $LN13@NpcAngelKi

; 737  : 		}
; 738  : 
; 739  : 		if ( g_BloodCastle.CheckUserBridgeMember(lpObj->m_cBloodCastleIndex, lpObj->m_Index) == false )

  00115	8b 0e		 mov	 ecx, DWORD PTR [esi]
  00117	0f be d0	 movsx	 edx, al
  0011a	51		 push	 ecx
  0011b	52		 push	 edx
  0011c	b9 00 00 00 00	 mov	 ecx, OFFSET ?g_BloodCastle@@3VCBloodCastle@@A ; g_BloodCastle
  00121	e8 00 00 00 00	 call	 ?CheckUserBridgeMember@CBloodCastle@@QAE_NHH@Z ; CBloodCastle::CheckUserBridgeMember
  00126	84 c0		 test	 al, al
  00128	75 18		 jne	 SHORT $LN9@NpcAngelKi

; 740  : 		{
; 741  : 			GCServerCmd(lpObj->m_Index, 1, 0x18, 0);

  0012a	8b 06		 mov	 eax, DWORD PTR [esi]
  0012c	6a 00		 push	 0
  0012e	6a 18		 push	 24			; 00000018H
  00130	6a 01		 push	 1
  00132	50		 push	 eax
  00133	e8 00 00 00 00	 call	 ?GCServerCmd@@YAXHEEE@Z	; GCServerCmd
  00138	83 c4 10	 add	 esp, 16			; 00000010H
  0013b	5f		 pop	 edi
  0013c	5b		 pop	 ebx
  0013d	33 c0		 xor	 eax, eax
  0013f	5e		 pop	 esi

; 815  : 	}
; 816  : 	
; 817  : 	return FALSE;
; 818  : }

  00140	5d		 pop	 ebp
  00141	c3		 ret	 0
$LN9@NpcAngelKi:

; 742  : 			return FALSE;
; 743  : 		}
; 744  : 
; 745  : 		g_BloodCastle.SetUserState(lpObj->m_Index, 2);

  00142	8b 0e		 mov	 ecx, DWORD PTR [esi]
  00144	6a 02		 push	 2
  00146	51		 push	 ecx
  00147	b9 00 00 00 00	 mov	 ecx, OFFSET ?g_BloodCastle@@3VCBloodCastle@@A ; g_BloodCastle
  0014c	e8 00 00 00 00	 call	 ?SetUserState@CBloodCastle@@QAEXHH@Z ; CBloodCastle::SetUserState

; 746  : 		g_BloodCastle.m_BridgeData[lpObj->m_cBloodCastleIndex].m_iExtraEXP_Win_Quest_Party = lpObj->PartyNumber;

  00151	0f be 96 02 0d
	00 00		 movsx	 edx, BYTE PTR [esi+3330]
  00158	8b 86 a8 02 00
	00		 mov	 eax, DWORD PTR [esi+680]
  0015e	c1 e2 09	 shl	 edx, 9
  00161	89 82 e0 01 00
	00		 mov	 DWORD PTR ?g_BloodCastle@@3VCBloodCastle@@A[edx+480], eax

; 747  : 		g_BloodCastle.m_BridgeData[lpObj->m_cBloodCastleIndex].m_iExtraEXP_Win_Quest_Index = lpObj->m_Index;

  00167	0f be 8e 02 0d
	00 00		 movsx	 ecx, BYTE PTR [esi+3330]
  0016e	8b 16		 mov	 edx, DWORD PTR [esi]
  00170	c1 e1 09	 shl	 ecx, 9
  00173	89 91 e4 01 00
	00		 mov	 DWORD PTR ?g_BloodCastle@@3VCBloodCastle@@A[ecx+484], edx

; 748  : 		memcpy(g_BloodCastle.m_BridgeData[lpObj->m_cBloodCastleIndex].m_szWin_Quest_CharName, lpObj->Name, 10);

  00179	0f be 86 02 0d
	00 00		 movsx	 eax, BYTE PTR [esi+3330]
  00180	8b 0f		 mov	 ecx, DWORD PTR [edi]
  00182	c1 e0 09	 shl	 eax, 9
  00185	05 e8 01 00 00	 add	 eax, OFFSET ?g_BloodCastle@@3VCBloodCastle@@A+488
  0018a	89 08		 mov	 DWORD PTR [eax], ecx
  0018c	8b 57 04	 mov	 edx, DWORD PTR [edi+4]
  0018f	89 50 04	 mov	 DWORD PTR [eax+4], edx
  00192	66 8b 4f 08	 mov	 cx, WORD PTR [edi+8]
  00196	66 89 48 08	 mov	 WORD PTR [eax+8], cx

; 749  : 		memcpy(g_BloodCastle.m_BridgeData[lpObj->m_cBloodCastleIndex].m_szWin_Quest_AccountID, lpObj->AccountID, 10);

  0019a	0f be 86 02 0d
	00 00		 movsx	 eax, BYTE PTR [esi+3330]
  001a1	8b 13		 mov	 edx, DWORD PTR [ebx]
  001a3	c1 e0 09	 shl	 eax, 9
  001a6	05 f3 01 00 00	 add	 eax, OFFSET ?g_BloodCastle@@3VCBloodCastle@@A+499
  001ab	89 10		 mov	 DWORD PTR [eax], edx
  001ad	8b 4b 04	 mov	 ecx, DWORD PTR [ebx+4]
  001b0	89 48 04	 mov	 DWORD PTR [eax+4], ecx
  001b3	66 8b 53 08	 mov	 dx, WORD PTR [ebx+8]
  001b7	66 89 50 08	 mov	 WORD PTR [eax+8], dx

; 750  : 		g_BloodCastle.m_BridgeData[lpObj->m_cBloodCastleIndex].m_szWin_Quest_CharName[10] = 0;	// Zero String terminated

  001bb	0f be 86 02 0d
	00 00		 movsx	 eax, BYTE PTR [esi+3330]
  001c2	c1 e0 09	 shl	 eax, 9
  001c5	c6 80 f2 01 00
	00 00		 mov	 BYTE PTR ?g_BloodCastle@@3VCBloodCastle@@A[eax+498], 0

; 751  : 		g_BloodCastle.m_BridgeData[lpObj->m_cBloodCastleIndex].m_szWin_Quest_AccountID[10] = 0;	// Zero String Terminated

  001cc	0f be 8e 02 0d
	00 00		 movsx	 ecx, BYTE PTR [esi+3330]
  001d3	c1 e1 09	 shl	 ecx, 9
  001d6	c6 81 fd 01 00
	00 00		 mov	 BYTE PTR ?g_BloodCastle@@3VCBloodCastle@@A[ecx+509], 0

; 752  : 		
; 753  : 		LogAdd(LOG_BLACK, "[Blood Castle] (%d) Blood Castle Quest Succeed Result -> Destroy Castle Door [%s][%s]",
; 754  : 			lpObj->m_cBloodCastleIndex+1, g_BloodCastle.m_BridgeData[lpObj->m_cBloodCastleIndex].m_szKill_Door_AccountID,
; 755  : 			g_BloodCastle.m_BridgeData[lpObj->m_cBloodCastleIndex].m_szKill_Door_CharName);

  001dd	0f be 8e 02 0d
	00 00		 movsx	 ecx, BYTE PTR [esi+3330]
  001e4	8b c1		 mov	 eax, ecx
  001e6	c1 e0 09	 shl	 eax, 9
  001e9	8d 90 b3 01 00
	00		 lea	 edx, DWORD PTR ?g_BloodCastle@@3VCBloodCastle@@A[eax+435]
  001ef	52		 push	 edx
  001f0	8d 80 a8 01 00
	00		 lea	 eax, DWORD PTR ?g_BloodCastle@@3VCBloodCastle@@A[eax+424]
  001f6	50		 push	 eax
  001f7	41		 inc	 ecx
  001f8	51		 push	 ecx
  001f9	68 00 00 00 00	 push	 OFFSET ??_C@_0FG@CNLFICGI@?$FLBlood?5Castle?$FN?5?$CI?$CFd?$CJ?5Blood?5Castle@
  001fe	6a 00		 push	 0
  00200	e8 00 00 00 00	 call	 ?LogAdd@@YAXW4eLogColor@@PADZZ ; LogAdd

; 756  : 		LogAdd(LOG_BLACK, "[Blood Castle] (%d) Blood Castle Quest Succeed Result -> Destroy Saint Status [%s][%s]",
; 757  : 			lpObj->m_cBloodCastleIndex+1, g_BloodCastle.m_BridgeData[lpObj->m_cBloodCastleIndex].m_szKill_Door_AccountID,	// #error Correct this
; 758  : 			g_BloodCastle.m_BridgeData[lpObj->m_cBloodCastleIndex].m_szKill_Status_CharName);

  00205	0f be 8e 02 0d
	00 00		 movsx	 ecx, BYTE PTR [esi+3330]
  0020c	8b c1		 mov	 eax, ecx
  0020e	c1 e0 09	 shl	 eax, 9
  00211	8d 90 c8 01 00
	00		 lea	 edx, DWORD PTR ?g_BloodCastle@@3VCBloodCastle@@A[eax+456]
  00217	52		 push	 edx
  00218	8d 80 a8 01 00
	00		 lea	 eax, DWORD PTR ?g_BloodCastle@@3VCBloodCastle@@A[eax+424]
  0021e	50		 push	 eax
  0021f	41		 inc	 ecx
  00220	51		 push	 ecx
  00221	68 00 00 00 00	 push	 OFFSET ??_C@_0FH@ONKNIFFP@?$FLBlood?5Castle?$FN?5?$CI?$CFd?$CJ?5Blood?5Castle@
  00226	6a 00		 push	 0
  00228	e8 00 00 00 00	 call	 ?LogAdd@@YAXW4eLogColor@@PADZZ ; LogAdd

; 759  : 		LogAdd(LOG_BLACK, "[Blood Castle] (%d) Blood Castle Quest Succeed Result -> Win Quest [%s][%s]",
; 760  : 			lpObj->m_cBloodCastleIndex+1, g_BloodCastle.m_BridgeData[lpObj->m_cBloodCastleIndex].m_szWin_Quest_AccountID,
; 761  : 			g_BloodCastle.m_BridgeData[lpObj->m_cBloodCastleIndex].m_szWin_Quest_CharName);

  0022d	0f be 8e 02 0d
	00 00		 movsx	 ecx, BYTE PTR [esi+3330]
  00234	8b c1		 mov	 eax, ecx
  00236	c1 e0 09	 shl	 eax, 9
  00239	8d 90 e8 01 00
	00		 lea	 edx, DWORD PTR ?g_BloodCastle@@3VCBloodCastle@@A[eax+488]
  0023f	52		 push	 edx
  00240	8d 80 f3 01 00
	00		 lea	 eax, DWORD PTR ?g_BloodCastle@@3VCBloodCastle@@A[eax+499]
  00246	50		 push	 eax
  00247	41		 inc	 ecx
  00248	51		 push	 ecx
  00249	68 00 00 00 00	 push	 OFFSET ??_C@_0EM@MPNDNNH@?$FLBlood?5Castle?$FN?5?$CI?$CFd?$CJ?5Blood?5Castle@
  0024e	6a 00		 push	 0
  00250	e8 00 00 00 00	 call	 ?LogAdd@@YAXW4eLogColor@@PADZZ ; LogAdd

; 762  : 
; 763  : 		if ( g_BloodCastle.SetBridgeWinner(lpObj->m_cBloodCastleIndex, lpObj->m_Index) == TRUE )

  00255	8b 0e		 mov	 ecx, DWORD PTR [esi]
  00257	0f be 96 02 0d
	00 00		 movsx	 edx, BYTE PTR [esi+3330]
  0025e	83 c4 3c	 add	 esp, 60			; 0000003cH
  00261	51		 push	 ecx
  00262	52		 push	 edx
  00263	b9 00 00 00 00	 mov	 ecx, OFFSET ?g_BloodCastle@@3VCBloodCastle@@A ; g_BloodCastle
  00268	e8 00 00 00 00	 call	 ?SetBridgeWinner@CBloodCastle@@QAE_NHH@Z ; CBloodCastle::SetBridgeWinner
  0026d	3c 01		 cmp	 al, 1
  0026f	75 74		 jne	 SHORT $LN8@NpcAngelKi

; 764  : 		{
; 765  : 			lpObj->m_bBloodCastleComplete = true;

  00271	88 86 08 0d 00
	00		 mov	 BYTE PTR [esi+3336], al

; 766  : 
; 767  : 			if ( g_BloodCastle.CheckPartyExist(lpObj->m_Index) == FALSE )

  00277	8b 06		 mov	 eax, DWORD PTR [esi]
  00279	50		 push	 eax
  0027a	b9 00 00 00 00	 mov	 ecx, OFFSET ?g_BloodCastle@@3VCBloodCastle@@A ; g_BloodCastle
  0027f	e8 00 00 00 00	 call	 ?CheckPartyExist@CBloodCastle@@QAE_NH@Z ; CBloodCastle::CheckPartyExist

; 768  : 			{
; 769  : 				GCServerCmd(lpObj->m_Index, 1, 0x17, 0);

  00284	8b 0e		 mov	 ecx, DWORD PTR [esi]
  00286	6a 00		 push	 0
  00288	6a 17		 push	 23			; 00000017H
  0028a	6a 01		 push	 1
  0028c	51		 push	 ecx
  0028d	84 c0		 test	 al, al
  0028f	75 1c		 jne	 SHORT $LN7@NpcAngelKi
  00291	e8 00 00 00 00	 call	 ?GCServerCmd@@YAXHEEE@Z	; GCServerCmd

; 770  : 
; 771  : 				LogAdd(LOG_BLACK, "[Blood Castle] (%d) (Account:%s, Name:%s) Succeed Blood Castle Quest",
; 772  : 					lpNpc->MapNumber-10, lpObj->AccountID, lpObj->Name);

  00296	8b 55 08	 mov	 edx, DWORD PTR _lpNpc$[ebp]
  00299	0f b6 82 09 01
	00 00		 movzx	 eax, BYTE PTR [edx+265]
  002a0	57		 push	 edi
  002a1	53		 push	 ebx
  002a2	83 e8 0a	 sub	 eax, 10			; 0000000aH
  002a5	50		 push	 eax
  002a6	68 00 00 00 00	 push	 OFFSET ??_C@_0EF@JFCICCDP@?$FLBlood?5Castle?$FN?5?$CI?$CFd?$CJ?5?$CIAccount?3?$CFs?0@

; 773  : 			}
; 774  : 			else

  002ab	eb 1a		 jmp	 SHORT $LN29@NpcAngelKi
$LN7@NpcAngelKi:

; 775  : 			{
; 776  : 				GCServerCmd(lpObj->m_Index, 1, 0x17, 0);

  002ad	e8 00 00 00 00	 call	 ?GCServerCmd@@YAXHEEE@Z	; GCServerCmd

; 777  : 				LogAdd(LOG_BLACK, "[Blood Castle] (%d) (Account:%s, Name:%s) Succeed Blood Castle Quest - More Party to register",
; 778  : 					lpNpc->MapNumber-10, lpObj->AccountID, lpObj->Name);

  002b2	8b 55 08	 mov	 edx, DWORD PTR _lpNpc$[ebp]
  002b5	0f b6 82 09 01
	00 00		 movzx	 eax, BYTE PTR [edx+265]
  002bc	57		 push	 edi
  002bd	53		 push	 ebx
  002be	83 e8 0a	 sub	 eax, 10			; 0000000aH
  002c1	50		 push	 eax
  002c2	68 00 00 00 00	 push	 OFFSET ??_C@_0FO@BJDLMIAN@?$FLBlood?5Castle?$FN?5?$CI?$CFd?$CJ?5?$CIAccount?3?$CFs?0@
$LN29@NpcAngelKi:
  002c7	6a 00		 push	 0
  002c9	e8 00 00 00 00	 call	 ?LogAdd@@YAXW4eLogColor@@PADZZ ; LogAdd

; 785  : 
; 786  : 			return FALSE;
; 787  : 		}
; 788  : 
; 789  : 		g_BloodCastle.SearchUserDeleteQuestItem(lpObj->m_Index);

  002ce	8b 0e		 mov	 ecx, DWORD PTR [esi]
  002d0	83 c4 24	 add	 esp, 36			; 00000024H
  002d3	51		 push	 ecx
  002d4	b9 00 00 00 00	 mov	 ecx, OFFSET ?g_BloodCastle@@3VCBloodCastle@@A ; g_BloodCastle
  002d9	e8 00 00 00 00	 call	 ?SearchUserDeleteQuestItem@CBloodCastle@@QAEXH@Z ; CBloodCastle::SearchUserDeleteQuestItem
  002de	5f		 pop	 edi
  002df	5b		 pop	 ebx
  002e0	33 c0		 xor	 eax, eax
  002e2	5e		 pop	 esi

; 815  : 	}
; 816  : 	
; 817  : 	return FALSE;
; 818  : }

  002e3	5d		 pop	 ebp
  002e4	c3		 ret	 0
$LN8@NpcAngelKi:

; 779  : 			}
; 780  : 		}
; 781  : 		else
; 782  : 		{
; 783  : 			LogAdd(LOG_BLACK, "[Blood Castle] (%d) (Account:%s, Name:%s) Winner Already Exist !!",
; 784  : 				lpNpc->MapNumber-10, lpObj->AccountID, lpObj->Name);

  002e5	8b 55 08	 mov	 edx, DWORD PTR _lpNpc$[ebp]
  002e8	0f b6 82 09 01
	00 00		 movzx	 eax, BYTE PTR [edx+265]
  002ef	57		 push	 edi
  002f0	53		 push	 ebx
  002f1	83 e8 0a	 sub	 eax, 10			; 0000000aH
  002f4	50		 push	 eax
  002f5	68 00 00 00 00	 push	 OFFSET ??_C@_0EC@IJDIINJB@?$FLBlood?5Castle?$FN?5?$CI?$CFd?$CJ?5?$CIAccount?3?$CFs?0@
  002fa	6a 00		 push	 0
  002fc	e8 00 00 00 00	 call	 ?LogAdd@@YAXW4eLogColor@@PADZZ ; LogAdd
  00301	83 c4 14	 add	 esp, 20			; 00000014H
  00304	5f		 pop	 edi
  00305	5b		 pop	 ebx
  00306	33 c0		 xor	 eax, eax
  00308	5e		 pop	 esi

; 815  : 	}
; 816  : 	
; 817  : 	return FALSE;
; 818  : }

  00309	5d		 pop	 ebp
  0030a	c3		 ret	 0
$LN11@NpcAngelKi:

; 790  : 	}
; 791  : 	else
; 792  : 	{
; 793  : 		if ( g_BloodCastle.CheckUserWinnerParty(lpObj->m_cBloodCastleIndex, lpObj->m_Index) == TRUE )

  0030b	8b 0e		 mov	 ecx, DWORD PTR [esi]
  0030d	0f be 96 02 0d
	00 00		 movsx	 edx, BYTE PTR [esi+3330]
  00314	51		 push	 ecx
  00315	52		 push	 edx
  00316	b9 00 00 00 00	 mov	 ecx, OFFSET ?g_BloodCastle@@3VCBloodCastle@@A ; g_BloodCastle
  0031b	e8 00 00 00 00	 call	 ?CheckUserWinnerParty@CBloodCastle@@QAE_NHH@Z ; CBloodCastle::CheckUserWinnerParty
  00320	3c 01		 cmp	 al, 1
  00322	75 76		 jne	 SHORT $LN3@NpcAngelKi

; 794  : 		{
; 795  : 			lpObj->m_bBloodCastleComplete = true;

  00324	88 86 08 0d 00
	00		 mov	 BYTE PTR [esi+3336], al

; 796  : 
; 797  : 			if ( g_BloodCastle.CheckPartyExist(lpObj->m_Index) == FALSE )

  0032a	8b 06		 mov	 eax, DWORD PTR [esi]
  0032c	50		 push	 eax
  0032d	b9 00 00 00 00	 mov	 ecx, OFFSET ?g_BloodCastle@@3VCBloodCastle@@A ; g_BloodCastle
  00332	e8 00 00 00 00	 call	 ?CheckPartyExist@CBloodCastle@@QAE_NH@Z ; CBloodCastle::CheckPartyExist

; 798  : 			{
; 799  : 				GCServerCmd(lpObj->m_Index, 1, 0x17, 0);

  00337	8b 0e		 mov	 ecx, DWORD PTR [esi]
  00339	6a 00		 push	 0
  0033b	6a 17		 push	 23			; 00000017H
  0033d	6a 01		 push	 1
  0033f	51		 push	 ecx
  00340	84 c0		 test	 al, al
  00342	75 2b		 jne	 SHORT $LN2@NpcAngelKi
  00344	e8 00 00 00 00	 call	 ?GCServerCmd@@YAXHEEE@Z	; GCServerCmd

; 800  : 
; 801  : 				LogAdd(LOG_BLACK, "[Blood Castle] (%d) (Account:%s, Name:%s) Succeed Blood Castle Quest",
; 802  : 					lpNpc->MapNumber-10, lpObj->AccountID, lpObj->Name);

  00349	8b 55 08	 mov	 edx, DWORD PTR _lpNpc$[ebp]
  0034c	0f b6 82 09 01
	00 00		 movzx	 eax, BYTE PTR [edx+265]
  00353	57		 push	 edi
  00354	53		 push	 ebx
  00355	83 e8 0a	 sub	 eax, 10			; 0000000aH
  00358	50		 push	 eax
  00359	68 00 00 00 00	 push	 OFFSET ??_C@_0EF@JFCICCDP@?$FLBlood?5Castle?$FN?5?$CI?$CFd?$CJ?5?$CIAccount?3?$CFs?0@

; 807  : 				LogAdd(LOG_BLACK, "[Blood Castle] (%d) (Account:%s, Name:%s) Succeed Blood Castle Quest - More Party to register",
; 808  : 					lpNpc->MapNumber-10, lpObj->AccountID, lpObj->Name);

  0035e	6a 00		 push	 0
  00360	e8 00 00 00 00	 call	 ?LogAdd@@YAXW4eLogColor@@PADZZ ; LogAdd
  00365	83 c4 24	 add	 esp, 36			; 00000024H
  00368	5f		 pop	 edi
  00369	5b		 pop	 ebx
  0036a	33 c0		 xor	 eax, eax
  0036c	5e		 pop	 esi

; 815  : 	}
; 816  : 	
; 817  : 	return FALSE;
; 818  : }

  0036d	5d		 pop	 ebp
  0036e	c3		 ret	 0
$LN2@NpcAngelKi:

; 803  : 			}
; 804  : 			else
; 805  : 			{
; 806  : 				GCServerCmd(lpObj->m_Index, 1, 0x17, 0);

  0036f	e8 00 00 00 00	 call	 ?GCServerCmd@@YAXHEEE@Z	; GCServerCmd

; 807  : 				LogAdd(LOG_BLACK, "[Blood Castle] (%d) (Account:%s, Name:%s) Succeed Blood Castle Quest - More Party to register",
; 808  : 					lpNpc->MapNumber-10, lpObj->AccountID, lpObj->Name);

  00374	8b 55 08	 mov	 edx, DWORD PTR _lpNpc$[ebp]
  00377	0f b6 82 09 01
	00 00		 movzx	 eax, BYTE PTR [edx+265]
  0037e	57		 push	 edi
  0037f	53		 push	 ebx
  00380	83 e8 0a	 sub	 eax, 10			; 0000000aH
  00383	50		 push	 eax
  00384	68 00 00 00 00	 push	 OFFSET ??_C@_0FO@BJDLMIAN@?$FLBlood?5Castle?$FN?5?$CI?$CFd?$CJ?5?$CIAccount?3?$CFs?0@
  00389	6a 00		 push	 0
  0038b	e8 00 00 00 00	 call	 ?LogAdd@@YAXW4eLogColor@@PADZZ ; LogAdd
  00390	83 c4 24	 add	 esp, 36			; 00000024H
  00393	5f		 pop	 edi
  00394	5b		 pop	 ebx
  00395	33 c0		 xor	 eax, eax
  00397	5e		 pop	 esi

; 815  : 	}
; 816  : 	
; 817  : 	return FALSE;
; 818  : }

  00398	5d		 pop	 ebp
  00399	c3		 ret	 0
$LN3@NpcAngelKi:

; 809  : 			}
; 810  : 
; 811  : 			return FALSE;
; 812  : 		}
; 813  : 
; 814  : 		GCServerCmd(lpObj->m_Index, 1, 0x18, 0);

  0039a	8b 0e		 mov	 ecx, DWORD PTR [esi]
  0039c	6a 00		 push	 0
  0039e	6a 18		 push	 24			; 00000018H
  003a0	6a 01		 push	 1
  003a2	51		 push	 ecx
  003a3	e8 00 00 00 00	 call	 ?GCServerCmd@@YAXHEEE@Z	; GCServerCmd
  003a8	83 c4 10	 add	 esp, 16			; 00000010H
  003ab	5f		 pop	 edi
  003ac	5b		 pop	 ebx
  003ad	33 c0		 xor	 eax, eax
  003af	5e		 pop	 esi

; 815  : 	}
; 816  : 	
; 817  : 	return FALSE;
; 818  : }

  003b0	5d		 pop	 ebp
  003b1	c3		 ret	 0
$LN13@NpcAngelKi:

; 720  : 	{
; 721  : 		GCServerCmd(lpObj->m_Index, 1, 0x18, 0);

  003b2	8b 16		 mov	 edx, DWORD PTR [esi]
  003b4	6a 00		 push	 0
  003b6	6a 18		 push	 24			; 00000018H
  003b8	6a 01		 push	 1
  003ba	52		 push	 edx
  003bb	e8 00 00 00 00	 call	 ?GCServerCmd@@YAXHEEE@Z	; GCServerCmd
  003c0	83 c4 10	 add	 esp, 16			; 00000010H
  003c3	5f		 pop	 edi
  003c4	5b		 pop	 ebx

; 722  : 		return FALSE;

  003c5	33 c0		 xor	 eax, eax
  003c7	5e		 pop	 esi

; 815  : 	}
; 816  : 	
; 817  : 	return FALSE;
; 818  : }

  003c8	5d		 pop	 ebp
  003c9	c3		 ret	 0
?NpcAngelKing@@YAHPAUOBJECTSTRUCT@@0@Z ENDP		; NpcAngelKing
_TEXT	ENDS
PUBLIC	__$ArrayPad$
PUBLIC	?NpcAngelMessanger@@YAHPAUOBJECTSTRUCT@@0@Z	; NpcAngelMessanger
EXTRN	?CheckCanEnter@CBloodCastle@@QAE_NH@Z:PROC	; CBloodCastle::CheckCanEnter
EXTRN	?CheckEnterFreeTicket@CBloodCastle@@QAE_NH@Z:PROC ; CBloodCastle::CheckEnterFreeTicket
EXTRN	?CheckEnterLevel@CBloodCastle@@QAEHHH@Z:PROC	; CBloodCastle::CheckEnterLevel
EXTRN	?CheckEnterItem@CBloodCastle@@QAEHH@Z:PROC	; CBloodCastle::CheckEnterItem
EXTRN	?gObj@@3PAUOBJECTSTRUCT@@A:BYTE			; gObj
; Function compile flags: /Ogtp
;	COMDAT ?NpcAngelMessanger@@YAHPAUOBJECTSTRUCT@@0@Z
_TEXT	SEGMENT
_pMsg$155286 = -16					; size = 10
__$ArrayPad$ = -4					; size = 4
_lpNpc$ = 8						; size = 4
_lpObj$ = 12						; size = 4
?NpcAngelMessanger@@YAHPAUOBJECTSTRUCT@@0@Z PROC	; NpcAngelMessanger, COMDAT

; 823  : {

  00000	55		 push	 ebp
  00001	8b ec		 mov	 ebp, esp
  00003	83 ec 10	 sub	 esp, 16			; 00000010H
  00006	a1 00 00 00 00	 mov	 eax, DWORD PTR ___security_cookie
  0000b	33 c5		 xor	 eax, ebp
  0000d	89 45 fc	 mov	 DWORD PTR __$ArrayPad$[ebp], eax
  00010	53		 push	 ebx
  00011	8b 5d 0c	 mov	 ebx, DWORD PTR _lpObj$[ebp]

; 824  : 	if ( (lpObj->m_IfState.use ) > 0 )

  00014	f6 83 84 0c 00
	00 03		 test	 BYTE PTR [ebx+3204], 3

; 825  : 	{
; 826  : 		return TRUE;

  0001b	77 22		 ja	 SHORT $LN20@NpcAngelMe

; 827  : 	}
; 828  : 
; 829  : 	int iIndex = lpObj->m_Index;

  0001d	8b 03		 mov	 eax, DWORD PTR [ebx]

; 830  : 
; 831  : 	if ( gObj[iIndex].m_PK_Level >= 4 )

  0001f	8b c8		 mov	 ecx, eax
  00021	69 c9 64 15 00
	00		 imul	 ecx, 5476		; 00001564H
  00027	80 b9 fd 00 00
	00 04		 cmp	 BYTE PTR ?gObj@@3PAUOBJECTSTRUCT@@A[ecx+253], 4
  0002e	7c 23		 jl	 SHORT $LN12@NpcAngelMe

; 832  : 	{
; 833  : 		GCServerCmd(iIndex, 0x39, 0, 0);

  00030	6a 00		 push	 0
  00032	6a 00		 push	 0
  00034	6a 39		 push	 57			; 00000039H
  00036	50		 push	 eax
  00037	e8 00 00 00 00	 call	 ?GCServerCmd@@YAXHEEE@Z	; GCServerCmd
  0003c	83 c4 10	 add	 esp, 16			; 00000010H
$LN20@NpcAngelMe:

; 834  : 		return TRUE;

  0003f	b8 01 00 00 00	 mov	 eax, 1
  00044	5b		 pop	 ebx

; 887  : }

  00045	8b 4d fc	 mov	 ecx, DWORD PTR __$ArrayPad$[ebp]
  00048	33 cd		 xor	 ecx, ebp
  0004a	e8 00 00 00 00	 call	 @__security_check_cookie@4
  0004f	8b e5		 mov	 esp, ebp
  00051	5d		 pop	 ebp
  00052	c3		 ret	 0
$LN12@NpcAngelMe:
  00053	57		 push	 edi

; 835  : 	}
; 836  : 
; 837  : 	int iITEM_LEVEL = 0;
; 838  : 
; 839  : 	iITEM_LEVEL = g_BloodCastle.CheckEnterItem(lpObj->m_Index);

  00054	50		 push	 eax
  00055	b9 00 00 00 00	 mov	 ecx, OFFSET ?g_BloodCastle@@3VCBloodCastle@@A ; g_BloodCastle
  0005a	e8 00 00 00 00	 call	 ?CheckEnterItem@CBloodCastle@@QAEHH@Z ; CBloodCastle::CheckEnterItem
  0005f	8b f8		 mov	 edi, eax

; 840  : 
; 841  : 	if ( iITEM_LEVEL != 0 )

  00061	85 ff		 test	 edi, edi
  00063	0f 84 c6 00 00
	00		 je	 $LN11@NpcAngelMe

; 842  : 	{
; 843  : 		if ( iITEM_LEVEL != 10 && g_BloodCastle.CheckEnterLevel(lpObj->m_Index, iITEM_LEVEL-1) )

  00069	83 ff 0a	 cmp	 edi, 10			; 0000000aH
  0006c	74 2b		 je	 SHORT $LN18@NpcAngelMe
  0006e	8b 03		 mov	 eax, DWORD PTR [ebx]
  00070	8d 57 ff	 lea	 edx, DWORD PTR [edi-1]
  00073	52		 push	 edx
  00074	50		 push	 eax
  00075	b9 00 00 00 00	 mov	 ecx, OFFSET ?g_BloodCastle@@3VCBloodCastle@@A ; g_BloodCastle
  0007a	e8 00 00 00 00	 call	 ?CheckEnterLevel@CBloodCastle@@QAEHHH@Z ; CBloodCastle::CheckEnterLevel
  0007f	85 c0		 test	 eax, eax
  00081	74 38		 je	 SHORT $LN5@NpcAngelMe

; 844  : 		{
; 845  : 			if ( g_BloodCastle.CheckEnterFreeTicket(lpObj->m_Index) == true )

  00083	8b 0b		 mov	 ecx, DWORD PTR [ebx]
  00085	51		 push	 ecx
  00086	b9 00 00 00 00	 mov	 ecx, OFFSET ?g_BloodCastle@@3VCBloodCastle@@A ; g_BloodCastle
  0008b	e8 00 00 00 00	 call	 ?CheckEnterFreeTicket@CBloodCastle@@QAE_NH@Z ; CBloodCastle::CheckEnterFreeTicket
  00090	3c 01		 cmp	 al, 1
  00092	75 27		 jne	 SHORT $LN5@NpcAngelMe

; 846  : 			{
; 847  : 				iITEM_LEVEL = 10;

  00094	bf 0a 00 00 00	 mov	 edi, 10			; 0000000aH
$LN18@NpcAngelMe:
  00099	56		 push	 esi

; 848  : 			}
; 849  : 		}
; 850  : 
; 851  : 		if ( iITEM_LEVEL == 10 )
; 852  : 		{
; 853  : 			for (int i=0;i<MAX_CLOACK_LEVEL;i++)

  0009a	33 f6		 xor	 esi, esi
  0009c	8d 64 24 00	 npad	 4
$LL7@NpcAngelMe:

; 854  : 			{
; 855  : 				if ( g_BloodCastle.CheckEnterLevel(lpObj->m_Index, i) == FALSE )

  000a0	8b 13		 mov	 edx, DWORD PTR [ebx]
  000a2	56		 push	 esi
  000a3	52		 push	 edx
  000a4	b9 00 00 00 00	 mov	 ecx, OFFSET ?g_BloodCastle@@3VCBloodCastle@@A ; g_BloodCastle
  000a9	e8 00 00 00 00	 call	 ?CheckEnterLevel@CBloodCastle@@QAEHHH@Z ; CBloodCastle::CheckEnterLevel
  000ae	85 c0		 test	 eax, eax
  000b0	75 02		 jne	 SHORT $LN6@NpcAngelMe

; 856  : 				{
; 857  : 					iITEM_LEVEL = i;

  000b2	8b fe		 mov	 edi, esi
$LN6@NpcAngelMe:

; 848  : 			}
; 849  : 		}
; 850  : 
; 851  : 		if ( iITEM_LEVEL == 10 )
; 852  : 		{
; 853  : 			for (int i=0;i<MAX_CLOACK_LEVEL;i++)

  000b4	46		 inc	 esi
  000b5	83 fe 08	 cmp	 esi, 8
  000b8	7c e6		 jl	 SHORT $LL7@NpcAngelMe
  000ba	5e		 pop	 esi
$LN5@NpcAngelMe:

; 858  : 				}
; 859  : 			}
; 860  : 		}
; 861  : 
; 862  : 		if ( g_BloodCastle.GetCurrentState(iITEM_LEVEL-1) == BC_STATE_CLOSED && g_BloodCastle.CheckCanEnter(iITEM_LEVEL-1) != false )

  000bb	4f		 dec	 edi
  000bc	57		 push	 edi
  000bd	b9 00 00 00 00	 mov	 ecx, OFFSET ?g_BloodCastle@@3VCBloodCastle@@A ; g_BloodCastle
  000c2	e8 00 00 00 00	 call	 ?GetCurrentState@CBloodCastle@@QAEHH@Z ; CBloodCastle::GetCurrentState
  000c7	83 f8 01	 cmp	 eax, 1
  000ca	75 58		 jne	 SHORT $LN3@NpcAngelMe
  000cc	57		 push	 edi
  000cd	b9 00 00 00 00	 mov	 ecx, OFFSET ?g_BloodCastle@@3VCBloodCastle@@A ; g_BloodCastle
  000d2	e8 00 00 00 00	 call	 ?CheckCanEnter@CBloodCastle@@QAE_NH@Z ; CBloodCastle::CheckCanEnter
  000d7	84 c0		 test	 al, al
  000d9	74 49		 je	 SHORT $LN3@NpcAngelMe

; 863  : 		{
; 864  : 			PMSG_TALKRESULT pMsg;
; 865  : 
; 866  : 			pMsg.h.c = 0xC3;
; 867  : 			pMsg.h.headcode = 0x30;
; 868  : 			pMsg.h.size = sizeof(pMsg);
; 869  : 			pMsg.result = 0x06;
; 870  : 
; 871  : 			DataSend(lpObj->m_Index, (LPBYTE)&pMsg, pMsg.h.size);

  000db	8b 0b		 mov	 ecx, DWORD PTR [ebx]
  000dd	6a 0a		 push	 10			; 0000000aH
  000df	8d 45 f0	 lea	 eax, DWORD PTR _pMsg$155286[ebp]
  000e2	50		 push	 eax
  000e3	51		 push	 ecx
  000e4	c6 45 f0 c3	 mov	 BYTE PTR _pMsg$155286[ebp], 195 ; 000000c3H
  000e8	66 c7 45 f1 0a
	30		 mov	 WORD PTR _pMsg$155286[ebp+1], 12298 ; 0000300aH
  000ee	c6 45 f3 06	 mov	 BYTE PTR _pMsg$155286[ebp+3], 6
  000f2	e8 00 00 00 00	 call	 ?DataSend@@YAHHPAEK@Z	; DataSend

; 872  : 
; 873  : 			lpObj->m_IfState.use = 1;
; 874  : 			lpObj->m_IfState.type = 12;

  000f7	8b 93 84 0c 00
	00		 mov	 edx, DWORD PTR [ebx+3204]
  000fd	83 c4 0c	 add	 esp, 12			; 0000000cH
  00100	81 e2 3d 03 ff
	ff		 and	 edx, -64707		; ffff033dH
  00106	81 ca 01 03 00
	00		 or	 edx, 769		; 00000301H
  0010c	5f		 pop	 edi
  0010d	89 93 84 0c 00
	00		 mov	 DWORD PTR [ebx+3204], edx

; 884  : 	}
; 885  : 
; 886  : 	return FALSE;

  00113	33 c0		 xor	 eax, eax
  00115	5b		 pop	 ebx

; 887  : }

  00116	8b 4d fc	 mov	 ecx, DWORD PTR __$ArrayPad$[ebp]
  00119	33 cd		 xor	 ecx, ebp
  0011b	e8 00 00 00 00	 call	 @__security_check_cookie@4
  00120	8b e5		 mov	 esp, ebp
  00122	5d		 pop	 ebp
  00123	c3		 ret	 0
$LN3@NpcAngelMe:

; 875  : 		}
; 876  : 		else
; 877  : 		{
; 878  : 			GCServerCmd(lpObj->m_Index, 1, 0x14, 0);

  00124	8b 03		 mov	 eax, DWORD PTR [ebx]
  00126	6a 00		 push	 0
  00128	6a 14		 push	 20			; 00000014H
  0012a	6a 01		 push	 1
  0012c	50		 push	 eax

; 879  : 		}
; 880  : 	}
; 881  : 	else

  0012d	eb 09		 jmp	 SHORT $LN19@NpcAngelMe
$LN11@NpcAngelMe:

; 882  : 	{
; 883  : 		GCServerCmd(lpObj->m_Index, 1, 0x15, 0);

  0012f	8b 0b		 mov	 ecx, DWORD PTR [ebx]
  00131	6a 00		 push	 0
  00133	6a 15		 push	 21			; 00000015H
  00135	6a 01		 push	 1
  00137	51		 push	 ecx
$LN19@NpcAngelMe:
  00138	e8 00 00 00 00	 call	 ?GCServerCmd@@YAXHEEE@Z	; GCServerCmd

; 887  : }

  0013d	8b 4d fc	 mov	 ecx, DWORD PTR __$ArrayPad$[ebp]
  00140	83 c4 10	 add	 esp, 16			; 00000010H
  00143	5f		 pop	 edi
  00144	33 cd		 xor	 ecx, ebp
  00146	33 c0		 xor	 eax, eax
  00148	5b		 pop	 ebx
  00149	e8 00 00 00 00	 call	 @__security_check_cookie@4
  0014e	8b e5		 mov	 esp, ebp
  00150	5d		 pop	 ebp
  00151	c3		 ret	 0
?NpcAngelMessanger@@YAHPAUOBJECTSTRUCT@@0@Z ENDP	; NpcAngelMessanger
_TEXT	ENDS
PUBLIC	?NpcRolensiaMadam@@YAHPAUOBJECTSTRUCT@@0@Z	; NpcRolensiaMadam
; Function compile flags: /Ogtp
;	COMDAT ?NpcRolensiaMadam@@YAHPAUOBJECTSTRUCT@@0@Z
_TEXT	SEGMENT
_lpNpc$ = 8						; size = 4
_lpObj$ = 12						; size = 4
?NpcRolensiaMadam@@YAHPAUOBJECTSTRUCT@@0@Z PROC		; NpcRolensiaMadam, COMDAT

; 894  : 	return FALSE;

  00000	33 c0		 xor	 eax, eax

; 895  : }

  00002	c3		 ret	 0
?NpcRolensiaMadam@@YAHPAUOBJECTSTRUCT@@0@Z ENDP		; NpcRolensiaMadam
_TEXT	ENDS
PUBLIC	?NpcDeviasWeapon@@YAHPAUOBJECTSTRUCT@@0@Z	; NpcDeviasWeapon
; Function compile flags: /Ogtp
;	COMDAT ?NpcDeviasWeapon@@YAHPAUOBJECTSTRUCT@@0@Z
_TEXT	SEGMENT
_lpNpc$ = 8						; size = 4
_lpObj$ = 12						; size = 4
?NpcDeviasWeapon@@YAHPAUOBJECTSTRUCT@@0@Z PROC		; NpcDeviasWeapon, COMDAT

; 903  : 	return FALSE;

  00000	33 c0		 xor	 eax, eax

; 904  : }

  00002	c3		 ret	 0
?NpcDeviasWeapon@@YAHPAUOBJECTSTRUCT@@0@Z ENDP		; NpcDeviasWeapon
_TEXT	ENDS
PUBLIC	??_C@_0BI@EKFBANFN@?$FL?$CFs?$FN?$FL?$CFs?$FN?5Open?5Chaos?5Box?$AA@ ; `string'
PUBLIC	__$ArrayPad$
PUBLIC	?NpcDarkSpiritTrainer@@YAHPAUOBJECTSTRUCT@@0@Z	; NpcDarkSpiritTrainer
EXTRN	?gObjInventoryTrans@@YAHH@Z:PROC		; gObjInventoryTrans
EXTRN	?GCAnsCsMapSvrTaxInfo@@YAXHEE@Z:PROC		; GCAnsCsMapSvrTaxInfo
EXTRN	?GetTaxRateChaos@CCastleSiegeSync@@QAEHH@Z:PROC	; CCastleSiegeSync::GetTaxRateChaos
EXTRN	?g_CastleSiegeSync@@3VCCastleSiegeSync@@A:BYTE	; g_CastleSiegeSync
EXTRN	?gDQChaosSuccessRateLevel6@@3HA:DWORD		; gDQChaosSuccessRateLevel6
EXTRN	?gDQChaosSuccessRateLevel5@@3HA:DWORD		; gDQChaosSuccessRateLevel5
EXTRN	?gDQChaosSuccessRateLevel4@@3HA:DWORD		; gDQChaosSuccessRateLevel4
EXTRN	?gDQChaosSuccessRateLevel3@@3HA:DWORD		; gDQChaosSuccessRateLevel3
EXTRN	?gDQChaosSuccessRateLevel2@@3HA:DWORD		; gDQChaosSuccessRateLevel2
EXTRN	?gDQChaosSuccessRateLevel1@@3HA:DWORD		; gDQChaosSuccessRateLevel1
;	COMDAT ??_C@_0BI@EKFBANFN@?$FL?$CFs?$FN?$FL?$CFs?$FN?5Open?5Chaos?5Box?$AA@
CONST	SEGMENT
??_C@_0BI@EKFBANFN@?$FL?$CFs?$FN?$FL?$CFs?$FN?5Open?5Chaos?5Box?$AA@ DB '['
	DB	'%s][%s] Open Chaos Box', 00H		; `string'
; Function compile flags: /Ogtp
CONST	ENDS
;	COMDAT ?NpcDarkSpiritTrainer@@YAHPAUOBJECTSTRUCT@@0@Z
_TEXT	SEGMENT
_pMsg$155303 = -16					; size = 10
__$ArrayPad$ = -4					; size = 4
_lpNpc$ = 8						; size = 4
_lpObj$ = 12						; size = 4
?NpcDarkSpiritTrainer@@YAHPAUOBJECTSTRUCT@@0@Z PROC	; NpcDarkSpiritTrainer, COMDAT

; 910  : {

  00000	55		 push	 ebp
  00001	8b ec		 mov	 ebp, esp
  00003	83 ec 10	 sub	 esp, 16			; 00000010H
  00006	a1 00 00 00 00	 mov	 eax, DWORD PTR ___security_cookie
  0000b	33 c5		 xor	 eax, ebp
  0000d	89 45 fc	 mov	 DWORD PTR __$ArrayPad$[ebp], eax

; 911  : 	if ( bCanChaosBox == TRUE )

  00010	83 3d 00 00 00
	00 01		 cmp	 DWORD PTR ?bCanChaosBox@@3HA, 1 ; bCanChaosBox
  00017	56		 push	 esi
  00018	8b 75 0c	 mov	 esi, DWORD PTR _lpObj$[ebp]
  0001b	0f 85 0c 01 00
	00		 jne	 $LN2@NpcDarkSpi

; 912  : 	{
; 913  : 		PMSG_TALKRESULT pMsg;
; 914  : 
; 915  : 		pMsg.h.c = 0xC3;
; 916  : 		pMsg.h.headcode = 0x30;
; 917  : 		pMsg.h.size = sizeof(pMsg);
; 918  : 		
; 919  : 		if ( lpObj->m_bPShopOpen == true )

  00021	80 be 28 0d 00
	00 01		 cmp	 BYTE PTR [esi+3368], 1
  00028	c6 45 f0 c3	 mov	 BYTE PTR _pMsg$155303[ebp], 195 ; 000000c3H
  0002c	66 c7 45 f1 0a
	30		 mov	 WORD PTR _pMsg$155303[ebp+1], 12298 ; 0000300aH
  00032	75 48		 jne	 SHORT $LN1@NpcDarkSpi

; 920  : 		{
; 921  : 			LogAdd(LOG_BLACK, "[%s][%s] is Already Opening PShop, ChaosBox Failed",
; 922  : 				lpObj->AccountID, lpObj->Name);

  00034	8d 46 6f	 lea	 eax, DWORD PTR [esi+111]
  00037	50		 push	 eax
  00038	8d 4e 64	 lea	 ecx, DWORD PTR [esi+100]
  0003b	51		 push	 ecx
  0003c	68 00 00 00 00	 push	 OFFSET ??_C@_0DD@KJEEOOOJ@?$FL?$CFs?$FN?$FL?$CFs?$FN?5is?5Already?5Opening?5PSho@
  00041	6a 00		 push	 0
  00043	e8 00 00 00 00	 call	 ?LogAdd@@YAXW4eLogColor@@PADZZ ; LogAdd

; 923  : 			GCServerMsgStringSend(lMsg.Get(MSGGET(4, 194)), lpObj->m_Index, 1);

  00048	8b 16		 mov	 edx, DWORD PTR [esi]
  0004a	83 c4 10	 add	 esp, 16			; 00000010H
  0004d	6a 01		 push	 1
  0004f	52		 push	 edx
  00050	68 c2 04 00 00	 push	 1218			; 000004c2H
  00055	b9 00 00 00 00	 mov	 ecx, OFFSET ?lMsg@@3VCMsg@@A ; lMsg
  0005a	e8 00 00 00 00	 call	 ?Get@CMsg@@QAEPADH@Z	; CMsg::Get
  0005f	50		 push	 eax
  00060	e8 00 00 00 00	 call	 ?GCServerMsgStringSend@@YAXPADHE@Z ; GCServerMsgStringSend
  00065	83 c4 0c	 add	 esp, 12			; 0000000cH

; 949  : 	}
; 950  : 
; 951  : 	return TRUE;

  00068	b8 01 00 00 00	 mov	 eax, 1
  0006d	5e		 pop	 esi

; 952  : }

  0006e	8b 4d fc	 mov	 ecx, DWORD PTR __$ArrayPad$[ebp]
  00071	33 cd		 xor	 ecx, ebp
  00073	e8 00 00 00 00	 call	 @__security_check_cookie@4
  00078	8b e5		 mov	 esp, ebp
  0007a	5d		 pop	 ebp
  0007b	c3		 ret	 0
$LN1@NpcDarkSpi:

; 924  : 
; 925  : 			return TRUE;
; 926  : 		}
; 927  : 
; 928  : 		lpObj->m_IfState.type = 13;
; 929  : 		lpObj->m_IfState.state = 0;
; 930  : 		lpObj->m_IfState.use = 1;

  0007c	8b 86 84 0c 00
	00		 mov	 eax, DWORD PTR [esi+3204]
  00082	25 41 03 ff ff	 and	 eax, -64703		; ffff0341H

; 931  : 		
; 932  : 		pMsg.result = 0x07;
; 933  : 		lpObj->bIsChaosMixCompleted = false;

  00087	c6 86 ba 10 00
	00 00		 mov	 BYTE PTR [esi+4282], 0
  0008e	0d 41 03 00 00	 or	 eax, 833		; 00000341H
  00093	89 86 84 0c 00
	00		 mov	 DWORD PTR [esi+3204], eax

; 934  : 		pMsg.level1 = gDQChaosSuccessRateLevel1;

  00099	0f b6 0d 00 00
	00 00		 movzx	 ecx, BYTE PTR ?gDQChaosSuccessRateLevel1@@3HA

; 935  : 		pMsg.level2 = gDQChaosSuccessRateLevel2;

  000a0	0f b6 15 00 00
	00 00		 movzx	 edx, BYTE PTR ?gDQChaosSuccessRateLevel2@@3HA

; 936  : 		pMsg.level3 = gDQChaosSuccessRateLevel3;

  000a7	0f b6 05 00 00
	00 00		 movzx	 eax, BYTE PTR ?gDQChaosSuccessRateLevel3@@3HA
  000ae	88 4d f4	 mov	 BYTE PTR _pMsg$155303[ebp+4], cl

; 937  : 		pMsg.level4 = gDQChaosSuccessRateLevel4;

  000b1	0f b6 0d 00 00
	00 00		 movzx	 ecx, BYTE PTR ?gDQChaosSuccessRateLevel4@@3HA
  000b8	88 55 f5	 mov	 BYTE PTR _pMsg$155303[ebp+5], dl

; 938  : 		pMsg.level5 = gDQChaosSuccessRateLevel5;

  000bb	0f b6 15 00 00
	00 00		 movzx	 edx, BYTE PTR ?gDQChaosSuccessRateLevel5@@3HA
  000c2	88 4d f7	 mov	 BYTE PTR _pMsg$155303[ebp+7], cl
  000c5	88 45 f6	 mov	 BYTE PTR _pMsg$155303[ebp+6], al

; 939  : 		pMsg.level6 = gDQChaosSuccessRateLevel6;

  000c8	0f b6 05 00 00
	00 00		 movzx	 eax, BYTE PTR ?gDQChaosSuccessRateLevel6@@3HA

; 940  : 
; 941  : 		DataSend(lpObj->m_Index, (LPBYTE)&pMsg, pMsg.h.size);

  000cf	6a 0a		 push	 10			; 0000000aH
  000d1	8d 4d f0	 lea	 ecx, DWORD PTR _pMsg$155303[ebp]
  000d4	88 55 f8	 mov	 BYTE PTR _pMsg$155303[ebp+8], dl
  000d7	8b 16		 mov	 edx, DWORD PTR [esi]
  000d9	51		 push	 ecx
  000da	52		 push	 edx
  000db	c6 45 f3 07	 mov	 BYTE PTR _pMsg$155303[ebp+3], 7
  000df	88 45 f9	 mov	 BYTE PTR _pMsg$155303[ebp+9], al
  000e2	e8 00 00 00 00	 call	 ?DataSend@@YAHHPAEK@Z	; DataSend

; 942  : 
; 943  : 		GCAnsCsMapSvrTaxInfo(lpObj->m_Index, 1, g_CastleSiegeSync.GetTaxRateChaos(lpObj->m_Index));

  000e7	8b 06		 mov	 eax, DWORD PTR [esi]
  000e9	83 c4 0c	 add	 esp, 12			; 0000000cH
  000ec	50		 push	 eax
  000ed	b9 00 00 00 00	 mov	 ecx, OFFSET ?g_CastleSiegeSync@@3VCCastleSiegeSync@@A ; g_CastleSiegeSync
  000f2	e8 00 00 00 00	 call	 ?GetTaxRateChaos@CCastleSiegeSync@@QAEHH@Z ; CCastleSiegeSync::GetTaxRateChaos
  000f7	8b 0e		 mov	 ecx, DWORD PTR [esi]
  000f9	50		 push	 eax
  000fa	6a 01		 push	 1
  000fc	51		 push	 ecx
  000fd	e8 00 00 00 00	 call	 ?GCAnsCsMapSvrTaxInfo@@YAXHEE@Z ; GCAnsCsMapSvrTaxInfo

; 944  : 		gObjInventoryTrans(lpObj->m_Index);

  00102	8b 16		 mov	 edx, DWORD PTR [esi]
  00104	52		 push	 edx
  00105	e8 00 00 00 00	 call	 ?gObjInventoryTrans@@YAHH@Z ; gObjInventoryTrans

; 945  : 
; 946  : 		LogAdd(LOG_BLACK, "[%s][%s] Open Chaos Box", lpObj->AccountID, lpObj->Name);

  0010a	8d 46 6f	 lea	 eax, DWORD PTR [esi+111]
  0010d	50		 push	 eax
  0010e	8d 4e 64	 lea	 ecx, DWORD PTR [esi+100]
  00111	51		 push	 ecx
  00112	68 00 00 00 00	 push	 OFFSET ??_C@_0BI@EKFBANFN@?$FL?$CFs?$FN?$FL?$CFs?$FN?5Open?5Chaos?5Box?$AA@
  00117	6a 00		 push	 0
  00119	e8 00 00 00 00	 call	 ?LogAdd@@YAXW4eLogColor@@PADZZ ; LogAdd

; 947  : 		gObjItemTextSave(lpObj);

  0011e	56		 push	 esi
  0011f	e8 00 00 00 00	 call	 ?gObjItemTextSave@@YAXPAUOBJECTSTRUCT@@@Z ; gObjItemTextSave

; 948  : 		gObjWarehouseTextSave(lpObj);

  00124	56		 push	 esi
  00125	e8 00 00 00 00	 call	 ?gObjWarehouseTextSave@@YAXPAUOBJECTSTRUCT@@@Z ; gObjWarehouseTextSave
  0012a	83 c4 28	 add	 esp, 40			; 00000028H
$LN2@NpcDarkSpi:

; 952  : }

  0012d	8b 4d fc	 mov	 ecx, DWORD PTR __$ArrayPad$[ebp]
  00130	33 cd		 xor	 ecx, ebp
  00132	b8 01 00 00 00	 mov	 eax, 1
  00137	5e		 pop	 esi
  00138	e8 00 00 00 00	 call	 @__security_check_cookie@4
  0013d	8b e5		 mov	 esp, ebp
  0013f	5d		 pop	 ebp
  00140	c3		 ret	 0
?NpcDarkSpiritTrainer@@YAHPAUOBJECTSTRUCT@@0@Z ENDP	; NpcDarkSpiritTrainer
_TEXT	ENDS
PUBLIC	__$ArrayPad$
PUBLIC	?NpcJewelMixDealer@@YAHPAUOBJECTSTRUCT@@0@Z	; NpcJewelMixDealer
; Function compile flags: /Ogtp
;	COMDAT ?NpcJewelMixDealer@@YAHPAUOBJECTSTRUCT@@0@Z
_TEXT	SEGMENT
_pMsg$155313 = -16					; size = 10
__$ArrayPad$ = -4					; size = 4
_lpNpc$ = 8						; size = 4
_lpObj$ = 12						; size = 4
?NpcJewelMixDealer@@YAHPAUOBJECTSTRUCT@@0@Z PROC	; NpcJewelMixDealer, COMDAT

; 959  : {

  00000	55		 push	 ebp
  00001	8b ec		 mov	 ebp, esp
  00003	83 ec 10	 sub	 esp, 16			; 00000010H
  00006	a1 00 00 00 00	 mov	 eax, DWORD PTR ___security_cookie
  0000b	33 c5		 xor	 eax, ebp
  0000d	89 45 fc	 mov	 DWORD PTR __$ArrayPad$[ebp], eax

; 960  : 	if ( bCanChaosBox == TRUE )

  00010	83 3d 00 00 00
	00 01		 cmp	 DWORD PTR ?bCanChaosBox@@3HA, 1 ; bCanChaosBox
  00017	56		 push	 esi
  00018	8b 75 0c	 mov	 esi, DWORD PTR _lpObj$[ebp]
  0001b	75 60		 jne	 SHORT $LN2@NpcJewelMi

; 961  : 	{
; 962  : 		if ( (lpObj->m_IfState.use) > 0 )

  0001d	f6 86 84 0c 00
	00 03		 test	 BYTE PTR [esi+3204], 3

; 963  : 		{
; 964  : 			return TRUE;

  00024	77 57		 ja	 SHORT $LN2@NpcJewelMi

; 965  : 		}
; 966  : 
; 967  : 		PMSG_TALKRESULT pMsg;
; 968  : 
; 969  : 		pMsg.h.c = 0xC3;
; 970  : 		pMsg.h.headcode = 0x30;
; 971  : 		pMsg.h.size = sizeof(pMsg);
; 972  : 		pMsg.result = 0x09;
; 973  : 
; 974  : 		DataSend(lpObj->m_Index, (LPBYTE)&pMsg, pMsg.h.size);

  00026	8b 0e		 mov	 ecx, DWORD PTR [esi]
  00028	6a 0a		 push	 10			; 0000000aH
  0002a	8d 45 f0	 lea	 eax, DWORD PTR _pMsg$155313[ebp]
  0002d	50		 push	 eax
  0002e	51		 push	 ecx
  0002f	c6 45 f0 c3	 mov	 BYTE PTR _pMsg$155313[ebp], 195 ; 000000c3H
  00033	66 c7 45 f1 0a
	30		 mov	 WORD PTR _pMsg$155313[ebp+1], 12298 ; 0000300aH
  00039	c6 45 f3 09	 mov	 BYTE PTR _pMsg$155313[ebp+3], 9
  0003d	e8 00 00 00 00	 call	 ?DataSend@@YAHHPAEK@Z	; DataSend

; 975  : 
; 976  : 		lpObj->m_IfState.use = 1;
; 977  : 		lpObj->m_IfState.type = 12;

  00042	8b 96 84 0c 00
	00		 mov	 edx, DWORD PTR [esi+3204]

; 978  : 
; 979  : 		LogAdd(LOG_BLACK, "[JewelMix] [%s][%s] Jewel Mix Dealer Start", lpObj->AccountID, lpObj->Name);

  00048	8d 46 6f	 lea	 eax, DWORD PTR [esi+111]
  0004b	50		 push	 eax
  0004c	8d 4e 64	 lea	 ecx, DWORD PTR [esi+100]
  0004f	51		 push	 ecx
  00050	81 e2 3d 03 ff
	ff		 and	 edx, -64707		; ffff033dH
  00056	81 ca 01 03 00
	00		 or	 edx, 769		; 00000301H
  0005c	68 00 00 00 00	 push	 OFFSET ??_C@_0CL@KMBDNKMH@?$FLJewelMix?$FN?5?$FL?$CFs?$FN?$FL?$CFs?$FN?5Jewel?5Mix?5De@
  00061	6a 00		 push	 0
  00063	89 96 84 0c 00
	00		 mov	 DWORD PTR [esi+3204], edx
  00069	e8 00 00 00 00	 call	 ?LogAdd@@YAXW4eLogColor@@PADZZ ; LogAdd

; 980  : 
; 981  : 		gObjItemTextSave(lpObj);

  0006e	56		 push	 esi
  0006f	e8 00 00 00 00	 call	 ?gObjItemTextSave@@YAXPAUOBJECTSTRUCT@@@Z ; gObjItemTextSave

; 982  : 		gObjWarehouseTextSave(lpObj);

  00074	56		 push	 esi
  00075	e8 00 00 00 00	 call	 ?gObjWarehouseTextSave@@YAXPAUOBJECTSTRUCT@@@Z ; gObjWarehouseTextSave
  0007a	83 c4 24	 add	 esp, 36			; 00000024H
$LN2@NpcJewelMi:

; 983  : 
; 984  : 	}
; 985  : 
; 986  : 	return TRUE;
; 987  : }

  0007d	8b 4d fc	 mov	 ecx, DWORD PTR __$ArrayPad$[ebp]
  00080	33 cd		 xor	 ecx, ebp
  00082	b8 01 00 00 00	 mov	 eax, 1
  00087	5e		 pop	 esi
  00088	e8 00 00 00 00	 call	 @__security_check_cookie@4
  0008d	8b e5		 mov	 esp, ebp
  0008f	5d		 pop	 ebp
  00090	c3		 ret	 0
?NpcJewelMixDealer@@YAHPAUOBJECTSTRUCT@@0@Z ENDP	; NpcJewelMixDealer
_TEXT	ENDS
PUBLIC	?NpcSiegeMachine_Attack@@YAHPAUOBJECTSTRUCT@@0@Z ; NpcSiegeMachine_Attack
EXTRN	?gObjIsConnectedGP@@YAHH@Z:PROC			; gObjIsConnectedGP
EXTRN	?PHeadSubSetB@@YAXPAEEEH@Z:PROC			; PHeadSubSetB
; Function compile flags: /Ogtp
;	COMDAT ?NpcSiegeMachine_Attack@@YAHPAUOBJECTSTRUCT@@0@Z
_TEXT	SEGMENT
_pResult$ = -8						; size = 8
_lpNpc$ = 8						; size = 4
_lpObj$ = 12						; size = 4
?NpcSiegeMachine_Attack@@YAHPAUOBJECTSTRUCT@@0@Z PROC	; NpcSiegeMachine_Attack, COMDAT

; 1002 : {

  00000	55		 push	 ebp
  00001	8b ec		 mov	 ebp, esp
  00003	83 ec 08	 sub	 esp, 8
  00006	57		 push	 edi

; 1003 : 	if ( (lpObj->m_IfState.use) > 0 )

  00007	8b 7d 0c	 mov	 edi, DWORD PTR _lpObj$[ebp]
  0000a	f6 87 84 0c 00
	00 03		 test	 BYTE PTR [edi+3204], 3

; 1004 : 	{
; 1005 : 		return TRUE;

  00011	0f 87 98 00 00
	00		 ja	 $LN7@NpcSiegeMa

; 1006 : 	}
; 1007 : 
; 1008 : 	PMSG_ANS_USE_WEAPON_INTERFACE pResult = {0};

  00017	56		 push	 esi
  00018	33 c0		 xor	 eax, eax

; 1009 : 
; 1010 : 	PHeadSubSetB((LPBYTE)&pResult, 0xB7, 0x00, sizeof(pResult));

  0001a	6a 08		 push	 8
  0001c	50		 push	 eax
  0001d	89 45 f9	 mov	 DWORD PTR _pResult$[ebp+1], eax
  00020	66 89 45 fd	 mov	 WORD PTR _pResult$[ebp+5], ax
  00024	88 45 ff	 mov	 BYTE PTR _pResult$[ebp+7], al
  00027	8d 45 f8	 lea	 eax, DWORD PTR _pResult$[ebp]
  0002a	68 b7 00 00 00	 push	 183			; 000000b7H
  0002f	50		 push	 eax
  00030	c6 45 f8 00	 mov	 BYTE PTR _pResult$[ebp], 0
  00034	e8 00 00 00 00	 call	 ?PHeadSubSetB@@YAXPAEEEH@Z ; PHeadSubSetB

; 1011 : 
; 1012 : 	pResult.btResult = 0;
; 1013 : 	pResult.btWeaponType = 1;
; 1014 : 	pResult.btObjIndexH = SET_NUMBERH(lpNpc->m_Index);

  00039	8b 75 08	 mov	 esi, DWORD PTR _lpNpc$[ebp]
  0003c	8b 0e		 mov	 ecx, DWORD PTR [esi]

; 1015 : 	pResult.btObjIndexL = SET_NUMBERL(lpNpc->m_Index);
; 1016 : 
; 1017 : 	if ( gObjIsConnectedGP(lpNpc->m_iWeaponUser) == FALSE )

  0003e	8b 86 d4 14 00
	00		 mov	 eax, DWORD PTR [esi+5332]
  00044	8a 16		 mov	 dl, BYTE PTR [esi]
  00046	c1 e9 08	 shr	 ecx, 8
  00049	50		 push	 eax
  0004a	66 c7 45 fc 00
	01		 mov	 WORD PTR _pResult$[ebp+4], 256 ; 00000100H
  00050	88 4d fe	 mov	 BYTE PTR _pResult$[ebp+6], cl
  00053	88 55 ff	 mov	 BYTE PTR _pResult$[ebp+7], dl
  00056	e8 00 00 00 00	 call	 ?gObjIsConnectedGP@@YAHH@Z ; gObjIsConnectedGP
  0005b	83 c4 14	 add	 esp, 20			; 00000014H
  0005e	85 c0		 test	 eax, eax
  00060	75 0d		 jne	 SHORT $LN3@NpcSiegeMa

; 1018 : 	{
; 1019 : 		lpNpc->m_iWeaponUser = 0;

  00062	89 86 d4 14 00
	00		 mov	 DWORD PTR [esi+5332], eax

; 1020 : 		lpNpc->m_btWeaponState = 1;

  00068	c6 86 d3 14 00
	00 01		 mov	 BYTE PTR [esi+5331], 1
$LN3@NpcSiegeMa:

; 1021 : 	}
; 1022 : 
; 1023 : 	lpNpc->m_btWeaponState = 1;
; 1024 : 
; 1025 : 
; 1026 : 	if ( lpNpc->m_btWeaponState == 1 )
; 1027 : 	{
; 1028 : 		pResult.btResult = 1;
; 1029 : 		lpNpc->m_btWeaponState = 2;
; 1030 : 		lpNpc->m_iWeaponUser = lpObj->m_Index;
; 1031 : 
; 1032 : 		DataSend(lpObj->m_Index, (LPBYTE)&pResult, pResult.h.size);

  0006f	0f b6 55 f9	 movzx	 edx, BYTE PTR _pResult$[ebp+1]
  00073	c6 86 d3 14 00
	00 02		 mov	 BYTE PTR [esi+5331], 2
  0007a	8b 0f		 mov	 ecx, DWORD PTR [edi]
  0007c	52		 push	 edx
  0007d	8d 45 f8	 lea	 eax, DWORD PTR _pResult$[ebp]
  00080	89 8e d4 14 00
	00		 mov	 DWORD PTR [esi+5332], ecx
  00086	8b 0f		 mov	 ecx, DWORD PTR [edi]
  00088	50		 push	 eax
  00089	51		 push	 ecx
  0008a	c6 45 fc 01	 mov	 BYTE PTR _pResult$[ebp+4], 1
  0008e	e8 00 00 00 00	 call	 ?DataSend@@YAHHPAEK@Z	; DataSend

; 1033 : 
; 1034 : 		lpObj->m_IfState.use = 1;
; 1035 : 		lpObj->m_IfState.type = 15;

  00093	8b 97 84 0c 00
	00		 mov	 edx, DWORD PTR [edi+3204]
  00099	83 c4 0c	 add	 esp, 12			; 0000000cH
  0009c	81 e2 fd 03 ff
	ff		 and	 edx, -64515		; ffff03fdH
  000a2	81 ca c1 03 00
	00		 or	 edx, 961		; 000003c1H
  000a8	89 97 84 0c 00
	00		 mov	 DWORD PTR [edi+3204], edx
  000ae	5e		 pop	 esi
$LN7@NpcSiegeMa:

; 1036 : 	}
; 1037 : 	else
; 1038 : 	{
; 1039 : 		DataSend(lpObj->m_Index, (LPBYTE)&pResult, pResult.h.size);
; 1040 : 	}
; 1041 : 
; 1042 : 	return TRUE;

  000af	b8 01 00 00 00	 mov	 eax, 1
  000b4	5f		 pop	 edi

; 1043 : }

  000b5	8b e5		 mov	 esp, ebp
  000b7	5d		 pop	 ebp
  000b8	c3		 ret	 0
?NpcSiegeMachine_Attack@@YAHPAUOBJECTSTRUCT@@0@Z ENDP	; NpcSiegeMachine_Attack
_TEXT	ENDS
PUBLIC	?NpcSiegeMachine_Defense@@YAHPAUOBJECTSTRUCT@@0@Z ; NpcSiegeMachine_Defense
; Function compile flags: /Ogtp
;	COMDAT ?NpcSiegeMachine_Defense@@YAHPAUOBJECTSTRUCT@@0@Z
_TEXT	SEGMENT
_pResult$ = -8						; size = 8
_lpNpc$ = 8						; size = 4
_lpObj$ = 12						; size = 4
?NpcSiegeMachine_Defense@@YAHPAUOBJECTSTRUCT@@0@Z PROC	; NpcSiegeMachine_Defense, COMDAT

; 1048 : {

  00000	55		 push	 ebp
  00001	8b ec		 mov	 ebp, esp
  00003	83 ec 08	 sub	 esp, 8
  00006	57		 push	 edi

; 1049 : 	if ( (lpObj->m_IfState.use ) > 0 )

  00007	8b 7d 0c	 mov	 edi, DWORD PTR _lpObj$[ebp]
  0000a	f6 87 84 0c 00
	00 03		 test	 BYTE PTR [edi+3204], 3

; 1050 : 	{
; 1051 : 		return TRUE;

  00011	0f 87 98 00 00
	00		 ja	 $LN7@NpcSiegeMa@2

; 1052 : 	}
; 1053 : 
; 1054 : 	PMSG_ANS_USE_WEAPON_INTERFACE pResult = {0};

  00017	56		 push	 esi
  00018	33 c0		 xor	 eax, eax

; 1055 : 
; 1056 : 	PHeadSubSetB((LPBYTE)&pResult, 0xB7, 0x00, sizeof(pResult));

  0001a	6a 08		 push	 8
  0001c	50		 push	 eax
  0001d	89 45 f9	 mov	 DWORD PTR _pResult$[ebp+1], eax
  00020	66 89 45 fd	 mov	 WORD PTR _pResult$[ebp+5], ax
  00024	88 45 ff	 mov	 BYTE PTR _pResult$[ebp+7], al
  00027	8d 45 f8	 lea	 eax, DWORD PTR _pResult$[ebp]
  0002a	68 b7 00 00 00	 push	 183			; 000000b7H
  0002f	50		 push	 eax
  00030	c6 45 f8 00	 mov	 BYTE PTR _pResult$[ebp], 0
  00034	e8 00 00 00 00	 call	 ?PHeadSubSetB@@YAXPAEEEH@Z ; PHeadSubSetB

; 1057 : 
; 1058 : 	pResult.btResult = 0;
; 1059 : 	pResult.btWeaponType = 2;
; 1060 : 	pResult.btObjIndexH = SET_NUMBERH(lpNpc->m_Index);

  00039	8b 75 08	 mov	 esi, DWORD PTR _lpNpc$[ebp]
  0003c	8b 0e		 mov	 ecx, DWORD PTR [esi]

; 1061 : 	pResult.btObjIndexL = SET_NUMBERL(lpNpc->m_Index);
; 1062 : 
; 1063 : 	if ( gObjIsConnectedGP(lpNpc->m_iWeaponUser) == FALSE )

  0003e	8b 86 d4 14 00
	00		 mov	 eax, DWORD PTR [esi+5332]
  00044	8a 16		 mov	 dl, BYTE PTR [esi]
  00046	c1 e9 08	 shr	 ecx, 8
  00049	50		 push	 eax
  0004a	66 c7 45 fc 00
	02		 mov	 WORD PTR _pResult$[ebp+4], 512 ; 00000200H
  00050	88 4d fe	 mov	 BYTE PTR _pResult$[ebp+6], cl
  00053	88 55 ff	 mov	 BYTE PTR _pResult$[ebp+7], dl
  00056	e8 00 00 00 00	 call	 ?gObjIsConnectedGP@@YAHH@Z ; gObjIsConnectedGP
  0005b	83 c4 14	 add	 esp, 20			; 00000014H
  0005e	85 c0		 test	 eax, eax
  00060	75 0d		 jne	 SHORT $LN3@NpcSiegeMa@2

; 1064 : 	{
; 1065 : 		lpNpc->m_iWeaponUser = 0;

  00062	89 86 d4 14 00
	00		 mov	 DWORD PTR [esi+5332], eax

; 1066 : 		lpNpc->m_btWeaponState = 1;

  00068	c6 86 d3 14 00
	00 01		 mov	 BYTE PTR [esi+5331], 1
$LN3@NpcSiegeMa@2:

; 1067 : 	}
; 1068 : 
; 1069 : 	lpNpc->m_btWeaponState = 1;
; 1070 : 
; 1071 : 
; 1072 : 	if ( lpNpc->m_btWeaponState == 1 )
; 1073 : 	{
; 1074 : 		pResult.btResult = 1;
; 1075 : 		lpNpc->m_btWeaponState = 2;
; 1076 : 		lpNpc->m_iWeaponUser = lpObj->m_Index;
; 1077 : 
; 1078 : 		DataSend(lpObj->m_Index, (LPBYTE)&pResult, pResult.h.size);

  0006f	0f b6 55 f9	 movzx	 edx, BYTE PTR _pResult$[ebp+1]
  00073	c6 86 d3 14 00
	00 02		 mov	 BYTE PTR [esi+5331], 2
  0007a	8b 0f		 mov	 ecx, DWORD PTR [edi]
  0007c	52		 push	 edx
  0007d	8d 45 f8	 lea	 eax, DWORD PTR _pResult$[ebp]
  00080	89 8e d4 14 00
	00		 mov	 DWORD PTR [esi+5332], ecx
  00086	8b 0f		 mov	 ecx, DWORD PTR [edi]
  00088	50		 push	 eax
  00089	51		 push	 ecx
  0008a	c6 45 fc 01	 mov	 BYTE PTR _pResult$[ebp+4], 1
  0008e	e8 00 00 00 00	 call	 ?DataSend@@YAHHPAEK@Z	; DataSend

; 1079 : 
; 1080 : 		lpObj->m_IfState.use = 1;
; 1081 : 		lpObj->m_IfState.type = 16;

  00093	8b 97 84 0c 00
	00		 mov	 edx, DWORD PTR [edi+3204]
  00099	83 c4 0c	 add	 esp, 12			; 0000000cH
  0009c	81 e2 3d 04 ff
	ff		 and	 edx, -64451		; ffff043dH
  000a2	81 ca 01 04 00
	00		 or	 edx, 1025		; 00000401H
  000a8	89 97 84 0c 00
	00		 mov	 DWORD PTR [edi+3204], edx
  000ae	5e		 pop	 esi
$LN7@NpcSiegeMa@2:

; 1082 : 	}
; 1083 : 	else
; 1084 : 	{
; 1085 : 		DataSend(lpObj->m_Index, (LPBYTE)&pResult, pResult.h.size);
; 1086 : 	}
; 1087 : 
; 1088 : 	return TRUE;

  000af	b8 01 00 00 00	 mov	 eax, 1
  000b4	5f		 pop	 edi

; 1089 : }

  000b5	8b e5		 mov	 esp, ebp
  000b7	5d		 pop	 ebp
  000b8	c3		 ret	 0
?NpcSiegeMachine_Defense@@YAHPAUOBJECTSTRUCT@@0@Z ENDP	; NpcSiegeMachine_Defense
_TEXT	ENDS
PUBLIC	__$ArrayPad$
PUBLIC	?NpcElderCircle@@YAHPAUOBJECTSTRUCT@@0@Z	; NpcElderCircle
; Function compile flags: /Ogtp
;	COMDAT ?NpcElderCircle@@YAHPAUOBJECTSTRUCT@@0@Z
_TEXT	SEGMENT
_pMsg$ = -16						; size = 10
__$ArrayPad$ = -4					; size = 4
_lpNpc$ = 8						; size = 4
_lpObj$ = 12						; size = 4
?NpcElderCircle@@YAHPAUOBJECTSTRUCT@@0@Z PROC		; NpcElderCircle, COMDAT

; 1095 : {

  00000	55		 push	 ebp
  00001	8b ec		 mov	 ebp, esp
  00003	83 ec 10	 sub	 esp, 16			; 00000010H
  00006	a1 00 00 00 00	 mov	 eax, DWORD PTR ___security_cookie
  0000b	33 c5		 xor	 eax, ebp
  0000d	89 45 fc	 mov	 DWORD PTR __$ArrayPad$[ebp], eax
  00010	8b 4d 0c	 mov	 ecx, DWORD PTR _lpObj$[ebp]

; 1096 : 	if ( (lpObj->m_IfState.use ) > 0 )

  00013	8b 81 84 0c 00
	00		 mov	 eax, DWORD PTR [ecx+3204]
  00019	a8 03		 test	 al, 3

; 1097 : 	{
; 1098 : 		return TRUE;

  0001b	77 2f		 ja	 SHORT $LN4@NpcElderCi

; 1099 : 	}
; 1100 : 
; 1101 : 	PMSG_TALKRESULT pMsg;
; 1102 : 
; 1103 : 	pMsg.h.c = 0xC3;
; 1104 : 	pMsg.h.headcode = 0x30;
; 1105 : 	pMsg.h.size = sizeof(pMsg);
; 1106 : 	pMsg.result = 0x0C;
; 1107 : 
; 1108 : 	lpObj->m_IfState.use = 1;
; 1109 : 	lpObj->m_IfState.type = 12;

  0001d	25 3d 03 ff ff	 and	 eax, -64707		; ffff033dH
  00022	0d 01 03 00 00	 or	 eax, 769		; 00000301H
  00027	89 81 84 0c 00
	00		 mov	 DWORD PTR [ecx+3204], eax

; 1110 : 
; 1111 : 	DataSend(lpObj->m_Index, (LPBYTE)&pMsg, pMsg.h.size);

  0002d	8b 09		 mov	 ecx, DWORD PTR [ecx]
  0002f	6a 0a		 push	 10			; 0000000aH
  00031	8d 45 f0	 lea	 eax, DWORD PTR _pMsg$[ebp]
  00034	50		 push	 eax
  00035	51		 push	 ecx
  00036	c6 45 f0 c3	 mov	 BYTE PTR _pMsg$[ebp], 195 ; 000000c3H
  0003a	66 c7 45 f1 0a
	30		 mov	 WORD PTR _pMsg$[ebp+1], 12298 ; 0000300aH
  00040	c6 45 f3 0c	 mov	 BYTE PTR _pMsg$[ebp+3], 12 ; 0000000cH
  00044	e8 00 00 00 00	 call	 ?DataSend@@YAHHPAEK@Z	; DataSend
  00049	83 c4 0c	 add	 esp, 12			; 0000000cH
$LN4@NpcElderCi:

; 1112 : 
; 1113 : 	return TRUE;
; 1114 : }

  0004c	8b 4d fc	 mov	 ecx, DWORD PTR __$ArrayPad$[ebp]
  0004f	33 cd		 xor	 ecx, ebp
  00051	b8 01 00 00 00	 mov	 eax, 1
  00056	e8 00 00 00 00	 call	 @__security_check_cookie@4
  0005b	8b e5		 mov	 esp, ebp
  0005d	5d		 pop	 ebp
  0005e	c3		 ret	 0
?NpcElderCircle@@YAHPAUOBJECTSTRUCT@@0@Z ENDP		; NpcElderCircle
_TEXT	ENDS
PUBLIC	__$ArrayPad$
PUBLIC	?NpcCastleGuard@@YAHPAUOBJECTSTRUCT@@0@Z	; NpcCastleGuard
; Function compile flags: /Ogtp
;	COMDAT ?NpcCastleGuard@@YAHPAUOBJECTSTRUCT@@0@Z
_TEXT	SEGMENT
_pMsg$ = -16						; size = 10
__$ArrayPad$ = -4					; size = 4
_lpNpc$ = 8						; size = 4
_lpObj$ = 12						; size = 4
?NpcCastleGuard@@YAHPAUOBJECTSTRUCT@@0@Z PROC		; NpcCastleGuard, COMDAT

; 1121 : {

  00000	55		 push	 ebp
  00001	8b ec		 mov	 ebp, esp
  00003	83 ec 10	 sub	 esp, 16			; 00000010H
  00006	a1 00 00 00 00	 mov	 eax, DWORD PTR ___security_cookie
  0000b	33 c5		 xor	 eax, ebp
  0000d	89 45 fc	 mov	 DWORD PTR __$ArrayPad$[ebp], eax
  00010	56		 push	 esi
  00011	8b 75 0c	 mov	 esi, DWORD PTR _lpObj$[ebp]

; 1122 : 	if ( (lpObj->m_IfState.use ) > 0 )

  00014	f6 86 84 0c 00
	00 03		 test	 BYTE PTR [esi+3204], 3

; 1123 : 	{
; 1124 : 		return TRUE;

  0001b	77 37		 ja	 SHORT $LN4@NpcCastleG

; 1125 : 	}
; 1126 : 
; 1127 : 	PMSG_TALKRESULT pMsg;
; 1128 : 
; 1129 : 	pMsg.h.c = 0xC3;
; 1130 : 	pMsg.h.headcode = 0x30;
; 1131 : 	pMsg.h.size = sizeof(pMsg);
; 1132 : 	pMsg.result = 0x0D;
; 1133 : 
; 1134 : 	DataSend(lpObj->m_Index, (LPBYTE)&pMsg, pMsg.h.size);

  0001d	8b 0e		 mov	 ecx, DWORD PTR [esi]
  0001f	6a 0a		 push	 10			; 0000000aH
  00021	8d 45 f0	 lea	 eax, DWORD PTR _pMsg$[ebp]
  00024	50		 push	 eax
  00025	51		 push	 ecx
  00026	c6 45 f0 c3	 mov	 BYTE PTR _pMsg$[ebp], 195 ; 000000c3H
  0002a	66 c7 45 f1 0a
	30		 mov	 WORD PTR _pMsg$[ebp+1], 12298 ; 0000300aH
  00030	c6 45 f3 0d	 mov	 BYTE PTR _pMsg$[ebp+3], 13 ; 0000000dH
  00034	e8 00 00 00 00	 call	 ?DataSend@@YAHHPAEK@Z	; DataSend

; 1135 : 
; 1136 : 	lpObj->m_IfState.use = 1;
; 1137 : 	lpObj->m_IfState.type = 12;

  00039	8b 96 84 0c 00
	00		 mov	 edx, DWORD PTR [esi+3204]
  0003f	81 e2 3d 03 ff
	ff		 and	 edx, -64707		; ffff033dH
  00045	83 c4 0c	 add	 esp, 12			; 0000000cH
  00048	81 ca 01 03 00
	00		 or	 edx, 769		; 00000301H
  0004e	89 96 84 0c 00
	00		 mov	 DWORD PTR [esi+3204], edx
$LN4@NpcCastleG:

; 1138 : 
; 1139 : 
; 1140 : 	return TRUE;
; 1141 : }

  00054	8b 4d fc	 mov	 ecx, DWORD PTR __$ArrayPad$[ebp]
  00057	33 cd		 xor	 ecx, ebp
  00059	b8 01 00 00 00	 mov	 eax, 1
  0005e	5e		 pop	 esi
  0005f	e8 00 00 00 00	 call	 @__security_check_cookie@4
  00064	8b e5		 mov	 esp, ebp
  00066	5d		 pop	 ebp
  00067	c3		 ret	 0
?NpcCastleGuard@@YAHPAUOBJECTSTRUCT@@0@Z ENDP		; NpcCastleGuard
_TEXT	ENDS
PUBLIC	?NpcCastleGateLever@@YAHPAUOBJECTSTRUCT@@0@Z	; NpcCastleGateLever
; Function compile flags: /Ogtp
;	COMDAT ?NpcCastleGateLever@@YAHPAUOBJECTSTRUCT@@0@Z
_TEXT	SEGMENT
_lpNpc$ = 8						; size = 4
_lpObj$ = 12						; size = 4
?NpcCastleGateLever@@YAHPAUOBJECTSTRUCT@@0@Z PROC	; NpcCastleGateLever, COMDAT

; 1148 : 	if ( (lpObj->m_IfState.use) > 0 )

  00000	b8 01 00 00 00	 mov	 eax, 1

; 1149 : 	{
; 1150 : 		return TRUE;
; 1151 : 	}
; 1152 : 
; 1153 : 	return TRUE;
; 1154 : }

  00005	c3		 ret	 0
?NpcCastleGateLever@@YAHPAUOBJECTSTRUCT@@0@Z ENDP	; NpcCastleGateLever
_TEXT	ENDS
PUBLIC	?NpcCastleCrown@@YAHPAUOBJECTSTRUCT@@0@Z	; NpcCastleCrown
; Function compile flags: /Ogtp
;	COMDAT ?NpcCastleCrown@@YAHPAUOBJECTSTRUCT@@0@Z
_TEXT	SEGMENT
_lpNpc$ = 8						; size = 4
_lpObj$ = 12						; size = 4
?NpcCastleCrown@@YAHPAUOBJECTSTRUCT@@0@Z PROC		; NpcCastleCrown, COMDAT

; 1162 : 	return TRUE;

  00000	b8 01 00 00 00	 mov	 eax, 1

; 1163 : }

  00005	c3		 ret	 0
?NpcCastleCrown@@YAHPAUOBJECTSTRUCT@@0@Z ENDP		; NpcCastleCrown
_TEXT	ENDS
PUBLIC	?NpcCastleSwitch@@YAHPAUOBJECTSTRUCT@@0@Z	; NpcCastleSwitch
; Function compile flags: /Ogtp
;	COMDAT ?NpcCastleSwitch@@YAHPAUOBJECTSTRUCT@@0@Z
_TEXT	SEGMENT
_lpNpc$ = 8						; size = 4
_lpObj$ = 12						; size = 4
?NpcCastleSwitch@@YAHPAUOBJECTSTRUCT@@0@Z PROC		; NpcCastleSwitch, COMDAT

; 1170 : 	return TRUE;

  00000	b8 01 00 00 00	 mov	 eax, 1

; 1171 : }

  00005	c3		 ret	 0
?NpcCastleSwitch@@YAHPAUOBJECTSTRUCT@@0@Z ENDP		; NpcCastleSwitch
_TEXT	ENDS
PUBLIC	?NpcShadowPhantom@@YAHPAUOBJECTSTRUCT@@0@Z	; NpcShadowPhantom
EXTRN	?GCStateInfoSend@@YAXPAUOBJECTSTRUCT@@EH@Z:PROC	; GCStateInfoSend
EXTRN	__imp__GetTickCount@0:PROC
EXTRN	?gObjIsConnected@@YAHH@Z:PROC			; gObjIsConnected
; Function compile flags: /Ogtp
;	COMDAT ?NpcShadowPhantom@@YAHPAUOBJECTSTRUCT@@0@Z
_TEXT	SEGMENT
_lpNpc$ = 8						; size = 4
_lpObj$ = 12						; size = 4
?NpcShadowPhantom@@YAHPAUOBJECTSTRUCT@@0@Z PROC		; NpcShadowPhantom, COMDAT

; 1176 : {

  00000	55		 push	 ebp
  00001	8b ec		 mov	 ebp, esp
  00003	56		 push	 esi

; 1177 : 	if ( gObjIsConnected(lpObj->m_Index) == FALSE )

  00004	8b 75 0c	 mov	 esi, DWORD PTR _lpObj$[ebp]
  00007	8b 06		 mov	 eax, DWORD PTR [esi]
  00009	50		 push	 eax
  0000a	e8 00 00 00 00	 call	 ?gObjIsConnected@@YAHH@Z ; gObjIsConnected
  0000f	83 c4 04	 add	 esp, 4
  00012	85 c0		 test	 eax, eax

; 1178 : 	{
; 1179 : 		return TRUE;

  00014	0f 84 82 00 00
	00		 je	 $LN5@NpcShadowP

; 1180 : 	}
; 1181 : 
; 1182 : 	if ( lpObj->Level > MAX_NPC_PHANTOM_BUFFER )

  0001a	b9 b4 00 00 00	 mov	 ecx, 180		; 000000b4H
  0001f	66 39 8e 9c 00
	00 00		 cmp	 WORD PTR [esi+156], cx
  00026	7e 19		 jle	 SHORT $LN1@NpcShadowP

; 1183 : 	{
; 1184 : 		GCServerCmd(lpObj->m_Index, 0x0D, 0, 0);

  00028	8b 16		 mov	 edx, DWORD PTR [esi]
  0002a	6a 00		 push	 0
  0002c	6a 00		 push	 0
  0002e	6a 0d		 push	 13			; 0000000dH
  00030	52		 push	 edx
  00031	e8 00 00 00 00	 call	 ?GCServerCmd@@YAXHEEE@Z	; GCServerCmd
  00036	83 c4 10	 add	 esp, 16			; 00000010H

; 1196 : 
; 1197 : 	return TRUE;

  00039	b8 01 00 00 00	 mov	 eax, 1
  0003e	5e		 pop	 esi

; 1198 : }

  0003f	5d		 pop	 ebp
  00040	c3		 ret	 0
$LN1@NpcShadowP:

; 1185 : 		
; 1186 : 		return TRUE;
; 1187 : 	}
; 1188 : 
; 1189 : 	lpObj->m_iSkillNPCHelpTime = GetTickCount();

  00041	ff 15 00 00 00
	00		 call	 DWORD PTR __imp__GetTickCount@0

; 1190 : 	lpObj->m_iSkillNPCDefense = lpObj->Level / 5 + 50;	// FORMULA

  00047	0f bf 8e 9c 00
	00 00		 movsx	 ecx, WORD PTR [esi+156]
  0004e	89 86 24 15 00
	00		 mov	 DWORD PTR [esi+5412], eax
  00054	b8 67 66 66 66	 mov	 eax, 1717986919		; 66666667H
  00059	f7 e9		 imul	 ecx

; 1191 : 	lpObj->m_iSkillNPCAttack = lpObj->Level / 3 + 45;	// FORMULA
; 1192 : 
; 1193 : 	lpObj->m_ViewSkillState |= 0x2000000;

  0005b	81 8e c4 01 00
	00 00 00 00 02	 or	 DWORD PTR [esi+452], 33554432 ; 02000000H
  00065	d1 fa		 sar	 edx, 1
  00067	8b c2		 mov	 eax, edx
  00069	c1 e8 1f	 shr	 eax, 31			; 0000001fH
  0006c	8d 54 02 32	 lea	 edx, DWORD PTR [edx+eax+50]
  00070	89 96 28 15 00
	00		 mov	 DWORD PTR [esi+5416], edx
  00076	b8 56 55 55 55	 mov	 eax, 1431655766		; 55555556H
  0007b	f7 e9		 imul	 ecx
  0007d	8b c2		 mov	 eax, edx

; 1194 : 
; 1195 : 	GCStateInfoSend(lpObj, 1, 0x2000000);

  0007f	68 00 00 00 02	 push	 33554432		; 02000000H
  00084	c1 e8 1f	 shr	 eax, 31			; 0000001fH
  00087	8d 4c 02 2d	 lea	 ecx, DWORD PTR [edx+eax+45]
  0008b	6a 01		 push	 1
  0008d	56		 push	 esi
  0008e	89 8e 2c 15 00
	00		 mov	 DWORD PTR [esi+5420], ecx
  00094	e8 00 00 00 00	 call	 ?GCStateInfoSend@@YAXPAUOBJECTSTRUCT@@EH@Z ; GCStateInfoSend
  00099	83 c4 0c	 add	 esp, 12			; 0000000cH
$LN5@NpcShadowP:

; 1196 : 
; 1197 : 	return TRUE;

  0009c	b8 01 00 00 00	 mov	 eax, 1
  000a1	5e		 pop	 esi

; 1198 : }

  000a2	5d		 pop	 ebp
  000a3	c3		 ret	 0
?NpcShadowPhantom@@YAHPAUOBJECTSTRUCT@@0@Z ENDP		; NpcShadowPhantom
_TEXT	ENDS
PUBLIC	??_C@_0BL@FMJKLKBP@QeustNpc?5RefCount?5Inc?5?$DN?5?$CFd?$AA@ ; `string'
PUBLIC	?TalkRefAdd@CQeustNpcTeleport@@QAEXXZ		; CQeustNpcTeleport::TalkRefAdd
EXTRN	__imp__LeaveCriticalSection@4:PROC
EXTRN	__imp__EnterCriticalSection@4:PROC
;	COMDAT ??_C@_0BL@FMJKLKBP@QeustNpc?5RefCount?5Inc?5?$DN?5?$CFd?$AA@
; File c:\users\faelhs\mu-1.1\emu - gameserver sapphire s0\gameserver\gobjmonster.h
CONST	SEGMENT
??_C@_0BL@FMJKLKBP@QeustNpc?5RefCount?5Inc?5?$DN?5?$CFd?$AA@ DB 'QeustNpc'
	DB	' RefCount Inc = %d', 00H			; `string'
; Function compile flags: /Ogtp
CONST	ENDS
;	COMDAT ?TalkRefAdd@CQeustNpcTeleport@@QAEXXZ
_TEXT	SEGMENT
?TalkRefAdd@CQeustNpcTeleport@@QAEXXZ PROC		; CQeustNpcTeleport::TalkRefAdd, COMDAT
; _this$ = ecx

; 61   : 	{

  00000	56		 push	 esi
  00001	57		 push	 edi
  00002	8b f1		 mov	 esi, ecx

; 62   : 		EnterCriticalSection(&this->CsRef);

  00004	8d 7e 04	 lea	 edi, DWORD PTR [esi+4]
  00007	57		 push	 edi
  00008	ff 15 00 00 00
	00		 call	 DWORD PTR __imp__EnterCriticalSection@4

; 63   : 		this->RefCount++;

  0000e	ff 06		 inc	 DWORD PTR [esi]
  00010	8b 36		 mov	 esi, DWORD PTR [esi]

; 64   : 		LogAdd(LOG_BLACK, "QeustNpc RefCount Inc = %d", this->RefCount);

  00012	56		 push	 esi
  00013	68 00 00 00 00	 push	 OFFSET ??_C@_0BL@FMJKLKBP@QeustNpc?5RefCount?5Inc?5?$DN?5?$CFd?$AA@
  00018	6a 00		 push	 0
  0001a	e8 00 00 00 00	 call	 ?LogAdd@@YAXW4eLogColor@@PADZZ ; LogAdd
  0001f	83 c4 0c	 add	 esp, 12			; 0000000cH

; 65   : 		LeaveCriticalSection(&this->CsRef);

  00022	57		 push	 edi
  00023	ff 15 00 00 00
	00		 call	 DWORD PTR __imp__LeaveCriticalSection@4
  00029	5f		 pop	 edi
  0002a	5e		 pop	 esi

; 66   : 		
; 67   : 	};	// line : 123

  0002b	c3		 ret	 0
?TalkRefAdd@CQeustNpcTeleport@@QAEXXZ ENDP		; CQeustNpcTeleport::TalkRefAdd
_TEXT	ENDS
PUBLIC	?NpcTalk@@YAHPAUOBJECTSTRUCT@@0@Z		; NpcTalk
EXTRN	?gQeustNpcTeleport@@3VCQeustNpcTeleport@@A:BYTE	; gQeustNpcTeleport
; Function compile flags: /Ogtp
; File c:\users\faelhs\mu-1.1\emu - gameserver sapphire s0\gameserver\npctalk.cpp
;	COMDAT ?NpcTalk@@YAHPAUOBJECTSTRUCT@@0@Z
_TEXT	SEGMENT
_lpNpc$ = 8						; size = 4
_lpObj$ = 12						; size = 4
?NpcTalk@@YAHPAUOBJECTSTRUCT@@0@Z PROC			; NpcTalk, COMDAT

; 23   : {

  00000	55		 push	 ebp
  00001	8b ec		 mov	 ebp, esp
  00003	53		 push	 ebx
  00004	57		 push	 edi

; 24   : 	int npcnum = lpNpc->Class;

  00005	8b 7d 08	 mov	 edi, DWORD PTR _lpNpc$[ebp]
  00008	0f b7 9f 98 00
	00 00		 movzx	 ebx, WORD PTR [edi+152]

; 25   : 
; 26   : 	if ( npcnum < 0 )

  0000f	85 db		 test	 ebx, ebx
  00011	79 06		 jns	 SHORT $LN72@NpcTalk

; 27   : 	{
; 28   : 		return FALSE;

  00013	5f		 pop	 edi
  00014	33 c0		 xor	 eax, eax
  00016	5b		 pop	 ebx

; 286  : }

  00017	5d		 pop	 ebp
  00018	c3		 ret	 0
$LN72@NpcTalk:
  00019	56		 push	 esi

; 29   : 	}
; 30   : 
; 31   : 	if ( (lpObj->m_IfState.use) > 0 )

  0001a	8b 75 0c	 mov	 esi, DWORD PTR _lpObj$[ebp]
  0001d	f6 86 84 0c 00
	00 03		 test	 BYTE PTR [esi+3204], 3

; 32   : 	{
; 33   : 		return TRUE;

  00024	0f 87 d8 01 00
	00		 ja	 $LN80@NpcTalk

; 34   : 	}
; 35   : 
; 36   : 	if ( npcnum == 229 ) // Marlon

  0002a	81 fb e5 00 00
	00		 cmp	 ebx, 229		; 000000e5H
  00030	75 3a		 jne	 SHORT $LN70@NpcTalk

; 37   : 	{
; 38   : 		gQeustNpcTeleport.TalkRefAdd();

  00032	68 04 00 00 00	 push	 OFFSET ?gQeustNpcTeleport@@3VCQeustNpcTeleport@@A+4
  00037	ff 15 00 00 00
	00		 call	 DWORD PTR __imp__EnterCriticalSection@4
  0003d	a1 00 00 00 00	 mov	 eax, DWORD PTR ?gQeustNpcTeleport@@3VCQeustNpcTeleport@@A
  00042	40		 inc	 eax
  00043	50		 push	 eax
  00044	68 00 00 00 00	 push	 OFFSET ??_C@_0BL@FMJKLKBP@QeustNpc?5RefCount?5Inc?5?$DN?5?$CFd?$AA@
  00049	6a 00		 push	 0
  0004b	a3 00 00 00 00	 mov	 DWORD PTR ?gQeustNpcTeleport@@3VCQeustNpcTeleport@@A, eax
  00050	e8 00 00 00 00	 call	 ?LogAdd@@YAXW4eLogColor@@PADZZ ; LogAdd
  00055	83 c4 0c	 add	 esp, 12			; 0000000cH
  00058	68 04 00 00 00	 push	 OFFSET ?gQeustNpcTeleport@@3VCQeustNpcTeleport@@A+4
  0005d	ff 15 00 00 00
	00		 call	 DWORD PTR __imp__LeaveCriticalSection@4

; 39   : 		lpObj->TargetShopNumber = npcnum;

  00063	8b c3		 mov	 eax, ebx
  00065	66 89 86 d6 02
	00 00		 mov	 WORD PTR [esi+726], ax
$LN70@NpcTalk:

; 40   : 	}
; 41   : 
; 42   : 	if ( NpcQuestCheck(lpNpc, lpObj) != FALSE )

  0006c	56		 push	 esi
  0006d	57		 push	 edi
  0006e	e8 00 00 00 00	 call	 ?NpcQuestCheck@@YAHPAUOBJECTSTRUCT@@0@Z ; NpcQuestCheck
  00073	83 c4 08	 add	 esp, 8
  00076	85 c0		 test	 eax, eax

; 43   : 	{
; 44   : 		return TRUE;

  00078	0f 85 84 01 00
	00		 jne	 $LN80@NpcTalk

; 45   : 	}
; 46   : 
; 47   : 	switch ( npcnum )

  0007e	8d 83 28 ff ff
	ff		 lea	 eax, DWORD PTR [ebx-216]
  00084	3d 9f 00 00 00	 cmp	 eax, 159		; 0000009fH
  00089	0f 87 7d 01 00
	00		 ja	 $LN1@NpcTalk
  0008f	0f b6 88 00 00
	00 00		 movzx	 ecx, BYTE PTR $LN77@NpcTalk[eax]
  00096	ff 24 8d 00 00
	00 00		 jmp	 DWORD PTR $LN81@NpcTalk[ecx*4]
$LN66@NpcTalk:

; 48   : 	{
; 49   : 		case 259:
; 50   : 			if ( NpcReira ( lpNpc, lpObj ) == TRUE )

  0009d	56		 push	 esi
  0009e	57		 push	 edi
  0009f	e8 00 00 00 00	 call	 ?NpcReira@@YAHPAUOBJECTSTRUCT@@0@Z ; NpcReira

; 51   : 			{
; 52   : 				return TRUE;

  000a4	e9 51 01 00 00	 jmp	 $LN79@NpcTalk
$LN64@NpcTalk:

; 53   : 			}
; 54   : 			break;
; 55   : 
; 56   : 		case 254:
; 57   : 			if ( NpcFasi ( lpNpc, lpObj ) == TRUE )

  000a9	56		 push	 esi
  000aa	57		 push	 edi
  000ab	e8 00 00 00 00	 call	 ?NpcFasi@@YAHPAUOBJECTSTRUCT@@0@Z ; NpcFasi

; 58   : 			{
; 59   : 				return TRUE;

  000b0	e9 45 01 00 00	 jmp	 $LN79@NpcTalk
$LN62@NpcTalk:

; 60   : 			}
; 61   : 			break;
; 62   : 
; 63   : 		case 241:
; 64   : 			if ( NpcGuildMasterTalk( lpNpc, lpObj ) == TRUE )

  000b5	56		 push	 esi
  000b6	57		 push	 edi
  000b7	e8 00 00 00 00	 call	 ?NpcGuildMasterTalk@@YAHPAUOBJECTSTRUCT@@0@Z ; NpcGuildMasterTalk

; 65   : 			{
; 66   : 				return TRUE;

  000bc	e9 39 01 00 00	 jmp	 $LN79@NpcTalk
$LN60@NpcTalk:

; 67   : 			}
; 68   : 			break;
; 69   : 		
; 70   : 		case 239:
; 71   : 			if ( NpcBattleAnnouncer( lpNpc, lpObj ) == TRUE )

  000c1	56		 push	 esi
  000c2	57		 push	 edi
  000c3	e8 00 00 00 00	 call	 ?NpcBattleAnnouncer@@YAHPAUOBJECTSTRUCT@@0@Z ; NpcBattleAnnouncer

; 72   : 			{
; 73   : 				return TRUE;

  000c8	e9 2d 01 00 00	 jmp	 $LN79@NpcTalk
$LN58@NpcTalk:

; 74   : 			}
; 75   : 			break;
; 76   : 
; 77   : 		case 249:
; 78   : 			if ( NpcRolensiaGuard( lpNpc, lpObj ) == TRUE )

  000cd	56		 push	 esi
  000ce	57		 push	 edi
  000cf	e8 00 00 00 00	 call	 ?NpcRolensiaGuard@@YAHPAUOBJECTSTRUCT@@0@Z ; NpcRolensiaGuard

; 79   : 			{
; 80   : 				return TRUE;

  000d4	e9 21 01 00 00	 jmp	 $LN79@NpcTalk
$LN56@NpcTalk:

; 81   : 			}
; 82   : 			break;
; 83   : 
; 84   : 		case 238:
; 85   : 			if ( NpcChaosGoblelin( lpNpc, lpObj ) == TRUE )

  000d9	56		 push	 esi
  000da	57		 push	 edi
  000db	e8 00 00 00 00	 call	 ?NpcChaosGoblelin@@YAHPAUOBJECTSTRUCT@@0@Z ; NpcChaosGoblelin

; 86   : 			{
; 87   : 				return TRUE;

  000e0	e9 15 01 00 00	 jmp	 $LN79@NpcTalk
$LN54@NpcTalk:

; 88   : 			}
; 89   : 			break;
; 90   : 
; 91   : 		case 237:
; 92   : 			if ( NpcRusipher( lpNpc, lpObj ) == TRUE )

  000e5	56		 push	 esi
  000e6	57		 push	 edi
  000e7	e8 00 00 00 00	 call	 ?NpcRusipher@@YAHPAUOBJECTSTRUCT@@0@Z ; NpcRusipher

; 93   : 			{
; 94   : 				return TRUE;

  000ec	e9 09 01 00 00	 jmp	 $LN79@NpcTalk
$LN52@NpcTalk:

; 95   : 			}
; 96   : 			break;
; 97   : 
; 98   : 		case 253:
; 99   : 			if ( NpcPosionGirl( lpNpc, lpObj ) == TRUE )

  000f1	56		 push	 esi
  000f2	57		 push	 edi
  000f3	e8 00 00 00 00	 call	 ?NpcPosionGirl@@YAHPAUOBJECTSTRUCT@@0@Z ; NpcPosionGirl

; 100  : 			{
; 101  : 				return TRUE;

  000f8	e9 fd 00 00 00	 jmp	 $LN79@NpcTalk
$LN50@NpcTalk:

; 102  : 			}
; 103  : 			break;
; 104  : 
; 105  : 		case 245:
; 106  : 			if ( NpcDeviasWizard( lpNpc, lpObj ) == TRUE )

  000fd	56		 push	 esi
  000fe	57		 push	 edi
  000ff	e8 00 00 00 00	 call	 ?NpcDeviasWizard@@YAHPAUOBJECTSTRUCT@@0@Z ; NpcDeviasWizard

; 107  : 			{
; 108  : 				return TRUE;

  00104	e9 f1 00 00 00	 jmp	 $LN79@NpcTalk
$LN48@NpcTalk:

; 109  : 			}
; 110  : 			break;
; 111  : 
; 112  : 		case 247:
; 113  : 			if ( NpcDeviasGuard( lpNpc, lpObj ) == TRUE )

  00109	56		 push	 esi
  0010a	57		 push	 edi
  0010b	e8 00 00 00 00	 call	 ?NpcDeviasGuard@@YAHPAUOBJECTSTRUCT@@0@Z ; NpcDeviasGuard

; 114  : 			{
; 115  : 				return TRUE;

  00110	e9 e5 00 00 00	 jmp	 $LN79@NpcTalk
$LN46@NpcTalk:

; 116  : 			}
; 117  : 			break;
; 118  : 
; 119  : 		case 240:
; 120  : 			if ( NpcWarehouse( lpNpc, lpObj ) == TRUE )

  00115	56		 push	 esi
  00116	57		 push	 edi
  00117	e8 00 00 00 00	 call	 ?NpcWarehouse@@YAHPAUOBJECTSTRUCT@@0@Z ; NpcWarehouse

; 121  : 			{
; 122  : 				return TRUE;

  0011c	e9 d9 00 00 00	 jmp	 $LN79@NpcTalk
$LN44@NpcTalk:

; 123  : 			}
; 124  : 			break;
; 125  : 
; 126  : 		case 226:
; 127  : 			if ( NpcDarkSpiritTrainer( lpNpc, lpObj ) == TRUE )

  00121	56		 push	 esi
  00122	57		 push	 edi
  00123	e8 00 00 00 00	 call	 ?NpcDarkSpiritTrainer@@YAHPAUOBJECTSTRUCT@@0@Z ; NpcDarkSpiritTrainer

; 128  : 			{
; 129  : 				return TRUE;

  00128	e9 cd 00 00 00	 jmp	 $LN79@NpcTalk
$LN42@NpcTalk:

; 130  : 			}
; 131  : 			break;
; 132  : 
; 133  : 		case 242:
; 134  : 			if ( NpcNoriaRara( lpNpc, lpObj ) == TRUE )

  0012d	56		 push	 esi
  0012e	57		 push	 edi
  0012f	e8 00 00 00 00	 call	 ?NpcNoriaRara@@YAHPAUOBJECTSTRUCT@@0@Z ; NpcNoriaRara

; 135  : 			{
; 136  : 				return TRUE;

  00134	e9 c1 00 00 00	 jmp	 $LN79@NpcTalk
$LN40@NpcTalk:

; 137  : 			}
; 138  : 			break;
; 139  : 
; 140  : 		case 244:
; 141  : 			if ( NpcDeviasMadam( lpNpc, lpObj ) == TRUE )

  00139	56		 push	 esi
  0013a	57		 push	 edi
  0013b	e8 00 00 00 00	 call	 ?NpcDeviasMadam@@YAHPAUOBJECTSTRUCT@@0@Z ; NpcDeviasMadam

; 142  : 			{
; 143  : 				return TRUE;

  00140	e9 b5 00 00 00	 jmp	 $LN79@NpcTalk
$LN38@NpcTalk:

; 144  : 			}
; 145  : 			break;
; 146  : 
; 147  : 		case 236:
; 148  : 			if ( NpcEventChipNPC( lpNpc, lpObj ) == TRUE )

  00145	56		 push	 esi
  00146	57		 push	 edi
  00147	e8 00 00 00 00	 call	 ?NpcEventChipNPC@@YAHPAUOBJECTSTRUCT@@0@Z ; NpcEventChipNPC

; 149  : 			{
; 150  : 				return TRUE;

  0014c	e9 a9 00 00 00	 jmp	 $LN79@NpcTalk
$LN36@NpcTalk:

; 151  : 			}
; 152  : 			break;
; 153  : 
; 154  : 		case 234:
; 155  : 			if ( NpcServerDivision( lpNpc, lpObj ) == TRUE )

  00151	56		 push	 esi
  00152	57		 push	 edi
  00153	e8 00 00 00 00	 call	 ?NpcServerDivision@@YAHPAUOBJECTSTRUCT@@0@Z ; NpcServerDivision

; 156  : 			{
; 157  : 				return TRUE;

  00158	e9 9d 00 00 00	 jmp	 $LN79@NpcTalk
$LN34@NpcTalk:

; 158  : 			}
; 159  : 			break;
; 160  : 
; 161  : 		case 232:
; 162  : 			if ( NpcAngelKing( lpNpc, lpObj ) == TRUE )

  0015d	56		 push	 esi
  0015e	57		 push	 edi
  0015f	e8 00 00 00 00	 call	 ?NpcAngelKing@@YAHPAUOBJECTSTRUCT@@0@Z ; NpcAngelKing

; 163  : 			{
; 164  : 				return TRUE;

  00164	e9 91 00 00 00	 jmp	 $LN79@NpcTalk
$LN32@NpcTalk:

; 165  : 			}
; 166  : 			break;
; 167  : 
; 168  : 		case 233:
; 169  : 			if ( NpcAngelMessanger( lpNpc, lpObj ) == TRUE )

  00169	56		 push	 esi
  0016a	57		 push	 edi
  0016b	e8 00 00 00 00	 call	 ?NpcAngelMessanger@@YAHPAUOBJECTSTRUCT@@0@Z ; NpcAngelMessanger

; 170  : 			{
; 171  : 				return TRUE;

  00170	e9 85 00 00 00	 jmp	 $LN79@NpcTalk
$LN30@NpcTalk:

; 172  : 			}
; 173  : 			break;
; 174  : 
; 175  : 		case 255:
; 176  : 			if ( NpcRolensiaMadam( lpNpc, lpObj ) == TRUE )

  00175	56		 push	 esi
  00176	57		 push	 edi
  00177	e8 00 00 00 00	 call	 ?NpcRolensiaMadam@@YAHPAUOBJECTSTRUCT@@0@Z ; NpcRolensiaMadam

; 177  : 			{
; 178  : 				return TRUE;

  0017c	eb 7c		 jmp	 SHORT $LN79@NpcTalk
$LN28@NpcTalk:

; 179  : 			}
; 180  : 			break;
; 181  : 
; 182  : 		case 250:
; 183  : 			if ( NpcRoadMerchant( lpNpc, lpObj ) == TRUE )

  0017e	56		 push	 esi
  0017f	57		 push	 edi
  00180	e8 00 00 00 00	 call	 ?NpcRoadMerchant@@YAHPAUOBJECTSTRUCT@@0@Z ; NpcRoadMerchant

; 184  : 			{
; 185  : 				return TRUE;

  00185	eb 73		 jmp	 SHORT $LN79@NpcTalk
$LN26@NpcTalk:

; 186  : 			}
; 187  : 			break;
; 188  : 
; 189  : 		case 246:
; 190  : 			if ( NpcDeviasWeapon( lpNpc, lpObj ) == TRUE )

  00187	56		 push	 esi
  00188	57		 push	 edi
  00189	e8 00 00 00 00	 call	 ?NpcDeviasWeapon@@YAHPAUOBJECTSTRUCT@@0@Z ; NpcDeviasWeapon

; 191  : 			{
; 192  : 				return TRUE;

  0018e	eb 6a		 jmp	 SHORT $LN79@NpcTalk
$LN24@NpcTalk:

; 193  : 			}
; 194  : 			break;
; 195  : 
; 196  : 		case 251:
; 197  : 			if ( NpcRorensiaSmith( lpNpc, lpObj ) == TRUE )

  00190	56		 push	 esi
  00191	57		 push	 edi
  00192	e8 00 00 00 00	 call	 ?NpcRorensiaSmith@@YAHPAUOBJECTSTRUCT@@0@Z ; NpcRorensiaSmith

; 198  : 			{
; 199  : 				return TRUE;

  00197	eb 61		 jmp	 SHORT $LN79@NpcTalk
$LN22@NpcTalk:

; 200  : 			}
; 201  : 			break;
; 202  : 
; 203  : 		case 243:
; 204  : 			if ( NpcNoriJangIn( lpNpc, lpObj ) == TRUE )

  00199	56		 push	 esi
  0019a	57		 push	 edi
  0019b	e8 00 00 00 00	 call	 ?NpcNoriJangIn@@YAHPAUOBJECTSTRUCT@@0@Z ; NpcNoriJangIn

; 205  : 			{
; 206  : 				return TRUE;

  001a0	eb 58		 jmp	 SHORT $LN79@NpcTalk
$LN20@NpcTalk:

; 207  : 			}
; 208  : 			break;
; 209  : 
; 210  : 		case 256:
; 211  : 			if ( NpcJewelMixDealer( lpNpc, lpObj ) == TRUE )

  001a2	56		 push	 esi
  001a3	57		 push	 edi
  001a4	e8 00 00 00 00	 call	 ?NpcJewelMixDealer@@YAHPAUOBJECTSTRUCT@@0@Z ; NpcJewelMixDealer

; 212  : 			{
; 213  : 				return TRUE;

  001a9	eb 4f		 jmp	 SHORT $LN79@NpcTalk
$LN18@NpcTalk:

; 214  : 			}
; 215  : 			break;
; 216  : 
; 217  : 		case 221:
; 218  : 			if ( NpcSiegeMachine_Attack( lpNpc, lpObj ) == TRUE )

  001ab	56		 push	 esi
  001ac	57		 push	 edi
  001ad	e8 00 00 00 00	 call	 ?NpcSiegeMachine_Attack@@YAHPAUOBJECTSTRUCT@@0@Z ; NpcSiegeMachine_Attack

; 219  : 			{
; 220  : 				return TRUE;

  001b2	eb 46		 jmp	 SHORT $LN79@NpcTalk
$LN16@NpcTalk:

; 221  : 			}
; 222  : 			break;
; 223  : 
; 224  : 		case 222:
; 225  : 			if ( NpcSiegeMachine_Defense( lpNpc, lpObj ) == TRUE )

  001b4	56		 push	 esi
  001b5	57		 push	 edi
  001b6	e8 00 00 00 00	 call	 ?NpcSiegeMachine_Defense@@YAHPAUOBJECTSTRUCT@@0@Z ; NpcSiegeMachine_Defense

; 226  : 			{
; 227  : 				return TRUE;

  001bb	eb 3d		 jmp	 SHORT $LN79@NpcTalk
$LN14@NpcTalk:

; 228  : 			}
; 229  : 			break;
; 230  : 
; 231  : 		case 223:
; 232  : 			if ( NpcElderCircle( lpNpc, lpObj ) == TRUE )

  001bd	56		 push	 esi
  001be	57		 push	 edi
  001bf	e8 00 00 00 00	 call	 ?NpcElderCircle@@YAHPAUOBJECTSTRUCT@@0@Z ; NpcElderCircle

; 233  : 			{
; 234  : 				return TRUE;

  001c4	eb 34		 jmp	 SHORT $LN79@NpcTalk
$LN12@NpcTalk:

; 235  : 			}
; 236  : 			break;
; 237  : 
; 238  : 		case 224:
; 239  : 			if ( NpcCastleGuard( lpNpc, lpObj ) == TRUE )

  001c6	56		 push	 esi
  001c7	57		 push	 edi
  001c8	e8 00 00 00 00	 call	 ?NpcCastleGuard@@YAHPAUOBJECTSTRUCT@@0@Z ; NpcCastleGuard

; 240  : 			{
; 241  : 				return TRUE;

  001cd	eb 2b		 jmp	 SHORT $LN79@NpcTalk
$LN10@NpcTalk:

; 242  : 			}
; 243  : 			break;
; 244  : 
; 245  : 		case 219:
; 246  : 			if ( NpcCastleGateLever( lpNpc, lpObj ) == TRUE )

  001cf	56		 push	 esi
  001d0	57		 push	 edi
  001d1	e8 00 00 00 00	 call	 ?NpcCastleGateLever@@YAHPAUOBJECTSTRUCT@@0@Z ; NpcCastleGateLever

; 247  : 			{
; 248  : 				return TRUE;

  001d6	eb 22		 jmp	 SHORT $LN79@NpcTalk
$LN8@NpcTalk:

; 249  : 			}
; 250  : 			break;
; 251  : 
; 252  : 		case 216:
; 253  : 			if ( NpcCastleCrown( lpNpc, lpObj ) == TRUE )

  001d8	56		 push	 esi
  001d9	57		 push	 edi
  001da	e8 00 00 00 00	 call	 ?NpcCastleCrown@@YAHPAUOBJECTSTRUCT@@0@Z ; NpcCastleCrown

; 254  : 			{
; 255  : 				return TRUE;

  001df	eb 19		 jmp	 SHORT $LN79@NpcTalk
$LN6@NpcTalk:

; 256  : 			}
; 257  : 			break;
; 258  : 
; 259  : 		case 217:
; 260  : 		case 218:
; 261  : 			if ( NpcCastleSwitch( lpNpc, lpObj ) == TRUE )

  001e1	56		 push	 esi
  001e2	57		 push	 edi
  001e3	e8 00 00 00 00	 call	 ?NpcCastleSwitch@@YAHPAUOBJECTSTRUCT@@0@Z ; NpcCastleSwitch

; 262  : 			{
; 263  : 				return TRUE;

  001e8	eb 10		 jmp	 SHORT $LN79@NpcTalk
$LN4@NpcTalk:

; 264  : 			}
; 265  : 			break;
; 266  : 
; 267  : 		case 257:
; 268  : 			if ( NpcShadowPhantom( lpNpc, lpObj ) == TRUE )

  001ea	56		 push	 esi
  001eb	57		 push	 edi
  001ec	e8 00 00 00 00	 call	 ?NpcShadowPhantom@@YAHPAUOBJECTSTRUCT@@0@Z ; NpcShadowPhantom

; 269  : 			{
; 270  : 				return TRUE;

  001f1	eb 07		 jmp	 SHORT $LN79@NpcTalk
$LN2@NpcTalk:

; 271  : 			}
; 272  : 			break;
; 273  : 
; 274  : 		case 368:
; 275  : 		case 369:
; 276  : 		case 370:
; 277  : 		case 375:
; 278  : 			if ( NpcChaosCardMaster( lpNpc, lpObj ) == TRUE )

  001f3	56		 push	 esi
  001f4	57		 push	 edi
  001f5	e8 00 00 00 00	 call	 ?NpcChaosCardMaster@@YAHPAUOBJECTSTRUCT@@0@Z ; NpcChaosCardMaster
$LN79@NpcTalk:
  001fa	83 c4 08	 add	 esp, 8
  001fd	83 f8 01	 cmp	 eax, 1
  00200	75 0a		 jne	 SHORT $LN1@NpcTalk
$LN80@NpcTalk:
  00202	5e		 pop	 esi
  00203	5f		 pop	 edi

; 279  : 			{
; 280  : 				return TRUE;

  00204	b8 01 00 00 00	 mov	 eax, 1
  00209	5b		 pop	 ebx

; 286  : }

  0020a	5d		 pop	 ebp
  0020b	c3		 ret	 0
$LN1@NpcTalk:
  0020c	5e		 pop	 esi
  0020d	5f		 pop	 edi

; 281  : 			}
; 282  : 			break;
; 283  : 	}
; 284  : 
; 285  : 	return FALSE;

  0020e	33 c0		 xor	 eax, eax
  00210	5b		 pop	 ebx

; 286  : }

  00211	5d		 pop	 ebp
  00212	c3		 ret	 0
  00213	90		 npad	 1
$LN81@NpcTalk:
  00214	00 00 00 00	 DD	 $LN8@NpcTalk
  00218	00 00 00 00	 DD	 $LN6@NpcTalk
  0021c	00 00 00 00	 DD	 $LN10@NpcTalk
  00220	00 00 00 00	 DD	 $LN18@NpcTalk
  00224	00 00 00 00	 DD	 $LN16@NpcTalk
  00228	00 00 00 00	 DD	 $LN14@NpcTalk
  0022c	00 00 00 00	 DD	 $LN12@NpcTalk
  00230	00 00 00 00	 DD	 $LN44@NpcTalk
  00234	00 00 00 00	 DD	 $LN34@NpcTalk
  00238	00 00 00 00	 DD	 $LN32@NpcTalk
  0023c	00 00 00 00	 DD	 $LN36@NpcTalk
  00240	00 00 00 00	 DD	 $LN38@NpcTalk
  00244	00 00 00 00	 DD	 $LN54@NpcTalk
  00248	00 00 00 00	 DD	 $LN56@NpcTalk
  0024c	00 00 00 00	 DD	 $LN60@NpcTalk
  00250	00 00 00 00	 DD	 $LN46@NpcTalk
  00254	00 00 00 00	 DD	 $LN62@NpcTalk
  00258	00 00 00 00	 DD	 $LN42@NpcTalk
  0025c	00 00 00 00	 DD	 $LN22@NpcTalk
  00260	00 00 00 00	 DD	 $LN40@NpcTalk
  00264	00 00 00 00	 DD	 $LN50@NpcTalk
  00268	00 00 00 00	 DD	 $LN26@NpcTalk
  0026c	00 00 00 00	 DD	 $LN48@NpcTalk
  00270	00 00 00 00	 DD	 $LN58@NpcTalk
  00274	00 00 00 00	 DD	 $LN28@NpcTalk
  00278	00 00 00 00	 DD	 $LN24@NpcTalk
  0027c	00 00 00 00	 DD	 $LN52@NpcTalk
  00280	00 00 00 00	 DD	 $LN64@NpcTalk
  00284	00 00 00 00	 DD	 $LN30@NpcTalk
  00288	00 00 00 00	 DD	 $LN20@NpcTalk
  0028c	00 00 00 00	 DD	 $LN4@NpcTalk
  00290	00 00 00 00	 DD	 $LN66@NpcTalk
  00294	00 00 00 00	 DD	 $LN2@NpcTalk
  00298	00 00 00 00	 DD	 $LN1@NpcTalk
$LN77@NpcTalk:
  0029c	00		 DB	 0
  0029d	01		 DB	 1
  0029e	01		 DB	 1
  0029f	02		 DB	 2
  002a0	21		 DB	 33			; 00000021H
  002a1	03		 DB	 3
  002a2	04		 DB	 4
  002a3	05		 DB	 5
  002a4	06		 DB	 6
  002a5	21		 DB	 33			; 00000021H
  002a6	07		 DB	 7
  002a7	21		 DB	 33			; 00000021H
  002a8	21		 DB	 33			; 00000021H
  002a9	21		 DB	 33			; 00000021H
  002aa	21		 DB	 33			; 00000021H
  002ab	21		 DB	 33			; 00000021H
  002ac	08		 DB	 8
  002ad	09		 DB	 9
  002ae	0a		 DB	 10			; 0000000aH
  002af	21		 DB	 33			; 00000021H
  002b0	0b		 DB	 11			; 0000000bH
  002b1	0c		 DB	 12			; 0000000cH
  002b2	0d		 DB	 13			; 0000000dH
  002b3	0e		 DB	 14			; 0000000eH
  002b4	0f		 DB	 15			; 0000000fH
  002b5	10		 DB	 16			; 00000010H
  002b6	11		 DB	 17			; 00000011H
  002b7	12		 DB	 18			; 00000012H
  002b8	13		 DB	 19			; 00000013H
  002b9	14		 DB	 20			; 00000014H
  002ba	15		 DB	 21			; 00000015H
  002bb	16		 DB	 22			; 00000016H
  002bc	21		 DB	 33			; 00000021H
  002bd	17		 DB	 23			; 00000017H
  002be	18		 DB	 24			; 00000018H
  002bf	19		 DB	 25			; 00000019H
  002c0	21		 DB	 33			; 00000021H
  002c1	1a		 DB	 26			; 0000001aH
  002c2	1b		 DB	 27			; 0000001bH
  002c3	1c		 DB	 28			; 0000001cH
  002c4	1d		 DB	 29			; 0000001dH
  002c5	1e		 DB	 30			; 0000001eH
  002c6	21		 DB	 33			; 00000021H
  002c7	1f		 DB	 31			; 0000001fH
  002c8	21		 DB	 33			; 00000021H
  002c9	21		 DB	 33			; 00000021H
  002ca	21		 DB	 33			; 00000021H
  002cb	21		 DB	 33			; 00000021H
  002cc	21		 DB	 33			; 00000021H
  002cd	21		 DB	 33			; 00000021H
  002ce	21		 DB	 33			; 00000021H
  002cf	21		 DB	 33			; 00000021H
  002d0	21		 DB	 33			; 00000021H
  002d1	21		 DB	 33			; 00000021H
  002d2	21		 DB	 33			; 00000021H
  002d3	21		 DB	 33			; 00000021H
  002d4	21		 DB	 33			; 00000021H
  002d5	21		 DB	 33			; 00000021H
  002d6	21		 DB	 33			; 00000021H
  002d7	21		 DB	 33			; 00000021H
  002d8	21		 DB	 33			; 00000021H
  002d9	21		 DB	 33			; 00000021H
  002da	21		 DB	 33			; 00000021H
  002db	21		 DB	 33			; 00000021H
  002dc	21		 DB	 33			; 00000021H
  002dd	21		 DB	 33			; 00000021H
  002de	21		 DB	 33			; 00000021H
  002df	21		 DB	 33			; 00000021H
  002e0	21		 DB	 33			; 00000021H
  002e1	21		 DB	 33			; 00000021H
  002e2	21		 DB	 33			; 00000021H
  002e3	21		 DB	 33			; 00000021H
  002e4	21		 DB	 33			; 00000021H
  002e5	21		 DB	 33			; 00000021H
  002e6	21		 DB	 33			; 00000021H
  002e7	21		 DB	 33			; 00000021H
  002e8	21		 DB	 33			; 00000021H
  002e9	21		 DB	 33			; 00000021H
  002ea	21		 DB	 33			; 00000021H
  002eb	21		 DB	 33			; 00000021H
  002ec	21		 DB	 33			; 00000021H
  002ed	21		 DB	 33			; 00000021H
  002ee	21		 DB	 33			; 00000021H
  002ef	21		 DB	 33			; 00000021H
  002f0	21		 DB	 33			; 00000021H
  002f1	21		 DB	 33			; 00000021H
  002f2	21		 DB	 33			; 00000021H
  002f3	21		 DB	 33			; 00000021H
  002f4	21		 DB	 33			; 00000021H
  002f5	21		 DB	 33			; 00000021H
  002f6	21		 DB	 33			; 00000021H
  002f7	21		 DB	 33			; 00000021H
  002f8	21		 DB	 33			; 00000021H
  002f9	21		 DB	 33			; 00000021H
  002fa	21		 DB	 33			; 00000021H
  002fb	21		 DB	 33			; 00000021H
  002fc	21		 DB	 33			; 00000021H
  002fd	21		 DB	 33			; 00000021H
  002fe	21		 DB	 33			; 00000021H
  002ff	21		 DB	 33			; 00000021H
  00300	21		 DB	 33			; 00000021H
  00301	21		 DB	 33			; 00000021H
  00302	21		 DB	 33			; 00000021H
  00303	21		 DB	 33			; 00000021H
  00304	21		 DB	 33			; 00000021H
  00305	21		 DB	 33			; 00000021H
  00306	21		 DB	 33			; 00000021H
  00307	21		 DB	 33			; 00000021H
  00308	21		 DB	 33			; 00000021H
  00309	21		 DB	 33			; 00000021H
  0030a	21		 DB	 33			; 00000021H
  0030b	21		 DB	 33			; 00000021H
  0030c	21		 DB	 33			; 00000021H
  0030d	21		 DB	 33			; 00000021H
  0030e	21		 DB	 33			; 00000021H
  0030f	21		 DB	 33			; 00000021H
  00310	21		 DB	 33			; 00000021H
  00311	21		 DB	 33			; 00000021H
  00312	21		 DB	 33			; 00000021H
  00313	21		 DB	 33			; 00000021H
  00314	21		 DB	 33			; 00000021H
  00315	21		 DB	 33			; 00000021H
  00316	21		 DB	 33			; 00000021H
  00317	21		 DB	 33			; 00000021H
  00318	21		 DB	 33			; 00000021H
  00319	21		 DB	 33			; 00000021H
  0031a	21		 DB	 33			; 00000021H
  0031b	21		 DB	 33			; 00000021H
  0031c	21		 DB	 33			; 00000021H
  0031d	21		 DB	 33			; 00000021H
  0031e	21		 DB	 33			; 00000021H
  0031f	21		 DB	 33			; 00000021H
  00320	21		 DB	 33			; 00000021H
  00321	21		 DB	 33			; 00000021H
  00322	21		 DB	 33			; 00000021H
  00323	21		 DB	 33			; 00000021H
  00324	21		 DB	 33			; 00000021H
  00325	21		 DB	 33			; 00000021H
  00326	21		 DB	 33			; 00000021H
  00327	21		 DB	 33			; 00000021H
  00328	21		 DB	 33			; 00000021H
  00329	21		 DB	 33			; 00000021H
  0032a	21		 DB	 33			; 00000021H
  0032b	21		 DB	 33			; 00000021H
  0032c	21		 DB	 33			; 00000021H
  0032d	21		 DB	 33			; 00000021H
  0032e	21		 DB	 33			; 00000021H
  0032f	21		 DB	 33			; 00000021H
  00330	21		 DB	 33			; 00000021H
  00331	21		 DB	 33			; 00000021H
  00332	21		 DB	 33			; 00000021H
  00333	21		 DB	 33			; 00000021H
  00334	20		 DB	 32			; 00000020H
  00335	20		 DB	 32			; 00000020H
  00336	20		 DB	 32			; 00000020H
  00337	21		 DB	 33			; 00000021H
  00338	21		 DB	 33			; 00000021H
  00339	21		 DB	 33			; 00000021H
  0033a	21		 DB	 33			; 00000021H
  0033b	20		 DB	 32			; 00000020H
?NpcTalk@@YAHPAUOBJECTSTRUCT@@0@Z ENDP			; NpcTalk
_TEXT	ENDS
END
