; Listing generated by Microsoft (R) Optimizing Compiler Version 16.00.30319.01 

	TITLE	C:\Users\faelhs\mu-1.1\eMu - GameServer Sapphire S0\GameServer\ObjCalCharacter.cpp
	.686P
	.XMM
	include listing.inc
	.model	flat

INCLUDELIB LIBCMT
INCLUDELIB OLDNAMES

PUBLIC	__real@4059000000000000
PUBLIC	__real@00000000
PUBLIC	__$ArrayPad$
PUBLIC	?gObjExtItemApply@@YAXPAUOBJECTSTRUCT@@@Z	; gObjExtItemApply
EXTRN	?IsExtDamageReflect@CItem@@QAEHXZ:PROC		; CItem::IsExtDamageReflect
EXTRN	?IsExtDamageMinus@CItem@@QAEHXZ:PROC		; CItem::IsExtDamageMinus
EXTRN	?IsExtMonsterMoney@CItem@@QAEHXZ:PROC		; CItem::IsExtMonsterMoney
EXTRN	?IsExtDefenseSuccessfull@CItem@@QAEHXZ:PROC	; CItem::IsExtDefenseSuccessfull
EXTRN	?IsExtManaAdd@CItem@@QAEHXZ:PROC		; CItem::IsExtManaAdd
EXTRN	?IsExtLifeAdd@CItem@@QAEHXZ:PROC		; CItem::IsExtLifeAdd
EXTRN	?IsExtItem@CItem@@QAEHXZ:PROC			; CItem::IsExtItem
EXTRN	?IsExtMonsterDieMana@CItem@@QAEHXZ:PROC		; CItem::IsExtMonsterDieMana
EXTRN	?IsExtMonsterDieLife@CItem@@QAEHXZ:PROC		; CItem::IsExtMonsterDieLife
EXTRN	?IsExtAttackSpeed@CItem@@QAEHXZ:PROC		; CItem::IsExtAttackSpeed
EXTRN	?IsExtExcellentDamage@CItem@@QAEHXZ:PROC	; CItem::IsExtExcellentDamage
EXTRN	?IsExtAttackRate2@CItem@@QAEHXZ:PROC		; CItem::IsExtAttackRate2
EXTRN	?IsExtAttackRate@CItem@@QAEHXZ:PROC		; CItem::IsExtAttackRate
EXTRN	?IsItem@CItem@@QAEHXZ:PROC			; CItem::IsItem
EXTRN	___security_cookie:DWORD
EXTRN	__fltused:DWORD
EXTRN	@__security_check_cookie@4:PROC
EXTRN	__ftol2_sse:PROC
;	COMDAT __real@4059000000000000
; File c:\users\faelhs\mu-1.1\emu - gameserver sapphire s0\gameserver\objcalcharacter.cpp
CONST	SEGMENT
__real@4059000000000000 DQ 04059000000000000r	; 100
CONST	ENDS
;	COMDAT __real@00000000
CONST	SEGMENT
__real@00000000 DD 000000000r			; 0
; Function compile flags: /Ogtp
CONST	ENDS
;	COMDAT ?gObjExtItemApply@@YAXPAUOBJECTSTRUCT@@@Z
_TEXT	SEGMENT
tv640 = -72						; size = 4
tv633 = -72						; size = 4
_max_count$ = -68					; size = 4
_maxn2_loop$ = -64					; size = 4
_i$ = -60						; size = 4
_temp_n2$ = -56						; size = 40
_temp_n$ = -16						; size = 12
__$ArrayPad$ = -4					; size = 4
_lpObj$ = 8						; size = 4
?gObjExtItemApply@@YAXPAUOBJECTSTRUCT@@@Z PROC		; gObjExtItemApply, COMDAT

; 725  : {

  00000	55		 push	 ebp
  00001	8b ec		 mov	 ebp, esp
  00003	83 ec 48	 sub	 esp, 72			; 00000048H
  00006	a1 00 00 00 00	 mov	 eax, DWORD PTR ___security_cookie
  0000b	33 c5		 xor	 eax, ebp
  0000d	89 45 fc	 mov	 DWORD PTR __$ArrayPad$[ebp], eax
  00010	53		 push	 ebx

; 726  : 
; 727  : 	int n;
; 728  : 	int i;
; 729  : 	int max_count = 0;

  00011	33 c0		 xor	 eax, eax
  00013	56		 push	 esi
  00014	8b 75 08	 mov	 esi, DWORD PTR _lpObj$[ebp]

; 730  : 	int temp_n[3] = {0, 1, 9};

  00017	b9 01 00 00 00	 mov	 ecx, 1
  0001c	ba 09 00 00 00	 mov	 edx, 9
  00021	57		 push	 edi
  00022	89 45 bc	 mov	 DWORD PTR _max_count$[ebp], eax
  00025	89 45 f0	 mov	 DWORD PTR _temp_n$[ebp], eax
  00028	89 4d f4	 mov	 DWORD PTR _temp_n$[ebp+4], ecx
  0002b	89 55 f8	 mov	 DWORD PTR _temp_n$[ebp+8], edx

; 731  : 	int temp_n2[10] = {2, 3, 4, 5, 6, 7, 8, 10, 11, 1};

  0002e	c7 45 c8 02 00
	00 00		 mov	 DWORD PTR _temp_n2$[ebp], 2
  00035	c7 45 cc 03 00
	00 00		 mov	 DWORD PTR _temp_n2$[ebp+4], 3
  0003c	c7 45 d0 04 00
	00 00		 mov	 DWORD PTR _temp_n2$[ebp+8], 4
  00043	c7 45 d4 05 00
	00 00		 mov	 DWORD PTR _temp_n2$[ebp+12], 5
  0004a	c7 45 d8 06 00
	00 00		 mov	 DWORD PTR _temp_n2$[ebp+16], 6
  00051	c7 45 dc 07 00
	00 00		 mov	 DWORD PTR _temp_n2$[ebp+20], 7
  00058	c7 45 e0 08 00
	00 00		 mov	 DWORD PTR _temp_n2$[ebp+24], 8
  0005f	c7 45 e4 0a 00
	00 00		 mov	 DWORD PTR _temp_n2$[ebp+28], 10 ; 0000000aH
  00066	c7 45 e8 0b 00
	00 00		 mov	 DWORD PTR _temp_n2$[ebp+32], 11 ; 0000000bH
  0006d	89 4d ec	 mov	 DWORD PTR _temp_n2$[ebp+36], ecx

; 732  : 	int maxn2_loop = 9;

  00070	89 55 c0	 mov	 DWORD PTR _maxn2_loop$[ebp], edx

; 733  : 
; 734  : 	for ( i=0;i<3;i++ )

  00073	89 45 c4	 mov	 DWORD PTR _i$[ebp], eax
  00076	eb 08 8d a4 24
	00 00 00 00 90	 npad	 10
$LL50@gObjExtIte:

; 735  : 	{
; 736  : 		n = temp_n[i];

  00080	8b 45 c4	 mov	 eax, DWORD PTR _i$[ebp]
  00083	8b 5c 85 f0	 mov	 ebx, DWORD PTR _temp_n$[ebp+eax*4]

; 737  : 
; 738  : 		if ( lpObj->pInventory[n].m_Type >= ITEMGET(6, 0) && lpObj->pInventory[n].m_Type < ITEMGET(7, 0) )

  00087	8b 8e 8c 0c 00
	00		 mov	 ecx, DWORD PTR [esi+3212]
  0008d	8b fb		 mov	 edi, ebx
  0008f	69 ff a8 00 00
	00		 imul	 edi, 168		; 000000a8H
  00095	0f b7 44 39 06	 movzx	 eax, WORD PTR [ecx+edi+6]
  0009a	03 cf		 add	 ecx, edi
  0009c	ba 00 0c 00 00	 mov	 edx, 3072		; 00000c00H
  000a1	66 3b c2	 cmp	 ax, dx
  000a4	7c 0e		 jl	 SHORT $LN30@gObjExtIte
  000a6	ba 00 0e 00 00	 mov	 edx, 3584		; 00000e00H
  000ab	66 3b c2	 cmp	 ax, dx
  000ae	0f 8c fb 02 00
	00		 jl	 $LN32@gObjExtIte
$LN30@gObjExtIte:

; 739  : 			continue;
; 740  : 
; 741  : 		if ( lpObj->pInventory[n].IsItem() == TRUE )

  000b4	e8 00 00 00 00	 call	 ?IsItem@CItem@@QAEHXZ	; CItem::IsItem
  000b9	83 f8 01	 cmp	 eax, 1
  000bc	0f 85 ed 02 00
	00		 jne	 $LN32@gObjExtIte

; 742  : 		{
; 743  : 			if ( lpObj->pInventory[n].m_Durability != 0.0f )

  000c2	8b 86 8c 0c 00
	00		 mov	 eax, DWORD PTR [esi+3212]
  000c8	d9 44 07 24	 fld	 DWORD PTR [edi+eax+36]
  000cc	8d 0c 07	 lea	 ecx, DWORD PTR [edi+eax]
  000cf	d9 ee		 fldz
  000d1	da e9		 fucompp
  000d3	df e0		 fnstsw	 ax
  000d5	f6 c4 44	 test	 ah, 68			; 00000044H
  000d8	0f 8b d1 02 00
	00		 jnp	 $LN32@gObjExtIte

; 744  : 			{
; 745  : 				if ( lpObj->pInventory[n].m_IsValidItem == true )

  000de	80 b9 94 00 00
	00 01		 cmp	 BYTE PTR [ecx+148], 1
  000e5	0f 85 c4 02 00
	00		 jne	 $LN32@gObjExtIte

; 746  : 				{
; 747  : 					if ( lpObj->pInventory[n].IsExtAttackRate() )

  000eb	e8 00 00 00 00	 call	 ?IsExtAttackRate@CItem@@QAEHXZ ; CItem::IsExtAttackRate
  000f0	85 c0		 test	 eax, eax
  000f2	0f 84 be 00 00
	00		 je	 $LN44@gObjExtIte

; 748  : 					{
; 749  : 						if ( ( lpObj->pInventory[n].m_Type >= ITEMGET(5, 0) && lpObj->pInventory[n].m_Type < ITEMGET(6, 0) ) ||
; 750  : 							lpObj->pInventory[n].m_Type == ITEMGET(13,12) ||
; 751  : 							lpObj->pInventory[n].m_Type == ITEMGET(13,25) ||
; 752  : 							lpObj->pInventory[n].m_Type == ITEMGET(13,27) )

  000f8	8b 8e 8c 0c 00
	00		 mov	 ecx, DWORD PTR [esi+3212]
  000fe	0f b7 44 0f 06	 movzx	 eax, WORD PTR [edi+ecx+6]
  00103	ba 00 0a 00 00	 mov	 edx, 2560		; 00000a00H
  00108	66 3b c2	 cmp	 ax, dx
  0010b	7c 0a		 jl	 SHORT $LN23@gObjExtIte
  0010d	b9 00 0c 00 00	 mov	 ecx, 3072		; 00000c00H
  00112	66 3b c1	 cmp	 ax, cx
  00115	7c 7b		 jl	 SHORT $LN41@gObjExtIte
$LN23@gObjExtIte:
  00117	ba 0c 1a 00 00	 mov	 edx, 6668		; 00001a0cH
  0011c	66 3b c2	 cmp	 ax, dx
  0011f	74 71		 je	 SHORT $LN41@gObjExtIte
  00121	b9 19 1a 00 00	 mov	 ecx, 6681		; 00001a19H
  00126	66 3b c1	 cmp	 ax, cx
  00129	74 67		 je	 SHORT $LN41@gObjExtIte
  0012b	ba 1b 1a 00 00	 mov	 edx, 6683		; 00001a1bH
  00130	66 3b c2	 cmp	 ax, dx
  00133	74 5d		 je	 SHORT $LN41@gObjExtIte

; 756  : 						}
; 757  : 						else 
; 758  : 						{
; 759  : 							if ( n == 0 || n == 9 )

  00135	85 db		 test	 ebx, ebx
  00137	74 05		 je	 SHORT $LN20@gObjExtIte
  00139	83 fb 09	 cmp	 ebx, 9
  0013c	75 24		 jne	 SHORT $LN40@gObjExtIte
$LN20@gObjExtIte:

; 760  : 							{
; 761  : 								lpObj->m_AttackDamageMinRight += lpObj->Level / 20;

  0013e	0f bf 8e 9c 00
	00 00		 movsx	 ecx, WORD PTR [esi+156]
  00145	b8 67 66 66 66	 mov	 eax, 1717986919		; 66666667H
  0014a	f7 e9		 imul	 ecx
  0014c	c1 fa 03	 sar	 edx, 3
  0014f	8b c2		 mov	 eax, edx
  00151	c1 e8 1f	 shr	 eax, 31			; 0000001fH
  00154	03 c2		 add	 eax, edx
  00156	01 86 00 03 00
	00		 add	 DWORD PTR [esi+768], eax

; 762  : 								lpObj->m_AttackDamageMaxRight += lpObj->Level / 20;

  0015c	01 86 fc 02 00
	00		 add	 DWORD PTR [esi+764], eax
$LN40@gObjExtIte:

; 763  : 							}
; 764  : 							
; 765  : 							if ( n == 1 || n == 9 )

  00162	83 fb 01	 cmp	 ebx, 1
  00165	74 05		 je	 SHORT $LN18@gObjExtIte
  00167	83 fb 09	 cmp	 ebx, 9
  0016a	75 4a		 jne	 SHORT $LN44@gObjExtIte
$LN18@gObjExtIte:

; 766  : 							{
; 767  : 								lpObj->m_AttackDamageMinLeft += lpObj->Level / 20;

  0016c	0f bf 8e 9c 00
	00 00		 movsx	 ecx, WORD PTR [esi+156]
  00173	b8 67 66 66 66	 mov	 eax, 1717986919		; 66666667H
  00178	f7 e9		 imul	 ecx
  0017a	c1 fa 03	 sar	 edx, 3
  0017d	8b c2		 mov	 eax, edx
  0017f	c1 e8 1f	 shr	 eax, 31			; 0000001fH
  00182	03 c2		 add	 eax, edx
  00184	01 86 f8 02 00
	00		 add	 DWORD PTR [esi+760], eax

; 768  : 								lpObj->m_AttackDamageMaxLeft += lpObj->Level / 20;

  0018a	01 86 f4 02 00
	00		 add	 DWORD PTR [esi+756], eax
  00190	eb 24		 jmp	 SHORT $LN44@gObjExtIte
$LN41@gObjExtIte:

; 753  : 						{
; 754  : 							lpObj->m_MagicDamageMax += lpObj->Level / 20;

  00192	0f bf 8e 9c 00
	00 00		 movsx	 ecx, WORD PTR [esi+156]
  00199	b8 67 66 66 66	 mov	 eax, 1717986919		; 66666667H
  0019e	f7 e9		 imul	 ecx
  001a0	c1 fa 03	 sar	 edx, 3
  001a3	8b c2		 mov	 eax, edx
  001a5	c1 e8 1f	 shr	 eax, 31			; 0000001fH
  001a8	03 c2		 add	 eax, edx
  001aa	01 86 e8 02 00
	00		 add	 DWORD PTR [esi+744], eax

; 755  : 							lpObj->m_MagicDamageMin += lpObj->Level / 20;

  001b0	01 86 e4 02 00
	00		 add	 DWORD PTR [esi+740], eax
$LN44@gObjExtIte:

; 769  : 							}
; 770  : 						}
; 771  : 					}
; 772  : 
; 773  : 					if ( lpObj->pInventory[n].IsExtAttackRate2() )

  001b6	8b 8e 8c 0c 00
	00		 mov	 ecx, DWORD PTR [esi+3212]
  001bc	03 cf		 add	 ecx, edi
  001be	e8 00 00 00 00	 call	 ?IsExtAttackRate2@CItem@@QAEHXZ ; CItem::IsExtAttackRate2
  001c3	85 c0		 test	 eax, eax
  001c5	0f 84 85 01 00
	00		 je	 $LN51@gObjExtIte

; 774  : 					{
; 775  : 						if ( ( lpObj->pInventory[n].m_Type >= ITEMGET(5, 0) && lpObj->pInventory[n].m_Type < ITEMGET(6, 0) ) ||
; 776  : 							lpObj->pInventory[n].m_Type == ITEMGET(13,12) ||
; 777  : 							lpObj->pInventory[n].m_Type == ITEMGET(13,25) ||
; 778  : 							lpObj->pInventory[n].m_Type == ITEMGET(13,27) )

  001cb	8b 86 8c 0c 00
	00		 mov	 eax, DWORD PTR [esi+3212]
  001d1	8d 0c 07	 lea	 ecx, DWORD PTR [edi+eax]
  001d4	0f b7 41 06	 movzx	 eax, WORD PTR [ecx+6]
  001d8	ba 00 0a 00 00	 mov	 edx, 2560		; 00000a00H
  001dd	66 3b c2	 cmp	 ax, dx
  001e0	7c 0e		 jl	 SHORT $LN14@gObjExtIte
  001e2	ba 00 0c 00 00	 mov	 edx, 3072		; 00000c00H
  001e7	66 3b c2	 cmp	 ax, dx
  001ea	0f 8c 06 01 00
	00		 jl	 $LN15@gObjExtIte
$LN14@gObjExtIte:
  001f0	ba 0c 1a 00 00	 mov	 edx, 6668		; 00001a0cH
  001f5	66 3b c2	 cmp	 ax, dx
  001f8	0f 84 f8 00 00
	00		 je	 $LN15@gObjExtIte
  001fe	ba 19 1a 00 00	 mov	 edx, 6681		; 00001a19H
  00203	66 3b c2	 cmp	 ax, dx
  00206	0f 84 ea 00 00
	00		 je	 $LN15@gObjExtIte
  0020c	ba 1b 1a 00 00	 mov	 edx, 6683		; 00001a1bH
  00211	66 3b c2	 cmp	 ax, dx
  00214	0f 84 dc 00 00
	00		 je	 $LN15@gObjExtIte

; 782  : 						}
; 783  : 						else 
; 784  : 						{
; 785  : 							if ( n == 0 || n == 9 )

  0021a	85 db		 test	 ebx, ebx
  0021c	74 05		 je	 SHORT $LN11@gObjExtIte
  0021e	83 fb 09	 cmp	 ebx, 9
  00221	75 5a		 jne	 SHORT $LN45@gObjExtIte
$LN11@gObjExtIte:

; 786  : 							{
; 787  : 								lpObj->m_AttackDamageMinRight += lpObj->m_AttackDamageMinRight * lpObj->pInventory[n].IsExtAttackRate2() / 100;

  00223	8b 9e 00 03 00
	00		 mov	 ebx, DWORD PTR [esi+768]
  00229	e8 00 00 00 00	 call	 ?IsExtAttackRate2@CItem@@QAEHXZ ; CItem::IsExtAttackRate2
  0022e	8b c8		 mov	 ecx, eax
  00230	0f af cb	 imul	 ecx, ebx
  00233	b8 1f 85 eb 51	 mov	 eax, 1374389535		; 51eb851fH
  00238	f7 e9		 imul	 ecx

; 788  : 								lpObj->m_AttackDamageMaxRight += lpObj->m_AttackDamageMaxRight * lpObj->pInventory[n].IsExtAttackRate2() / 100;

  0023a	8b 8e 8c 0c 00
	00		 mov	 ecx, DWORD PTR [esi+3212]
  00240	c1 fa 05	 sar	 edx, 5
  00243	8b c2		 mov	 eax, edx
  00245	c1 e8 1f	 shr	 eax, 31			; 0000001fH
  00248	03 c2		 add	 eax, edx
  0024a	03 c3		 add	 eax, ebx
  0024c	8b 9e fc 02 00
	00		 mov	 ebx, DWORD PTR [esi+764]
  00252	03 cf		 add	 ecx, edi
  00254	89 86 00 03 00
	00		 mov	 DWORD PTR [esi+768], eax
  0025a	e8 00 00 00 00	 call	 ?IsExtAttackRate2@CItem@@QAEHXZ ; CItem::IsExtAttackRate2
  0025f	8b c8		 mov	 ecx, eax
  00261	0f af cb	 imul	 ecx, ebx
  00264	b8 1f 85 eb 51	 mov	 eax, 1374389535		; 51eb851fH
  00269	f7 e9		 imul	 ecx
  0026b	c1 fa 05	 sar	 edx, 5
  0026e	8b ca		 mov	 ecx, edx
  00270	c1 e9 1f	 shr	 ecx, 31			; 0000001fH
  00273	03 ca		 add	 ecx, edx
  00275	03 cb		 add	 ecx, ebx
  00277	89 8e fc 02 00
	00		 mov	 DWORD PTR [esi+764], ecx
$LN45@gObjExtIte:

; 789  : 							}
; 790  : 							
; 791  : 							if ( n == 1 || n == 9 )

  0027d	8b 55 c4	 mov	 edx, DWORD PTR _i$[ebp]
  00280	8b 44 95 f0	 mov	 eax, DWORD PTR _temp_n$[ebp+edx*4]
  00284	83 f8 01	 cmp	 eax, 1
  00287	74 09		 je	 SHORT $LN9@gObjExtIte
  00289	83 f8 09	 cmp	 eax, 9
  0028c	0f 85 be 00 00
	00		 jne	 $LN51@gObjExtIte
$LN9@gObjExtIte:

; 792  : 							{
; 793  : 								lpObj->m_AttackDamageMinLeft += lpObj->m_AttackDamageMinLeft * lpObj->pInventory[n].IsExtAttackRate2() / 100;

  00292	8b 8e 8c 0c 00
	00		 mov	 ecx, DWORD PTR [esi+3212]
  00298	8b 9e f8 02 00
	00		 mov	 ebx, DWORD PTR [esi+760]
  0029e	03 cf		 add	 ecx, edi
  002a0	e8 00 00 00 00	 call	 ?IsExtAttackRate2@CItem@@QAEHXZ ; CItem::IsExtAttackRate2
  002a5	8b c8		 mov	 ecx, eax
  002a7	0f af cb	 imul	 ecx, ebx
  002aa	b8 1f 85 eb 51	 mov	 eax, 1374389535		; 51eb851fH
  002af	f7 e9		 imul	 ecx

; 794  : 								lpObj->m_AttackDamageMaxLeft += lpObj->m_AttackDamageMaxLeft * lpObj->pInventory[n].IsExtAttackRate2() / 100;

  002b1	8b 8e 8c 0c 00
	00		 mov	 ecx, DWORD PTR [esi+3212]
  002b7	c1 fa 05	 sar	 edx, 5
  002ba	8b c2		 mov	 eax, edx
  002bc	c1 e8 1f	 shr	 eax, 31			; 0000001fH
  002bf	03 c2		 add	 eax, edx
  002c1	03 c3		 add	 eax, ebx
  002c3	8b 9e f4 02 00
	00		 mov	 ebx, DWORD PTR [esi+756]
  002c9	03 cf		 add	 ecx, edi
  002cb	89 86 f8 02 00
	00		 mov	 DWORD PTR [esi+760], eax
  002d1	e8 00 00 00 00	 call	 ?IsExtAttackRate2@CItem@@QAEHXZ ; CItem::IsExtAttackRate2
  002d6	8b c8		 mov	 ecx, eax
  002d8	0f af cb	 imul	 ecx, ebx
  002db	b8 1f 85 eb 51	 mov	 eax, 1374389535		; 51eb851fH
  002e0	f7 e9		 imul	 ecx
  002e2	c1 fa 05	 sar	 edx, 5
  002e5	8b ca		 mov	 ecx, edx
  002e7	c1 e9 1f	 shr	 ecx, 31			; 0000001fH
  002ea	03 ca		 add	 ecx, edx
  002ec	03 cb		 add	 ecx, ebx
  002ee	89 8e f4 02 00
	00		 mov	 DWORD PTR [esi+756], ecx
  002f4	eb 5a		 jmp	 SHORT $LN51@gObjExtIte
$LN15@gObjExtIte:

; 779  : 						{
; 780  : 							lpObj->m_MagicDamageMax += lpObj->m_MagicDamageMax * lpObj->pInventory[n].IsExtAttackRate2() / 100;

  002f6	8b 9e e8 02 00
	00		 mov	 ebx, DWORD PTR [esi+744]
  002fc	e8 00 00 00 00	 call	 ?IsExtAttackRate2@CItem@@QAEHXZ ; CItem::IsExtAttackRate2
  00301	8b c8		 mov	 ecx, eax
  00303	0f af cb	 imul	 ecx, ebx
  00306	b8 1f 85 eb 51	 mov	 eax, 1374389535		; 51eb851fH
  0030b	f7 e9		 imul	 ecx

; 781  : 							lpObj->m_MagicDamageMin += lpObj->m_MagicDamageMin * lpObj->pInventory[n].IsExtAttackRate2() / 100;

  0030d	8b 8e 8c 0c 00
	00		 mov	 ecx, DWORD PTR [esi+3212]
  00313	c1 fa 05	 sar	 edx, 5
  00316	8b c2		 mov	 eax, edx
  00318	c1 e8 1f	 shr	 eax, 31			; 0000001fH
  0031b	03 c2		 add	 eax, edx
  0031d	03 c3		 add	 eax, ebx
  0031f	8b 9e e4 02 00
	00		 mov	 ebx, DWORD PTR [esi+740]
  00325	03 cf		 add	 ecx, edi
  00327	89 86 e8 02 00
	00		 mov	 DWORD PTR [esi+744], eax
  0032d	e8 00 00 00 00	 call	 ?IsExtAttackRate2@CItem@@QAEHXZ ; CItem::IsExtAttackRate2
  00332	8b c8		 mov	 ecx, eax
  00334	0f af cb	 imul	 ecx, ebx
  00337	b8 1f 85 eb 51	 mov	 eax, 1374389535		; 51eb851fH
  0033c	f7 e9		 imul	 ecx
  0033e	c1 fa 05	 sar	 edx, 5
  00341	8b ca		 mov	 ecx, edx
  00343	c1 e9 1f	 shr	 ecx, 31			; 0000001fH
  00346	03 ca		 add	 ecx, edx
  00348	03 cb		 add	 ecx, ebx
  0034a	89 8e e4 02 00
	00		 mov	 DWORD PTR [esi+740], ecx
$LN51@gObjExtIte:

; 795  : 							}
; 796  : 						}
; 797  : 					}
; 798  : 
; 799  : 					lpObj->m_ExcelentDamage += lpObj->pInventory[n].IsExtExcellentDamage();

  00350	8b 8e 8c 0c 00
	00		 mov	 ecx, DWORD PTR [esi+3212]
  00356	03 cf		 add	 ecx, edi
  00358	e8 00 00 00 00	 call	 ?IsExtExcellentDamage@CItem@@QAEHXZ ; CItem::IsExtExcellentDamage

; 800  : 					lpObj->m_AttackSpeed += lpObj->pInventory[n].IsExtAttackSpeed();

  0035d	8b 8e 8c 0c 00
	00		 mov	 ecx, DWORD PTR [esi+3212]
  00363	01 86 30 03 00
	00		 add	 DWORD PTR [esi+816], eax
  00369	03 cf		 add	 ecx, edi
  0036b	e8 00 00 00 00	 call	 ?IsExtAttackSpeed@CItem@@QAEHXZ ; CItem::IsExtAttackSpeed

; 801  : 					lpObj->m_MagicSpeed += lpObj->pInventory[n].IsExtAttackSpeed();

  00370	8b 8e 8c 0c 00
	00		 mov	 ecx, DWORD PTR [esi+3212]
  00376	01 86 08 03 00
	00		 add	 DWORD PTR [esi+776], eax
  0037c	03 cf		 add	 ecx, edi
  0037e	e8 00 00 00 00	 call	 ?IsExtAttackSpeed@CItem@@QAEHXZ ; CItem::IsExtAttackSpeed

; 802  : 					lpObj->MonsterDieGetLife += lpObj->pInventory[n].IsExtMonsterDieLife();

  00383	8b 8e 8c 0c 00
	00		 mov	 ecx, DWORD PTR [esi+3212]
  00389	01 86 0c 03 00
	00		 add	 DWORD PTR [esi+780], eax
  0038f	03 cf		 add	 ecx, edi
  00391	e8 00 00 00 00	 call	 ?IsExtMonsterDieLife@CItem@@QAEHXZ ; CItem::IsExtMonsterDieLife

; 803  : 					lpObj->MonsterDieGetMana += lpObj->pInventory[n].IsExtMonsterDieMana();

  00396	8b 8e 8c 0c 00
	00		 mov	 ecx, DWORD PTR [esi+3212]
  0039c	00 86 18 01 00
	00		 add	 BYTE PTR [esi+280], al
  003a2	03 cf		 add	 ecx, edi
  003a4	e8 00 00 00 00	 call	 ?IsExtMonsterDieMana@CItem@@QAEHXZ ; CItem::IsExtMonsterDieMana
  003a9	00 86 19 01 00
	00		 add	 BYTE PTR [esi+281], al
$LN32@gObjExtIte:

; 733  : 
; 734  : 	for ( i=0;i<3;i++ )

  003af	8b 45 c4	 mov	 eax, DWORD PTR _i$[ebp]
  003b2	40		 inc	 eax
  003b3	89 45 c4	 mov	 DWORD PTR _i$[ebp], eax
  003b6	83 f8 03	 cmp	 eax, 3
  003b9	0f 8c c1 fc ff
	ff		 jl	 $LL50@gObjExtIte

; 804  : 				}
; 805  : 			}
; 806  : 		}
; 807  : 	}
; 808  : 		
; 809  : 	if ( lpObj->pInventory[1].IsItem() == TRUE )

  003bf	8b 8e 8c 0c 00
	00		 mov	 ecx, DWORD PTR [esi+3212]
  003c5	81 c1 a8 00 00
	00		 add	 ecx, 168		; 000000a8H
  003cb	e8 00 00 00 00	 call	 ?IsItem@CItem@@QAEHXZ	; CItem::IsItem
  003d0	83 f8 01	 cmp	 eax, 1
  003d3	75 28		 jne	 SHORT $LN7@gObjExtIte

; 810  : 	{
; 811  : 		if ( lpObj->pInventory[1].m_Type >= ITEMGET(6, 0) && lpObj->pInventory[1].m_Type <= ITEMGET(6, 16) )

  003d5	8b 96 8c 0c 00
	00		 mov	 edx, DWORD PTR [esi+3212]
  003db	0f b7 82 ae 00
	00 00		 movzx	 eax, WORD PTR [edx+174]
  003e2	b9 00 0c 00 00	 mov	 ecx, 3072		; 00000c00H
  003e7	66 3b c1	 cmp	 ax, cx
  003ea	7c 11		 jl	 SHORT $LN7@gObjExtIte
  003ec	ba 10 0c 00 00	 mov	 edx, 3088		; 00000c10H
  003f1	66 3b c2	 cmp	 ax, dx
  003f4	7f 07		 jg	 SHORT $LN7@gObjExtIte

; 812  : 		{
; 813  : 			maxn2_loop = 10;

  003f6	c7 45 c0 0a 00
	00 00		 mov	 DWORD PTR _maxn2_loop$[ebp], 10 ; 0000000aH
$LN7@gObjExtIte:

; 814  : 		}
; 815  : 	}
; 816  : 
; 817  : 	for ( i=0;i<maxn2_loop;i++)

  003fd	33 c0		 xor	 eax, eax
  003ff	89 45 c4	 mov	 DWORD PTR _i$[ebp], eax
  00402	39 45 c0	 cmp	 DWORD PTR _maxn2_loop$[ebp], eax
  00405	0f 8e 48 01 00
	00		 jle	 $LN4@gObjExtIte
  0040b	eb 03 8d 49 00	 npad	 5
$LL6@gObjExtIte:

; 818  : 	{
; 819  : 		n = temp_n2[i];
; 820  : 
; 821  : 		if ( max_count < 8 )

  00410	83 7d bc 08	 cmp	 DWORD PTR _max_count$[ebp], 8
  00414	8b 5c 85 c8	 mov	 ebx, DWORD PTR _temp_n2$[ebp+eax*4]
  00418	0f 8d 25 01 00
	00		 jge	 $LN5@gObjExtIte

; 822  : 		{
; 823  : 			if ( lpObj->pInventory[n].IsItem() == TRUE &&
; 824  : 				 lpObj->pInventory[n].IsExtItem() &&
; 825  : 				 lpObj->pInventory[n].m_Durability != 0.0f &&
; 826  : 				 lpObj->pInventory[n].m_IsValidItem == true )

  0041e	8b 8e 8c 0c 00
	00		 mov	 ecx, DWORD PTR [esi+3212]
  00424	8b fb		 mov	 edi, ebx
  00426	69 ff a8 00 00
	00		 imul	 edi, 168		; 000000a8H
  0042c	03 cf		 add	 ecx, edi
  0042e	e8 00 00 00 00	 call	 ?IsItem@CItem@@QAEHXZ	; CItem::IsItem
  00433	83 f8 01	 cmp	 eax, 1
  00436	0f 85 07 01 00
	00		 jne	 $LN5@gObjExtIte
  0043c	8b 8e 8c 0c 00
	00		 mov	 ecx, DWORD PTR [esi+3212]
  00442	03 cf		 add	 ecx, edi
  00444	e8 00 00 00 00	 call	 ?IsExtItem@CItem@@QAEHXZ ; CItem::IsExtItem
  00449	85 c0		 test	 eax, eax
  0044b	0f 84 f2 00 00
	00		 je	 $LN5@gObjExtIte
  00451	8b 86 8c 0c 00
	00		 mov	 eax, DWORD PTR [esi+3212]
  00457	d9 44 07 24	 fld	 DWORD PTR [edi+eax+36]
  0045b	8d 0c 07	 lea	 ecx, DWORD PTR [edi+eax]
  0045e	d9 ee		 fldz
  00460	da e9		 fucompp
  00462	df e0		 fnstsw	 ax
  00464	f6 c4 44	 test	 ah, 68			; 00000044H
  00467	0f 8b d6 00 00
	00		 jnp	 $LN5@gObjExtIte
  0046d	80 b9 94 00 00
	00 01		 cmp	 BYTE PTR [ecx+148], 1
  00474	0f 85 c9 00 00
	00		 jne	 $LN5@gObjExtIte

; 827  : 			{
; 828  : 				if ( n != 7 )	// #warning this will unselect ONLY wings

  0047a	83 fb 07	 cmp	 ebx, 7
  0047d	0f 84 c0 00 00
	00		 je	 $LN5@gObjExtIte

; 829  : 				{
; 830  : 					lpObj->AddLife += (short)(lpObj->MaxLife * lpObj->pInventory[n].IsExtLifeAdd()  / 100.0f);	// #stat

  00483	e8 00 00 00 00	 call	 ?IsExtLifeAdd@CItem@@QAEHXZ ; CItem::IsExtLifeAdd
  00488	89 45 b8	 mov	 DWORD PTR tv640[ebp], eax
  0048b	db 45 b8	 fild	 DWORD PTR tv640[ebp]
  0048e	d8 8e c0 00 00
	00		 fmul	 DWORD PTR [esi+192]
  00494	dc 35 00 00 00
	00		 fdiv	 QWORD PTR __real@4059000000000000
  0049a	e8 00 00 00 00	 call	 __ftol2_sse
  0049f	0f bf c8	 movsx	 ecx, ax
  004a2	01 8e 0c 01 00
	00		 add	 DWORD PTR [esi+268], ecx

; 831  : 					lpObj->AddMana += (short)(lpObj->MaxMana * lpObj->pInventory[n].IsExtManaAdd() / 100.0f);	// #stat

  004a8	8b 8e 8c 0c 00
	00		 mov	 ecx, DWORD PTR [esi+3212]
  004ae	03 cf		 add	 ecx, edi
  004b0	e8 00 00 00 00	 call	 ?IsExtManaAdd@CItem@@QAEHXZ ; CItem::IsExtManaAdd
  004b5	89 45 b8	 mov	 DWORD PTR tv633[ebp], eax
  004b8	db 45 b8	 fild	 DWORD PTR tv633[ebp]
  004bb	d8 8e d4 00 00
	00		 fmul	 DWORD PTR [esi+212]
  004c1	dc 35 00 00 00
	00		 fdiv	 QWORD PTR __real@4059000000000000
  004c7	e8 00 00 00 00	 call	 __ftol2_sse

; 832  : 					lpObj->m_SuccessfulBlocking += lpObj->m_SuccessfulBlocking * lpObj->pInventory[n].IsExtDefenseSuccessfull() / 100;

  004cc	8b 8e 8c 0c 00
	00		 mov	 ecx, DWORD PTR [esi+3212]
  004d2	8b 9e 18 03 00
	00		 mov	 ebx, DWORD PTR [esi+792]
  004d8	0f bf d0	 movsx	 edx, ax
  004db	01 96 10 01 00
	00		 add	 DWORD PTR [esi+272], edx
  004e1	03 cf		 add	 ecx, edi
  004e3	e8 00 00 00 00	 call	 ?IsExtDefenseSuccessfull@CItem@@QAEHXZ ; CItem::IsExtDefenseSuccessfull
  004e8	8b c8		 mov	 ecx, eax
  004ea	0f af cb	 imul	 ecx, ebx
  004ed	b8 1f 85 eb 51	 mov	 eax, 1374389535		; 51eb851fH
  004f2	f7 e9		 imul	 ecx

; 833  : 					lpObj->MonsterDieGetMoney += lpObj->pInventory[n].IsExtMonsterMoney();

  004f4	8b 8e 8c 0c 00
	00		 mov	 ecx, DWORD PTR [esi+3212]
  004fa	c1 fa 05	 sar	 edx, 5
  004fd	8b c2		 mov	 eax, edx
  004ff	c1 e8 1f	 shr	 eax, 31			; 0000001fH
  00502	03 c2		 add	 eax, edx
  00504	03 c3		 add	 eax, ebx
  00506	03 cf		 add	 ecx, edi
  00508	89 86 18 03 00
	00		 mov	 DWORD PTR [esi+792], eax
  0050e	e8 00 00 00 00	 call	 ?IsExtMonsterMoney@CItem@@QAEHXZ ; CItem::IsExtMonsterMoney

; 834  : 					lpObj->DamageMinus += lpObj->pInventory[n].IsExtDamageMinus();

  00513	8b 8e 8c 0c 00
	00		 mov	 ecx, DWORD PTR [esi+3212]
  00519	66 01 86 16 01
	00 00		 add	 WORD PTR [esi+278], ax
  00520	03 cf		 add	 ecx, edi
  00522	e8 00 00 00 00	 call	 ?IsExtDamageMinus@CItem@@QAEHXZ ; CItem::IsExtDamageMinus

; 835  : 					lpObj->DamageReflect += lpObj->pInventory[n].IsExtDamageReflect();

  00527	8b 8e 8c 0c 00
	00		 mov	 ecx, DWORD PTR [esi+3212]
  0052d	00 86 14 01 00
	00		 add	 BYTE PTR [esi+276], al
  00533	03 cf		 add	 ecx, edi
  00535	e8 00 00 00 00	 call	 ?IsExtDamageReflect@CItem@@QAEHXZ ; CItem::IsExtDamageReflect
  0053a	00 86 15 01 00
	00		 add	 BYTE PTR [esi+277], al

; 836  : 					max_count++;

  00540	ff 45 bc	 inc	 DWORD PTR _max_count$[ebp]
$LN5@gObjExtIte:

; 814  : 		}
; 815  : 	}
; 816  : 
; 817  : 	for ( i=0;i<maxn2_loop;i++)

  00543	8b 45 c4	 mov	 eax, DWORD PTR _i$[ebp]
  00546	40		 inc	 eax
  00547	89 45 c4	 mov	 DWORD PTR _i$[ebp], eax
  0054a	3b 45 c0	 cmp	 eax, DWORD PTR _maxn2_loop$[ebp]
  0054d	0f 8c bd fe ff
	ff		 jl	 $LL6@gObjExtIte
$LN4@gObjExtIte:

; 837  : 				}
; 838  : 			}
; 839  : 		}
; 840  : 	}
; 841  : 
; 842  : 	lpObj->AddLife += lpObj->m_SkillAddLife;

  00553	8b 8e 90 02 00
	00		 mov	 ecx, DWORD PTR [esi+656]
  00559	01 8e 0c 01 00
	00		 add	 DWORD PTR [esi+268], ecx

; 843  : }

  0055f	8b 4d fc	 mov	 ecx, DWORD PTR __$ArrayPad$[ebp]
  00562	5f		 pop	 edi
  00563	5e		 pop	 esi
  00564	33 cd		 xor	 ecx, ebp
  00566	5b		 pop	 ebx
  00567	e8 00 00 00 00	 call	 @__security_check_cookie@4
  0056c	8b e5		 mov	 esp, ebp
  0056e	5d		 pop	 ebp
  0056f	c3		 ret	 0
?gObjExtItemApply@@YAXPAUOBJECTSTRUCT@@@Z ENDP		; gObjExtItemApply
_TEXT	ENDS
PUBLIC	?gObjCalcSetItemStat@@YAXPAUOBJECTSTRUCT@@@Z	; gObjCalcSetItemStat
EXTRN	?SetItemPlusSpecialStat@CItem@@QAEXPAFH@Z:PROC	; CItem::SetItemPlusSpecialStat
EXTRN	?GetAddStatType@CItem@@QAEHXZ:PROC		; CItem::GetAddStatType
EXTRN	?IsSetItem@CItem@@QAEHXZ:PROC			; CItem::IsSetItem
; Function compile flags: /Ogtp
;	COMDAT ?gObjCalcSetItemStat@@YAXPAUOBJECTSTRUCT@@@Z
_TEXT	SEGMENT
_lpObj$ = 8						; size = 4
?gObjCalcSetItemStat@@YAXPAUOBJECTSTRUCT@@@Z PROC	; gObjCalcSetItemStat, COMDAT

; 848  : {

  00000	55		 push	 ebp
  00001	8b ec		 mov	 ebp, esp
  00003	56		 push	 esi

; 849  : 	for ( int i=0;i<INVETORY_WEAR_SIZE;i++)

  00004	8b 75 08	 mov	 esi, DWORD PTR _lpObj$[ebp]
  00007	57		 push	 edi
  00008	33 ff		 xor	 edi, edi
  0000a	8d 9b 00 00 00
	00		 npad	 6
$LL10@gObjCalcSe:

; 850  : 	{
; 851  : 		if ( lpObj->pInventory[i].IsSetItem() && lpObj->pInventory[i].m_IsValidItem && lpObj->pInventory[i].m_Durability != 0.0f )

  00010	8b 8e 8c 0c 00
	00		 mov	 ecx, DWORD PTR [esi+3212]
  00016	03 cf		 add	 ecx, edi
  00018	e8 00 00 00 00	 call	 ?IsSetItem@CItem@@QAEHXZ ; CItem::IsSetItem
  0001d	85 c0		 test	 eax, eax
  0001f	74 73		 je	 SHORT $LN9@gObjCalcSe
  00021	8b 8e 8c 0c 00
	00		 mov	 ecx, DWORD PTR [esi+3212]
  00027	03 cf		 add	 ecx, edi
  00029	80 b9 94 00 00
	00 00		 cmp	 BYTE PTR [ecx+148], 0
  00030	74 62		 je	 SHORT $LN9@gObjCalcSe
  00032	d9 41 24	 fld	 DWORD PTR [ecx+36]
  00035	d9 ee		 fldz
  00037	da e9		 fucompp
  00039	df e0		 fnstsw	 ax
  0003b	f6 c4 44	 test	 ah, 68			; 00000044H
  0003e	7b 54		 jnp	 SHORT $LN9@gObjCalcSe

; 852  : 		{
; 853  : 			int AddStatType = lpObj->pInventory[i].GetAddStatType();

  00040	e8 00 00 00 00	 call	 ?GetAddStatType@CItem@@QAEHXZ ; CItem::GetAddStatType

; 854  : 
; 855  : 			switch ( AddStatType )

  00045	48		 dec	 eax
  00046	83 f8 03	 cmp	 eax, 3
  00049	77 49		 ja	 SHORT $LN9@gObjCalcSe
  0004b	ff 24 85 00 00
	00 00		 jmp	 DWORD PTR $LN17@gObjCalcSe[eax*4]
$LN4@gObjCalcSe:

; 856  : 			{
; 857  : 				case 1:
; 858  : 					lpObj->pInventory[i].SetItemPlusSpecialStat(&lpObj->AddStrength, 196);

  00052	68 c4 00 00 00	 push	 196			; 000000c4H
  00057	8d 8e e0 00 00
	00		 lea	 ecx, DWORD PTR [esi+224]

; 859  : 					break;

  0005d	eb 27		 jmp	 SHORT $LN15@gObjCalcSe
$LN3@gObjCalcSe:

; 860  : 				case 2:
; 861  : 					lpObj->pInventory[i].SetItemPlusSpecialStat(&lpObj->AddDexterity, 197);

  0005f	68 c5 00 00 00	 push	 197			; 000000c5H
  00064	8d 96 e2 00 00
	00		 lea	 edx, DWORD PTR [esi+226]
  0006a	52		 push	 edx

; 862  : 					break;

  0006b	eb 1a		 jmp	 SHORT $LN16@gObjCalcSe
$LN2@gObjCalcSe:

; 863  : 				case 3:
; 864  : 					lpObj->pInventory[i].SetItemPlusSpecialStat(&lpObj->AddEnergy, 198);

  0006d	68 c6 00 00 00	 push	 198			; 000000c6H
  00072	8d 86 e6 00 00
	00		 lea	 eax, DWORD PTR [esi+230]
  00078	50		 push	 eax

; 865  : 					break;

  00079	eb 0c		 jmp	 SHORT $LN16@gObjCalcSe
$LN1@gObjCalcSe:

; 866  : 				case 4:
; 867  : 					lpObj->pInventory[i].SetItemPlusSpecialStat(&lpObj->AddVitality, 199);

  0007b	68 c7 00 00 00	 push	 199			; 000000c7H
  00080	8d 8e e4 00 00
	00		 lea	 ecx, DWORD PTR [esi+228]
$LN15@gObjCalcSe:
  00086	51		 push	 ecx
$LN16@gObjCalcSe:
  00087	8b 8e 8c 0c 00
	00		 mov	 ecx, DWORD PTR [esi+3212]
  0008d	03 cf		 add	 ecx, edi
  0008f	e8 00 00 00 00	 call	 ?SetItemPlusSpecialStat@CItem@@QAEXPAFH@Z ; CItem::SetItemPlusSpecialStat
$LN9@gObjCalcSe:

; 849  : 	for ( int i=0;i<INVETORY_WEAR_SIZE;i++)

  00094	81 c7 a8 00 00
	00		 add	 edi, 168		; 000000a8H
  0009a	81 ff e0 07 00
	00		 cmp	 edi, 2016		; 000007e0H
  000a0	0f 8c 6a ff ff
	ff		 jl	 $LL10@gObjCalcSe
  000a6	5f		 pop	 edi
  000a7	5e		 pop	 esi

; 868  : 					break;
; 869  : 			}
; 870  : 		}
; 871  : 	}
; 872  : }

  000a8	5d		 pop	 ebp
  000a9	c3		 ret	 0
  000aa	8b ff		 npad	 2
$LN17@gObjCalcSe:
  000ac	00 00 00 00	 DD	 $LN4@gObjCalcSe
  000b0	00 00 00 00	 DD	 $LN3@gObjCalcSe
  000b4	00 00 00 00	 DD	 $LN2@gObjCalcSe
  000b8	00 00 00 00	 DD	 $LN1@gObjCalcSe
?gObjCalcSetItemStat@@YAXPAUOBJECTSTRUCT@@@Z ENDP	; gObjCalcSetItemStat
_TEXT	ENDS
PUBLIC	??_C@_0CG@HNELGANH@?$LJ?$NN?A?v?$LP?$KB?5?$LA?$LA?$MA?$LK?5?$LM?$LM?F?$KO?$LA?$KB?5?$MA?$PL?$LP?k?$LF?G?$LO?z?$LE?Y?5?$LJ?$KL@ ; `string'
PUBLIC	??_C@_0CG@MJJCFDMJ@?$LO?g?$LM?U?$LP?$KB?5?$LA?$LA?$MA?$LK?5?$LM?$LM?F?$KO?$LA?$KB?5?$MA?$PL?$LP?k?$LF?G?$LO?z?$LE?Y?5?$LJ?$KL@ ; `string'
PUBLIC	??_C@_0BL@LIIMDDCM@?$LP?I?$LM?G?5?C?$KD?$LO?R?$LE?Y?5?$CFs?0?5Count?5?$DN?5?$CFd?$AA@ ; `string'
PUBLIC	?gObjGetSetItemOption@@YAXPAUOBJECTSTRUCT@@PAE1PAH@Z ; gObjGetSetItemOption
EXTRN	?GetWeaponType@CItem@@QAEHXZ:PROC		; CItem::GetWeaponType
EXTRN	?LogAdd@@YAXW4eLogColor@@PADZZ:PROC		; LogAdd
EXTRN	?GetSetOptionName@CSetItemOption@@QAEPADH@Z:PROC ; CSetItemOption::GetSetOptionName
EXTRN	?GetOptionTableIndex@CSetItemOption@@QAEHHH@Z:PROC ; CSetItemOption::GetOptionTableIndex
EXTRN	?gSetItemOption@@3VCSetItemOption@@A:BYTE	; gSetItemOption
;	COMDAT ??_C@_0CG@HNELGANH@?$LJ?$NN?A?v?$LP?$KB?5?$LA?$LA?$MA?$LK?5?$LM?$LM?F?$KO?$LA?$KB?5?$MA?$PL?$LP?k?$LF?G?$LO?z?$LE?Y?5?$LJ?$KL@
CONST	SEGMENT
??_C@_0CG@HNELGANH@?$LJ?$NN?A?v?$LP?$KB?5?$LA?$LA?$MA?$LK?5?$LM?$LM?F?$KO?$LA?$KB?5?$MA?$PL?$LP?k?$LF?G?$LO?z?$LE?Y?5?$LJ?$KL@ DB 0b9H
	DB	0ddH, 0c1H, 0f6H, 0bfH, 0a1H, ' ', 0b0H, 0b0H, 0c0H, 0baH, ' ', 0bcH
	DB	0bcH, 0c6H, 0aeH, 0b0H, 0a1H, ' ', 0c0H, 0fbH, 0bfH, 0ebH, 0b5H
	DB	0c7H, 0beH, 0faH, 0b4H, 0d9H, ' ', 0b9H, 0abH, 0bdH, 0c3H, '..'
	DB	'.', 00H					; `string'
CONST	ENDS
;	COMDAT ??_C@_0CG@MJJCFDMJ@?$LO?g?$LM?U?$LP?$KB?5?$LA?$LA?$MA?$LK?5?$LM?$LM?F?$KO?$LA?$KB?5?$MA?$PL?$LP?k?$LF?G?$LO?z?$LE?Y?5?$LJ?$KL@
CONST	SEGMENT
??_C@_0CG@MJJCFDMJ@?$LO?g?$LM?U?$LP?$KB?5?$LA?$LA?$MA?$LK?5?$LM?$LM?F?$KO?$LA?$KB?5?$MA?$PL?$LP?k?$LF?G?$LO?z?$LE?Y?5?$LJ?$KL@ DB 0beH
	DB	0e7H, 0bcH, 0d5H, 0bfH, 0a1H, ' ', 0b0H, 0b0H, 0c0H, 0baH, ' ', 0bcH
	DB	0bcH, 0c6H, 0aeH, 0b0H, 0a1H, ' ', 0c0H, 0fbH, 0bfH, 0ebH, 0b5H
	DB	0c7H, 0beH, 0faH, 0b4H, 0d9H, ' ', 0b9H, 0abH, 0bdH, 0c3H, '..'
	DB	'.', 00H					; `string'
CONST	ENDS
;	COMDAT ??_C@_0BL@LIIMDDCM@?$LP?I?$LM?G?5?C?$KD?$LO?R?$LE?Y?5?$CFs?0?5Count?5?$DN?5?$CFd?$AA@
CONST	SEGMENT
??_C@_0BL@LIIMDDCM@?$LP?I?$LM?G?5?C?$KD?$LO?R?$LE?Y?5?$CFs?0?5Count?5?$DN?5?$CFd?$AA@ DB 0bfH
	DB	0c9H, 0bcH, 0c7H, ' ', 0c3H, 0a3H, 0beH, 0d2H, 0b4H, 0d9H, ' %'
	DB	's, Count = %d', 00H				; `string'
; Function compile flags: /Ogtp
CONST	ENDS
;	COMDAT ?gObjGetSetItemOption@@YAXPAUOBJECTSTRUCT@@PAE1PAH@Z
_TEXT	SEGMENT
tv315 = -8						; size = 4
_RightSetOptionIndex$ = -4				; size = 4
_lpObj$ = 8						; size = 4
_pSetOptionTable$ = 12					; size = 4
_pSetOptionCountTable$ = 16				; size = 4
_i$153878 = 20						; size = 4
_pSetOptionCount$ = 20					; size = 4
?gObjGetSetItemOption@@YAXPAUOBJECTSTRUCT@@PAE1PAH@Z PROC ; gObjGetSetItemOption, COMDAT

; 879  : {

  00000	55		 push	 ebp
  00001	8b ec		 mov	 ebp, esp
  00003	83 ec 08	 sub	 esp, 8
  00006	53		 push	 ebx
  00007	56		 push	 esi
  00008	57		 push	 edi

; 880  : 	*pSetOptionCount = 0;

  00009	8b 7d 14	 mov	 edi, DWORD PTR _pSetOptionCount$[ebp]
  0000c	c7 07 00 00 00
	00		 mov	 DWORD PTR [edi], 0

; 881  : 	int RightSetOptionIndex = -1;

  00012	c7 45 fc ff ff
	ff ff		 mov	 DWORD PTR _RightSetOptionIndex$[ebp], -1

; 882  : 	int RightRingSetOptionIndex = -1;
; 883  : 
; 884  : 	for ( int i=0;i<INVETORY_WEAR_SIZE;i++)

  00019	c7 45 14 00 00
	00 00		 mov	 DWORD PTR _i$153878[ebp], 0
$LL33@gObjGetSet:

; 885  : 	{
; 886  : 		int iSetItemType = lpObj->pInventory[i].IsSetItem();

  00020	8b 75 14	 mov	 esi, DWORD PTR _i$153878[ebp]
  00023	8b 5d 08	 mov	 ebx, DWORD PTR _lpObj$[ebp]
  00026	69 f6 a8 00 00
	00		 imul	 esi, 168		; 000000a8H
  0002c	8b 8b 8c 0c 00
	00		 mov	 ecx, DWORD PTR [ebx+3212]
  00032	03 ce		 add	 ecx, esi
  00034	e8 00 00 00 00	 call	 ?IsSetItem@CItem@@QAEHXZ ; CItem::IsSetItem

; 887  : 
; 888  : 		if ( iSetItemType )

  00039	85 c0		 test	 eax, eax
  0003b	0f 84 85 00 00
	00		 je	 $LN19@gObjGetSet

; 889  : 		{
; 890  : 			if ( lpObj->pInventory[i].m_IsValidItem )

  00041	8b 8b 8c 0c 00
	00		 mov	 ecx, DWORD PTR [ebx+3212]
  00047	80 bc 0e 94 00
	00 00 00	 cmp	 BYTE PTR [esi+ecx+148], 0
  0004f	74 75		 je	 SHORT $LN19@gObjGetSet

; 891  : 			{
; 892  : 				int iSetItemOption = gSetItemOption.GetOptionTableIndex(lpObj->pInventory[i].m_Type, iSetItemType );

  00051	0f bf 54 0e 06	 movsx	 edx, WORD PTR [esi+ecx+6]
  00056	50		 push	 eax
  00057	52		 push	 edx
  00058	b9 00 00 00 00	 mov	 ecx, OFFSET ?gSetItemOption@@3VCSetItemOption@@A ; gSetItemOption
  0005d	e8 00 00 00 00	 call	 ?GetOptionTableIndex@CSetItemOption@@QAEHHH@Z ; CSetItemOption::GetOptionTableIndex
  00062	8b d8		 mov	 ebx, eax

; 893  : 
; 894  : 				if ( iSetItemOption != -1 )

  00064	83 fb ff	 cmp	 ebx, -1
  00067	74 5d		 je	 SHORT $LN19@gObjGetSet

; 895  : 				{
; 896  : 					if ( i == 0 )

  00069	8b 45 14	 mov	 eax, DWORD PTR _i$153878[ebp]
  0006c	85 c0		 test	 eax, eax
  0006e	75 6d		 jne	 SHORT $LN14@gObjGetSet

; 897  : 					{
; 898  : 						RightSetOptionIndex = iSetItemOption;

  00070	89 5d fc	 mov	 DWORD PTR _RightSetOptionIndex$[ebp], ebx
$LN30@gObjGetSet:

; 922  : 						}
; 923  : 					}
; 924  : 
; 925  : 					BOOL bFound = FALSE;
; 926  : 
; 927  : 					for ( int n=0;n<*pSetOptionCount;n++)

  00073	8b 0f		 mov	 ecx, DWORD PTR [edi]
  00075	33 c0		 xor	 eax, eax
  00077	85 c9		 test	 ecx, ecx
  00079	7e 19		 jle	 SHORT $LN31@gObjGetSet
  0007b	eb 03 8d 49 00	 npad	 5
$LL5@gObjGetSet:

; 928  : 					{
; 929  : 						if ( pSetOptionTable[n] == iSetItemOption )

  00080	8b 55 0c	 mov	 edx, DWORD PTR _pSetOptionTable$[ebp]
  00083	0f b6 14 10	 movzx	 edx, BYTE PTR [eax+edx]
  00087	3b d3		 cmp	 edx, ebx
  00089	0f 84 07 01 00
	00		 je	 $LN25@gObjGetSet

; 922  : 						}
; 923  : 					}
; 924  : 
; 925  : 					BOOL bFound = FALSE;
; 926  : 
; 927  : 					for ( int n=0;n<*pSetOptionCount;n++)

  0008f	40		 inc	 eax
  00090	3b c1		 cmp	 eax, ecx
  00092	7c ec		 jl	 SHORT $LL5@gObjGetSet
$LN31@gObjGetSet:

; 942  : 					{
; 943  : 						pSetOptionTable[*pSetOptionCount] = iSetItemOption;

  00094	8b 55 0c	 mov	 edx, DWORD PTR _pSetOptionTable$[ebp]
  00097	88 1c 11	 mov	 BYTE PTR [ecx+edx], bl

; 944  : 						pSetOptionCountTable[*pSetOptionCount]++;

  0009a	8b 07		 mov	 eax, DWORD PTR [edi]
  0009c	8b 4d 10	 mov	 ecx, DWORD PTR _pSetOptionCountTable$[ebp]
  0009f	fe 04 08	 inc	 BYTE PTR [eax+ecx]

; 945  : 
; 946  : 						LogAdd(LOG_BLACK, "옵션 찾았다 %s, Count = %d",
; 947  : 							gSetItemOption.GetSetOptionName(iSetItemOption), pSetOptionCountTable[*pSetOptionCount]);

  000a2	8b 17		 mov	 edx, DWORD PTR [edi]
  000a4	0f b6 04 0a	 movzx	 eax, BYTE PTR [edx+ecx]
  000a8	50		 push	 eax
  000a9	53		 push	 ebx
  000aa	b9 00 00 00 00	 mov	 ecx, OFFSET ?gSetItemOption@@3VCSetItemOption@@A ; gSetItemOption
  000af	e8 00 00 00 00	 call	 ?GetSetOptionName@CSetItemOption@@QAEPADH@Z ; CSetItemOption::GetSetOptionName
  000b4	50		 push	 eax
  000b5	68 00 00 00 00	 push	 OFFSET ??_C@_0BL@LIIMDDCM@?$LP?I?$LM?G?5?C?$KD?$LO?R?$LE?Y?5?$CFs?0?5Count?5?$DN?5?$CFd?$AA@
  000ba	6a 00		 push	 0
  000bc	e8 00 00 00 00	 call	 ?LogAdd@@YAXW4eLogColor@@PADZZ ; LogAdd
  000c1	83 c4 10	 add	 esp, 16			; 00000010H

; 948  : 
; 949  : 						*pSetOptionCount += 1;

  000c4	ff 07		 inc	 DWORD PTR [edi]
$LN19@gObjGetSet:

; 882  : 	int RightRingSetOptionIndex = -1;
; 883  : 
; 884  : 	for ( int i=0;i<INVETORY_WEAR_SIZE;i++)

  000c6	8b 45 14	 mov	 eax, DWORD PTR _i$153878[ebp]
  000c9	40		 inc	 eax
  000ca	89 45 14	 mov	 DWORD PTR _i$153878[ebp], eax
  000cd	83 f8 0c	 cmp	 eax, 12			; 0000000cH
  000d0	0f 8c 4a ff ff
	ff		 jl	 $LL33@gObjGetSet
  000d6	5f		 pop	 edi
  000d7	5e		 pop	 esi
  000d8	5b		 pop	 ebx

; 950  : 					}
; 951  : 				}
; 952  : 			}
; 953  : 		}
; 954  : 	}
; 955  : }

  000d9	8b e5		 mov	 esp, ebp
  000db	5d		 pop	 ebp
  000dc	c3		 ret	 0
$LN14@gObjGetSet:

; 899  : 					}
; 900  : 					else if ( i == 1  )

  000dd	83 f8 01	 cmp	 eax, 1
  000e0	75 56		 jne	 SHORT $LN10@gObjGetSet

; 901  : 					{
; 902  : 						if (  RightSetOptionIndex == iSetItemOption )

  000e2	39 5d fc	 cmp	 DWORD PTR _RightSetOptionIndex$[ebp], ebx
  000e5	75 8c		 jne	 SHORT $LN30@gObjGetSet

; 903  : 						{
; 904  : 							if ( lpObj->pInventory[0].GetWeaponType() == lpObj->pInventory[1].GetWeaponType() && lpObj->pInventory[0].IsSetItem() )

  000e7	8b 75 08	 mov	 esi, DWORD PTR _lpObj$[ebp]
  000ea	8b 8e 8c 0c 00
	00		 mov	 ecx, DWORD PTR [esi+3212]
  000f0	81 c1 a8 00 00
	00		 add	 ecx, 168		; 000000a8H
  000f6	e8 00 00 00 00	 call	 ?GetWeaponType@CItem@@QAEHXZ ; CItem::GetWeaponType
  000fb	8b 8e 8c 0c 00
	00		 mov	 ecx, DWORD PTR [esi+3212]
  00101	89 45 f8	 mov	 DWORD PTR tv315[ebp], eax
  00104	e8 00 00 00 00	 call	 ?GetWeaponType@CItem@@QAEHXZ ; CItem::GetWeaponType
  00109	3b 45 f8	 cmp	 eax, DWORD PTR tv315[ebp]
  0010c	0f 85 61 ff ff
	ff		 jne	 $LN30@gObjGetSet
  00112	8b c6		 mov	 eax, esi
  00114	8b 88 8c 0c 00
	00		 mov	 ecx, DWORD PTR [eax+3212]
  0011a	e8 00 00 00 00	 call	 ?IsSetItem@CItem@@QAEHXZ ; CItem::IsSetItem
  0011f	85 c0		 test	 eax, eax
  00121	0f 84 4c ff ff
	ff		 je	 $LN30@gObjGetSet

; 905  : 							{
; 906  : 								LogAdd(LOG_BLACK, "양손에 같은 세트가 적용되었다 무시...");

  00127	68 00 00 00 00	 push	 OFFSET ??_C@_0CG@MJJCFDMJ@?$LO?g?$LM?U?$LP?$KB?5?$LA?$LA?$MA?$LK?5?$LM?$LM?F?$KO?$LA?$KB?5?$MA?$PL?$LP?k?$LF?G?$LO?z?$LE?Y?5?$LJ?$KL@
  0012c	6a 00		 push	 0
  0012e	e8 00 00 00 00	 call	 ?LogAdd@@YAXW4eLogColor@@PADZZ ; LogAdd
  00133	83 c4 08	 add	 esp, 8

; 907  : 								continue;

  00136	eb 8e		 jmp	 SHORT $LN19@gObjGetSet
$LN10@gObjGetSet:

; 908  : 							}
; 909  : 						}
; 910  : 					}
; 911  : 					
; 912  : 					if ( i == 10 )

  00138	83 f8 0a	 cmp	 eax, 10			; 0000000aH
  0013b	0f 84 32 ff ff
	ff		 je	 $LN30@gObjGetSet

; 913  : 					{
; 914  : 						RightRingSetOptionIndex = iSetItemOption;
; 915  : 					}
; 916  : 					else if ( i == 11   )

  00141	83 f8 0b	 cmp	 eax, 11			; 0000000bH
  00144	0f 85 29 ff ff
	ff		 jne	 $LN30@gObjGetSet

; 917  : 					{
; 918  : 						if ( lpObj->pInventory[10].m_Type == lpObj->pInventory[11].m_Type && lpObj->pInventory[10].IsSetItem() )

  0014a	8b 4d 08	 mov	 ecx, DWORD PTR _lpObj$[ebp]
  0014d	8b 81 8c 0c 00
	00		 mov	 eax, DWORD PTR [ecx+3212]
  00153	66 8b 90 96 06
	00 00		 mov	 dx, WORD PTR [eax+1686]
  0015a	66 3b 90 3e 07
	00 00		 cmp	 dx, WORD PTR [eax+1854]
  00161	0f 85 0c ff ff
	ff		 jne	 $LN30@gObjGetSet
  00167	8b c1		 mov	 eax, ecx
  00169	8b 88 8c 0c 00
	00		 mov	 ecx, DWORD PTR [eax+3212]
  0016f	81 c1 90 06 00
	00		 add	 ecx, 1680		; 00000690H
  00175	e8 00 00 00 00	 call	 ?IsSetItem@CItem@@QAEHXZ ; CItem::IsSetItem
  0017a	85 c0		 test	 eax, eax
  0017c	0f 84 f1 fe ff
	ff		 je	 $LN30@gObjGetSet

; 919  : 						{
; 920  : 							LogAdd(LOG_BLACK, "반지에 같은 세트가 적용되었다 무시...");

  00182	68 00 00 00 00	 push	 OFFSET ??_C@_0CG@HNELGANH@?$LJ?$NN?A?v?$LP?$KB?5?$LA?$LA?$MA?$LK?5?$LM?$LM?F?$KO?$LA?$KB?5?$MA?$PL?$LP?k?$LF?G?$LO?z?$LE?Y?5?$LJ?$KL@
  00187	6a 00		 push	 0
  00189	e8 00 00 00 00	 call	 ?LogAdd@@YAXW4eLogColor@@PADZZ ; LogAdd
  0018e	83 c4 08	 add	 esp, 8

; 921  : 							continue;

  00191	e9 30 ff ff ff	 jmp	 $LN19@gObjGetSet
$LN25@gObjGetSet:

; 930  : 						{
; 931  : 							pSetOptionCountTable[n]++;

  00196	8b 4d 10	 mov	 ecx, DWORD PTR _pSetOptionCountTable$[ebp]
  00199	fe 04 08	 inc	 BYTE PTR [eax+ecx]

; 932  : 							bFound = TRUE;
; 933  : 
; 934  : 							LogAdd(LOG_BLACK, "옵션 찾았다 %s, Count = %d",
; 935  : 								gSetItemOption.GetSetOptionName(iSetItemOption), pSetOptionCountTable[n]);

  0019c	0f b6 04 08	 movzx	 eax, BYTE PTR [eax+ecx]
  001a0	50		 push	 eax
  001a1	53		 push	 ebx
  001a2	b9 00 00 00 00	 mov	 ecx, OFFSET ?gSetItemOption@@3VCSetItemOption@@A ; gSetItemOption
  001a7	e8 00 00 00 00	 call	 ?GetSetOptionName@CSetItemOption@@QAEPADH@Z ; CSetItemOption::GetSetOptionName
  001ac	50		 push	 eax
  001ad	68 00 00 00 00	 push	 OFFSET ??_C@_0BL@LIIMDDCM@?$LP?I?$LM?G?5?C?$KD?$LO?R?$LE?Y?5?$CFs?0?5Count?5?$DN?5?$CFd?$AA@
  001b2	6a 00		 push	 0
  001b4	e8 00 00 00 00	 call	 ?LogAdd@@YAXW4eLogColor@@PADZZ ; LogAdd
  001b9	83 c4 10	 add	 esp, 16			; 00000010H

; 936  : 
; 937  : 							break;
; 938  : 						}
; 939  : 					}
; 940  : 
; 941  : 					if ( bFound == FALSE )

  001bc	e9 05 ff ff ff	 jmp	 $LN19@gObjGetSet
?gObjGetSetItemOption@@YAXPAUOBJECTSTRUCT@@PAE1PAH@Z ENDP ; gObjGetSetItemOption
_TEXT	ENDS
PUBLIC	?gObjSetItemStatPlusSpecial@@YAXPAUOBJECTSTRUCT@@HH@Z ; gObjSetItemStatPlusSpecial
; Function compile flags: /Ogtp
;	COMDAT ?gObjSetItemStatPlusSpecial@@YAXPAUOBJECTSTRUCT@@HH@Z
_TEXT	SEGMENT
_lpObj$ = 8						; size = 4
_option$ = 12						; size = 4
_ivalue$ = 16						; size = 4
?gObjSetItemStatPlusSpecial@@YAXPAUOBJECTSTRUCT@@HH@Z PROC ; gObjSetItemStatPlusSpecial, COMDAT

; 1058 : {

  00000	55		 push	 ebp
  00001	8b ec		 mov	 ebp, esp

; 1059 : 	if ( option == -1 )

  00003	8b 45 0c	 mov	 eax, DWORD PTR _option$[ebp]
  00006	83 f8 ff	 cmp	 eax, -1
  00009	74 4f		 je	 SHORT $LN5@gObjSetIte

; 1060 : 		return;
; 1061 : 
; 1062 : 	switch ( option )	// #warning Add AT_SET_OPTION_IMPROVE_LEADERSHIP

  0000b	05 60 ff ff ff	 add	 eax, -160		; ffffff60H
  00010	83 f8 03	 cmp	 eax, 3
  00013	77 45		 ja	 SHORT $LN5@gObjSetIte
  00015	ff 24 85 00 00
	00 00		 jmp	 DWORD PTR $LN10@gObjSetIte[eax*4]
$LN4@gObjSetIte:

; 1063 : 	{
; 1064 : 		case AT_SET_OPTION_IMPROVE_STRENGTH:
; 1065 : 			lpObj->AddStrength += ivalue;

  0001c	8b 45 08	 mov	 eax, DWORD PTR _lpObj$[ebp]
  0001f	66 8b 4d 10	 mov	 cx, WORD PTR _ivalue$[ebp]
  00023	66 01 88 e0 00
	00 00		 add	 WORD PTR [eax+224], cx

; 1075 : 			break;
; 1076 : 	}
; 1077 : }

  0002a	5d		 pop	 ebp
  0002b	c3		 ret	 0
$LN3@gObjSetIte:

; 1066 : 			break;
; 1067 : 		case AT_SET_OPTION_IMPROVE_DEXTERITY:
; 1068 : 			lpObj->AddDexterity += ivalue;

  0002c	8b 45 08	 mov	 eax, DWORD PTR _lpObj$[ebp]
  0002f	66 8b 55 10	 mov	 dx, WORD PTR _ivalue$[ebp]
  00033	66 01 90 e2 00
	00 00		 add	 WORD PTR [eax+226], dx

; 1075 : 			break;
; 1076 : 	}
; 1077 : }

  0003a	5d		 pop	 ebp
  0003b	c3		 ret	 0
$LN2@gObjSetIte:

; 1069 : 			break;
; 1070 : 		case AT_SET_OPTION_IMPROVE_ENERGY:
; 1071 : 			lpObj->AddEnergy += ivalue;

  0003c	8b 45 08	 mov	 eax, DWORD PTR _lpObj$[ebp]
  0003f	66 8b 4d 10	 mov	 cx, WORD PTR _ivalue$[ebp]
  00043	66 01 88 e6 00
	00 00		 add	 WORD PTR [eax+230], cx

; 1075 : 			break;
; 1076 : 	}
; 1077 : }

  0004a	5d		 pop	 ebp
  0004b	c3		 ret	 0
$LN1@gObjSetIte:

; 1072 : 			break;
; 1073 : 		case AT_SET_OPTION_IMPROVE_VITALITY:
; 1074 : 			lpObj->AddVitality += ivalue;

  0004c	8b 45 08	 mov	 eax, DWORD PTR _lpObj$[ebp]
  0004f	66 8b 55 10	 mov	 dx, WORD PTR _ivalue$[ebp]
  00053	66 01 90 e4 00
	00 00		 add	 WORD PTR [eax+228], dx
$LN5@gObjSetIte:

; 1075 : 			break;
; 1076 : 	}
; 1077 : }

  0005a	5d		 pop	 ebp
  0005b	c3		 ret	 0
$LN10@gObjSetIte:
  0005c	00 00 00 00	 DD	 $LN4@gObjSetIte
  00060	00 00 00 00	 DD	 $LN3@gObjSetIte
  00064	00 00 00 00	 DD	 $LN2@gObjSetIte
  00068	00 00 00 00	 DD	 $LN1@gObjSetIte
?gObjSetItemStatPlusSpecial@@YAXPAUOBJECTSTRUCT@@HH@Z ENDP ; gObjSetItemStatPlusSpecial
_TEXT	ENDS
PUBLIC	?gObjSetItemPlusSpecial@@YAXPAUOBJECTSTRUCT@@HH@Z ; gObjSetItemPlusSpecial
; Function compile flags: /Ogtp
;	COMDAT ?gObjSetItemPlusSpecial@@YAXPAUOBJECTSTRUCT@@HH@Z
_TEXT	SEGMENT
_lpObj$ = 8						; size = 4
_option$ = 12						; size = 4
_ivalue$ = 16						; size = 4
?gObjSetItemPlusSpecial@@YAXPAUOBJECTSTRUCT@@HH@Z PROC	; gObjSetItemPlusSpecial, COMDAT

; 1082 : {

  00000	55		 push	 ebp
  00001	8b ec		 mov	 ebp, esp

; 1083 : 	if ( option == -1 )

  00003	8b 45 0c	 mov	 eax, DWORD PTR _option$[ebp]
  00006	83 f8 ff	 cmp	 eax, -1
  00009	0f 84 33 02 00
	00		 je	 $LN32@gObjSetIte@2

; 1084 : 		return;
; 1085 : 
; 1086 : 	switch ( option )

  0000f	05 5b ff ff ff	 add	 eax, -165		; ffffff5bH
  00014	83 f8 1e	 cmp	 eax, 30			; 0000001eH
  00017	0f 87 25 02 00
	00		 ja	 $LN32@gObjSetIte@2
  0001d	ff 24 85 00 00
	00 00		 jmp	 DWORD PTR $LN37@gObjSetIte@2[eax*4]
$LN31@gObjSetIte@2:

; 1087 : 	{
; 1088 : 		case AT_SET_OPTION_DOUBLE_DAMAGE:
; 1089 : 			lpObj->SetOpDoubleDamage += ivalue;

  00024	8b 45 08	 mov	 eax, DWORD PTR _lpObj$[ebp]
  00027	8a 4d 10	 mov	 cl, BYTE PTR _ivalue$[ebp]
  0002a	00 88 7b 0f 00
	00		 add	 BYTE PTR [eax+3963], cl

; 1180 : 			break;
; 1181 : 	}
; 1182 : }

  00030	5d		 pop	 ebp
  00031	c3		 ret	 0
$LN30@gObjSetIte@2:

; 1090 : 			break;
; 1091 : 		case AT_SET_OPTION_IMPROVE_SHIELD_DEFENCE:
; 1092 : 			lpObj->SetOpImproveSheldDefence += ivalue;

  00032	8b 45 08	 mov	 eax, DWORD PTR _lpObj$[ebp]
  00035	8a 55 10	 mov	 dl, BYTE PTR _ivalue$[ebp]
  00038	00 90 7f 0f 00
	00		 add	 BYTE PTR [eax+3967], dl

; 1180 : 			break;
; 1181 : 	}
; 1182 : }

  0003e	5d		 pop	 ebp
  0003f	c3		 ret	 0
$LN29@gObjSetIte@2:

; 1093 : 			break;
; 1094 : 		case AT_SET_OPTION_TWO_HAND_SWORD_IMPROVE_DAMAGE:
; 1095 : 			lpObj->SetOpTwoHandSwordImproveDamage += ivalue;

  00040	8b 45 08	 mov	 eax, DWORD PTR _lpObj$[ebp]
  00043	8a 4d 10	 mov	 cl, BYTE PTR _ivalue$[ebp]
  00046	00 88 7c 0f 00
	00		 add	 BYTE PTR [eax+3964], cl

; 1180 : 			break;
; 1181 : 	}
; 1182 : }

  0004c	5d		 pop	 ebp
  0004d	c3		 ret	 0
$LN28@gObjSetIte@2:

; 1096 : 			break;
; 1097 : 		case AT_SET_OPTION_IMPROVE_MINATTACKDAMAGE:
; 1098 : 			lpObj->SetOpAddMinAttackDamage += ivalue;

  0004e	8b 45 08	 mov	 eax, DWORD PTR _lpObj$[ebp]
  00051	66 8b 55 10	 mov	 dx, WORD PTR _ivalue$[ebp]
  00055	66 01 90 6e 0f
	00 00		 add	 WORD PTR [eax+3950], dx

; 1180 : 			break;
; 1181 : 	}
; 1182 : }

  0005c	5d		 pop	 ebp
  0005d	c3		 ret	 0
$LN27@gObjSetIte@2:

; 1099 : 			break;
; 1100 : 		case AT_SET_OPTION_IMPROVE_MAXATTACKDAMAGE:
; 1101 : 			lpObj->SetOpAddMaxAttackDamage += ivalue;

  0005e	8b 45 08	 mov	 eax, DWORD PTR _lpObj$[ebp]
  00061	66 8b 4d 10	 mov	 cx, WORD PTR _ivalue$[ebp]
  00065	66 01 88 70 0f
	00 00		 add	 WORD PTR [eax+3952], cx

; 1180 : 			break;
; 1181 : 	}
; 1182 : }

  0006c	5d		 pop	 ebp
  0006d	c3		 ret	 0
$LN26@gObjSetIte@2:

; 1102 : 			break;
; 1103 : 		case AT_SET_OPTION_IMPROVE_MAGICDAMAGE:
; 1104 : 			lpObj->SetOpAddMagicPower += ivalue;

  0006e	8b 45 08	 mov	 eax, DWORD PTR _lpObj$[ebp]
  00071	66 8b 55 10	 mov	 dx, WORD PTR _ivalue$[ebp]
  00075	66 01 90 78 0f
	00 00		 add	 WORD PTR [eax+3960], dx

; 1180 : 			break;
; 1181 : 	}
; 1182 : }

  0007c	5d		 pop	 ebp
  0007d	c3		 ret	 0
$LN25@gObjSetIte@2:

; 1105 : 			break;
; 1106 : 		case AT_SET_OPTION_IMPROVE_DAMAGE:
; 1107 : 			lpObj->SetOpAddDamage += ivalue;

  0007e	8b 45 08	 mov	 eax, DWORD PTR _lpObj$[ebp]
  00081	66 8b 4d 10	 mov	 cx, WORD PTR _ivalue$[ebp]
  00085	66 01 88 6c 0f
	00 00		 add	 WORD PTR [eax+3948], cx

; 1180 : 			break;
; 1181 : 	}
; 1182 : }

  0008c	5d		 pop	 ebp
  0008d	c3		 ret	 0
$LN24@gObjSetIte@2:

; 1108 : 			break;
; 1109 : 		case AT_SET_OPTION_IMPROVE_ATTACKRATE:
; 1110 : 			lpObj->SetOpImproveSuccessAttackRate += ivalue;

  0008e	8b 45 08	 mov	 eax, DWORD PTR _lpObj$[ebp]
  00091	8a 55 10	 mov	 dl, BYTE PTR _ivalue$[ebp]
  00094	00 90 7d 0f 00
	00		 add	 BYTE PTR [eax+3965], dl

; 1180 : 			break;
; 1181 : 	}
; 1182 : }

  0009a	5d		 pop	 ebp
  0009b	c3		 ret	 0
$LN23@gObjSetIte@2:

; 1111 : 			break;
; 1112 : 		case AT_SET_OPTION_IMPROVE_DEFENCE:
; 1113 : 			lpObj->SetOpAddDefence += ivalue;

  0009c	8b 45 08	 mov	 eax, DWORD PTR _lpObj$[ebp]
  0009f	66 8b 4d 10	 mov	 cx, WORD PTR _ivalue$[ebp]
  000a3	66 01 88 74 0f
	00 00		 add	 WORD PTR [eax+3956], cx

; 1180 : 			break;
; 1181 : 	}
; 1182 : }

  000aa	5d		 pop	 ebp
  000ab	c3		 ret	 0
$LN22@gObjSetIte@2:

; 1114 : 			break;
; 1115 : 		case AT_SET_OPTION_DEFENCE_IGNORE:
; 1116 : 			lpObj->SetOpIgnoreDefense += ivalue;

  000ac	8b 45 08	 mov	 eax, DWORD PTR _lpObj$[ebp]
  000af	8a 55 10	 mov	 dl, BYTE PTR _ivalue$[ebp]
  000b2	00 90 7a 0f 00
	00		 add	 BYTE PTR [eax+3962], dl

; 1180 : 			break;
; 1181 : 	}
; 1182 : }

  000b8	5d		 pop	 ebp
  000b9	c3		 ret	 0
$LN21@gObjSetIte@2:

; 1117 : 			break;
; 1118 : 		case AT_SET_OPTION_IMPROVE_MAXLIFE:
; 1119 : 			lpObj->AddLife += ivalue;

  000ba	8b 45 08	 mov	 eax, DWORD PTR _lpObj$[ebp]
  000bd	8b 4d 10	 mov	 ecx, DWORD PTR _ivalue$[ebp]
  000c0	01 88 0c 01 00
	00		 add	 DWORD PTR [eax+268], ecx

; 1180 : 			break;
; 1181 : 	}
; 1182 : }

  000c6	5d		 pop	 ebp
  000c7	c3		 ret	 0
$LN20@gObjSetIte@2:

; 1120 : 			break;
; 1121 : 		case AT_SET_OPTION_IMPROVE_MAXMANA:
; 1122 : 			lpObj->AddMana += ivalue;

  000c8	8b 45 08	 mov	 eax, DWORD PTR _lpObj$[ebp]
  000cb	8b 55 10	 mov	 edx, DWORD PTR _ivalue$[ebp]
  000ce	01 90 10 01 00
	00		 add	 DWORD PTR [eax+272], edx

; 1180 : 			break;
; 1181 : 	}
; 1182 : }

  000d4	5d		 pop	 ebp
  000d5	c3		 ret	 0
$LN19@gObjSetIte@2:

; 1123 : 			break;
; 1124 : 		case AT_SET_OPTION_IMPROVE_MAXAG:
; 1125 : 			lpObj->AddBP += ivalue;

  000d6	8b 45 08	 mov	 eax, DWORD PTR _lpObj$[ebp]
  000d9	8b 4d 10	 mov	 ecx, DWORD PTR _ivalue$[ebp]
  000dc	01 88 f0 00 00
	00		 add	 DWORD PTR [eax+240], ecx

; 1180 : 			break;
; 1181 : 	}
; 1182 : }

  000e2	5d		 pop	 ebp
  000e3	c3		 ret	 0
$LN18@gObjSetIte@2:

; 1126 : 			break;
; 1127 : 		case AT_SET_OPTION_IMPROVE_AG_VALUE:
; 1128 : 			lpObj->SetOpIncAGValue += ivalue;

  000e4	8b 45 08	 mov	 eax, DWORD PTR _lpObj$[ebp]
  000e7	66 8b 55 10	 mov	 dx, WORD PTR _ivalue$[ebp]
  000eb	66 01 90 6a 0f
	00 00		 add	 WORD PTR [eax+3946], dx

; 1180 : 			break;
; 1181 : 	}
; 1182 : }

  000f2	5d		 pop	 ebp
  000f3	c3		 ret	 0
$LN17@gObjSetIte@2:

; 1129 : 			break;
; 1130 : 		case AT_SET_OPTION_IMPROVE_CRITICALDAMAGE:
; 1131 : 			lpObj->SetOpAddCriticalDamage += ivalue;

  000f4	8b 45 08	 mov	 eax, DWORD PTR _lpObj$[ebp]
  000f7	66 8b 4d 10	 mov	 cx, WORD PTR _ivalue$[ebp]
  000fb	66 01 88 66 0f
	00 00		 add	 WORD PTR [eax+3942], cx

; 1180 : 			break;
; 1181 : 	}
; 1182 : }

  00102	5d		 pop	 ebp
  00103	c3		 ret	 0
$LN16@gObjSetIte@2:

; 1132 : 			break;
; 1133 : 		case AT_SET_OPTION_IMPROVE_CRITICALDAMAGE_SUCCESS:
; 1134 : 			lpObj->SetOpAddCriticalDamageSuccessRate += ivalue;

  00104	8b 45 08	 mov	 eax, DWORD PTR _lpObj$[ebp]
  00107	66 8b 55 10	 mov	 dx, WORD PTR _ivalue$[ebp]
  0010b	66 01 90 68 0f
	00 00		 add	 WORD PTR [eax+3944], dx

; 1180 : 			break;
; 1181 : 	}
; 1182 : }

  00112	5d		 pop	 ebp
  00113	c3		 ret	 0
$LN15@gObjSetIte@2:

; 1135 : 			break;
; 1136 : 		case AT_SET_OPTION_IMPROVE_EX_DAMAGE:
; 1137 : 			lpObj->SetOpAddExDamage += ivalue;

  00114	8b 45 08	 mov	 eax, DWORD PTR _lpObj$[ebp]
  00117	66 8b 4d 10	 mov	 cx, WORD PTR _ivalue$[ebp]
  0011b	66 01 88 62 0f
	00 00		 add	 WORD PTR [eax+3938], cx

; 1180 : 			break;
; 1181 : 	}
; 1182 : }

  00122	5d		 pop	 ebp
  00123	c3		 ret	 0
$LN14@gObjSetIte@2:

; 1138 : 			break;
; 1139 : 		case AT_SET_OPTION_IMPROVE_EX_DAMAGE_SUCCESS:
; 1140 : 			lpObj->SetOpAddExDamageSuccessRate += ivalue;

  00124	8b 45 08	 mov	 eax, DWORD PTR _lpObj$[ebp]
  00127	66 8b 55 10	 mov	 dx, WORD PTR _ivalue$[ebp]
  0012b	66 01 90 64 0f
	00 00		 add	 WORD PTR [eax+3940], dx

; 1180 : 			break;
; 1181 : 	}
; 1182 : }

  00132	5d		 pop	 ebp
  00133	c3		 ret	 0
$LN13@gObjSetIte@2:

; 1141 : 			break;
; 1142 : 		case AT_SET_OPTION_IMPROVE_SKILLDAMAGE:
; 1143 : 			lpObj->SetOpAddSkillAttack += ivalue;

  00134	8b 45 08	 mov	 eax, DWORD PTR _lpObj$[ebp]
  00137	66 8b 4d 10	 mov	 cx, WORD PTR _ivalue$[ebp]
  0013b	66 01 88 60 0f
	00 00		 add	 WORD PTR [eax+3936], cx

; 1180 : 			break;
; 1181 : 	}
; 1182 : }

  00142	5d		 pop	 ebp
  00143	c3		 ret	 0
$LN12@gObjSetIte@2:

; 1144 : 			break;
; 1145 : 		case AT_SET_OPTION_IMPROVE_ATTACKDAMAGE_WITH_DEX:
; 1146 : 			lpObj->SetOpAddAttackDamage += ( lpObj->Dexterity + lpObj->AddDexterity ) / ivalue;

  00144	8b 4d 08	 mov	 ecx, DWORD PTR _lpObj$[ebp]
  00147	0f b7 91 b6 00
	00 00		 movzx	 edx, WORD PTR [ecx+182]
  0014e	0f bf 81 e2 00
	00 00		 movsx	 eax, WORD PTR [ecx+226]
  00155	03 c2		 add	 eax, edx
  00157	99		 cdq
  00158	f7 7d 10	 idiv	 DWORD PTR _ivalue$[ebp]
  0015b	66 01 81 72 0f
	00 00		 add	 WORD PTR [ecx+3954], ax

; 1180 : 			break;
; 1181 : 	}
; 1182 : }

  00162	5d		 pop	 ebp
  00163	c3		 ret	 0
$LN11@gObjSetIte@2:

; 1147 : 			break;
; 1148 : 		case AT_SET_OPTION_IMPROVE_ATTACKDAMAGE_WITH_STR:
; 1149 : 			lpObj->SetOpAddAttackDamage += ( lpObj->Strength + lpObj->AddStrength ) / ivalue;

  00164	8b 4d 08	 mov	 ecx, DWORD PTR _lpObj$[ebp]
  00167	0f b7 91 b4 00
	00 00		 movzx	 edx, WORD PTR [ecx+180]
  0016e	0f bf 81 e0 00
	00 00		 movsx	 eax, WORD PTR [ecx+224]
  00175	03 c2		 add	 eax, edx
  00177	99		 cdq
  00178	f7 7d 10	 idiv	 DWORD PTR _ivalue$[ebp]
  0017b	66 01 81 72 0f
	00 00		 add	 WORD PTR [ecx+3954], ax

; 1180 : 			break;
; 1181 : 	}
; 1182 : }

  00182	5d		 pop	 ebp
  00183	c3		 ret	 0
$LN10@gObjSetIte@2:

; 1150 : 			break;
; 1151 : 		case AT_SET_OPTION_IMPROVE_MAGICDAMAGE_WITH_ENERGY:
; 1152 : 			lpObj->SetOpAddMagicPower += ( lpObj->Energy + lpObj->AddEnergy ) / ivalue;

  00184	8b 4d 08	 mov	 ecx, DWORD PTR _lpObj$[ebp]
  00187	0f b7 91 ba 00
	00 00		 movzx	 edx, WORD PTR [ecx+186]
  0018e	0f bf 81 e6 00
	00 00		 movsx	 eax, WORD PTR [ecx+230]
  00195	03 c2		 add	 eax, edx
  00197	99		 cdq
  00198	f7 7d 10	 idiv	 DWORD PTR _ivalue$[ebp]
  0019b	66 01 81 78 0f
	00 00		 add	 WORD PTR [ecx+3960], ax

; 1180 : 			break;
; 1181 : 	}
; 1182 : }

  001a2	5d		 pop	 ebp
  001a3	c3		 ret	 0
$LN9@gObjSetIte@2:

; 1153 : 			break;
; 1154 : 		case AT_SET_OPTION_IMPROVE_DEFENCE_WITH_DEX:
; 1155 : 			lpObj->SetOpAddDefence += lpObj->Dexterity + ( lpObj->AddDexterity  / ivalue );

  001a4	8b 4d 08	 mov	 ecx, DWORD PTR _lpObj$[ebp]
  001a7	0f bf 81 e2 00
	00 00		 movsx	 eax, WORD PTR [ecx+226]
  001ae	99		 cdq
  001af	f7 7d 10	 idiv	 DWORD PTR _ivalue$[ebp]
  001b2	66 03 81 b6 00
	00 00		 add	 ax, WORD PTR [ecx+182]
  001b9	66 01 81 74 0f
	00 00		 add	 WORD PTR [ecx+3956], ax

; 1180 : 			break;
; 1181 : 	}
; 1182 : }

  001c0	5d		 pop	 ebp
  001c1	c3		 ret	 0
$LN8@gObjSetIte@2:

; 1156 : 			break;
; 1157 : 		case AT_SET_OPTION_IMPROVE_DEFENCE_WITH_VIT:
; 1158 : 			lpObj->SetOpAddDefence += ( lpObj->Vitality + lpObj->AddVitality ) / ivalue;

  001c2	8b 4d 08	 mov	 ecx, DWORD PTR _lpObj$[ebp]
  001c5	0f b7 91 b8 00
	00 00		 movzx	 edx, WORD PTR [ecx+184]
  001cc	0f bf 81 e4 00
	00 00		 movsx	 eax, WORD PTR [ecx+228]
  001d3	03 c2		 add	 eax, edx
  001d5	99		 cdq
  001d6	f7 7d 10	 idiv	 DWORD PTR _ivalue$[ebp]
  001d9	66 01 81 74 0f
	00 00		 add	 WORD PTR [ecx+3956], ax

; 1180 : 			break;
; 1181 : 	}
; 1182 : }

  001e0	5d		 pop	 ebp
  001e1	c3		 ret	 0
$LN7@gObjSetIte@2:

; 1159 : 			break;
; 1160 : 		case AT_SET_OPTION_FIRE_MASTERY:
; 1161 : 			lpObj->m_AddResistance[R_FIRE] += ivalue;

  001e2	8b 45 08	 mov	 eax, DWORD PTR _lpObj$[ebp]
  001e5	8a 4d 10	 mov	 cl, BYTE PTR _ivalue$[ebp]
  001e8	00 88 6c 03 00
	00		 add	 BYTE PTR [eax+876], cl

; 1180 : 			break;
; 1181 : 	}
; 1182 : }

  001ee	5d		 pop	 ebp
  001ef	c3		 ret	 0
$LN6@gObjSetIte@2:

; 1162 : 			break;
; 1163 : 		case AT_SET_OPTION_ICE_MASTERY:
; 1164 : 			lpObj->m_AddResistance[R_ICE] += ivalue;

  001f0	8b 45 08	 mov	 eax, DWORD PTR _lpObj$[ebp]
  001f3	8a 55 10	 mov	 dl, BYTE PTR _ivalue$[ebp]
  001f6	00 90 69 03 00
	00		 add	 BYTE PTR [eax+873], dl

; 1180 : 			break;
; 1181 : 	}
; 1182 : }

  001fc	5d		 pop	 ebp
  001fd	c3		 ret	 0
$LN5@gObjSetIte@2:

; 1165 : 			break;
; 1166 : 		case AT_SET_OPTION_THUNDER_MASTERY:
; 1167 : 			lpObj->m_AddResistance[R_LIGHTNING] += ivalue;

  001fe	8b 45 08	 mov	 eax, DWORD PTR _lpObj$[ebp]
  00201	8a 4d 10	 mov	 cl, BYTE PTR _ivalue$[ebp]
  00204	00 88 6b 03 00
	00		 add	 BYTE PTR [eax+875], cl

; 1180 : 			break;
; 1181 : 	}
; 1182 : }

  0020a	5d		 pop	 ebp
  0020b	c3		 ret	 0
$LN4@gObjSetIte@2:

; 1168 : 			break;
; 1169 : 		case AT_SET_OPTION_POSION_MASTERY:
; 1170 : 			lpObj->m_AddResistance[R_POISON] += ivalue;

  0020c	8b 45 08	 mov	 eax, DWORD PTR _lpObj$[ebp]
  0020f	8a 55 10	 mov	 dl, BYTE PTR _ivalue$[ebp]
  00212	00 90 6a 03 00
	00		 add	 BYTE PTR [eax+874], dl

; 1180 : 			break;
; 1181 : 	}
; 1182 : }

  00218	5d		 pop	 ebp
  00219	c3		 ret	 0
$LN3@gObjSetIte@2:

; 1171 : 			break;
; 1172 : 		case AT_SET_OPTION_WATER_MASTERY:
; 1173 : 			lpObj->m_AddResistance[R_WATER] += ivalue;

  0021a	8b 45 08	 mov	 eax, DWORD PTR _lpObj$[ebp]
  0021d	8a 4d 10	 mov	 cl, BYTE PTR _ivalue$[ebp]
  00220	00 88 6f 03 00
	00		 add	 BYTE PTR [eax+879], cl

; 1180 : 			break;
; 1181 : 	}
; 1182 : }

  00226	5d		 pop	 ebp
  00227	c3		 ret	 0
$LN2@gObjSetIte@2:

; 1174 : 			break;
; 1175 : 		case AT_SET_OPTION_WIND_MASTERY:
; 1176 : 			lpObj->m_AddResistance[R_WIND] += ivalue;

  00228	8b 45 08	 mov	 eax, DWORD PTR _lpObj$[ebp]
  0022b	8a 55 10	 mov	 dl, BYTE PTR _ivalue$[ebp]
  0022e	00 90 6e 03 00
	00		 add	 BYTE PTR [eax+878], dl

; 1180 : 			break;
; 1181 : 	}
; 1182 : }

  00234	5d		 pop	 ebp
  00235	c3		 ret	 0
$LN1@gObjSetIte@2:

; 1177 : 			break;
; 1178 : 		case AT_SET_OPTION_EARTH_MASTERY:
; 1179 : 			lpObj->m_AddResistance[R_EARTH] += ivalue;

  00236	8b 45 08	 mov	 eax, DWORD PTR _lpObj$[ebp]
  00239	8a 4d 10	 mov	 cl, BYTE PTR _ivalue$[ebp]
  0023c	00 88 6d 03 00
	00		 add	 BYTE PTR [eax+877], cl
$LN32@gObjSetIte@2:

; 1180 : 			break;
; 1181 : 	}
; 1182 : }

  00242	5d		 pop	 ebp
  00243	c3		 ret	 0
$LN37@gObjSetIte@2:
  00244	00 00 00 00	 DD	 $LN28@gObjSetIte@2
  00248	00 00 00 00	 DD	 $LN27@gObjSetIte@2
  0024c	00 00 00 00	 DD	 $LN26@gObjSetIte@2
  00250	00 00 00 00	 DD	 $LN25@gObjSetIte@2
  00254	00 00 00 00	 DD	 $LN24@gObjSetIte@2
  00258	00 00 00 00	 DD	 $LN23@gObjSetIte@2
  0025c	00 00 00 00	 DD	 $LN21@gObjSetIte@2
  00260	00 00 00 00	 DD	 $LN20@gObjSetIte@2
  00264	00 00 00 00	 DD	 $LN19@gObjSetIte@2
  00268	00 00 00 00	 DD	 $LN18@gObjSetIte@2
  0026c	00 00 00 00	 DD	 $LN16@gObjSetIte@2
  00270	00 00 00 00	 DD	 $LN17@gObjSetIte@2
  00274	00 00 00 00	 DD	 $LN14@gObjSetIte@2
  00278	00 00 00 00	 DD	 $LN15@gObjSetIte@2
  0027c	00 00 00 00	 DD	 $LN13@gObjSetIte@2
  00280	00 00 00 00	 DD	 $LN31@gObjSetIte@2
  00284	00 00 00 00	 DD	 $LN22@gObjSetIte@2
  00288	00 00 00 00	 DD	 $LN30@gObjSetIte@2
  0028c	00 00 00 00	 DD	 $LN29@gObjSetIte@2
  00290	00 00 00 00	 DD	 $LN11@gObjSetIte@2
  00294	00 00 00 00	 DD	 $LN12@gObjSetIte@2
  00298	00 00 00 00	 DD	 $LN9@gObjSetIte@2
  0029c	00 00 00 00	 DD	 $LN8@gObjSetIte@2
  002a0	00 00 00 00	 DD	 $LN10@gObjSetIte@2
  002a4	00 00 00 00	 DD	 $LN6@gObjSetIte@2
  002a8	00 00 00 00	 DD	 $LN4@gObjSetIte@2
  002ac	00 00 00 00	 DD	 $LN5@gObjSetIte@2
  002b0	00 00 00 00	 DD	 $LN7@gObjSetIte@2
  002b4	00 00 00 00	 DD	 $LN1@gObjSetIte@2
  002b8	00 00 00 00	 DD	 $LN2@gObjSetIte@2
  002bc	00 00 00 00	 DD	 $LN3@gObjSetIte@2
?gObjSetItemPlusSpecial@@YAXPAUOBJECTSTRUCT@@HH@Z ENDP	; gObjSetItemPlusSpecial
_TEXT	ENDS
PUBLIC	?gObjSetItemApply@@YAXPAUOBJECTSTRUCT@@@Z	; gObjSetItemApply
EXTRN	?GCManaSend@@YAXHHEEH@Z:PROC			; GCManaSend
EXTRN	?gObjSetBP@@YAXH@Z:PROC				; gObjSetBP
EXTRN	?GCReFillSend@@YAXHHEE@Z:PROC			; GCReFillSend
EXTRN	?PlusSpecialSetRing@CItem@@QAEXPAE@Z:PROC	; CItem::PlusSpecialSetRing
EXTRN	?DCInfo@@3Vclassdef@@A:BYTE			; DCInfo
; Function compile flags: /Ogtp
;	COMDAT ?gObjSetItemApply@@YAXPAUOBJECTSTRUCT@@@Z
_TEXT	SEGMENT
tv600 = 8						; size = 4
tv595 = 8						; size = 4
tv572 = 8						; size = 4
tv555 = 8						; size = 4
_lpObj$ = 8						; size = 4
?gObjSetItemApply@@YAXPAUOBJECTSTRUCT@@@Z PROC		; gObjSetItemApply, COMDAT

; 1188 : {

  00000	55		 push	 ebp
  00001	8b ec		 mov	 ebp, esp
  00003	53		 push	 ebx
  00004	56		 push	 esi

; 1189 : 	lpObj->m_AttackDamageMinLeft += lpObj->SetOpAddAttackDamage;

  00005	8b 75 08	 mov	 esi, DWORD PTR _lpObj$[ebp]
  00008	0f bf 86 72 0f
	00 00		 movsx	 eax, WORD PTR [esi+3954]

; 1190 : 	lpObj->m_AttackDamageMaxLeft += lpObj->SetOpAddAttackDamage;
; 1191 : 	lpObj->m_AttackDamageMinRight += lpObj->SetOpAddAttackDamage;
; 1192 : 	lpObj->m_AttackDamageMaxRight += lpObj->SetOpAddAttackDamage;
; 1193 : 
; 1194 : 	lpObj->m_AttackDamageMinLeft += lpObj->SetOpAddMinAttackDamage;

  0000f	0f bf 8e 6e 0f
	00 00		 movsx	 ecx, WORD PTR [esi+3950]

; 1195 : 	lpObj->m_AttackDamageMinRight += lpObj->SetOpAddMinAttackDamage;
; 1196 : 
; 1197 : 	lpObj->m_AttackDamageMaxLeft += lpObj->SetOpAddMaxAttackDamage;
; 1198 : 	lpObj->m_AttackDamageMaxRight += lpObj->SetOpAddMaxAttackDamage;
; 1199 : 
; 1200 : 	lpObj->m_MagicDamageMin += lpObj->m_MagicDamageMin * lpObj->SetOpAddMagicPower / 100;

  00016	8b 9e e4 02 00
	00		 mov	 ebx, DWORD PTR [esi+740]
  0001c	8d 14 01	 lea	 edx, DWORD PTR [ecx+eax]
  0001f	01 96 f8 02 00
	00		 add	 DWORD PTR [esi+760], edx
  00025	03 c8		 add	 ecx, eax
  00027	01 8e 00 03 00
	00		 add	 DWORD PTR [esi+768], ecx
  0002d	0f bf 8e 70 0f
	00 00		 movsx	 ecx, WORD PTR [esi+3952]
  00034	8d 14 01	 lea	 edx, DWORD PTR [ecx+eax]
  00037	01 96 f4 02 00
	00		 add	 DWORD PTR [esi+756], edx
  0003d	03 c8		 add	 ecx, eax
  0003f	01 8e fc 02 00
	00		 add	 DWORD PTR [esi+764], ecx
  00045	57		 push	 edi
  00046	0f bf be 78 0f
	00 00		 movsx	 edi, WORD PTR [esi+3960]
  0004d	8b cb		 mov	 ecx, ebx
  0004f	0f af cf	 imul	 ecx, edi
  00052	b8 1f 85 eb 51	 mov	 eax, 1374389535		; 51eb851fH
  00057	f7 e9		 imul	 ecx
  00059	c1 fa 05	 sar	 edx, 5
  0005c	8b c2		 mov	 eax, edx
  0005e	c1 e8 1f	 shr	 eax, 31			; 0000001fH
  00061	03 c2		 add	 eax, edx
  00063	03 c3		 add	 eax, ebx

; 1201 : 	lpObj->m_MagicDamageMax += lpObj->m_MagicDamageMax * lpObj->SetOpAddMagicPower / 100;

  00065	8b 9e e8 02 00
	00		 mov	 ebx, DWORD PTR [esi+744]
  0006b	8b cb		 mov	 ecx, ebx
  0006d	0f af cf	 imul	 ecx, edi

; 1202 : 
; 1203 : 	lpObj->AddLife += INT(lpObj->AddVitality * DCInfo.DefClass[lpObj->Class].VitalityToLife);

  00070	0f b7 be 98 00
	00 00		 movzx	 edi, WORD PTR [esi+152]
  00077	89 86 e4 02 00
	00		 mov	 DWORD PTR [esi+740], eax
  0007d	69 ff 60 09 00
	00		 imul	 edi, 2400		; 00000960H
  00083	b8 1f 85 eb 51	 mov	 eax, 1374389535		; 51eb851fH
  00088	f7 e9		 imul	 ecx
  0008a	c1 fa 05	 sar	 edx, 5
  0008d	8b ca		 mov	 ecx, edx
  0008f	c1 e9 1f	 shr	 ecx, 31			; 0000001fH
  00092	03 ca		 add	 ecx, edx
  00094	0f bf 96 e4 00
	00 00		 movsx	 edx, WORD PTR [esi+228]
  0009b	03 cb		 add	 ecx, ebx
  0009d	89 8e e8 02 00
	00		 mov	 DWORD PTR [esi+744], ecx
  000a3	89 55 08	 mov	 DWORD PTR tv600[ebp], edx
  000a6	d9 87 28 00 00
	00		 fld	 DWORD PTR ?DCInfo@@3Vclassdef@@A[edi+40]
  000ac	db 45 08	 fild	 DWORD PTR tv600[ebp]
  000af	de c9		 fmulp	 ST(1), ST(0)
  000b1	e8 00 00 00 00	 call	 __ftol2_sse
  000b6	01 86 0c 01 00
	00		 add	 DWORD PTR [esi+268], eax

; 1204 : 	lpObj->AddMana += INT(lpObj->AddEnergy * DCInfo.DefClass[lpObj->Class].EnergyToMana);

  000bc	d9 87 2c 00 00
	00		 fld	 DWORD PTR ?DCInfo@@3Vclassdef@@A[edi+44]
  000c2	0f bf 86 e6 00
	00 00		 movsx	 eax, WORD PTR [esi+230]
  000c9	89 45 08	 mov	 DWORD PTR tv595[ebp], eax
  000cc	db 45 08	 fild	 DWORD PTR tv595[ebp]
  000cf	de c9		 fmulp	 ST(1), ST(0)
  000d1	e8 00 00 00 00	 call	 __ftol2_sse

; 1205 : 
; 1206 : 	lpObj->m_CriticalDamage += lpObj->SetOpAddCriticalDamageSuccessRate;

  000d6	0f bf 8e 68 0f
	00 00		 movsx	 ecx, WORD PTR [esi+3944]
  000dd	01 8e 2c 03 00
	00		 add	 DWORD PTR [esi+812], ecx

; 1207 : 	lpObj->m_ExcelentDamage += lpObj->SetOpAddExDamageSuccessRate;

  000e3	0f bf 96 64 0f
	00 00		 movsx	 edx, WORD PTR [esi+3940]

; 1208 : 
; 1209 : 	if ( lpObj->pInventory[10].IsSetItem() )

  000ea	8b 8e 8c 0c 00
	00		 mov	 ecx, DWORD PTR [esi+3212]
  000f0	01 86 10 01 00
	00		 add	 DWORD PTR [esi+272], eax
  000f6	01 96 30 03 00
	00		 add	 DWORD PTR [esi+816], edx
  000fc	81 c1 90 06 00
	00		 add	 ecx, 1680		; 00000690H
  00102	e8 00 00 00 00	 call	 ?IsSetItem@CItem@@QAEHXZ ; CItem::IsSetItem
  00107	85 c0		 test	 eax, eax
  00109	74 18		 je	 SHORT $LN10@gObjSetIte@3

; 1210 : 	{
; 1211 : 		lpObj->pInventory[10].PlusSpecialSetRing((LPBYTE)lpObj->m_AddResistance);

  0010b	8b 8e 8c 0c 00
	00		 mov	 ecx, DWORD PTR [esi+3212]
  00111	8d 86 69 03 00
	00		 lea	 eax, DWORD PTR [esi+873]
  00117	50		 push	 eax
  00118	81 c1 90 06 00
	00		 add	 ecx, 1680		; 00000690H
  0011e	e8 00 00 00 00	 call	 ?PlusSpecialSetRing@CItem@@QAEXPAE@Z ; CItem::PlusSpecialSetRing
$LN10@gObjSetIte@3:

; 1212 : 	}
; 1213 : 
; 1214 : 	if ( lpObj->pInventory[11].IsSetItem() )

  00123	8b 8e 8c 0c 00
	00		 mov	 ecx, DWORD PTR [esi+3212]
  00129	81 c1 38 07 00
	00		 add	 ecx, 1848		; 00000738H
  0012f	e8 00 00 00 00	 call	 ?IsSetItem@CItem@@QAEHXZ ; CItem::IsSetItem
  00134	85 c0		 test	 eax, eax
  00136	74 18		 je	 SHORT $LN9@gObjSetIte@3

; 1215 : 	{
; 1216 : 		lpObj->pInventory[11].PlusSpecialSetRing((LPBYTE)lpObj->m_AddResistance);

  00138	8d 8e 69 03 00
	00		 lea	 ecx, DWORD PTR [esi+873]
  0013e	51		 push	 ecx
  0013f	8b 8e 8c 0c 00
	00		 mov	 ecx, DWORD PTR [esi+3212]
  00145	81 c1 38 07 00
	00		 add	 ecx, 1848		; 00000738H
  0014b	e8 00 00 00 00	 call	 ?PlusSpecialSetRing@CItem@@QAEXPAE@Z ; CItem::PlusSpecialSetRing
$LN9@gObjSetIte@3:

; 1217 : 	}
; 1218 : 
; 1219 : 	if ( lpObj->pInventory[9].IsSetItem() )

  00150	8b 8e 8c 0c 00
	00		 mov	 ecx, DWORD PTR [esi+3212]
  00156	81 c1 e8 05 00
	00		 add	 ecx, 1512		; 000005e8H
  0015c	e8 00 00 00 00	 call	 ?IsSetItem@CItem@@QAEHXZ ; CItem::IsSetItem
  00161	85 c0		 test	 eax, eax
  00163	74 18		 je	 SHORT $LN8@gObjSetIte@3

; 1220 : 	{
; 1221 : 		lpObj->pInventory[9].PlusSpecialSetRing((LPBYTE)lpObj->m_AddResistance);

  00165	8b 8e 8c 0c 00
	00		 mov	 ecx, DWORD PTR [esi+3212]
  0016b	8d 96 69 03 00
	00		 lea	 edx, DWORD PTR [esi+873]
  00171	52		 push	 edx
  00172	81 c1 e8 05 00
	00		 add	 ecx, 1512		; 000005e8H
  00178	e8 00 00 00 00	 call	 ?PlusSpecialSetRing@CItem@@QAEXPAE@Z ; CItem::PlusSpecialSetRing
$LN8@gObjSetIte@3:

; 1222 : 	}
; 1223 : 
; 1224 : 	if ( lpObj->SetOpTwoHandSwordImproveDamage )

  0017d	33 db		 xor	 ebx, ebx
  0017f	38 9e 7c 0f 00
	00		 cmp	 BYTE PTR [esi+3964], bl
  00185	74 73		 je	 SHORT $LN4@gObjSetIte@3

; 1225 : 	{
; 1226 : 		if ( !lpObj->pInventory[1].IsItem() && !lpObj->pInventory[0].IsItem() )

  00187	8b 8e 8c 0c 00
	00		 mov	 ecx, DWORD PTR [esi+3212]
  0018d	81 c1 a8 00 00
	00		 add	 ecx, 168		; 000000a8H
  00193	e8 00 00 00 00	 call	 ?IsItem@CItem@@QAEHXZ	; CItem::IsItem
  00198	85 c0		 test	 eax, eax
  0019a	75 15		 jne	 SHORT $LN6@gObjSetIte@3
  0019c	8b 8e 8c 0c 00
	00		 mov	 ecx, DWORD PTR [esi+3212]
  001a2	e8 00 00 00 00	 call	 ?IsItem@CItem@@QAEHXZ	; CItem::IsItem
  001a7	85 c0		 test	 eax, eax
  001a9	75 06		 jne	 SHORT $LN6@gObjSetIte@3

; 1227 : 		{
; 1228 : 			lpObj->SetOpTwoHandSwordImproveDamage = 0;

  001ab	88 9e 7c 0f 00
	00		 mov	 BYTE PTR [esi+3964], bl
$LN6@gObjSetIte@3:

; 1229 : 		}
; 1230 : 
; 1231 : 		if ( lpObj->pInventory[1].IsItem() && lpObj->pInventory[1].m_TwoHand == FALSE )

  001b1	8b 8e 8c 0c 00
	00		 mov	 ecx, DWORD PTR [esi+3212]
  001b7	81 c1 a8 00 00
	00		 add	 ecx, 168		; 000000a8H
  001bd	e8 00 00 00 00	 call	 ?IsItem@CItem@@QAEHXZ	; CItem::IsItem
  001c2	85 c0		 test	 eax, eax
  001c4	74 14		 je	 SHORT $LN5@gObjSetIte@3
  001c6	8b 86 8c 0c 00
	00		 mov	 eax, DWORD PTR [esi+3212]
  001cc	38 98 b4 00 00
	00		 cmp	 BYTE PTR [eax+180], bl
  001d2	75 06		 jne	 SHORT $LN5@gObjSetIte@3

; 1232 : 		{
; 1233 : 			lpObj->SetOpTwoHandSwordImproveDamage = 0;

  001d4	88 9e 7c 0f 00
	00		 mov	 BYTE PTR [esi+3964], bl
$LN5@gObjSetIte@3:

; 1234 : 		}
; 1235 : 
; 1236 : 		if ( lpObj->pInventory[0].IsItem() && lpObj->pInventory[0].m_TwoHand == FALSE )

  001da	8b 8e 8c 0c 00
	00		 mov	 ecx, DWORD PTR [esi+3212]
  001e0	e8 00 00 00 00	 call	 ?IsItem@CItem@@QAEHXZ	; CItem::IsItem
  001e5	85 c0		 test	 eax, eax
  001e7	74 11		 je	 SHORT $LN4@gObjSetIte@3
  001e9	8b 8e 8c 0c 00
	00		 mov	 ecx, DWORD PTR [esi+3212]
  001ef	38 59 0c	 cmp	 BYTE PTR [ecx+12], bl
  001f2	75 06		 jne	 SHORT $LN4@gObjSetIte@3

; 1237 : 		{
; 1238 : 			lpObj->SetOpTwoHandSwordImproveDamage = 0;

  001f4	88 9e 7c 0f 00
	00		 mov	 BYTE PTR [esi+3964], bl
$LN4@gObjSetIte@3:

; 1239 : 		}
; 1240 : 	}
; 1241 : 
; 1242 : 	if ( (lpObj->MaxLife + lpObj->AddLife ) < lpObj->Life )

  001fa	d9 86 c0 00 00
	00		 fld	 DWORD PTR [esi+192]
  00200	da 86 0c 01 00
	00		 fiadd	 DWORD PTR [esi+268]
  00206	d9 86 bc 00 00
	00		 fld	 DWORD PTR [esi+188]
  0020c	d8 d9		 fcomp	 ST(1)
  0020e	df e0		 fnstsw	 ax
  00210	f6 c4 41	 test	 ah, 65			; 00000041H
  00213	75 25		 jne	 SHORT $LN14@gObjSetIte@3

; 1243 : 	{
; 1244 : 		lpObj->Life = lpObj->MaxLife + lpObj->AddLife;

  00215	d9 5d 08	 fstp	 DWORD PTR tv555[ebp]

; 1245 : 		GCReFillSend(lpObj->m_Index, lpObj->Life, 0xFF, 0);

  00218	53		 push	 ebx
  00219	d9 45 08	 fld	 DWORD PTR tv555[ebp]
  0021c	68 ff 00 00 00	 push	 255			; 000000ffH
  00221	d9 96 bc 00 00
	00		 fst	 DWORD PTR [esi+188]
  00227	e8 00 00 00 00	 call	 __ftol2_sse
  0022c	8b 16		 mov	 edx, DWORD PTR [esi]
  0022e	50		 push	 eax
  0022f	52		 push	 edx
  00230	e8 00 00 00 00	 call	 ?GCReFillSend@@YAXHHEE@Z ; GCReFillSend
  00235	83 c4 10	 add	 esp, 16			; 00000010H
  00238	eb 02		 jmp	 SHORT $LN3@gObjSetIte@3
$LN14@gObjSetIte@3:
  0023a	dd d8		 fstp	 ST(0)
$LN3@gObjSetIte@3:

; 1246 : 	}
; 1247 : 
; 1248 : 	gObjSetBP(lpObj->m_Index);

  0023c	8b 06		 mov	 eax, DWORD PTR [esi]
  0023e	50		 push	 eax
  0023f	e8 00 00 00 00	 call	 ?gObjSetBP@@YAXH@Z	; gObjSetBP

; 1249 : 
; 1250 : 	if ( (lpObj->MaxMana + lpObj->AddMana ) < lpObj->Mana )

  00244	d9 86 d4 00 00
	00		 fld	 DWORD PTR [esi+212]
  0024a	da 86 10 01 00
	00		 fiadd	 DWORD PTR [esi+272]
  00250	83 c4 04	 add	 esp, 4
  00253	d9 86 d0 00 00
	00		 fld	 DWORD PTR [esi+208]
  00259	d8 d9		 fcomp	 ST(1)
  0025b	df e0		 fnstsw	 ax
  0025d	f6 c4 41	 test	 ah, 65			; 00000041H
  00260	75 2c		 jne	 SHORT $LN17@gObjSetIte@3

; 1251 : 	{
; 1252 : 		lpObj->Mana = lpObj->MaxMana + lpObj->AddMana;
; 1253 : 		GCManaSend(lpObj->m_Index, lpObj->Mana, 0xFF, 0, lpObj->BP);

  00262	8b 8e e8 00 00
	00		 mov	 ecx, DWORD PTR [esi+232]
  00268	d9 5d 08	 fstp	 DWORD PTR tv572[ebp]
  0026b	d9 45 08	 fld	 DWORD PTR tv572[ebp]
  0026e	51		 push	 ecx
  0026f	53		 push	 ebx
  00270	d9 96 d0 00 00
	00		 fst	 DWORD PTR [esi+208]
  00276	68 ff 00 00 00	 push	 255			; 000000ffH
  0027b	e8 00 00 00 00	 call	 __ftol2_sse
  00280	8b 16		 mov	 edx, DWORD PTR [esi]
  00282	50		 push	 eax
  00283	52		 push	 edx
  00284	e8 00 00 00 00	 call	 ?GCManaSend@@YAXHHEEH@Z	; GCManaSend
  00289	83 c4 14	 add	 esp, 20			; 00000014H
  0028c	eb 02		 jmp	 SHORT $LN2@gObjSetIte@3
$LN17@gObjSetIte@3:
  0028e	dd d8		 fstp	 ST(0)
$LN2@gObjSetIte@3:

; 1254 : 	}
; 1255 : 
; 1256 : 	lpObj->m_Defense += lpObj->SetOpAddDefence * 10 / 20;

  00290	0f bf 86 74 0f
	00 00		 movsx	 eax, WORD PTR [esi+3956]
  00297	8d 0c 80	 lea	 ecx, DWORD PTR [eax+eax*4]
  0029a	03 c9		 add	 ecx, ecx
  0029c	b8 67 66 66 66	 mov	 eax, 1717986919		; 66666667H
  002a1	f7 e9		 imul	 ecx

; 1257 : 	lpObj->m_Defense += lpObj->m_Defense * lpObj->SetOpAddDefenceRate / 100;

  002a3	0f bf 8e 76 0f
	00 00		 movsx	 ecx, WORD PTR [esi+3958]
  002aa	c1 fa 03	 sar	 edx, 3
  002ad	8b fa		 mov	 edi, edx
  002af	c1 ef 1f	 shr	 edi, 31			; 0000001fH
  002b2	03 fa		 add	 edi, edx
  002b4	03 be 10 03 00
	00		 add	 edi, DWORD PTR [esi+784]
  002ba	b8 1f 85 eb 51	 mov	 eax, 1374389535		; 51eb851fH
  002bf	0f af cf	 imul	 ecx, edi
  002c2	f7 e9		 imul	 ecx
  002c4	c1 fa 05	 sar	 edx, 5
  002c7	8b ca		 mov	 ecx, edx
  002c9	c1 e9 1f	 shr	 ecx, 31			; 0000001fH
  002cc	03 ca		 add	 ecx, edx

; 1258 : 
; 1259 : 	if ( lpObj->pInventory[1].m_Type >= ITEMGET(6,0) && lpObj->pInventory[1].m_Type < ITEMGET(7,0) )

  002ce	8b 96 8c 0c 00
	00		 mov	 edx, DWORD PTR [esi+3212]
  002d4	03 cf		 add	 ecx, edi
  002d6	89 8e 10 03 00
	00		 mov	 DWORD PTR [esi+784], ecx
  002dc	0f b7 82 ae 00
	00 00		 movzx	 eax, WORD PTR [edx+174]
  002e3	ba 00 0c 00 00	 mov	 edx, 3072		; 00000c00H
  002e8	66 3b c2	 cmp	 ax, dx
  002eb	7c 2d		 jl	 SHORT $LN1@gObjSetIte@3
  002ed	ba 00 0e 00 00	 mov	 edx, 3584		; 00000e00H
  002f2	66 3b c2	 cmp	 ax, dx
  002f5	7d 23		 jge	 SHORT $LN1@gObjSetIte@3

; 1260 : 	{
; 1261 : 		lpObj->m_Defense += lpObj->m_Defense * lpObj->SetOpImproveSheldDefence / 100;

  002f7	0f b6 96 7f 0f
	00 00		 movzx	 edx, BYTE PTR [esi+3967]
  002fe	0f af d1	 imul	 edx, ecx
  00301	b8 1f 85 eb 51	 mov	 eax, 1374389535		; 51eb851fH
  00306	f7 ea		 imul	 edx
  00308	c1 fa 05	 sar	 edx, 5
  0030b	8b c2		 mov	 eax, edx
  0030d	c1 e8 1f	 shr	 eax, 31			; 0000001fH
  00310	03 c2		 add	 eax, edx
  00312	03 c1		 add	 eax, ecx
  00314	89 86 10 03 00
	00		 mov	 DWORD PTR [esi+784], eax
$LN1@gObjSetIte@3:
  0031a	5f		 pop	 edi
  0031b	5e		 pop	 esi
  0031c	5b		 pop	 ebx

; 1262 : 	}
; 1263 : }

  0031d	5d		 pop	 ebp
  0031e	c3		 ret	 0
?gObjSetItemApply@@YAXPAUOBJECTSTRUCT@@@Z ENDP		; gObjSetItemApply
_TEXT	ENDS
PUBLIC	?gObjValidItem@@YAHPAUOBJECTSTRUCT@@PAVCItem@@H@Z ; gObjValidItem
EXTRN	?ItemAttribute@@3PAUITEM_ATTRIBUTE@@A:BYTE	; ItemAttribute
; Function compile flags: /Ogtp
;	COMDAT ?gObjValidItem@@YAHPAUOBJECTSTRUCT@@PAVCItem@@H@Z
_TEXT	SEGMENT
_lpObj$ = 8						; size = 4
_lpItem$ = 12						; size = 4
_pos$ = 16						; size = 4
?gObjValidItem@@YAHPAUOBJECTSTRUCT@@PAVCItem@@H@Z PROC	; gObjValidItem, COMDAT

; 1270 : {

  00000	55		 push	 ebp
  00001	8b ec		 mov	 ebp, esp

; 1271 : 	LPITEM_ATTRIBUTE p = &ItemAttribute[lpItem->m_Type];

  00003	8b 55 0c	 mov	 edx, DWORD PTR _lpItem$[ebp]

; 1272 : 	
; 1273 : 	if ( p->RequireStrength != 0 )

  00006	8b 4d 08	 mov	 ecx, DWORD PTR _lpObj$[ebp]
  00009	53		 push	 ebx
  0000a	56		 push	 esi
  0000b	0f b7 72 06	 movzx	 esi, WORD PTR [edx+6]
  0000f	0f bf c6	 movsx	 eax, si
  00012	6b c0 6c	 imul	 eax, 108		; 0000006cH
  00015	05 00 00 00 00	 add	 eax, OFFSET ?ItemAttribute@@3PAUITEM_ATTRIBUTE@@A ; ItemAttribute
  0001a	66 83 78 34 00	 cmp	 WORD PTR [eax+52], 0
  0001f	57		 push	 edi
  00020	74 1f		 je	 SHORT $LN16@gObjValidI

; 1274 : 	{
; 1275 : 		if ( (lpObj->Strength + lpObj->AddStrength) < lpItem->m_RequireStrength)

  00022	0f b7 99 b4 00
	00 00		 movzx	 ebx, WORD PTR [ecx+180]
  00029	0f bf b9 e0 00
	00 00		 movsx	 edi, WORD PTR [ecx+224]
  00030	03 fb		 add	 edi, ebx
  00032	0f b7 5a 42	 movzx	 ebx, WORD PTR [edx+66]
  00036	3b fb		 cmp	 edi, ebx
  00038	7d 07		 jge	 SHORT $LN16@gObjValidI
$LN20@gObjValidI:
  0003a	5f		 pop	 edi
  0003b	5e		 pop	 esi

; 1276 : 		{
; 1277 : 			return FALSE;

  0003c	33 c0		 xor	 eax, eax
  0003e	5b		 pop	 ebx

; 1326 : }

  0003f	5d		 pop	 ebp
  00040	c3		 ret	 0
$LN16@gObjValidI:

; 1278 : 		}
; 1279 : 	}
; 1280 : 
; 1281 : 	if ( p->RequireDexterity != 0 )

  00041	66 83 78 36 00	 cmp	 WORD PTR [eax+54], 0
  00046	74 18		 je	 SHORT $LN17@gObjValidI

; 1282 : 	{
; 1283 : 		if ( (lpObj->Dexterity + lpObj->AddDexterity) < lpItem->m_RequireDexterity)

  00048	0f b7 99 b6 00
	00 00		 movzx	 ebx, WORD PTR [ecx+182]
  0004f	0f bf b9 e2 00
	00 00		 movsx	 edi, WORD PTR [ecx+226]
  00056	03 fb		 add	 edi, ebx
  00058	0f b7 5a 44	 movzx	 ebx, WORD PTR [edx+68]
  0005c	3b fb		 cmp	 edi, ebx

; 1284 : 		{
; 1285 : 			return FALSE;

  0005e	7c da		 jl	 SHORT $LN20@gObjValidI
$LN17@gObjValidI:

; 1286 : 		}
; 1287 : 	}
; 1288 : 
; 1289 : 
; 1290 : 	if ( p->RequireEnergy != 0 )

  00060	66 83 78 38 00	 cmp	 WORD PTR [eax+56], 0
  00065	74 18		 je	 SHORT $LN18@gObjValidI

; 1291 : 	{
; 1292 : 		if ( (lpObj->Energy + lpObj->AddEnergy) < lpItem->m_RequireEnergy )

  00067	0f b7 99 ba 00
	00 00		 movzx	 ebx, WORD PTR [ecx+186]
  0006e	0f bf b9 e6 00
	00 00		 movsx	 edi, WORD PTR [ecx+230]
  00075	03 fb		 add	 edi, ebx
  00077	0f b7 5a 46	 movzx	 ebx, WORD PTR [edx+70]
  0007b	3b fb		 cmp	 edi, ebx

; 1293 : 		{
; 1294 : 			return FALSE;

  0007d	7c bb		 jl	 SHORT $LN20@gObjValidI
$LN18@gObjValidI:

; 1295 : 		}
; 1296 : 	}
; 1297 : 
; 1298 : 	if ( p->RequireLevel != 0 )

  0007f	66 83 78 3a 00	 cmp	 WORD PTR [eax+58], 0
  00084	74 0f		 je	 SHORT $LN19@gObjValidI

; 1299 : 	{
; 1300 : 		if ( (lpObj->Level) < lpItem->m_RequireLevel )

  00086	0f bf b9 9c 00
	00 00		 movsx	 edi, WORD PTR [ecx+156]
  0008d	0f b7 5a 48	 movzx	 ebx, WORD PTR [edx+72]
  00091	3b fb		 cmp	 edi, ebx

; 1301 : 		{
; 1302 : 			return FALSE;

  00093	7c a5		 jl	 SHORT $LN20@gObjValidI
$LN19@gObjValidI:

; 1303 : 		}
; 1304 : 	}
; 1305 : 
; 1306 : 	if ( lpItem->m_Type >= ITEMGET(0,0) && lpItem->m_Type <= ITEMGET(11, 0) )

  00095	66 85 f6	 test	 si, si
  00098	78 4f		 js	 SHORT $LN1@gObjValidI
  0009a	bf 00 16 00 00	 mov	 edi, 5632		; 00001600H
  0009f	66 3b f7	 cmp	 si, di
  000a2	7f 45		 jg	 SHORT $LN1@gObjValidI

; 1307 : 	{
; 1308 : 		if ( p->RequireVitality )

  000a4	66 83 78 4a 00	 cmp	 WORD PTR [eax+74], 0
  000a9	74 1c		 je	 SHORT $LN3@gObjValidI

; 1309 : 		{
; 1310 : 			if ( (lpObj->Vitality + lpObj->AddVitality ) < lpItem->m_RequireVitality )

  000ab	0f b7 b9 b8 00
	00 00		 movzx	 edi, WORD PTR [ecx+184]
  000b2	0f bf b1 e4 00
	00 00		 movsx	 esi, WORD PTR [ecx+228]
  000b9	03 f7		 add	 esi, edi
  000bb	0f b7 7a 4a	 movzx	 edi, WORD PTR [edx+74]
  000bf	3b f7		 cmp	 esi, edi

; 1311 : 			{
; 1312 : 				return FALSE;

  000c1	0f 8c 73 ff ff
	ff		 jl	 $LN20@gObjValidI
$LN3@gObjValidI:

; 1313 : 			}
; 1314 : 		}
; 1315 : 
; 1316 : 		if ( p->RequireLeadership )

  000c7	83 78 68 00	 cmp	 DWORD PTR [eax+104], 0
  000cb	74 1c		 je	 SHORT $LN1@gObjValidI

; 1317 : 		{
; 1318 : 			if ( (lpObj->Leadership + lpObj->AddLeadership ) < lpItem->m_RequireLeaderShip )

  000cd	0f b7 81 da 00
	00 00		 movzx	 eax, WORD PTR [ecx+218]
  000d4	0f b7 89 d8 00
	00 00		 movzx	 ecx, WORD PTR [ecx+216]
  000db	0f b7 52 4c	 movzx	 edx, WORD PTR [edx+76]
  000df	03 c1		 add	 eax, ecx
  000e1	3b c2		 cmp	 eax, edx

; 1319 : 			{
; 1320 : 				return FALSE;

  000e3	0f 8c 51 ff ff
	ff		 jl	 $LN20@gObjValidI
$LN1@gObjValidI:
  000e9	5f		 pop	 edi
  000ea	5e		 pop	 esi

; 1321 : 			}
; 1322 : 		}
; 1323 : 	}
; 1324 : 
; 1325 : 	return TRUE;

  000eb	b8 01 00 00 00	 mov	 eax, 1
  000f0	5b		 pop	 ebx

; 1326 : }

  000f1	5d		 pop	 ebp
  000f2	c3		 ret	 0
?gObjValidItem@@YAHPAUOBJECTSTRUCT@@PAVCItem@@H@Z ENDP	; gObjValidItem
_TEXT	ENDS
PUBLIC	??_C@_0BK@POCCBAFD@?$FL?$CFs?$FN?$FL?$CFs?$FN?5?$LM?$LM?F?$KO?5?$CFs?$LP?I?$LM?G?5?$MA?$PL?$LP?k?$AA@ ; `string'
PUBLIC	??_C@_0M@CMDBHBEK@?G?$KO?$LP?I?$LM?G?5?$MA?$PL?$LP?k?$AA@ ; `string'
PUBLIC	__$ArrayPad$
PUBLIC	?gObjCalcSetItemOption@@YAXPAUOBJECTSTRUCT@@@Z	; gObjCalcSetItemOption
EXTRN	?GetGetFullSetOption@CSetItemOption@@QAEHHAAH000000000HH@Z:PROC ; CSetItemOption::GetGetFullSetOption
EXTRN	?GetMaxSetOptionCount@CSetItemOption@@QAEHH@Z:PROC ; CSetItemOption::GetMaxSetOptionCount
EXTRN	?GetSetOption@CSetItemOption@@QAEHHHAAH000HH@Z:PROC ; CSetItemOption::GetSetOption
EXTRN	?IsRequireClass@CSetItemOption@@QAEHHHH@Z:PROC	; CSetItemOption::IsRequireClass
;	COMDAT ??_C@_0BK@POCCBAFD@?$FL?$CFs?$FN?$FL?$CFs?$FN?5?$LM?$LM?F?$KO?5?$CFs?$LP?I?$LM?G?5?$MA?$PL?$LP?k?$AA@
CONST	SEGMENT
??_C@_0BK@POCCBAFD@?$FL?$CFs?$FN?$FL?$CFs?$FN?5?$LM?$LM?F?$KO?5?$CFs?$LP?I?$LM?G?5?$MA?$PL?$LP?k?$AA@ DB '['
	DB	'%s][%s] ', 0bcH, 0bcH, 0c6H, 0aeH, ' %s', 0bfH, 0c9H, 0bcH, 0c7H
	DB	' ', 0c0H, 0fbH, 0bfH, 0ebH, 00H		; `string'
CONST	ENDS
;	COMDAT ??_C@_0M@CMDBHBEK@?G?$KO?$LP?I?$LM?G?5?$MA?$PL?$LP?k?$AA@
CONST	SEGMENT
??_C@_0M@CMDBHBEK@?G?$KO?$LP?I?$LM?G?5?$MA?$PL?$LP?k?$AA@ DB 0c7H, 0aeH, 0bfH
	DB	0c9H, 0bcH, 0c7H, ' ', 0c0H, 0fbH, 0bfH, 0ebH, 00H ; `string'
; Function compile flags: /Ogtp
CONST	ENDS
;	COMDAT ?gObjCalcSetItemOption@@YAXPAUOBJECTSTRUCT@@@Z
_TEXT	SEGMENT
_opvalue4$ = -120					; size = 4
_op4$ = -116						; size = 4
_opvalue3$ = -112					; size = 4
_opvalue5$ = -108					; size = 4
$T154143 = -104						; size = 4
$T154144 = -104						; size = 4
_op5$ = -100						; size = 4
_op3$ = -96						; size = 4
_SetOptionCount$ = -92					; size = 4
_opvalue1$ = -88					; size = 4
_op1$ = -84						; size = 4
_opvalue2$ = -80					; size = 4
_op2$ = -76						; size = 4
_optioncount$153936 = -72				; size = 4
_optioncount$153922 = -72				; size = 4
_SetOptionTable$ = -68					; size = 29
_SetOptionCountTable$ = -36				; size = 29
__$ArrayPad$ = -4					; size = 4
_lpObj$ = 8						; size = 4
?gObjCalcSetItemOption@@YAXPAUOBJECTSTRUCT@@@Z PROC	; gObjCalcSetItemOption, COMDAT

; 957  : {

  00000	55		 push	 ebp
  00001	8b ec		 mov	 ebp, esp
  00003	83 ec 78	 sub	 esp, 120		; 00000078H
  00006	a1 00 00 00 00	 mov	 eax, DWORD PTR ___security_cookie
  0000b	33 c5		 xor	 eax, ebp
  0000d	89 45 fc	 mov	 DWORD PTR __$ArrayPad$[ebp], eax

; 958  : 	BYTE SetOptionTable[29];
; 959  : 	BYTE SetOptionCountTable[29];
; 960  : 	int SetOptionCount = 0;
; 961  : 	int op1;
; 962  : 	int op2;
; 963  : 	int op3;
; 964  : 	int op4;
; 965  : 	int op5;
; 966  : 	int opvalue1;
; 967  : 	int opvalue2;
; 968  : 	int opvalue3;
; 969  : 	int opvalue4;
; 970  : 	int opvalue5;
; 971  : 
; 972  : 	memset(SetOptionTable, 0, sizeof(SetOptionTable));

  00010	33 c0		 xor	 eax, eax
  00012	53		 push	 ebx
  00013	56		 push	 esi
  00014	8b 75 08	 mov	 esi, DWORD PTR _lpObj$[ebp]
  00017	57		 push	 edi
  00018	89 45 bc	 mov	 DWORD PTR _SetOptionTable$[ebp], eax
  0001b	89 45 c0	 mov	 DWORD PTR _SetOptionTable$[ebp+4], eax
  0001e	89 45 c4	 mov	 DWORD PTR _SetOptionTable$[ebp+8], eax
  00021	89 45 c8	 mov	 DWORD PTR _SetOptionTable$[ebp+12], eax
  00024	89 45 cc	 mov	 DWORD PTR _SetOptionTable$[ebp+16], eax
  00027	89 45 d0	 mov	 DWORD PTR _SetOptionTable$[ebp+20], eax
  0002a	89 45 d4	 mov	 DWORD PTR _SetOptionTable$[ebp+24], eax
  0002d	88 45 d8	 mov	 BYTE PTR _SetOptionTable$[ebp+28], al

; 973  : 	memset(SetOptionCountTable, 0, sizeof(SetOptionCountTable));

  00030	89 45 dc	 mov	 DWORD PTR _SetOptionCountTable$[ebp], eax
  00033	89 45 e0	 mov	 DWORD PTR _SetOptionCountTable$[ebp+4], eax
  00036	89 45 e4	 mov	 DWORD PTR _SetOptionCountTable$[ebp+8], eax
  00039	89 45 e8	 mov	 DWORD PTR _SetOptionCountTable$[ebp+12], eax
  0003c	89 45 ec	 mov	 DWORD PTR _SetOptionCountTable$[ebp+16], eax
  0003f	89 45 f0	 mov	 DWORD PTR _SetOptionCountTable$[ebp+20], eax
  00042	89 45 f4	 mov	 DWORD PTR _SetOptionCountTable$[ebp+24], eax
  00045	88 45 f8	 mov	 BYTE PTR _SetOptionCountTable$[ebp+28], al

; 974  : 	gObjGetSetItemOption(lpObj, SetOptionTable, SetOptionCountTable, &SetOptionCount);

  00048	8d 45 a4	 lea	 eax, DWORD PTR _SetOptionCount$[ebp]
  0004b	50		 push	 eax
  0004c	8d 4d dc	 lea	 ecx, DWORD PTR _SetOptionCountTable$[ebp]
  0004f	51		 push	 ecx
  00050	8d 55 bc	 lea	 edx, DWORD PTR _SetOptionTable$[ebp]
  00053	52		 push	 edx
  00054	56		 push	 esi
  00055	c7 45 a4 00 00
	00 00		 mov	 DWORD PTR _SetOptionCount$[ebp], 0
  0005c	e8 00 00 00 00	 call	 ?gObjGetSetItemOption@@YAXPAUOBJECTSTRUCT@@PAE1PAH@Z ; gObjGetSetItemOption

; 975  : 
; 976  : 	for ( int optioncount=0;optioncount<SetOptionCount;optioncount++)

  00061	8b 4d a4	 mov	 ecx, DWORD PTR _SetOptionCount$[ebp]
  00064	33 c0		 xor	 eax, eax
  00066	83 c4 10	 add	 esp, 16			; 00000010H
  00069	89 45 b8	 mov	 DWORD PTR _optioncount$153922[ebp], eax
  0006c	85 c9		 test	 ecx, ecx
  0006e	0f 8e 70 01 00
	00		 jle	 $LN16@gObjCalcSe@2
  00074	eb 0a 8d a4 24
	00 00 00 00 8d
	49 00		 npad	 12
$LL33@gObjCalcSe@2:

; 977  : 	{
; 978  : 		int OptionTableIndex = SetOptionTable[optioncount];
; 979  : 		int OptionTableCount = SetOptionCountTable[optioncount];

  00080	0f b6 4c 05 dc	 movzx	 ecx, BYTE PTR _SetOptionCountTable$[ebp+eax]
  00085	0f b6 5c 05 bc	 movzx	 ebx, BYTE PTR _SetOptionTable$[ebp+eax]

; 980  : 
; 981  : 		if ( OptionTableCount >= 2 )

  0008a	83 f9 02	 cmp	 ecx, 2
  0008d	0f 8c 42 01 00
	00		 jl	 $LN17@gObjCalcSe@2

; 982  : 		{
; 983  : 			gSetItemOption.IsRequireClass(OptionTableIndex, lpObj->Class, lpObj->ChangeUP);

  00093	0f b6 86 9b 00
	00 00		 movzx	 eax, BYTE PTR [esi+155]
  0009a	0f b7 8e 98 00
	00 00		 movzx	 ecx, WORD PTR [esi+152]
  000a1	50		 push	 eax
  000a2	51		 push	 ecx
  000a3	53		 push	 ebx
  000a4	b9 00 00 00 00	 mov	 ecx, OFFSET ?gSetItemOption@@3VCSetItemOption@@A ; gSetItemOption
  000a9	e8 00 00 00 00	 call	 ?IsRequireClass@CSetItemOption@@QAEHHHH@Z ; CSetItemOption::IsRequireClass

; 984  : 
; 985  : 			for ( int tablecnt=0;tablecnt<(OptionTableCount-1);tablecnt++)

  000ae	8b 55 b8	 mov	 edx, DWORD PTR _optioncount$153922[ebp]
  000b1	0f b6 44 15 dc	 movzx	 eax, BYTE PTR _SetOptionCountTable$[ebp+edx]
  000b6	48		 dec	 eax
  000b7	33 ff		 xor	 edi, edi
  000b9	89 45 98	 mov	 DWORD PTR $T154143[ebp], eax
  000bc	85 c0		 test	 eax, eax
  000be	7e 55		 jle	 SHORT $LN12@gObjCalcSe@2
$LL14@gObjCalcSe@2:

; 986  : 			{
; 987  : 				if ( gSetItemOption.GetSetOption(OptionTableIndex, tablecnt,
; 988  : 					op1, op2, opvalue1, opvalue2, lpObj->Class, lpObj->ChangeUP) )

  000c0	0f b6 86 9b 00
	00 00		 movzx	 eax, BYTE PTR [esi+155]
  000c7	0f b7 8e 98 00
	00 00		 movzx	 ecx, WORD PTR [esi+152]
  000ce	50		 push	 eax
  000cf	51		 push	 ecx
  000d0	8d 55 b0	 lea	 edx, DWORD PTR _opvalue2$[ebp]
  000d3	52		 push	 edx
  000d4	8d 45 a8	 lea	 eax, DWORD PTR _opvalue1$[ebp]
  000d7	50		 push	 eax
  000d8	8d 4d b4	 lea	 ecx, DWORD PTR _op2$[ebp]
  000db	51		 push	 ecx
  000dc	8d 55 ac	 lea	 edx, DWORD PTR _op1$[ebp]
  000df	52		 push	 edx
  000e0	57		 push	 edi
  000e1	53		 push	 ebx
  000e2	b9 00 00 00 00	 mov	 ecx, OFFSET ?gSetItemOption@@3VCSetItemOption@@A ; gSetItemOption
  000e7	e8 00 00 00 00	 call	 ?GetSetOption@CSetItemOption@@QAEHHHAAH000HH@Z ; CSetItemOption::GetSetOption
  000ec	85 c0		 test	 eax, eax
  000ee	74 1f		 je	 SHORT $LN13@gObjCalcSe@2

; 989  : 				{
; 990  : 					gObjSetItemStatPlusSpecial(lpObj, op1, opvalue1);

  000f0	8b 45 a8	 mov	 eax, DWORD PTR _opvalue1$[ebp]
  000f3	8b 4d ac	 mov	 ecx, DWORD PTR _op1$[ebp]
  000f6	50		 push	 eax
  000f7	51		 push	 ecx
  000f8	56		 push	 esi
  000f9	e8 00 00 00 00	 call	 ?gObjSetItemStatPlusSpecial@@YAXPAUOBJECTSTRUCT@@HH@Z ; gObjSetItemStatPlusSpecial

; 991  : 					gObjSetItemStatPlusSpecial(lpObj, op2, opvalue2);

  000fe	8b 55 b0	 mov	 edx, DWORD PTR _opvalue2$[ebp]
  00101	8b 45 b4	 mov	 eax, DWORD PTR _op2$[ebp]
  00104	52		 push	 edx
  00105	50		 push	 eax
  00106	56		 push	 esi
  00107	e8 00 00 00 00	 call	 ?gObjSetItemStatPlusSpecial@@YAXPAUOBJECTSTRUCT@@HH@Z ; gObjSetItemStatPlusSpecial
  0010c	83 c4 18	 add	 esp, 24			; 00000018H
$LN13@gObjCalcSe@2:

; 984  : 
; 985  : 			for ( int tablecnt=0;tablecnt<(OptionTableCount-1);tablecnt++)

  0010f	47		 inc	 edi
  00110	3b 7d 98	 cmp	 edi, DWORD PTR $T154143[ebp]
  00113	7c ab		 jl	 SHORT $LL14@gObjCalcSe@2
$LN12@gObjCalcSe@2:

; 992  : 				}
; 993  : 			}
; 994  : 
; 995  : 			if ( gSetItemOption.GetMaxSetOptionCount(OptionTableIndex) < OptionTableCount )

  00115	53		 push	 ebx
  00116	b9 00 00 00 00	 mov	 ecx, OFFSET ?gSetItemOption@@3VCSetItemOption@@A ; gSetItemOption
  0011b	e8 00 00 00 00	 call	 ?GetMaxSetOptionCount@CSetItemOption@@QAEHH@Z ; CSetItemOption::GetMaxSetOptionCount
  00120	8b 4d b8	 mov	 ecx, DWORD PTR _optioncount$153922[ebp]
  00123	0f b6 4c 0d dc	 movzx	 ecx, BYTE PTR _SetOptionCountTable$[ebp+ecx]
  00128	3b c1		 cmp	 eax, ecx
  0012a	0f 8d a2 00 00
	00		 jge	 $LN29@gObjCalcSe@2

; 996  : 			{
; 997  : 				lpObj->IsFullSetItem = true;
; 998  : 				LogAdd(LOG_RED,  "풀옵션 적용");

  00130	68 00 00 00 00	 push	 OFFSET ??_C@_0M@CMDBHBEK@?G?$KO?$LP?I?$LM?G?5?$MA?$PL?$LP?k?$AA@
  00135	6a 01		 push	 1
  00137	c6 86 82 0f 00
	00 01		 mov	 BYTE PTR [esi+3970], 1
  0013e	e8 00 00 00 00	 call	 ?LogAdd@@YAXW4eLogColor@@PADZZ ; LogAdd

; 999  : 
; 1000 : 				gSetItemOption.GetGetFullSetOption(OptionTableIndex,
; 1001 : 					op1, op2, op3, op4, op5,
; 1002 : 					opvalue1, opvalue2, opvalue3, opvalue4, opvalue5,
; 1003 : 					lpObj->Class, lpObj->ChangeUP);

  00143	0f b6 96 9b 00
	00 00		 movzx	 edx, BYTE PTR [esi+155]
  0014a	0f b7 86 98 00
	00 00		 movzx	 eax, WORD PTR [esi+152]
  00151	83 c4 08	 add	 esp, 8
  00154	52		 push	 edx
  00155	50		 push	 eax
  00156	8d 4d 94	 lea	 ecx, DWORD PTR _opvalue5$[ebp]
  00159	51		 push	 ecx
  0015a	8d 55 88	 lea	 edx, DWORD PTR _opvalue4$[ebp]
  0015d	52		 push	 edx
  0015e	8d 45 90	 lea	 eax, DWORD PTR _opvalue3$[ebp]
  00161	50		 push	 eax
  00162	8d 4d b0	 lea	 ecx, DWORD PTR _opvalue2$[ebp]
  00165	51		 push	 ecx
  00166	8d 55 a8	 lea	 edx, DWORD PTR _opvalue1$[ebp]
  00169	52		 push	 edx
  0016a	8d 45 9c	 lea	 eax, DWORD PTR _op5$[ebp]
  0016d	50		 push	 eax
  0016e	8d 4d 8c	 lea	 ecx, DWORD PTR _op4$[ebp]
  00171	51		 push	 ecx
  00172	8d 55 a0	 lea	 edx, DWORD PTR _op3$[ebp]
  00175	52		 push	 edx
  00176	8d 45 b4	 lea	 eax, DWORD PTR _op2$[ebp]
  00179	50		 push	 eax
  0017a	8d 4d ac	 lea	 ecx, DWORD PTR _op1$[ebp]
  0017d	51		 push	 ecx
  0017e	53		 push	 ebx
  0017f	b9 00 00 00 00	 mov	 ecx, OFFSET ?gSetItemOption@@3VCSetItemOption@@A ; gSetItemOption
  00184	e8 00 00 00 00	 call	 ?GetGetFullSetOption@CSetItemOption@@QAEHHAAH000000000HH@Z ; CSetItemOption::GetGetFullSetOption

; 1004 : 
; 1005 : 				gObjSetItemStatPlusSpecial(lpObj, op1, opvalue1);

  00189	8b 55 a8	 mov	 edx, DWORD PTR _opvalue1$[ebp]
  0018c	8b 45 ac	 mov	 eax, DWORD PTR _op1$[ebp]
  0018f	52		 push	 edx
  00190	50		 push	 eax
  00191	56		 push	 esi
  00192	e8 00 00 00 00	 call	 ?gObjSetItemStatPlusSpecial@@YAXPAUOBJECTSTRUCT@@HH@Z ; gObjSetItemStatPlusSpecial

; 1006 : 				gObjSetItemStatPlusSpecial(lpObj, op2, opvalue2);

  00197	8b 4d b0	 mov	 ecx, DWORD PTR _opvalue2$[ebp]
  0019a	8b 55 b4	 mov	 edx, DWORD PTR _op2$[ebp]
  0019d	51		 push	 ecx
  0019e	52		 push	 edx
  0019f	56		 push	 esi
  001a0	e8 00 00 00 00	 call	 ?gObjSetItemStatPlusSpecial@@YAXPAUOBJECTSTRUCT@@HH@Z ; gObjSetItemStatPlusSpecial

; 1007 : 				gObjSetItemStatPlusSpecial(lpObj, op3, opvalue3);

  001a5	8b 45 90	 mov	 eax, DWORD PTR _opvalue3$[ebp]
  001a8	8b 4d a0	 mov	 ecx, DWORD PTR _op3$[ebp]
  001ab	50		 push	 eax
  001ac	51		 push	 ecx
  001ad	56		 push	 esi
  001ae	e8 00 00 00 00	 call	 ?gObjSetItemStatPlusSpecial@@YAXPAUOBJECTSTRUCT@@HH@Z ; gObjSetItemStatPlusSpecial

; 1008 : 				gObjSetItemStatPlusSpecial(lpObj, op4, opvalue4);

  001b3	8b 55 88	 mov	 edx, DWORD PTR _opvalue4$[ebp]
  001b6	8b 45 8c	 mov	 eax, DWORD PTR _op4$[ebp]
  001b9	52		 push	 edx
  001ba	50		 push	 eax
  001bb	56		 push	 esi
  001bc	e8 00 00 00 00	 call	 ?gObjSetItemStatPlusSpecial@@YAXPAUOBJECTSTRUCT@@HH@Z ; gObjSetItemStatPlusSpecial

; 1009 : 				gObjSetItemStatPlusSpecial(lpObj, op5, opvalue5);

  001c1	8b 4d 94	 mov	 ecx, DWORD PTR _opvalue5$[ebp]
  001c4	8b 55 9c	 mov	 edx, DWORD PTR _op5$[ebp]
  001c7	51		 push	 ecx
  001c8	52		 push	 edx
  001c9	56		 push	 esi
  001ca	e8 00 00 00 00	 call	 ?gObjSetItemStatPlusSpecial@@YAXPAUOBJECTSTRUCT@@HH@Z ; gObjSetItemStatPlusSpecial
  001cf	83 c4 3c	 add	 esp, 60			; 0000003cH
$LN29@gObjCalcSe@2:
  001d2	8b 45 b8	 mov	 eax, DWORD PTR _optioncount$153922[ebp]
$LN17@gObjCalcSe@2:

; 975  : 
; 976  : 	for ( int optioncount=0;optioncount<SetOptionCount;optioncount++)

  001d5	8b 4d a4	 mov	 ecx, DWORD PTR _SetOptionCount$[ebp]
  001d8	40		 inc	 eax
  001d9	89 45 b8	 mov	 DWORD PTR _optioncount$153922[ebp], eax
  001dc	3b c1		 cmp	 eax, ecx
  001de	0f 8c 9c fe ff
	ff		 jl	 $LL33@gObjCalcSe@2
$LN16@gObjCalcSe@2:

; 1010 : 			}		
; 1011 : 		}
; 1012 : 	}
; 1013 : 
; 1014 : 	for (int optioncount=0;optioncount<SetOptionCount;optioncount++)

  001e4	33 c0		 xor	 eax, eax
  001e6	89 45 b8	 mov	 DWORD PTR _optioncount$153936[ebp], eax
  001e9	85 c9		 test	 ecx, ecx
  001eb	0f 8e 71 01 00
	00		 jle	 $LN7@gObjCalcSe@2
$LL34@gObjCalcSe@2:

; 1015 : 	{
; 1016 : 		int OptionTableIndex = SetOptionTable[optioncount];
; 1017 : 		int OptionTableCount = SetOptionCountTable[optioncount];

  001f1	0f b6 4c 05 dc	 movzx	 ecx, BYTE PTR _SetOptionCountTable$[ebp+eax]
  001f6	0f b6 5c 05 bc	 movzx	 ebx, BYTE PTR _SetOptionTable$[ebp+eax]

; 1018 : 
; 1019 : 		if ( OptionTableCount >= 2 )

  001fb	83 f9 02	 cmp	 ecx, 2
  001fe	0f 8c 51 01 00
	00		 jl	 $LN8@gObjCalcSe@2

; 1020 : 		{
; 1021 : 			LogAdd(LOG_BLACK, "[%s][%s] 세트 %s옵션 적용",
; 1022 : 				lpObj->AccountID, lpObj->Name, gSetItemOption.GetSetOptionName(OptionTableIndex));

  00204	53		 push	 ebx
  00205	b9 00 00 00 00	 mov	 ecx, OFFSET ?gSetItemOption@@3VCSetItemOption@@A ; gSetItemOption
  0020a	e8 00 00 00 00	 call	 ?GetSetOptionName@CSetItemOption@@QAEPADH@Z ; CSetItemOption::GetSetOptionName
  0020f	50		 push	 eax
  00210	8d 46 6f	 lea	 eax, DWORD PTR [esi+111]
  00213	50		 push	 eax
  00214	8d 4e 64	 lea	 ecx, DWORD PTR [esi+100]
  00217	51		 push	 ecx
  00218	68 00 00 00 00	 push	 OFFSET ??_C@_0BK@POCCBAFD@?$FL?$CFs?$FN?$FL?$CFs?$FN?5?$LM?$LM?F?$KO?5?$CFs?$LP?I?$LM?G?5?$MA?$PL?$LP?k?$AA@
  0021d	6a 00		 push	 0
  0021f	e8 00 00 00 00	 call	 ?LogAdd@@YAXW4eLogColor@@PADZZ ; LogAdd

; 1023 : 
; 1024 : 			for ( int tablecnt=0;tablecnt<(OptionTableCount-1);tablecnt++)

  00224	8b 55 b8	 mov	 edx, DWORD PTR _optioncount$153936[ebp]
  00227	0f b6 44 15 dc	 movzx	 eax, BYTE PTR _SetOptionCountTable$[ebp+edx]
  0022c	48		 dec	 eax
  0022d	83 c4 14	 add	 esp, 20			; 00000014H
  00230	33 ff		 xor	 edi, edi
  00232	89 45 98	 mov	 DWORD PTR $T154144[ebp], eax
  00235	85 c0		 test	 eax, eax
  00237	7e 5c		 jle	 SHORT $LN3@gObjCalcSe@2
  00239	8d a4 24 00 00
	00 00		 npad	 7
$LL5@gObjCalcSe@2:

; 1025 : 			{
; 1026 : 				if ( gSetItemOption.GetSetOption(OptionTableIndex, tablecnt,
; 1027 : 					op1, op2, opvalue1, opvalue2, lpObj->Class, lpObj->ChangeUP) )

  00240	0f b6 86 9b 00
	00 00		 movzx	 eax, BYTE PTR [esi+155]
  00247	0f b7 8e 98 00
	00 00		 movzx	 ecx, WORD PTR [esi+152]
  0024e	50		 push	 eax
  0024f	51		 push	 ecx
  00250	8d 55 b0	 lea	 edx, DWORD PTR _opvalue2$[ebp]
  00253	52		 push	 edx
  00254	8d 45 a8	 lea	 eax, DWORD PTR _opvalue1$[ebp]
  00257	50		 push	 eax
  00258	8d 4d b4	 lea	 ecx, DWORD PTR _op2$[ebp]
  0025b	51		 push	 ecx
  0025c	8d 55 ac	 lea	 edx, DWORD PTR _op1$[ebp]
  0025f	52		 push	 edx
  00260	57		 push	 edi
  00261	53		 push	 ebx
  00262	b9 00 00 00 00	 mov	 ecx, OFFSET ?gSetItemOption@@3VCSetItemOption@@A ; gSetItemOption
  00267	e8 00 00 00 00	 call	 ?GetSetOption@CSetItemOption@@QAEHHHAAH000HH@Z ; CSetItemOption::GetSetOption
  0026c	85 c0		 test	 eax, eax
  0026e	74 1f		 je	 SHORT $LN4@gObjCalcSe@2

; 1028 : 				{
; 1029 : 					gObjSetItemPlusSpecial(lpObj, op1, opvalue1);

  00270	8b 45 a8	 mov	 eax, DWORD PTR _opvalue1$[ebp]
  00273	8b 4d ac	 mov	 ecx, DWORD PTR _op1$[ebp]
  00276	50		 push	 eax
  00277	51		 push	 ecx
  00278	56		 push	 esi
  00279	e8 00 00 00 00	 call	 ?gObjSetItemPlusSpecial@@YAXPAUOBJECTSTRUCT@@HH@Z ; gObjSetItemPlusSpecial

; 1030 : 					gObjSetItemPlusSpecial(lpObj, op2, opvalue2);

  0027e	8b 55 b0	 mov	 edx, DWORD PTR _opvalue2$[ebp]
  00281	8b 45 b4	 mov	 eax, DWORD PTR _op2$[ebp]
  00284	52		 push	 edx
  00285	50		 push	 eax
  00286	56		 push	 esi
  00287	e8 00 00 00 00	 call	 ?gObjSetItemPlusSpecial@@YAXPAUOBJECTSTRUCT@@HH@Z ; gObjSetItemPlusSpecial
  0028c	83 c4 18	 add	 esp, 24			; 00000018H
$LN4@gObjCalcSe@2:

; 1023 : 
; 1024 : 			for ( int tablecnt=0;tablecnt<(OptionTableCount-1);tablecnt++)

  0028f	47		 inc	 edi
  00290	3b 7d 98	 cmp	 edi, DWORD PTR $T154144[ebp]
  00293	7c ab		 jl	 SHORT $LL5@gObjCalcSe@2
$LN3@gObjCalcSe@2:

; 1031 : 				}
; 1032 : 			}
; 1033 : 				
; 1034 : 			if ( gSetItemOption.GetMaxSetOptionCount(OptionTableIndex) < OptionTableCount )

  00295	53		 push	 ebx
  00296	b9 00 00 00 00	 mov	 ecx, OFFSET ?gSetItemOption@@3VCSetItemOption@@A ; gSetItemOption
  0029b	e8 00 00 00 00	 call	 ?GetMaxSetOptionCount@CSetItemOption@@QAEHH@Z ; CSetItemOption::GetMaxSetOptionCount
  002a0	8b 4d b8	 mov	 ecx, DWORD PTR _optioncount$153936[ebp]
  002a3	0f b6 4c 0d dc	 movzx	 ecx, BYTE PTR _SetOptionCountTable$[ebp+ecx]
  002a8	3b c1		 cmp	 eax, ecx
  002aa	0f 8d a2 00 00
	00		 jge	 $LN31@gObjCalcSe@2

; 1035 : 			{
; 1036 : 				LogAdd(LOG_RED,  "풀옵션 적용");

  002b0	68 00 00 00 00	 push	 OFFSET ??_C@_0M@CMDBHBEK@?G?$KO?$LP?I?$LM?G?5?$MA?$PL?$LP?k?$AA@
  002b5	6a 01		 push	 1
  002b7	e8 00 00 00 00	 call	 ?LogAdd@@YAXW4eLogColor@@PADZZ ; LogAdd

; 1037 : 				lpObj->IsFullSetItem = true;
; 1038 : 
; 1039 : 				gSetItemOption.GetGetFullSetOption(OptionTableIndex,
; 1040 : 					op1, op2, op3, op4, op5,
; 1041 : 					opvalue1, opvalue2, opvalue3, opvalue4, opvalue5,
; 1042 : 					lpObj->Class, lpObj->ChangeUP);

  002bc	0f b6 96 9b 00
	00 00		 movzx	 edx, BYTE PTR [esi+155]
  002c3	0f b7 86 98 00
	00 00		 movzx	 eax, WORD PTR [esi+152]
  002ca	83 c4 08	 add	 esp, 8
  002cd	52		 push	 edx
  002ce	50		 push	 eax
  002cf	8d 4d 94	 lea	 ecx, DWORD PTR _opvalue5$[ebp]
  002d2	51		 push	 ecx
  002d3	8d 55 88	 lea	 edx, DWORD PTR _opvalue4$[ebp]
  002d6	52		 push	 edx
  002d7	8d 45 90	 lea	 eax, DWORD PTR _opvalue3$[ebp]
  002da	50		 push	 eax
  002db	8d 4d b0	 lea	 ecx, DWORD PTR _opvalue2$[ebp]
  002de	51		 push	 ecx
  002df	8d 55 a8	 lea	 edx, DWORD PTR _opvalue1$[ebp]
  002e2	52		 push	 edx
  002e3	8d 45 9c	 lea	 eax, DWORD PTR _op5$[ebp]
  002e6	50		 push	 eax
  002e7	8d 4d 8c	 lea	 ecx, DWORD PTR _op4$[ebp]
  002ea	51		 push	 ecx
  002eb	8d 55 a0	 lea	 edx, DWORD PTR _op3$[ebp]
  002ee	52		 push	 edx
  002ef	8d 45 b4	 lea	 eax, DWORD PTR _op2$[ebp]
  002f2	50		 push	 eax
  002f3	8d 4d ac	 lea	 ecx, DWORD PTR _op1$[ebp]
  002f6	51		 push	 ecx
  002f7	53		 push	 ebx
  002f8	b9 00 00 00 00	 mov	 ecx, OFFSET ?gSetItemOption@@3VCSetItemOption@@A ; gSetItemOption
  002fd	c6 86 82 0f 00
	00 01		 mov	 BYTE PTR [esi+3970], 1
  00304	e8 00 00 00 00	 call	 ?GetGetFullSetOption@CSetItemOption@@QAEHHAAH000000000HH@Z ; CSetItemOption::GetGetFullSetOption

; 1043 : 
; 1044 : 				gObjSetItemPlusSpecial(lpObj, op1, opvalue1);

  00309	8b 55 a8	 mov	 edx, DWORD PTR _opvalue1$[ebp]
  0030c	8b 45 ac	 mov	 eax, DWORD PTR _op1$[ebp]
  0030f	52		 push	 edx
  00310	50		 push	 eax
  00311	56		 push	 esi
  00312	e8 00 00 00 00	 call	 ?gObjSetItemPlusSpecial@@YAXPAUOBJECTSTRUCT@@HH@Z ; gObjSetItemPlusSpecial

; 1045 : 				gObjSetItemPlusSpecial(lpObj, op2, opvalue2);

  00317	8b 4d b0	 mov	 ecx, DWORD PTR _opvalue2$[ebp]
  0031a	8b 55 b4	 mov	 edx, DWORD PTR _op2$[ebp]
  0031d	51		 push	 ecx
  0031e	52		 push	 edx
  0031f	56		 push	 esi
  00320	e8 00 00 00 00	 call	 ?gObjSetItemPlusSpecial@@YAXPAUOBJECTSTRUCT@@HH@Z ; gObjSetItemPlusSpecial

; 1046 : 				gObjSetItemPlusSpecial(lpObj, op3, opvalue3);

  00325	8b 45 90	 mov	 eax, DWORD PTR _opvalue3$[ebp]
  00328	8b 4d a0	 mov	 ecx, DWORD PTR _op3$[ebp]
  0032b	50		 push	 eax
  0032c	51		 push	 ecx
  0032d	56		 push	 esi
  0032e	e8 00 00 00 00	 call	 ?gObjSetItemPlusSpecial@@YAXPAUOBJECTSTRUCT@@HH@Z ; gObjSetItemPlusSpecial

; 1047 : 				gObjSetItemPlusSpecial(lpObj, op4, opvalue4);

  00333	8b 55 88	 mov	 edx, DWORD PTR _opvalue4$[ebp]
  00336	8b 45 8c	 mov	 eax, DWORD PTR _op4$[ebp]
  00339	52		 push	 edx
  0033a	50		 push	 eax
  0033b	56		 push	 esi
  0033c	e8 00 00 00 00	 call	 ?gObjSetItemPlusSpecial@@YAXPAUOBJECTSTRUCT@@HH@Z ; gObjSetItemPlusSpecial

; 1048 : 				gObjSetItemPlusSpecial(lpObj, op5, opvalue5);

  00341	8b 4d 94	 mov	 ecx, DWORD PTR _opvalue5$[ebp]
  00344	8b 55 9c	 mov	 edx, DWORD PTR _op5$[ebp]
  00347	51		 push	 ecx
  00348	52		 push	 edx
  00349	56		 push	 esi
  0034a	e8 00 00 00 00	 call	 ?gObjSetItemPlusSpecial@@YAXPAUOBJECTSTRUCT@@HH@Z ; gObjSetItemPlusSpecial
  0034f	83 c4 3c	 add	 esp, 60			; 0000003cH
$LN31@gObjCalcSe@2:
  00352	8b 45 b8	 mov	 eax, DWORD PTR _optioncount$153936[ebp]
$LN8@gObjCalcSe@2:

; 1010 : 			}		
; 1011 : 		}
; 1012 : 	}
; 1013 : 
; 1014 : 	for (int optioncount=0;optioncount<SetOptionCount;optioncount++)

  00355	40		 inc	 eax
  00356	89 45 b8	 mov	 DWORD PTR _optioncount$153936[ebp], eax
  00359	3b 45 a4	 cmp	 eax, DWORD PTR _SetOptionCount$[ebp]
  0035c	0f 8c 8f fe ff
	ff		 jl	 $LL34@gObjCalcSe@2
$LN7@gObjCalcSe@2:

; 1049 : 			}		
; 1050 : 		}
; 1051 : 	}
; 1052 : }

  00362	8b 4d fc	 mov	 ecx, DWORD PTR __$ArrayPad$[ebp]
  00365	5f		 pop	 edi
  00366	5e		 pop	 esi
  00367	33 cd		 xor	 ecx, ebp
  00369	5b		 pop	 ebx
  0036a	e8 00 00 00 00	 call	 @__security_check_cookie@4
  0036f	8b e5		 mov	 esp, ebp
  00371	5d		 pop	 ebp
  00372	c3		 ret	 0
?gObjCalcSetItemOption@@YAXPAUOBJECTSTRUCT@@@Z ENDP	; gObjCalcSetItemOption
_TEXT	ENDS
PUBLIC	?gObjCalCharacter@@YAXH@Z			; gObjCalCharacter
EXTRN	?SendMain@CServerInfo@@QAEXH@Z:PROC		; CServerInfo::SendMain
EXTRN	?gObjNextExpCal@@YAXPAUOBJECTSTRUCT@@@Z:PROC	; gObjNextExpCal
EXTRN	?PlusSpecialPercentEx@CItem@@QAEXPAHHH@Z:PROC	; CItem::PlusSpecialPercentEx
EXTRN	?ItemDefense@CItem@@QAEHXZ:PROC			; CItem::ItemDefense
EXTRN	?PlusSpecial@CItem@@QAEXPAHH@Z:PROC		; CItem::PlusSpecial
EXTRN	?gServerInfo@@3VCServerInfo@@A:BYTE		; gServerInfo
EXTRN	?gObj@@3PAUOBJECTSTRUCT@@A:BYTE			; gObj
; Function compile flags: /Ogtp
;	COMDAT ?gObjCalCharacter@@YAXH@Z
_TEXT	SEGMENT
tv3755 = -56						; size = 4
tv3752 = -56						; size = 4
_MaxBP$ = -56						; size = 4
_TotalMP$ = -56						; size = 4
tv3740 = -52						; size = 4
_MaxMana$ = -52						; size = 4
_TotalHP$ = -52						; size = 4
_AddMana$ = -48						; size = 4
_AddLife$ = -44						; size = 4
_AddLeadership$ = -40					; size = 4
tv3579 = -36						; size = 4
tv3576 = -36						; size = 4
tv3573 = -36						; size = 4
tv3122 = -36						; size = 4
tv3111 = -36						; size = 4
tv3100 = -36						; size = 4
tv2926 = -36						; size = 4
_MaxLife$ = -36						; size = 4
_Level15Count$ = -36					; size = 4
_LastItemIndex$ = -36					; size = 4
_RingOption$ = -36					; size = 4
_n$153627 = -36						; size = 4
_Ring2$ = -36						; size = 4
_Wings$ = -36						; size = 4
_Left$ = -36						; size = 4
_Level10Count$ = -32					; size = 4
_Ring1$ = -32						; size = 4
_Level11Count$ = -28					; size = 4
_Level12Count$ = -24					; size = 4
_Level13Count$ = -20					; size = 4
_Level14Count$ = -16					; size = 4
_Energy$ = -16						; size = 4
_Dexterity$ = -12					; size = 4
tv2888 = -8						; size = 4
tv1508 = -1						; size = 1
_FullItemSet$ = -1					; size = 1
_RightItem$ = -1					; size = 1
_change$ = -1						; size = 1
_aIndex$ = 8						; size = 4
?gObjCalCharacter@@YAXH@Z PROC				; gObjCalCharacter, COMDAT

; 9    : {

  00000	55		 push	 ebp
  00001	8b ec		 mov	 ebp, esp
  00003	83 ec 38	 sub	 esp, 56			; 00000038H
  00006	56		 push	 esi

; 10   : 	LPOBJ lpObj = &gObj[aIndex];

  00007	8b 75 08	 mov	 esi, DWORD PTR _aIndex$[ebp]
  0000a	69 f6 64 15 00
	00		 imul	 esi, 5476		; 00001564H
  00010	81 c6 00 00 00
	00		 add	 esi, OFFSET ?gObj@@3PAUOBJECTSTRUCT@@A ; gObj

; 11   : 	// ---
; 12   : 	if(lpObj->Type != OBJ_USER)

  00016	66 83 7e 60 01	 cmp	 WORD PTR [esi+96], 1
  0001b	0f 85 7b 16 00
	00		 jne	 $LN162@gObjCalCha

; 13   : 	{
; 14   : 		return;
; 15   : 	}
; 16   : 	// ---
; 17   : 	CItem* Right  = &lpObj->pInventory[0];
; 18   : 	CItem* Left   = &lpObj->pInventory[1];
; 19   : 	CItem* Gloves = &lpObj->pInventory[5];
; 20   : 	CItem* Wings  = &lpObj->pInventory[7];
; 21   : 	CItem* Helper = &lpObj->pInventory[8];
; 22   : 	CItem* Amulet = &lpObj->pInventory[9];
; 23   : 	CItem* Ring1  = &lpObj->pInventory[10];
; 24   : 	CItem* Ring2  = &lpObj->pInventory[11];
; 25   : 	// ---
; 26   : 	float TotalHP = (lpObj->Life*100)/(lpObj->MaxLife+lpObj->AddLife);

  00021	d9 86 bc 00 00
	00		 fld	 DWORD PTR [esi+188]
  00027	53		 push	 ebx
  00028	dd 05 00 00 00
	00		 fld	 QWORD PTR __real@4059000000000000
  0002e	57		 push	 edi
  0002f	dc c9		 fmul	 ST(1), ST(0)
  00031	8b be 8c 0c 00
	00		 mov	 edi, DWORD PTR [esi+3212]
  00037	db 86 0c 01 00
	00		 fild	 DWORD PTR [esi+268]

; 27   : 	float TotalMP = (lpObj->Mana*100)/(lpObj->MaxMana+lpObj->AddMana);
; 28   : 	// ---
; 29   : 	lpObj->HaveWeaponInHand = 1;
; 30   : 	// ---
; 31   : 	if(Right->IsItem() == 0 && Left->IsItem() == 0)

  0003d	8b cf		 mov	 ecx, edi
  0003f	89 7d f8	 mov	 DWORD PTR tv2888[ebp], edi
  00042	c6 86 ab 0e 00
	00 01		 mov	 BYTE PTR [esi+3755], 1
  00049	d8 86 c0 00 00
	00		 fadd	 DWORD PTR [esi+192]
  0004f	de fa		 fdivp	 ST(2), ST(0)
  00051	d9 c9		 fxch	 ST(1)
  00053	d9 5d cc	 fstp	 DWORD PTR _TotalHP$[ebp]
  00056	d8 8e d0 00 00
	00		 fmul	 DWORD PTR [esi+208]
  0005c	db 86 10 01 00
	00		 fild	 DWORD PTR [esi+272]
  00062	d8 86 d4 00 00
	00		 fadd	 DWORD PTR [esi+212]
  00068	de f9		 fdivp	 ST(1), ST(0)
  0006a	d9 5d c8	 fstp	 DWORD PTR _TotalMP$[ebp]
  0006d	e8 00 00 00 00	 call	 ?IsItem@CItem@@QAEHXZ	; CItem::IsItem
  00072	85 c0		 test	 eax, eax
  00074	75 0f		 jne	 SHORT $LN160@gObjCalCha
  00076	8d 8f a8 00 00
	00		 lea	 ecx, DWORD PTR [edi+168]
  0007c	e8 00 00 00 00	 call	 ?IsItem@CItem@@QAEHXZ	; CItem::IsItem
  00081	85 c0		 test	 eax, eax

; 32   : 	{
; 33   : 	    lpObj->HaveWeaponInHand = 0;

  00083	74 4a		 je	 SHORT $LN295@gObjCalCha
$LN160@gObjCalCha:

; 34   : 	}
; 35   : 	// ---
; 36   : 	else if(Left->IsItem() == 0 && Right->m_Type == ITEMGET(4,15)) //Arrow

  00085	8d 8f a8 00 00
	00		 lea	 ecx, DWORD PTR [edi+168]
  0008b	e8 00 00 00 00	 call	 ?IsItem@CItem@@QAEHXZ	; CItem::IsItem
  00090	85 c0		 test	 eax, eax
  00092	75 0b		 jne	 SHORT $LN158@gObjCalCha
  00094	b8 0f 08 00 00	 mov	 eax, 2063		; 0000080fH
  00099	66 39 47 06	 cmp	 WORD PTR [edi+6], ax

; 37   : 	{
; 38   : 	    lpObj->HaveWeaponInHand = 0;

  0009d	74 30		 je	 SHORT $LN295@gObjCalCha
$LN158@gObjCalCha:

; 39   : 	}
; 40   : 	// ---
; 41   : 	else if(Right->IsItem() == 0)

  0009f	8b cf		 mov	 ecx, edi
  000a1	e8 00 00 00 00	 call	 ?IsItem@CItem@@QAEHXZ	; CItem::IsItem
  000a6	85 c0		 test	 eax, eax
  000a8	75 2c		 jne	 SHORT $LN153@gObjCalCha

; 42   : 	{
; 43   : 	    if(Left->m_Type == ITEMGET(4,7)) //Bolt

  000aa	0f b7 87 ae 00
	00 00		 movzx	 eax, WORD PTR [edi+174]
  000b1	b9 07 08 00 00	 mov	 ecx, 2055		; 00000807H
  000b6	66 3b c1	 cmp	 ax, cx

; 44   : 		{
; 45   : 		    lpObj->HaveWeaponInHand = 0;

  000b9	74 14		 je	 SHORT $LN295@gObjCalCha

; 46   : 		}
; 47   : 		else if(Left->m_Type >= ITEMGET(6,0) && Left->m_Type < ITEMGET(7,0)) //Shields

  000bb	ba 00 0c 00 00	 mov	 edx, 3072		; 00000c00H
  000c0	66 3b c2	 cmp	 ax, dx
  000c3	7c 11		 jl	 SHORT $LN153@gObjCalCha
  000c5	b9 00 0e 00 00	 mov	 ecx, 3584		; 00000e00H
  000ca	66 3b c1	 cmp	 ax, cx
  000cd	7d 07		 jge	 SHORT $LN153@gObjCalCha
$LN295@gObjCalCha:

; 48   : 		{
; 49   : 		    lpObj->HaveWeaponInHand = 0;

  000cf	c6 86 ab 0e 00
	00 00		 mov	 BYTE PTR [esi+3755], 0
$LN153@gObjCalCha:

; 50   : 		}
; 51   : 	}
; 52   : 	// ---
; 53   : 	lpObj->AddLife = 0;

  000d6	33 ff		 xor	 edi, edi

; 54   : 	lpObj->AddMana = 0;
; 55   : 	lpObj->MonsterDieGetMoney = 0;

  000d8	33 d2		 xor	 edx, edx
  000da	89 be 0c 01 00
	00		 mov	 DWORD PTR [esi+268], edi
  000e0	89 be 10 01 00
	00		 mov	 DWORD PTR [esi+272], edi
  000e6	89 96 16 01 00
	00		 mov	 DWORD PTR [esi+278], edx

; 56   : 	lpObj->MonsterDieGetLife = 0;
; 57   : 	lpObj->MonsterDieGetMana = 0;
; 58   : 	lpObj->DamageReflect = 0;

  000ec	66 89 96 14 01
	00 00		 mov	 WORD PTR [esi+276], dx

; 59   : 	lpObj->DamageMinus = 0;
; 60   : 	lpObj->SkillLongSpearChange = 0;

  000f3	88 96 bb 10 00
	00		 mov	 BYTE PTR [esi+4283], dl
  000f9	8d a4 24 00 00
	00 00		 npad	 7
$LL152@gObjCalCha:

; 63   : 	{
; 64   : 	    if(lpObj->pInventory[n].IsItem() != 0)

  00100	8b 8e 8c 0c 00
	00		 mov	 ecx, DWORD PTR [esi+3212]
  00106	03 cf		 add	 ecx, edi
  00108	e8 00 00 00 00	 call	 ?IsItem@CItem@@QAEHXZ	; CItem::IsItem
  0010d	85 c0		 test	 eax, eax
  0010f	74 0e		 je	 SHORT $LN151@gObjCalCha

; 65   : 		{
; 66   : 		    lpObj->pInventory[n].m_IsValidItem = 1;

  00111	8b 86 8c 0c 00
	00		 mov	 eax, DWORD PTR [esi+3212]
  00117	c6 84 38 94 00
	00 00 01	 mov	 BYTE PTR [eax+edi+148], 1
$LN151@gObjCalCha:

; 61   : 	// ---
; 62   : 	for(int n = 0; n < 12; n++)

  0011f	81 c7 a8 00 00
	00		 add	 edi, 168		; 000000a8H
  00125	81 ff e0 07 00
	00		 cmp	 edi, 2016		; 000007e0H
  0012b	7c d3		 jl	 SHORT $LL152@gObjCalCha
  0012d	8d 49 00	 npad	 3
$LL148@gObjCalCha:

; 73   : 	{
; 74   : 		change = 0;
; 75   : 		lpObj->AddStrength = 0;
; 76   : 		lpObj->AddDexterity = 0;
; 77   : 		lpObj->AddVitality = 0;

  00130	33 c0		 xor	 eax, eax
  00132	33 c9		 xor	 ecx, ecx

; 78   : 		lpObj->AddEnergy = 0;
; 79   : 		lpObj->AddBP = 0;
; 80   : 		lpObj->SetOpAddMaxAttackDamage = 0;

  00134	33 d2		 xor	 edx, edx
  00136	89 8e e0 00 00
	00		 mov	 DWORD PTR [esi+224], ecx
  0013c	89 86 e4 00 00
	00		 mov	 DWORD PTR [esi+228], eax
  00142	89 96 6e 0f 00
	00		 mov	 DWORD PTR [esi+3950], edx

; 81   : 		lpObj->SetOpAddMinAttackDamage = 0;
; 82   : 		lpObj->SetOpAddDamage = 0;

  00148	89 8e 6a 0f 00
	00		 mov	 DWORD PTR [esi+3946], ecx

; 83   : 		lpObj->SetOpIncAGValue = 0;
; 84   : 		lpObj->SetOpAddCriticalDamageSuccessRate = 0;

  0014e	89 86 66 0f 00
	00		 mov	 DWORD PTR [esi+3942], eax

; 85   : 		lpObj->SetOpAddCriticalDamage = 0;
; 86   : 		lpObj->SetOpAddExDamageSuccessRate = 0;

  00154	89 96 62 0f 00
	00		 mov	 DWORD PTR [esi+3938], edx

; 87   : 		lpObj->SetOpAddExDamage = 0;
; 88   : 		lpObj->SetOpAddSkillAttack = 0;

  0015a	66 89 8e 60 0f
	00 00		 mov	 WORD PTR [esi+3936], cx

; 89   : 		lpObj->SetOpAddAttackDamage = 0;

  00161	89 96 72 0f 00
	00		 mov	 DWORD PTR [esi+3954], edx

; 90   : 		lpObj->SetOpAddDefence = 0;
; 91   : 		lpObj->SetOpAddMagicPower = 0;

  00167	89 8e 76 0f 00
	00		 mov	 DWORD PTR [esi+3958], ecx

; 92   : 		lpObj->SetOpAddDefenceRate = 0;
; 93   : 		lpObj->SetOpIgnoreDefense = 0;

  0016d	89 86 7a 0f 00
	00		 mov	 DWORD PTR [esi+3962], eax

; 94   : 		lpObj->SetOpDoubleDamage = 0;
; 95   : 		lpObj->SetOpTwoHandSwordImproveDamage = 0;
; 96   : 		lpObj->SetOpImproveSuccessAttackRate = 0;
; 97   : 		lpObj->SetOpReflectionDamage = 0;

  00173	89 86 7e 0f 00
	00		 mov	 DWORD PTR [esi+3966], eax

; 98   : 		lpObj->SetOpImproveSheldDefence = 0;
; 99   : 		lpObj->SetOpDecreaseAG = 0;
; 100  : 		lpObj->SetOpImproveItemDropRate = 0;
; 101  : 		lpObj->IsFullSetItem = 0;

  00179	88 86 82 0f 00
	00		 mov	 BYTE PTR [esi+3970], al
  0017f	33 ff		 xor	 edi, edi
  00181	89 be f0 00 00
	00		 mov	 DWORD PTR [esi+240], edi

; 102  : 		memset(lpObj->m_AddResistance,0,sizeof(lpObj->m_AddResistance));

  00187	89 86 69 03 00
	00		 mov	 DWORD PTR [esi+873], eax
  0018d	66 89 86 6d 03
	00 00		 mov	 WORD PTR [esi+877], ax

; 103  : 		// ---
; 104  : 		gObjCalcSetItemStat(lpObj);

  00194	56		 push	 esi
  00195	c6 45 ff 00	 mov	 BYTE PTR _change$[ebp], 0
  00199	88 86 6f 03 00
	00		 mov	 BYTE PTR [esi+879], al
  0019f	e8 00 00 00 00	 call	 ?gObjCalcSetItemStat@@YAXPAUOBJECTSTRUCT@@@Z ; gObjCalcSetItemStat

; 105  : 		gObjCalcSetItemOption(lpObj);

  001a4	56		 push	 esi
  001a5	e8 00 00 00 00	 call	 ?gObjCalcSetItemOption@@YAXPAUOBJECTSTRUCT@@@Z ; gObjCalcSetItemOption
  001aa	83 c4 08	 add	 esp, 8

; 106  : 		// ---
; 107  : 		for(int n = 0; n < 12; n++)

  001ad	89 7d dc	 mov	 DWORD PTR _n$153627[ebp], edi
$LL283@gObjCalCha:

; 108  : 		{
; 109  : 		    if(lpObj->pInventory[n].IsItem() != 0 && lpObj->pInventory[n].m_IsValidItem != 0)

  001b0	8b 8e 8c 0c 00
	00		 mov	 ecx, DWORD PTR [esi+3212]
  001b6	03 cf		 add	 ecx, edi
  001b8	e8 00 00 00 00	 call	 ?IsItem@CItem@@QAEHXZ	; CItem::IsItem
  001bd	85 c0		 test	 eax, eax
  001bf	74 37		 je	 SHORT $LN145@gObjCalCha
  001c1	8b 9e 8c 0c 00
	00		 mov	 ebx, DWORD PTR [esi+3212]
  001c7	03 df		 add	 ebx, edi
  001c9	80 bb 94 00 00
	00 00		 cmp	 BYTE PTR [ebx+148], 0
  001d0	74 26		 je	 SHORT $LN145@gObjCalCha

; 110  : 			{
; 111  : 			    if(gObjValidItem(lpObj,&lpObj->pInventory[n],n) != 0)

  001d2	8b 4d dc	 mov	 ecx, DWORD PTR _n$153627[ebp]
  001d5	51		 push	 ecx
  001d6	53		 push	 ebx
  001d7	56		 push	 esi
  001d8	e8 00 00 00 00	 call	 ?gObjValidItem@@YAHPAUOBJECTSTRUCT@@PAVCItem@@H@Z ; gObjValidItem
  001dd	83 c4 0c	 add	 esp, 12			; 0000000cH
  001e0	85 c0		 test	 eax, eax
  001e2	74 09		 je	 SHORT $LN142@gObjCalCha

; 112  : 				{
; 113  : 				    lpObj->pInventory[n].m_IsValidItem = 1;

  001e4	c6 83 94 00 00
	00 01		 mov	 BYTE PTR [ebx+148], 1

; 114  : 				}
; 115  : 				else

  001eb	eb 0b		 jmp	 SHORT $LN145@gObjCalCha
$LN142@gObjCalCha:

; 116  : 				{
; 117  : 				    lpObj->pInventory[n].m_IsValidItem = 0;

  001ed	c6 83 94 00 00
	00 00		 mov	 BYTE PTR [ebx+148], 0

; 118  : 					change = 1;

  001f4	c6 45 ff 01	 mov	 BYTE PTR _change$[ebp], 1
$LN145@gObjCalCha:

; 106  : 		// ---
; 107  : 		for(int n = 0; n < 12; n++)

  001f8	ff 45 dc	 inc	 DWORD PTR _n$153627[ebp]
  001fb	81 c7 a8 00 00
	00		 add	 edi, 168		; 000000a8H
  00201	81 ff e0 07 00
	00		 cmp	 edi, 2016		; 000007e0H
  00207	7c a7		 jl	 SHORT $LL283@gObjCalCha

; 67   : 		}
; 68   : 	}
; 69   : 	// ---
; 70   : 	bool change = 1;
; 71   : 	// ---
; 72   : 	while(change != 0)

  00209	80 7d ff 00	 cmp	 BYTE PTR _change$[ebp], 0
  0020d	0f 85 1d ff ff
	ff		 jne	 $LL148@gObjCalCha

; 119  : 				}
; 120  : 			}
; 121  : 		}
; 122  : 	}
; 123  : 	// ---
; 124  : 	int Strength	= lpObj->Strength+lpObj->AddStrength;
; 125  : 	int Dexterity	= lpObj->Dexterity+lpObj->AddDexterity;

  00213	0f bf 86 e2 00
	00 00		 movsx	 eax, WORD PTR [esi+226]
  0021a	0f b7 be b6 00
	00 00		 movzx	 edi, WORD PTR [esi+182]

; 126  : 	int Vitality	= lpObj->Vitality+lpObj->AddVitality;
; 127  : 	int Energy		= lpObj->Energy+lpObj->AddEnergy;

  00221	0f bf 8e e6 00
	00 00		 movsx	 ecx, WORD PTR [esi+230]
  00228	0f b7 9e b4 00
	00 00		 movzx	 ebx, WORD PTR [esi+180]
  0022f	0f bf 96 e0 00
	00 00		 movsx	 edx, WORD PTR [esi+224]
  00236	03 f8		 add	 edi, eax
  00238	0f b7 86 ba 00
	00 00		 movzx	 eax, WORD PTR [esi+186]
  0023f	03 c1		 add	 eax, ecx

; 128  : 	// ---
; 129  : 	int AttackPhysicToLog = 0;
; 130  : 	int AttackMagicToLog = 0;
; 131  : 	// ---
; 132  : 	if(lpObj->Class == 1) //DK

  00241	0f b7 8e 98 00
	00 00		 movzx	 ecx, WORD PTR [esi+152]
  00248	03 da		 add	 ebx, edx
  0024a	89 7d f4	 mov	 DWORD PTR _Dexterity$[ebp], edi
  0024d	89 45 f0	 mov	 DWORD PTR _Energy$[ebp], eax
  00250	83 f9 01	 cmp	 ecx, 1
  00253	75 13		 jne	 SHORT $LN140@gObjCalCha

; 133  : 	{
; 134  : 		lpObj->m_AttackDamageMinRight = Strength/gServerInfo.m_Character.MinimumDamageDK; //6

  00255	0f bf 0d 50 01
	00 00		 movsx	 ecx, WORD PTR ?gServerInfo@@3VCServerInfo@@A+336

; 135  : 		lpObj->m_AttackDamageMaxRight = Strength/gServerInfo.m_Character.MaximumDamageDK; //4

  0025c	0f bf 3d 52 01
	00 00		 movsx	 edi, WORD PTR ?gServerInfo@@3VCServerInfo@@A+338

; 136  : 
; 137  : 		lpObj->m_AttackDamageMinLeft  = Strength/gServerInfo.m_Character.MinimumDamageDK; //6
; 138  : 		lpObj->m_AttackDamageMaxLeft  = Strength/gServerInfo.m_Character.MaximumDamageDK; //4
; 139  : 
; 140  : 		AttackMagicToLog = (lpObj->m_AttackDamageMaxRight);

  00263	e9 e4 01 00 00	 jmp	 $LN296@gObjCalCha
$LN140@gObjCalCha:

; 141  : 	}
; 142  : 	// ---
; 143  : 	else if(lpObj->Class == 2) //ELF

  00268	83 f9 02	 cmp	 ecx, 2
  0026b	0f 85 2d 01 00
	00		 jne	 $LN138@gObjCalCha

; 144  : 	{
; 145  : 		if((Right->m_Type >= ITEMGET(4,0) && Right->m_Type < ITEMGET(5,0) && Right->m_Type != ITEMGET(4,15)) || (Left->m_Type >= ITEMGET(4,0) && Left->m_Type < ITEMGET(5,0) && Left->m_Type != ITEMGET(4,7)))

  00271	8b 4d f8	 mov	 ecx, DWORD PTR tv2888[ebp]
  00274	0f b7 41 06	 movzx	 eax, WORD PTR [ecx+6]
  00278	ba 00 08 00 00	 mov	 edx, 2048		; 00000800H
  0027d	66 3b c2	 cmp	 ax, dx
  00280	7c 14		 jl	 SHORT $LN135@gObjCalCha
  00282	ba 00 0a 00 00	 mov	 edx, 2560		; 00000a00H
  00287	66 3b c2	 cmp	 ax, dx
  0028a	7d 0a		 jge	 SHORT $LN135@gObjCalCha
  0028c	ba 0f 08 00 00	 mov	 edx, 2063		; 0000080fH
  00291	66 3b c2	 cmp	 ax, dx
  00294	75 31		 jne	 SHORT $LN136@gObjCalCha
$LN135@gObjCalCha:
  00296	0f b7 81 ae 00
	00 00		 movzx	 eax, WORD PTR [ecx+174]
  0029d	b9 00 08 00 00	 mov	 ecx, 2048		; 00000800H
  002a2	66 3b c1	 cmp	 ax, cx
  002a5	0f 8c ce 00 00
	00		 jl	 $LN137@gObjCalCha
  002ab	ba 00 0a 00 00	 mov	 edx, 2560		; 00000a00H
  002b0	66 3b c2	 cmp	 ax, dx
  002b3	0f 8d c0 00 00
	00		 jge	 $LN137@gObjCalCha
  002b9	b9 07 08 00 00	 mov	 ecx, 2055		; 00000807H
  002be	66 3b c1	 cmp	 ax, cx
  002c1	0f 84 b2 00 00
	00		 je	 $LN137@gObjCalCha
$LN136@gObjCalCha:

; 146  : 		{
; 147  : 	        if((Right->IsItem() != 0 && Right->m_IsValidItem == 0) || (Left->IsItem() != 0 && Left->m_IsValidItem == 0)) 

  002c7	8b 4d f8	 mov	 ecx, DWORD PTR tv2888[ebp]
  002ca	e8 00 00 00 00	 call	 ?IsItem@CItem@@QAEHXZ	; CItem::IsItem
  002cf	85 c0		 test	 eax, eax
  002d1	74 0c		 je	 SHORT $LN271@gObjCalCha
  002d3	8b 55 f8	 mov	 edx, DWORD PTR tv2888[ebp]
  002d6	80 ba 94 00 00
	00 00		 cmp	 BYTE PTR [edx+148], 0
  002dd	74 21		 je	 SHORT $LN133@gObjCalCha
$LN271@gObjCalCha:
  002df	8b 4d f8	 mov	 ecx, DWORD PTR tv2888[ebp]
  002e2	81 c1 a8 00 00
	00		 add	 ecx, 168		; 000000a8H
  002e8	89 4d dc	 mov	 DWORD PTR _Left$[ebp], ecx
  002eb	e8 00 00 00 00	 call	 ?IsItem@CItem@@QAEHXZ	; CItem::IsItem
  002f0	85 c0		 test	 eax, eax
  002f2	74 31		 je	 SHORT $LN134@gObjCalCha
  002f4	8b 45 dc	 mov	 eax, DWORD PTR _Left$[ebp]
  002f7	80 b8 94 00 00
	00 00		 cmp	 BYTE PTR [eax+148], 0
  002fe	75 25		 jne	 SHORT $LN134@gObjCalCha
$LN133@gObjCalCha:

; 148  : 			{
; 149  : 			    //Sem arco ou flechas
; 150  : 				lpObj->m_AttackDamageMinRight = (Dexterity + Strength) / gServerInfo.m_Character.MinimumDamageFE_NoBow; //7

  00300	0f bf 0d 5e 01
	00 00		 movsx	 ecx, WORD PTR ?gServerInfo@@3VCServerInfo@@A+350
  00307	03 fb		 add	 edi, ebx
  00309	8b c7		 mov	 eax, edi
  0030b	99		 cdq
  0030c	f7 f9		 idiv	 ecx
  0030e	8b c8		 mov	 ecx, eax

; 151  : 				lpObj->m_AttackDamageMaxRight = (Dexterity + Strength) / gServerInfo.m_Character.MaximumDamageFE_NoBow; //4

  00310	0f bf 05 60 01
	00 00		 movsx	 eax, WORD PTR ?gServerInfo@@3VCServerInfo@@A+352
  00317	89 45 dc	 mov	 DWORD PTR tv3579[ebp], eax
  0031a	8b c7		 mov	 eax, edi
  0031c	99		 cdq
  0031d	f7 7d dc	 idiv	 DWORD PTR tv3579[ebp]

; 152  : 
; 153  : 				lpObj->m_AttackDamageMinLeft  = (Dexterity + Strength) / gServerInfo.m_Character.MinimumDamageFE_NoBow; //7
; 154  : 				lpObj->m_AttackDamageMaxLeft  = (Dexterity + Strength) / gServerInfo.m_Character.MaximumDamageFE_NoBow; //4
; 155  : 			}
; 156  : 			else

  00320	e9 33 01 00 00	 jmp	 $LN297@gObjCalCha
$LN134@gObjCalCha:

; 157  : 			{
; 158  : 			    //Com arco e flechas
; 159  : 				lpObj->m_AttackDamageMinRight = (Dexterity / gServerInfo.m_Character.MinimumDamageFE_AgiBow) + (Strength / gServerInfo.m_Character.MinimumDamageFE_StrBow); //7 - 14

  00325	0f bf 0d 62 01
	00 00		 movsx	 ecx, WORD PTR ?gServerInfo@@3VCServerInfo@@A+354
  0032c	8b c3		 mov	 eax, ebx
  0032e	99		 cdq
  0032f	f7 f9		 idiv	 ecx
  00331	8b c8		 mov	 ecx, eax
  00333	0f bf 05 66 01
	00 00		 movsx	 eax, WORD PTR ?gServerInfo@@3VCServerInfo@@A+358
  0033a	89 45 dc	 mov	 DWORD PTR tv3576[ebp], eax
  0033d	8b c7		 mov	 eax, edi
  0033f	99		 cdq
  00340	f7 7d dc	 idiv	 DWORD PTR tv3576[ebp]

; 160  : 				lpObj->m_AttackDamageMaxRight = (Dexterity / gServerInfo.m_Character.MaximumDamageFE_AgiBow) + (Strength / gServerInfo.m_Character.MaximumDamageFE_StrBow); //4 - 8

  00343	0f bf 3d 68 01
	00 00		 movsx	 edi, WORD PTR ?gServerInfo@@3VCServerInfo@@A+360
  0034a	03 c1		 add	 eax, ecx
  0034c	0f bf 0d 64 01
	00 00		 movsx	 ecx, WORD PTR ?gServerInfo@@3VCServerInfo@@A+356
  00353	89 45 dc	 mov	 DWORD PTR tv3100[ebp], eax
  00356	89 86 00 03 00
	00		 mov	 DWORD PTR [esi+768], eax
  0035c	8b c3		 mov	 eax, ebx
  0035e	99		 cdq
  0035f	f7 f9		 idiv	 ecx
  00361	8b c8		 mov	 ecx, eax
  00363	8b 45 f4	 mov	 eax, DWORD PTR _Dexterity$[ebp]
  00366	99		 cdq
  00367	f7 ff		 idiv	 edi

; 161  : 
; 162  : 				lpObj->m_AttackDamageMinLeft  = (Dexterity / gServerInfo.m_Character.MinimumDamageFE_AgiBow) + (Strength / gServerInfo.m_Character.MinimumDamageFE_StrBow); //7 - 14

  00369	8b 55 dc	 mov	 edx, DWORD PTR tv3100[ebp]
  0036c	89 96 f8 02 00
	00		 mov	 DWORD PTR [esi+760], edx
  00372	03 c1		 add	 eax, ecx

; 163  : 				lpObj->m_AttackDamageMaxLeft  = (Dexterity / gServerInfo.m_Character.MaximumDamageFE_AgiBow) + (Strength / gServerInfo.m_Character.MaximumDamageFE_StrBow); //4 - 8
; 164  : 			}
; 165  : 		}
; 166  : 		else

  00374	e9 eb 00 00 00	 jmp	 $LN298@gObjCalCha
$LN137@gObjCalCha:

; 167  : 		{
; 168  : 		    //Sem arco
; 169  : 			lpObj->m_AttackDamageMinRight = (Dexterity+Strength)/gServerInfo.m_Character.MinimumDamageFE_NoBow; //7

  00379	0f bf 0d 5e 01
	00 00		 movsx	 ecx, WORD PTR ?gServerInfo@@3VCServerInfo@@A+350
  00380	03 fb		 add	 edi, ebx
  00382	8b c7		 mov	 eax, edi
  00384	99		 cdq
  00385	f7 f9		 idiv	 ecx
  00387	8b c8		 mov	 ecx, eax

; 170  : 			lpObj->m_AttackDamageMaxRight = (Dexterity+Strength)/gServerInfo.m_Character.MaximumDamageFE_NoBow; //4

  00389	0f bf 05 60 01
	00 00		 movsx	 eax, WORD PTR ?gServerInfo@@3VCServerInfo@@A+352
  00390	89 45 dc	 mov	 DWORD PTR tv3573[ebp], eax
  00393	8b c7		 mov	 eax, edi
  00395	99		 cdq
  00396	f7 7d dc	 idiv	 DWORD PTR tv3573[ebp]

; 171  : 
; 172  : 			lpObj->m_AttackDamageMinLeft  = (Dexterity+Strength)/gServerInfo.m_Character.MinimumDamageFE_NoBow; //7
; 173  : 			lpObj->m_AttackDamageMaxLeft  = (Dexterity+Strength)/gServerInfo.m_Character.MaximumDamageFE_NoBow; //4
; 174  : 		}

  00399	e9 ba 00 00 00	 jmp	 $LN297@gObjCalCha
$LN138@gObjCalCha:

; 175  : 	}
; 176  : 	else if(lpObj->Class == 3) //MG

  0039e	83 f9 03	 cmp	 ecx, 3
  003a1	75 4b		 jne	 SHORT $LN128@gObjCalCha

; 177  : 	{
; 178  : 	    lpObj->m_AttackDamageMinRight = (Strength / gServerInfo.m_Character.MinimumDamageMG_Str) + (Energy / gServerInfo.m_Character.MinimumDamageMG_Ene); //6 - 12

  003a3	0f bf 0d 78 01
	00 00		 movsx	 ecx, WORD PTR ?gServerInfo@@3VCServerInfo@@A+376
  003aa	99		 cdq
  003ab	f7 f9		 idiv	 ecx
  003ad	0f bf 3d 74 01
	00 00		 movsx	 edi, WORD PTR ?gServerInfo@@3VCServerInfo@@A+372
  003b4	8b c8		 mov	 ecx, eax
  003b6	8b c3		 mov	 eax, ebx
  003b8	99		 cdq
  003b9	f7 ff		 idiv	 edi

; 179  : 		lpObj->m_AttackDamageMaxRight = (Strength / gServerInfo.m_Character.MaximumDamageMG_Str) + (Energy / gServerInfo.m_Character.MaximumDamageMG_Ene); //4 - 8

  003bb	0f bf 3d 76 01
	00 00		 movsx	 edi, WORD PTR ?gServerInfo@@3VCServerInfo@@A+374
  003c2	03 c1		 add	 eax, ecx
  003c4	0f bf 0d 7a 01
	00 00		 movsx	 ecx, WORD PTR ?gServerInfo@@3VCServerInfo@@A+378
  003cb	89 45 dc	 mov	 DWORD PTR tv3111[ebp], eax
  003ce	89 86 00 03 00
	00		 mov	 DWORD PTR [esi+768], eax
  003d4	8b 45 f0	 mov	 eax, DWORD PTR _Energy$[ebp]
  003d7	99		 cdq
  003d8	f7 f9		 idiv	 ecx
  003da	8b c8		 mov	 ecx, eax
  003dc	8b c3		 mov	 eax, ebx
  003de	99		 cdq
  003df	f7 ff		 idiv	 edi

; 180  : 
; 181  : 		lpObj->m_AttackDamageMinLeft  = (Strength / gServerInfo.m_Character.MinimumDamageMG_Str) + (Energy / gServerInfo.m_Character.MinimumDamageMG_Ene); //6 - 12

  003e1	8b 55 dc	 mov	 edx, DWORD PTR tv3111[ebp]
  003e4	89 96 f8 02 00
	00		 mov	 DWORD PTR [esi+760], edx
  003ea	03 c1		 add	 eax, ecx

; 182  : 		lpObj->m_AttackDamageMaxLeft  = (Strength / gServerInfo.m_Character.MaximumDamageMG_Str) + (Energy / gServerInfo.m_Character.MaximumDamageMG_Ene); //4 - 8

  003ec	eb 76		 jmp	 SHORT $LN298@gObjCalCha
$LN128@gObjCalCha:

; 183  : 	}
; 184  : 	else if(lpObj->Class == 4) //DL

  003ee	83 f9 04	 cmp	 ecx, 4
  003f1	75 4b		 jne	 SHORT $LN126@gObjCalCha

; 185  : 	{
; 186  : 	    lpObj->m_AttackDamageMinRight = (Strength / gServerInfo.m_Character.MinimumDamageDL_Str) + (Energy / gServerInfo.m_Character.MinimumDamageDL_Ene); //7 - 14

  003f3	0f bf 0d 8a 01
	00 00		 movsx	 ecx, WORD PTR ?gServerInfo@@3VCServerInfo@@A+394
  003fa	99		 cdq
  003fb	f7 f9		 idiv	 ecx
  003fd	0f bf 3d 86 01
	00 00		 movsx	 edi, WORD PTR ?gServerInfo@@3VCServerInfo@@A+390
  00404	8b c8		 mov	 ecx, eax
  00406	8b c3		 mov	 eax, ebx
  00408	99		 cdq
  00409	f7 ff		 idiv	 edi

; 187  : 		lpObj->m_AttackDamageMaxRight = (Strength / gServerInfo.m_Character.MaximumDamageDL_Str) + (Energy / gServerInfo.m_Character.MaximumDamageDL_Ene); //5 - 10

  0040b	0f bf 3d 88 01
	00 00		 movsx	 edi, WORD PTR ?gServerInfo@@3VCServerInfo@@A+392
  00412	03 c1		 add	 eax, ecx
  00414	0f bf 0d 8c 01
	00 00		 movsx	 ecx, WORD PTR ?gServerInfo@@3VCServerInfo@@A+396
  0041b	89 45 dc	 mov	 DWORD PTR tv3122[ebp], eax
  0041e	89 86 00 03 00
	00		 mov	 DWORD PTR [esi+768], eax
  00424	8b 45 f0	 mov	 eax, DWORD PTR _Energy$[ebp]
  00427	99		 cdq
  00428	f7 f9		 idiv	 ecx
  0042a	8b c8		 mov	 ecx, eax
  0042c	8b c3		 mov	 eax, ebx
  0042e	99		 cdq
  0042f	f7 ff		 idiv	 edi

; 188  : 
; 189  : 		lpObj->m_AttackDamageMinLeft  = (Strength / gServerInfo.m_Character.MinimumDamageDL_Str) + (Energy / gServerInfo.m_Character.MinimumDamageDL_Ene); //7 - 14

  00431	8b 55 dc	 mov	 edx, DWORD PTR tv3122[ebp]
  00434	89 96 f8 02 00
	00		 mov	 DWORD PTR [esi+760], edx
  0043a	03 c1		 add	 eax, ecx

; 190  : 		lpObj->m_AttackDamageMaxLeft  = (Strength / gServerInfo.m_Character.MaximumDamageDL_Str) + (Energy / gServerInfo.m_Character.MaximumDamageDL_Ene); //5 - 10
; 191  : 	}
; 192  : 	else //DW

  0043c	eb 26		 jmp	 SHORT $LN298@gObjCalCha
$LN126@gObjCalCha:

; 193  : 	{
; 194  : 	    lpObj->m_AttackDamageMinRight = (Strength / gServerInfo.m_Character.MinimumDamageDW); //8

  0043e	0f bf 0d 46 01
	00 00		 movsx	 ecx, WORD PTR ?gServerInfo@@3VCServerInfo@@A+326

; 195  : 		lpObj->m_AttackDamageMaxRight = (Strength / gServerInfo.m_Character.MaximumDamageDW); //4

  00445	0f bf 3d 48 01
	00 00		 movsx	 edi, WORD PTR ?gServerInfo@@3VCServerInfo@@A+328
$LN296@gObjCalCha:

; 193  : 	{
; 194  : 	    lpObj->m_AttackDamageMinRight = (Strength / gServerInfo.m_Character.MinimumDamageDW); //8

  0044c	8b c3		 mov	 eax, ebx
  0044e	99		 cdq
  0044f	f7 f9		 idiv	 ecx
  00451	8b c8		 mov	 ecx, eax

; 195  : 		lpObj->m_AttackDamageMaxRight = (Strength / gServerInfo.m_Character.MaximumDamageDW); //4

  00453	8b c3		 mov	 eax, ebx
  00455	99		 cdq
  00456	f7 ff		 idiv	 edi
$LN297@gObjCalCha:

; 196  : 
; 197  : 		lpObj->m_AttackDamageMinLeft  = (Strength / gServerInfo.m_Character.MinimumDamageDW); //8

  00458	89 8e f8 02 00
	00		 mov	 DWORD PTR [esi+760], ecx
  0045e	89 8e 00 03 00
	00		 mov	 DWORD PTR [esi+768], ecx
$LN298@gObjCalCha:

; 198  : 		lpObj->m_AttackDamageMaxLeft  = (Strength / gServerInfo.m_Character.MaximumDamageDW); //4
; 199  : 	}
; 200  : 	// ---
; 201  : 	Wings->PlusSpecial(&lpObj->m_AttackDamageMinRight,80);

  00464	8b 4d f8	 mov	 ecx, DWORD PTR tv2888[ebp]
  00467	8d be fc 02 00
	00		 lea	 edi, DWORD PTR [esi+764]
  0046d	89 07		 mov	 DWORD PTR [edi], eax
  0046f	89 86 f4 02 00
	00		 mov	 DWORD PTR [esi+756], eax
  00475	6a 50		 push	 80			; 00000050H
  00477	8d 86 00 03 00
	00		 lea	 eax, DWORD PTR [esi+768]
  0047d	81 c1 98 04 00
	00		 add	 ecx, 1176		; 00000498H
  00483	50		 push	 eax
  00484	89 4d dc	 mov	 DWORD PTR _Wings$[ebp], ecx
  00487	e8 00 00 00 00	 call	 ?PlusSpecial@CItem@@QAEXPAHH@Z ; CItem::PlusSpecial

; 202  : 	Wings->PlusSpecial(&lpObj->m_AttackDamageMaxRight,80);

  0048c	6a 50		 push	 80			; 00000050H
  0048e	57		 push	 edi
  0048f	8b 7d dc	 mov	 edi, DWORD PTR _Wings$[ebp]
  00492	8b cf		 mov	 ecx, edi
  00494	e8 00 00 00 00	 call	 ?PlusSpecial@CItem@@QAEXPAHH@Z ; CItem::PlusSpecial

; 203  : 	Wings->PlusSpecial(&lpObj->m_AttackDamageMinLeft,80);

  00499	6a 50		 push	 80			; 00000050H
  0049b	8d 86 f8 02 00
	00		 lea	 eax, DWORD PTR [esi+760]
  004a1	50		 push	 eax
  004a2	8b cf		 mov	 ecx, edi
  004a4	e8 00 00 00 00	 call	 ?PlusSpecial@CItem@@QAEXPAHH@Z ; CItem::PlusSpecial

; 204  : 	Wings->PlusSpecial(&lpObj->m_AttackDamageMaxLeft,80);

  004a9	6a 50		 push	 80			; 00000050H
  004ab	8d 86 f4 02 00
	00		 lea	 eax, DWORD PTR [esi+756]
  004b1	50		 push	 eax
  004b2	8b cf		 mov	 ecx, edi
  004b4	e8 00 00 00 00	 call	 ?PlusSpecial@CItem@@QAEXPAHH@Z ; CItem::PlusSpecial

; 205  : 	// ---
; 206  : 	int AddLeadership = 0;
; 207  : 	// ---
; 208  : 	if(Wings->IsItem() != 0 && Wings->m_IsValidItem != 0)

  004b9	8b cf		 mov	 ecx, edi
  004bb	c7 45 d8 00 00
	00 00		 mov	 DWORD PTR _AddLeadership$[ebp], 0
  004c2	e8 00 00 00 00	 call	 ?IsItem@CItem@@QAEHXZ	; CItem::IsItem
  004c7	85 c0		 test	 eax, eax
  004c9	74 1b		 je	 SHORT $LN124@gObjCalCha
  004cb	8b d7		 mov	 edx, edi
  004cd	80 ba 94 00 00
	00 00		 cmp	 BYTE PTR [edx+148], 0
  004d4	74 10		 je	 SHORT $LN124@gObjCalCha

; 209  : 	{
; 210  : 	    AddLeadership += lpObj->pInventory[7].m_Leadership;

  004d6	8b 86 8c 0c 00
	00		 mov	 eax, DWORD PTR [esi+3212]
  004dc	0f b7 88 e6 04
	00 00		 movzx	 ecx, WORD PTR [eax+1254]
  004e3	01 4d d8	 add	 DWORD PTR _AddLeadership$[ebp], ecx
$LN124@gObjCalCha:

; 211  : 	}
; 212  : 	// ---
; 213  : 	lpObj->m_CriticalDamage = 0;
; 214  : 	lpObj->m_ExcelentDamage = 0;
; 215  : 	// ---
; 216  : 	if(lpObj->Class == 3) //MG

  004e6	0f b7 86 98 00
	00 00		 movzx	 eax, WORD PTR [esi+152]
  004ed	8d be 2c 03 00
	00		 lea	 edi, DWORD PTR [esi+812]
  004f3	c7 07 00 00 00
	00		 mov	 DWORD PTR [edi], 0
  004f9	c7 86 30 03 00
	00 00 00 00 00	 mov	 DWORD PTR [esi+816], 0
  00503	83 f8 03	 cmp	 eax, 3
  00506	75 16		 jne	 SHORT $LN123@gObjCalCha

; 217  : 	{
; 218  : 		lpObj->m_MagicDamageMin = Energy/gServerInfo.m_Character.MinimumMagicDamageMG; //9

  00508	0f bf 0d 7c 01
	00 00		 movsx	 ecx, WORD PTR ?gServerInfo@@3VCServerInfo@@A+380
  0050f	8b 45 f0	 mov	 eax, DWORD PTR _Energy$[ebp]
  00512	99		 cdq
  00513	f7 f9		 idiv	 ecx

; 219  : 		lpObj->m_MagicDamageMax = Energy/gServerInfo.m_Character.MaximumMagicDamageMG; //4

  00515	0f bf 0d 7e 01
	00 00		 movsx	 ecx, WORD PTR ?gServerInfo@@3VCServerInfo@@A+382
  0051c	eb 61		 jmp	 SHORT $LN299@gObjCalCha
$LN123@gObjCalCha:

; 220  : 	}
; 221  : 	else if(lpObj->Class == 0) //DW

  0051e	66 85 c0	 test	 ax, ax
  00521	75 16		 jne	 SHORT $LN121@gObjCalCha

; 222  : 	{
; 223  : 		lpObj->m_MagicDamageMin = Energy / gServerInfo.m_Character.MinimumMagicDamageDW; //9

  00523	0f bf 0d 42 01
	00 00		 movsx	 ecx, WORD PTR ?gServerInfo@@3VCServerInfo@@A+322
  0052a	8b 45 f0	 mov	 eax, DWORD PTR _Energy$[ebp]
  0052d	99		 cdq
  0052e	f7 f9		 idiv	 ecx

; 224  : 		lpObj->m_MagicDamageMax = Energy / gServerInfo.m_Character.MaximumMagicDamageDW; //4

  00530	0f bf 0d 44 01
	00 00		 movsx	 ecx, WORD PTR ?gServerInfo@@3VCServerInfo@@A+324
  00537	eb 46		 jmp	 SHORT $LN299@gObjCalCha
$LN121@gObjCalCha:

; 225  : 	}
; 226  : 	else if(lpObj->Class == 1) //DK

  00539	83 f8 01	 cmp	 eax, 1
  0053c	75 16		 jne	 SHORT $LN119@gObjCalCha

; 227  : 	{
; 228  : 		lpObj->m_MagicDamageMin = Energy / gServerInfo.m_Character.MinimumMagicDamageDK; //9

  0053e	0f bf 0d 54 01
	00 00		 movsx	 ecx, WORD PTR ?gServerInfo@@3VCServerInfo@@A+340
  00545	8b 45 f0	 mov	 eax, DWORD PTR _Energy$[ebp]
  00548	99		 cdq
  00549	f7 f9		 idiv	 ecx

; 229  : 		lpObj->m_MagicDamageMax = Energy / gServerInfo.m_Character.MaximumMagicDamageDK; //4

  0054b	0f bf 0d 56 01
	00 00		 movsx	 ecx, WORD PTR ?gServerInfo@@3VCServerInfo@@A+342
  00552	eb 2b		 jmp	 SHORT $LN299@gObjCalCha
$LN119@gObjCalCha:

; 230  : 	}
; 231  : 	else if(lpObj->Class == 2) //FE

  00554	83 f8 02	 cmp	 eax, 2

; 232  : 	{
; 233  : 		lpObj->m_MagicDamageMin = Energy / gServerInfo.m_Character.MinimumMagicDamageFE; //9

  00557	8b 45 f0	 mov	 eax, DWORD PTR _Energy$[ebp]
  0055a	99		 cdq
  0055b	75 12		 jne	 SHORT $LN117@gObjCalCha
  0055d	0f bf 0d 6a 01
	00 00		 movsx	 ecx, WORD PTR ?gServerInfo@@3VCServerInfo@@A+362
  00564	f7 f9		 idiv	 ecx

; 234  : 		lpObj->m_MagicDamageMax = Energy / gServerInfo.m_Character.MaximumMagicDamageFE; //4

  00566	0f bf 0d 6c 01
	00 00		 movsx	 ecx, WORD PTR ?gServerInfo@@3VCServerInfo@@A+364

; 235  : 	}
; 236  : 	else //DL

  0056d	eb 10		 jmp	 SHORT $LN299@gObjCalCha
$LN117@gObjCalCha:

; 237  : 	{
; 238  : 		lpObj->m_MagicDamageMin = Energy / gServerInfo.m_Character.MinimumMagicDamageDL; //9

  0056f	0f bf 0d 8e 01
	00 00		 movsx	 ecx, WORD PTR ?gServerInfo@@3VCServerInfo@@A+398
  00576	f7 f9		 idiv	 ecx

; 239  : 		lpObj->m_MagicDamageMax = Energy / gServerInfo.m_Character.MaximumMagicDamageDL; //4

  00578	0f bf 0d 90 01
	00 00		 movsx	 ecx, WORD PTR ?gServerInfo@@3VCServerInfo@@A+400
$LN299@gObjCalCha:
  0057f	89 86 e4 02 00
	00		 mov	 DWORD PTR [esi+740], eax
  00585	8b 45 f0	 mov	 eax, DWORD PTR _Energy$[ebp]
  00588	99		 cdq
  00589	f7 f9		 idiv	 ecx

; 240  : 	}
; 241  : 	// ---
; 242  : 	lpObj->pInventory[0].PlusSpecial(&lpObj->m_CriticalDamage,84);

  0058b	8b 8e 8c 0c 00
	00		 mov	 ecx, DWORD PTR [esi+3212]
  00591	6a 54		 push	 84			; 00000054H
  00593	57		 push	 edi
  00594	89 86 e8 02 00
	00		 mov	 DWORD PTR [esi+744], eax
  0059a	e8 00 00 00 00	 call	 ?PlusSpecial@CItem@@QAEXPAHH@Z ; CItem::PlusSpecial

; 243  : 	lpObj->pInventory[1].PlusSpecial(&lpObj->m_CriticalDamage,84);

  0059f	8b 8e 8c 0c 00
	00		 mov	 ecx, DWORD PTR [esi+3212]
  005a5	6a 54		 push	 84			; 00000054H
  005a7	57		 push	 edi
  005a8	81 c1 a8 00 00
	00		 add	 ecx, 168		; 000000a8H
  005ae	e8 00 00 00 00	 call	 ?PlusSpecial@CItem@@QAEXPAHH@Z ; CItem::PlusSpecial

; 244  : 	lpObj->pInventory[2].PlusSpecial(&lpObj->m_CriticalDamage,84);

  005b3	8b 8e 8c 0c 00
	00		 mov	 ecx, DWORD PTR [esi+3212]
  005b9	6a 54		 push	 84			; 00000054H
  005bb	57		 push	 edi
  005bc	81 c1 50 01 00
	00		 add	 ecx, 336		; 00000150H
  005c2	e8 00 00 00 00	 call	 ?PlusSpecial@CItem@@QAEXPAHH@Z ; CItem::PlusSpecial

; 245  : 	lpObj->pInventory[3].PlusSpecial(&lpObj->m_CriticalDamage,84);

  005c7	8b 8e 8c 0c 00
	00		 mov	 ecx, DWORD PTR [esi+3212]
  005cd	6a 54		 push	 84			; 00000054H
  005cf	57		 push	 edi
  005d0	81 c1 f8 01 00
	00		 add	 ecx, 504		; 000001f8H
  005d6	e8 00 00 00 00	 call	 ?PlusSpecial@CItem@@QAEXPAHH@Z ; CItem::PlusSpecial

; 246  : 	lpObj->pInventory[4].PlusSpecial(&lpObj->m_CriticalDamage,84);

  005db	8b 8e 8c 0c 00
	00		 mov	 ecx, DWORD PTR [esi+3212]
  005e1	6a 54		 push	 84			; 00000054H
  005e3	57		 push	 edi
  005e4	81 c1 a0 02 00
	00		 add	 ecx, 672		; 000002a0H
  005ea	e8 00 00 00 00	 call	 ?PlusSpecial@CItem@@QAEXPAHH@Z ; CItem::PlusSpecial

; 247  : 	lpObj->pInventory[5].PlusSpecial(&lpObj->m_CriticalDamage,84);

  005ef	8b 8e 8c 0c 00
	00		 mov	 ecx, DWORD PTR [esi+3212]
  005f5	6a 54		 push	 84			; 00000054H
  005f7	57		 push	 edi
  005f8	81 c1 48 03 00
	00		 add	 ecx, 840		; 00000348H
  005fe	e8 00 00 00 00	 call	 ?PlusSpecial@CItem@@QAEXPAHH@Z ; CItem::PlusSpecial

; 248  : 	lpObj->pInventory[6].PlusSpecial(&lpObj->m_CriticalDamage,84);

  00603	8b 8e 8c 0c 00
	00		 mov	 ecx, DWORD PTR [esi+3212]
  00609	6a 54		 push	 84			; 00000054H
  0060b	57		 push	 edi
  0060c	81 c1 f0 03 00
	00		 add	 ecx, 1008		; 000003f0H
  00612	e8 00 00 00 00	 call	 ?PlusSpecial@CItem@@QAEXPAHH@Z ; CItem::PlusSpecial

; 249  : 	lpObj->pInventory[7].PlusSpecial(&lpObj->m_CriticalDamage,84);

  00617	8b 8e 8c 0c 00
	00		 mov	 ecx, DWORD PTR [esi+3212]
  0061d	6a 54		 push	 84			; 00000054H
  0061f	57		 push	 edi
  00620	81 c1 98 04 00
	00		 add	 ecx, 1176		; 00000498H
  00626	e8 00 00 00 00	 call	 ?PlusSpecial@CItem@@QAEXPAHH@Z ; CItem::PlusSpecial

; 250  : 	lpObj->pInventory[7].PlusSpecial(&lpObj->m_MagicDamageMin,81);

  0062b	8b 8e 8c 0c 00
	00		 mov	 ecx, DWORD PTR [esi+3212]
  00631	6a 51		 push	 81			; 00000051H
  00633	8d 86 e4 02 00
	00		 lea	 eax, DWORD PTR [esi+740]
  00639	50		 push	 eax
  0063a	81 c1 98 04 00
	00		 add	 ecx, 1176		; 00000498H
  00640	e8 00 00 00 00	 call	 ?PlusSpecial@CItem@@QAEXPAHH@Z ; CItem::PlusSpecial

; 251  : 	lpObj->pInventory[7].PlusSpecial(&lpObj->m_MagicDamageMax,81);

  00645	8b 8e 8c 0c 00
	00		 mov	 ecx, DWORD PTR [esi+3212]
  0064b	6a 51		 push	 81			; 00000051H
  0064d	8d 86 e8 02 00
	00		 lea	 eax, DWORD PTR [esi+744]
  00653	50		 push	 eax
  00654	81 c1 98 04 00
	00		 add	 ecx, 1176		; 00000498H
  0065a	e8 00 00 00 00	 call	 ?PlusSpecial@CItem@@QAEXPAHH@Z ; CItem::PlusSpecial

; 252  : 	// ---
; 253  : 	if(Right->IsItem() != 0)

  0065f	8b 4d f8	 mov	 ecx, DWORD PTR tv2888[ebp]
  00662	e8 00 00 00 00	 call	 ?IsItem@CItem@@QAEHXZ	; CItem::IsItem
  00667	85 c0		 test	 eax, eax
  00669	0f 84 d8 00 00
	00		 je	 $LN266@gObjCalCha

; 254  : 	{
; 255  : 	    if(Right->m_IsValidItem != 0)

  0066f	8b 7d f8	 mov	 edi, DWORD PTR tv2888[ebp]
  00672	80 bf 94 00 00
	00 00		 cmp	 BYTE PTR [edi+148], 0
  00679	74 46		 je	 SHORT $LN265@gObjCalCha

; 256  : 		{
; 257  : 			if(Right->m_Type >= ITEMGET(5,0) && Right->m_Type <= ITEMGET(6,0))

  0067b	0f b7 47 06	 movzx	 eax, WORD PTR [edi+6]
  0067f	ba 00 0a 00 00	 mov	 edx, 2560		; 00000a00H
  00684	66 3b c2	 cmp	 ax, dx
  00687	7c 24		 jl	 SHORT $LN264@gObjCalCha
  00689	b9 00 0c 00 00	 mov	 ecx, 3072		; 00000c00H
  0068e	66 3b c1	 cmp	 ax, cx
  00691	7f 1a		 jg	 SHORT $LN264@gObjCalCha

; 258  : 			{
; 259  : 			    lpObj->m_AttackDamageMinRight += Right->m_DamageMin/2;

  00693	0f b7 57 10	 movzx	 edx, WORD PTR [edi+16]
  00697	d1 ea		 shr	 edx, 1
  00699	01 96 00 03 00
	00		 add	 DWORD PTR [esi+768], edx

; 260  : 				lpObj->m_AttackDamageMaxRight += Right->m_DamageMax/2;

  0069f	0f b7 47 12	 movzx	 eax, WORD PTR [edi+18]
  006a3	d1 e8		 shr	 eax, 1
  006a5	01 86 fc 02 00
	00		 add	 DWORD PTR [esi+764], eax

; 261  : 			}
; 262  : 			else

  006ab	eb 14		 jmp	 SHORT $LN265@gObjCalCha
$LN264@gObjCalCha:

; 263  : 			{
; 264  : 			    lpObj->m_AttackDamageMinRight += Right->m_DamageMin;

  006ad	0f b7 4f 10	 movzx	 ecx, WORD PTR [edi+16]
  006b1	01 8e 00 03 00
	00		 add	 DWORD PTR [esi+768], ecx

; 265  : 				lpObj->m_AttackDamageMaxRight += Right->m_DamageMax;

  006b7	0f b7 57 12	 movzx	 edx, WORD PTR [edi+18]
  006bb	01 96 fc 02 00
	00		 add	 DWORD PTR [esi+764], edx
$LN265@gObjCalCha:

; 266  : 			}
; 267  : 		}
; 268  : 		// ---
; 269  : 		if(Right->m_SkillChange != 0)

  006c1	80 bf 90 00 00
	00 00		 cmp	 BYTE PTR [edi+144], 0
  006c8	74 07		 je	 SHORT $LN111@gObjCalCha

; 270  : 		{
; 271  : 		    lpObj->SkillLongSpearChange = 1;

  006ca	c6 86 bb 10 00
	00 01		 mov	 BYTE PTR [esi+4283], 1
$LN111@gObjCalCha:

; 272  : 		}
; 273  : 		// ---
; 274  : 		if(Right->m_Type == ITEMGET(0,21) || Right->m_Type == ITEMGET(0,23) || Right->m_Type == ITEMGET(0,25) || Right->m_Type == ITEMGET(0,28) || Right->m_Type == ITEMGET(0,31)) 

  006d1	0f b7 47 06	 movzx	 eax, WORD PTR [edi+6]
  006d5	66 83 f8 15	 cmp	 ax, 21			; 00000015H
  006d9	74 2c		 je	 SHORT $LN109@gObjCalCha
  006db	66 83 f8 17	 cmp	 ax, 23			; 00000017H
  006df	74 26		 je	 SHORT $LN109@gObjCalCha
  006e1	66 83 f8 19	 cmp	 ax, 25			; 00000019H
  006e5	74 20		 je	 SHORT $LN109@gObjCalCha
  006e7	66 83 f8 1c	 cmp	 ax, 28			; 0000001cH
  006eb	74 1a		 je	 SHORT $LN109@gObjCalCha
  006ed	66 83 f8 1f	 cmp	 ax, 31			; 0000001fH
  006f1	74 14		 je	 SHORT $LN109@gObjCalCha

; 278  : 		}
; 279  : 		else
; 280  : 		{
; 281  : 		    Right->PlusSpecial(&lpObj->m_MagicDamageMin,81);

  006f3	6a 51		 push	 81			; 00000051H
  006f5	8d 86 e4 02 00
	00		 lea	 eax, DWORD PTR [esi+740]
  006fb	50		 push	 eax
  006fc	8b cf		 mov	 ecx, edi
  006fe	e8 00 00 00 00	 call	 ?PlusSpecial@CItem@@QAEXPAHH@Z ; CItem::PlusSpecial

; 282  : 			Right->PlusSpecial(&lpObj->m_MagicDamageMax,81);

  00703	6a 51		 push	 81			; 00000051H
  00705	eb 12		 jmp	 SHORT $LN300@gObjCalCha
$LN109@gObjCalCha:

; 275  : 		{
; 276  : 		    Right->PlusSpecial(&lpObj->m_MagicDamageMin,80);

  00707	6a 50		 push	 80			; 00000050H
  00709	8d 86 e4 02 00
	00		 lea	 eax, DWORD PTR [esi+740]
  0070f	50		 push	 eax
  00710	8b cf		 mov	 ecx, edi
  00712	e8 00 00 00 00	 call	 ?PlusSpecial@CItem@@QAEXPAHH@Z ; CItem::PlusSpecial

; 277  : 			Right->PlusSpecial(&lpObj->m_MagicDamageMax,80);

  00717	6a 50		 push	 80			; 00000050H
$LN300@gObjCalCha:
  00719	8d 86 e8 02 00
	00		 lea	 eax, DWORD PTR [esi+744]
  0071f	50		 push	 eax
  00720	8b cf		 mov	 ecx, edi
  00722	e8 00 00 00 00	 call	 ?PlusSpecial@CItem@@QAEXPAHH@Z ; CItem::PlusSpecial

; 283  : 		}
; 284  : 		// ---
; 285  : 		Right->PlusSpecial(&lpObj->m_AttackDamageMinRight,80);

  00727	6a 50		 push	 80			; 00000050H
  00729	8d 86 00 03 00
	00		 lea	 eax, DWORD PTR [esi+768]
  0072f	50		 push	 eax
  00730	8b cf		 mov	 ecx, edi
  00732	e8 00 00 00 00	 call	 ?PlusSpecial@CItem@@QAEXPAHH@Z ; CItem::PlusSpecial

; 286  : 		Right->PlusSpecial(&lpObj->m_AttackDamageMaxRight,80);

  00737	6a 50		 push	 80			; 00000050H
  00739	8d 86 fc 02 00
	00		 lea	 eax, DWORD PTR [esi+764]
  0073f	50		 push	 eax
  00740	8b cf		 mov	 ecx, edi
  00742	e8 00 00 00 00	 call	 ?PlusSpecial@CItem@@QAEXPAHH@Z ; CItem::PlusSpecial
$LN266@gObjCalCha:

; 287  : 	}
; 288  : 	// ---
; 289  : 	if(Left->IsItem() != 0)

  00747	8b 7d f8	 mov	 edi, DWORD PTR tv2888[ebp]
  0074a	81 c7 a8 00 00
	00		 add	 edi, 168		; 000000a8H
  00750	8b cf		 mov	 ecx, edi
  00752	e8 00 00 00 00	 call	 ?IsItem@CItem@@QAEHXZ	; CItem::IsItem
  00757	85 c0		 test	 eax, eax
  00759	74 3d		 je	 SHORT $LN107@gObjCalCha

; 290  : 	{
; 291  : 	    if(Left->m_IsValidItem != 0)

  0075b	80 bf 94 00 00
	00 00		 cmp	 BYTE PTR [edi+148], 0
  00762	74 14		 je	 SHORT $LN106@gObjCalCha

; 292  : 		{
; 293  : 		    lpObj->m_AttackDamageMinLeft += Left->m_DamageMin;

  00764	0f b7 47 10	 movzx	 eax, WORD PTR [edi+16]
  00768	01 86 f8 02 00
	00		 add	 DWORD PTR [esi+760], eax

; 294  : 			lpObj->m_AttackDamageMaxLeft += Left->m_DamageMax;

  0076e	0f b7 4f 12	 movzx	 ecx, WORD PTR [edi+18]
  00772	01 8e f4 02 00
	00		 add	 DWORD PTR [esi+756], ecx
$LN106@gObjCalCha:

; 295  : 		}
; 296  : 		// ---
; 297  : 		Left->PlusSpecial(&lpObj->m_AttackDamageMinLeft,80);

  00778	6a 50		 push	 80			; 00000050H
  0077a	8d 86 f8 02 00
	00		 lea	 eax, DWORD PTR [esi+760]
  00780	50		 push	 eax
  00781	8b cf		 mov	 ecx, edi
  00783	e8 00 00 00 00	 call	 ?PlusSpecial@CItem@@QAEXPAHH@Z ; CItem::PlusSpecial

; 298  : 		Left->PlusSpecial(&lpObj->m_AttackDamageMaxLeft,80);

  00788	6a 50		 push	 80			; 00000050H
  0078a	8d 86 f4 02 00
	00		 lea	 eax, DWORD PTR [esi+756]
  00790	50		 push	 eax
  00791	8b cf		 mov	 ecx, edi
  00793	e8 00 00 00 00	 call	 ?PlusSpecial@CItem@@QAEXPAHH@Z ; CItem::PlusSpecial
$LN107@gObjCalCha:

; 299  : 	}
; 300  : 	// ---
; 301  : 	lpObj->m_AttackRating = (Strength+Dexterity)/2;

  00798	8b 45 f4	 mov	 eax, DWORD PTR _Dexterity$[ebp]

; 302  : 	// ---
; 303  : 	lpObj->m_AttackRating += lpObj->pInventory[5].ItemDefense();

  0079b	8b 8e 8c 0c 00
	00		 mov	 ecx, DWORD PTR [esi+3212]
  007a1	8d 04 18	 lea	 eax, DWORD PTR [eax+ebx]
  007a4	99		 cdq
  007a5	2b c2		 sub	 eax, edx
  007a7	d1 f8		 sar	 eax, 1
  007a9	81 c1 48 03 00
	00		 add	 ecx, 840		; 00000348H
  007af	89 86 04 03 00
	00		 mov	 DWORD PTR [esi+772], eax
  007b5	e8 00 00 00 00	 call	 ?ItemDefense@CItem@@QAEHXZ ; CItem::ItemDefense
  007ba	01 86 04 03 00
	00		 add	 DWORD PTR [esi+772], eax

; 304  : 	// ---
; 305  : 	if(lpObj->Class == 1) //DK

  007c0	0f b7 86 98 00
	00 00		 movzx	 eax, WORD PTR [esi+152]

; 306  : 	{
; 307  : 	    lpObj->m_AttackSpeed = Dexterity/gServerInfo.m_Character.AttackSpeedDK; // 15

  007c7	8b 4d f4	 mov	 ecx, DWORD PTR _Dexterity$[ebp]
  007ca	83 f8 01	 cmp	 eax, 1
  007cd	75 15		 jne	 SHORT $LN105@gObjCalCha
  007cf	0f bf 1d 58 01
	00 00		 movsx	 ebx, WORD PTR ?gServerInfo@@3VCServerInfo@@A+344
  007d6	8b c1		 mov	 eax, ecx
  007d8	99		 cdq
  007d9	f7 fb		 idiv	 ebx

; 308  : 		lpObj->m_MagicSpeed  = Dexterity/gServerInfo.m_Character.MagicSpeedDK; // 20

  007db	0f bf 1d 5a 01
	00 00		 movsx	 ebx, WORD PTR ?gServerInfo@@3VCServerInfo@@A+346
  007e2	eb 5e		 jmp	 SHORT $LN301@gObjCalCha
$LN105@gObjCalCha:

; 309  : 	}
; 310  : 	else if(lpObj->Class == 2) // Elf

  007e4	83 f8 02	 cmp	 eax, 2
  007e7	75 15		 jne	 SHORT $LN103@gObjCalCha

; 311  : 	{
; 312  : 		lpObj->m_AttackSpeed = Dexterity/gServerInfo.m_Character.AttackSpeedFE; // 50

  007e9	0f bf 1d 6e 01
	00 00		 movsx	 ebx, WORD PTR ?gServerInfo@@3VCServerInfo@@A+366
  007f0	8b c1		 mov	 eax, ecx
  007f2	99		 cdq
  007f3	f7 fb		 idiv	 ebx

; 313  : 		lpObj->m_MagicSpeed  = Dexterity/gServerInfo.m_Character.MagicSpeedFE; // 50

  007f5	0f bf 1d 70 01
	00 00		 movsx	 ebx, WORD PTR ?gServerInfo@@3VCServerInfo@@A+368
  007fc	eb 44		 jmp	 SHORT $LN301@gObjCalCha
$LN103@gObjCalCha:

; 314  : 	}
; 315  : 	else if(lpObj->Class == 3) // MG

  007fe	83 f8 03	 cmp	 eax, 3
  00801	75 15		 jne	 SHORT $LN101@gObjCalCha

; 316  : 	{
; 317  : 		lpObj->m_AttackSpeed = Dexterity/gServerInfo.m_Character.AttackSpeedMG; // 15

  00803	0f bf 1d 80 01
	00 00		 movsx	 ebx, WORD PTR ?gServerInfo@@3VCServerInfo@@A+384
  0080a	8b c1		 mov	 eax, ecx
  0080c	99		 cdq
  0080d	f7 fb		 idiv	 ebx

; 318  : 		lpObj->m_MagicSpeed  = Dexterity/gServerInfo.m_Character.MagicSpeedMG; // 20

  0080f	0f bf 1d 82 01
	00 00		 movsx	 ebx, WORD PTR ?gServerInfo@@3VCServerInfo@@A+386
  00816	eb 2a		 jmp	 SHORT $LN301@gObjCalCha
$LN101@gObjCalCha:

; 319  : 	}
; 320  : 	else if(lpObj->Class == 4) //DL

  00818	83 f8 04	 cmp	 eax, 4

; 321  : 	{
; 322  : 	    lpObj->m_AttackSpeed = Dexterity/gServerInfo.m_Character.AttackSpeedDL; // 10

  0081b	8b c1		 mov	 eax, ecx
  0081d	99		 cdq
  0081e	75 12		 jne	 SHORT $LN99@gObjCalCha
  00820	0f bf 1d 92 01
	00 00		 movsx	 ebx, WORD PTR ?gServerInfo@@3VCServerInfo@@A+402
  00827	f7 fb		 idiv	 ebx

; 323  : 		lpObj->m_MagicSpeed  = Dexterity/gServerInfo.m_Character.MagicSpeedDL; // 10

  00829	0f bf 1d 94 01
	00 00		 movsx	 ebx, WORD PTR ?gServerInfo@@3VCServerInfo@@A+404

; 324  : 	}
; 325  : 	else //DW

  00830	eb 10		 jmp	 SHORT $LN301@gObjCalCha
$LN99@gObjCalCha:

; 326  : 	{
; 327  : 	    lpObj->m_AttackSpeed = Dexterity/gServerInfo.m_Character.AttackSpeedDW; // 20

  00832	0f bf 1d 4a 01
	00 00		 movsx	 ebx, WORD PTR ?gServerInfo@@3VCServerInfo@@A+330
  00839	f7 fb		 idiv	 ebx

; 328  : 		lpObj->m_MagicSpeed  = Dexterity/gServerInfo.m_Character.MagicSpeedDW; // 10

  0083b	0f bf 1d 4c 01
	00 00		 movsx	 ebx, WORD PTR ?gServerInfo@@3VCServerInfo@@A+332
$LN301@gObjCalCha:
  00842	89 86 08 03 00
	00		 mov	 DWORD PTR [esi+776], eax
  00848	8b c1		 mov	 eax, ecx
  0084a	99		 cdq
  0084b	f7 fb		 idiv	 ebx

; 329  : 	}
; 330  : 	// ---
; 331  :     bool RightItem = 0;
; 332  : 	// ---
; 333  : 	if(Right->m_Type >= ITEMGET(0,0) && Right->m_Type < ITEMGET(6,0) && Right->m_Type != ITEMGET(4,7) && Right->m_Type != ITEMGET(4,15))

  0084d	8b 5d f8	 mov	 ebx, DWORD PTR tv2888[ebp]
  00850	c6 45 ff 00	 mov	 BYTE PTR _RightItem$[ebp], 0
  00854	89 86 0c 03 00
	00		 mov	 DWORD PTR [esi+780], eax
  0085a	0f b7 43 06	 movzx	 eax, WORD PTR [ebx+6]
  0085e	66 85 c0	 test	 ax, ax
  00861	78 2b		 js	 SHORT $LN275@gObjCalCha
  00863	b9 00 0c 00 00	 mov	 ecx, 3072		; 00000c00H
  00868	66 3b c1	 cmp	 ax, cx
  0086b	7d 21		 jge	 SHORT $LN275@gObjCalCha
  0086d	ba 07 08 00 00	 mov	 edx, 2055		; 00000807H
  00872	66 3b c2	 cmp	 ax, dx
  00875	74 17		 je	 SHORT $LN275@gObjCalCha
  00877	b9 0f 08 00 00	 mov	 ecx, 2063		; 0000080fH
  0087c	66 3b c1	 cmp	 ax, cx
  0087f	74 0d		 je	 SHORT $LN275@gObjCalCha

; 334  : 	{
; 335  : 	    if(Right->m_IsValidItem != 0)

  00881	80 bb 94 00 00
	00 00		 cmp	 BYTE PTR [ebx+148], 0
  00888	74 04		 je	 SHORT $LN275@gObjCalCha

; 336  : 		{
; 337  :             RightItem = 1;

  0088a	c6 45 ff 01	 mov	 BYTE PTR _RightItem$[ebp], 1
$LN275@gObjCalCha:

; 338  : 		}
; 339  : 	}
; 340  : 	// ---
; 341  : 	bool LeftItem = 0;
; 342  : 	// ---
; 343  : 	if(Left->m_Type >= ITEMGET(0,0) && Left->m_Type < ITEMGET(6,0) && Left->m_Type != ITEMGET(4,7) && Left->m_Type != ITEMGET(4,15))

  0088e	0f b7 47 06	 movzx	 eax, WORD PTR [edi+6]
  00892	32 c9		 xor	 cl, cl
  00894	66 85 c0	 test	 ax, ax
  00897	78 28		 js	 SHORT $LN276@gObjCalCha
  00899	ba 00 0c 00 00	 mov	 edx, 3072		; 00000c00H
  0089e	66 3b c2	 cmp	 ax, dx
  008a1	7d 1e		 jge	 SHORT $LN276@gObjCalCha
  008a3	ba 07 08 00 00	 mov	 edx, 2055		; 00000807H
  008a8	66 3b c2	 cmp	 ax, dx
  008ab	74 14		 je	 SHORT $LN276@gObjCalCha
  008ad	ba 0f 08 00 00	 mov	 edx, 2063		; 0000080fH
  008b2	66 3b c2	 cmp	 ax, dx
  008b5	74 0a		 je	 SHORT $LN276@gObjCalCha

; 344  : 	{
; 345  : 	    if(Left->m_IsValidItem != 0)

  008b7	38 8f 94 00 00
	00		 cmp	 BYTE PTR [edi+148], cl
  008bd	74 02		 je	 SHORT $LN276@gObjCalCha

; 346  : 		{
; 347  : 		    LeftItem = 1;

  008bf	b1 01		 mov	 cl, 1
$LN276@gObjCalCha:

; 348  : 		}
; 349  : 	}
; 350  : 	// ---
; 351  : 	if(RightItem != 0 && LeftItem != 0)

  008c1	80 7d ff 00	 cmp	 BYTE PTR _RightItem$[ebp], 0
  008c5	74 40		 je	 SHORT $LN91@gObjCalCha
  008c7	84 c9		 test	 cl, cl
  008c9	74 26		 je	 SHORT $LN93@gObjCalCha

; 352  : 	{
; 353  : 	    lpObj->m_AttackSpeed += (Right->m_AttackSpeed+Left->m_AttackSpeed)/2;

  008cb	0f b6 47 0d	 movzx	 eax, BYTE PTR [edi+13]
  008cf	0f b6 4b 0d	 movzx	 ecx, BYTE PTR [ebx+13]
  008d3	03 c1		 add	 eax, ecx
  008d5	99		 cdq
  008d6	2b c2		 sub	 eax, edx
  008d8	d1 f8		 sar	 eax, 1
  008da	01 86 08 03 00
	00		 add	 DWORD PTR [esi+776], eax

; 354  : 		lpObj->m_MagicSpeed  += (Right->m_AttackSpeed+Left->m_AttackSpeed)/2;

  008e0	0f b6 53 0d	 movzx	 edx, BYTE PTR [ebx+13]
  008e4	0f b6 47 0d	 movzx	 eax, BYTE PTR [edi+13]
  008e8	03 c2		 add	 eax, edx
  008ea	99		 cdq
  008eb	2b c2		 sub	 eax, edx
  008ed	d1 f8		 sar	 eax, 1
  008ef	eb 28		 jmp	 SHORT $LN302@gObjCalCha
$LN93@gObjCalCha:

; 355  : 	}
; 356  : 	// ---
; 357  : 	else if(RightItem != 0)
; 358  : 	{
; 359  : 	    lpObj->m_AttackSpeed += Right->m_AttackSpeed;

  008f1	0f b6 43 0d	 movzx	 eax, BYTE PTR [ebx+13]
  008f5	01 86 08 03 00
	00		 add	 DWORD PTR [esi+776], eax

; 360  : 		lpObj->m_MagicSpeed  += Right->m_AttackSpeed;

  008fb	0f b6 4b 0d	 movzx	 ecx, BYTE PTR [ebx+13]
  008ff	01 8e 0c 03 00
	00		 add	 DWORD PTR [esi+780], ecx
  00905	eb 18		 jmp	 SHORT $LN89@gObjCalCha
$LN91@gObjCalCha:

; 361  : 	}
; 362  : 	// ---
; 363  : 	else if(LeftItem != 0)

  00907	84 c9		 test	 cl, cl
  00909	74 14		 je	 SHORT $LN89@gObjCalCha

; 364  : 	{
; 365  : 	    lpObj->m_AttackSpeed += Left->m_AttackSpeed;

  0090b	0f b6 57 0d	 movzx	 edx, BYTE PTR [edi+13]
  0090f	01 96 08 03 00
	00		 add	 DWORD PTR [esi+776], edx

; 366  : 		lpObj->m_MagicSpeed  += Left->m_AttackSpeed;

  00915	0f b6 47 0d	 movzx	 eax, BYTE PTR [edi+13]
$LN302@gObjCalCha:
  00919	01 86 0c 03 00
	00		 add	 DWORD PTR [esi+780], eax
$LN89@gObjCalCha:

; 367  : 	}
; 368  : 	// ---
; 369  : 	if(Gloves->IsItem() != 0 && Gloves->m_IsValidItem != 0)

  0091f	8d 8b 48 03 00
	00		 lea	 ecx, DWORD PTR [ebx+840]
  00925	e8 00 00 00 00	 call	 ?IsItem@CItem@@QAEHXZ	; CItem::IsItem
  0092a	85 c0		 test	 eax, eax
  0092c	74 23		 je	 SHORT $LN88@gObjCalCha
  0092e	80 bb dc 03 00
	00 00		 cmp	 BYTE PTR [ebx+988], 0
  00935	74 1a		 je	 SHORT $LN88@gObjCalCha

; 370  : 	{
; 371  : 	    lpObj->m_AttackSpeed += Gloves->m_AttackSpeed;

  00937	0f b6 8b 55 03
	00 00		 movzx	 ecx, BYTE PTR [ebx+853]
  0093e	01 8e 08 03 00
	00		 add	 DWORD PTR [esi+776], ecx

; 372  : 		lpObj->m_MagicSpeed  += Gloves->m_AttackSpeed;

  00944	0f b6 93 55 03
	00 00		 movzx	 edx, BYTE PTR [ebx+853]
  0094b	01 96 0c 03 00
	00		 add	 DWORD PTR [esi+780], edx
$LN88@gObjCalCha:

; 373  : 	}
; 374  : 	// ---
; 375  : 	if(Helper->IsItem() != 0 && Helper->m_IsValidItem != 0)

  00951	8d 8b 40 05 00
	00		 lea	 ecx, DWORD PTR [ebx+1344]
  00957	e8 00 00 00 00	 call	 ?IsItem@CItem@@QAEHXZ	; CItem::IsItem
  0095c	85 c0		 test	 eax, eax
  0095e	74 23		 je	 SHORT $LN87@gObjCalCha
  00960	80 bb d4 05 00
	00 00		 cmp	 BYTE PTR [ebx+1492], 0
  00967	74 1a		 je	 SHORT $LN87@gObjCalCha

; 376  : 	{
; 377  : 	    lpObj->m_AttackSpeed += Helper->m_AttackSpeed;

  00969	0f b6 83 4d 05
	00 00		 movzx	 eax, BYTE PTR [ebx+1357]
  00970	01 86 08 03 00
	00		 add	 DWORD PTR [esi+776], eax

; 378  : 	    lpObj->m_MagicSpeed  += Helper->m_AttackSpeed;

  00976	0f b6 8b 4d 05
	00 00		 movzx	 ecx, BYTE PTR [ebx+1357]
  0097d	01 8e 0c 03 00
	00		 add	 DWORD PTR [esi+780], ecx
$LN87@gObjCalCha:

; 379  : 	}
; 380  : 	// ---
; 381  : 	if(Amulet->IsItem() != 0 && Amulet->m_IsValidItem != 0)

  00983	8d 8b e8 05 00
	00		 lea	 ecx, DWORD PTR [ebx+1512]
  00989	e8 00 00 00 00	 call	 ?IsItem@CItem@@QAEHXZ	; CItem::IsItem
  0098e	85 c0		 test	 eax, eax
  00990	74 23		 je	 SHORT $LN86@gObjCalCha
  00992	80 bb 7c 06 00
	00 00		 cmp	 BYTE PTR [ebx+1660], 0
  00999	74 1a		 je	 SHORT $LN86@gObjCalCha

; 382  : 	{
; 383  : 	    lpObj->m_AttackSpeed += Amulet->m_AttackSpeed;

  0099b	0f b6 93 f5 05
	00 00		 movzx	 edx, BYTE PTR [ebx+1525]
  009a2	01 96 08 03 00
	00		 add	 DWORD PTR [esi+776], edx

; 384  : 		lpObj->m_MagicSpeed  += Amulet->m_AttackSpeed;

  009a8	0f b6 83 f5 05
	00 00		 movzx	 eax, BYTE PTR [ebx+1525]
  009af	01 86 0c 03 00
	00		 add	 DWORD PTR [esi+780], eax
$LN86@gObjCalCha:

; 385  : 	}
; 386  : 	// ---
; 387  : 	bool RingOption[4] = {0,0,0,0};

  009b5	c6 45 dc 00	 mov	 BYTE PTR _RingOption$[ebp], 0
  009b9	bf 90 06 00 00	 mov	 edi, 1680		; 00000690H
  009be	8b ff		 npad	 2
$LL284@gObjCalCha:

; 390  : 	{
; 391  : 	    CItem* Ring = &lpObj->pInventory[10+n];

  009c0	8b 9e 8c 0c 00
	00		 mov	 ebx, DWORD PTR [esi+3212]
  009c6	03 df		 add	 ebx, edi

; 392  : 		// ---
; 393  : 		if(Ring->IsItem() == 0 || Ring->m_Durability == 0.0f)

  009c8	8b cb		 mov	 ecx, ebx
  009ca	e8 00 00 00 00	 call	 ?IsItem@CItem@@QAEHXZ	; CItem::IsItem
  009cf	85 c0		 test	 eax, eax
  009d1	74 24		 je	 SHORT $LN84@gObjCalCha
  009d3	d9 43 24	 fld	 DWORD PTR [ebx+36]
  009d6	d9 ee		 fldz
  009d8	da e9		 fucompp
  009da	df e0		 fnstsw	 ax
  009dc	f6 c4 44	 test	 ah, 68			; 00000044H
  009df	7b 16		 jnp	 SHORT $LN84@gObjCalCha

; 394  : 		{
; 395  : 		    continue;
; 396  : 		}
; 397  : 		// ---
; 398  : 		if(Ring->m_Type == ITEMGET(13,20) && Ring->m_Level == 0)

  009e1	b9 14 1a 00 00	 mov	 ecx, 6676		; 00001a14H
  009e6	66 39 4b 06	 cmp	 WORD PTR [ebx+6], cx
  009ea	75 0b		 jne	 SHORT $LN84@gObjCalCha
  009ec	66 83 7b 08 00	 cmp	 WORD PTR [ebx+8], 0
  009f1	75 04		 jne	 SHORT $LN84@gObjCalCha

; 399  : 		{
; 400  : 		    RingOption[0] = 1;

  009f3	c6 45 dc 01	 mov	 BYTE PTR _RingOption$[ebp], 1
$LN84@gObjCalCha:

; 388  : 	// ---
; 389  : 	for(int n=0;n < 2;n++)

  009f7	81 c7 a8 00 00
	00		 add	 edi, 168		; 000000a8H
  009fd	81 ff e0 07 00
	00		 cmp	 edi, 2016		; 000007e0H
  00a03	7c bb		 jl	 SHORT $LL284@gObjCalCha

; 401  : 		}
; 402  : 	}
; 403  : 	// ---
; 404  :     if(RingOption[0] == 1)

  00a05	80 7d dc 01	 cmp	 BYTE PTR _RingOption$[ebp], 1
  00a09	bf 0a 00 00 00	 mov	 edi, 10			; 0000000aH
  00a0e	0f 85 e4 00 00
	00		 jne	 $LN77@gObjCalCha

; 405  : 	{
; 406  :         lpObj->m_AttackDamageMinRight += (lpObj->m_AttackDamageMinRight*10)/100;

  00a14	8b 8e 00 03 00
	00		 mov	 ecx, DWORD PTR [esi+768]
  00a1a	8d 14 89	 lea	 edx, DWORD PTR [ecx+ecx*4]
  00a1d	03 d2		 add	 edx, edx
  00a1f	b8 1f 85 eb 51	 mov	 eax, 1374389535		; 51eb851fH
  00a24	f7 ea		 imul	 edx
  00a26	c1 fa 05	 sar	 edx, 5
  00a29	8b c2		 mov	 eax, edx
  00a2b	c1 e8 1f	 shr	 eax, 31			; 0000001fH
  00a2e	03 c2		 add	 eax, edx
  00a30	03 c1		 add	 eax, ecx

; 407  : 		lpObj->m_AttackDamageMaxRight += (lpObj->m_AttackDamageMaxRight*10)/100;

  00a32	8b 8e fc 02 00
	00		 mov	 ecx, DWORD PTR [esi+764]
  00a38	89 86 00 03 00
	00		 mov	 DWORD PTR [esi+768], eax
  00a3e	8d 14 89	 lea	 edx, DWORD PTR [ecx+ecx*4]
  00a41	03 d2		 add	 edx, edx
  00a43	b8 1f 85 eb 51	 mov	 eax, 1374389535		; 51eb851fH
  00a48	f7 ea		 imul	 edx
  00a4a	c1 fa 05	 sar	 edx, 5
  00a4d	8b c2		 mov	 eax, edx
  00a4f	c1 e8 1f	 shr	 eax, 31			; 0000001fH
  00a52	03 c2		 add	 eax, edx
  00a54	03 c1		 add	 eax, ecx

; 408  : 		// ---
; 409  : 		lpObj->m_AttackDamageMinLeft  += (lpObj->m_AttackDamageMinLeft*10)/100;

  00a56	8b 8e f8 02 00
	00		 mov	 ecx, DWORD PTR [esi+760]
  00a5c	89 86 fc 02 00
	00		 mov	 DWORD PTR [esi+764], eax
  00a62	8d 14 89	 lea	 edx, DWORD PTR [ecx+ecx*4]
  00a65	03 d2		 add	 edx, edx
  00a67	b8 1f 85 eb 51	 mov	 eax, 1374389535		; 51eb851fH
  00a6c	f7 ea		 imul	 edx
  00a6e	c1 fa 05	 sar	 edx, 5
  00a71	8b c2		 mov	 eax, edx
  00a73	c1 e8 1f	 shr	 eax, 31			; 0000001fH
  00a76	03 c2		 add	 eax, edx
  00a78	03 c1		 add	 eax, ecx

; 410  : 		lpObj->m_AttackDamageMaxLeft  += (lpObj->m_AttackDamageMaxLeft*10)/100;

  00a7a	8b 8e f4 02 00
	00		 mov	 ecx, DWORD PTR [esi+756]
  00a80	89 86 f8 02 00
	00		 mov	 DWORD PTR [esi+760], eax
  00a86	8d 14 89	 lea	 edx, DWORD PTR [ecx+ecx*4]
  00a89	03 d2		 add	 edx, edx
  00a8b	b8 1f 85 eb 51	 mov	 eax, 1374389535		; 51eb851fH
  00a90	f7 ea		 imul	 edx
  00a92	c1 fa 05	 sar	 edx, 5
  00a95	8b c2		 mov	 eax, edx
  00a97	c1 e8 1f	 shr	 eax, 31			; 0000001fH
  00a9a	03 c2		 add	 eax, edx
  00a9c	03 c1		 add	 eax, ecx

; 411  : 		// ---
; 412  : 		lpObj->m_MagicDamageMin += (lpObj->m_MagicDamageMin*10)/100;

  00a9e	8b 8e e4 02 00
	00		 mov	 ecx, DWORD PTR [esi+740]
  00aa4	89 86 f4 02 00
	00		 mov	 DWORD PTR [esi+756], eax
  00aaa	8d 14 89	 lea	 edx, DWORD PTR [ecx+ecx*4]
  00aad	03 d2		 add	 edx, edx
  00aaf	b8 1f 85 eb 51	 mov	 eax, 1374389535		; 51eb851fH
  00ab4	f7 ea		 imul	 edx
  00ab6	c1 fa 05	 sar	 edx, 5
  00ab9	8b c2		 mov	 eax, edx
  00abb	c1 e8 1f	 shr	 eax, 31			; 0000001fH
  00abe	03 c2		 add	 eax, edx
  00ac0	03 c1		 add	 eax, ecx

; 413  : 		lpObj->m_MagicDamageMax += (lpObj->m_MagicDamageMax*10)/100;

  00ac2	8b 8e e8 02 00
	00		 mov	 ecx, DWORD PTR [esi+744]

; 414  : 		// ---
; 415  : 		lpObj->m_AttackSpeed += 10;

  00ac8	01 be 08 03 00
	00		 add	 DWORD PTR [esi+776], edi
  00ace	89 86 e4 02 00
	00		 mov	 DWORD PTR [esi+740], eax
  00ad4	8d 14 89	 lea	 edx, DWORD PTR [ecx+ecx*4]
  00ad7	03 d2		 add	 edx, edx
  00ad9	b8 1f 85 eb 51	 mov	 eax, 1374389535		; 51eb851fH
  00ade	f7 ea		 imul	 edx
  00ae0	c1 fa 05	 sar	 edx, 5
  00ae3	8b c2		 mov	 eax, edx
  00ae5	c1 e8 1f	 shr	 eax, 31			; 0000001fH
  00ae8	03 c2		 add	 eax, edx
  00aea	03 c1		 add	 eax, ecx

; 416  : 	    lpObj->m_MagicSpeed  += 10;

  00aec	01 be 0c 03 00
	00		 add	 DWORD PTR [esi+780], edi
  00af2	89 86 e8 02 00
	00		 mov	 DWORD PTR [esi+744], eax
$LN77@gObjCalCha:

; 417  : 	}
; 418  : 	// ---
; 419  : 	if(RingOption[2] == 1)
; 420  : 	{
; 421  :         lpObj->m_AttackDamageMinRight += 20;
; 422  : 		lpObj->m_AttackDamageMaxRight += 20;
; 423  : 		lpObj->m_AttackDamageMinLeft  += 20;
; 424  : 		lpObj->m_AttackDamageMaxLeft  += 20;
; 425  : 		lpObj->m_MagicDamageMin += 20;
; 426  : 		lpObj->m_MagicDamageMax += 20;
; 427  : 	}
; 428  : 	// ---
; 429  : 	if(RingOption[3] == 1)
; 430  : 	{
; 431  : 	    lpObj->m_AddResistance[0] = 255;
; 432  : 		lpObj->m_AddResistance[1] = 255;
; 433  : 		lpObj->m_AddResistance[2] = 255;
; 434  : 		lpObj->m_AddResistance[3] = 255;
; 435  : 		lpObj->m_AddResistance[4] = 255;
; 436  : 		lpObj->m_AddResistance[5] = 255;
; 437  : 		lpObj->m_AddResistance[6] = 255;
; 438  : 	}
; 439  : 	// ---
; 440  : 	if(lpObj->Class == 1) //DK

  00af8	0f b7 86 98 00
	00 00		 movzx	 eax, WORD PTR [esi+152]
  00aff	83 f8 01	 cmp	 eax, 1
  00b02	75 09		 jne	 SHORT $LN76@gObjCalCha

; 441  : 	{
; 442  : 	    lpObj->m_SuccessfulBlocking = Dexterity/gServerInfo.m_Character.BlockDK;

  00b04	0f bf 0d 5c 01
	00 00		 movsx	 ecx, WORD PTR ?gServerInfo@@3VCServerInfo@@A+348
  00b0b	eb 2f		 jmp	 SHORT $LN303@gObjCalCha
$LN76@gObjCalCha:

; 443  : 	}
; 444  : 	else if(lpObj->Class == 2) //Elf

  00b0d	83 f8 02	 cmp	 eax, 2
  00b10	75 09		 jne	 SHORT $LN74@gObjCalCha

; 445  : 	{
; 446  : 	    lpObj->m_SuccessfulBlocking = Dexterity/gServerInfo.m_Character.BlockFE;

  00b12	0f bf 0d 72 01
	00 00		 movsx	 ecx, WORD PTR ?gServerInfo@@3VCServerInfo@@A+370
  00b19	eb 21		 jmp	 SHORT $LN303@gObjCalCha
$LN74@gObjCalCha:

; 447  : 	}
; 448  : 	else if(lpObj->Class == 3) //MG

  00b1b	83 f8 03	 cmp	 eax, 3
  00b1e	75 09		 jne	 SHORT $LN72@gObjCalCha

; 449  : 	{
; 450  : 	    lpObj->m_SuccessfulBlocking = Dexterity/gServerInfo.m_Character.BlockMG;

  00b20	0f bf 0d 84 01
	00 00		 movsx	 ecx, WORD PTR ?gServerInfo@@3VCServerInfo@@A+388
  00b27	eb 13		 jmp	 SHORT $LN303@gObjCalCha
$LN72@gObjCalCha:

; 451  : 	}
; 452  : 	else if(lpObj->Class == 4) // DL
; 453  : 	{
; 454  : 	    lpObj->m_SuccessfulBlocking = Dexterity/gServerInfo.m_Character.BlockDL;

  00b29	0f bf 0d 96 01
	00 00		 movsx	 ecx, WORD PTR ?gServerInfo@@3VCServerInfo@@A+406
  00b30	83 f8 04	 cmp	 eax, 4
  00b33	74 07		 je	 SHORT $LN303@gObjCalCha

; 455  : 	}
; 456  : 	else //DW
; 457  : 	{
; 458  : 	    lpObj->m_SuccessfulBlocking = Dexterity/gServerInfo.m_Character.BlockDW;

  00b35	0f bf 0d 4e 01
	00 00		 movsx	 ecx, WORD PTR ?gServerInfo@@3VCServerInfo@@A+334
$LN303@gObjCalCha:
  00b3c	8b 45 f4	 mov	 eax, DWORD PTR _Dexterity$[ebp]
  00b3f	99		 cdq
  00b40	f7 f9		 idiv	 ecx

; 459  : 	}
; 460  : 	// ---
; 461  : 	if(Left->IsItem() != 0 && Left->m_IsValidItem != 0)

  00b42	8b 5d f8	 mov	 ebx, DWORD PTR tv2888[ebp]
  00b45	8d be 18 03 00
	00		 lea	 edi, DWORD PTR [esi+792]
  00b4b	8d 8b a8 00 00
	00		 lea	 ecx, DWORD PTR [ebx+168]
  00b51	89 07		 mov	 DWORD PTR [edi], eax
  00b53	e8 00 00 00 00	 call	 ?IsItem@CItem@@QAEHXZ	; CItem::IsItem
  00b58	85 c0		 test	 eax, eax
  00b5a	74 20		 je	 SHORT $LN68@gObjCalCha
  00b5c	80 bb 3c 01 00
	00 00		 cmp	 BYTE PTR [ebx+316], 0
  00b63	74 17		 je	 SHORT $LN68@gObjCalCha

; 462  : 	{
; 463  : 	    lpObj->m_SuccessfulBlocking += Left->m_SuccessfulBlocking;

  00b65	0f b6 93 bc 00
	00 00		 movzx	 edx, BYTE PTR [ebx+188]
  00b6c	01 17		 add	 DWORD PTR [edi], edx

; 464  :         Left->PlusSpecial(&lpObj->m_SuccessfulBlocking,82);

  00b6e	6a 52		 push	 82			; 00000052H
  00b70	57		 push	 edi
  00b71	8d 8b a8 00 00
	00		 lea	 ecx, DWORD PTR [ebx+168]
  00b77	e8 00 00 00 00	 call	 ?PlusSpecial@CItem@@QAEXPAHH@Z ; CItem::PlusSpecial
$LN68@gObjCalCha:

; 465  : 	}
; 466  : 	// ---
; 467  : 	bool FullItemSet	= 1;
; 468  : 	// ---
; 469  : 	int LastItemIndex	= -1;
; 470  : 	// ---
; 471  : 	for(int n=2;n <= 6;n++)

  00b7c	bf 02 00 00 00	 mov	 edi, 2
  00b81	c6 45 ff 01	 mov	 BYTE PTR _FullItemSet$[ebp], 1
  00b85	c7 45 dc ff ff
	ff ff		 mov	 DWORD PTR _LastItemIndex$[ebp], -1
  00b8c	8d 5f ff	 lea	 ebx, DWORD PTR [edi-1]
  00b8f	90		 npad	 1
$LL285@gObjCalCha:

; 472  : 	{
; 473  : 	    if(n == 2 && lpObj->Class == 3) //MG

  00b90	83 ff 02	 cmp	 edi, 2
  00b93	75 0a		 jne	 SHORT $LN64@gObjCalCha
  00b95	66 83 be 98 00
	00 00 03	 cmp	 WORD PTR [esi+152], 3
  00b9d	74 43		 je	 SHORT $LN66@gObjCalCha
$LN64@gObjCalCha:

; 474  : 		{
; 475  : 		    continue;
; 476  : 		}
; 477  : 		// ---
; 478  : 		if(lpObj->pInventory[n].IsItem() == 0 || lpObj->pInventory[n].m_IsValidItem == 0 || (LastItemIndex >= 0 && lpObj->pInventory[n].m_Type != LastItemIndex))

  00b9f	8b 8e 8c 0c 00
	00		 mov	 ecx, DWORD PTR [esi+3212]
  00ba5	8b df		 mov	 ebx, edi
  00ba7	69 db a8 00 00
	00		 imul	 ebx, 168		; 000000a8H
  00bad	03 cb		 add	 ecx, ebx
  00baf	e8 00 00 00 00	 call	 ?IsItem@CItem@@QAEHXZ	; CItem::IsItem
  00bb4	85 c0		 test	 eax, eax
  00bb6	74 33		 je	 SHORT $LN212@gObjCalCha
  00bb8	03 9e 8c 0c 00
	00		 add	 ebx, DWORD PTR [esi+3212]
  00bbe	80 bb 94 00 00
	00 00		 cmp	 BYTE PTR [ebx+148], 0
  00bc5	74 24		 je	 SHORT $LN212@gObjCalCha
  00bc7	8b 45 dc	 mov	 eax, DWORD PTR _LastItemIndex$[ebp]
  00bca	85 c0		 test	 eax, eax
  00bcc	78 08		 js	 SHORT $LN63@gObjCalCha
  00bce	0f bf 4b 06	 movsx	 ecx, WORD PTR [ebx+6]
  00bd2	3b c8		 cmp	 ecx, eax
  00bd4	75 15		 jne	 SHORT $LN212@gObjCalCha
$LN63@gObjCalCha:

; 481  : 			break;
; 482  : 		}
; 483  : 		// ---
; 484  : 	    LastItemIndex = lpObj->pInventory[n].m_Type; 

  00bd6	0f bf 53 06	 movsx	 edx, WORD PTR [ebx+6]
  00bda	89 55 dc	 mov	 DWORD PTR _LastItemIndex$[ebp], edx
  00bdd	bb 01 00 00 00	 mov	 ebx, 1
$LN66@gObjCalCha:

; 465  : 	}
; 466  : 	// ---
; 467  : 	bool FullItemSet	= 1;
; 468  : 	// ---
; 469  : 	int LastItemIndex	= -1;
; 470  : 	// ---
; 471  : 	for(int n=2;n <= 6;n++)

  00be2	03 fb		 add	 edi, ebx
  00be4	83 ff 06	 cmp	 edi, 6
  00be7	7e a7		 jle	 SHORT $LL285@gObjCalCha

; 474  : 		{
; 475  : 		    continue;
; 476  : 		}
; 477  : 		// ---
; 478  : 		if(lpObj->pInventory[n].IsItem() == 0 || lpObj->pInventory[n].m_IsValidItem == 0 || (LastItemIndex >= 0 && lpObj->pInventory[n].m_Type != LastItemIndex))

  00be9	eb 09		 jmp	 SHORT $LN65@gObjCalCha
$LN212@gObjCalCha:

; 479  : 		{
; 480  : 		    FullItemSet = 0;

  00beb	c6 45 ff 00	 mov	 BYTE PTR _FullItemSet$[ebp], 0
  00bef	bb 01 00 00 00	 mov	 ebx, 1
$LN65@gObjCalCha:

; 485  : 	}
; 486  : 	// ---
; 487  : 	int Level11Count = 0;

  00bf4	33 ff		 xor	 edi, edi

; 488  : 	int Level10Count = 0;
; 489  : 	int Level12Count = 0;
; 490  : 	int Level13Count = 0;
; 491  : 	int Level14Count = 0;
; 492  : 	int Level15Count = 0;
; 493  : 	// ---
; 494  : 	if(FullItemSet != 0)

  00bf6	80 7d ff 00	 cmp	 BYTE PTR _FullItemSet$[ebp], 0
  00bfa	89 7d e4	 mov	 DWORD PTR _Level11Count$[ebp], edi
  00bfd	89 7d e0	 mov	 DWORD PTR _Level10Count$[ebp], edi
  00c00	89 7d e8	 mov	 DWORD PTR _Level12Count$[ebp], edi
  00c03	89 7d ec	 mov	 DWORD PTR _Level13Count$[ebp], edi
  00c06	89 7d f0	 mov	 DWORD PTR _Level14Count$[ebp], edi
  00c09	89 7d dc	 mov	 DWORD PTR _Level15Count$[ebp], edi
  00c0c	0f 84 a9 01 00
	00		 je	 $LN281@gObjCalCha

; 495  : 	{
; 496  :         for(int n=2;n <= 6;n++)
; 497  : 		{
; 498  : 			if(n == 2 && lpObj->Class == 3) //MG

  00c12	66 83 be 98 00
	00 00 03	 cmp	 WORD PTR [esi+152], 3
  00c1a	75 07		 jne	 SHORT $LN57@gObjCalCha

; 499  : 			{
; 500  : 			    Level15Count++;

  00c1c	8b fb		 mov	 edi, ebx
  00c1e	89 7d dc	 mov	 DWORD PTR _Level15Count$[ebp], edi

; 501  : 				continue;

  00c21	eb 4f		 jmp	 SHORT $LN59@gObjCalCha
$LN57@gObjCalCha:

; 502  : 			}
; 503  : 			// ---
; 504  : 			if(lpObj->pInventory[n].m_Level == 10)

  00c23	8b 86 8c 0c 00
	00		 mov	 eax, DWORD PTR [esi+3212]
  00c29	0f b7 80 58 01
	00 00		 movzx	 eax, WORD PTR [eax+344]
  00c30	66 83 f8 0a	 cmp	 ax, 10			; 0000000aH
  00c34	75 05		 jne	 SHORT $LN56@gObjCalCha

; 505  : 			{
; 506  : 			    Level10Count++;

  00c36	89 5d e0	 mov	 DWORD PTR _Level10Count$[ebp], ebx
  00c39	eb 37		 jmp	 SHORT $LN59@gObjCalCha
$LN56@gObjCalCha:

; 507  : 			}
; 508  : 			else if(lpObj->pInventory[n].m_Level == 11)

  00c3b	66 83 f8 0b	 cmp	 ax, 11			; 0000000bH
  00c3f	75 05		 jne	 SHORT $LN54@gObjCalCha

; 509  : 			{
; 510  : 			    Level11Count++;

  00c41	89 5d e4	 mov	 DWORD PTR _Level11Count$[ebp], ebx
  00c44	eb 2c		 jmp	 SHORT $LN59@gObjCalCha
$LN54@gObjCalCha:

; 511  : 			}
; 512  : 			else if(lpObj->pInventory[n].m_Level == 12)

  00c46	66 83 f8 0c	 cmp	 ax, 12			; 0000000cH
  00c4a	75 05		 jne	 SHORT $LN52@gObjCalCha

; 513  : 			{
; 514  : 			    Level12Count++;

  00c4c	89 5d e8	 mov	 DWORD PTR _Level12Count$[ebp], ebx
  00c4f	eb 21		 jmp	 SHORT $LN59@gObjCalCha
$LN52@gObjCalCha:

; 515  : 			}
; 516  : 			else if(lpObj->pInventory[n].m_Level == 13)

  00c51	66 83 f8 0d	 cmp	 ax, 13			; 0000000dH
  00c55	75 05		 jne	 SHORT $LN50@gObjCalCha

; 517  : 			{
; 518  : 			    Level13Count++;

  00c57	89 5d ec	 mov	 DWORD PTR _Level13Count$[ebp], ebx
  00c5a	eb 16		 jmp	 SHORT $LN59@gObjCalCha
$LN50@gObjCalCha:

; 519  : 			}
; 520  : 			else if(lpObj->pInventory[n].m_Level == 14)

  00c5c	66 83 f8 0e	 cmp	 ax, 14			; 0000000eH
  00c60	75 05		 jne	 SHORT $LN48@gObjCalCha

; 521  : 			{
; 522  : 			    Level14Count++;

  00c62	89 5d f0	 mov	 DWORD PTR _Level14Count$[ebp], ebx
  00c65	eb 0b		 jmp	 SHORT $LN59@gObjCalCha
$LN48@gObjCalCha:

; 523  : 			}
; 524  : 			else if(lpObj->pInventory[n].m_Level == 15)

  00c67	66 83 f8 0f	 cmp	 ax, 15			; 0000000fH
  00c6b	75 05		 jne	 SHORT $LN59@gObjCalCha

; 525  : 			{
; 526  : 			    Level15Count++;

  00c6d	8b fb		 mov	 edi, ebx
  00c6f	89 5d dc	 mov	 DWORD PTR _Level15Count$[ebp], ebx
$LN59@gObjCalCha:

; 502  : 			}
; 503  : 			// ---
; 504  : 			if(lpObj->pInventory[n].m_Level == 10)

  00c72	8b 8e 8c 0c 00
	00		 mov	 ecx, DWORD PTR [esi+3212]
  00c78	0f b7 81 00 02
	00 00		 movzx	 eax, WORD PTR [ecx+512]
  00c7f	66 83 f8 0a	 cmp	 ax, 10			; 0000000aH
  00c83	75 05		 jne	 SHORT $LN229@gObjCalCha

; 505  : 			{
; 506  : 			    Level10Count++;

  00c85	01 5d e0	 add	 DWORD PTR _Level10Count$[ebp], ebx
  00c88	eb 37		 jmp	 SHORT $LN277@gObjCalCha
$LN229@gObjCalCha:

; 507  : 			}
; 508  : 			else if(lpObj->pInventory[n].m_Level == 11)

  00c8a	66 83 f8 0b	 cmp	 ax, 11			; 0000000bH
  00c8e	75 05		 jne	 SHORT $LN230@gObjCalCha

; 509  : 			{
; 510  : 			    Level11Count++;

  00c90	01 5d e4	 add	 DWORD PTR _Level11Count$[ebp], ebx
  00c93	eb 2c		 jmp	 SHORT $LN277@gObjCalCha
$LN230@gObjCalCha:

; 511  : 			}
; 512  : 			else if(lpObj->pInventory[n].m_Level == 12)

  00c95	66 83 f8 0c	 cmp	 ax, 12			; 0000000cH
  00c99	75 05		 jne	 SHORT $LN231@gObjCalCha

; 513  : 			{
; 514  : 			    Level12Count++;

  00c9b	01 5d e8	 add	 DWORD PTR _Level12Count$[ebp], ebx
  00c9e	eb 21		 jmp	 SHORT $LN277@gObjCalCha
$LN231@gObjCalCha:

; 515  : 			}
; 516  : 			else if(lpObj->pInventory[n].m_Level == 13)

  00ca0	66 83 f8 0d	 cmp	 ax, 13			; 0000000dH
  00ca4	75 05		 jne	 SHORT $LN232@gObjCalCha

; 517  : 			{
; 518  : 			    Level13Count++;

  00ca6	01 5d ec	 add	 DWORD PTR _Level13Count$[ebp], ebx
  00ca9	eb 16		 jmp	 SHORT $LN277@gObjCalCha
$LN232@gObjCalCha:

; 519  : 			}
; 520  : 			else if(lpObj->pInventory[n].m_Level == 14)

  00cab	66 83 f8 0e	 cmp	 ax, 14			; 0000000eH
  00caf	75 05		 jne	 SHORT $LN233@gObjCalCha

; 521  : 			{
; 522  : 			    Level14Count++;

  00cb1	01 5d f0	 add	 DWORD PTR _Level14Count$[ebp], ebx
  00cb4	eb 0b		 jmp	 SHORT $LN277@gObjCalCha
$LN233@gObjCalCha:

; 523  : 			}
; 524  : 			else if(lpObj->pInventory[n].m_Level == 15)

  00cb6	66 83 f8 0f	 cmp	 ax, 15			; 0000000fH
  00cba	75 05		 jne	 SHORT $LN277@gObjCalCha

; 525  : 			{
; 526  : 			    Level15Count++;

  00cbc	03 fb		 add	 edi, ebx
  00cbe	89 7d dc	 mov	 DWORD PTR _Level15Count$[ebp], edi
$LN277@gObjCalCha:

; 502  : 			}
; 503  : 			// ---
; 504  : 			if(lpObj->pInventory[n].m_Level == 10)

  00cc1	0f b7 81 a8 02
	00 00		 movzx	 eax, WORD PTR [ecx+680]
  00cc8	66 83 f8 0a	 cmp	 ax, 10			; 0000000aH
  00ccc	75 05		 jne	 SHORT $LN237@gObjCalCha

; 505  : 			{
; 506  : 			    Level10Count++;

  00cce	01 5d e0	 add	 DWORD PTR _Level10Count$[ebp], ebx
  00cd1	eb 37		 jmp	 SHORT $LN278@gObjCalCha
$LN237@gObjCalCha:

; 507  : 			}
; 508  : 			else if(lpObj->pInventory[n].m_Level == 11)

  00cd3	66 83 f8 0b	 cmp	 ax, 11			; 0000000bH
  00cd7	75 05		 jne	 SHORT $LN238@gObjCalCha

; 509  : 			{
; 510  : 			    Level11Count++;

  00cd9	01 5d e4	 add	 DWORD PTR _Level11Count$[ebp], ebx
  00cdc	eb 2c		 jmp	 SHORT $LN278@gObjCalCha
$LN238@gObjCalCha:

; 511  : 			}
; 512  : 			else if(lpObj->pInventory[n].m_Level == 12)

  00cde	66 83 f8 0c	 cmp	 ax, 12			; 0000000cH
  00ce2	75 05		 jne	 SHORT $LN239@gObjCalCha

; 513  : 			{
; 514  : 			    Level12Count++;

  00ce4	01 5d e8	 add	 DWORD PTR _Level12Count$[ebp], ebx
  00ce7	eb 21		 jmp	 SHORT $LN278@gObjCalCha
$LN239@gObjCalCha:

; 515  : 			}
; 516  : 			else if(lpObj->pInventory[n].m_Level == 13)

  00ce9	66 83 f8 0d	 cmp	 ax, 13			; 0000000dH
  00ced	75 05		 jne	 SHORT $LN240@gObjCalCha

; 517  : 			{
; 518  : 			    Level13Count++;

  00cef	01 5d ec	 add	 DWORD PTR _Level13Count$[ebp], ebx
  00cf2	eb 16		 jmp	 SHORT $LN278@gObjCalCha
$LN240@gObjCalCha:

; 519  : 			}
; 520  : 			else if(lpObj->pInventory[n].m_Level == 14)

  00cf4	66 83 f8 0e	 cmp	 ax, 14			; 0000000eH
  00cf8	75 05		 jne	 SHORT $LN241@gObjCalCha

; 521  : 			{
; 522  : 			    Level14Count++;

  00cfa	01 5d f0	 add	 DWORD PTR _Level14Count$[ebp], ebx
  00cfd	eb 0b		 jmp	 SHORT $LN278@gObjCalCha
$LN241@gObjCalCha:

; 523  : 			}
; 524  : 			else if(lpObj->pInventory[n].m_Level == 15)

  00cff	66 83 f8 0f	 cmp	 ax, 15			; 0000000fH
  00d03	75 05		 jne	 SHORT $LN278@gObjCalCha

; 525  : 			{
; 526  : 			    Level15Count++;

  00d05	03 fb		 add	 edi, ebx
  00d07	89 7d dc	 mov	 DWORD PTR _Level15Count$[ebp], edi
$LN278@gObjCalCha:

; 502  : 			}
; 503  : 			// ---
; 504  : 			if(lpObj->pInventory[n].m_Level == 10)

  00d0a	0f b7 81 50 03
	00 00		 movzx	 eax, WORD PTR [ecx+848]
  00d11	66 83 f8 0a	 cmp	 ax, 10			; 0000000aH
  00d15	75 05		 jne	 SHORT $LN245@gObjCalCha

; 505  : 			{
; 506  : 			    Level10Count++;

  00d17	01 5d e0	 add	 DWORD PTR _Level10Count$[ebp], ebx
  00d1a	eb 37		 jmp	 SHORT $LN279@gObjCalCha
$LN245@gObjCalCha:

; 507  : 			}
; 508  : 			else if(lpObj->pInventory[n].m_Level == 11)

  00d1c	66 83 f8 0b	 cmp	 ax, 11			; 0000000bH
  00d20	75 05		 jne	 SHORT $LN246@gObjCalCha

; 509  : 			{
; 510  : 			    Level11Count++;

  00d22	01 5d e4	 add	 DWORD PTR _Level11Count$[ebp], ebx
  00d25	eb 2c		 jmp	 SHORT $LN279@gObjCalCha
$LN246@gObjCalCha:

; 511  : 			}
; 512  : 			else if(lpObj->pInventory[n].m_Level == 12)

  00d27	66 83 f8 0c	 cmp	 ax, 12			; 0000000cH
  00d2b	75 05		 jne	 SHORT $LN247@gObjCalCha

; 513  : 			{
; 514  : 			    Level12Count++;

  00d2d	01 5d e8	 add	 DWORD PTR _Level12Count$[ebp], ebx
  00d30	eb 21		 jmp	 SHORT $LN279@gObjCalCha
$LN247@gObjCalCha:

; 515  : 			}
; 516  : 			else if(lpObj->pInventory[n].m_Level == 13)

  00d32	66 83 f8 0d	 cmp	 ax, 13			; 0000000dH
  00d36	75 05		 jne	 SHORT $LN248@gObjCalCha

; 517  : 			{
; 518  : 			    Level13Count++;

  00d38	01 5d ec	 add	 DWORD PTR _Level13Count$[ebp], ebx
  00d3b	eb 16		 jmp	 SHORT $LN279@gObjCalCha
$LN248@gObjCalCha:

; 519  : 			}
; 520  : 			else if(lpObj->pInventory[n].m_Level == 14)

  00d3d	66 83 f8 0e	 cmp	 ax, 14			; 0000000eH
  00d41	75 05		 jne	 SHORT $LN249@gObjCalCha

; 521  : 			{
; 522  : 			    Level14Count++;

  00d43	01 5d f0	 add	 DWORD PTR _Level14Count$[ebp], ebx
  00d46	eb 0b		 jmp	 SHORT $LN279@gObjCalCha
$LN249@gObjCalCha:

; 523  : 			}
; 524  : 			else if(lpObj->pInventory[n].m_Level == 15)

  00d48	66 83 f8 0f	 cmp	 ax, 15			; 0000000fH
  00d4c	75 05		 jne	 SHORT $LN279@gObjCalCha

; 525  : 			{
; 526  : 			    Level15Count++;

  00d4e	03 fb		 add	 edi, ebx
  00d50	89 7d dc	 mov	 DWORD PTR _Level15Count$[ebp], edi
$LN279@gObjCalCha:

; 502  : 			}
; 503  : 			// ---
; 504  : 			if(lpObj->pInventory[n].m_Level == 10)

  00d53	0f b7 81 f8 03
	00 00		 movzx	 eax, WORD PTR [ecx+1016]
  00d5a	66 83 f8 0a	 cmp	 ax, 10			; 0000000aH
  00d5e	75 05		 jne	 SHORT $LN253@gObjCalCha

; 505  : 			{
; 506  : 			    Level10Count++;

  00d60	01 5d e0	 add	 DWORD PTR _Level10Count$[ebp], ebx
  00d63	eb 37		 jmp	 SHORT $LN258@gObjCalCha
$LN253@gObjCalCha:

; 507  : 			}
; 508  : 			else if(lpObj->pInventory[n].m_Level == 11)

  00d65	66 83 f8 0b	 cmp	 ax, 11			; 0000000bH
  00d69	75 05		 jne	 SHORT $LN254@gObjCalCha

; 509  : 			{
; 510  : 			    Level11Count++;

  00d6b	01 5d e4	 add	 DWORD PTR _Level11Count$[ebp], ebx
  00d6e	eb 2c		 jmp	 SHORT $LN258@gObjCalCha
$LN254@gObjCalCha:

; 511  : 			}
; 512  : 			else if(lpObj->pInventory[n].m_Level == 12)

  00d70	66 83 f8 0c	 cmp	 ax, 12			; 0000000cH
  00d74	75 05		 jne	 SHORT $LN255@gObjCalCha

; 513  : 			{
; 514  : 			    Level12Count++;

  00d76	01 5d e8	 add	 DWORD PTR _Level12Count$[ebp], ebx
  00d79	eb 21		 jmp	 SHORT $LN258@gObjCalCha
$LN255@gObjCalCha:

; 515  : 			}
; 516  : 			else if(lpObj->pInventory[n].m_Level == 13)

  00d7b	66 83 f8 0d	 cmp	 ax, 13			; 0000000dH
  00d7f	75 05		 jne	 SHORT $LN256@gObjCalCha

; 517  : 			{
; 518  : 			    Level13Count++;

  00d81	01 5d ec	 add	 DWORD PTR _Level13Count$[ebp], ebx
  00d84	eb 16		 jmp	 SHORT $LN258@gObjCalCha
$LN256@gObjCalCha:

; 519  : 			}
; 520  : 			else if(lpObj->pInventory[n].m_Level == 14)

  00d86	66 83 f8 0e	 cmp	 ax, 14			; 0000000eH
  00d8a	75 05		 jne	 SHORT $LN257@gObjCalCha

; 521  : 			{
; 522  : 			    Level14Count++;

  00d8c	01 5d f0	 add	 DWORD PTR _Level14Count$[ebp], ebx
  00d8f	eb 0b		 jmp	 SHORT $LN258@gObjCalCha
$LN257@gObjCalCha:

; 523  : 			}
; 524  : 			else if(lpObj->pInventory[n].m_Level == 15)

  00d91	66 83 f8 0f	 cmp	 ax, 15			; 0000000fH
  00d95	75 05		 jne	 SHORT $LN258@gObjCalCha

; 525  : 			{
; 526  : 			    Level15Count++;

  00d97	03 fb		 add	 edi, ebx
  00d99	89 7d dc	 mov	 DWORD PTR _Level15Count$[ebp], edi
$LN258@gObjCalCha:

; 527  : 			}
; 528  : 		}
; 529  : 		// ---
; 530  : 	    lpObj->m_SuccessfulBlocking += lpObj->m_SuccessfulBlocking/10;

  00d9c	8b 8e 18 03 00
	00		 mov	 ecx, DWORD PTR [esi+792]
  00da2	b8 67 66 66 66	 mov	 eax, 1717986919		; 66666667H
  00da7	f7 e9		 imul	 ecx
  00da9	c1 fa 02	 sar	 edx, 2
  00dac	8b c2		 mov	 eax, edx
  00dae	c1 e8 1f	 shr	 eax, 31			; 0000001fH
  00db1	03 c2		 add	 eax, edx
  00db3	03 c1		 add	 eax, ecx
  00db5	89 86 18 03 00
	00		 mov	 DWORD PTR [esi+792], eax
$LN281@gObjCalCha:

; 531  : 	}
; 532  : 	// ---
; 533  : 	if(lpObj->Class == 1) //DK

  00dbb	0f b7 86 98 00
	00 00		 movzx	 eax, WORD PTR [esi+152]
  00dc2	66 3b c3	 cmp	 ax, bx
  00dc5	75 09		 jne	 SHORT $LN45@gObjCalCha

; 534  : 	{
; 535  : 	    lpObj->m_Defense = Dexterity/gServerInfo.m_Character.DefenseDK; //3

  00dc7	0f bf 0d 3a 01
	00 00		 movsx	 ecx, WORD PTR ?gServerInfo@@3VCServerInfo@@A+314
  00dce	eb 2f		 jmp	 SHORT $LN304@gObjCalCha
$LN45@gObjCalCha:

; 536  : 	}
; 537  : 	else if(lpObj->Class == 2) //Elf

  00dd0	83 f8 02	 cmp	 eax, 2
  00dd3	75 09		 jne	 SHORT $LN43@gObjCalCha

; 538  : 	{
; 539  : 	    lpObj->m_Defense = Dexterity/gServerInfo.m_Character.DefenseFE; //10

  00dd5	0f bf 0d 3c 01
	00 00		 movsx	 ecx, WORD PTR ?gServerInfo@@3VCServerInfo@@A+316
  00ddc	eb 21		 jmp	 SHORT $LN304@gObjCalCha
$LN43@gObjCalCha:

; 540  : 	}
; 541  : 	else if(lpObj->Class == 4) //DL

  00dde	83 f8 04	 cmp	 eax, 4
  00de1	75 09		 jne	 SHORT $LN41@gObjCalCha

; 542  : 	{
; 543  : 	    lpObj->m_Defense = Dexterity/gServerInfo.m_Character.DefenseDL; //7

  00de3	0f bf 0d 40 01
	00 00		 movsx	 ecx, WORD PTR ?gServerInfo@@3VCServerInfo@@A+320
  00dea	eb 13		 jmp	 SHORT $LN304@gObjCalCha
$LN41@gObjCalCha:

; 544  : 	}
; 545  : 	else if(lpObj->Class == 3) //MG
; 546  : 	{
; 547  : 	    lpObj->m_Defense = Dexterity/gServerInfo.m_Character.DefenseMG; //4

  00dec	0f bf 0d 3e 01
	00 00		 movsx	 ecx, WORD PTR ?gServerInfo@@3VCServerInfo@@A+318
  00df3	83 f8 03	 cmp	 eax, 3
  00df6	74 07		 je	 SHORT $LN304@gObjCalCha

; 548  : 	}
; 549  : 	else //DW
; 550  : 	{
; 551  : 	    lpObj->m_Defense = Dexterity/gServerInfo.m_Character.DefenseDW; //4

  00df8	0f bf 0d 38 01
	00 00		 movsx	 ecx, WORD PTR ?gServerInfo@@3VCServerInfo@@A+312
$LN304@gObjCalCha:
  00dff	8b 45 f4	 mov	 eax, DWORD PTR _Dexterity$[ebp]
  00e02	99		 cdq
  00e03	f7 f9		 idiv	 ecx

; 552  : 	}
; 553  : 	// ---
; 554  : 	lpObj->m_Defense += lpObj->pInventory[1].ItemDefense();

  00e05	8b 8e 8c 0c 00
	00		 mov	 ecx, DWORD PTR [esi+3212]
  00e0b	81 c1 a8 00 00
	00		 add	 ecx, 168		; 000000a8H
  00e11	89 86 10 03 00
	00		 mov	 DWORD PTR [esi+784], eax
  00e17	e8 00 00 00 00	 call	 ?ItemDefense@CItem@@QAEHXZ ; CItem::ItemDefense

; 555  : 	lpObj->m_Defense += lpObj->pInventory[2].ItemDefense();

  00e1c	8b 8e 8c 0c 00
	00		 mov	 ecx, DWORD PTR [esi+3212]
  00e22	01 86 10 03 00
	00		 add	 DWORD PTR [esi+784], eax
  00e28	81 c1 50 01 00
	00		 add	 ecx, 336		; 00000150H
  00e2e	e8 00 00 00 00	 call	 ?ItemDefense@CItem@@QAEHXZ ; CItem::ItemDefense

; 556  : 	lpObj->m_Defense += lpObj->pInventory[3].ItemDefense();

  00e33	8b 8e 8c 0c 00
	00		 mov	 ecx, DWORD PTR [esi+3212]
  00e39	01 86 10 03 00
	00		 add	 DWORD PTR [esi+784], eax
  00e3f	81 c1 f8 01 00
	00		 add	 ecx, 504		; 000001f8H
  00e45	e8 00 00 00 00	 call	 ?ItemDefense@CItem@@QAEHXZ ; CItem::ItemDefense

; 557  : 	lpObj->m_Defense += lpObj->pInventory[4].ItemDefense();

  00e4a	8b 8e 8c 0c 00
	00		 mov	 ecx, DWORD PTR [esi+3212]
  00e50	01 86 10 03 00
	00		 add	 DWORD PTR [esi+784], eax
  00e56	81 c1 a0 02 00
	00		 add	 ecx, 672		; 000002a0H
  00e5c	e8 00 00 00 00	 call	 ?ItemDefense@CItem@@QAEHXZ ; CItem::ItemDefense

; 558  : 	lpObj->m_Defense += lpObj->pInventory[5].ItemDefense();

  00e61	8b 8e 8c 0c 00
	00		 mov	 ecx, DWORD PTR [esi+3212]
  00e67	01 86 10 03 00
	00		 add	 DWORD PTR [esi+784], eax
  00e6d	81 c1 48 03 00
	00		 add	 ecx, 840		; 00000348H
  00e73	e8 00 00 00 00	 call	 ?ItemDefense@CItem@@QAEHXZ ; CItem::ItemDefense

; 559  : 	lpObj->m_Defense += lpObj->pInventory[6].ItemDefense();

  00e78	8b 8e 8c 0c 00
	00		 mov	 ecx, DWORD PTR [esi+3212]
  00e7e	01 86 10 03 00
	00		 add	 DWORD PTR [esi+784], eax
  00e84	81 c1 f0 03 00
	00		 add	 ecx, 1008		; 000003f0H
  00e8a	e8 00 00 00 00	 call	 ?ItemDefense@CItem@@QAEHXZ ; CItem::ItemDefense

; 560  : 	lpObj->m_Defense += lpObj->pInventory[7].ItemDefense();

  00e8f	8b 8e 8c 0c 00
	00		 mov	 ecx, DWORD PTR [esi+3212]
  00e95	01 86 10 03 00
	00		 add	 DWORD PTR [esi+784], eax
  00e9b	81 c1 98 04 00
	00		 add	 ecx, 1176		; 00000498H
  00ea1	e8 00 00 00 00	 call	 ?ItemDefense@CItem@@QAEHXZ ; CItem::ItemDefense

; 561  : 	// ---
; 562  : 	if(Helper->IsItem() != 0 && Helper->m_Type == ITEMGET(13,4) && Helper->m_Durability > 0.0f) //Dark Horse

  00ea6	8b 5d f8	 mov	 ebx, DWORD PTR tv2888[ebp]
  00ea9	01 86 10 03 00
	00		 add	 DWORD PTR [esi+784], eax
  00eaf	8d 8b 40 05 00
	00		 lea	 ecx, DWORD PTR [ebx+1344]
  00eb5	e8 00 00 00 00	 call	 ?IsItem@CItem@@QAEHXZ	; CItem::IsItem
  00eba	85 c0		 test	 eax, eax
  00ebc	74 3f		 je	 SHORT $LN37@gObjCalCha
  00ebe	ba 04 1a 00 00	 mov	 edx, 6660		; 00001a04H
  00ec3	66 39 93 46 05
	00 00		 cmp	 WORD PTR [ebx+1350], dx
  00eca	75 31		 jne	 SHORT $LN37@gObjCalCha
  00ecc	d9 ee		 fldz
  00ece	d8 9b 64 05 00
	00		 fcomp	 DWORD PTR [ebx+1380]
  00ed4	df e0		 fnstsw	 ax
  00ed6	f6 c4 05	 test	 ah, 5
  00ed9	7a 22		 jp	 SHORT $LN37@gObjCalCha

; 563  : 	{
; 564  : 	    lpObj->m_Defense += (Dexterity/20)+(Helper->m_PetItem_Level*2)+5;

  00edb	8b 8b e0 05 00
	00		 mov	 ecx, DWORD PTR [ebx+1504]
  00ee1	b8 67 66 66 66	 mov	 eax, 1717986919		; 66666667H
  00ee6	f7 6d f4	 imul	 DWORD PTR _Dexterity$[ebp]
  00ee9	c1 fa 03	 sar	 edx, 3
  00eec	8b c2		 mov	 eax, edx
  00eee	c1 e8 1f	 shr	 eax, 31			; 0000001fH
  00ef1	03 c2		 add	 eax, edx
  00ef3	8d 4c 48 05	 lea	 ecx, DWORD PTR [eax+ecx*2+5]
  00ef7	01 8e 10 03 00
	00		 add	 DWORD PTR [esi+784], ecx
$LN37@gObjCalCha:

; 565  : 	}
; 566  : 	// ---
; 567  : 	if(FullItemSet != 0 && (Level15Count+Level14Count+Level13Count+Level12Count+Level11Count+Level10Count) >= 5)

  00efd	80 7d ff 00	 cmp	 BYTE PTR _FullItemSet$[ebp], 0
  00f01	0f 84 18 01 00
	00		 je	 $LN273@gObjCalCha
  00f07	8b 55 f0	 mov	 edx, DWORD PTR _Level14Count$[ebp]
  00f0a	8b 4d ec	 mov	 ecx, DWORD PTR _Level13Count$[ebp]
  00f0d	8b 5d e4	 mov	 ebx, DWORD PTR _Level11Count$[ebp]
  00f10	03 5d e0	 add	 ebx, DWORD PTR _Level10Count$[ebp]
  00f13	8d 04 17	 lea	 eax, DWORD PTR [edi+edx]
  00f16	8b 55 e8	 mov	 edx, DWORD PTR _Level12Count$[ebp]
  00f19	03 c8		 add	 ecx, eax
  00f1b	03 d1		 add	 edx, ecx
  00f1d	03 da		 add	 ebx, edx
  00f1f	bf 05 00 00 00	 mov	 edi, 5
  00f24	3b df		 cmp	 ebx, edi
  00f26	0f 8c f3 00 00
	00		 jl	 $LN273@gObjCalCha

; 568  : 	{
; 569  : 		if(Level15Count == 5)

  00f2c	39 7d dc	 cmp	 DWORD PTR _Level15Count$[ebp], edi
  00f2f	75 2d		 jne	 SHORT $LN35@gObjCalCha

; 570  : 		{
; 571  : 		    lpObj->m_Defense += (lpObj->m_Defense*30)/100;

  00f31	8b 9e 10 03 00
	00		 mov	 ebx, DWORD PTR [esi+784]
  00f37	8b cb		 mov	 ecx, ebx
  00f39	c1 e1 04	 shl	 ecx, 4
  00f3c	2b cb		 sub	 ecx, ebx
  00f3e	03 c9		 add	 ecx, ecx
  00f40	b8 1f 85 eb 51	 mov	 eax, 1374389535		; 51eb851fH
  00f45	f7 e9		 imul	 ecx
  00f47	c1 fa 05	 sar	 edx, 5
  00f4a	8b c2		 mov	 eax, edx
  00f4c	c1 e8 1f	 shr	 eax, 31			; 0000001fH
  00f4f	03 c2		 add	 eax, edx
  00f51	03 c3		 add	 eax, ebx

; 578  : 		{
; 579  : 		    lpObj->m_Defense += (lpObj->m_Defense*20)/100;

  00f53	89 86 10 03 00
	00		 mov	 DWORD PTR [esi+784], eax
  00f59	e9 c1 00 00 00	 jmp	 $LN273@gObjCalCha
$LN35@gObjCalCha:

; 572  : 		}
; 573  : 		else if(Level14Count == 5 || (Level14Count+Level15Count) == 5)

  00f5e	39 7d f0	 cmp	 DWORD PTR _Level14Count$[ebp], edi
  00f61	0f 84 94 00 00
	00		 je	 $LN32@gObjCalCha
  00f67	3b c7		 cmp	 eax, edi
  00f69	0f 84 8c 00 00
	00		 je	 $LN32@gObjCalCha

; 576  : 		}
; 577  : 	    else if(Level13Count == 5 || (Level13Count+Level14Count+Level15Count) == 5)

  00f6f	39 7d ec	 cmp	 DWORD PTR _Level13Count$[ebp], edi
  00f72	74 5f		 je	 SHORT $LN29@gObjCalCha
  00f74	3b cf		 cmp	 ecx, edi
  00f76	74 5b		 je	 SHORT $LN29@gObjCalCha

; 580  : 		}
; 581  : 		else if(Level12Count == 5 || (Level12Count+Level13Count+Level14Count+Level15Count) == 5)

  00f78	39 7d e8	 cmp	 DWORD PTR _Level12Count$[ebp], edi
  00f7b	74 34		 je	 SHORT $LN26@gObjCalCha
  00f7d	3b d7		 cmp	 edx, edi
  00f7f	74 30		 je	 SHORT $LN26@gObjCalCha

; 584  : 		}
; 585  : 		else if(Level11Count == 5 || (Level11Count+Level12Count+Level13Count+Level14Count+Level15Count) == 5)

  00f81	8b 45 e4	 mov	 eax, DWORD PTR _Level11Count$[ebp]
  00f84	3b c7		 cmp	 eax, edi
  00f86	74 1e		 je	 SHORT $LN23@gObjCalCha
  00f88	03 c2		 add	 eax, edx
  00f8a	3b c7		 cmp	 eax, edi
  00f8c	74 18		 je	 SHORT $LN23@gObjCalCha

; 588  : 		}
; 589  : 		else if(Level10Count == 5 || (Level10Count+Level11Count+Level12Count+Level13Count+Level14Count+Level15Count) == 5)

  00f8e	39 7d e0	 cmp	 DWORD PTR _Level10Count$[ebp], edi
  00f91	74 08		 je	 SHORT $LN20@gObjCalCha
  00f93	3b df		 cmp	 ebx, edi
  00f95	0f 85 84 00 00
	00		 jne	 $LN273@gObjCalCha
$LN20@gObjCalCha:

; 590  : 		{
; 591  : 		    lpObj->m_Defense += (lpObj->m_Defense*5)/100;

  00f9b	8b 8e 10 03 00
	00		 mov	 ecx, DWORD PTR [esi+784]
  00fa1	8d 14 89	 lea	 edx, DWORD PTR [ecx+ecx*4]
  00fa4	eb 3a		 jmp	 SHORT $LN307@gObjCalCha
$LN23@gObjCalCha:

; 586  : 		{
; 587  : 		    lpObj->m_Defense += (lpObj->m_Defense*10)/100;

  00fa6	8b 8e 10 03 00
	00		 mov	 ecx, DWORD PTR [esi+784]
  00fac	8d 14 89	 lea	 edx, DWORD PTR [ecx+ecx*4]
  00faf	eb 2d		 jmp	 SHORT $LN306@gObjCalCha
$LN26@gObjCalCha:

; 582  : 		{
; 583  : 		    lpObj->m_Defense += (lpObj->m_Defense*15)/100;

  00fb1	8b 9e 10 03 00
	00		 mov	 ebx, DWORD PTR [esi+784]
  00fb7	8b cb		 mov	 ecx, ebx
  00fb9	c1 e1 04	 shl	 ecx, 4
  00fbc	2b cb		 sub	 ecx, ebx
  00fbe	b8 1f 85 eb 51	 mov	 eax, 1374389535		; 51eb851fH
  00fc3	f7 e9		 imul	 ecx
  00fc5	c1 fa 05	 sar	 edx, 5
  00fc8	8b ca		 mov	 ecx, edx
  00fca	c1 e9 1f	 shr	 ecx, 31			; 0000001fH
  00fcd	03 ca		 add	 ecx, edx
  00fcf	03 cb		 add	 ecx, ebx
  00fd1	eb 46		 jmp	 SHORT $LN305@gObjCalCha
$LN29@gObjCalCha:

; 578  : 		{
; 579  : 		    lpObj->m_Defense += (lpObj->m_Defense*20)/100;

  00fd3	8b 8e 10 03 00
	00		 mov	 ecx, DWORD PTR [esi+784]
  00fd9	8d 14 89	 lea	 edx, DWORD PTR [ecx+ecx*4]
  00fdc	03 d2		 add	 edx, edx
$LN306@gObjCalCha:
  00fde	03 d2		 add	 edx, edx
$LN307@gObjCalCha:
  00fe0	b8 1f 85 eb 51	 mov	 eax, 1374389535		; 51eb851fH
  00fe5	f7 ea		 imul	 edx
  00fe7	c1 fa 05	 sar	 edx, 5
  00fea	8b c2		 mov	 eax, edx
  00fec	c1 e8 1f	 shr	 eax, 31			; 0000001fH
  00fef	03 c2		 add	 eax, edx
  00ff1	03 c1		 add	 eax, ecx
  00ff3	89 86 10 03 00
	00		 mov	 DWORD PTR [esi+784], eax
  00ff9	eb 24		 jmp	 SHORT $LN273@gObjCalCha
$LN32@gObjCalCha:

; 574  : 		{
; 575  : 		    lpObj->m_Defense += (lpObj->m_Defense*25)/100;

  00ffb	8b be 10 03 00
	00		 mov	 edi, DWORD PTR [esi+784]
  01001	8b cf		 mov	 ecx, edi
  01003	6b c9 19	 imul	 ecx, 25			; 00000019H
  01006	b8 1f 85 eb 51	 mov	 eax, 1374389535		; 51eb851fH
  0100b	f7 e9		 imul	 ecx
  0100d	c1 fa 05	 sar	 edx, 5
  01010	8b ca		 mov	 ecx, edx
  01012	c1 e9 1f	 shr	 ecx, 31			; 0000001fH
  01015	03 ca		 add	 ecx, edx
  01017	03 cf		 add	 ecx, edi
$LN305@gObjCalCha:
  01019	89 8e 10 03 00
	00		 mov	 DWORD PTR [esi+784], ecx
$LN273@gObjCalCha:

; 592  : 		}
; 593  : 	}
; 594  : 	// ---
; 595  : 	if(RingOption[1] == 1)
; 596  : 	{
; 597  : 	    lpObj->m_Defense += (lpObj->m_Defense*10)/100;
; 598  : 		lpObj->AddLife += lpObj->Level;
; 599  : 	}   
; 600  : 	// ---
; 601  : 	lpObj->m_Defense = (lpObj->m_Defense*10)/20;

  0101f	8b 8e 10 03 00
	00		 mov	 ecx, DWORD PTR [esi+784]

; 602  : 	// ---
; 603  : 	if(Helper->IsItem() != 0 && Helper->m_Type == ITEMGET(13,37) && (Helper->m_NewOption & 4) != 0)

  01025	8b 7d f8	 mov	 edi, DWORD PTR tv2888[ebp]
  01028	8d 0c 89	 lea	 ecx, DWORD PTR [ecx+ecx*4]
  0102b	03 c9		 add	 ecx, ecx
  0102d	b8 67 66 66 66	 mov	 eax, 1717986919		; 66666667H
  01032	f7 e9		 imul	 ecx
  01034	c1 fa 03	 sar	 edx, 3
  01037	8b c2		 mov	 eax, edx
  01039	c1 e8 1f	 shr	 eax, 31			; 0000001fH
  0103c	03 c2		 add	 eax, edx
  0103e	81 c7 40 05 00
	00		 add	 edi, 1344		; 00000540H
  01044	8b cf		 mov	 ecx, edi
  01046	89 86 10 03 00
	00		 mov	 DWORD PTR [esi+784], eax
  0104c	e8 00 00 00 00	 call	 ?IsItem@CItem@@QAEHXZ	; CItem::IsItem
  01051	85 c0		 test	 eax, eax
  01053	74 70		 je	 SHORT $LN18@gObjCalCha
  01055	b9 25 1a 00 00	 mov	 ecx, 6693		; 00001a25H
  0105a	66 39 4f 06	 cmp	 WORD PTR [edi+6], cx
  0105e	75 65		 jne	 SHORT $LN18@gObjCalCha
  01060	f6 47 7b 04	 test	 BYTE PTR [edi+123], 4
  01064	74 5f		 je	 SHORT $LN18@gObjCalCha

; 604  : 	{
; 605  : 	    lpObj->m_AttackDamageMinRight += lpObj->Level/12;

  01066	0f bf 8e 9c 00
	00 00		 movsx	 ecx, WORD PTR [esi+156]
  0106d	b8 ab aa aa 2a	 mov	 eax, 715827883		; 2aaaaaabH
  01072	f7 e9		 imul	 ecx
  01074	d1 fa		 sar	 edx, 1
  01076	8b c2		 mov	 eax, edx
  01078	c1 e8 1f	 shr	 eax, 31			; 0000001fH
  0107b	03 c2		 add	 eax, edx
  0107d	01 86 00 03 00
	00		 add	 DWORD PTR [esi+768], eax

; 606  : 		lpObj->m_AttackDamageMaxRight += lpObj->Level/12;

  01083	01 86 fc 02 00
	00		 add	 DWORD PTR [esi+764], eax

; 607  : 		// ---
; 608  : 		lpObj->m_AttackDamageMinLeft  += lpObj->Level/12;

  01089	01 86 f8 02 00
	00		 add	 DWORD PTR [esi+760], eax

; 609  : 		lpObj->m_AttackDamageMaxLeft  += lpObj->Level/12;

  0108f	01 86 f4 02 00
	00		 add	 DWORD PTR [esi+756], eax

; 610  : 		// ---
; 611  : 		lpObj->m_MagicDamageMin += lpObj->Level/25;

  01095	b8 1f 85 eb 51	 mov	 eax, 1374389535		; 51eb851fH
  0109a	f7 e9		 imul	 ecx
  0109c	c1 fa 03	 sar	 edx, 3
  0109f	8b c2		 mov	 eax, edx
  010a1	c1 e8 1f	 shr	 eax, 31			; 0000001fH
  010a4	03 c2		 add	 eax, edx
  010a6	01 86 e4 02 00
	00		 add	 DWORD PTR [esi+740], eax

; 612  : 		lpObj->m_MagicDamageMax += lpObj->Level/25;

  010ac	01 86 e8 02 00
	00		 add	 DWORD PTR [esi+744], eax

; 613  : 	    // ---
; 614  : 		lpObj->AddLife += lpObj->Level/2;

  010b2	8b c1		 mov	 eax, ecx
  010b4	99		 cdq
  010b5	2b c2		 sub	 eax, edx
  010b7	d1 f8		 sar	 eax, 1
  010b9	01 86 0c 01 00
	00		 add	 DWORD PTR [esi+268], eax

; 615  : 	    lpObj->AddMana += lpObj->Level/2;

  010bf	01 86 10 01 00
	00		 add	 DWORD PTR [esi+272], eax
$LN18@gObjCalCha:

; 616  : 	}
; 617  : 	// ---
; 618  : 	int AddLife = 0;
; 619  : 	int AddMana = 0;
; 620  : 	// ---
; 621  : 	Wings->PlusSpecial(&AddLife,100);

  010c5	8b 5d f8	 mov	 ebx, DWORD PTR tv2888[ebp]
  010c8	33 c0		 xor	 eax, eax
  010ca	6a 64		 push	 100			; 00000064H
  010cc	8d 55 d4	 lea	 edx, DWORD PTR _AddLife$[ebp]
  010cf	81 c3 98 04 00
	00		 add	 ebx, 1176		; 00000498H
  010d5	52		 push	 edx
  010d6	8b cb		 mov	 ecx, ebx
  010d8	89 45 d4	 mov	 DWORD PTR _AddLife$[ebp], eax
  010db	89 45 d0	 mov	 DWORD PTR _AddMana$[ebp], eax
  010de	e8 00 00 00 00	 call	 ?PlusSpecial@CItem@@QAEXPAHH@Z ; CItem::PlusSpecial

; 622  : 	// ---
; 623  : 	Wings->PlusSpecial(&AddMana,101);

  010e3	6a 65		 push	 101			; 00000065H
  010e5	8d 45 d0	 lea	 eax, DWORD PTR _AddMana$[ebp]
  010e8	50		 push	 eax
  010e9	8b cb		 mov	 ecx, ebx
  010eb	e8 00 00 00 00	 call	 ?PlusSpecial@CItem@@QAEXPAHH@Z ; CItem::PlusSpecial

; 624  : 	// ---
; 625  : 	Wings->PlusSpecial(&AddLeadership,105);

  010f0	6a 69		 push	 105			; 00000069H
  010f2	8d 4d d8	 lea	 ecx, DWORD PTR _AddLeadership$[ebp]
  010f5	51		 push	 ecx
  010f6	8b cb		 mov	 ecx, ebx
  010f8	e8 00 00 00 00	 call	 ?PlusSpecial@CItem@@QAEXPAHH@Z ; CItem::PlusSpecial

; 626  : 	// ---
; 627  : 	lpObj->AddLeadership	= AddLeadership;
; 628  : 	// ---
; 629  : 	lpObj->AddLife			+= AddLife;
; 630  : 	// ---
; 631  : 	lpObj->AddMana			+= AddMana;

  010fd	8b 4d d0	 mov	 ecx, DWORD PTR _AddMana$[ebp]
  01100	66 8b 55 d8	 mov	 dx, WORD PTR _AddLeadership$[ebp]
  01104	8b 45 d4	 mov	 eax, DWORD PTR _AddLife$[ebp]
  01107	01 8e 10 01 00
	00		 add	 DWORD PTR [esi+272], ecx
  0110d	01 86 0c 01 00
	00		 add	 DWORD PTR [esi+268], eax
  01113	8d 9e 10 01 00
	00		 lea	 ebx, DWORD PTR [esi+272]

; 632  : 	// ---
; 633  : 	if(Helper->IsItem() != 0 && Helper->m_Type == ITEMGET(13,3))

  01119	8b cf		 mov	 ecx, edi
  0111b	66 89 96 da 00
	00 00		 mov	 WORD PTR [esi+218], dx
  01122	e8 00 00 00 00	 call	 ?IsItem@CItem@@QAEHXZ	; CItem::IsItem
  01127	85 c0		 test	 eax, eax
  01129	74 1b		 je	 SHORT $LN17@gObjCalCha
  0112b	ba 03 1a 00 00	 mov	 edx, 6659		; 00001a03H
  01130	66 39 57 06	 cmp	 WORD PTR [edi+6], dx
  01134	75 10		 jne	 SHORT $LN17@gObjCalCha

; 634  : 	{
; 635  : 	    Helper->PlusSpecial(&lpObj->AddBP,103);

  01136	6a 67		 push	 103			; 00000067H
  01138	8d 86 f0 00 00
	00		 lea	 eax, DWORD PTR [esi+240]
  0113e	50		 push	 eax
  0113f	8b cf		 mov	 ecx, edi
  01141	e8 00 00 00 00	 call	 ?PlusSpecial@CItem@@QAEXPAHH@Z ; CItem::PlusSpecial
$LN17@gObjCalCha:

; 636  : 	}
; 637  : 	// ---
; 638  : 	Amulet->PlusSpecialPercentEx(&lpObj->AddBP,lpObj->MaxBP,173);

  01146	8b 86 ec 00 00
	00		 mov	 eax, DWORD PTR [esi+236]
  0114c	8b 7d f8	 mov	 edi, DWORD PTR tv2888[ebp]
  0114f	68 ad 00 00 00	 push	 173			; 000000adH
  01154	50		 push	 eax
  01155	8d 86 f0 00 00
	00		 lea	 eax, DWORD PTR [esi+240]
  0115b	50		 push	 eax
  0115c	8d 8f e8 05 00
	00		 lea	 ecx, DWORD PTR [edi+1512]
  01162	e8 00 00 00 00	 call	 ?PlusSpecialPercentEx@CItem@@QAEXPAHHH@Z ; CItem::PlusSpecialPercentEx

; 639  : 	// ---
; 640  : 	Ring1->PlusSpecialPercentEx(&lpObj->AddMana,lpObj->MaxMana,172);

  01167	d9 86 d4 00 00
	00		 fld	 DWORD PTR [esi+212]
  0116d	68 ac 00 00 00	 push	 172			; 000000acH
  01172	e8 00 00 00 00	 call	 __ftol2_sse
  01177	50		 push	 eax
  01178	8b cf		 mov	 ecx, edi
  0117a	53		 push	 ebx
  0117b	81 c1 90 06 00
	00		 add	 ecx, 1680		; 00000690H
  01181	e8 00 00 00 00	 call	 ?PlusSpecialPercentEx@CItem@@QAEXPAHHH@Z ; CItem::PlusSpecialPercentEx

; 641  : 	Ring2->PlusSpecialPercentEx(&lpObj->AddMana,lpObj->MaxMana,172);

  01186	d9 86 d4 00 00
	00		 fld	 DWORD PTR [esi+212]
  0118c	68 ac 00 00 00	 push	 172			; 000000acH
  01191	e8 00 00 00 00	 call	 __ftol2_sse
  01196	50		 push	 eax
  01197	53		 push	 ebx
  01198	8b df		 mov	 ebx, edi
  0119a	81 c3 38 07 00
	00		 add	 ebx, 1848		; 00000738H
  011a0	8b cb		 mov	 ecx, ebx
  011a2	89 5d dc	 mov	 DWORD PTR _Ring2$[ebp], ebx
  011a5	e8 00 00 00 00	 call	 ?PlusSpecialPercentEx@CItem@@QAEXPAHHH@Z ; CItem::PlusSpecialPercentEx

; 642  : 	// ---
; 643  :     #define GET_MAX_RESISTANCE(x,y,z) (((((x) > (y))?(x):(y)) > (z))?(((x) > (y))?(x):(y)):(z))	
; 644  : 	// ---
; 645  : 	lpObj->m_Resistance[0] = GET_MAX_RESISTANCE(Amulet->m_Resistance[0],Ring1->m_Resistance[0],Ring2->m_Resistance[0]);

  011aa	8a 8f 3d 06 00
	00		 mov	 cl, BYTE PTR [edi+1597]
  011b0	8b c7		 mov	 eax, edi
  011b2	05 90 06 00 00	 add	 eax, 1680		; 00000690H
  011b7	8a 40 55	 mov	 al, BYTE PTR [eax+85]
  011ba	88 4d ff	 mov	 BYTE PTR tv1508[ebp], cl
  011bd	3a c8		 cmp	 cl, al
  011bf	77 03		 ja	 SHORT $LN165@gObjCalCha
  011c1	88 45 ff	 mov	 BYTE PTR tv1508[ebp], al
$LN165@gObjCalCha:
  011c4	8a 5b 55	 mov	 bl, BYTE PTR [ebx+85]
  011c7	38 5d ff	 cmp	 BYTE PTR tv1508[ebp], bl
  011ca	76 08		 jbe	 SHORT $LN168@gObjCalCha
  011cc	3a c8		 cmp	 cl, al
  011ce	76 06		 jbe	 SHORT $LN169@gObjCalCha
  011d0	8a c1		 mov	 al, cl
  011d2	eb 02		 jmp	 SHORT $LN169@gObjCalCha
$LN168@gObjCalCha:
  011d4	8a c3		 mov	 al, bl
$LN169@gObjCalCha:
  011d6	88 86 62 03 00
	00		 mov	 BYTE PTR [esi+866], al

; 646  : 	lpObj->m_Resistance[1] = GET_MAX_RESISTANCE(Amulet->m_Resistance[1],Ring1->m_Resistance[1],Ring2->m_Resistance[1]);

  011dc	8a 8f 3e 06 00
	00		 mov	 cl, BYTE PTR [edi+1598]
  011e2	8b c7		 mov	 eax, edi
  011e4	05 90 06 00 00	 add	 eax, 1680		; 00000690H
  011e9	89 45 e0	 mov	 DWORD PTR _Ring1$[ebp], eax
  011ec	8a 40 56	 mov	 al, BYTE PTR [eax+86]
  011ef	8a d9		 mov	 bl, cl
  011f1	3a c8		 cmp	 cl, al
  011f3	77 02		 ja	 SHORT $LN171@gObjCalCha
  011f5	8a d8		 mov	 bl, al
$LN171@gObjCalCha:
  011f7	8b 55 dc	 mov	 edx, DWORD PTR _Ring2$[ebp]
  011fa	8a 52 56	 mov	 dl, BYTE PTR [edx+86]
  011fd	3a da		 cmp	 bl, dl
  011ff	76 08		 jbe	 SHORT $LN174@gObjCalCha
  01201	3a c8		 cmp	 cl, al
  01203	76 06		 jbe	 SHORT $LN175@gObjCalCha
  01205	8a c1		 mov	 al, cl
  01207	eb 02		 jmp	 SHORT $LN175@gObjCalCha
$LN174@gObjCalCha:
  01209	8a c2		 mov	 al, dl
$LN175@gObjCalCha:
  0120b	88 86 63 03 00
	00		 mov	 BYTE PTR [esi+867], al

; 647  : 	lpObj->m_Resistance[2] = GET_MAX_RESISTANCE(Amulet->m_Resistance[2],Ring1->m_Resistance[2],Ring2->m_Resistance[2]);

  01211	8b 45 e0	 mov	 eax, DWORD PTR _Ring1$[ebp]
  01214	8a 8f 3f 06 00
	00		 mov	 cl, BYTE PTR [edi+1599]
  0121a	8a 40 57	 mov	 al, BYTE PTR [eax+87]
  0121d	8a d9		 mov	 bl, cl
  0121f	3a c8		 cmp	 cl, al
  01221	77 02		 ja	 SHORT $LN177@gObjCalCha
  01223	8a d8		 mov	 bl, al
$LN177@gObjCalCha:
  01225	8b 55 dc	 mov	 edx, DWORD PTR _Ring2$[ebp]
  01228	8a 52 57	 mov	 dl, BYTE PTR [edx+87]
  0122b	3a da		 cmp	 bl, dl
  0122d	76 08		 jbe	 SHORT $LN180@gObjCalCha
  0122f	3a c8		 cmp	 cl, al
  01231	76 06		 jbe	 SHORT $LN181@gObjCalCha
  01233	8a c1		 mov	 al, cl
  01235	eb 02		 jmp	 SHORT $LN181@gObjCalCha
$LN180@gObjCalCha:
  01237	8a c2		 mov	 al, dl
$LN181@gObjCalCha:
  01239	88 86 64 03 00
	00		 mov	 BYTE PTR [esi+868], al

; 648  : 	lpObj->m_Resistance[3] = GET_MAX_RESISTANCE(Amulet->m_Resistance[3],Ring1->m_Resistance[3],Ring2->m_Resistance[3]);

  0123f	8b 45 e0	 mov	 eax, DWORD PTR _Ring1$[ebp]
  01242	8a 8f 40 06 00
	00		 mov	 cl, BYTE PTR [edi+1600]
  01248	8a 40 58	 mov	 al, BYTE PTR [eax+88]
  0124b	8a d9		 mov	 bl, cl
  0124d	3a c8		 cmp	 cl, al
  0124f	77 02		 ja	 SHORT $LN183@gObjCalCha
  01251	8a d8		 mov	 bl, al
$LN183@gObjCalCha:
  01253	8b 55 dc	 mov	 edx, DWORD PTR _Ring2$[ebp]
  01256	8a 52 58	 mov	 dl, BYTE PTR [edx+88]
  01259	3a da		 cmp	 bl, dl
  0125b	76 08		 jbe	 SHORT $LN186@gObjCalCha
  0125d	3a c8		 cmp	 cl, al
  0125f	76 06		 jbe	 SHORT $LN187@gObjCalCha
  01261	8a c1		 mov	 al, cl
  01263	eb 02		 jmp	 SHORT $LN187@gObjCalCha
$LN186@gObjCalCha:
  01265	8a c2		 mov	 al, dl
$LN187@gObjCalCha:
  01267	88 86 65 03 00
	00		 mov	 BYTE PTR [esi+869], al

; 649  : 	lpObj->m_Resistance[4] = GET_MAX_RESISTANCE(Amulet->m_Resistance[4],Ring1->m_Resistance[4],Ring2->m_Resistance[4]);

  0126d	8b 45 e0	 mov	 eax, DWORD PTR _Ring1$[ebp]
  01270	8a 8f 41 06 00
	00		 mov	 cl, BYTE PTR [edi+1601]
  01276	8a 40 59	 mov	 al, BYTE PTR [eax+89]
  01279	8a d9		 mov	 bl, cl
  0127b	3a c8		 cmp	 cl, al
  0127d	77 02		 ja	 SHORT $LN189@gObjCalCha
  0127f	8a d8		 mov	 bl, al
$LN189@gObjCalCha:
  01281	8b 55 dc	 mov	 edx, DWORD PTR _Ring2$[ebp]
  01284	8a 52 59	 mov	 dl, BYTE PTR [edx+89]
  01287	3a da		 cmp	 bl, dl
  01289	76 08		 jbe	 SHORT $LN192@gObjCalCha
  0128b	3a c8		 cmp	 cl, al
  0128d	76 06		 jbe	 SHORT $LN193@gObjCalCha
  0128f	8a c1		 mov	 al, cl
  01291	eb 02		 jmp	 SHORT $LN193@gObjCalCha
$LN192@gObjCalCha:
  01293	8a c2		 mov	 al, dl
$LN193@gObjCalCha:
  01295	88 86 66 03 00
	00		 mov	 BYTE PTR [esi+870], al

; 650  : 	lpObj->m_Resistance[5] = GET_MAX_RESISTANCE(Amulet->m_Resistance[5],Ring1->m_Resistance[5],Ring2->m_Resistance[5]);

  0129b	8b 45 e0	 mov	 eax, DWORD PTR _Ring1$[ebp]
  0129e	8a 8f 42 06 00
	00		 mov	 cl, BYTE PTR [edi+1602]
  012a4	8a 40 5a	 mov	 al, BYTE PTR [eax+90]
  012a7	8a d9		 mov	 bl, cl
  012a9	3a c8		 cmp	 cl, al
  012ab	77 02		 ja	 SHORT $LN195@gObjCalCha
  012ad	8a d8		 mov	 bl, al
$LN195@gObjCalCha:
  012af	8b 55 dc	 mov	 edx, DWORD PTR _Ring2$[ebp]
  012b2	8a 52 5a	 mov	 dl, BYTE PTR [edx+90]
  012b5	3a da		 cmp	 bl, dl
  012b7	76 08		 jbe	 SHORT $LN198@gObjCalCha
  012b9	3a c8		 cmp	 cl, al
  012bb	76 06		 jbe	 SHORT $LN199@gObjCalCha
  012bd	8a c1		 mov	 al, cl
  012bf	eb 02		 jmp	 SHORT $LN199@gObjCalCha
$LN198@gObjCalCha:
  012c1	8a c2		 mov	 al, dl
$LN199@gObjCalCha:
  012c3	88 86 67 03 00
	00		 mov	 BYTE PTR [esi+871], al

; 651  : 	lpObj->m_Resistance[6] = GET_MAX_RESISTANCE(Amulet->m_Resistance[6],Ring1->m_Resistance[6],Ring2->m_Resistance[6]);

  012c9	8b 45 e0	 mov	 eax, DWORD PTR _Ring1$[ebp]
  012cc	8a 8f 43 06 00
	00		 mov	 cl, BYTE PTR [edi+1603]
  012d2	8a 40 5b	 mov	 al, BYTE PTR [eax+91]
  012d5	8a d9		 mov	 bl, cl
  012d7	3a c8		 cmp	 cl, al
  012d9	77 02		 ja	 SHORT $LN201@gObjCalCha
  012db	8a d8		 mov	 bl, al
$LN201@gObjCalCha:
  012dd	8b 55 dc	 mov	 edx, DWORD PTR _Ring2$[ebp]
  012e0	8a 52 5b	 mov	 dl, BYTE PTR [edx+91]
  012e3	3a da		 cmp	 bl, dl
  012e5	76 08		 jbe	 SHORT $LN204@gObjCalCha
  012e7	3a c8		 cmp	 cl, al
  012e9	76 06		 jbe	 SHORT $LN205@gObjCalCha
  012eb	8a c1		 mov	 al, cl
  012ed	eb 02		 jmp	 SHORT $LN205@gObjCalCha
$LN204@gObjCalCha:
  012ef	8a c2		 mov	 al, dl
$LN205@gObjCalCha:

; 652  : 	// ---
; 653  : 	gObjExtItemApply(lpObj);

  012f1	56		 push	 esi
  012f2	88 86 68 03 00
	00		 mov	 BYTE PTR [esi+872], al
  012f8	e8 00 00 00 00	 call	 ?gObjExtItemApply@@YAXPAUOBJECTSTRUCT@@@Z ; gObjExtItemApply

; 654  : 	gObjSetItemApply(lpObj);

  012fd	56		 push	 esi
  012fe	e8 00 00 00 00	 call	 ?gObjSetItemApply@@YAXPAUOBJECTSTRUCT@@@Z ; gObjSetItemApply

; 655  : 	// ---
; 656  : 	gObjNextExpCal(lpObj);

  01303	56		 push	 esi
  01304	e8 00 00 00 00	 call	 ?gObjNextExpCal@@YAXPAUOBJECTSTRUCT@@@Z ; gObjNextExpCal

; 657  : 	// ---
; 658  : 	if((Right->m_Type >= ITEMGET(4,8) && Right->m_Type <= ITEMGET(4,14)) || Right->m_Type == ITEMGET(14,16) || Right->m_Type == ITEMGET(4,18) || Right->m_Type == ITEMGET(4,19))

  01309	8b c7		 mov	 eax, edi
  0130b	0f b7 40 06	 movzx	 eax, WORD PTR [eax+6]
  0130f	b9 08 08 00 00	 mov	 ecx, 2056		; 00000808H
  01314	83 c4 0c	 add	 esp, 12			; 0000000cH
  01317	66 3b c1	 cmp	 ax, cx
  0131a	7c 0e		 jl	 SHORT $LN14@gObjCalCha
  0131c	ba 0e 08 00 00	 mov	 edx, 2062		; 0000080eH
  01321	66 3b c2	 cmp	 ax, dx
  01324	0f 8e e4 00 00
	00		 jle	 $LN15@gObjCalCha
$LN14@gObjCalCha:
  0132a	b9 10 1c 00 00	 mov	 ecx, 7184		; 00001c10H
  0132f	66 3b c1	 cmp	 ax, cx
  01332	0f 84 d6 00 00
	00		 je	 $LN15@gObjCalCha
  01338	ba 12 08 00 00	 mov	 edx, 2066		; 00000812H
  0133d	66 3b c2	 cmp	 ax, dx
  01340	0f 84 c8 00 00
	00		 je	 $LN15@gObjCalCha
  01346	b9 13 08 00 00	 mov	 ecx, 2067		; 00000813H
  0134b	66 3b c1	 cmp	 ax, cx
  0134e	0f 84 ba 00 00
	00		 je	 $LN15@gObjCalCha

; 664  : 		}
; 665  : 	}
; 666  : 	// ---
; 667  : 	else if((Left->m_Type >= ITEMGET(4,0) && Left->m_Type <= ITEMGET(4,6)) || Left->m_Type == ITEMGET(4,17) || (Left->m_Type >= ITEMGET(4,20) && Left->m_Type <= ITEMGET(4,24)))

  01354	0f b7 8f ae 00
	00 00		 movzx	 ecx, WORD PTR [edi+174]
  0135b	81 c7 a8 00 00
	00		 add	 edi, 168		; 000000a8H
  01361	ba 00 08 00 00	 mov	 edx, 2048		; 00000800H
  01366	66 3b ca	 cmp	 cx, dx
  01369	7c 0a		 jl	 SHORT $LN9@gObjCalCha
  0136b	ba 06 08 00 00	 mov	 edx, 2054		; 00000806H
  01370	66 3b ca	 cmp	 cx, dx
  01373	7e 26		 jle	 SHORT $LN10@gObjCalCha
$LN9@gObjCalCha:
  01375	ba 11 08 00 00	 mov	 edx, 2065		; 00000811H
  0137a	66 3b ca	 cmp	 cx, dx
  0137d	74 1c		 je	 SHORT $LN10@gObjCalCha
  0137f	ba 14 08 00 00	 mov	 edx, 2068		; 00000814H
  01384	66 3b ca	 cmp	 cx, dx
  01387	0f 8c e9 00 00
	00		 jl	 $LN269@gObjCalCha
  0138d	ba 18 08 00 00	 mov	 edx, 2072		; 00000818H
  01392	66 3b ca	 cmp	 cx, dx
  01395	0f 8f db 00 00
	00		 jg	 $LN269@gObjCalCha
$LN10@gObjCalCha:

; 668  : 	{
; 669  : 	    if(Right->m_Type == ITEMGET(4,15) && Right->m_Level > 0)

  0139b	b9 0f 08 00 00	 mov	 ecx, 2063		; 0000080fH
  013a0	66 3b c1	 cmp	 ax, cx
  013a3	0f 85 cd 00 00
	00		 jne	 $LN269@gObjCalCha
  013a9	8b 55 f8	 mov	 edx, DWORD PTR tv2888[ebp]
  013ac	66 83 7a 08 00	 cmp	 WORD PTR [edx+8], 0
  013b1	0f 8e bf 00 00
	00		 jle	 $LN269@gObjCalCha

; 670  : 		{
; 671  : 		    lpObj->m_AttackDamageMinLeft += ((lpObj->m_AttackDamageMinLeft*((Right->m_Level*2)+1))/100)+1;

  013b7	8b 9e f8 02 00
	00		 mov	 ebx, DWORD PTR [esi+760]
  013bd	8b c2		 mov	 eax, edx
  013bf	0f bf 48 08	 movsx	 ecx, WORD PTR [eax+8]
  013c3	8d 4c 09 01	 lea	 ecx, DWORD PTR [ecx+ecx+1]
  013c7	0f af cb	 imul	 ecx, ebx
  013ca	b8 1f 85 eb 51	 mov	 eax, 1374389535		; 51eb851fH
  013cf	f7 e9		 imul	 ecx
  013d1	c1 fa 05	 sar	 edx, 5
  013d4	8b ca		 mov	 ecx, edx
  013d6	c1 e9 1f	 shr	 ecx, 31			; 0000001fH
  013d9	03 ca		 add	 ecx, edx

; 672  : 			lpObj->m_AttackDamageMaxLeft += ((lpObj->m_AttackDamageMinLeft*((Right->m_Level*2)+1))/100)+1;

  013db	8b 55 f8	 mov	 edx, DWORD PTR tv2888[ebp]
  013de	8d 44 19 01	 lea	 eax, DWORD PTR [ecx+ebx+1]
  013e2	89 86 f8 02 00
	00		 mov	 DWORD PTR [esi+760], eax
  013e8	0f bf 4a 08	 movsx	 ecx, WORD PTR [edx+8]
  013ec	8d 4c 09 01	 lea	 ecx, DWORD PTR [ecx+ecx+1]
  013f0	0f af c8	 imul	 ecx, eax
  013f3	b8 1f 85 eb 51	 mov	 eax, 1374389535		; 51eb851fH
  013f8	f7 e9		 imul	 ecx
  013fa	c1 fa 05	 sar	 edx, 5
  013fd	8b c2		 mov	 eax, edx
  013ff	c1 e8 1f	 shr	 eax, 31			; 0000001fH
  01402	8d 4c 02 01	 lea	 ecx, DWORD PTR [edx+eax+1]
  01406	01 8e f4 02 00
	00		 add	 DWORD PTR [esi+756], ecx
  0140c	eb 68		 jmp	 SHORT $LN269@gObjCalCha
$LN15@gObjCalCha:

; 659  : 	{
; 660  : 		if(Left->m_Type == ITEMGET(4,7) && Left->m_Level > 0)

  0140e	ba 07 08 00 00	 mov	 edx, 2055		; 00000807H
  01413	81 c7 a8 00 00
	00		 add	 edi, 168		; 000000a8H
  01419	66 39 57 06	 cmp	 WORD PTR [edi+6], dx
  0141d	75 57		 jne	 SHORT $LN269@gObjCalCha
  0141f	66 83 7f 08 00	 cmp	 WORD PTR [edi+8], 0
  01424	7e 50		 jle	 SHORT $LN269@gObjCalCha

; 661  : 		{
; 662  : 		    lpObj->m_AttackDamageMinRight += ((lpObj->m_AttackDamageMinRight*((Left->m_Level*2)+1))/100)+1;

  01426	0f bf 4f 08	 movsx	 ecx, WORD PTR [edi+8]
  0142a	8b 9e 00 03 00
	00		 mov	 ebx, DWORD PTR [esi+768]
  01430	8d 4c 09 01	 lea	 ecx, DWORD PTR [ecx+ecx+1]
  01434	0f af cb	 imul	 ecx, ebx
  01437	b8 1f 85 eb 51	 mov	 eax, 1374389535		; 51eb851fH
  0143c	f7 e9		 imul	 ecx
  0143e	c1 fa 05	 sar	 edx, 5
  01441	8b c2		 mov	 eax, edx
  01443	c1 e8 1f	 shr	 eax, 31			; 0000001fH
  01446	03 c2		 add	 eax, edx
  01448	8d 44 18 01	 lea	 eax, DWORD PTR [eax+ebx+1]
  0144c	89 86 00 03 00
	00		 mov	 DWORD PTR [esi+768], eax

; 663  : 			lpObj->m_AttackDamageMaxRight += ((lpObj->m_AttackDamageMinRight*((Left->m_Level*2)+1))/100)+1;

  01452	0f bf 4f 08	 movsx	 ecx, WORD PTR [edi+8]
  01456	8d 4c 09 01	 lea	 ecx, DWORD PTR [ecx+ecx+1]
  0145a	0f af c8	 imul	 ecx, eax
  0145d	b8 1f 85 eb 51	 mov	 eax, 1374389535		; 51eb851fH
  01462	f7 e9		 imul	 ecx
  01464	c1 fa 05	 sar	 edx, 5
  01467	8b ca		 mov	 ecx, edx
  01469	c1 e9 1f	 shr	 ecx, 31			; 0000001fH
  0146c	8d 54 0a 01	 lea	 edx, DWORD PTR [edx+ecx+1]
  01470	01 96 fc 02 00
	00		 add	 DWORD PTR [esi+764], edx
$LN269@gObjCalCha:

; 673  : 		}
; 674  : 	}
; 675  : 	// ---
; 676  : 	if(lpObj->Class == CLASS_KNIGHT || lpObj->Class == CLASS_MAGUMSA || lpObj->Class == CLASS_DARKLORD)

  01476	0f b7 86 98 00
	00 00		 movzx	 eax, WORD PTR [esi+152]
  0147d	83 f8 01	 cmp	 eax, 1
  01480	74 0e		 je	 SHORT $LN6@gObjCalCha
  01482	83 f8 03	 cmp	 eax, 3
  01485	74 09		 je	 SHORT $LN6@gObjCalCha
  01487	83 f8 04	 cmp	 eax, 4
  0148a	0f 85 d4 00 00
	00		 jne	 $LN272@gObjCalCha
$LN6@gObjCalCha:

; 677  : 	{
; 678  :         if(Right->IsItem() != 0 && Left->IsItem() != 0)

  01490	8b 5d f8	 mov	 ebx, DWORD PTR tv2888[ebp]
  01493	8b cb		 mov	 ecx, ebx
  01495	e8 00 00 00 00	 call	 ?IsItem@CItem@@QAEHXZ	; CItem::IsItem
  0149a	85 c0		 test	 eax, eax
  0149c	0f 84 c2 00 00
	00		 je	 $LN272@gObjCalCha
  014a2	8b cf		 mov	 ecx, edi
  014a4	e8 00 00 00 00	 call	 ?IsItem@CItem@@QAEHXZ	; CItem::IsItem
  014a9	85 c0		 test	 eax, eax
  014ab	0f 84 b3 00 00
	00		 je	 $LN272@gObjCalCha

; 679  : 		{
; 680  : 		    if(Right->m_Type >= ITEMGET(0,0) && Right->m_Type < ITEMGET(4,0) && Left->m_Type >= ITEMGET(0,0) && Left->m_Type < ITEMGET(4,0))

  014b1	0f b7 43 06	 movzx	 eax, WORD PTR [ebx+6]
  014b5	66 85 c0	 test	 ax, ax
  014b8	0f 88 a6 00 00
	00		 js	 $LN272@gObjCalCha
  014be	b9 00 08 00 00	 mov	 ecx, 2048		; 00000800H
  014c3	66 3b c1	 cmp	 ax, cx
  014c6	0f 8d 98 00 00
	00		 jge	 $LN272@gObjCalCha
  014cc	0f b7 47 06	 movzx	 eax, WORD PTR [edi+6]
  014d0	66 85 c0	 test	 ax, ax
  014d3	0f 88 8b 00 00
	00		 js	 $LN272@gObjCalCha
  014d9	8b d1		 mov	 edx, ecx
  014db	66 3b c2	 cmp	 ax, dx
  014de	0f 8d 80 00 00
	00		 jge	 $LN272@gObjCalCha

; 681  : 			{
; 682  : 			    lpObj->m_AttackDamageMinRight = (lpObj->m_AttackDamageMinRight*55)/100;

  014e4	8b 8e 00 03 00
	00		 mov	 ecx, DWORD PTR [esi+768]
  014ea	6b c9 37	 imul	 ecx, 55			; 00000037H
  014ed	b8 1f 85 eb 51	 mov	 eax, 1374389535		; 51eb851fH
  014f2	f7 e9		 imul	 ecx

; 683  : 				lpObj->m_AttackDamageMaxRight = (lpObj->m_AttackDamageMaxRight*55)/100;

  014f4	8b 8e fc 02 00
	00		 mov	 ecx, DWORD PTR [esi+764]
  014fa	6b c9 37	 imul	 ecx, 55			; 00000037H
  014fd	c1 fa 05	 sar	 edx, 5
  01500	8b c2		 mov	 eax, edx
  01502	c1 e8 1f	 shr	 eax, 31			; 0000001fH
  01505	03 c2		 add	 eax, edx
  01507	89 86 00 03 00
	00		 mov	 DWORD PTR [esi+768], eax
  0150d	b8 1f 85 eb 51	 mov	 eax, 1374389535		; 51eb851fH
  01512	f7 e9		 imul	 ecx
  01514	c1 fa 05	 sar	 edx, 5
  01517	8b ca		 mov	 ecx, edx
  01519	c1 e9 1f	 shr	 ecx, 31			; 0000001fH
  0151c	03 ca		 add	 ecx, edx
  0151e	89 8e fc 02 00
	00		 mov	 DWORD PTR [esi+764], ecx

; 684  : 				lpObj->m_AttackDamageMinLeft  = (lpObj->m_AttackDamageMinLeft*55)/100;

  01524	8b 8e f8 02 00
	00		 mov	 ecx, DWORD PTR [esi+760]
  0152a	6b c9 37	 imul	 ecx, 55			; 00000037H
  0152d	b8 1f 85 eb 51	 mov	 eax, 1374389535		; 51eb851fH
  01532	f7 e9		 imul	 ecx

; 685  : 			    lpObj->m_AttackDamageMaxLeft  = (lpObj->m_AttackDamageMaxLeft*55)/100;

  01534	8b 8e f4 02 00
	00		 mov	 ecx, DWORD PTR [esi+756]
  0153a	c1 fa 05	 sar	 edx, 5
  0153d	6b c9 37	 imul	 ecx, 55			; 00000037H
  01540	8b c2		 mov	 eax, edx
  01542	c1 e8 1f	 shr	 eax, 31			; 0000001fH
  01545	03 c2		 add	 eax, edx
  01547	89 86 f8 02 00
	00		 mov	 DWORD PTR [esi+760], eax
  0154d	b8 1f 85 eb 51	 mov	 eax, 1374389535		; 51eb851fH
  01552	f7 e9		 imul	 ecx
  01554	c1 fa 05	 sar	 edx, 5
  01557	8b ca		 mov	 ecx, edx
  01559	c1 e9 1f	 shr	 ecx, 31			; 0000001fH
  0155c	03 ca		 add	 ecx, edx
  0155e	89 8e f4 02 00
	00		 mov	 DWORD PTR [esi+756], ecx
$LN272@gObjCalCha:

; 686  : 			}
; 687  : 		}
; 688  : 	}
; 689  : 	// ---
; 690  : 	float MaxLife = lpObj->MaxLife+lpObj->AddLife;

  01564	db 86 0c 01 00
	00		 fild	 DWORD PTR [esi+268]
  0156a	d8 86 c0 00 00
	00		 fadd	 DWORD PTR [esi+192]
  01570	d9 5d dc	 fstp	 DWORD PTR _MaxLife$[ebp]

; 691  : 	// ---
; 692  : 	lpObj->Life = (MaxLife*TotalHP)/100;

  01573	d9 45 dc	 fld	 DWORD PTR _MaxLife$[ebp]
  01576	d9 c0		 fld	 ST(0)
  01578	d8 4d cc	 fmul	 DWORD PTR _TotalHP$[ebp]
  0157b	dc 35 00 00 00
	00		 fdiv	 QWORD PTR __real@4059000000000000
  01581	d9 5d cc	 fstp	 DWORD PTR tv3740[ebp]
  01584	d9 45 cc	 fld	 DWORD PTR tv3740[ebp]
  01587	d9 96 bc 00 00
	00		 fst	 DWORD PTR [esi+188]

; 693  : 	// ---
; 694  : 	if(lpObj->Life > MaxLife)

  0158d	d8 d9		 fcomp	 ST(1)
  0158f	df e0		 fnstsw	 ax
  01591	f6 c4 41	 test	 ah, 65			; 00000041H
  01594	75 06		 jne	 SHORT $LN3@gObjCalCha

; 695  : 	{
; 696  : 	    lpObj->Life = MaxLife;

  01596	d9 96 bc 00 00
	00		 fst	 DWORD PTR [esi+188]
$LN3@gObjCalCha:

; 697  : 	}
; 698  : 	// ---
; 699  : 	GCReFillSend(lpObj->m_Index, MaxLife, 0xFE, 0);

  0159c	6a 00		 push	 0
  0159e	68 fe 00 00 00	 push	 254			; 000000feH
  015a3	e8 00 00 00 00	 call	 __ftol2_sse
  015a8	8b 16		 mov	 edx, DWORD PTR [esi]
  015aa	50		 push	 eax
  015ab	52		 push	 edx
  015ac	e8 00 00 00 00	 call	 ?GCReFillSend@@YAXHHEE@Z ; GCReFillSend

; 700  : 	GCReFillSend(lpObj->m_Index, lpObj->Life, 0xFF, 0);

  015b1	d9 86 bc 00 00
	00		 fld	 DWORD PTR [esi+188]
  015b7	83 c4 10	 add	 esp, 16			; 00000010H
  015ba	6a 00		 push	 0
  015bc	68 ff 00 00 00	 push	 255			; 000000ffH
  015c1	e8 00 00 00 00	 call	 __ftol2_sse
  015c6	50		 push	 eax
  015c7	8b 06		 mov	 eax, DWORD PTR [esi]
  015c9	50		 push	 eax
  015ca	e8 00 00 00 00	 call	 ?GCReFillSend@@YAXHHEE@Z ; GCReFillSend

; 701  : 	// ---
; 702  : 	float MaxMana = lpObj->MaxMana+lpObj->AddMana;

  015cf	db 86 10 01 00
	00		 fild	 DWORD PTR [esi+272]
  015d5	8d 86 d4 00 00
	00		 lea	 eax, DWORD PTR [esi+212]
  015db	89 45 dc	 mov	 DWORD PTR tv2926[ebp], eax
  015de	d8 00		 fadd	 DWORD PTR [eax]
  015e0	83 c4 10	 add	 esp, 16			; 00000010H
  015e3	d9 5d cc	 fstp	 DWORD PTR _MaxMana$[ebp]

; 703  : 	// ---
; 704  : 	lpObj->Mana = (MaxMana*TotalMP)/100;

  015e6	d9 45 cc	 fld	 DWORD PTR _MaxMana$[ebp]
  015e9	d9 c0		 fld	 ST(0)
  015eb	d8 4d c8	 fmul	 DWORD PTR _TotalMP$[ebp]
  015ee	dc 35 00 00 00
	00		 fdiv	 QWORD PTR __real@4059000000000000
  015f4	d9 5d c8	 fstp	 DWORD PTR tv3752[ebp]
  015f7	d9 45 c8	 fld	 DWORD PTR tv3752[ebp]
  015fa	d9 96 d0 00 00
	00		 fst	 DWORD PTR [esi+208]

; 705  : 	// ---
; 706  : 	if(lpObj->Mana > MaxMana)

  01600	d8 d9		 fcomp	 ST(1)
  01602	df e0		 fnstsw	 ax
  01604	f6 c4 41	 test	 ah, 65			; 00000041H
  01607	75 06		 jne	 SHORT $LN2@gObjCalCha

; 707  : 	{
; 708  : 	    lpObj->Mana = MaxMana;

  01609	d9 96 d0 00 00
	00		 fst	 DWORD PTR [esi+208]
$LN2@gObjCalCha:

; 709  : 	}
; 710  : 	// ---
; 711  : 	float MaxBP = lpObj->MaxBP+lpObj->AddBP;

  0160f	8b be f0 00 00
	00		 mov	 edi, DWORD PTR [esi+240]
  01615	03 be ec 00 00
	00		 add	 edi, DWORD PTR [esi+236]
  0161b	89 7d c8	 mov	 DWORD PTR tv3755[ebp], edi
  0161e	db 45 c8	 fild	 DWORD PTR tv3755[ebp]
  01621	d9 5d c8	 fstp	 DWORD PTR _MaxBP$[ebp]

; 712  : 	// ---
; 713  : 	if(lpObj->BP > MaxBP)

  01624	db 86 e8 00 00
	00		 fild	 DWORD PTR [esi+232]
  0162a	d9 45 c8	 fld	 DWORD PTR _MaxBP$[ebp]
  0162d	d8 d1		 fcom	 ST(1)
  0162f	df e0		 fnstsw	 ax
  01631	dd d9		 fstp	 ST(1)
  01633	f6 c4 05	 test	 ah, 5
  01636	7a 0d		 jp	 SHORT $LN293@gObjCalCha

; 714  : 	{
; 715  : 	    lpObj->BP = MaxBP;

  01638	e8 00 00 00 00	 call	 __ftol2_sse
  0163d	89 86 e8 00 00
	00		 mov	 DWORD PTR [esi+232], eax
  01643	eb 02		 jmp	 SHORT $LN1@gObjCalCha
$LN293@gObjCalCha:
  01645	dd d8		 fstp	 ST(0)
$LN1@gObjCalCha:

; 716  : 	}
; 717  : 	// ---
; 718  : 	GCManaSend(aIndex, MaxMana, 0xFE, 0, lpObj->MaxBP + lpObj->AddBP);

  01647	57		 push	 edi
  01648	6a 00		 push	 0
  0164a	68 fe 00 00 00	 push	 254			; 000000feH
  0164f	e8 00 00 00 00	 call	 __ftol2_sse
  01654	8b 7d 08	 mov	 edi, DWORD PTR _aIndex$[ebp]
  01657	50		 push	 eax
  01658	57		 push	 edi
  01659	e8 00 00 00 00	 call	 ?GCManaSend@@YAXHHEEH@Z	; GCManaSend

; 719  : 	GCManaSend(aIndex, lpObj->MaxMana + lpObj->AddMana, 0xFF, 0, lpObj->MaxBP + lpObj->AddBP);

  0165e	db 86 10 01 00
	00		 fild	 DWORD PTR [esi+272]
  01664	8b 86 f0 00 00
	00		 mov	 eax, DWORD PTR [esi+240]
  0166a	03 86 ec 00 00
	00		 add	 eax, DWORD PTR [esi+236]
  01670	8b 4d dc	 mov	 ecx, DWORD PTR tv2926[ebp]
  01673	d8 01		 fadd	 DWORD PTR [ecx]
  01675	83 c4 14	 add	 esp, 20			; 00000014H
  01678	50		 push	 eax
  01679	6a 00		 push	 0
  0167b	68 ff 00 00 00	 push	 255			; 000000ffH
  01680	e8 00 00 00 00	 call	 __ftol2_sse
  01685	50		 push	 eax
  01686	57		 push	 edi
  01687	e8 00 00 00 00	 call	 ?GCManaSend@@YAXHHEEH@Z	; GCManaSend
  0168c	83 c4 14	 add	 esp, 20			; 00000014H

; 720  : 	// ---
; 721  : 	gServerInfo.SendMain(aIndex);

  0168f	57		 push	 edi
  01690	b9 00 00 00 00	 mov	 ecx, OFFSET ?gServerInfo@@3VCServerInfo@@A ; gServerInfo
  01695	e8 00 00 00 00	 call	 ?SendMain@CServerInfo@@QAEXH@Z ; CServerInfo::SendMain
  0169a	5f		 pop	 edi
  0169b	5b		 pop	 ebx
$LN162@gObjCalCha:
  0169c	5e		 pop	 esi

; 722  : }

  0169d	8b e5		 mov	 esp, ebp
  0169f	5d		 pop	 ebp
  016a0	c3		 ret	 0
?gObjCalCharacter@@YAXH@Z ENDP				; gObjCalCharacter
_TEXT	ENDS
END
