; Listing generated by Microsoft (R) Optimizing Compiler Version 16.00.30319.01 

	TITLE	C:\Users\faelhs\mu-1.1\eMu - GameServer Sapphire S0\GameServer\RingAttackEvent.cpp
	.686P
	.XMM
	include listing.inc
	.model	flat

INCLUDELIB LIBCMT
INCLUDELIB OLDNAMES

_DATA	SEGMENT
_g_RingEventMapNum DD 00H
	DD	02H
	DD	03H
_g_RingMapPosition DD 042H
	DD	02cH
	DD	0bfH
	DD	0c5H
	DD	06fH
	DD	0eH
	DD	0e8H
	DD	07dH
	DD	088H
	DD	035H
	DD	0dfH
	DD	0b5H
	ORG $+4
_g_RingMapDestPosition DD 085H
	DD	04fH
	DD	057H
	DD	07eH
	DD	085H
	DD	0b2H
	DD	0b4H
	DD	07eH
	DD	0a4H
	DD	02aH
	DD	0ddH
	DD	055H
	DD	0a4H
	DD	02aH
	DD	0ddH
	DD	055H
	DD	0a0H
	DD	02dH
	DD	0a0H
	DD	02dH
	DD	098H
	DD	075H
	DD	0d1H
	DD	085H
_DATA	ENDS
PUBLIC	?GetX@CRingMonsterHerd@@QAEEXZ			; CRingMonsterHerd::GetX
; Function compile flags: /Ogtp
; File c:\users\faelhs\mu-1.1\emu - gameserver sapphire s0\gameserver\ringattackevent.h
;	COMDAT ?GetX@CRingMonsterHerd@@QAEEXZ
_TEXT	SEGMENT
?GetX@CRingMonsterHerd@@QAEEXZ PROC			; CRingMonsterHerd::GetX, COMDAT
; _this$ = ecx

; 22   : 	BYTE GetX(){return this->m_iCUR_X;}

  00000	8a 41 0c	 mov	 al, BYTE PTR [ecx+12]
  00003	c3		 ret	 0
?GetX@CRingMonsterHerd@@QAEEXZ ENDP			; CRingMonsterHerd::GetX
_TEXT	ENDS
PUBLIC	?GetY@CRingMonsterHerd@@QAEEXZ			; CRingMonsterHerd::GetY
; Function compile flags: /Ogtp
;	COMDAT ?GetY@CRingMonsterHerd@@QAEEXZ
_TEXT	SEGMENT
?GetY@CRingMonsterHerd@@QAEEXZ PROC			; CRingMonsterHerd::GetY, COMDAT
; _this$ = ecx

; 23   : 	BYTE GetY(){return this->m_iCUR_Y;}

  00000	8a 41 10	 mov	 al, BYTE PTR [ecx+16]
  00003	c3		 ret	 0
?GetY@CRingMonsterHerd@@QAEEXZ ENDP			; CRingMonsterHerd::GetY
_TEXT	ENDS
PUBLIC	?SetMenualStart@CRingAttackEvent@@QAEXH@Z	; CRingAttackEvent::SetMenualStart
; Function compile flags: /Ogtp
;	COMDAT ?SetMenualStart@CRingAttackEvent@@QAEXH@Z
_TEXT	SEGMENT
_bMenualStart$ = 8					; size = 4
?SetMenualStart@CRingAttackEvent@@QAEXH@Z PROC		; CRingAttackEvent::SetMenualStart, COMDAT
; _this$ = ecx

; 71   : 	void SetMenualStart(BOOL bMenualStart){this->m_bMenualStart = bMenualStart;}

  00000	55		 push	 ebp
  00001	8b ec		 mov	 ebp, esp
  00003	8b 45 08	 mov	 eax, DWORD PTR _bMenualStart$[ebp]
  00006	89 81 54 01 00
	00		 mov	 DWORD PTR [ecx+340], eax
  0000c	5d		 pop	 ebp
  0000d	c2 04 00	 ret	 4
?SetMenualStart@CRingAttackEvent@@QAEXH@Z ENDP		; CRingAttackEvent::SetMenualStart
_TEXT	ENDS
PUBLIC	__$ArrayPad$
EXTRN	_isalnum:PROC
EXTRN	_isalpha:PROC
EXTRN	_atof:PROC
EXTRN	_isdigit:PROC
EXTRN	_getc:PROC
EXTRN	_ungetc:PROC
EXTRN	_isspace:PROC
EXTRN	_fgetc:PROC
EXTRN	___security_cookie:DWORD
EXTRN	__fltused:DWORD
EXTRN	@__security_check_cookie@4:PROC
_BSS	SEGMENT
_CurrentToken DD 01H DUP (?)
_TokenNumber DD	01H DUP (?)
_SMDFile DD	01H DUP (?)
_TokenString DB	064H DUP (?)
; Function compile flags: /Ogtp
; File c:\users\faelhs\mu-1.1\emu - gameserver sapphire s0\include\readscript.h
_BSS	ENDS
;	COMDAT ?GetToken@@YA?AW4SMDToken@@XZ
_TEXT	SEGMENT
_TempString$ = -104					; size = 100
__$ArrayPad$ = -4					; size = 4
?GetToken@@YA?AW4SMDToken@@XZ PROC			; GetToken, COMDAT

; 24   : {

  00000	55		 push	 ebp
  00001	8b ec		 mov	 ebp, esp
  00003	83 ec 68	 sub	 esp, 104		; 00000068H
  00006	a1 00 00 00 00	 mov	 eax, DWORD PTR ___security_cookie
  0000b	33 c5		 xor	 eax, ebp
  0000d	89 45 fc	 mov	 DWORD PTR __$ArrayPad$[ebp], eax

; 25   : 	char ch;
; 26   : 	char* p;
; 27   : 	char TempString[100];
; 28   : 
; 29   : 	TokenString[0]=0;

  00010	c6 05 00 00 00
	00 00		 mov	 BYTE PTR _TokenString, 0
  00017	53		 push	 ebx
  00018	eb 06 8d 9b 00
	00 00 00	 npad	 8
$LL31@GetToken:

; 30   : 
; 31   : 	do
; 32   : 	{
; 33   : 		if ((ch=fgetc(SMDFile)) == -1)

  00020	a1 00 00 00 00	 mov	 eax, DWORD PTR _SMDFile
  00025	50		 push	 eax
  00026	e8 00 00 00 00	 call	 _fgetc
  0002b	8a d8		 mov	 bl, al
  0002d	83 c4 04	 add	 esp, 4
  00030	80 fb ff	 cmp	 bl, -1
  00033	74 64		 je	 SHORT $LN39@GetToken

; 36   : 		}
; 37   : 		else
; 38   : 		{	
; 39   : 			if (ch=='/')		// this is /

  00035	80 fb 2f	 cmp	 bl, 47			; 0000002fH
  00038	75 31		 jne	 SHORT $LN30@GetToken

; 40   : 			{
; 41   : 				if((ch=fgetc(SMDFile)) == '/')

  0003a	8b 0d 00 00 00
	00		 mov	 ecx, DWORD PTR _SMDFile
  00040	51		 push	 ecx
  00041	e8 00 00 00 00	 call	 _fgetc
  00046	8a d8		 mov	 bl, al
  00048	83 c4 04	 add	 esp, 4
  0004b	80 fb 2f	 cmp	 bl, 47			; 0000002fH
  0004e	75 1b		 jne	 SHORT $LN30@GetToken
$LL24@GetToken:

; 42   : 				{
; 43   : 					while ((ch != '\n') && (ch != -1))	// End of Line (EOL)

  00050	80 fb ff	 cmp	 bl, -1
  00053	74 44		 je	 SHORT $LN39@GetToken

; 44   : 					{
; 45   : 						ch=fgetc(SMDFile);

  00055	8b 15 00 00 00
	00		 mov	 edx, DWORD PTR _SMDFile
  0005b	52		 push	 edx
  0005c	e8 00 00 00 00	 call	 _fgetc
  00061	8a d8		 mov	 bl, al
  00063	83 c4 04	 add	 esp, 4
  00066	80 fb 0a	 cmp	 bl, 10			; 0000000aH
  00069	75 e5		 jne	 SHORT $LL24@GetToken
$LN30@GetToken:

; 46   : 					}
; 47   : 	
; 48   : 					if (ch == -1)
; 49   : 					{
; 50   : 						return END;	// End of FILE
; 51   : 					}
; 52   : 				}
; 53   : 			}
; 54   : 		}
; 55   : 	}
; 56   : 	while (isspace(ch) != 0);

  0006b	0f be c3	 movsx	 eax, bl
  0006e	50		 push	 eax
  0006f	e8 00 00 00 00	 call	 _isspace
  00074	83 c4 04	 add	 esp, 4
  00077	85 c0		 test	 eax, eax
  00079	75 a5		 jne	 SHORT $LL31@GetToken

; 57   : 
; 58   : 	
; 59   : 	switch(ch)

  0007b	0f be c3	 movsx	 eax, bl
  0007e	8d 48 de	 lea	 ecx, DWORD PTR [eax-34]
  00081	56		 push	 esi
  00082	83 f9 5b	 cmp	 ecx, 91			; 0000005bH
  00085	0f 87 2b 01 00
	00		 ja	 $LN6@GetToken
  0008b	0f b6 89 00 00
	00 00		 movzx	 ecx, BYTE PTR $LN46@GetToken[ecx]
  00092	ff 24 8d 00 00
	00 00		 jmp	 DWORD PTR $LN50@GetToken[ecx*4]
$LN39@GetToken:

; 34   : 		{
; 35   : 			return END;	// End of FILE (EOF)

  00099	b8 02 00 00 00	 mov	 eax, 2
  0009e	5b		 pop	 ebx

; 147  : 		}
; 148  : 		break;
; 149  : 
; 150  : 	}
; 151  : 
; 152  : 	return NAME;
; 153  : }

  0009f	8b 4d fc	 mov	 ecx, DWORD PTR __$ArrayPad$[ebp]
  000a2	33 cd		 xor	 ecx, ebp
  000a4	e8 00 00 00 00	 call	 @__security_check_cookie@4
  000a9	8b e5		 mov	 esp, ebp
  000ab	5d		 pop	 ebp
  000ac	c3		 ret	 0
$LN19@GetToken:

; 60   : 	{
; 61   : 
; 62   : 	case 0x23:	// #
; 63   : 		return CurrentToken=COMMAND;

  000ad	b8 23 00 00 00	 mov	 eax, 35			; 00000023H
  000b2	e9 99 01 00 00	 jmp	 $LN48@GetToken
$LN18@GetToken:

; 64   : 		break;
; 65   : 	
; 66   : 	case 0x3B:	// ;
; 67   : 		return CurrentToken=SEMICOLON;

  000b7	b8 3b 00 00 00	 mov	 eax, 59			; 0000003bH
  000bc	e9 8f 01 00 00	 jmp	 $LN48@GetToken
$LN17@GetToken:

; 68   : 		break;
; 69   : 	
; 70   : 	case 0x2C:	// ,
; 71   : 
; 72   : 		return CurrentToken=COMMA;

  000c1	b8 2c 00 00 00	 mov	 eax, 44			; 0000002cH
  000c6	e9 85 01 00 00	 jmp	 $LN48@GetToken
$LN16@GetToken:

; 73   : 		break;
; 74   : 	
; 75   : 	case 0x7B:	// {
; 76   : 		return CurrentToken = LP;

  000cb	b8 7b 00 00 00	 mov	 eax, 123		; 0000007bH
  000d0	e9 7b 01 00 00	 jmp	 $LN48@GetToken
$LN15@GetToken:

; 77   : 		break;
; 78   : 
; 79   : 	case 0x7D:	// }
; 80   : 		return CurrentToken = RP;

  000d5	b8 7d 00 00 00	 mov	 eax, 125		; 0000007dH
  000da	e9 71 01 00 00	 jmp	 $LN48@GetToken
$LN14@GetToken:

; 81   : 		break;
; 82   : 	// Nice Index Table :)	by Deathway
; 83   : 	// Numbers Case
; 84   : 	case 0x2D:	//-
; 85   : 	case 0x2E:	//.
; 86   : 	case '0':	//0
; 87   : 	case '1':	//1
; 88   : 	case '2':	//2
; 89   : 	case '3':	//3
; 90   : 	case '4':	//4		
; 91   : 	case '5':	//5
; 92   : 	case '6':	//6
; 93   : 	case '7':	//7
; 94   : 	case '8':	//8
; 95   : 	case '9':	//9
; 96   : 		ungetc(ch, SMDFile);

  000df	8b 15 00 00 00
	00		 mov	 edx, DWORD PTR _SMDFile
  000e5	52		 push	 edx
  000e6	50		 push	 eax
  000e7	e8 00 00 00 00	 call	 _ungetc

; 97   : 		p = TempString;
; 98   : 		
; 99   : 		while (((ch=getc(SMDFile)) != -1) && ((ch == 0x2E) || (isdigit(ch) != 0) || (ch == 0x2D)))  // 2e '.'  2D '-'

  000ec	a1 00 00 00 00	 mov	 eax, DWORD PTR _SMDFile
  000f1	50		 push	 eax
  000f2	8d 75 98	 lea	 esi, DWORD PTR _TempString$[ebp]
  000f5	e8 00 00 00 00	 call	 _getc
  000fa	8a d8		 mov	 bl, al
  000fc	83 c4 0c	 add	 esp, 12			; 0000000cH
  000ff	80 fb ff	 cmp	 bl, -1
  00102	74 33		 je	 SHORT $LN12@GetToken
$LL13@GetToken:
  00104	80 fb 2e	 cmp	 bl, 46			; 0000002eH
  00107	74 15		 je	 SHORT $LN11@GetToken
  00109	0f be cb	 movsx	 ecx, bl
  0010c	51		 push	 ecx
  0010d	e8 00 00 00 00	 call	 _isdigit
  00112	83 c4 04	 add	 esp, 4
  00115	85 c0		 test	 eax, eax
  00117	75 05		 jne	 SHORT $LN11@GetToken
  00119	80 fb 2d	 cmp	 bl, 45			; 0000002dH
  0011c	75 19		 jne	 SHORT $LN12@GetToken
$LN11@GetToken:
  0011e	8b 15 00 00 00
	00		 mov	 edx, DWORD PTR _SMDFile

; 100  : 		{
; 101  : 			*p = ch;	// Construct a String

  00124	88 1e		 mov	 BYTE PTR [esi], bl
  00126	52		 push	 edx

; 102  : 			p++;

  00127	46		 inc	 esi
  00128	e8 00 00 00 00	 call	 _getc
  0012d	8a d8		 mov	 bl, al
  0012f	83 c4 04	 add	 esp, 4
  00132	80 fb ff	 cmp	 bl, -1
  00135	75 cd		 jne	 SHORT $LL13@GetToken
$LN12@GetToken:

; 103  : 		}		
; 104  : 		*p = 0;
; 105  : 		TokenNumber = atof( TempString);	// Select the first Byte as Main ID

  00137	8d 45 98	 lea	 eax, DWORD PTR _TempString$[ebp]
  0013a	50		 push	 eax
  0013b	c6 06 00	 mov	 BYTE PTR [esi], 0
  0013e	e8 00 00 00 00	 call	 _atof
  00143	d9 1d 00 00 00
	00		 fstp	 DWORD PTR _TokenNumber
  00149	83 c4 04	 add	 esp, 4
  0014c	5e		 pop	 esi

; 106  : 		return CurrentToken  = NUMBER ;

  0014d	c7 05 00 00 00
	00 01 00 00 00	 mov	 DWORD PTR _CurrentToken, 1
  00157	b8 01 00 00 00	 mov	 eax, 1
  0015c	5b		 pop	 ebx

; 147  : 		}
; 148  : 		break;
; 149  : 
; 150  : 	}
; 151  : 
; 152  : 	return NAME;
; 153  : }

  0015d	8b 4d fc	 mov	 ecx, DWORD PTR __$ArrayPad$[ebp]
  00160	33 cd		 xor	 ecx, ebp
  00162	e8 00 00 00 00	 call	 @__security_check_cookie@4
  00167	8b e5		 mov	 esp, ebp
  00169	5d		 pop	 ebp
  0016a	c3		 ret	 0
$LN10@GetToken:

; 107  : 		break;
; 108  : 
; 109  : 	case '\"':	// "	String Case
; 110  : 		p=&TokenString[0];
; 111  : 		
; 112  : 		while (((ch=getc(SMDFile)) != -1 ) && (ch != 0x22))	// nice

  0016b	8b 0d 00 00 00
	00		 mov	 ecx, DWORD PTR _SMDFile
  00171	51		 push	 ecx
  00172	be 00 00 00 00	 mov	 esi, OFFSET _TokenString
  00177	e8 00 00 00 00	 call	 _getc
  0017c	83 c4 04	 add	 esp, 4
  0017f	3c ff		 cmp	 al, -1
  00181	74 1e		 je	 SHORT $LN8@GetToken
$LL9@GetToken:
  00183	3c 22		 cmp	 al, 34			; 00000022H
  00185	0f 84 a1 00 00
	00		 je	 $LN7@GetToken
  0018b	8b 15 00 00 00
	00		 mov	 edx, DWORD PTR _SMDFile

; 113  : 		{
; 114  : 			*p = ch;

  00191	88 06		 mov	 BYTE PTR [esi], al
  00193	52		 push	 edx

; 115  : 			p++;

  00194	46		 inc	 esi
  00195	e8 00 00 00 00	 call	 _getc
  0019a	83 c4 04	 add	 esp, 4
  0019d	3c ff		 cmp	 al, -1
  0019f	75 e2		 jne	 SHORT $LL9@GetToken
$LN8@GetToken:

; 116  : 		}
; 117  : 		if (ch != 0x22 )

  001a1	3c 22		 cmp	 al, 34			; 00000022H
  001a3	0f 84 83 00 00
	00		 je	 $LN7@GetToken

; 118  : 		{
; 119  : 			ungetc(ch, SMDFile);

  001a9	8b 0d 00 00 00
	00		 mov	 ecx, DWORD PTR _SMDFile
  001af	0f be d0	 movsx	 edx, al
  001b2	51		 push	 ecx
  001b3	52		 push	 edx

; 120  : 		}
; 121  : 		*p = 0;
; 122  : 		return CurrentToken = NAME;

  001b4	eb 6e		 jmp	 SHORT $LN49@GetToken
$LN6@GetToken:

; 123  : 		break;
; 124  : 
; 125  : 	default:	// Others
; 126  : 		if (isalpha(ch))

  001b6	50		 push	 eax
  001b7	e8 00 00 00 00	 call	 _isalpha
  001bc	83 c4 04	 add	 esp, 4
  001bf	85 c0		 test	 eax, eax
  001c1	0f 84 84 00 00
	00		 je	 $LN5@GetToken

; 127  : 		{
; 128  : 			p=&TokenString[0];
; 129  : 			*p=ch;
; 130  : 			p++;
; 131  : 
; 132  : 			while ( ((ch=getc(SMDFile)) != -1) && ( (ch == 0x2E) || (ch == 0x5F) || (isalnum(ch) != 0) ) )

  001c7	a1 00 00 00 00	 mov	 eax, DWORD PTR _SMDFile
  001cc	50		 push	 eax
  001cd	88 1d 00 00 00
	00		 mov	 BYTE PTR _TokenString, bl
  001d3	be 01 00 00 00	 mov	 esi, OFFSET _TokenString+1
  001d8	e8 00 00 00 00	 call	 _getc
  001dd	8a d8		 mov	 bl, al
  001df	83 c4 04	 add	 esp, 4
  001e2	80 fb ff	 cmp	 bl, -1
  001e5	74 33		 je	 SHORT $LN3@GetToken
$LL4@GetToken:
  001e7	80 fb 2e	 cmp	 bl, 46			; 0000002eH
  001ea	74 15		 je	 SHORT $LN2@GetToken
  001ec	80 fb 5f	 cmp	 bl, 95			; 0000005fH
  001ef	74 10		 je	 SHORT $LN2@GetToken
  001f1	0f be cb	 movsx	 ecx, bl
  001f4	51		 push	 ecx
  001f5	e8 00 00 00 00	 call	 _isalnum
  001fa	83 c4 04	 add	 esp, 4
  001fd	85 c0		 test	 eax, eax
  001ff	74 19		 je	 SHORT $LN3@GetToken
$LN2@GetToken:
  00201	8b 15 00 00 00
	00		 mov	 edx, DWORD PTR _SMDFile

; 133  : 			{
; 134  : 				*p=ch;

  00207	88 1e		 mov	 BYTE PTR [esi], bl
  00209	52		 push	 edx

; 135  : 				p++;

  0020a	46		 inc	 esi
  0020b	e8 00 00 00 00	 call	 _getc
  00210	8a d8		 mov	 bl, al
  00212	83 c4 04	 add	 esp, 4
  00215	80 fb ff	 cmp	 bl, -1
  00218	75 cd		 jne	 SHORT $LL4@GetToken
$LN3@GetToken:

; 136  : 				
; 137  : 			}
; 138  : 
; 139  : 			ungetc(ch, SMDFile);

  0021a	a1 00 00 00 00	 mov	 eax, DWORD PTR _SMDFile
  0021f	0f be cb	 movsx	 ecx, bl
  00222	50		 push	 eax
  00223	51		 push	 ecx
$LN49@GetToken:
  00224	e8 00 00 00 00	 call	 _ungetc
  00229	83 c4 08	 add	 esp, 8
$LN7@GetToken:

; 140  : 			*p=0;

  0022c	c6 06 00	 mov	 BYTE PTR [esi], 0
  0022f	5e		 pop	 esi

; 141  : 			CurrentToken=NAME;

  00230	c7 05 00 00 00
	00 00 00 00 00	 mov	 DWORD PTR _CurrentToken, 0

; 142  : 			return CurrentToken;

  0023a	33 c0		 xor	 eax, eax
  0023c	5b		 pop	 ebx

; 147  : 		}
; 148  : 		break;
; 149  : 
; 150  : 	}
; 151  : 
; 152  : 	return NAME;
; 153  : }

  0023d	8b 4d fc	 mov	 ecx, DWORD PTR __$ArrayPad$[ebp]
  00240	33 cd		 xor	 ecx, ebp
  00242	e8 00 00 00 00	 call	 @__security_check_cookie@4
  00247	8b e5		 mov	 esp, ebp
  00249	5d		 pop	 ebp
  0024a	c3		 ret	 0
$LN5@GetToken:

; 143  : 		}
; 144  : 		else
; 145  : 		{
; 146  : 			return CurrentToken = SMD_ERROR; // '<'

  0024b	b8 3c 00 00 00	 mov	 eax, 60			; 0000003cH
$LN48@GetToken:

; 147  : 		}
; 148  : 		break;
; 149  : 
; 150  : 	}
; 151  : 
; 152  : 	return NAME;
; 153  : }

  00250	8b 4d fc	 mov	 ecx, DWORD PTR __$ArrayPad$[ebp]
  00253	5e		 pop	 esi
  00254	33 cd		 xor	 ecx, ebp
  00256	a3 00 00 00 00	 mov	 DWORD PTR _CurrentToken, eax
  0025b	5b		 pop	 ebx
  0025c	e8 00 00 00 00	 call	 @__security_check_cookie@4
  00261	8b e5		 mov	 esp, ebp
  00263	5d		 pop	 ebp
  00264	c3		 ret	 0
  00265	8d 49 00	 npad	 3
$LN50@GetToken:
  00268	00 00 00 00	 DD	 $LN10@GetToken
  0026c	00 00 00 00	 DD	 $LN19@GetToken
  00270	00 00 00 00	 DD	 $LN17@GetToken
  00274	00 00 00 00	 DD	 $LN14@GetToken
  00278	00 00 00 00	 DD	 $LN18@GetToken
  0027c	00 00 00 00	 DD	 $LN16@GetToken
  00280	00 00 00 00	 DD	 $LN15@GetToken
  00284	00 00 00 00	 DD	 $LN6@GetToken
$LN46@GetToken:
  00288	00		 DB	 0
  00289	01		 DB	 1
  0028a	07		 DB	 7
  0028b	07		 DB	 7
  0028c	07		 DB	 7
  0028d	07		 DB	 7
  0028e	07		 DB	 7
  0028f	07		 DB	 7
  00290	07		 DB	 7
  00291	07		 DB	 7
  00292	02		 DB	 2
  00293	03		 DB	 3
  00294	03		 DB	 3
  00295	07		 DB	 7
  00296	03		 DB	 3
  00297	03		 DB	 3
  00298	03		 DB	 3
  00299	03		 DB	 3
  0029a	03		 DB	 3
  0029b	03		 DB	 3
  0029c	03		 DB	 3
  0029d	03		 DB	 3
  0029e	03		 DB	 3
  0029f	03		 DB	 3
  002a0	07		 DB	 7
  002a1	04		 DB	 4
  002a2	07		 DB	 7
  002a3	07		 DB	 7
  002a4	07		 DB	 7
  002a5	07		 DB	 7
  002a6	07		 DB	 7
  002a7	07		 DB	 7
  002a8	07		 DB	 7
  002a9	07		 DB	 7
  002aa	07		 DB	 7
  002ab	07		 DB	 7
  002ac	07		 DB	 7
  002ad	07		 DB	 7
  002ae	07		 DB	 7
  002af	07		 DB	 7
  002b0	07		 DB	 7
  002b1	07		 DB	 7
  002b2	07		 DB	 7
  002b3	07		 DB	 7
  002b4	07		 DB	 7
  002b5	07		 DB	 7
  002b6	07		 DB	 7
  002b7	07		 DB	 7
  002b8	07		 DB	 7
  002b9	07		 DB	 7
  002ba	07		 DB	 7
  002bb	07		 DB	 7
  002bc	07		 DB	 7
  002bd	07		 DB	 7
  002be	07		 DB	 7
  002bf	07		 DB	 7
  002c0	07		 DB	 7
  002c1	07		 DB	 7
  002c2	07		 DB	 7
  002c3	07		 DB	 7
  002c4	07		 DB	 7
  002c5	07		 DB	 7
  002c6	07		 DB	 7
  002c7	07		 DB	 7
  002c8	07		 DB	 7
  002c9	07		 DB	 7
  002ca	07		 DB	 7
  002cb	07		 DB	 7
  002cc	07		 DB	 7
  002cd	07		 DB	 7
  002ce	07		 DB	 7
  002cf	07		 DB	 7
  002d0	07		 DB	 7
  002d1	07		 DB	 7
  002d2	07		 DB	 7
  002d3	07		 DB	 7
  002d4	07		 DB	 7
  002d5	07		 DB	 7
  002d6	07		 DB	 7
  002d7	07		 DB	 7
  002d8	07		 DB	 7
  002d9	07		 DB	 7
  002da	07		 DB	 7
  002db	07		 DB	 7
  002dc	07		 DB	 7
  002dd	07		 DB	 7
  002de	07		 DB	 7
  002df	07		 DB	 7
  002e0	07		 DB	 7
  002e1	05		 DB	 5
  002e2	07		 DB	 7
  002e3	06		 DB	 6
?GetToken@@YA?AW4SMDToken@@XZ ENDP			; GetToken
_TEXT	ENDS
PUBLIC	??2@YAPAXIPAX@Z					; operator new
; Function compile flags: /Ogtp
; File c:\program files (x86)\microsoft visual studio 10.0\vc\include\new.h
;	COMDAT ??2@YAPAXIPAX@Z
_TEXT	SEGMENT
___formal$ = 8						; size = 4
__Where$ = 12						; size = 4
??2@YAPAXIPAX@Z PROC					; operator new, COMDAT

; 81   :         {return (_Where); }

  00000	55		 push	 ebp
  00001	8b ec		 mov	 ebp, esp
  00003	8b 45 0c	 mov	 eax, DWORD PTR __Where$[ebp]
  00006	5d		 pop	 ebp
  00007	c3		 ret	 0
??2@YAPAXIPAX@Z ENDP					; operator new
_TEXT	ENDS
PUBLIC	??3@YAXPAX0@Z					; operator delete
; Function compile flags: /Ogtp
;	COMDAT ??3@YAXPAX0@Z
_TEXT	SEGMENT
___formal$ = 8						; size = 4
___formal$ = 12						; size = 4
??3@YAXPAX0@Z PROC					; operator delete, COMDAT

; 83   :         {return; }

  00000	c3		 ret	 0
??3@YAXPAX0@Z ENDP					; operator delete
_TEXT	ENDS
PUBLIC	??_7CRingMonsterHerd@@6B@			; CRingMonsterHerd::`vftable'
PUBLIC	??0CRingMonsterHerd@@QAE@XZ			; CRingMonsterHerd::CRingMonsterHerd
PUBLIC	??_R4CRingMonsterHerd@@6B@			; CRingMonsterHerd::`RTTI Complete Object Locator'
PUBLIC	??_R0?AVCRingMonsterHerd@@@8			; CRingMonsterHerd `RTTI Type Descriptor'
PUBLIC	??_R3CRingMonsterHerd@@8			; CRingMonsterHerd::`RTTI Class Hierarchy Descriptor'
PUBLIC	??_R2CRingMonsterHerd@@8			; CRingMonsterHerd::`RTTI Base Class Array'
PUBLIC	??_R1A@?0A@EA@CRingMonsterHerd@@8		; CRingMonsterHerd::`RTTI Base Class Descriptor at (0,-1,0,64)'
PUBLIC	??_R1A@?0A@EA@MonsterHerd@@8			; MonsterHerd::`RTTI Base Class Descriptor at (0,-1,0,64)'
PUBLIC	??_R0?AVMonsterHerd@@@8				; MonsterHerd `RTTI Type Descriptor'
PUBLIC	??_R3MonsterHerd@@8				; MonsterHerd::`RTTI Class Hierarchy Descriptor'
PUBLIC	??_R2MonsterHerd@@8				; MonsterHerd::`RTTI Base Class Array'
PUBLIC	?Start@CRingMonsterHerd@@UAEHXZ			; CRingMonsterHerd::Start
PUBLIC	?MonsterHerdItemDrop@CRingMonsterHerd@@UAEHPAUOBJECTSTRUCT@@@Z ; CRingMonsterHerd::MonsterHerdItemDrop
PUBLIC	?MonsterAttackAction@CRingMonsterHerd@@UAEXPAUOBJECTSTRUCT@@0@Z ; CRingMonsterHerd::MonsterAttackAction
EXTRN	??0MonsterHerd@@QAE@XZ:PROC			; MonsterHerd::MonsterHerd
EXTRN	??_7type_info@@6B@:QWORD			; type_info::`vftable'
EXTRN	??_ECRingMonsterHerd@@UAEPAXI@Z:PROC		; CRingMonsterHerd::`vector deleting destructor'
EXTRN	?SetTotalInfo@MonsterHerd@@UAEHHHHH@Z:PROC	; MonsterHerd::SetTotalInfo
EXTRN	?AddMonster@MonsterHerd@@UAEHHHH@Z:PROC		; MonsterHerd::AddMonster
EXTRN	?SetRadius@MonsterHerd@@UAEXH@Z:PROC		; MonsterHerd::SetRadius
EXTRN	?SetPosition@MonsterHerd@@UAEXEE@Z:PROC		; MonsterHerd::SetPosition
EXTRN	?Stop@MonsterHerd@@UAEXXZ:PROC			; MonsterHerd::Stop
EXTRN	?CheckInRadius@MonsterHerd@@UAEHH@Z:PROC	; MonsterHerd::CheckInRadius
EXTRN	?GetCurrentLocation@MonsterHerd@@UAEHAAE0@Z:PROC ; MonsterHerd::GetCurrentLocation
EXTRN	?GetRandomLocation@MonsterHerd@@UAEHAAE0@Z:PROC	; MonsterHerd::GetRandomLocation
EXTRN	?CheckLocation@MonsterHerd@@UAEHAAE0@Z:PROC	; MonsterHerd::CheckLocation
EXTRN	?MoveHerd@MonsterHerd@@UAEHEE@Z:PROC		; MonsterHerd::MoveHerd
EXTRN	?GetMonsterData@MonsterHerd@@UAEPAU_MONSTER_HERD_DATA@@H@Z:PROC ; MonsterHerd::GetMonsterData
EXTRN	?BeenAttacked@MonsterHerd@@UAEXPAUOBJECTSTRUCT@@0@Z:PROC ; MonsterHerd::BeenAttacked
EXTRN	?OrderAttack@MonsterHerd@@UAEXPAUOBJECTSTRUCT@@0H@Z:PROC ; MonsterHerd::OrderAttack
EXTRN	?MonsterBaseAct@MonsterHerd@@UAEXPAUOBJECTSTRUCT@@@Z:PROC ; MonsterHerd::MonsterBaseAct
EXTRN	?MonsterMoveAction@MonsterHerd@@UAEXPAUOBJECTSTRUCT@@@Z:PROC ; MonsterHerd::MonsterMoveAction
EXTRN	?MonsterDieAction@MonsterHerd@@UAEXPAUOBJECTSTRUCT@@@Z:PROC ; MonsterHerd::MonsterDieAction
EXTRN	?MonsterRegenAction@MonsterHerd@@UAEHPAUOBJECTSTRUCT@@@Z:PROC ; MonsterHerd::MonsterRegenAction
;	COMDAT ??_R2MonsterHerd@@8
; File c:\users\faelhs\mu-1.1\emu - gameserver sapphire s0\gameserver\ringattackevent.cpp
rdata$r	SEGMENT
??_R2MonsterHerd@@8 DD FLAT:??_R1A@?0A@EA@MonsterHerd@@8 ; MonsterHerd::`RTTI Base Class Array'
rdata$r	ENDS
;	COMDAT ??_R3MonsterHerd@@8
rdata$r	SEGMENT
??_R3MonsterHerd@@8 DD 00H				; MonsterHerd::`RTTI Class Hierarchy Descriptor'
	DD	00H
	DD	01H
	DD	FLAT:??_R2MonsterHerd@@8
rdata$r	ENDS
;	COMDAT ??_R0?AVMonsterHerd@@@8
_DATA	SEGMENT
??_R0?AVMonsterHerd@@@8 DD FLAT:??_7type_info@@6B@	; MonsterHerd `RTTI Type Descriptor'
	DD	00H
	DB	'.?AVMonsterHerd@@', 00H
_DATA	ENDS
;	COMDAT ??_R1A@?0A@EA@MonsterHerd@@8
rdata$r	SEGMENT
??_R1A@?0A@EA@MonsterHerd@@8 DD FLAT:??_R0?AVMonsterHerd@@@8 ; MonsterHerd::`RTTI Base Class Descriptor at (0,-1,0,64)'
	DD	00H
	DD	00H
	DD	0ffffffffH
	DD	00H
	DD	040H
	DD	FLAT:??_R3MonsterHerd@@8
rdata$r	ENDS
;	COMDAT ??_R1A@?0A@EA@CRingMonsterHerd@@8
rdata$r	SEGMENT
??_R1A@?0A@EA@CRingMonsterHerd@@8 DD FLAT:??_R0?AVCRingMonsterHerd@@@8 ; CRingMonsterHerd::`RTTI Base Class Descriptor at (0,-1,0,64)'
	DD	01H
	DD	00H
	DD	0ffffffffH
	DD	00H
	DD	040H
	DD	FLAT:??_R3CRingMonsterHerd@@8
rdata$r	ENDS
;	COMDAT ??_R2CRingMonsterHerd@@8
rdata$r	SEGMENT
??_R2CRingMonsterHerd@@8 DD FLAT:??_R1A@?0A@EA@CRingMonsterHerd@@8 ; CRingMonsterHerd::`RTTI Base Class Array'
	DD	FLAT:??_R1A@?0A@EA@MonsterHerd@@8
rdata$r	ENDS
;	COMDAT ??_R3CRingMonsterHerd@@8
rdata$r	SEGMENT
??_R3CRingMonsterHerd@@8 DD 00H				; CRingMonsterHerd::`RTTI Class Hierarchy Descriptor'
	DD	00H
	DD	02H
	DD	FLAT:??_R2CRingMonsterHerd@@8
rdata$r	ENDS
;	COMDAT ??_R0?AVCRingMonsterHerd@@@8
_DATA	SEGMENT
??_R0?AVCRingMonsterHerd@@@8 DD FLAT:??_7type_info@@6B@	; CRingMonsterHerd `RTTI Type Descriptor'
	DD	00H
	DB	'.?AVCRingMonsterHerd@@', 00H
_DATA	ENDS
;	COMDAT ??_R4CRingMonsterHerd@@6B@
rdata$r	SEGMENT
??_R4CRingMonsterHerd@@6B@ DD 00H			; CRingMonsterHerd::`RTTI Complete Object Locator'
	DD	00H
	DD	00H
	DD	FLAT:??_R0?AVCRingMonsterHerd@@@8
	DD	FLAT:??_R3CRingMonsterHerd@@8
rdata$r	ENDS
;	COMDAT ??_7CRingMonsterHerd@@6B@
CONST	SEGMENT
??_7CRingMonsterHerd@@6B@ DD FLAT:??_R4CRingMonsterHerd@@6B@ ; CRingMonsterHerd::`vftable'
	DD	FLAT:??_ECRingMonsterHerd@@UAEPAXI@Z
	DD	FLAT:?SetTotalInfo@MonsterHerd@@UAEHHHHH@Z
	DD	FLAT:?AddMonster@MonsterHerd@@UAEHHHH@Z
	DD	FLAT:?SetRadius@MonsterHerd@@UAEXH@Z
	DD	FLAT:?SetPosition@MonsterHerd@@UAEXEE@Z
	DD	FLAT:?Start@CRingMonsterHerd@@UAEHXZ
	DD	FLAT:?Stop@MonsterHerd@@UAEXXZ
	DD	FLAT:?CheckInRadius@MonsterHerd@@UAEHH@Z
	DD	FLAT:?GetCurrentLocation@MonsterHerd@@UAEHAAE0@Z
	DD	FLAT:?GetRandomLocation@MonsterHerd@@UAEHAAE0@Z
	DD	FLAT:?CheckLocation@MonsterHerd@@UAEHAAE0@Z
	DD	FLAT:?MoveHerd@MonsterHerd@@UAEHEE@Z
	DD	FLAT:?MonsterHerdItemDrop@CRingMonsterHerd@@UAEHPAUOBJECTSTRUCT@@@Z
	DD	FLAT:?GetMonsterData@MonsterHerd@@UAEPAU_MONSTER_HERD_DATA@@H@Z
	DD	FLAT:?BeenAttacked@MonsterHerd@@UAEXPAUOBJECTSTRUCT@@0@Z
	DD	FLAT:?OrderAttack@MonsterHerd@@UAEXPAUOBJECTSTRUCT@@0H@Z
	DD	FLAT:?MonsterBaseAct@MonsterHerd@@UAEXPAUOBJECTSTRUCT@@@Z
	DD	FLAT:?MonsterMoveAction@MonsterHerd@@UAEXPAUOBJECTSTRUCT@@@Z
	DD	FLAT:?MonsterAttackAction@CRingMonsterHerd@@UAEXPAUOBJECTSTRUCT@@0@Z
	DD	FLAT:?MonsterDieAction@MonsterHerd@@UAEXPAUOBJECTSTRUCT@@@Z
	DD	FLAT:?MonsterRegenAction@MonsterHerd@@UAEHPAUOBJECTSTRUCT@@@Z
; Function compile flags: /Ogtp
CONST	ENDS
;	COMDAT ??0CRingMonsterHerd@@QAE@XZ
_TEXT	SEGMENT
??0CRingMonsterHerd@@QAE@XZ PROC			; CRingMonsterHerd::CRingMonsterHerd, COMDAT
; _this$ = ecx

; 17   : {

  00000	56		 push	 esi
  00001	8b f1		 mov	 esi, ecx
  00003	e8 00 00 00 00	 call	 ??0MonsterHerd@@QAE@XZ	; MonsterHerd::MonsterHerd
  00008	c7 06 00 00 00
	00		 mov	 DWORD PTR [esi], OFFSET ??_7CRingMonsterHerd@@6B@

; 18   : 	return;
; 19   : }

  0000e	8b c6		 mov	 eax, esi
  00010	5e		 pop	 esi
  00011	c3		 ret	 0
??0CRingMonsterHerd@@QAE@XZ ENDP			; CRingMonsterHerd::CRingMonsterHerd
_TEXT	ENDS
PUBLIC	??1CRingMonsterHerd@@UAE@XZ			; CRingMonsterHerd::~CRingMonsterHerd
EXTRN	??1MonsterHerd@@UAE@XZ:PROC			; MonsterHerd::~MonsterHerd
; Function compile flags: /Ogtp
;	COMDAT ??1CRingMonsterHerd@@UAE@XZ
_TEXT	SEGMENT
??1CRingMonsterHerd@@UAE@XZ PROC			; CRingMonsterHerd::~CRingMonsterHerd, COMDAT
; _this$ = ecx

; 24   : {

  00000	c7 01 00 00 00
	00		 mov	 DWORD PTR [ecx], OFFSET ??_7CRingMonsterHerd@@6B@

; 25   : 	return;
; 26   : }

  00006	e9 00 00 00 00	 jmp	 ??1MonsterHerd@@UAE@XZ	; MonsterHerd::~MonsterHerd
??1CRingMonsterHerd@@UAE@XZ ENDP			; CRingMonsterHerd::~CRingMonsterHerd
_TEXT	ENDS
EXTRN	?Start@MonsterHerd@@UAEHXZ:PROC			; MonsterHerd::Start
; Function compile flags: /Ogtp
;	COMDAT ?Start@CRingMonsterHerd@@UAEHXZ
_TEXT	SEGMENT
?Start@CRingMonsterHerd@@UAEHXZ PROC			; CRingMonsterHerd::Start, COMDAT
; _this$ = ecx

; 30   : 	this->m_bEventSuccess = FALSE;

  00000	c7 41 48 00 00
	00 00		 mov	 DWORD PTR [ecx+72], 0

; 31   : 	return this->MonsterHerd::Start();

  00007	e9 00 00 00 00	 jmp	 ?Start@MonsterHerd@@UAEHXZ ; MonsterHerd::Start
?Start@CRingMonsterHerd@@UAEHXZ ENDP			; CRingMonsterHerd::Start
; Function compile flags: /Ogtp
_TEXT	ENDS
;	COMDAT ?MonsterAttackAction@CRingMonsterHerd@@UAEXPAUOBJECTSTRUCT@@0@Z
_TEXT	SEGMENT
_lpObj$ = 8						; size = 4
_lpTargetObj$ = 12					; size = 4
?MonsterAttackAction@CRingMonsterHerd@@UAEXPAUOBJECTSTRUCT@@0@Z PROC ; CRingMonsterHerd::MonsterAttackAction, COMDAT
; _this$ = ecx

; 82   : {

  00000	55		 push	 ebp
  00001	8b ec		 mov	 ebp, esp

; 83   : 	if ( lpObj->m_SkillHarden != 0 )

  00003	8b 45 08	 mov	 eax, DWORD PTR _lpObj$[ebp]
  00006	83 b8 98 02 00
	00 00		 cmp	 DWORD PTR [eax+664], 0
  0000d	75 3e		 jne	 SHORT $LN3@MonsterAtt

; 84   : 	{
; 85   : 		return;
; 86   : 	}
; 87   : 
; 88   : 	if ( lpObj->m_iSkillStunTime > 0 )

  0000f	83 b8 dc 14 00
	00 00		 cmp	 DWORD PTR [eax+5340], 0
  00016	7f 35		 jg	 SHORT $LN3@MonsterAtt

; 89   : 	{
; 90   : 		return;
; 91   : 	}
; 92   : 
; 93   : 	if ( lpObj == NULL )
; 94   : 	{
; 95   : 		return;
; 96   : 	}
; 97   : 
; 98   : 	if ( lpTargetObj == NULL )

  00018	8b 55 0c	 mov	 edx, DWORD PTR _lpTargetObj$[ebp]
  0001b	85 d2		 test	 edx, edx
  0001d	74 2e		 je	 SHORT $LN3@MonsterAtt

; 99   : 	{
; 100  : 		return;
; 101  : 	}
; 102  : 
; 103  : 	if ( lpObj->Connected < PLAYER_PLAYING || lpObj->Type != OBJ_MONSTER )

  0001f	80 78 04 03	 cmp	 BYTE PTR [eax+4], 3
  00023	72 28		 jb	 SHORT $LN3@MonsterAtt
  00025	66 83 78 60 02	 cmp	 WORD PTR [eax+96], 2
  0002a	75 21		 jne	 SHORT $LN3@MonsterAtt

; 104  : 	{
; 105  : 		return;
; 106  : 	}
; 107  : 
; 108  : 	if ( lpTargetObj->Connected < PLAYER_PLAYING )

  0002c	80 7a 04 03	 cmp	 BYTE PTR [edx+4], 3
  00030	72 1b		 jb	 SHORT $LN3@MonsterAtt

; 109  : 	{
; 110  : 		return;
; 111  : 	}
; 112  : 
; 113  : 	if ( lpObj->Class == 135 )

  00032	56		 push	 esi
  00033	be 87 00 00 00	 mov	 esi, 135		; 00000087H
  00038	66 39 b0 98 00
	00 00		 cmp	 WORD PTR [eax+152], si
  0003f	75 0b		 jne	 SHORT $LN11@MonsterAtt

; 114  : 	{
; 115  : 		this->OrderAttack(lpObj, lpTargetObj, 90 );

  00041	8b 31		 mov	 esi, DWORD PTR [ecx]
  00043	6a 5a		 push	 90			; 0000005aH
  00045	52		 push	 edx
  00046	50		 push	 eax
  00047	8b 46 3c	 mov	 eax, DWORD PTR [esi+60]
  0004a	ff d0		 call	 eax
$LN11@MonsterAtt:
  0004c	5e		 pop	 esi
$LN3@MonsterAtt:

; 116  : 	}
; 117  : }

  0004d	5d		 pop	 ebp
  0004e	c2 08 00	 ret	 8
?MonsterAttackAction@CRingMonsterHerd@@UAEXPAUOBJECTSTRUCT@@0@Z ENDP ; CRingMonsterHerd::MonsterAttackAction
_TEXT	ENDS
PUBLIC	??_C@_0EA@DGMJBKOB@?$FLRing?5Event?$FN?5?$FL?$CFs?$FN?$FL?$CFs?$FN?5Request?5to@ ; `string'
PUBLIC	__$ArrayPad$
PUBLIC	?SendEventGiftWinner@CRingMonsterHerd@@QAEXHH@Z	; CRingMonsterHerd::SendEventGiftWinner
EXTRN	?LogAdd@@YAXW4eLogColor@@PADZZ:PROC		; LogAdd
EXTRN	?DataSendEventChip@@YAXPADH@Z:PROC		; DataSendEventChip
EXTRN	?PHeadSetB@@YAXPAEEH@Z:PROC			; PHeadSetB
EXTRN	?gObj@@3PAUOBJECTSTRUCT@@A:BYTE			; gObj
EXTRN	?gObjIsConnected@@YAHH@Z:PROC			; gObjIsConnected
;	COMDAT ??_C@_0EA@DGMJBKOB@?$FLRing?5Event?$FN?5?$FL?$CFs?$FN?$FL?$CFs?$FN?5Request?5to@
CONST	SEGMENT
??_C@_0EA@DGMJBKOB@?$FLRing?5Event?$FN?5?$FL?$CFs?$FN?$FL?$CFs?$FN?5Request?5to@ DB '['
	DB	'Ring Event] [%s][%s] Request to Register Gift - Gift Kind (%d'
	DB	')', 00H					; `string'
; Function compile flags: /Ogtp
CONST	ENDS
;	COMDAT ?SendEventGiftWinner@CRingMonsterHerd@@QAEXHH@Z
_TEXT	SEGMENT
_pMsg$ = -24						; size = 20
__$ArrayPad$ = -4					; size = 4
_iIndex$ = 8						; size = 4
_iGiftKind$ = 12					; size = 4
?SendEventGiftWinner@CRingMonsterHerd@@QAEXHH@Z PROC	; CRingMonsterHerd::SendEventGiftWinner, COMDAT
; _this$ = ecx

; 135  : {

  00000	55		 push	 ebp
  00001	8b ec		 mov	 ebp, esp
  00003	83 ec 18	 sub	 esp, 24			; 00000018H
  00006	a1 00 00 00 00	 mov	 eax, DWORD PTR ___security_cookie
  0000b	33 c5		 xor	 eax, ebp
  0000d	89 45 fc	 mov	 DWORD PTR __$ArrayPad$[ebp], eax
  00010	56		 push	 esi
  00011	8b 75 08	 mov	 esi, DWORD PTR _iIndex$[ebp]

; 136  : 	if ( gObjIsConnected(iIndex) == FALSE )

  00014	56		 push	 esi
  00015	e8 00 00 00 00	 call	 ?gObjIsConnected@@YAHH@Z ; gObjIsConnected
  0001a	83 c4 04	 add	 esp, 4
  0001d	85 c0		 test	 eax, eax
  0001f	74 7b		 je	 SHORT $LN3@SendEventG

; 137  : 	{
; 138  : 		return;
; 139  : 	}
; 140  : 
; 141  : 	if ( gObj[iIndex].UseEventServer != FALSE )

  00021	57		 push	 edi
  00022	8b fe		 mov	 edi, esi
  00024	69 ff 64 15 00
	00		 imul	 edi, 5476		; 00001564H
  0002a	83 bf b4 0e 00
	00 00		 cmp	 DWORD PTR ?gObj@@3PAUOBJECTSTRUCT@@A[edi+3764], 0
  00031	75 68		 jne	 SHORT $LN5@SendEventG

; 142  : 	{
; 143  : 		return;
; 144  : 	}
; 145  : 
; 146  : 	gObj[iIndex].UseEventServer = TRUE;
; 147  : 
; 148  : 	PMSG_REQ_REG_RINGGIFT pMsg;
; 149  : 
; 150  : 	PHeadSetB((LPBYTE)&pMsg, 0x10, sizeof(pMsg));

  00033	53		 push	 ebx
  00034	6a 14		 push	 20			; 00000014H
  00036	8d 45 e8	 lea	 eax, DWORD PTR _pMsg$[ebp]
  00039	6a 10		 push	 16			; 00000010H
  0003b	50		 push	 eax
  0003c	c7 87 b4 0e 00
	00 01 00 00 00	 mov	 DWORD PTR ?gObj@@3PAUOBJECTSTRUCT@@A[edi+3764], 1
  00046	e8 00 00 00 00	 call	 ?PHeadSetB@@YAXPAEEH@Z	; PHeadSetB

; 151  : 	pMsg.iINDEX  = iIndex;
; 152  : 	memcpy(pMsg.szUID, gObj[iIndex].AccountID, MAX_ACCOUNT_LEN);

  0004b	8b 8f 64 00 00
	00		 mov	 ecx, DWORD PTR ?gObj@@3PAUOBJECTSTRUCT@@A[edi+100]
  00051	8b 97 68 00 00
	00		 mov	 edx, DWORD PTR ?gObj@@3PAUOBJECTSTRUCT@@A[edi+104]
  00057	66 8b 87 6c 00
	00 00		 mov	 ax, WORD PTR ?gObj@@3PAUOBJECTSTRUCT@@A[edi+108]

; 153  : 	pMsg.szUID[MAX_ACCOUNT_LEN+1] = 0;	// #error Remove the +1 to avoid problems
; 154  : 	pMsg.btGiftKind = iGiftKind;

  0005e	8b 5d 0c	 mov	 ebx, DWORD PTR _iGiftKind$[ebp]
  00061	89 75 ec	 mov	 DWORD PTR _pMsg$[ebp+4], esi
  00064	8d b7 64 00 00
	00		 lea	 esi, DWORD PTR ?gObj@@3PAUOBJECTSTRUCT@@A[edi+100]
  0006a	89 4d f0	 mov	 DWORD PTR _pMsg$[ebp+8], ecx

; 155  : 
; 156  : 	DataSendEventChip((PCHAR)&pMsg, sizeof(pMsg));

  0006d	8d 4d e8	 lea	 ecx, DWORD PTR _pMsg$[ebp]
  00070	6a 14		 push	 20			; 00000014H
  00072	51		 push	 ecx
  00073	89 55 f4	 mov	 DWORD PTR _pMsg$[ebp+12], edx
  00076	66 89 45 f8	 mov	 WORD PTR _pMsg$[ebp+16], ax
  0007a	88 5d fb	 mov	 BYTE PTR _pMsg$[ebp+19], bl
  0007d	e8 00 00 00 00	 call	 ?DataSendEventChip@@YAXPADH@Z ; DataSendEventChip

; 157  : 
; 158  : 	LogAdd(LOG_BLACK, "[Ring Event] [%s][%s] Request to Register Gift - Gift Kind (%d)",
; 159  : 		gObj[iIndex].AccountID, gObj[iIndex].Name,  iGiftKind);

  00082	53		 push	 ebx
  00083	8d 97 6f 00 00
	00		 lea	 edx, DWORD PTR ?gObj@@3PAUOBJECTSTRUCT@@A[edi+111]
  00089	52		 push	 edx
  0008a	56		 push	 esi
  0008b	68 00 00 00 00	 push	 OFFSET ??_C@_0EA@DGMJBKOB@?$FLRing?5Event?$FN?5?$FL?$CFs?$FN?$FL?$CFs?$FN?5Request?5to@
  00090	6a 00		 push	 0
  00092	e8 00 00 00 00	 call	 ?LogAdd@@YAXW4eLogColor@@PADZZ ; LogAdd
  00097	83 c4 28	 add	 esp, 40			; 00000028H
  0009a	5b		 pop	 ebx
$LN5@SendEventG:
  0009b	5f		 pop	 edi
$LN3@SendEventG:

; 160  : 
; 161  : }

  0009c	8b 4d fc	 mov	 ecx, DWORD PTR __$ArrayPad$[ebp]
  0009f	33 cd		 xor	 ecx, ebp
  000a1	5e		 pop	 esi
  000a2	e8 00 00 00 00	 call	 @__security_check_cookie@4
  000a7	8b e5		 mov	 esp, ebp
  000a9	5d		 pop	 ebp
  000aa	c2 08 00	 ret	 8
?SendEventGiftWinner@CRingMonsterHerd@@QAEXHH@Z ENDP	; CRingMonsterHerd::SendEventGiftWinner
_TEXT	ENDS
PUBLIC	?StopEvent@CRingAttackEvent@@QAEXXZ		; CRingAttackEvent::StopEvent
; Function compile flags: /Ogtp
;	COMDAT ?StopEvent@CRingAttackEvent@@QAEXXZ
_TEXT	SEGMENT
?StopEvent@CRingAttackEvent@@QAEXXZ PROC		; CRingAttackEvent::StopEvent, COMDAT
; _this$ = ecx

; 268  : {

  00000	53		 push	 ebx
  00001	56		 push	 esi
  00002	8b d9		 mov	 ebx, ecx
  00004	57		 push	 edi

; 269  : 	for ( int i=0;i<MAX_RINGMONSTER_MAP;i++)

  00005	8d 73 04	 lea	 esi, DWORD PTR [ebx+4]
  00008	bf 03 00 00 00	 mov	 edi, 3
  0000d	8d 49 00	 npad	 3
$LL3@StopEvent:

; 270  : 	{
; 271  : 		this->m_RingMonsterHerd[i].Stop();

  00010	8b 06		 mov	 eax, DWORD PTR [esi]
  00012	8b 50 18	 mov	 edx, DWORD PTR [eax+24]
  00015	8b ce		 mov	 ecx, esi
  00017	ff d2		 call	 edx
  00019	83 c6 4c	 add	 esi, 76			; 0000004cH
  0001c	4f		 dec	 edi
  0001d	75 f1		 jne	 SHORT $LL3@StopEvent

; 272  : 	}
; 273  : 
; 274  : 	this->m_bMonsterToDest = FALSE;

  0001f	89 bb f0 00 00
	00		 mov	 DWORD PTR [ebx+240], edi
  00025	5f		 pop	 edi
  00026	5e		 pop	 esi
  00027	5b		 pop	 ebx

; 275  : }

  00028	c3		 ret	 0
?StopEvent@CRingAttackEvent@@QAEXXZ ENDP		; CRingAttackEvent::StopEvent
_TEXT	ENDS
PUBLIC	?ProcState_None@CRingAttackEvent@@QAEXXZ	; CRingAttackEvent::ProcState_None
; Function compile flags: /Ogtp
;	COMDAT ?ProcState_None@CRingAttackEvent@@QAEXXZ
_TEXT	SEGMENT
?ProcState_None@CRingAttackEvent@@QAEXXZ PROC		; CRingAttackEvent::ProcState_None, COMDAT
; _this$ = ecx

; 532  : 	return;
; 533  : }

  00000	c3		 ret	 0
?ProcState_None@CRingAttackEvent@@QAEXXZ ENDP		; CRingAttackEvent::ProcState_None
_TEXT	ENDS
PUBLIC	?SetState_None@CRingAttackEvent@@QAEXXZ		; CRingAttackEvent::SetState_None
; Function compile flags: /Ogtp
;	COMDAT ?SetState_None@CRingAttackEvent@@QAEXXZ
_TEXT	SEGMENT
?SetState_None@CRingAttackEvent@@QAEXXZ PROC		; CRingAttackEvent::SetState_None, COMDAT
; _this$ = ecx

; 701  : 	this->StopEvent();

  00000	e9 00 00 00 00	 jmp	 ?StopEvent@CRingAttackEvent@@QAEXXZ ; CRingAttackEvent::StopEvent
?SetState_None@CRingAttackEvent@@QAEXXZ ENDP		; CRingAttackEvent::SetState_None
_TEXT	ENDS
PUBLIC	??_C@_0DK@PFGAPPAF@?$FLRing?5Event?$FN?5?9?5Monster?5Herd?5Move@ ; `string'
PUBLIC	?Move@CRingAttackEvent@@QAEXXZ			; CRingAttackEvent::Move
EXTRN	_rand:PROC
;	COMDAT ??_C@_0DK@PFGAPPAF@?$FLRing?5Event?$FN?5?9?5Monster?5Herd?5Move@
CONST	SEGMENT
??_C@_0DK@PFGAPPAF@?$FLRing?5Event?$FN?5?9?5Monster?5Herd?5Move@ DB '[Rin'
	DB	'g Event] - Monster Herd Move MapNumber:%d, X:%d, Y:%d', 00H ; `string'
; Function compile flags: /Ogtp
CONST	ENDS
;	COMDAT ?Move@CRingAttackEvent@@QAEXXZ
_TEXT	SEGMENT
tv359 = -24						; size = 4
tv131 = -24						; size = 4
tv80 = -24						; size = 4
tv425 = -20						; size = 4
_iRandY$155845 = -16					; size = 1
_iRandX$155844 = -12					; size = 1
tv458 = -8						; size = 4
_iCY$155847 = -2					; size = 1
_iCX$155846 = -1					; size = 1
?Move@CRingAttackEvent@@QAEXXZ PROC			; CRingAttackEvent::Move, COMDAT
; _this$ = ecx

; 728  : {

  00000	55		 push	 ebp
  00001	8b ec		 mov	 ebp, esp
  00003	83 ec 18	 sub	 esp, 24			; 00000018H
  00006	56		 push	 esi
  00007	8b f1		 mov	 esi, ecx

; 729  : 	if ( this->m_bDoEvent )

  00009	83 be e8 00 00
	00 00		 cmp	 DWORD PTR [esi+232], 0
  00010	0f 84 57 01 00
	00		 je	 $LN24@Move

; 730  : 	{
; 731  : 		if ( this->m_bMonsterToDest )

  00016	83 be f0 00 00
	00 00		 cmp	 DWORD PTR [esi+240], 0
  0001d	0f 85 4a 01 00
	00		 jne	 $LN24@Move

; 732  : 			return;
; 733  : 
; 734  : 		BYTE iRandX;
; 735  : 		BYTE iRandY;
; 736  : 		BYTE iCX;
; 737  : 		BYTE iCY;
; 738  : 
; 739  : 		for ( int i=0;i<MAX_RINGMONSTER_MAP;i++)

  00023	53		 push	 ebx
  00024	8d 4e 04	 lea	 ecx, DWORD PTR [esi+4]
  00027	57		 push	 edi
  00028	33 db		 xor	 ebx, ebx
  0002a	c7 45 ec 00 00
	00 00		 mov	 DWORD PTR tv425[ebp], OFFSET _g_RingEventMapNum
  00031	89 4d f8	 mov	 DWORD PTR tv458[ebp], ecx
  00034	eb 03		 jmp	 SHORT $LN14@Move
$LL29@Move:
  00036	8b 4d f8	 mov	 ecx, DWORD PTR tv458[ebp]
$LN14@Move:

; 740  : 		{
; 741  : 			int iCount = 1000;
; 742  : 
; 743  : 			if ( this->m_RingMonsterHerd[i].GetCurrentLocation(iCX, iCY) == FALSE )

  00039	8b 01		 mov	 eax, DWORD PTR [ecx]
  0003b	8b 40 20	 mov	 eax, DWORD PTR [eax+32]
  0003e	8d 55 fe	 lea	 edx, DWORD PTR _iCY$155847[ebp]
  00041	52		 push	 edx
  00042	8d 55 ff	 lea	 edx, DWORD PTR _iCX$155846[ebp]
  00045	52		 push	 edx
  00046	bf e8 03 00 00	 mov	 edi, 1000		; 000003e8H
  0004b	ff d0		 call	 eax
  0004d	85 c0		 test	 eax, eax
  0004f	0f 84 16 01 00
	00		 je	 $LN30@Move
$LL10@Move:

; 744  : 				return;
; 745  : 
; 746  : 			while ( iCount-- != 0 )

  00055	4f		 dec	 edi

; 747  : 			{
; 748  : 				iRandX = (rand() % this->m_iMOVE_RAND_SIZE) * ( (rand() % 3 -1) * -1 ) + iCX;

  00056	e8 00 00 00 00	 call	 _rand
  0005b	99		 cdq
  0005c	f7 be 10 01 00
	00		 idiv	 DWORD PTR [esi+272]
  00062	89 55 e8	 mov	 DWORD PTR tv80[ebp], edx
  00065	e8 00 00 00 00	 call	 _rand
  0006a	99		 cdq
  0006b	b9 03 00 00 00	 mov	 ecx, 3
  00070	f7 f9		 idiv	 ecx
  00072	8b c2		 mov	 eax, edx
  00074	8a 55 ff	 mov	 dl, BYTE PTR _iCX$155846[ebp]
  00077	fe c8		 dec	 al
  00079	f6 6d e8	 imul	 BYTE PTR tv80[ebp]
  0007c	2a d0		 sub	 dl, al
  0007e	88 55 f4	 mov	 BYTE PTR _iRandX$155844[ebp], dl

; 749  : 				iRandY = (rand() % this->m_iMOVE_RAND_SIZE) * ( (rand() % 3 -1) * -1 ) + iCY;

  00081	e8 00 00 00 00	 call	 _rand
  00086	99		 cdq
  00087	f7 be 10 01 00
	00		 idiv	 DWORD PTR [esi+272]
  0008d	89 55 e8	 mov	 DWORD PTR tv131[ebp], edx
  00090	e8 00 00 00 00	 call	 _rand
  00095	99		 cdq
  00096	b9 03 00 00 00	 mov	 ecx, 3
  0009b	f7 f9		 idiv	 ecx
  0009d	8a 4d fe	 mov	 cl, BYTE PTR _iCY$155847[ebp]
  000a0	8b c2		 mov	 eax, edx
  000a2	fe c8		 dec	 al
  000a4	f6 6d e8	 imul	 BYTE PTR tv131[ebp]
  000a7	2a c8		 sub	 cl, al

; 750  : 
; 751  : 				if ( iRandX < g_RingMapPosition[i][0] || iRandX > g_RingMapPosition[i][2] )

  000a9	0f b6 45 f4	 movzx	 eax, BYTE PTR _iRandX$155844[ebp]
  000ad	88 4d f0	 mov	 BYTE PTR _iRandY$155845[ebp], cl
  000b0	3b 83 00 00 00
	00		 cmp	 eax, DWORD PTR _g_RingMapPosition[ebx]
  000b6	7c 31		 jl	 SHORT $LN5@Move
  000b8	3b 83 08 00 00
	00		 cmp	 eax, DWORD PTR _g_RingMapPosition[ebx+8]
  000be	7f 29		 jg	 SHORT $LN5@Move

; 752  : 					continue;
; 753  : 
; 754  : 				if ( iRandY < g_RingMapPosition[i][1] || iRandY > g_RingMapPosition[i][3] )

  000c0	0f b6 c1	 movzx	 eax, cl
  000c3	3b 83 04 00 00
	00		 cmp	 eax, DWORD PTR _g_RingMapPosition[ebx+4]
  000c9	7c 1e		 jl	 SHORT $LN5@Move
  000cb	3b 83 0c 00 00
	00		 cmp	 eax, DWORD PTR _g_RingMapPosition[ebx+12]
  000d1	7f 16		 jg	 SHORT $LN5@Move

; 755  : 					continue;
; 756  : 
; 757  : 				if ( this->m_RingMonsterHerd[i].CheckLocation(iRandX, iRandY) != FALSE )

  000d3	8b 4d f8	 mov	 ecx, DWORD PTR tv458[ebp]
  000d6	8b 11		 mov	 edx, DWORD PTR [ecx]
  000d8	8b 52 28	 mov	 edx, DWORD PTR [edx+40]
  000db	8d 45 f0	 lea	 eax, DWORD PTR _iRandY$155845[ebp]
  000de	50		 push	 eax
  000df	8d 45 f4	 lea	 eax, DWORD PTR _iRandX$155844[ebp]
  000e2	50		 push	 eax
  000e3	ff d2		 call	 edx
  000e5	85 c0		 test	 eax, eax
  000e7	75 08		 jne	 SHORT $LN23@Move
$LN5@Move:

; 744  : 				return;
; 745  : 
; 746  : 			while ( iCount-- != 0 )

  000e9	85 ff		 test	 edi, edi
  000eb	0f 85 64 ff ff
	ff		 jne	 $LL10@Move
$LN23@Move:

; 758  : 					break;
; 759  : 			}
; 760  : 
; 761  : 			if ( this->m_RingMonsterHerd[i].MoveHerd(iRandX, iRandY) != FALSE )

  000f1	8b 4d f0	 mov	 ecx, DWORD PTR _iRandY$155845[ebp]
  000f4	8b 7d f8	 mov	 edi, DWORD PTR tv458[ebp]
  000f7	8b 07		 mov	 eax, DWORD PTR [edi]
  000f9	8b 55 f4	 mov	 edx, DWORD PTR _iRandX$155844[ebp]
  000fc	8b 40 2c	 mov	 eax, DWORD PTR [eax+44]
  000ff	51		 push	 ecx
  00100	52		 push	 edx
  00101	8b cf		 mov	 ecx, edi
  00103	ff d0		 call	 eax
  00105	85 c0		 test	 eax, eax
  00107	74 1f		 je	 SHORT $LN3@Move

; 762  : 			{
; 763  : 				LogAdd(LOG_BLACK, "[Ring Event] - Monster Herd Move MapNumber:%d, X:%d, Y:%d",
; 764  : 					g_RingEventMapNum[i], iRandX, iRandY);

  00109	0f b6 4d f0	 movzx	 ecx, BYTE PTR _iRandY$155845[ebp]
  0010d	0f b6 55 f4	 movzx	 edx, BYTE PTR _iRandX$155844[ebp]
  00111	8b 45 ec	 mov	 eax, DWORD PTR tv425[ebp]
  00114	51		 push	 ecx
  00115	8b 08		 mov	 ecx, DWORD PTR [eax]
  00117	52		 push	 edx
  00118	51		 push	 ecx
  00119	68 00 00 00 00	 push	 OFFSET ??_C@_0DK@PFGAPPAF@?$FLRing?5Event?$FN?5?9?5Monster?5Herd?5Move@
  0011e	6a 00		 push	 0
  00120	e8 00 00 00 00	 call	 ?LogAdd@@YAXW4eLogColor@@PADZZ ; LogAdd
  00125	83 c4 14	 add	 esp, 20			; 00000014H
$LN3@Move:

; 765  : 			}
; 766  : 
; 767  : 			int iDIVIDE = this->m_iRADIUS_MAX - this->m_iRADIUS_MIN;
; 768  : 
; 769  : 			if ( iDIVIDE <= 0 )
; 770  : 				iDIVIDE = 1;
; 771  : 
; 772  : 			int iRADIUS = iDIVIDE + this->m_iRADIUS_MIN;
; 773  : 
; 774  : 			if ( iRADIUS <= 3 )
; 775  : 				iRADIUS = 3;
; 776  : 
; 777  : 			this->m_RingMonsterHerd[i].SetRadius((rand() % (this->m_iRADIUS_MAX - this->m_iRADIUS_MIN)) + this->m_iRADIUS_MIN);

  00128	8b 96 14 01 00
	00		 mov	 edx, DWORD PTR [esi+276]
  0012e	8b 3f		 mov	 edi, DWORD PTR [edi]
  00130	89 55 e8	 mov	 DWORD PTR tv359[ebp], edx
  00133	e8 00 00 00 00	 call	 _rand
  00138	8b 8e 18 01 00
	00		 mov	 ecx, DWORD PTR [esi+280]
  0013e	2b 4d e8	 sub	 ecx, DWORD PTR tv359[ebp]
  00141	99		 cdq
  00142	f7 f9		 idiv	 ecx
  00144	8b 4d f8	 mov	 ecx, DWORD PTR tv458[ebp]
  00147	03 55 e8	 add	 edx, DWORD PTR tv359[ebp]
  0014a	52		 push	 edx
  0014b	8b 57 0c	 mov	 edx, DWORD PTR [edi+12]
  0014e	ff d2		 call	 edx
  00150	8b 45 ec	 mov	 eax, DWORD PTR tv425[ebp]
  00153	83 45 f8 4c	 add	 DWORD PTR tv458[ebp], 76 ; 0000004cH
  00157	83 c0 04	 add	 eax, 4
  0015a	83 c3 10	 add	 ebx, 16			; 00000010H
  0015d	89 45 ec	 mov	 DWORD PTR tv425[ebp], eax
  00160	3d 0c 00 00 00	 cmp	 eax, OFFSET _g_RingEventMapNum+12
  00165	0f 8c cb fe ff
	ff		 jl	 $LL29@Move
$LN30@Move:
  0016b	5f		 pop	 edi
  0016c	5b		 pop	 ebx
$LN24@Move:
  0016d	5e		 pop	 esi

; 778  : 		}
; 779  : 	}
; 780  : }

  0016e	8b e5		 mov	 esp, ebp
  00170	5d		 pop	 ebp
  00171	c3		 ret	 0
?Move@CRingAttackEvent@@QAEXXZ ENDP			; CRingAttackEvent::Move
_TEXT	ENDS
PUBLIC	?End_Menual@CRingAttackEvent@@QAEXXZ		; CRingAttackEvent::End_Menual
; Function compile flags: /Ogtp
;	COMDAT ?End_Menual@CRingAttackEvent@@QAEXXZ
_TEXT	SEGMENT
?End_Menual@CRingAttackEvent@@QAEXXZ PROC		; CRingAttackEvent::End_Menual, COMDAT
; _this$ = ecx

; 809  : 	this->SetMenualStart(0);

  00000	c7 81 54 01 00
	00 00 00 00 00	 mov	 DWORD PTR [ecx+340], 0

; 810  : }

  0000a	c3		 ret	 0
?End_Menual@CRingAttackEvent@@QAEXXZ ENDP		; CRingAttackEvent::End_Menual
_TEXT	ENDS
PUBLIC	?empty@?$vector@URINGMONSTER_DATA@@V?$allocator@URINGMONSTER_DATA@@@std@@@std@@QBE_NXZ ; std::vector<RINGMONSTER_DATA,std::allocator<RINGMONSTER_DATA> >::empty
; Function compile flags: /Ogtp
; File c:\program files (x86)\microsoft visual studio 10.0\vc\include\vector
;	COMDAT ?empty@?$vector@URINGMONSTER_DATA@@V?$allocator@URINGMONSTER_DATA@@@std@@@std@@QBE_NXZ
_TEXT	SEGMENT
?empty@?$vector@URINGMONSTER_DATA@@V?$allocator@URINGMONSTER_DATA@@@std@@@std@@QBE_NXZ PROC ; std::vector<RINGMONSTER_DATA,std::allocator<RINGMONSTER_DATA> >::empty, COMDAT
; _this$ = ecx

; 889  : 		return (this->_Myfirst == this->_Mylast);

  00000	8b 01		 mov	 eax, DWORD PTR [ecx]
  00002	33 d2		 xor	 edx, edx
  00004	3b 41 04	 cmp	 eax, DWORD PTR [ecx+4]
  00007	0f 94 c0	 sete	 al

; 890  : 		}

  0000a	c3		 ret	 0
?empty@?$vector@URINGMONSTER_DATA@@V?$allocator@URINGMONSTER_DATA@@@std@@@std@@QBE_NXZ ENDP ; std::vector<RINGMONSTER_DATA,std::allocator<RINGMONSTER_DATA> >::empty
_TEXT	ENDS
PUBLIC	?empty@?$vector@URINGMONSTER_EVENT_TIME@@V?$allocator@URINGMONSTER_EVENT_TIME@@@std@@@std@@QBE_NXZ ; std::vector<RINGMONSTER_EVENT_TIME,std::allocator<RINGMONSTER_EVENT_TIME> >::empty
; Function compile flags: /Ogtp
;	COMDAT ?empty@?$vector@URINGMONSTER_EVENT_TIME@@V?$allocator@URINGMONSTER_EVENT_TIME@@@std@@@std@@QBE_NXZ
_TEXT	SEGMENT
?empty@?$vector@URINGMONSTER_EVENT_TIME@@V?$allocator@URINGMONSTER_EVENT_TIME@@@std@@@std@@QBE_NXZ PROC ; std::vector<RINGMONSTER_EVENT_TIME,std::allocator<RINGMONSTER_EVENT_TIME> >::empty, COMDAT
; _this$ = ecx

; 889  : 		return (this->_Myfirst == this->_Mylast);

  00000	8b 01		 mov	 eax, DWORD PTR [ecx]
  00002	33 d2		 xor	 edx, edx
  00004	3b 41 04	 cmp	 eax, DWORD PTR [ecx+4]
  00007	0f 94 c0	 sete	 al

; 890  : 		}

  0000a	c3		 ret	 0
?empty@?$vector@URINGMONSTER_EVENT_TIME@@V?$allocator@URINGMONSTER_EVENT_TIME@@@std@@@std@@QBE_NXZ ENDP ; std::vector<RINGMONSTER_EVENT_TIME,std::allocator<RINGMONSTER_EVENT_TIME> >::empty
_TEXT	ENDS
PUBLIC	?_Inside@?$vector@URINGMONSTER_DATA@@V?$allocator@URINGMONSTER_DATA@@@std@@@std@@IBE_NPBURINGMONSTER_DATA@@@Z ; std::vector<RINGMONSTER_DATA,std::allocator<RINGMONSTER_DATA> >::_Inside
; Function compile flags: /Ogtp
;	COMDAT ?_Inside@?$vector@URINGMONSTER_DATA@@V?$allocator@URINGMONSTER_DATA@@@std@@@std@@IBE_NPBURINGMONSTER_DATA@@@Z
_TEXT	SEGMENT
__Ptr$ = 8						; size = 4
?_Inside@?$vector@URINGMONSTER_DATA@@V?$allocator@URINGMONSTER_DATA@@@std@@@std@@IBE_NPBURINGMONSTER_DATA@@@Z PROC ; std::vector<RINGMONSTER_DATA,std::allocator<RINGMONSTER_DATA> >::_Inside, COMDAT
; _this$ = ecx

; 1285 : 		{	// test if _Ptr points inside vector

  00000	55		 push	 ebp
  00001	8b ec		 mov	 ebp, esp

; 1286 : 		return (_Ptr < this->_Mylast && this->_Myfirst <= _Ptr);

  00003	8b 45 08	 mov	 eax, DWORD PTR __Ptr$[ebp]
  00006	3b 41 04	 cmp	 eax, DWORD PTR [ecx+4]
  00009	73 0d		 jae	 SHORT $LN3@Inside
  0000b	39 01		 cmp	 DWORD PTR [ecx], eax
  0000d	77 09		 ja	 SHORT $LN3@Inside
  0000f	b8 01 00 00 00	 mov	 eax, 1

; 1287 : 		}

  00014	5d		 pop	 ebp
  00015	c2 04 00	 ret	 4
$LN3@Inside:

; 1286 : 		return (_Ptr < this->_Mylast && this->_Myfirst <= _Ptr);

  00018	33 c0		 xor	 eax, eax

; 1287 : 		}

  0001a	5d		 pop	 ebp
  0001b	c2 04 00	 ret	 4
?_Inside@?$vector@URINGMONSTER_DATA@@V?$allocator@URINGMONSTER_DATA@@@std@@@std@@IBE_NPBURINGMONSTER_DATA@@@Z ENDP ; std::vector<RINGMONSTER_DATA,std::allocator<RINGMONSTER_DATA> >::_Inside
_TEXT	ENDS
PUBLIC	?_Orphan_range@?$vector@URINGMONSTER_DATA@@V?$allocator@URINGMONSTER_DATA@@@std@@@std@@IBEXPAURINGMONSTER_DATA@@0@Z ; std::vector<RINGMONSTER_DATA,std::allocator<RINGMONSTER_DATA> >::_Orphan_range
; Function compile flags: /Ogtp
;	COMDAT ?_Orphan_range@?$vector@URINGMONSTER_DATA@@V?$allocator@URINGMONSTER_DATA@@@std@@@std@@IBEXPAURINGMONSTER_DATA@@0@Z
_TEXT	SEGMENT
___formal$ = 8						; size = 4
___formal$ = 12						; size = 4
?_Orphan_range@?$vector@URINGMONSTER_DATA@@V?$allocator@URINGMONSTER_DATA@@@std@@@std@@IBEXPAURINGMONSTER_DATA@@0@Z PROC ; std::vector<RINGMONSTER_DATA,std::allocator<RINGMONSTER_DATA> >::_Orphan_range, COMDAT
; _this$ = ecx

; 1454 : 		}

  00000	c2 08 00	 ret	 8
?_Orphan_range@?$vector@URINGMONSTER_DATA@@V?$allocator@URINGMONSTER_DATA@@@std@@@std@@IBEXPAURINGMONSTER_DATA@@0@Z ENDP ; std::vector<RINGMONSTER_DATA,std::allocator<RINGMONSTER_DATA> >::_Orphan_range
_TEXT	ENDS
PUBLIC	??1?$_Vector_val@URINGMONSTER_DATA@@V?$allocator@URINGMONSTER_DATA@@@std@@@std@@QAE@XZ ; std::_Vector_val<RINGMONSTER_DATA,std::allocator<RINGMONSTER_DATA> >::~_Vector_val<RINGMONSTER_DATA,std::allocator<RINGMONSTER_DATA> >
; Function compile flags: /Ogtp
;	COMDAT ??1?$_Vector_val@URINGMONSTER_DATA@@V?$allocator@URINGMONSTER_DATA@@@std@@@std@@QAE@XZ
_TEXT	SEGMENT
??1?$_Vector_val@URINGMONSTER_DATA@@V?$allocator@URINGMONSTER_DATA@@@std@@@std@@QAE@XZ PROC ; std::_Vector_val<RINGMONSTER_DATA,std::allocator<RINGMONSTER_DATA> >::~_Vector_val<RINGMONSTER_DATA,std::allocator<RINGMONSTER_DATA> >, COMDAT
; _this$ = ecx

; 434  : 		}

  00000	c3		 ret	 0
??1?$_Vector_val@URINGMONSTER_DATA@@V?$allocator@URINGMONSTER_DATA@@@std@@@std@@QAE@XZ ENDP ; std::_Vector_val<RINGMONSTER_DATA,std::allocator<RINGMONSTER_DATA> >::~_Vector_val<RINGMONSTER_DATA,std::allocator<RINGMONSTER_DATA> >
_TEXT	ENDS
PUBLIC	??0?$allocator@URINGMONSTER_DATA@@@std@@QAE@XZ	; std::allocator<RINGMONSTER_DATA>::allocator<RINGMONSTER_DATA>
; Function compile flags: /Ogtp
; File c:\program files (x86)\microsoft visual studio 10.0\vc\include\xmemory
;	COMDAT ??0?$allocator@URINGMONSTER_DATA@@@std@@QAE@XZ
_TEXT	SEGMENT
??0?$allocator@URINGMONSTER_DATA@@@std@@QAE@XZ PROC	; std::allocator<RINGMONSTER_DATA>::allocator<RINGMONSTER_DATA>, COMDAT
; _this$ = ecx

; 161  : 	_ALLOCATOR() _THROW0()

  00000	8b c1		 mov	 eax, ecx

; 162  : 		{	// construct default allocator (do nothing)
; 163  : 		}

  00002	c3		 ret	 0
??0?$allocator@URINGMONSTER_DATA@@@std@@QAE@XZ ENDP	; std::allocator<RINGMONSTER_DATA>::allocator<RINGMONSTER_DATA>
_TEXT	ENDS
PUBLIC	?_Inside@?$vector@URINGMONSTER_EVENT_TIME@@V?$allocator@URINGMONSTER_EVENT_TIME@@@std@@@std@@IBE_NPBURINGMONSTER_EVENT_TIME@@@Z ; std::vector<RINGMONSTER_EVENT_TIME,std::allocator<RINGMONSTER_EVENT_TIME> >::_Inside
; Function compile flags: /Ogtp
; File c:\program files (x86)\microsoft visual studio 10.0\vc\include\vector
;	COMDAT ?_Inside@?$vector@URINGMONSTER_EVENT_TIME@@V?$allocator@URINGMONSTER_EVENT_TIME@@@std@@@std@@IBE_NPBURINGMONSTER_EVENT_TIME@@@Z
_TEXT	SEGMENT
__Ptr$ = 8						; size = 4
?_Inside@?$vector@URINGMONSTER_EVENT_TIME@@V?$allocator@URINGMONSTER_EVENT_TIME@@@std@@@std@@IBE_NPBURINGMONSTER_EVENT_TIME@@@Z PROC ; std::vector<RINGMONSTER_EVENT_TIME,std::allocator<RINGMONSTER_EVENT_TIME> >::_Inside, COMDAT
; _this$ = ecx

; 1285 : 		{	// test if _Ptr points inside vector

  00000	55		 push	 ebp
  00001	8b ec		 mov	 ebp, esp

; 1286 : 		return (_Ptr < this->_Mylast && this->_Myfirst <= _Ptr);

  00003	8b 45 08	 mov	 eax, DWORD PTR __Ptr$[ebp]
  00006	3b 41 04	 cmp	 eax, DWORD PTR [ecx+4]
  00009	73 0d		 jae	 SHORT $LN3@Inside@2
  0000b	39 01		 cmp	 DWORD PTR [ecx], eax
  0000d	77 09		 ja	 SHORT $LN3@Inside@2
  0000f	b8 01 00 00 00	 mov	 eax, 1

; 1287 : 		}

  00014	5d		 pop	 ebp
  00015	c2 04 00	 ret	 4
$LN3@Inside@2:

; 1286 : 		return (_Ptr < this->_Mylast && this->_Myfirst <= _Ptr);

  00018	33 c0		 xor	 eax, eax

; 1287 : 		}

  0001a	5d		 pop	 ebp
  0001b	c2 04 00	 ret	 4
?_Inside@?$vector@URINGMONSTER_EVENT_TIME@@V?$allocator@URINGMONSTER_EVENT_TIME@@@std@@@std@@IBE_NPBURINGMONSTER_EVENT_TIME@@@Z ENDP ; std::vector<RINGMONSTER_EVENT_TIME,std::allocator<RINGMONSTER_EVENT_TIME> >::_Inside
_TEXT	ENDS
PUBLIC	?_Orphan_range@?$vector@URINGMONSTER_EVENT_TIME@@V?$allocator@URINGMONSTER_EVENT_TIME@@@std@@@std@@IBEXPAURINGMONSTER_EVENT_TIME@@0@Z ; std::vector<RINGMONSTER_EVENT_TIME,std::allocator<RINGMONSTER_EVENT_TIME> >::_Orphan_range
; Function compile flags: /Ogtp
;	COMDAT ?_Orphan_range@?$vector@URINGMONSTER_EVENT_TIME@@V?$allocator@URINGMONSTER_EVENT_TIME@@@std@@@std@@IBEXPAURINGMONSTER_EVENT_TIME@@0@Z
_TEXT	SEGMENT
___formal$ = 8						; size = 4
___formal$ = 12						; size = 4
?_Orphan_range@?$vector@URINGMONSTER_EVENT_TIME@@V?$allocator@URINGMONSTER_EVENT_TIME@@@std@@@std@@IBEXPAURINGMONSTER_EVENT_TIME@@0@Z PROC ; std::vector<RINGMONSTER_EVENT_TIME,std::allocator<RINGMONSTER_EVENT_TIME> >::_Orphan_range, COMDAT
; _this$ = ecx

; 1454 : 		}

  00000	c2 08 00	 ret	 8
?_Orphan_range@?$vector@URINGMONSTER_EVENT_TIME@@V?$allocator@URINGMONSTER_EVENT_TIME@@@std@@@std@@IBEXPAURINGMONSTER_EVENT_TIME@@0@Z ENDP ; std::vector<RINGMONSTER_EVENT_TIME,std::allocator<RINGMONSTER_EVENT_TIME> >::_Orphan_range
_TEXT	ENDS
PUBLIC	??1?$_Vector_val@URINGMONSTER_EVENT_TIME@@V?$allocator@URINGMONSTER_EVENT_TIME@@@std@@@std@@QAE@XZ ; std::_Vector_val<RINGMONSTER_EVENT_TIME,std::allocator<RINGMONSTER_EVENT_TIME> >::~_Vector_val<RINGMONSTER_EVENT_TIME,std::allocator<RINGMONSTER_EVENT_TIME> >
; Function compile flags: /Ogtp
;	COMDAT ??1?$_Vector_val@URINGMONSTER_EVENT_TIME@@V?$allocator@URINGMONSTER_EVENT_TIME@@@std@@@std@@QAE@XZ
_TEXT	SEGMENT
??1?$_Vector_val@URINGMONSTER_EVENT_TIME@@V?$allocator@URINGMONSTER_EVENT_TIME@@@std@@@std@@QAE@XZ PROC ; std::_Vector_val<RINGMONSTER_EVENT_TIME,std::allocator<RINGMONSTER_EVENT_TIME> >::~_Vector_val<RINGMONSTER_EVENT_TIME,std::allocator<RINGMONSTER_EVENT_TIME> >, COMDAT
; _this$ = ecx

; 434  : 		}

  00000	c3		 ret	 0
??1?$_Vector_val@URINGMONSTER_EVENT_TIME@@V?$allocator@URINGMONSTER_EVENT_TIME@@@std@@@std@@QAE@XZ ENDP ; std::_Vector_val<RINGMONSTER_EVENT_TIME,std::allocator<RINGMONSTER_EVENT_TIME> >::~_Vector_val<RINGMONSTER_EVENT_TIME,std::allocator<RINGMONSTER_EVENT_TIME> >
_TEXT	ENDS
PUBLIC	??0?$allocator@URINGMONSTER_EVENT_TIME@@@std@@QAE@XZ ; std::allocator<RINGMONSTER_EVENT_TIME>::allocator<RINGMONSTER_EVENT_TIME>
; Function compile flags: /Ogtp
; File c:\program files (x86)\microsoft visual studio 10.0\vc\include\xmemory
;	COMDAT ??0?$allocator@URINGMONSTER_EVENT_TIME@@@std@@QAE@XZ
_TEXT	SEGMENT
??0?$allocator@URINGMONSTER_EVENT_TIME@@@std@@QAE@XZ PROC ; std::allocator<RINGMONSTER_EVENT_TIME>::allocator<RINGMONSTER_EVENT_TIME>, COMDAT
; _this$ = ecx

; 161  : 	_ALLOCATOR() _THROW0()

  00000	8b c1		 mov	 eax, ecx

; 162  : 		{	// construct default allocator (do nothing)
; 163  : 		}

  00002	c3		 ret	 0
??0?$allocator@URINGMONSTER_EVENT_TIME@@@std@@QAE@XZ ENDP ; std::allocator<RINGMONSTER_EVENT_TIME>::allocator<RINGMONSTER_EVENT_TIME>
_TEXT	ENDS
PUBLIC	??D?$_Vector_const_iterator@V?$_Vector_val@URINGMONSTER_DATA@@V?$allocator@URINGMONSTER_DATA@@@std@@@std@@@std@@QBEABURINGMONSTER_DATA@@XZ ; std::_Vector_const_iterator<std::_Vector_val<RINGMONSTER_DATA,std::allocator<RINGMONSTER_DATA> > >::operator*
; Function compile flags: /Ogtp
; File c:\program files (x86)\microsoft visual studio 10.0\vc\include\vector
;	COMDAT ??D?$_Vector_const_iterator@V?$_Vector_val@URINGMONSTER_DATA@@V?$allocator@URINGMONSTER_DATA@@@std@@@std@@@std@@QBEABURINGMONSTER_DATA@@XZ
_TEXT	SEGMENT
??D?$_Vector_const_iterator@V?$_Vector_val@URINGMONSTER_DATA@@V?$allocator@URINGMONSTER_DATA@@@std@@@std@@@std@@QBEABURINGMONSTER_DATA@@XZ PROC ; std::_Vector_const_iterator<std::_Vector_val<RINGMONSTER_DATA,std::allocator<RINGMONSTER_DATA> > >::operator*, COMDAT
; _this$ = ecx

; 64   :  #if _ITERATOR_DEBUG_LEVEL == 2
; 65   : 		if (this->_Getcont() == 0
; 66   : 			|| this->_Ptr == 0
; 67   : 			|| this->_Ptr < ((_Myvec *)this->_Getcont())->_Myfirst
; 68   : 			|| ((_Myvec *)this->_Getcont())->_Mylast <= this->_Ptr)
; 69   : 			{	// report error
; 70   : 			_DEBUG_ERROR("vector iterator not dereferencable");
; 71   : 			_SCL_SECURE_OUT_OF_RANGE;
; 72   : 			}
; 73   : 
; 74   :  #elif _ITERATOR_DEBUG_LEVEL == 1
; 75   : 		_SCL_SECURE_VALIDATE(this->_Getcont() != 0);
; 76   : 		_SCL_SECURE_VALIDATE_RANGE(
; 77   : 			this->_Ptr != 0
; 78   : 			&& ((_Myvec *)this->_Getcont())->_Myfirst <= this->_Ptr
; 79   : 			&& this->_Ptr < ((_Myvec *)this->_Getcont())->_Mylast);
; 80   :  #endif /* _ITERATOR_DEBUG_LEVEL */
; 81   : 
; 82   : 		__analysis_assume(this->_Ptr != 0);
; 83   : 
; 84   : 		return (*this->_Ptr);

  00000	8b 01		 mov	 eax, DWORD PTR [ecx]

; 85   : 		}

  00002	c3		 ret	 0
??D?$_Vector_const_iterator@V?$_Vector_val@URINGMONSTER_DATA@@V?$allocator@URINGMONSTER_DATA@@@std@@@std@@@std@@QBEABURINGMONSTER_DATA@@XZ ENDP ; std::_Vector_const_iterator<std::_Vector_val<RINGMONSTER_DATA,std::allocator<RINGMONSTER_DATA> > >::operator*
_TEXT	ENDS
PUBLIC	??0?$_Vector_const_iterator@V?$_Vector_val@URINGMONSTER_EVENT_TIME@@V?$allocator@URINGMONSTER_EVENT_TIME@@@std@@@std@@@std@@QAE@XZ ; std::_Vector_const_iterator<std::_Vector_val<RINGMONSTER_EVENT_TIME,std::allocator<RINGMONSTER_EVENT_TIME> > >::_Vector_const_iterator<std::_Vector_val<RINGMONSTER_EVENT_TIME,std::allocator<RINGMONSTER_EVENT_TIME> > >
; Function compile flags: /Ogtp
;	COMDAT ??0?$_Vector_const_iterator@V?$_Vector_val@URINGMONSTER_EVENT_TIME@@V?$allocator@URINGMONSTER_EVENT_TIME@@@std@@@std@@@std@@QAE@XZ
_TEXT	SEGMENT
??0?$_Vector_const_iterator@V?$_Vector_val@URINGMONSTER_EVENT_TIME@@V?$allocator@URINGMONSTER_EVENT_TIME@@@std@@@std@@@std@@QAE@XZ PROC ; std::_Vector_const_iterator<std::_Vector_val<RINGMONSTER_EVENT_TIME,std::allocator<RINGMONSTER_EVENT_TIME> > >::_Vector_const_iterator<std::_Vector_val<RINGMONSTER_EVENT_TIME,std::allocator<RINGMONSTER_EVENT_TIME> > >, COMDAT
; _this$ = ecx

; 40   : 		{	// construct with null pointer

  00000	8b c1		 mov	 eax, ecx
  00002	c7 00 00 00 00
	00		 mov	 DWORD PTR [eax], 0

; 41   : 		}

  00008	c3		 ret	 0
??0?$_Vector_const_iterator@V?$_Vector_val@URINGMONSTER_EVENT_TIME@@V?$allocator@URINGMONSTER_EVENT_TIME@@@std@@@std@@@std@@QAE@XZ ENDP ; std::_Vector_const_iterator<std::_Vector_val<RINGMONSTER_EVENT_TIME,std::allocator<RINGMONSTER_EVENT_TIME> > >::_Vector_const_iterator<std::_Vector_val<RINGMONSTER_EVENT_TIME,std::allocator<RINGMONSTER_EVENT_TIME> > >
_TEXT	ENDS
PUBLIC	??D?$_Vector_const_iterator@V?$_Vector_val@URINGMONSTER_EVENT_TIME@@V?$allocator@URINGMONSTER_EVENT_TIME@@@std@@@std@@@std@@QBEABURINGMONSTER_EVENT_TIME@@XZ ; std::_Vector_const_iterator<std::_Vector_val<RINGMONSTER_EVENT_TIME,std::allocator<RINGMONSTER_EVENT_TIME> > >::operator*
; Function compile flags: /Ogtp
;	COMDAT ??D?$_Vector_const_iterator@V?$_Vector_val@URINGMONSTER_EVENT_TIME@@V?$allocator@URINGMONSTER_EVENT_TIME@@@std@@@std@@@std@@QBEABURINGMONSTER_EVENT_TIME@@XZ
_TEXT	SEGMENT
??D?$_Vector_const_iterator@V?$_Vector_val@URINGMONSTER_EVENT_TIME@@V?$allocator@URINGMONSTER_EVENT_TIME@@@std@@@std@@@std@@QBEABURINGMONSTER_EVENT_TIME@@XZ PROC ; std::_Vector_const_iterator<std::_Vector_val<RINGMONSTER_EVENT_TIME,std::allocator<RINGMONSTER_EVENT_TIME> > >::operator*, COMDAT
; _this$ = ecx

; 64   :  #if _ITERATOR_DEBUG_LEVEL == 2
; 65   : 		if (this->_Getcont() == 0
; 66   : 			|| this->_Ptr == 0
; 67   : 			|| this->_Ptr < ((_Myvec *)this->_Getcont())->_Myfirst
; 68   : 			|| ((_Myvec *)this->_Getcont())->_Mylast <= this->_Ptr)
; 69   : 			{	// report error
; 70   : 			_DEBUG_ERROR("vector iterator not dereferencable");
; 71   : 			_SCL_SECURE_OUT_OF_RANGE;
; 72   : 			}
; 73   : 
; 74   :  #elif _ITERATOR_DEBUG_LEVEL == 1
; 75   : 		_SCL_SECURE_VALIDATE(this->_Getcont() != 0);
; 76   : 		_SCL_SECURE_VALIDATE_RANGE(
; 77   : 			this->_Ptr != 0
; 78   : 			&& ((_Myvec *)this->_Getcont())->_Myfirst <= this->_Ptr
; 79   : 			&& this->_Ptr < ((_Myvec *)this->_Getcont())->_Mylast);
; 80   :  #endif /* _ITERATOR_DEBUG_LEVEL */
; 81   : 
; 82   : 		__analysis_assume(this->_Ptr != 0);
; 83   : 
; 84   : 		return (*this->_Ptr);

  00000	8b 01		 mov	 eax, DWORD PTR [ecx]

; 85   : 		}

  00002	c3		 ret	 0
??D?$_Vector_const_iterator@V?$_Vector_val@URINGMONSTER_EVENT_TIME@@V?$allocator@URINGMONSTER_EVENT_TIME@@@std@@@std@@@std@@QBEABURINGMONSTER_EVENT_TIME@@XZ ENDP ; std::_Vector_const_iterator<std::_Vector_val<RINGMONSTER_EVENT_TIME,std::allocator<RINGMONSTER_EVENT_TIME> > >::operator*
_TEXT	ENDS
PUBLIC	?capacity@?$vector@URINGMONSTER_DATA@@V?$allocator@URINGMONSTER_DATA@@@std@@@std@@QBEIXZ ; std::vector<RINGMONSTER_DATA,std::allocator<RINGMONSTER_DATA> >::capacity
; Function compile flags: /Ogtp
;	COMDAT ?capacity@?$vector@URINGMONSTER_DATA@@V?$allocator@URINGMONSTER_DATA@@@std@@@std@@QBEIXZ
_TEXT	SEGMENT
?capacity@?$vector@URINGMONSTER_DATA@@V?$allocator@URINGMONSTER_DATA@@@std@@@std@@QBEIXZ PROC ; std::vector<RINGMONSTER_DATA,std::allocator<RINGMONSTER_DATA> >::capacity, COMDAT
; _this$ = ecx

; 777  : 		return (this->_Myend - this->_Myfirst);

  00000	8b 51 08	 mov	 edx, DWORD PTR [ecx+8]
  00003	2b 11		 sub	 edx, DWORD PTR [ecx]
  00005	b8 ab aa aa 2a	 mov	 eax, 715827883		; 2aaaaaabH
  0000a	f7 ea		 imul	 edx
  0000c	d1 fa		 sar	 edx, 1
  0000e	8b c2		 mov	 eax, edx
  00010	c1 e8 1f	 shr	 eax, 31			; 0000001fH
  00013	03 c2		 add	 eax, edx

; 778  : 		}

  00015	c3		 ret	 0
?capacity@?$vector@URINGMONSTER_DATA@@V?$allocator@URINGMONSTER_DATA@@@std@@@std@@QBEIXZ ENDP ; std::vector<RINGMONSTER_DATA,std::allocator<RINGMONSTER_DATA> >::capacity
_TEXT	ENDS
PUBLIC	?size@?$vector@URINGMONSTER_DATA@@V?$allocator@URINGMONSTER_DATA@@@std@@@std@@QBEIXZ ; std::vector<RINGMONSTER_DATA,std::allocator<RINGMONSTER_DATA> >::size
; Function compile flags: /Ogtp
;	COMDAT ?size@?$vector@URINGMONSTER_DATA@@V?$allocator@URINGMONSTER_DATA@@@std@@@std@@QBEIXZ
_TEXT	SEGMENT
?size@?$vector@URINGMONSTER_DATA@@V?$allocator@URINGMONSTER_DATA@@@std@@@std@@QBEIXZ PROC ; std::vector<RINGMONSTER_DATA,std::allocator<RINGMONSTER_DATA> >::size, COMDAT
; _this$ = ecx

; 879  : 		return (this->_Mylast - this->_Myfirst);

  00000	8b 51 04	 mov	 edx, DWORD PTR [ecx+4]
  00003	2b 11		 sub	 edx, DWORD PTR [ecx]
  00005	b8 ab aa aa 2a	 mov	 eax, 715827883		; 2aaaaaabH
  0000a	f7 ea		 imul	 edx
  0000c	d1 fa		 sar	 edx, 1
  0000e	8b c2		 mov	 eax, edx
  00010	c1 e8 1f	 shr	 eax, 31			; 0000001fH
  00013	03 c2		 add	 eax, edx

; 880  : 		}

  00015	c3		 ret	 0
?size@?$vector@URINGMONSTER_DATA@@V?$allocator@URINGMONSTER_DATA@@@std@@@std@@QBEIXZ ENDP ; std::vector<RINGMONSTER_DATA,std::allocator<RINGMONSTER_DATA> >::size
_TEXT	ENDS
PUBLIC	??_C@_0BD@OLBABOEK@vector?$DMT?$DO?5too?5long?$AA@ ; `string'
PUBLIC	?_Xlen@?$vector@URINGMONSTER_DATA@@V?$allocator@URINGMONSTER_DATA@@@std@@@std@@IBEXXZ ; std::vector<RINGMONSTER_DATA,std::allocator<RINGMONSTER_DATA> >::_Xlen
EXTRN	?_Xlength_error@std@@YAXPBD@Z:PROC		; std::_Xlength_error
;	COMDAT ??_C@_0BD@OLBABOEK@vector?$DMT?$DO?5too?5long?$AA@
CONST	SEGMENT
??_C@_0BD@OLBABOEK@vector?$DMT?$DO?5too?5long?$AA@ DB 'vector<T> too long'
	DB	00H						; `string'
; Function compile flags: /Ogtp
CONST	ENDS
;	COMDAT ?_Xlen@?$vector@URINGMONSTER_DATA@@V?$allocator@URINGMONSTER_DATA@@@std@@@std@@IBEXXZ
_TEXT	SEGMENT
?_Xlen@?$vector@URINGMONSTER_DATA@@V?$allocator@URINGMONSTER_DATA@@@std@@@std@@IBEXXZ PROC ; std::vector<RINGMONSTER_DATA,std::allocator<RINGMONSTER_DATA> >::_Xlen, COMDAT
; _this$ = ecx

; 1427 : 		_Xlength_error("vector<T> too long");

  00000	68 00 00 00 00	 push	 OFFSET ??_C@_0BD@OLBABOEK@vector?$DMT?$DO?5too?5long?$AA@
  00005	e8 00 00 00 00	 call	 ?_Xlength_error@std@@YAXPBD@Z ; std::_Xlength_error
$LN4@Xlen:
$LN3@Xlen:
  0000a	cc		 int	 3
?_Xlen@?$vector@URINGMONSTER_DATA@@V?$allocator@URINGMONSTER_DATA@@@std@@@std@@IBEXXZ ENDP ; std::vector<RINGMONSTER_DATA,std::allocator<RINGMONSTER_DATA> >::_Xlen
_TEXT	ENDS
PUBLIC	??0?$allocator@URINGMONSTER_DATA@@@std@@QAE@ABV01@@Z ; std::allocator<RINGMONSTER_DATA>::allocator<RINGMONSTER_DATA>
; Function compile flags: /Ogtp
; File c:\program files (x86)\microsoft visual studio 10.0\vc\include\xmemory
;	COMDAT ??0?$allocator@URINGMONSTER_DATA@@@std@@QAE@ABV01@@Z
_TEXT	SEGMENT
___formal$ = 8						; size = 4
??0?$allocator@URINGMONSTER_DATA@@@std@@QAE@ABV01@@Z PROC ; std::allocator<RINGMONSTER_DATA>::allocator<RINGMONSTER_DATA>, COMDAT
; _this$ = ecx

; 165  : 	_ALLOCATOR(const _ALLOCATOR<_Ty>&) _THROW0()

  00000	8b c1		 mov	 eax, ecx

; 166  : 		{	// construct by copying (do nothing)
; 167  : 		}

  00002	c2 04 00	 ret	 4
??0?$allocator@URINGMONSTER_DATA@@@std@@QAE@ABV01@@Z ENDP ; std::allocator<RINGMONSTER_DATA>::allocator<RINGMONSTER_DATA>
_TEXT	ENDS
PUBLIC	?deallocate@?$allocator@URINGMONSTER_DATA@@@std@@QAEXPAURINGMONSTER_DATA@@I@Z ; std::allocator<RINGMONSTER_DATA>::deallocate
EXTRN	??3@YAXPAX@Z:PROC				; operator delete
; Function compile flags: /Ogtp
;	COMDAT ?deallocate@?$allocator@URINGMONSTER_DATA@@@std@@QAEXPAURINGMONSTER_DATA@@I@Z
_TEXT	SEGMENT
__Ptr$ = 8						; size = 4
___formal$ = 12						; size = 4
?deallocate@?$allocator@URINGMONSTER_DATA@@@std@@QAEXPAURINGMONSTER_DATA@@I@Z PROC ; std::allocator<RINGMONSTER_DATA>::deallocate, COMDAT
; _this$ = ecx

; 181  : 		{	// deallocate object at _Ptr, ignore size

  00000	55		 push	 ebp
  00001	8b ec		 mov	 ebp, esp

; 182  : 		::operator delete(_Ptr);

  00003	8b 45 08	 mov	 eax, DWORD PTR __Ptr$[ebp]
  00006	50		 push	 eax
  00007	e8 00 00 00 00	 call	 ??3@YAXPAX@Z		; operator delete
  0000c	83 c4 04	 add	 esp, 4

; 183  : 		}

  0000f	5d		 pop	 ebp
  00010	c2 08 00	 ret	 8
?deallocate@?$allocator@URINGMONSTER_DATA@@@std@@QAEXPAURINGMONSTER_DATA@@I@Z ENDP ; std::allocator<RINGMONSTER_DATA>::deallocate
_TEXT	ENDS
PUBLIC	?capacity@?$vector@URINGMONSTER_EVENT_TIME@@V?$allocator@URINGMONSTER_EVENT_TIME@@@std@@@std@@QBEIXZ ; std::vector<RINGMONSTER_EVENT_TIME,std::allocator<RINGMONSTER_EVENT_TIME> >::capacity
; Function compile flags: /Ogtp
; File c:\program files (x86)\microsoft visual studio 10.0\vc\include\vector
;	COMDAT ?capacity@?$vector@URINGMONSTER_EVENT_TIME@@V?$allocator@URINGMONSTER_EVENT_TIME@@@std@@@std@@QBEIXZ
_TEXT	SEGMENT
?capacity@?$vector@URINGMONSTER_EVENT_TIME@@V?$allocator@URINGMONSTER_EVENT_TIME@@@std@@@std@@QBEIXZ PROC ; std::vector<RINGMONSTER_EVENT_TIME,std::allocator<RINGMONSTER_EVENT_TIME> >::capacity, COMDAT
; _this$ = ecx

; 777  : 		return (this->_Myend - this->_Myfirst);

  00000	8b 41 08	 mov	 eax, DWORD PTR [ecx+8]
  00003	2b 01		 sub	 eax, DWORD PTR [ecx]
  00005	c1 f8 03	 sar	 eax, 3

; 778  : 		}

  00008	c3		 ret	 0
?capacity@?$vector@URINGMONSTER_EVENT_TIME@@V?$allocator@URINGMONSTER_EVENT_TIME@@@std@@@std@@QBEIXZ ENDP ; std::vector<RINGMONSTER_EVENT_TIME,std::allocator<RINGMONSTER_EVENT_TIME> >::capacity
_TEXT	ENDS
PUBLIC	?size@?$vector@URINGMONSTER_EVENT_TIME@@V?$allocator@URINGMONSTER_EVENT_TIME@@@std@@@std@@QBEIXZ ; std::vector<RINGMONSTER_EVENT_TIME,std::allocator<RINGMONSTER_EVENT_TIME> >::size
; Function compile flags: /Ogtp
;	COMDAT ?size@?$vector@URINGMONSTER_EVENT_TIME@@V?$allocator@URINGMONSTER_EVENT_TIME@@@std@@@std@@QBEIXZ
_TEXT	SEGMENT
?size@?$vector@URINGMONSTER_EVENT_TIME@@V?$allocator@URINGMONSTER_EVENT_TIME@@@std@@@std@@QBEIXZ PROC ; std::vector<RINGMONSTER_EVENT_TIME,std::allocator<RINGMONSTER_EVENT_TIME> >::size, COMDAT
; _this$ = ecx

; 879  : 		return (this->_Mylast - this->_Myfirst);

  00000	8b 41 04	 mov	 eax, DWORD PTR [ecx+4]
  00003	2b 01		 sub	 eax, DWORD PTR [ecx]
  00005	c1 f8 03	 sar	 eax, 3

; 880  : 		}

  00008	c3		 ret	 0
?size@?$vector@URINGMONSTER_EVENT_TIME@@V?$allocator@URINGMONSTER_EVENT_TIME@@@std@@@std@@QBEIXZ ENDP ; std::vector<RINGMONSTER_EVENT_TIME,std::allocator<RINGMONSTER_EVENT_TIME> >::size
_TEXT	ENDS
PUBLIC	?_Xlen@?$vector@URINGMONSTER_EVENT_TIME@@V?$allocator@URINGMONSTER_EVENT_TIME@@@std@@@std@@IBEXXZ ; std::vector<RINGMONSTER_EVENT_TIME,std::allocator<RINGMONSTER_EVENT_TIME> >::_Xlen
; Function compile flags: /Ogtp
;	COMDAT ?_Xlen@?$vector@URINGMONSTER_EVENT_TIME@@V?$allocator@URINGMONSTER_EVENT_TIME@@@std@@@std@@IBEXXZ
_TEXT	SEGMENT
?_Xlen@?$vector@URINGMONSTER_EVENT_TIME@@V?$allocator@URINGMONSTER_EVENT_TIME@@@std@@@std@@IBEXXZ PROC ; std::vector<RINGMONSTER_EVENT_TIME,std::allocator<RINGMONSTER_EVENT_TIME> >::_Xlen, COMDAT
; _this$ = ecx

; 1427 : 		_Xlength_error("vector<T> too long");

  00000	68 00 00 00 00	 push	 OFFSET ??_C@_0BD@OLBABOEK@vector?$DMT?$DO?5too?5long?$AA@
  00005	e8 00 00 00 00	 call	 ?_Xlength_error@std@@YAXPBD@Z ; std::_Xlength_error
$LN4@Xlen@2:
$LN3@Xlen@2:
  0000a	cc		 int	 3
?_Xlen@?$vector@URINGMONSTER_EVENT_TIME@@V?$allocator@URINGMONSTER_EVENT_TIME@@@std@@@std@@IBEXXZ ENDP ; std::vector<RINGMONSTER_EVENT_TIME,std::allocator<RINGMONSTER_EVENT_TIME> >::_Xlen
_TEXT	ENDS
PUBLIC	??0?$allocator@URINGMONSTER_EVENT_TIME@@@std@@QAE@ABV01@@Z ; std::allocator<RINGMONSTER_EVENT_TIME>::allocator<RINGMONSTER_EVENT_TIME>
; Function compile flags: /Ogtp
; File c:\program files (x86)\microsoft visual studio 10.0\vc\include\xmemory
;	COMDAT ??0?$allocator@URINGMONSTER_EVENT_TIME@@@std@@QAE@ABV01@@Z
_TEXT	SEGMENT
___formal$ = 8						; size = 4
??0?$allocator@URINGMONSTER_EVENT_TIME@@@std@@QAE@ABV01@@Z PROC ; std::allocator<RINGMONSTER_EVENT_TIME>::allocator<RINGMONSTER_EVENT_TIME>, COMDAT
; _this$ = ecx

; 165  : 	_ALLOCATOR(const _ALLOCATOR<_Ty>&) _THROW0()

  00000	8b c1		 mov	 eax, ecx

; 166  : 		{	// construct by copying (do nothing)
; 167  : 		}

  00002	c2 04 00	 ret	 4
??0?$allocator@URINGMONSTER_EVENT_TIME@@@std@@QAE@ABV01@@Z ENDP ; std::allocator<RINGMONSTER_EVENT_TIME>::allocator<RINGMONSTER_EVENT_TIME>
_TEXT	ENDS
PUBLIC	?deallocate@?$allocator@URINGMONSTER_EVENT_TIME@@@std@@QAEXPAURINGMONSTER_EVENT_TIME@@I@Z ; std::allocator<RINGMONSTER_EVENT_TIME>::deallocate
; Function compile flags: /Ogtp
;	COMDAT ?deallocate@?$allocator@URINGMONSTER_EVENT_TIME@@@std@@QAEXPAURINGMONSTER_EVENT_TIME@@I@Z
_TEXT	SEGMENT
__Ptr$ = 8						; size = 4
___formal$ = 12						; size = 4
?deallocate@?$allocator@URINGMONSTER_EVENT_TIME@@@std@@QAEXPAURINGMONSTER_EVENT_TIME@@I@Z PROC ; std::allocator<RINGMONSTER_EVENT_TIME>::deallocate, COMDAT
; _this$ = ecx

; 181  : 		{	// deallocate object at _Ptr, ignore size

  00000	55		 push	 ebp
  00001	8b ec		 mov	 ebp, esp

; 182  : 		::operator delete(_Ptr);

  00003	8b 45 08	 mov	 eax, DWORD PTR __Ptr$[ebp]
  00006	50		 push	 eax
  00007	e8 00 00 00 00	 call	 ??3@YAXPAX@Z		; operator delete
  0000c	83 c4 04	 add	 esp, 4

; 183  : 		}

  0000f	5d		 pop	 ebp
  00010	c2 08 00	 ret	 8
?deallocate@?$allocator@URINGMONSTER_EVENT_TIME@@@std@@QAEXPAURINGMONSTER_EVENT_TIME@@I@Z ENDP ; std::allocator<RINGMONSTER_EVENT_TIME>::deallocate
_TEXT	ENDS
PUBLIC	??E?$_Vector_const_iterator@V?$_Vector_val@URINGMONSTER_DATA@@V?$allocator@URINGMONSTER_DATA@@@std@@@std@@@std@@QAEAAV01@XZ ; std::_Vector_const_iterator<std::_Vector_val<RINGMONSTER_DATA,std::allocator<RINGMONSTER_DATA> > >::operator++
; Function compile flags: /Ogtp
; File c:\program files (x86)\microsoft visual studio 10.0\vc\include\vector
;	COMDAT ??E?$_Vector_const_iterator@V?$_Vector_val@URINGMONSTER_DATA@@V?$allocator@URINGMONSTER_DATA@@@std@@@std@@@std@@QAEAAV01@XZ
_TEXT	SEGMENT
??E?$_Vector_const_iterator@V?$_Vector_val@URINGMONSTER_DATA@@V?$allocator@URINGMONSTER_DATA@@@std@@@std@@@std@@QAEAAV01@XZ PROC ; std::_Vector_const_iterator<std::_Vector_val<RINGMONSTER_DATA,std::allocator<RINGMONSTER_DATA> > >::operator++, COMDAT
; _this$ = ecx

; 93   : 		{	// preincrement

  00000	8b c1		 mov	 eax, ecx

; 94   :  #if _ITERATOR_DEBUG_LEVEL == 2
; 95   : 		if (this->_Getcont() == 0
; 96   : 			|| this->_Ptr == 0
; 97   : 			|| ((_Myvec *)this->_Getcont())->_Mylast <= this->_Ptr)
; 98   : 			{	// report error
; 99   : 			_DEBUG_ERROR("vector iterator not incrementable");
; 100  : 			_SCL_SECURE_OUT_OF_RANGE;
; 101  : 			}
; 102  : 
; 103  :  #elif _ITERATOR_DEBUG_LEVEL == 1
; 104  : 		_SCL_SECURE_VALIDATE(this->_Getcont() != 0);
; 105  : 		_SCL_SECURE_VALIDATE_RANGE(
; 106  : 			this->_Ptr != 0
; 107  : 			&& this->_Ptr < ((_Myvec *)this->_Getcont())->_Mylast);
; 108  :  #endif /* _ITERATOR_DEBUG_LEVEL */
; 109  : 
; 110  : 		++this->_Ptr;

  00002	83 00 0c	 add	 DWORD PTR [eax], 12	; 0000000cH

; 111  : 		return (*this);
; 112  : 		}

  00005	c3		 ret	 0
??E?$_Vector_const_iterator@V?$_Vector_val@URINGMONSTER_DATA@@V?$allocator@URINGMONSTER_DATA@@@std@@@std@@@std@@QAEAAV01@XZ ENDP ; std::_Vector_const_iterator<std::_Vector_val<RINGMONSTER_DATA,std::allocator<RINGMONSTER_DATA> > >::operator++
_TEXT	ENDS
PUBLIC	?_Compat@?$_Vector_const_iterator@V?$_Vector_val@URINGMONSTER_DATA@@V?$allocator@URINGMONSTER_DATA@@@std@@@std@@@std@@QBEXABV12@@Z ; std::_Vector_const_iterator<std::_Vector_val<RINGMONSTER_DATA,std::allocator<RINGMONSTER_DATA> > >::_Compat
; Function compile flags: /Ogtp
;	COMDAT ?_Compat@?$_Vector_const_iterator@V?$_Vector_val@URINGMONSTER_DATA@@V?$allocator@URINGMONSTER_DATA@@@std@@@std@@@std@@QBEXABV12@@Z
_TEXT	SEGMENT
___formal$ = 8						; size = 4
?_Compat@?$_Vector_const_iterator@V?$_Vector_val@URINGMONSTER_DATA@@V?$allocator@URINGMONSTER_DATA@@@std@@@std@@@std@@QBEXABV12@@Z PROC ; std::_Vector_const_iterator<std::_Vector_val<RINGMONSTER_DATA,std::allocator<RINGMONSTER_DATA> > >::_Compat, COMDAT
; _this$ = ecx

; 253  : 		}

  00000	c2 04 00	 ret	 4
?_Compat@?$_Vector_const_iterator@V?$_Vector_val@URINGMONSTER_DATA@@V?$allocator@URINGMONSTER_DATA@@@std@@@std@@@std@@QBEXABV12@@Z ENDP ; std::_Vector_const_iterator<std::_Vector_val<RINGMONSTER_DATA,std::allocator<RINGMONSTER_DATA> > >::_Compat
_TEXT	ENDS
PUBLIC	??E?$_Vector_const_iterator@V?$_Vector_val@URINGMONSTER_EVENT_TIME@@V?$allocator@URINGMONSTER_EVENT_TIME@@@std@@@std@@@std@@QAEAAV01@XZ ; std::_Vector_const_iterator<std::_Vector_val<RINGMONSTER_EVENT_TIME,std::allocator<RINGMONSTER_EVENT_TIME> > >::operator++
; Function compile flags: /Ogtp
;	COMDAT ??E?$_Vector_const_iterator@V?$_Vector_val@URINGMONSTER_EVENT_TIME@@V?$allocator@URINGMONSTER_EVENT_TIME@@@std@@@std@@@std@@QAEAAV01@XZ
_TEXT	SEGMENT
??E?$_Vector_const_iterator@V?$_Vector_val@URINGMONSTER_EVENT_TIME@@V?$allocator@URINGMONSTER_EVENT_TIME@@@std@@@std@@@std@@QAEAAV01@XZ PROC ; std::_Vector_const_iterator<std::_Vector_val<RINGMONSTER_EVENT_TIME,std::allocator<RINGMONSTER_EVENT_TIME> > >::operator++, COMDAT
; _this$ = ecx

; 93   : 		{	// preincrement

  00000	8b c1		 mov	 eax, ecx

; 94   :  #if _ITERATOR_DEBUG_LEVEL == 2
; 95   : 		if (this->_Getcont() == 0
; 96   : 			|| this->_Ptr == 0
; 97   : 			|| ((_Myvec *)this->_Getcont())->_Mylast <= this->_Ptr)
; 98   : 			{	// report error
; 99   : 			_DEBUG_ERROR("vector iterator not incrementable");
; 100  : 			_SCL_SECURE_OUT_OF_RANGE;
; 101  : 			}
; 102  : 
; 103  :  #elif _ITERATOR_DEBUG_LEVEL == 1
; 104  : 		_SCL_SECURE_VALIDATE(this->_Getcont() != 0);
; 105  : 		_SCL_SECURE_VALIDATE_RANGE(
; 106  : 			this->_Ptr != 0
; 107  : 			&& this->_Ptr < ((_Myvec *)this->_Getcont())->_Mylast);
; 108  :  #endif /* _ITERATOR_DEBUG_LEVEL */
; 109  : 
; 110  : 		++this->_Ptr;

  00002	83 00 08	 add	 DWORD PTR [eax], 8

; 111  : 		return (*this);
; 112  : 		}

  00005	c3		 ret	 0
??E?$_Vector_const_iterator@V?$_Vector_val@URINGMONSTER_EVENT_TIME@@V?$allocator@URINGMONSTER_EVENT_TIME@@@std@@@std@@@std@@QAEAAV01@XZ ENDP ; std::_Vector_const_iterator<std::_Vector_val<RINGMONSTER_EVENT_TIME,std::allocator<RINGMONSTER_EVENT_TIME> > >::operator++
_TEXT	ENDS
PUBLIC	?_Compat@?$_Vector_const_iterator@V?$_Vector_val@URINGMONSTER_EVENT_TIME@@V?$allocator@URINGMONSTER_EVENT_TIME@@@std@@@std@@@std@@QBEXABV12@@Z ; std::_Vector_const_iterator<std::_Vector_val<RINGMONSTER_EVENT_TIME,std::allocator<RINGMONSTER_EVENT_TIME> > >::_Compat
; Function compile flags: /Ogtp
;	COMDAT ?_Compat@?$_Vector_const_iterator@V?$_Vector_val@URINGMONSTER_EVENT_TIME@@V?$allocator@URINGMONSTER_EVENT_TIME@@@std@@@std@@@std@@QBEXABV12@@Z
_TEXT	SEGMENT
___formal$ = 8						; size = 4
?_Compat@?$_Vector_const_iterator@V?$_Vector_val@URINGMONSTER_EVENT_TIME@@V?$allocator@URINGMONSTER_EVENT_TIME@@@std@@@std@@@std@@QBEXABV12@@Z PROC ; std::_Vector_const_iterator<std::_Vector_val<RINGMONSTER_EVENT_TIME,std::allocator<RINGMONSTER_EVENT_TIME> > >::_Compat, COMDAT
; _this$ = ecx

; 253  : 		}

  00000	c2 04 00	 ret	 4
?_Compat@?$_Vector_const_iterator@V?$_Vector_val@URINGMONSTER_EVENT_TIME@@V?$allocator@URINGMONSTER_EVENT_TIME@@@std@@@std@@@std@@QBEXABV12@@Z ENDP ; std::_Vector_const_iterator<std::_Vector_val<RINGMONSTER_EVENT_TIME,std::allocator<RINGMONSTER_EVENT_TIME> > >::_Compat
_TEXT	ENDS
PUBLIC	?max_size@?$allocator@URINGMONSTER_DATA@@@std@@QBEIXZ ; std::allocator<RINGMONSTER_DATA>::max_size
; Function compile flags: /Ogtp
; File c:\program files (x86)\microsoft visual studio 10.0\vc\include\xmemory
;	COMDAT ?max_size@?$allocator@URINGMONSTER_DATA@@@std@@QBEIXZ
_TEXT	SEGMENT
?max_size@?$allocator@URINGMONSTER_DATA@@@std@@QBEIXZ PROC ; std::allocator<RINGMONSTER_DATA>::max_size, COMDAT
; _this$ = ecx

; 218  : 		_SIZT _Count = (_SIZT)(-1) / sizeof (_Ty);
; 219  : 		return (0 < _Count ? _Count : 1);

  00000	b8 55 55 55 15	 mov	 eax, 357913941		; 15555555H

; 220  : 		}

  00005	c3		 ret	 0
?max_size@?$allocator@URINGMONSTER_DATA@@@std@@QBEIXZ ENDP ; std::allocator<RINGMONSTER_DATA>::max_size
_TEXT	ENDS
PUBLIC	?max_size@?$allocator@URINGMONSTER_EVENT_TIME@@@std@@QBEIXZ ; std::allocator<RINGMONSTER_EVENT_TIME>::max_size
; Function compile flags: /Ogtp
;	COMDAT ?max_size@?$allocator@URINGMONSTER_EVENT_TIME@@@std@@QBEIXZ
_TEXT	SEGMENT
?max_size@?$allocator@URINGMONSTER_EVENT_TIME@@@std@@QBEIXZ PROC ; std::allocator<RINGMONSTER_EVENT_TIME>::max_size, COMDAT
; _this$ = ecx

; 218  : 		_SIZT _Count = (_SIZT)(-1) / sizeof (_Ty);
; 219  : 		return (0 < _Count ? _Count : 1);

  00000	b8 ff ff ff 1f	 mov	 eax, 536870911		; 1fffffffH

; 220  : 		}

  00005	c3		 ret	 0
?max_size@?$allocator@URINGMONSTER_EVENT_TIME@@@std@@QBEIXZ ENDP ; std::allocator<RINGMONSTER_EVENT_TIME>::max_size
_TEXT	ENDS
PUBLIC	??$addressof@$$CBURINGMONSTER_DATA@@@std@@YAPBURINGMONSTER_DATA@@ABU1@@Z ; std::addressof<RINGMONSTER_DATA const >
; Function compile flags: /Ogtp
;	COMDAT ??$addressof@$$CBURINGMONSTER_DATA@@@std@@YAPBURINGMONSTER_DATA@@ABU1@@Z
_TEXT	SEGMENT
__Val$ = 8						; size = 4
??$addressof@$$CBURINGMONSTER_DATA@@@std@@YAPBURINGMONSTER_DATA@@ABU1@@Z PROC ; std::addressof<RINGMONSTER_DATA const >, COMDAT

; 110  : 	{	// return address of _Val

  00000	55		 push	 ebp
  00001	8b ec		 mov	 ebp, esp

; 111  : 	return ((_Ty *) &(char&)_Val);

  00003	8b 45 08	 mov	 eax, DWORD PTR __Val$[ebp]

; 112  : 	}

  00006	5d		 pop	 ebp
  00007	c3		 ret	 0
??$addressof@$$CBURINGMONSTER_DATA@@@std@@YAPBURINGMONSTER_DATA@@ABU1@@Z ENDP ; std::addressof<RINGMONSTER_DATA const >
_TEXT	ENDS
PUBLIC	??$addressof@$$CBURINGMONSTER_EVENT_TIME@@@std@@YAPBURINGMONSTER_EVENT_TIME@@ABU1@@Z ; std::addressof<RINGMONSTER_EVENT_TIME const >
; Function compile flags: /Ogtp
;	COMDAT ??$addressof@$$CBURINGMONSTER_EVENT_TIME@@@std@@YAPBURINGMONSTER_EVENT_TIME@@ABU1@@Z
_TEXT	SEGMENT
__Val$ = 8						; size = 4
??$addressof@$$CBURINGMONSTER_EVENT_TIME@@@std@@YAPBURINGMONSTER_EVENT_TIME@@ABU1@@Z PROC ; std::addressof<RINGMONSTER_EVENT_TIME const >, COMDAT

; 110  : 	{	// return address of _Val

  00000	55		 push	 ebp
  00001	8b ec		 mov	 ebp, esp

; 111  : 	return ((_Ty *) &(char&)_Val);

  00003	8b 45 08	 mov	 eax, DWORD PTR __Val$[ebp]

; 112  : 	}

  00006	5d		 pop	 ebp
  00007	c3		 ret	 0
??$addressof@$$CBURINGMONSTER_EVENT_TIME@@@std@@YAPBURINGMONSTER_EVENT_TIME@@ABU1@@Z ENDP ; std::addressof<RINGMONSTER_EVENT_TIME const >
_TEXT	ENDS
PUBLIC	??$forward@AAURINGMONSTER_DATA@@@std@@YAAAURINGMONSTER_DATA@@AAU1@@Z ; std::forward<RINGMONSTER_DATA &>
; Function compile flags: /Ogtp
; File c:\program files (x86)\microsoft visual studio 10.0\vc\include\utility
;	COMDAT ??$forward@AAURINGMONSTER_DATA@@@std@@YAAAURINGMONSTER_DATA@@AAU1@@Z
_TEXT	SEGMENT
__Arg$ = 8						; size = 4
??$forward@AAURINGMONSTER_DATA@@@std@@YAAAURINGMONSTER_DATA@@AAU1@@Z PROC ; std::forward<RINGMONSTER_DATA &>, COMDAT

; 78   : 	{	// forward _Arg, given explicitly specified type parameter

  00000	55		 push	 ebp
  00001	8b ec		 mov	 ebp, esp

; 79   : 	return ((_Ty&&)_Arg);

  00003	8b 45 08	 mov	 eax, DWORD PTR __Arg$[ebp]

; 80   : 	}

  00006	5d		 pop	 ebp
  00007	c3		 ret	 0
??$forward@AAURINGMONSTER_DATA@@@std@@YAAAURINGMONSTER_DATA@@AAU1@@Z ENDP ; std::forward<RINGMONSTER_DATA &>
_TEXT	ENDS
PUBLIC	??$construct@AAURINGMONSTER_DATA@@@?$allocator@URINGMONSTER_DATA@@@std@@QAEXPAURINGMONSTER_DATA@@AAU2@@Z ; std::allocator<RINGMONSTER_DATA>::construct<RINGMONSTER_DATA &>
; Function compile flags: /Ogtp
; File c:\program files (x86)\microsoft visual studio 10.0\vc\include\xmemory
;	COMDAT ??$construct@AAURINGMONSTER_DATA@@@?$allocator@URINGMONSTER_DATA@@@std@@QAEXPAURINGMONSTER_DATA@@AAU2@@Z
_TEXT	SEGMENT
__Ptr$ = 8						; size = 4
__Val$ = 12						; size = 4
??$construct@AAURINGMONSTER_DATA@@@?$allocator@URINGMONSTER_DATA@@@std@@QAEXPAURINGMONSTER_DATA@@AAU2@@Z PROC ; std::allocator<RINGMONSTER_DATA>::construct<RINGMONSTER_DATA &>, COMDAT
; _this$ = ecx

; 206  : 		void construct(pointer _Ptr, _Other&& _Val)

  00000	55		 push	 ebp
  00001	8b ec		 mov	 ebp, esp

; 207  : 		{	// construct object at _Ptr with value _Val
; 208  : 		::new ((void _FARQ *)_Ptr) _Ty(_STD forward<_Other>(_Val));

  00003	8b 45 08	 mov	 eax, DWORD PTR __Ptr$[ebp]
  00006	85 c0		 test	 eax, eax
  00008	74 13		 je	 SHORT $LN3@construct
  0000a	8b 4d 0c	 mov	 ecx, DWORD PTR __Val$[ebp]
  0000d	8b 11		 mov	 edx, DWORD PTR [ecx]
  0000f	89 10		 mov	 DWORD PTR [eax], edx
  00011	8b 51 04	 mov	 edx, DWORD PTR [ecx+4]
  00014	89 50 04	 mov	 DWORD PTR [eax+4], edx
  00017	8b 49 08	 mov	 ecx, DWORD PTR [ecx+8]
  0001a	89 48 08	 mov	 DWORD PTR [eax+8], ecx
$LN3@construct:

; 209  : 		}

  0001d	5d		 pop	 ebp
  0001e	c2 08 00	 ret	 8
??$construct@AAURINGMONSTER_DATA@@@?$allocator@URINGMONSTER_DATA@@@std@@QAEXPAURINGMONSTER_DATA@@AAU2@@Z ENDP ; std::allocator<RINGMONSTER_DATA>::construct<RINGMONSTER_DATA &>
_TEXT	ENDS
PUBLIC	??$forward@ABURINGMONSTER_DATA@@@std@@YAABURINGMONSTER_DATA@@ABU1@@Z ; std::forward<RINGMONSTER_DATA const &>
; Function compile flags: /Ogtp
; File c:\program files (x86)\microsoft visual studio 10.0\vc\include\utility
;	COMDAT ??$forward@ABURINGMONSTER_DATA@@@std@@YAABURINGMONSTER_DATA@@ABU1@@Z
_TEXT	SEGMENT
__Arg$ = 8						; size = 4
??$forward@ABURINGMONSTER_DATA@@@std@@YAABURINGMONSTER_DATA@@ABU1@@Z PROC ; std::forward<RINGMONSTER_DATA const &>, COMDAT

; 78   : 	{	// forward _Arg, given explicitly specified type parameter

  00000	55		 push	 ebp
  00001	8b ec		 mov	 ebp, esp

; 79   : 	return ((_Ty&&)_Arg);

  00003	8b 45 08	 mov	 eax, DWORD PTR __Arg$[ebp]

; 80   : 	}

  00006	5d		 pop	 ebp
  00007	c3		 ret	 0
??$forward@ABURINGMONSTER_DATA@@@std@@YAABURINGMONSTER_DATA@@ABU1@@Z ENDP ; std::forward<RINGMONSTER_DATA const &>
_TEXT	ENDS
PUBLIC	??$_Ptr_cat@URINGMONSTER_DATA@@U1@@std@@YA?AU_Nonscalar_ptr_iterator_tag@0@PAURINGMONSTER_DATA@@0@Z ; std::_Ptr_cat<RINGMONSTER_DATA,RINGMONSTER_DATA>
; Function compile flags: /Ogtp
; File c:\program files (x86)\microsoft visual studio 10.0\vc\include\xutility
;	COMDAT ??$_Ptr_cat@URINGMONSTER_DATA@@U1@@std@@YA?AU_Nonscalar_ptr_iterator_tag@0@PAURINGMONSTER_DATA@@0@Z
_TEXT	SEGMENT
__Cat$ = -1						; size = 1
___formal$ = 8						; size = 4
___formal$ = 12						; size = 4
??$_Ptr_cat@URINGMONSTER_DATA@@U1@@std@@YA?AU_Nonscalar_ptr_iterator_tag@0@PAURINGMONSTER_DATA@@0@Z PROC ; std::_Ptr_cat<RINGMONSTER_DATA,RINGMONSTER_DATA>, COMDAT

; 516  : 	{	// return pointer category from pointers

  00000	55		 push	 ebp
  00001	8b ec		 mov	 ebp, esp
  00003	51		 push	 ecx

; 517  : 	typename _Ptr_cat_helper<_Elem1, _Elem2>::_Type _Cat;
; 518  : 	return (_Cat);

  00004	8a 45 ff	 mov	 al, BYTE PTR __Cat$[ebp]

; 519  : 	}

  00007	8b e5		 mov	 esp, ebp
  00009	5d		 pop	 ebp
  0000a	c3		 ret	 0
??$_Ptr_cat@URINGMONSTER_DATA@@U1@@std@@YA?AU_Nonscalar_ptr_iterator_tag@0@PAURINGMONSTER_DATA@@0@Z ENDP ; std::_Ptr_cat<RINGMONSTER_DATA,RINGMONSTER_DATA>
_TEXT	ENDS
PUBLIC	??$forward@AAURINGMONSTER_EVENT_TIME@@@std@@YAAAURINGMONSTER_EVENT_TIME@@AAU1@@Z ; std::forward<RINGMONSTER_EVENT_TIME &>
; Function compile flags: /Ogtp
; File c:\program files (x86)\microsoft visual studio 10.0\vc\include\utility
;	COMDAT ??$forward@AAURINGMONSTER_EVENT_TIME@@@std@@YAAAURINGMONSTER_EVENT_TIME@@AAU1@@Z
_TEXT	SEGMENT
__Arg$ = 8						; size = 4
??$forward@AAURINGMONSTER_EVENT_TIME@@@std@@YAAAURINGMONSTER_EVENT_TIME@@AAU1@@Z PROC ; std::forward<RINGMONSTER_EVENT_TIME &>, COMDAT

; 78   : 	{	// forward _Arg, given explicitly specified type parameter

  00000	55		 push	 ebp
  00001	8b ec		 mov	 ebp, esp

; 79   : 	return ((_Ty&&)_Arg);

  00003	8b 45 08	 mov	 eax, DWORD PTR __Arg$[ebp]

; 80   : 	}

  00006	5d		 pop	 ebp
  00007	c3		 ret	 0
??$forward@AAURINGMONSTER_EVENT_TIME@@@std@@YAAAURINGMONSTER_EVENT_TIME@@AAU1@@Z ENDP ; std::forward<RINGMONSTER_EVENT_TIME &>
_TEXT	ENDS
PUBLIC	??$construct@AAURINGMONSTER_EVENT_TIME@@@?$allocator@URINGMONSTER_EVENT_TIME@@@std@@QAEXPAURINGMONSTER_EVENT_TIME@@AAU2@@Z ; std::allocator<RINGMONSTER_EVENT_TIME>::construct<RINGMONSTER_EVENT_TIME &>
; Function compile flags: /Ogtp
; File c:\program files (x86)\microsoft visual studio 10.0\vc\include\xmemory
;	COMDAT ??$construct@AAURINGMONSTER_EVENT_TIME@@@?$allocator@URINGMONSTER_EVENT_TIME@@@std@@QAEXPAURINGMONSTER_EVENT_TIME@@AAU2@@Z
_TEXT	SEGMENT
__Ptr$ = 8						; size = 4
__Val$ = 12						; size = 4
??$construct@AAURINGMONSTER_EVENT_TIME@@@?$allocator@URINGMONSTER_EVENT_TIME@@@std@@QAEXPAURINGMONSTER_EVENT_TIME@@AAU2@@Z PROC ; std::allocator<RINGMONSTER_EVENT_TIME>::construct<RINGMONSTER_EVENT_TIME &>, COMDAT
; _this$ = ecx

; 206  : 		void construct(pointer _Ptr, _Other&& _Val)

  00000	55		 push	 ebp
  00001	8b ec		 mov	 ebp, esp

; 207  : 		{	// construct object at _Ptr with value _Val
; 208  : 		::new ((void _FARQ *)_Ptr) _Ty(_STD forward<_Other>(_Val));

  00003	8b 45 08	 mov	 eax, DWORD PTR __Ptr$[ebp]
  00006	85 c0		 test	 eax, eax
  00008	74 0d		 je	 SHORT $LN3@construct@2
  0000a	8b 4d 0c	 mov	 ecx, DWORD PTR __Val$[ebp]
  0000d	8b 11		 mov	 edx, DWORD PTR [ecx]
  0000f	89 10		 mov	 DWORD PTR [eax], edx
  00011	8b 49 04	 mov	 ecx, DWORD PTR [ecx+4]
  00014	89 48 04	 mov	 DWORD PTR [eax+4], ecx
$LN3@construct@2:

; 209  : 		}

  00017	5d		 pop	 ebp
  00018	c2 08 00	 ret	 8
??$construct@AAURINGMONSTER_EVENT_TIME@@@?$allocator@URINGMONSTER_EVENT_TIME@@@std@@QAEXPAURINGMONSTER_EVENT_TIME@@AAU2@@Z ENDP ; std::allocator<RINGMONSTER_EVENT_TIME>::construct<RINGMONSTER_EVENT_TIME &>
_TEXT	ENDS
PUBLIC	??$forward@ABURINGMONSTER_EVENT_TIME@@@std@@YAABURINGMONSTER_EVENT_TIME@@ABU1@@Z ; std::forward<RINGMONSTER_EVENT_TIME const &>
; Function compile flags: /Ogtp
; File c:\program files (x86)\microsoft visual studio 10.0\vc\include\utility
;	COMDAT ??$forward@ABURINGMONSTER_EVENT_TIME@@@std@@YAABURINGMONSTER_EVENT_TIME@@ABU1@@Z
_TEXT	SEGMENT
__Arg$ = 8						; size = 4
??$forward@ABURINGMONSTER_EVENT_TIME@@@std@@YAABURINGMONSTER_EVENT_TIME@@ABU1@@Z PROC ; std::forward<RINGMONSTER_EVENT_TIME const &>, COMDAT

; 78   : 	{	// forward _Arg, given explicitly specified type parameter

  00000	55		 push	 ebp
  00001	8b ec		 mov	 ebp, esp

; 79   : 	return ((_Ty&&)_Arg);

  00003	8b 45 08	 mov	 eax, DWORD PTR __Arg$[ebp]

; 80   : 	}

  00006	5d		 pop	 ebp
  00007	c3		 ret	 0
??$forward@ABURINGMONSTER_EVENT_TIME@@@std@@YAABURINGMONSTER_EVENT_TIME@@ABU1@@Z ENDP ; std::forward<RINGMONSTER_EVENT_TIME const &>
_TEXT	ENDS
PUBLIC	??$_Ptr_cat@URINGMONSTER_EVENT_TIME@@U1@@std@@YA?AU_Nonscalar_ptr_iterator_tag@0@PAURINGMONSTER_EVENT_TIME@@0@Z ; std::_Ptr_cat<RINGMONSTER_EVENT_TIME,RINGMONSTER_EVENT_TIME>
; Function compile flags: /Ogtp
; File c:\program files (x86)\microsoft visual studio 10.0\vc\include\xutility
;	COMDAT ??$_Ptr_cat@URINGMONSTER_EVENT_TIME@@U1@@std@@YA?AU_Nonscalar_ptr_iterator_tag@0@PAURINGMONSTER_EVENT_TIME@@0@Z
_TEXT	SEGMENT
__Cat$ = -1						; size = 1
___formal$ = 8						; size = 4
___formal$ = 12						; size = 4
??$_Ptr_cat@URINGMONSTER_EVENT_TIME@@U1@@std@@YA?AU_Nonscalar_ptr_iterator_tag@0@PAURINGMONSTER_EVENT_TIME@@0@Z PROC ; std::_Ptr_cat<RINGMONSTER_EVENT_TIME,RINGMONSTER_EVENT_TIME>, COMDAT

; 516  : 	{	// return pointer category from pointers

  00000	55		 push	 ebp
  00001	8b ec		 mov	 ebp, esp
  00003	51		 push	 ecx

; 517  : 	typename _Ptr_cat_helper<_Elem1, _Elem2>::_Type _Cat;
; 518  : 	return (_Cat);

  00004	8a 45 ff	 mov	 al, BYTE PTR __Cat$[ebp]

; 519  : 	}

  00007	8b e5		 mov	 esp, ebp
  00009	5d		 pop	 ebp
  0000a	c3		 ret	 0
??$_Ptr_cat@URINGMONSTER_EVENT_TIME@@U1@@std@@YA?AU_Nonscalar_ptr_iterator_tag@0@PAURINGMONSTER_EVENT_TIME@@0@Z ENDP ; std::_Ptr_cat<RINGMONSTER_EVENT_TIME,RINGMONSTER_EVENT_TIME>
_TEXT	ENDS
PUBLIC	??$_Construct@URINGMONSTER_DATA@@ABU1@@std@@YAXPAURINGMONSTER_DATA@@ABU1@@Z ; std::_Construct<RINGMONSTER_DATA,RINGMONSTER_DATA const &>
; Function compile flags: /Ogtp
; File c:\program files (x86)\microsoft visual studio 10.0\vc\include\xmemory
;	COMDAT ??$_Construct@URINGMONSTER_DATA@@ABU1@@std@@YAXPAURINGMONSTER_DATA@@ABU1@@Z
_TEXT	SEGMENT
__Ptr$ = 8						; size = 4
__Val$ = 12						; size = 4
??$_Construct@URINGMONSTER_DATA@@ABU1@@std@@YAXPAURINGMONSTER_DATA@@ABU1@@Z PROC ; std::_Construct<RINGMONSTER_DATA,RINGMONSTER_DATA const &>, COMDAT

; 46   : 	{	// construct object at _Ptr with value _Val

  00000	55		 push	 ebp
  00001	8b ec		 mov	 ebp, esp

; 47   : 	void _FARQ *_Vptr = _Ptr;
; 48   : 	::new (_Vptr) _Ty1(_STD forward<_Ty2>(_Val));

  00003	8b 45 08	 mov	 eax, DWORD PTR __Ptr$[ebp]
  00006	85 c0		 test	 eax, eax
  00008	74 13		 je	 SHORT $LN3@Construct
  0000a	8b 4d 0c	 mov	 ecx, DWORD PTR __Val$[ebp]
  0000d	8b 11		 mov	 edx, DWORD PTR [ecx]
  0000f	89 10		 mov	 DWORD PTR [eax], edx
  00011	8b 51 04	 mov	 edx, DWORD PTR [ecx+4]
  00014	89 50 04	 mov	 DWORD PTR [eax+4], edx
  00017	8b 49 08	 mov	 ecx, DWORD PTR [ecx+8]
  0001a	89 48 08	 mov	 DWORD PTR [eax+8], ecx
$LN3@Construct:

; 49   : 	}

  0001d	5d		 pop	 ebp
  0001e	c3		 ret	 0
??$_Construct@URINGMONSTER_DATA@@ABU1@@std@@YAXPAURINGMONSTER_DATA@@ABU1@@Z ENDP ; std::_Construct<RINGMONSTER_DATA,RINGMONSTER_DATA const &>
_TEXT	ENDS
PUBLIC	??$_Construct@URINGMONSTER_EVENT_TIME@@ABU1@@std@@YAXPAURINGMONSTER_EVENT_TIME@@ABU1@@Z ; std::_Construct<RINGMONSTER_EVENT_TIME,RINGMONSTER_EVENT_TIME const &>
; Function compile flags: /Ogtp
;	COMDAT ??$_Construct@URINGMONSTER_EVENT_TIME@@ABU1@@std@@YAXPAURINGMONSTER_EVENT_TIME@@ABU1@@Z
_TEXT	SEGMENT
__Ptr$ = 8						; size = 4
__Val$ = 12						; size = 4
??$_Construct@URINGMONSTER_EVENT_TIME@@ABU1@@std@@YAXPAURINGMONSTER_EVENT_TIME@@ABU1@@Z PROC ; std::_Construct<RINGMONSTER_EVENT_TIME,RINGMONSTER_EVENT_TIME const &>, COMDAT

; 46   : 	{	// construct object at _Ptr with value _Val

  00000	55		 push	 ebp
  00001	8b ec		 mov	 ebp, esp

; 47   : 	void _FARQ *_Vptr = _Ptr;
; 48   : 	::new (_Vptr) _Ty1(_STD forward<_Ty2>(_Val));

  00003	8b 45 08	 mov	 eax, DWORD PTR __Ptr$[ebp]
  00006	85 c0		 test	 eax, eax
  00008	74 0d		 je	 SHORT $LN3@Construct@2
  0000a	8b 4d 0c	 mov	 ecx, DWORD PTR __Val$[ebp]
  0000d	8b 11		 mov	 edx, DWORD PTR [ecx]
  0000f	89 10		 mov	 DWORD PTR [eax], edx
  00011	8b 49 04	 mov	 ecx, DWORD PTR [ecx+4]
  00014	89 48 04	 mov	 DWORD PTR [eax+4], ecx
$LN3@Construct@2:

; 49   : 	}

  00017	5d		 pop	 ebp
  00018	c3		 ret	 0
??$_Construct@URINGMONSTER_EVENT_TIME@@ABU1@@std@@YAXPAURINGMONSTER_EVENT_TIME@@ABU1@@Z ENDP ; std::_Construct<RINGMONSTER_EVENT_TIME,RINGMONSTER_EVENT_TIME const &>
_TEXT	ENDS
PUBLIC	??$move@AAURINGMONSTER_DATA@@@std@@YA$$QAURINGMONSTER_DATA@@AAU1@@Z ; std::move<RINGMONSTER_DATA &>
; Function compile flags: /Ogtp
; File c:\program files (x86)\microsoft visual studio 10.0\vc\include\utility
;	COMDAT ??$move@AAURINGMONSTER_DATA@@@std@@YA$$QAURINGMONSTER_DATA@@AAU1@@Z
_TEXT	SEGMENT
__Arg$ = 8						; size = 4
??$move@AAURINGMONSTER_DATA@@@std@@YA$$QAURINGMONSTER_DATA@@AAU1@@Z PROC ; std::move<RINGMONSTER_DATA &>, COMDAT

; 86   : 	{	// forward _Arg as movable

  00000	55		 push	 ebp
  00001	8b ec		 mov	 ebp, esp

; 87   : 	return ((typename tr1::_Remove_reference<_Ty>::_Type&&)_Arg);

  00003	8b 45 08	 mov	 eax, DWORD PTR __Arg$[ebp]

; 88   : 	}

  00006	5d		 pop	 ebp
  00007	c3		 ret	 0
??$move@AAURINGMONSTER_DATA@@@std@@YA$$QAURINGMONSTER_DATA@@AAU1@@Z ENDP ; std::move<RINGMONSTER_DATA &>
_TEXT	ENDS
PUBLIC	??$move@AAURINGMONSTER_EVENT_TIME@@@std@@YA$$QAURINGMONSTER_EVENT_TIME@@AAU1@@Z ; std::move<RINGMONSTER_EVENT_TIME &>
; Function compile flags: /Ogtp
;	COMDAT ??$move@AAURINGMONSTER_EVENT_TIME@@@std@@YA$$QAURINGMONSTER_EVENT_TIME@@AAU1@@Z
_TEXT	SEGMENT
__Arg$ = 8						; size = 4
??$move@AAURINGMONSTER_EVENT_TIME@@@std@@YA$$QAURINGMONSTER_EVENT_TIME@@AAU1@@Z PROC ; std::move<RINGMONSTER_EVENT_TIME &>, COMDAT

; 86   : 	{	// forward _Arg as movable

  00000	55		 push	 ebp
  00001	8b ec		 mov	 ebp, esp

; 87   : 	return ((typename tr1::_Remove_reference<_Ty>::_Type&&)_Arg);

  00003	8b 45 08	 mov	 eax, DWORD PTR __Arg$[ebp]

; 88   : 	}

  00006	5d		 pop	 ebp
  00007	c3		 ret	 0
??$move@AAURINGMONSTER_EVENT_TIME@@@std@@YA$$QAURINGMONSTER_EVENT_TIME@@AAU1@@Z ENDP ; std::move<RINGMONSTER_EVENT_TIME &>
_TEXT	ENDS
PUBLIC	??$_Val_type@PAURINGMONSTER_DATA@@@std@@YAPAURINGMONSTER_DATA@@PAU1@@Z ; std::_Val_type<RINGMONSTER_DATA *>
; Function compile flags: /Ogtp
; File c:\program files (x86)\microsoft visual studio 10.0\vc\include\xutility
;	COMDAT ??$_Val_type@PAURINGMONSTER_DATA@@@std@@YAPAURINGMONSTER_DATA@@PAU1@@Z
_TEXT	SEGMENT
___formal$ = 8						; size = 4
??$_Val_type@PAURINGMONSTER_DATA@@@std@@YAPAURINGMONSTER_DATA@@PAU1@@Z PROC ; std::_Val_type<RINGMONSTER_DATA *>, COMDAT

; 790  : 	return (0);

  00000	33 c0		 xor	 eax, eax

; 791  : 	}

  00002	c3		 ret	 0
??$_Val_type@PAURINGMONSTER_DATA@@@std@@YAPAURINGMONSTER_DATA@@PAU1@@Z ENDP ; std::_Val_type<RINGMONSTER_DATA *>
_TEXT	ENDS
PUBLIC	??$_Val_type@PAURINGMONSTER_EVENT_TIME@@@std@@YAPAURINGMONSTER_EVENT_TIME@@PAU1@@Z ; std::_Val_type<RINGMONSTER_EVENT_TIME *>
; Function compile flags: /Ogtp
;	COMDAT ??$_Val_type@PAURINGMONSTER_EVENT_TIME@@@std@@YAPAURINGMONSTER_EVENT_TIME@@PAU1@@Z
_TEXT	SEGMENT
___formal$ = 8						; size = 4
??$_Val_type@PAURINGMONSTER_EVENT_TIME@@@std@@YAPAURINGMONSTER_EVENT_TIME@@PAU1@@Z PROC ; std::_Val_type<RINGMONSTER_EVENT_TIME *>, COMDAT

; 790  : 	return (0);

  00000	33 c0		 xor	 eax, eax

; 791  : 	}

  00002	c3		 ret	 0
??$_Val_type@PAURINGMONSTER_EVENT_TIME@@@std@@YAPAURINGMONSTER_EVENT_TIME@@PAU1@@Z ENDP ; std::_Val_type<RINGMONSTER_EVENT_TIME *>
_TEXT	ENDS
PUBLIC	??$_Destroy@URINGMONSTER_DATA@@@std@@YAXPAURINGMONSTER_DATA@@@Z ; std::_Destroy<RINGMONSTER_DATA>
; Function compile flags: /Ogtp
; File c:\program files (x86)\microsoft visual studio 10.0\vc\include\xmemory
;	COMDAT ??$_Destroy@URINGMONSTER_DATA@@@std@@YAXPAURINGMONSTER_DATA@@@Z
_TEXT	SEGMENT
__Ptr$ = 8						; size = 4
??$_Destroy@URINGMONSTER_DATA@@@std@@YAXPAURINGMONSTER_DATA@@@Z PROC ; std::_Destroy<RINGMONSTER_DATA>, COMDAT

; 63   : 	_Ptr->~_Ty();
; 64   : 	}

  00000	c3		 ret	 0
??$_Destroy@URINGMONSTER_DATA@@@std@@YAXPAURINGMONSTER_DATA@@@Z ENDP ; std::_Destroy<RINGMONSTER_DATA>
_TEXT	ENDS
PUBLIC	??$_Destroy@URINGMONSTER_EVENT_TIME@@@std@@YAXPAURINGMONSTER_EVENT_TIME@@@Z ; std::_Destroy<RINGMONSTER_EVENT_TIME>
; Function compile flags: /Ogtp
;	COMDAT ??$_Destroy@URINGMONSTER_EVENT_TIME@@@std@@YAXPAURINGMONSTER_EVENT_TIME@@@Z
_TEXT	SEGMENT
__Ptr$ = 8						; size = 4
??$_Destroy@URINGMONSTER_EVENT_TIME@@@std@@YAXPAURINGMONSTER_EVENT_TIME@@@Z PROC ; std::_Destroy<RINGMONSTER_EVENT_TIME>, COMDAT

; 63   : 	_Ptr->~_Ty();
; 64   : 	}

  00000	c3		 ret	 0
??$_Destroy@URINGMONSTER_EVENT_TIME@@@std@@YAXPAURINGMONSTER_EVENT_TIME@@@Z ENDP ; std::_Destroy<RINGMONSTER_EVENT_TIME>
_TEXT	ENDS
PUBLIC	??$forward@URINGMONSTER_DATA@@@std@@YA$$QAURINGMONSTER_DATA@@AAU1@@Z ; std::forward<RINGMONSTER_DATA>
; Function compile flags: /Ogtp
; File c:\program files (x86)\microsoft visual studio 10.0\vc\include\utility
;	COMDAT ??$forward@URINGMONSTER_DATA@@@std@@YA$$QAURINGMONSTER_DATA@@AAU1@@Z
_TEXT	SEGMENT
__Arg$ = 8						; size = 4
??$forward@URINGMONSTER_DATA@@@std@@YA$$QAURINGMONSTER_DATA@@AAU1@@Z PROC ; std::forward<RINGMONSTER_DATA>, COMDAT

; 78   : 	{	// forward _Arg, given explicitly specified type parameter

  00000	55		 push	 ebp
  00001	8b ec		 mov	 ebp, esp

; 79   : 	return ((_Ty&&)_Arg);

  00003	8b 45 08	 mov	 eax, DWORD PTR __Arg$[ebp]

; 80   : 	}

  00006	5d		 pop	 ebp
  00007	c3		 ret	 0
??$forward@URINGMONSTER_DATA@@@std@@YA$$QAURINGMONSTER_DATA@@AAU1@@Z ENDP ; std::forward<RINGMONSTER_DATA>
_TEXT	ENDS
PUBLIC	??$forward@URINGMONSTER_EVENT_TIME@@@std@@YA$$QAURINGMONSTER_EVENT_TIME@@AAU1@@Z ; std::forward<RINGMONSTER_EVENT_TIME>
; Function compile flags: /Ogtp
;	COMDAT ??$forward@URINGMONSTER_EVENT_TIME@@@std@@YA$$QAURINGMONSTER_EVENT_TIME@@AAU1@@Z
_TEXT	SEGMENT
__Arg$ = 8						; size = 4
??$forward@URINGMONSTER_EVENT_TIME@@@std@@YA$$QAURINGMONSTER_EVENT_TIME@@AAU1@@Z PROC ; std::forward<RINGMONSTER_EVENT_TIME>, COMDAT

; 78   : 	{	// forward _Arg, given explicitly specified type parameter

  00000	55		 push	 ebp
  00001	8b ec		 mov	 ebp, esp

; 79   : 	return ((_Ty&&)_Arg);

  00003	8b 45 08	 mov	 eax, DWORD PTR __Arg$[ebp]

; 80   : 	}

  00006	5d		 pop	 ebp
  00007	c3		 ret	 0
??$forward@URINGMONSTER_EVENT_TIME@@@std@@YA$$QAURINGMONSTER_EVENT_TIME@@AAU1@@Z ENDP ; std::forward<RINGMONSTER_EVENT_TIME>
_TEXT	ENDS
PUBLIC	??_7bad_alloc@std@@6B@				; std::bad_alloc::`vftable'
PUBLIC	??0bad_alloc@std@@QAE@PBD@Z			; std::bad_alloc::bad_alloc
PUBLIC	??_R4bad_alloc@std@@6B@				; std::bad_alloc::`RTTI Complete Object Locator'
PUBLIC	??_R0?AVbad_alloc@std@@@8			; std::bad_alloc `RTTI Type Descriptor'
PUBLIC	??_R3bad_alloc@std@@8				; std::bad_alloc::`RTTI Class Hierarchy Descriptor'
PUBLIC	??_R2bad_alloc@std@@8				; std::bad_alloc::`RTTI Base Class Array'
PUBLIC	??_R1A@?0A@EA@bad_alloc@std@@8			; std::bad_alloc::`RTTI Base Class Descriptor at (0,-1,0,64)'
PUBLIC	??_R1A@?0A@EA@exception@std@@8			; std::exception::`RTTI Base Class Descriptor at (0,-1,0,64)'
PUBLIC	??_R0?AVexception@std@@@8			; std::exception `RTTI Type Descriptor'
PUBLIC	??_R3exception@std@@8				; std::exception::`RTTI Class Hierarchy Descriptor'
PUBLIC	??_R2exception@std@@8				; std::exception::`RTTI Base Class Array'
EXTRN	??0exception@std@@QAE@ABQBD@Z:PROC		; std::exception::exception
EXTRN	??_Ebad_alloc@std@@UAEPAXI@Z:PROC		; std::bad_alloc::`vector deleting destructor'
EXTRN	?what@exception@std@@UBEPBDXZ:PROC		; std::exception::what
;	COMDAT ??_R2exception@std@@8
; File c:\program files (x86)\microsoft visual studio 10.0\vc\include\exception
rdata$r	SEGMENT
??_R2exception@std@@8 DD FLAT:??_R1A@?0A@EA@exception@std@@8 ; std::exception::`RTTI Base Class Array'
rdata$r	ENDS
;	COMDAT ??_R3exception@std@@8
rdata$r	SEGMENT
??_R3exception@std@@8 DD 00H				; std::exception::`RTTI Class Hierarchy Descriptor'
	DD	00H
	DD	01H
	DD	FLAT:??_R2exception@std@@8
rdata$r	ENDS
;	COMDAT ??_R0?AVexception@std@@@8
_DATA	SEGMENT
??_R0?AVexception@std@@@8 DD FLAT:??_7type_info@@6B@	; std::exception `RTTI Type Descriptor'
	DD	00H
	DB	'.?AVexception@std@@', 00H
_DATA	ENDS
;	COMDAT ??_R1A@?0A@EA@exception@std@@8
rdata$r	SEGMENT
??_R1A@?0A@EA@exception@std@@8 DD FLAT:??_R0?AVexception@std@@@8 ; std::exception::`RTTI Base Class Descriptor at (0,-1,0,64)'
	DD	00H
	DD	00H
	DD	0ffffffffH
	DD	00H
	DD	040H
	DD	FLAT:??_R3exception@std@@8
rdata$r	ENDS
;	COMDAT ??_R1A@?0A@EA@bad_alloc@std@@8
rdata$r	SEGMENT
??_R1A@?0A@EA@bad_alloc@std@@8 DD FLAT:??_R0?AVbad_alloc@std@@@8 ; std::bad_alloc::`RTTI Base Class Descriptor at (0,-1,0,64)'
	DD	01H
	DD	00H
	DD	0ffffffffH
	DD	00H
	DD	040H
	DD	FLAT:??_R3bad_alloc@std@@8
rdata$r	ENDS
;	COMDAT ??_R2bad_alloc@std@@8
rdata$r	SEGMENT
??_R2bad_alloc@std@@8 DD FLAT:??_R1A@?0A@EA@bad_alloc@std@@8 ; std::bad_alloc::`RTTI Base Class Array'
	DD	FLAT:??_R1A@?0A@EA@exception@std@@8
rdata$r	ENDS
;	COMDAT ??_R3bad_alloc@std@@8
rdata$r	SEGMENT
??_R3bad_alloc@std@@8 DD 00H				; std::bad_alloc::`RTTI Class Hierarchy Descriptor'
	DD	00H
	DD	02H
	DD	FLAT:??_R2bad_alloc@std@@8
rdata$r	ENDS
;	COMDAT ??_R0?AVbad_alloc@std@@@8
_DATA	SEGMENT
??_R0?AVbad_alloc@std@@@8 DD FLAT:??_7type_info@@6B@	; std::bad_alloc `RTTI Type Descriptor'
	DD	00H
	DB	'.?AVbad_alloc@std@@', 00H
_DATA	ENDS
;	COMDAT ??_R4bad_alloc@std@@6B@
rdata$r	SEGMENT
??_R4bad_alloc@std@@6B@ DD 00H				; std::bad_alloc::`RTTI Complete Object Locator'
	DD	00H
	DD	00H
	DD	FLAT:??_R0?AVbad_alloc@std@@@8
	DD	FLAT:??_R3bad_alloc@std@@8
rdata$r	ENDS
;	COMDAT ??_7bad_alloc@std@@6B@
CONST	SEGMENT
??_7bad_alloc@std@@6B@ DD FLAT:??_R4bad_alloc@std@@6B@	; std::bad_alloc::`vftable'
	DD	FLAT:??_Ebad_alloc@std@@UAEPAXI@Z
	DD	FLAT:?what@exception@std@@UBEPBDXZ
; Function compile flags: /Ogtp
CONST	ENDS
;	COMDAT ??0bad_alloc@std@@QAE@PBD@Z
_TEXT	SEGMENT
__Message$ = 8						; size = 4
??0bad_alloc@std@@QAE@PBD@Z PROC			; std::bad_alloc::bad_alloc, COMDAT
; _this$ = ecx

; 345  : 		{	// construct from message string

  00000	55		 push	 ebp
  00001	8b ec		 mov	 ebp, esp
  00003	56		 push	 esi
  00004	8d 45 08	 lea	 eax, DWORD PTR __Message$[ebp]
  00007	50		 push	 eax
  00008	8b f1		 mov	 esi, ecx
  0000a	e8 00 00 00 00	 call	 ??0exception@std@@QAE@ABQBD@Z ; std::exception::exception
  0000f	c7 06 00 00 00
	00		 mov	 DWORD PTR [esi], OFFSET ??_7bad_alloc@std@@6B@

; 346  : 		}

  00015	8b c6		 mov	 eax, esi
  00017	5e		 pop	 esi
  00018	5d		 pop	 ebp
  00019	c2 04 00	 ret	 4
??0bad_alloc@std@@QAE@PBD@Z ENDP			; std::bad_alloc::bad_alloc
_TEXT	ENDS
PUBLIC	??1bad_alloc@std@@UAE@XZ			; std::bad_alloc::~bad_alloc
EXTRN	??1exception@std@@UAE@XZ:PROC			; std::exception::~exception
; Function compile flags: /Ogtp
;	COMDAT ??1bad_alloc@std@@UAE@XZ
_TEXT	SEGMENT
??1bad_alloc@std@@UAE@XZ PROC				; std::bad_alloc::~bad_alloc, COMDAT
; _this$ = ecx

; 354  : 		{	// destroy the object

  00000	c7 01 00 00 00
	00		 mov	 DWORD PTR [ecx], OFFSET ??_7bad_alloc@std@@6B@

; 355  : 		}

  00006	e9 00 00 00 00	 jmp	 ??1exception@std@@UAE@XZ ; std::exception::~exception
??1bad_alloc@std@@UAE@XZ ENDP				; std::bad_alloc::~bad_alloc
; Function compile flags: /Ogtp
_TEXT	ENDS
;	COMDAT ??_Gbad_alloc@std@@UAEPAXI@Z
_TEXT	SEGMENT
___flags$ = 8						; size = 4
??_Gbad_alloc@std@@UAEPAXI@Z PROC			; std::bad_alloc::`scalar deleting destructor', COMDAT
; _this$ = ecx
  00000	55		 push	 ebp
  00001	8b ec		 mov	 ebp, esp
  00003	56		 push	 esi
  00004	8b f1		 mov	 esi, ecx
  00006	c7 06 00 00 00
	00		 mov	 DWORD PTR [esi], OFFSET ??_7bad_alloc@std@@6B@
  0000c	e8 00 00 00 00	 call	 ??1exception@std@@UAE@XZ ; std::exception::~exception
  00011	f6 45 08 01	 test	 BYTE PTR ___flags$[ebp], 1
  00015	74 09		 je	 SHORT $LN6@scalar
  00017	56		 push	 esi
  00018	e8 00 00 00 00	 call	 ??3@YAXPAX@Z		; operator delete
  0001d	83 c4 04	 add	 esp, 4
$LN6@scalar:
  00020	8b c6		 mov	 eax, esi
  00022	5e		 pop	 esi
  00023	5d		 pop	 ebp
  00024	c2 04 00	 ret	 4
??_Gbad_alloc@std@@UAEPAXI@Z ENDP			; std::bad_alloc::`scalar deleting destructor'
_TEXT	ENDS
PUBLIC	?_Orphan_all@_Container_base0@std@@QAEXXZ	; std::_Container_base0::_Orphan_all
; Function compile flags: /Ogtp
; File c:\program files (x86)\microsoft visual studio 10.0\vc\include\xutility
;	COMDAT ?_Orphan_all@_Container_base0@std@@QAEXXZ
_TEXT	SEGMENT
?_Orphan_all@_Container_base0@std@@QAEXXZ PROC		; std::_Container_base0::_Orphan_all, COMDAT
; _this$ = ecx

; 38   : 		}

  00000	c3		 ret	 0
?_Orphan_all@_Container_base0@std@@QAEXXZ ENDP		; std::_Container_base0::_Orphan_all
_TEXT	ENDS
PUBLIC	?_Adopt@_Iterator_base0@std@@QAEXPBX@Z		; std::_Iterator_base0::_Adopt
; Function compile flags: /Ogtp
;	COMDAT ?_Adopt@_Iterator_base0@std@@QAEXPBX@Z
_TEXT	SEGMENT
___formal$ = 8						; size = 4
?_Adopt@_Iterator_base0@std@@QAEXPBX@Z PROC		; std::_Iterator_base0::_Adopt, COMDAT
; _this$ = ecx

; 49   : 		}

  00000	c2 04 00	 ret	 4
?_Adopt@_Iterator_base0@std@@QAEXPBX@Z ENDP		; std::_Iterator_base0::_Adopt
; Function compile flags: /Ogtp
_TEXT	ENDS
;	COMDAT ??_GCRingMonsterHerd@@UAEPAXI@Z
_TEXT	SEGMENT
___flags$ = 8						; size = 4
??_GCRingMonsterHerd@@UAEPAXI@Z PROC			; CRingMonsterHerd::`scalar deleting destructor', COMDAT
; _this$ = ecx
  00000	55		 push	 ebp
  00001	8b ec		 mov	 ebp, esp
  00003	56		 push	 esi
  00004	8b f1		 mov	 esi, ecx
  00006	e8 00 00 00 00	 call	 ??1CRingMonsterHerd@@UAE@XZ ; CRingMonsterHerd::~CRingMonsterHerd
  0000b	f6 45 08 01	 test	 BYTE PTR ___flags$[ebp], 1
  0000f	74 09		 je	 SHORT $LN4@scalar@2
  00011	56		 push	 esi
  00012	e8 00 00 00 00	 call	 ??3@YAXPAX@Z		; operator delete
  00017	83 c4 04	 add	 esp, 4
$LN4@scalar@2:
  0001a	8b c6		 mov	 eax, esi
  0001c	5e		 pop	 esi
  0001d	5d		 pop	 ebp
  0001e	c2 04 00	 ret	 4
??_GCRingMonsterHerd@@UAEPAXI@Z ENDP			; CRingMonsterHerd::`scalar deleting destructor'
_TEXT	ENDS
PUBLIC	??_C@_0DL@ELDBHEBB@?$FLRing?5Event?$FN?5White?5Wizard?5Killed@ ; `string'
PUBLIC	__$ArrayPad$
EXTRN	?MoneyItemDrop@MapClass@@QAEHHHH@Z:PROC		; MapClass::MoneyItemDrop
EXTRN	?MapC@@3PAVMapClass@@A:BYTE			; MapC
EXTRN	?g_iRingOrcKillGiftRate@@3HA:DWORD		; g_iRingOrcKillGiftRate
EXTRN	?AllSendServerMsg@@YAXPAD@Z:PROC		; AllSendServerMsg
EXTRN	__imp__wsprintfA:PROC
EXTRN	?Get@CMsg@@QAEPADH@Z:PROC			; CMsg::Get
EXTRN	?lMsg@@3VCMsg@@A:BYTE				; lMsg
EXTRN	?gMapName@@3PAY0PP@DA:BYTE			; gMapName
EXTRN	?ItemSerialCreateSend@@YAXHEEEHEEEEEHEE@Z:PROC	; ItemSerialCreateSend
EXTRN	?ItemGetNumberMake@@YAHHH@Z:PROC		; ItemGetNumberMake
EXTRN	?gObjMonsterTopHitDamageUser@@YAHPAUOBJECTSTRUCT@@@Z:PROC ; gObjMonsterTopHitDamageUser
;	COMDAT ??_C@_0DL@ELDBHEBB@?$FLRing?5Event?$FN?5White?5Wizard?5Killed@
; File c:\users\faelhs\mu-1.1\emu - gameserver sapphire s0\gameserver\ringattackevent.cpp
CONST	SEGMENT
??_C@_0DL@ELDBHEBB@?$FLRing?5Event?$FN?5White?5Wizard?5Killed@ DB '[Ring '
	DB	'Event] White Wizard Killed by [%s][%s], MapNumber:%d', 00H ; `string'
; Function compile flags: /Ogtp
CONST	ENDS
;	COMDAT ?MonsterHerdItemDrop@CRingMonsterHerd@@UAEHPAUOBJECTSTRUCT@@@Z
_TEXT	SEGMENT
_szTemp$155254 = -260					; size = 256
__$ArrayPad$ = -4					; size = 4
_lpObj$ = 8						; size = 4
?MonsterHerdItemDrop@CRingMonsterHerd@@UAEHPAUOBJECTSTRUCT@@@Z PROC ; CRingMonsterHerd::MonsterHerdItemDrop, COMDAT
; _this$ = ecx

; 36   : {

  00000	55		 push	 ebp
  00001	8b ec		 mov	 ebp, esp
  00003	81 ec 04 01 00
	00		 sub	 esp, 260		; 00000104H
  00009	a1 00 00 00 00	 mov	 eax, DWORD PTR ___security_cookie
  0000e	33 c5		 xor	 eax, ebp
  00010	89 45 fc	 mov	 DWORD PTR __$ArrayPad$[ebp], eax
  00013	56		 push	 esi
  00014	8b 75 08	 mov	 esi, DWORD PTR _lpObj$[ebp]

; 37   : 	
; 38   : 	if ( lpObj->Class == 135 )

  00017	0f b7 86 98 00
	00 00		 movzx	 eax, WORD PTR [esi+152]
  0001e	57		 push	 edi
  0001f	8b f9		 mov	 edi, ecx
  00021	b9 87 00 00 00	 mov	 ecx, 135		; 00000087H
  00026	66 3b c1	 cmp	 ax, cx
  00029	0f 85 b3 00 00
	00		 jne	 $LN5@MonsterHer

; 39   : 	{
; 40   : 		int iIndex = gObjMonsterTopHitDamageUser(lpObj);

  0002f	53		 push	 ebx
  00030	56		 push	 esi
  00031	e8 00 00 00 00	 call	 ?gObjMonsterTopHitDamageUser@@YAHPAUOBJECTSTRUCT@@@Z ; gObjMonsterTopHitDamageUser

; 41   : 		int itemnumber = ItemGetNumberMake(14, 13);

  00036	6a 0d		 push	 13			; 0000000dH
  00038	6a 0e		 push	 14			; 0000000eH
  0003a	8b f8		 mov	 edi, eax
  0003c	e8 00 00 00 00	 call	 ?ItemGetNumberMake@@YAHHH@Z ; ItemGetNumberMake

; 42   : 		ItemSerialCreateSend(lpObj->m_Index, lpObj->MapNumber, lpObj->X, lpObj->Y,
; 43   : 			itemnumber, 0, 0, 0, 0, 0, iIndex, 0, 0);

  00041	0f b6 96 06 01
	00 00		 movzx	 edx, BYTE PTR [esi+262]
  00048	0f b6 8e 09 01
	00 00		 movzx	 ecx, BYTE PTR [esi+265]
  0004f	6a 00		 push	 0
  00051	6a 00		 push	 0
  00053	57		 push	 edi
  00054	6a 00		 push	 0
  00056	6a 00		 push	 0
  00058	6a 00		 push	 0
  0005a	6a 00		 push	 0
  0005c	6a 00		 push	 0
  0005e	50		 push	 eax
  0005f	0f b6 86 04 01
	00 00		 movzx	 eax, BYTE PTR [esi+260]
  00066	52		 push	 edx
  00067	8b 16		 mov	 edx, DWORD PTR [esi]
  00069	50		 push	 eax
  0006a	51		 push	 ecx
  0006b	52		 push	 edx
  0006c	e8 00 00 00 00	 call	 ?ItemSerialCreateSend@@YAXHEEEHEEEEEHEE@Z ; ItemSerialCreateSend

; 44   : 		char szTemp[256];
; 45   : 		wsprintf(szTemp, lMsg.Get(MSGGET(4, 181)), gObj[iIndex].Name, gMapName[lpObj->MapNumber]);	// #error Apply Deathway fix here

  00071	69 ff 64 15 00
	00		 imul	 edi, 5476		; 00001564H
  00077	0f b6 86 09 01
	00 00		 movzx	 eax, BYTE PTR [esi+265]
  0007e	69 c0 ff 00 00
	00		 imul	 eax, 255		; 000000ffH
  00084	83 c4 40	 add	 esp, 64			; 00000040H
  00087	05 00 00 00 00	 add	 eax, OFFSET ?gMapName@@3PAY0PP@DA ; gMapName
  0008c	50		 push	 eax
  0008d	8d 9f 6f 00 00
	00		 lea	 ebx, DWORD PTR ?gObj@@3PAUOBJECTSTRUCT@@A[edi+111]
  00093	53		 push	 ebx
  00094	68 b5 04 00 00	 push	 1205			; 000004b5H
  00099	b9 00 00 00 00	 mov	 ecx, OFFSET ?lMsg@@3VCMsg@@A ; lMsg
  0009e	e8 00 00 00 00	 call	 ?Get@CMsg@@QAEPADH@Z	; CMsg::Get
  000a3	50		 push	 eax
  000a4	8d 8d fc fe ff
	ff		 lea	 ecx, DWORD PTR _szTemp$155254[ebp]
  000aa	51		 push	 ecx
  000ab	ff 15 00 00 00
	00		 call	 DWORD PTR __imp__wsprintfA

; 46   : 		AllSendServerMsg( szTemp ); 

  000b1	8d 95 fc fe ff
	ff		 lea	 edx, DWORD PTR _szTemp$155254[ebp]
  000b7	52		 push	 edx
  000b8	e8 00 00 00 00	 call	 ?AllSendServerMsg@@YAXPAD@Z ; AllSendServerMsg

; 47   : 		LogAdd(LOG_BLACK, "[Ring Event] White Wizard Killed by [%s][%s], MapNumber:%d",
; 48   : 			gObj[iIndex].AccountID, gObj[iIndex].Name, gObj[iIndex].MapNumber);

  000bd	0f b6 87 09 01
	00 00		 movzx	 eax, BYTE PTR ?gObj@@3PAUOBJECTSTRUCT@@A[edi+265]
  000c4	50		 push	 eax
  000c5	53		 push	 ebx
  000c6	8d 8f 64 00 00
	00		 lea	 ecx, DWORD PTR ?gObj@@3PAUOBJECTSTRUCT@@A[edi+100]
  000cc	51		 push	 ecx
  000cd	68 00 00 00 00	 push	 OFFSET ??_C@_0DL@ELDBHEBB@?$FLRing?5Event?$FN?5White?5Wizard?5Killed@
  000d2	6a 00		 push	 0
  000d4	e8 00 00 00 00	 call	 ?LogAdd@@YAXW4eLogColor@@PADZZ ; LogAdd
  000d9	83 c4 28	 add	 esp, 40			; 00000028H
  000dc	5b		 pop	 ebx

; 49   : 
; 50   : 		return TRUE;

  000dd	e9 d2 00 00 00	 jmp	 $LN8@MonsterHer
$LN5@MonsterHer:

; 51   : 
; 52   : 	}
; 53   : 	
; 54   : 	if ( lpObj->Class == 136 || lpObj->Class == 137)

  000e2	ba 88 00 00 00	 mov	 edx, 136		; 00000088H
  000e7	66 3b c2	 cmp	 ax, dx
  000ea	74 1e		 je	 SHORT $LN3@MonsterHer
  000ec	b9 89 00 00 00	 mov	 ecx, 137		; 00000089H
  000f1	66 3b c1	 cmp	 ax, cx
  000f4	74 14		 je	 SHORT $LN3@MonsterHer

; 73   : 		return TRUE;
; 74   : 	}
; 75   : 
; 76   : 	return FALSE;

  000f6	5f		 pop	 edi
  000f7	33 c0		 xor	 eax, eax
  000f9	5e		 pop	 esi

; 77   : 
; 78   : }

  000fa	8b 4d fc	 mov	 ecx, DWORD PTR __$ArrayPad$[ebp]
  000fd	33 cd		 xor	 ecx, ebp
  000ff	e8 00 00 00 00	 call	 @__security_check_cookie@4
  00104	8b e5		 mov	 esp, ebp
  00106	5d		 pop	 ebp
  00107	c2 04 00	 ret	 4
$LN3@MonsterHer:

; 55   : 	{
; 56   : 		if ( (rand()%100) < 30 )

  0010a	e8 00 00 00 00	 call	 _rand
  0010f	99		 cdq
  00110	b9 64 00 00 00	 mov	 ecx, 100		; 00000064H
  00115	f7 f9		 idiv	 ecx
  00117	83 fa 1e	 cmp	 edx, 30			; 0000001eH
  0011a	7d 46		 jge	 SHORT $LN2@MonsterHer

; 57   : 		{
; 58   : 			int iIndex = gObjMonsterTopHitDamageUser(lpObj);

  0011c	56		 push	 esi
  0011d	e8 00 00 00 00	 call	 ?gObjMonsterTopHitDamageUser@@YAHPAUOBJECTSTRUCT@@@Z ; gObjMonsterTopHitDamageUser

; 59   : 			int itemnumber = ItemGetNumberMake(13, 20);	// Wizards Ring

  00122	6a 14		 push	 20			; 00000014H
  00124	6a 0d		 push	 13			; 0000000dH
  00126	8b f8		 mov	 edi, eax
  00128	e8 00 00 00 00	 call	 ?ItemGetNumberMake@@YAHHH@Z ; ItemGetNumberMake

; 60   : 			ItemSerialCreateSend(lpObj->m_Index, lpObj->MapNumber, lpObj->X, lpObj->Y,
; 61   : 				itemnumber, 0, 30, 0, 0, 0, iIndex, 0, 0);

  0012d	0f b6 96 06 01
	00 00		 movzx	 edx, BYTE PTR [esi+262]
  00134	0f b6 8e 09 01
	00 00		 movzx	 ecx, BYTE PTR [esi+265]
  0013b	6a 00		 push	 0
  0013d	6a 00		 push	 0
  0013f	57		 push	 edi
  00140	6a 00		 push	 0
  00142	6a 00		 push	 0
  00144	6a 00		 push	 0
  00146	6a 1e		 push	 30			; 0000001eH
  00148	6a 00		 push	 0
  0014a	50		 push	 eax
  0014b	0f b6 86 04 01
	00 00		 movzx	 eax, BYTE PTR [esi+260]
  00152	52		 push	 edx
  00153	8b 16		 mov	 edx, DWORD PTR [esi]
  00155	50		 push	 eax
  00156	51		 push	 ecx
  00157	52		 push	 edx
  00158	e8 00 00 00 00	 call	 ?ItemSerialCreateSend@@YAXHEEEHEEEEEHEE@Z ; ItemSerialCreateSend
  0015d	83 c4 40	 add	 esp, 64			; 00000040H

; 62   : 			return TRUE;

  00160	eb 52		 jmp	 SHORT $LN8@MonsterHer
$LN2@MonsterHer:

; 63   : 		}
; 64   : 		
; 65   : 		if ( (rand() % g_iRingOrcKillGiftRate) == 0 )

  00162	e8 00 00 00 00	 call	 _rand
  00167	99		 cdq
  00168	f7 3d 00 00 00
	00		 idiv	 DWORD PTR ?g_iRingOrcKillGiftRate@@3HA ; g_iRingOrcKillGiftRate
  0016e	85 d2		 test	 edx, edx
  00170	75 15		 jne	 SHORT $LN1@MonsterHer

; 66   : 		{
; 67   : 			int iIndex = gObjMonsterTopHitDamageUser(lpObj);

  00172	56		 push	 esi
  00173	e8 00 00 00 00	 call	 ?gObjMonsterTopHitDamageUser@@YAHPAUOBJECTSTRUCT@@@Z ; gObjMonsterTopHitDamageUser
  00178	83 c4 04	 add	 esp, 4

; 68   : 			this->SendEventGiftWinner(iIndex, 1);

  0017b	6a 01		 push	 1
  0017d	50		 push	 eax
  0017e	8b cf		 mov	 ecx, edi
  00180	e8 00 00 00 00	 call	 ?SendEventGiftWinner@CRingMonsterHerd@@QAEXHH@Z ; CRingMonsterHerd::SendEventGiftWinner

; 69   : 			return TRUE;

  00185	eb 2d		 jmp	 SHORT $LN8@MonsterHer
$LN1@MonsterHer:

; 70   : 		}
; 71   : 
; 72   : 		MapC[lpObj->MapNumber].MoneyItemDrop(10000, (BYTE)lpObj->X, (BYTE)lpObj->Y);

  00187	0f b6 86 06 01
	00 00		 movzx	 eax, BYTE PTR [esi+262]
  0018e	0f b6 8e 04 01
	00 00		 movzx	 ecx, BYTE PTR [esi+260]
  00195	50		 push	 eax
  00196	51		 push	 ecx
  00197	0f b6 8e 09 01
	00 00		 movzx	 ecx, BYTE PTR [esi+265]
  0019e	69 c9 08 07 05
	00		 imul	 ecx, 329480		; 00050708H
  001a4	68 10 27 00 00	 push	 10000			; 00002710H
  001a9	81 c1 00 00 00
	00		 add	 ecx, OFFSET ?MapC@@3PAVMapClass@@A ; MapC
  001af	e8 00 00 00 00	 call	 ?MoneyItemDrop@MapClass@@QAEHHHH@Z ; MapClass::MoneyItemDrop
$LN8@MonsterHer:

; 77   : 
; 78   : }

  001b4	8b 4d fc	 mov	 ecx, DWORD PTR __$ArrayPad$[ebp]
  001b7	5f		 pop	 edi
  001b8	33 cd		 xor	 ecx, ebp
  001ba	b8 01 00 00 00	 mov	 eax, 1
  001bf	5e		 pop	 esi
  001c0	e8 00 00 00 00	 call	 @__security_check_cookie@4
  001c5	8b e5		 mov	 esp, ebp
  001c7	5d		 pop	 ebp
  001c8	c2 04 00	 ret	 4
?MonsterHerdItemDrop@CRingMonsterHerd@@UAEHPAUOBJECTSTRUCT@@@Z ENDP ; CRingMonsterHerd::MonsterHerdItemDrop
_TEXT	ENDS
PUBLIC	??D?$_Vector_iterator@V?$_Vector_val@URINGMONSTER_DATA@@V?$allocator@URINGMONSTER_DATA@@@std@@@std@@@std@@QBEAAURINGMONSTER_DATA@@XZ ; std::_Vector_iterator<std::_Vector_val<RINGMONSTER_DATA,std::allocator<RINGMONSTER_DATA> > >::operator*
; Function compile flags: /Ogtp
; File c:\program files (x86)\microsoft visual studio 10.0\vc\include\vector
;	COMDAT ??D?$_Vector_iterator@V?$_Vector_val@URINGMONSTER_DATA@@V?$allocator@URINGMONSTER_DATA@@@std@@@std@@@std@@QBEAAURINGMONSTER_DATA@@XZ
_TEXT	SEGMENT
??D?$_Vector_iterator@V?$_Vector_val@URINGMONSTER_DATA@@V?$allocator@URINGMONSTER_DATA@@@std@@@std@@@std@@QBEAAURINGMONSTER_DATA@@XZ PROC ; std::_Vector_iterator<std::_Vector_val<RINGMONSTER_DATA,std::allocator<RINGMONSTER_DATA> > >::operator*, COMDAT
; _this$ = ecx

; 322  : 		return ((reference)**(_Mybase *)this);

  00000	8b 01		 mov	 eax, DWORD PTR [ecx]

; 323  : 		}

  00002	c3		 ret	 0
??D?$_Vector_iterator@V?$_Vector_val@URINGMONSTER_DATA@@V?$allocator@URINGMONSTER_DATA@@@std@@@std@@@std@@QBEAAURINGMONSTER_DATA@@XZ ENDP ; std::_Vector_iterator<std::_Vector_val<RINGMONSTER_DATA,std::allocator<RINGMONSTER_DATA> > >::operator*
_TEXT	ENDS
PUBLIC	??0?$_Vector_iterator@V?$_Vector_val@URINGMONSTER_EVENT_TIME@@V?$allocator@URINGMONSTER_EVENT_TIME@@@std@@@std@@@std@@QAE@XZ ; std::_Vector_iterator<std::_Vector_val<RINGMONSTER_EVENT_TIME,std::allocator<RINGMONSTER_EVENT_TIME> > >::_Vector_iterator<std::_Vector_val<RINGMONSTER_EVENT_TIME,std::allocator<RINGMONSTER_EVENT_TIME> > >
; Function compile flags: /Ogtp
;	COMDAT ??0?$_Vector_iterator@V?$_Vector_val@URINGMONSTER_EVENT_TIME@@V?$allocator@URINGMONSTER_EVENT_TIME@@@std@@@std@@@std@@QAE@XZ
_TEXT	SEGMENT
??0?$_Vector_iterator@V?$_Vector_val@URINGMONSTER_EVENT_TIME@@V?$allocator@URINGMONSTER_EVENT_TIME@@@std@@@std@@@std@@QAE@XZ PROC ; std::_Vector_iterator<std::_Vector_val<RINGMONSTER_EVENT_TIME,std::allocator<RINGMONSTER_EVENT_TIME> > >::_Vector_iterator<std::_Vector_val<RINGMONSTER_EVENT_TIME,std::allocator<RINGMONSTER_EVENT_TIME> > >, COMDAT
; _this$ = ecx

; 298  : 	_Vector_iterator()

  00000	8b c1		 mov	 eax, ecx
  00002	c7 00 00 00 00
	00		 mov	 DWORD PTR [eax], 0

; 299  : 		{	// construct with null vector pointer
; 300  : 		}

  00008	c3		 ret	 0
??0?$_Vector_iterator@V?$_Vector_val@URINGMONSTER_EVENT_TIME@@V?$allocator@URINGMONSTER_EVENT_TIME@@@std@@@std@@@std@@QAE@XZ ENDP ; std::_Vector_iterator<std::_Vector_val<RINGMONSTER_EVENT_TIME,std::allocator<RINGMONSTER_EVENT_TIME> > >::_Vector_iterator<std::_Vector_val<RINGMONSTER_EVENT_TIME,std::allocator<RINGMONSTER_EVENT_TIME> > >
_TEXT	ENDS
PUBLIC	??D?$_Vector_iterator@V?$_Vector_val@URINGMONSTER_EVENT_TIME@@V?$allocator@URINGMONSTER_EVENT_TIME@@@std@@@std@@@std@@QBEAAURINGMONSTER_EVENT_TIME@@XZ ; std::_Vector_iterator<std::_Vector_val<RINGMONSTER_EVENT_TIME,std::allocator<RINGMONSTER_EVENT_TIME> > >::operator*
; Function compile flags: /Ogtp
;	COMDAT ??D?$_Vector_iterator@V?$_Vector_val@URINGMONSTER_EVENT_TIME@@V?$allocator@URINGMONSTER_EVENT_TIME@@@std@@@std@@@std@@QBEAAURINGMONSTER_EVENT_TIME@@XZ
_TEXT	SEGMENT
??D?$_Vector_iterator@V?$_Vector_val@URINGMONSTER_EVENT_TIME@@V?$allocator@URINGMONSTER_EVENT_TIME@@@std@@@std@@@std@@QBEAAURINGMONSTER_EVENT_TIME@@XZ PROC ; std::_Vector_iterator<std::_Vector_val<RINGMONSTER_EVENT_TIME,std::allocator<RINGMONSTER_EVENT_TIME> > >::operator*, COMDAT
; _this$ = ecx

; 322  : 		return ((reference)**(_Mybase *)this);

  00000	8b 01		 mov	 eax, DWORD PTR [ecx]

; 323  : 		}

  00002	c3		 ret	 0
??D?$_Vector_iterator@V?$_Vector_val@URINGMONSTER_EVENT_TIME@@V?$allocator@URINGMONSTER_EVENT_TIME@@@std@@@std@@@std@@QBEAAURINGMONSTER_EVENT_TIME@@XZ ENDP ; std::_Vector_iterator<std::_Vector_val<RINGMONSTER_EVENT_TIME,std::allocator<RINGMONSTER_EVENT_TIME> > >::operator*
_TEXT	ENDS
PUBLIC	??0?$_Vector_val@URINGMONSTER_DATA@@V?$allocator@URINGMONSTER_DATA@@@std@@@std@@QAE@V?$allocator@URINGMONSTER_DATA@@@1@@Z ; std::_Vector_val<RINGMONSTER_DATA,std::allocator<RINGMONSTER_DATA> >::_Vector_val<RINGMONSTER_DATA,std::allocator<RINGMONSTER_DATA> >
; Function compile flags: /Ogtp
;	COMDAT ??0?$_Vector_val@URINGMONSTER_DATA@@V?$allocator@URINGMONSTER_DATA@@@std@@@std@@QAE@V?$allocator@URINGMONSTER_DATA@@@1@@Z
_TEXT	SEGMENT
__Al$ = 8						; size = 1
??0?$_Vector_val@URINGMONSTER_DATA@@V?$allocator@URINGMONSTER_DATA@@@std@@@std@@QAE@V?$allocator@URINGMONSTER_DATA@@@1@@Z PROC ; std::_Vector_val<RINGMONSTER_DATA,std::allocator<RINGMONSTER_DATA> >::_Vector_val<RINGMONSTER_DATA,std::allocator<RINGMONSTER_DATA> >, COMDAT
; _this$ = ecx

; 426  : 		{	// construct allocator from _Al

  00000	8b c1		 mov	 eax, ecx

; 427  : 		_Myfirst = 0;

  00002	33 c9		 xor	 ecx, ecx
  00004	89 08		 mov	 DWORD PTR [eax], ecx

; 428  : 		_Mylast = 0;

  00006	89 48 04	 mov	 DWORD PTR [eax+4], ecx

; 429  : 		_Myend = 0;

  00009	89 48 08	 mov	 DWORD PTR [eax+8], ecx

; 430  : 		}

  0000c	c2 04 00	 ret	 4
??0?$_Vector_val@URINGMONSTER_DATA@@V?$allocator@URINGMONSTER_DATA@@@std@@@std@@QAE@V?$allocator@URINGMONSTER_DATA@@@1@@Z ENDP ; std::_Vector_val<RINGMONSTER_DATA,std::allocator<RINGMONSTER_DATA> >::_Vector_val<RINGMONSTER_DATA,std::allocator<RINGMONSTER_DATA> >
_TEXT	ENDS
PUBLIC	??0?$_Vector_val@URINGMONSTER_EVENT_TIME@@V?$allocator@URINGMONSTER_EVENT_TIME@@@std@@@std@@QAE@V?$allocator@URINGMONSTER_EVENT_TIME@@@1@@Z ; std::_Vector_val<RINGMONSTER_EVENT_TIME,std::allocator<RINGMONSTER_EVENT_TIME> >::_Vector_val<RINGMONSTER_EVENT_TIME,std::allocator<RINGMONSTER_EVENT_TIME> >
; Function compile flags: /Ogtp
;	COMDAT ??0?$_Vector_val@URINGMONSTER_EVENT_TIME@@V?$allocator@URINGMONSTER_EVENT_TIME@@@std@@@std@@QAE@V?$allocator@URINGMONSTER_EVENT_TIME@@@1@@Z
_TEXT	SEGMENT
__Al$ = 8						; size = 1
??0?$_Vector_val@URINGMONSTER_EVENT_TIME@@V?$allocator@URINGMONSTER_EVENT_TIME@@@std@@@std@@QAE@V?$allocator@URINGMONSTER_EVENT_TIME@@@1@@Z PROC ; std::_Vector_val<RINGMONSTER_EVENT_TIME,std::allocator<RINGMONSTER_EVENT_TIME> >::_Vector_val<RINGMONSTER_EVENT_TIME,std::allocator<RINGMONSTER_EVENT_TIME> >, COMDAT
; _this$ = ecx

; 426  : 		{	// construct allocator from _Al

  00000	8b c1		 mov	 eax, ecx

; 427  : 		_Myfirst = 0;

  00002	33 c9		 xor	 ecx, ecx
  00004	89 08		 mov	 DWORD PTR [eax], ecx

; 428  : 		_Mylast = 0;

  00006	89 48 04	 mov	 DWORD PTR [eax+4], ecx

; 429  : 		_Myend = 0;

  00009	89 48 08	 mov	 DWORD PTR [eax+8], ecx

; 430  : 		}

  0000c	c2 04 00	 ret	 4
??0?$_Vector_val@URINGMONSTER_EVENT_TIME@@V?$allocator@URINGMONSTER_EVENT_TIME@@@std@@@std@@QAE@V?$allocator@URINGMONSTER_EVENT_TIME@@@1@@Z ENDP ; std::_Vector_val<RINGMONSTER_EVENT_TIME,std::allocator<RINGMONSTER_EVENT_TIME> >::_Vector_val<RINGMONSTER_EVENT_TIME,std::allocator<RINGMONSTER_EVENT_TIME> >
_TEXT	ENDS
PUBLIC	??E?$_Vector_iterator@V?$_Vector_val@URINGMONSTER_DATA@@V?$allocator@URINGMONSTER_DATA@@@std@@@std@@@std@@QAEAAV01@XZ ; std::_Vector_iterator<std::_Vector_val<RINGMONSTER_DATA,std::allocator<RINGMONSTER_DATA> > >::operator++
; Function compile flags: /Ogtp
;	COMDAT ??E?$_Vector_iterator@V?$_Vector_val@URINGMONSTER_DATA@@V?$allocator@URINGMONSTER_DATA@@@std@@@std@@@std@@QAEAAV01@XZ
_TEXT	SEGMENT
??E?$_Vector_iterator@V?$_Vector_val@URINGMONSTER_DATA@@V?$allocator@URINGMONSTER_DATA@@@std@@@std@@@std@@QAEAAV01@XZ PROC ; std::_Vector_iterator<std::_Vector_val<RINGMONSTER_DATA,std::allocator<RINGMONSTER_DATA> > >::operator++, COMDAT
; _this$ = ecx

; 331  : 		{	// preincrement

  00000	8b c1		 mov	 eax, ecx

; 332  : 		++*(_Mybase *)this;

  00002	83 00 0c	 add	 DWORD PTR [eax], 12	; 0000000cH

; 333  : 		return (*this);
; 334  : 		}

  00005	c3		 ret	 0
??E?$_Vector_iterator@V?$_Vector_val@URINGMONSTER_DATA@@V?$allocator@URINGMONSTER_DATA@@@std@@@std@@@std@@QAEAAV01@XZ ENDP ; std::_Vector_iterator<std::_Vector_val<RINGMONSTER_DATA,std::allocator<RINGMONSTER_DATA> > >::operator++
_TEXT	ENDS
PUBLIC	??8?$_Vector_const_iterator@V?$_Vector_val@URINGMONSTER_DATA@@V?$allocator@URINGMONSTER_DATA@@@std@@@std@@@std@@QBE_NABV01@@Z ; std::_Vector_const_iterator<std::_Vector_val<RINGMONSTER_DATA,std::allocator<RINGMONSTER_DATA> > >::operator==
; Function compile flags: /Ogtp
;	COMDAT ??8?$_Vector_const_iterator@V?$_Vector_val@URINGMONSTER_DATA@@V?$allocator@URINGMONSTER_DATA@@@std@@@std@@@std@@QBE_NABV01@@Z
_TEXT	SEGMENT
__Right$ = 8						; size = 4
??8?$_Vector_const_iterator@V?$_Vector_val@URINGMONSTER_DATA@@V?$allocator@URINGMONSTER_DATA@@@std@@@std@@@std@@QBE_NABV01@@Z PROC ; std::_Vector_const_iterator<std::_Vector_val<RINGMONSTER_DATA,std::allocator<RINGMONSTER_DATA> > >::operator==, COMDAT
; _this$ = ecx

; 201  : 		{	// test for iterator equality

  00000	55		 push	 ebp
  00001	8b ec		 mov	 ebp, esp

; 202  : 		_Compat(_Right);
; 203  : 		return (this->_Ptr == _Right._Ptr);

  00003	8b 01		 mov	 eax, DWORD PTR [ecx]
  00005	8b 55 08	 mov	 edx, DWORD PTR __Right$[ebp]
  00008	33 c9		 xor	 ecx, ecx
  0000a	3b 02		 cmp	 eax, DWORD PTR [edx]
  0000c	0f 94 c0	 sete	 al

; 204  : 		}

  0000f	5d		 pop	 ebp
  00010	c2 04 00	 ret	 4
??8?$_Vector_const_iterator@V?$_Vector_val@URINGMONSTER_DATA@@V?$allocator@URINGMONSTER_DATA@@@std@@@std@@@std@@QBE_NABV01@@Z ENDP ; std::_Vector_const_iterator<std::_Vector_val<RINGMONSTER_DATA,std::allocator<RINGMONSTER_DATA> > >::operator==
_TEXT	ENDS
PUBLIC	??E?$_Vector_iterator@V?$_Vector_val@URINGMONSTER_EVENT_TIME@@V?$allocator@URINGMONSTER_EVENT_TIME@@@std@@@std@@@std@@QAEAAV01@XZ ; std::_Vector_iterator<std::_Vector_val<RINGMONSTER_EVENT_TIME,std::allocator<RINGMONSTER_EVENT_TIME> > >::operator++
; Function compile flags: /Ogtp
;	COMDAT ??E?$_Vector_iterator@V?$_Vector_val@URINGMONSTER_EVENT_TIME@@V?$allocator@URINGMONSTER_EVENT_TIME@@@std@@@std@@@std@@QAEAAV01@XZ
_TEXT	SEGMENT
??E?$_Vector_iterator@V?$_Vector_val@URINGMONSTER_EVENT_TIME@@V?$allocator@URINGMONSTER_EVENT_TIME@@@std@@@std@@@std@@QAEAAV01@XZ PROC ; std::_Vector_iterator<std::_Vector_val<RINGMONSTER_EVENT_TIME,std::allocator<RINGMONSTER_EVENT_TIME> > >::operator++, COMDAT
; _this$ = ecx

; 331  : 		{	// preincrement

  00000	8b c1		 mov	 eax, ecx

; 332  : 		++*(_Mybase *)this;

  00002	83 00 08	 add	 DWORD PTR [eax], 8

; 333  : 		return (*this);
; 334  : 		}

  00005	c3		 ret	 0
??E?$_Vector_iterator@V?$_Vector_val@URINGMONSTER_EVENT_TIME@@V?$allocator@URINGMONSTER_EVENT_TIME@@@std@@@std@@@std@@QAEAAV01@XZ ENDP ; std::_Vector_iterator<std::_Vector_val<RINGMONSTER_EVENT_TIME,std::allocator<RINGMONSTER_EVENT_TIME> > >::operator++
_TEXT	ENDS
PUBLIC	??8?$_Vector_const_iterator@V?$_Vector_val@URINGMONSTER_EVENT_TIME@@V?$allocator@URINGMONSTER_EVENT_TIME@@@std@@@std@@@std@@QBE_NABV01@@Z ; std::_Vector_const_iterator<std::_Vector_val<RINGMONSTER_EVENT_TIME,std::allocator<RINGMONSTER_EVENT_TIME> > >::operator==
; Function compile flags: /Ogtp
;	COMDAT ??8?$_Vector_const_iterator@V?$_Vector_val@URINGMONSTER_EVENT_TIME@@V?$allocator@URINGMONSTER_EVENT_TIME@@@std@@@std@@@std@@QBE_NABV01@@Z
_TEXT	SEGMENT
__Right$ = 8						; size = 4
??8?$_Vector_const_iterator@V?$_Vector_val@URINGMONSTER_EVENT_TIME@@V?$allocator@URINGMONSTER_EVENT_TIME@@@std@@@std@@@std@@QBE_NABV01@@Z PROC ; std::_Vector_const_iterator<std::_Vector_val<RINGMONSTER_EVENT_TIME,std::allocator<RINGMONSTER_EVENT_TIME> > >::operator==, COMDAT
; _this$ = ecx

; 201  : 		{	// test for iterator equality

  00000	55		 push	 ebp
  00001	8b ec		 mov	 ebp, esp

; 202  : 		_Compat(_Right);
; 203  : 		return (this->_Ptr == _Right._Ptr);

  00003	8b 01		 mov	 eax, DWORD PTR [ecx]
  00005	8b 55 08	 mov	 edx, DWORD PTR __Right$[ebp]
  00008	33 c9		 xor	 ecx, ecx
  0000a	3b 02		 cmp	 eax, DWORD PTR [edx]
  0000c	0f 94 c0	 sete	 al

; 204  : 		}

  0000f	5d		 pop	 ebp
  00010	c2 04 00	 ret	 4
??8?$_Vector_const_iterator@V?$_Vector_val@URINGMONSTER_EVENT_TIME@@V?$allocator@URINGMONSTER_EVENT_TIME@@@std@@@std@@@std@@QBE_NABV01@@Z ENDP ; std::_Vector_const_iterator<std::_Vector_val<RINGMONSTER_EVENT_TIME,std::allocator<RINGMONSTER_EVENT_TIME> > >::operator==
_TEXT	ENDS
PUBLIC	?max_size@?$vector@URINGMONSTER_DATA@@V?$allocator@URINGMONSTER_DATA@@@std@@@std@@QBEIXZ ; std::vector<RINGMONSTER_DATA,std::allocator<RINGMONSTER_DATA> >::max_size
; Function compile flags: /Ogtp
;	COMDAT ?max_size@?$vector@URINGMONSTER_DATA@@V?$allocator@URINGMONSTER_DATA@@@std@@@std@@QBEIXZ
_TEXT	SEGMENT
?max_size@?$vector@URINGMONSTER_DATA@@V?$allocator@URINGMONSTER_DATA@@@std@@@std@@QBEIXZ PROC ; std::vector<RINGMONSTER_DATA,std::allocator<RINGMONSTER_DATA> >::max_size, COMDAT
; _this$ = ecx

; 884  : 		return (this->_Alval.max_size());

  00000	b8 55 55 55 15	 mov	 eax, 357913941		; 15555555H

; 885  : 		}

  00005	c3		 ret	 0
?max_size@?$vector@URINGMONSTER_DATA@@V?$allocator@URINGMONSTER_DATA@@@std@@@std@@QBEIXZ ENDP ; std::vector<RINGMONSTER_DATA,std::allocator<RINGMONSTER_DATA> >::max_size
_TEXT	ENDS
PUBLIC	?_Grow_to@?$vector@URINGMONSTER_DATA@@V?$allocator@URINGMONSTER_DATA@@@std@@@std@@IBEII@Z ; std::vector<RINGMONSTER_DATA,std::allocator<RINGMONSTER_DATA> >::_Grow_to
; Function compile flags: /Ogtp
;	COMDAT ?_Grow_to@?$vector@URINGMONSTER_DATA@@V?$allocator@URINGMONSTER_DATA@@@std@@@std@@IBEII@Z
_TEXT	SEGMENT
__Count$ = 8						; size = 4
?_Grow_to@?$vector@URINGMONSTER_DATA@@V?$allocator@URINGMONSTER_DATA@@@std@@@std@@IBEII@Z PROC ; std::vector<RINGMONSTER_DATA,std::allocator<RINGMONSTER_DATA> >::_Grow_to, COMDAT
; _this$ = ecx

; 1274 : 		{	// grow by 50% or at least to _Count

  00000	55		 push	 ebp
  00001	8b ec		 mov	 ebp, esp

; 1275 : 		size_type _Capacity = capacity();

  00003	8b 51 08	 mov	 edx, DWORD PTR [ecx+8]
  00006	2b 11		 sub	 edx, DWORD PTR [ecx]
  00008	b8 ab aa aa 2a	 mov	 eax, 715827883		; 2aaaaaabH
  0000d	f7 ea		 imul	 edx
  0000f	d1 fa		 sar	 edx, 1
  00011	8b c2		 mov	 eax, edx
  00013	c1 e8 1f	 shr	 eax, 31			; 0000001fH
  00016	03 c2		 add	 eax, edx

; 1276 : 
; 1277 : 		_Capacity = max_size() - _Capacity / 2 < _Capacity
; 1278 : 			? 0 : _Capacity + _Capacity / 2;	// try to grow by 50%

  00018	8b c8		 mov	 ecx, eax
  0001a	d1 e9		 shr	 ecx, 1
  0001c	ba 55 55 55 15	 mov	 edx, 357913941		; 15555555H
  00021	2b d1		 sub	 edx, ecx
  00023	3b d0		 cmp	 edx, eax
  00025	73 04		 jae	 SHORT $LN4@Grow_to
  00027	33 c0		 xor	 eax, eax
  00029	eb 02		 jmp	 SHORT $LN5@Grow_to
$LN4@Grow_to:
  0002b	03 c1		 add	 eax, ecx
$LN5@Grow_to:

; 1279 : 		if (_Capacity < _Count)

  0002d	8b 4d 08	 mov	 ecx, DWORD PTR __Count$[ebp]
  00030	3b c1		 cmp	 eax, ecx
  00032	73 02		 jae	 SHORT $LN1@Grow_to

; 1280 : 			_Capacity = _Count;
; 1281 : 		return (_Capacity);

  00034	8b c1		 mov	 eax, ecx
$LN1@Grow_to:

; 1282 : 		}

  00036	5d		 pop	 ebp
  00037	c2 04 00	 ret	 4
?_Grow_to@?$vector@URINGMONSTER_DATA@@V?$allocator@URINGMONSTER_DATA@@@std@@@std@@IBEII@Z ENDP ; std::vector<RINGMONSTER_DATA,std::allocator<RINGMONSTER_DATA> >::_Grow_to
_TEXT	ENDS
PUBLIC	?max_size@?$vector@URINGMONSTER_EVENT_TIME@@V?$allocator@URINGMONSTER_EVENT_TIME@@@std@@@std@@QBEIXZ ; std::vector<RINGMONSTER_EVENT_TIME,std::allocator<RINGMONSTER_EVENT_TIME> >::max_size
; Function compile flags: /Ogtp
;	COMDAT ?max_size@?$vector@URINGMONSTER_EVENT_TIME@@V?$allocator@URINGMONSTER_EVENT_TIME@@@std@@@std@@QBEIXZ
_TEXT	SEGMENT
?max_size@?$vector@URINGMONSTER_EVENT_TIME@@V?$allocator@URINGMONSTER_EVENT_TIME@@@std@@@std@@QBEIXZ PROC ; std::vector<RINGMONSTER_EVENT_TIME,std::allocator<RINGMONSTER_EVENT_TIME> >::max_size, COMDAT
; _this$ = ecx

; 884  : 		return (this->_Alval.max_size());

  00000	b8 ff ff ff 1f	 mov	 eax, 536870911		; 1fffffffH

; 885  : 		}

  00005	c3		 ret	 0
?max_size@?$vector@URINGMONSTER_EVENT_TIME@@V?$allocator@URINGMONSTER_EVENT_TIME@@@std@@@std@@QBEIXZ ENDP ; std::vector<RINGMONSTER_EVENT_TIME,std::allocator<RINGMONSTER_EVENT_TIME> >::max_size
_TEXT	ENDS
PUBLIC	?_Grow_to@?$vector@URINGMONSTER_EVENT_TIME@@V?$allocator@URINGMONSTER_EVENT_TIME@@@std@@@std@@IBEII@Z ; std::vector<RINGMONSTER_EVENT_TIME,std::allocator<RINGMONSTER_EVENT_TIME> >::_Grow_to
; Function compile flags: /Ogtp
;	COMDAT ?_Grow_to@?$vector@URINGMONSTER_EVENT_TIME@@V?$allocator@URINGMONSTER_EVENT_TIME@@@std@@@std@@IBEII@Z
_TEXT	SEGMENT
__Count$ = 8						; size = 4
?_Grow_to@?$vector@URINGMONSTER_EVENT_TIME@@V?$allocator@URINGMONSTER_EVENT_TIME@@@std@@@std@@IBEII@Z PROC ; std::vector<RINGMONSTER_EVENT_TIME,std::allocator<RINGMONSTER_EVENT_TIME> >::_Grow_to, COMDAT
; _this$ = ecx

; 1274 : 		{	// grow by 50% or at least to _Count

  00000	55		 push	 ebp
  00001	8b ec		 mov	 ebp, esp

; 1275 : 		size_type _Capacity = capacity();

  00003	8b 41 08	 mov	 eax, DWORD PTR [ecx+8]
  00006	2b 01		 sub	 eax, DWORD PTR [ecx]

; 1276 : 
; 1277 : 		_Capacity = max_size() - _Capacity / 2 < _Capacity
; 1278 : 			? 0 : _Capacity + _Capacity / 2;	// try to grow by 50%

  00008	ba ff ff ff 1f	 mov	 edx, 536870911		; 1fffffffH
  0000d	c1 f8 03	 sar	 eax, 3
  00010	8b c8		 mov	 ecx, eax
  00012	d1 e9		 shr	 ecx, 1
  00014	2b d1		 sub	 edx, ecx
  00016	3b d0		 cmp	 edx, eax
  00018	73 04		 jae	 SHORT $LN4@Grow_to@2
  0001a	33 c0		 xor	 eax, eax
  0001c	eb 02		 jmp	 SHORT $LN5@Grow_to@2
$LN4@Grow_to@2:
  0001e	03 c1		 add	 eax, ecx
$LN5@Grow_to@2:

; 1279 : 		if (_Capacity < _Count)

  00020	8b 4d 08	 mov	 ecx, DWORD PTR __Count$[ebp]
  00023	3b c1		 cmp	 eax, ecx
  00025	73 02		 jae	 SHORT $LN1@Grow_to@2

; 1280 : 			_Capacity = _Count;
; 1281 : 		return (_Capacity);

  00027	8b c1		 mov	 eax, ecx
$LN1@Grow_to@2:

; 1282 : 		}

  00029	5d		 pop	 ebp
  0002a	c2 04 00	 ret	 4
?_Grow_to@?$vector@URINGMONSTER_EVENT_TIME@@V?$allocator@URINGMONSTER_EVENT_TIME@@@std@@@std@@IBEII@Z ENDP ; std::vector<RINGMONSTER_EVENT_TIME,std::allocator<RINGMONSTER_EVENT_TIME> >::_Grow_to
_TEXT	ENDS
PUBLIC	??0?$_Vector_const_iterator@V?$_Vector_val@URINGMONSTER_DATA@@V?$allocator@URINGMONSTER_DATA@@@std@@@std@@@std@@QAE@PAURINGMONSTER_DATA@@PBU_Container_base0@1@@Z ; std::_Vector_const_iterator<std::_Vector_val<RINGMONSTER_DATA,std::allocator<RINGMONSTER_DATA> > >::_Vector_const_iterator<std::_Vector_val<RINGMONSTER_DATA,std::allocator<RINGMONSTER_DATA> > >
; Function compile flags: /Ogtp
;	COMDAT ??0?$_Vector_const_iterator@V?$_Vector_val@URINGMONSTER_DATA@@V?$allocator@URINGMONSTER_DATA@@@std@@@std@@@std@@QAE@PAURINGMONSTER_DATA@@PBU_Container_base0@1@@Z
_TEXT	SEGMENT
__Parg$ = 8						; size = 4
__Pvector$ = 12						; size = 4
??0?$_Vector_const_iterator@V?$_Vector_val@URINGMONSTER_DATA@@V?$allocator@URINGMONSTER_DATA@@@std@@@std@@@std@@QAE@PAURINGMONSTER_DATA@@PBU_Container_base0@1@@Z PROC ; std::_Vector_const_iterator<std::_Vector_val<RINGMONSTER_DATA,std::allocator<RINGMONSTER_DATA> > >::_Vector_const_iterator<std::_Vector_val<RINGMONSTER_DATA,std::allocator<RINGMONSTER_DATA> > >, COMDAT
; _this$ = ecx

; 45   : 		{	// construct with pointer _Parg

  00000	55		 push	 ebp
  00001	8b ec		 mov	 ebp, esp
  00003	8b c1		 mov	 eax, ecx
  00005	8b 4d 08	 mov	 ecx, DWORD PTR __Parg$[ebp]
  00008	89 08		 mov	 DWORD PTR [eax], ecx

; 46   : 		this->_Adopt(_Pvector);
; 47   : 		}

  0000a	5d		 pop	 ebp
  0000b	c2 08 00	 ret	 8
??0?$_Vector_const_iterator@V?$_Vector_val@URINGMONSTER_DATA@@V?$allocator@URINGMONSTER_DATA@@@std@@@std@@@std@@QAE@PAURINGMONSTER_DATA@@PBU_Container_base0@1@@Z ENDP ; std::_Vector_const_iterator<std::_Vector_val<RINGMONSTER_DATA,std::allocator<RINGMONSTER_DATA> > >::_Vector_const_iterator<std::_Vector_val<RINGMONSTER_DATA,std::allocator<RINGMONSTER_DATA> > >
_TEXT	ENDS
PUBLIC	??0?$_Vector_const_iterator@V?$_Vector_val@URINGMONSTER_EVENT_TIME@@V?$allocator@URINGMONSTER_EVENT_TIME@@@std@@@std@@@std@@QAE@PAURINGMONSTER_EVENT_TIME@@PBU_Container_base0@1@@Z ; std::_Vector_const_iterator<std::_Vector_val<RINGMONSTER_EVENT_TIME,std::allocator<RINGMONSTER_EVENT_TIME> > >::_Vector_const_iterator<std::_Vector_val<RINGMONSTER_EVENT_TIME,std::allocator<RINGMONSTER_EVENT_TIME> > >
; Function compile flags: /Ogtp
;	COMDAT ??0?$_Vector_const_iterator@V?$_Vector_val@URINGMONSTER_EVENT_TIME@@V?$allocator@URINGMONSTER_EVENT_TIME@@@std@@@std@@@std@@QAE@PAURINGMONSTER_EVENT_TIME@@PBU_Container_base0@1@@Z
_TEXT	SEGMENT
__Parg$ = 8						; size = 4
__Pvector$ = 12						; size = 4
??0?$_Vector_const_iterator@V?$_Vector_val@URINGMONSTER_EVENT_TIME@@V?$allocator@URINGMONSTER_EVENT_TIME@@@std@@@std@@@std@@QAE@PAURINGMONSTER_EVENT_TIME@@PBU_Container_base0@1@@Z PROC ; std::_Vector_const_iterator<std::_Vector_val<RINGMONSTER_EVENT_TIME,std::allocator<RINGMONSTER_EVENT_TIME> > >::_Vector_const_iterator<std::_Vector_val<RINGMONSTER_EVENT_TIME,std::allocator<RINGMONSTER_EVENT_TIME> > >, COMDAT
; _this$ = ecx

; 45   : 		{	// construct with pointer _Parg

  00000	55		 push	 ebp
  00001	8b ec		 mov	 ebp, esp
  00003	8b c1		 mov	 eax, ecx
  00005	8b 4d 08	 mov	 ecx, DWORD PTR __Parg$[ebp]
  00008	89 08		 mov	 DWORD PTR [eax], ecx

; 46   : 		this->_Adopt(_Pvector);
; 47   : 		}

  0000a	5d		 pop	 ebp
  0000b	c2 08 00	 ret	 8
??0?$_Vector_const_iterator@V?$_Vector_val@URINGMONSTER_EVENT_TIME@@V?$allocator@URINGMONSTER_EVENT_TIME@@@std@@@std@@@std@@QAE@PAURINGMONSTER_EVENT_TIME@@PBU_Container_base0@1@@Z ENDP ; std::_Vector_const_iterator<std::_Vector_val<RINGMONSTER_EVENT_TIME,std::allocator<RINGMONSTER_EVENT_TIME> > >::_Vector_const_iterator<std::_Vector_val<RINGMONSTER_EVENT_TIME,std::allocator<RINGMONSTER_EVENT_TIME> > >
_TEXT	ENDS
PUBLIC	??$_Cons_val@V?$allocator@URINGMONSTER_DATA@@@std@@URINGMONSTER_DATA@@AAU3@@std@@YAXAAV?$allocator@URINGMONSTER_DATA@@@0@PAURINGMONSTER_DATA@@AAU2@@Z ; std::_Cons_val<std::allocator<RINGMONSTER_DATA>,RINGMONSTER_DATA,RINGMONSTER_DATA &>
; Function compile flags: /Ogtp
; File c:\program files (x86)\microsoft visual studio 10.0\vc\include\xmemory
;	COMDAT ??$_Cons_val@V?$allocator@URINGMONSTER_DATA@@@std@@URINGMONSTER_DATA@@AAU3@@std@@YAXAAV?$allocator@URINGMONSTER_DATA@@@0@PAURINGMONSTER_DATA@@AAU2@@Z
_TEXT	SEGMENT
__Alval$ = 8						; size = 4
__Pdest$ = 12						; size = 4
__Src$ = 16						; size = 4
??$_Cons_val@V?$allocator@URINGMONSTER_DATA@@@std@@URINGMONSTER_DATA@@AAU3@@std@@YAXAAV?$allocator@URINGMONSTER_DATA@@@0@PAURINGMONSTER_DATA@@AAU2@@Z PROC ; std::_Cons_val<std::allocator<RINGMONSTER_DATA>,RINGMONSTER_DATA,RINGMONSTER_DATA &>, COMDAT

; 279  : 	{	// construct using allocator

  00000	55		 push	 ebp
  00001	8b ec		 mov	 ebp, esp

; 280  : 	_Alval.construct(_Pdest, _STD forward<_Ty2>(_Src));

  00003	8b 45 0c	 mov	 eax, DWORD PTR __Pdest$[ebp]
  00006	85 c0		 test	 eax, eax
  00008	74 13		 je	 SHORT $LN7@Cons_val
  0000a	8b 4d 10	 mov	 ecx, DWORD PTR __Src$[ebp]
  0000d	8b 11		 mov	 edx, DWORD PTR [ecx]
  0000f	89 10		 mov	 DWORD PTR [eax], edx
  00011	8b 51 04	 mov	 edx, DWORD PTR [ecx+4]
  00014	89 50 04	 mov	 DWORD PTR [eax+4], edx
  00017	8b 49 08	 mov	 ecx, DWORD PTR [ecx+8]
  0001a	89 48 08	 mov	 DWORD PTR [eax+8], ecx
$LN7@Cons_val:

; 281  : 	}

  0001d	5d		 pop	 ebp
  0001e	c3		 ret	 0
??$_Cons_val@V?$allocator@URINGMONSTER_DATA@@@std@@URINGMONSTER_DATA@@AAU3@@std@@YAXAAV?$allocator@URINGMONSTER_DATA@@@0@PAURINGMONSTER_DATA@@AAU2@@Z ENDP ; std::_Cons_val<std::allocator<RINGMONSTER_DATA>,RINGMONSTER_DATA,RINGMONSTER_DATA &>
_TEXT	ENDS
PUBLIC	??$_Cons_val@V?$allocator@URINGMONSTER_EVENT_TIME@@@std@@URINGMONSTER_EVENT_TIME@@AAU3@@std@@YAXAAV?$allocator@URINGMONSTER_EVENT_TIME@@@0@PAURINGMONSTER_EVENT_TIME@@AAU2@@Z ; std::_Cons_val<std::allocator<RINGMONSTER_EVENT_TIME>,RINGMONSTER_EVENT_TIME,RINGMONSTER_EVENT_TIME &>
; Function compile flags: /Ogtp
;	COMDAT ??$_Cons_val@V?$allocator@URINGMONSTER_EVENT_TIME@@@std@@URINGMONSTER_EVENT_TIME@@AAU3@@std@@YAXAAV?$allocator@URINGMONSTER_EVENT_TIME@@@0@PAURINGMONSTER_EVENT_TIME@@AAU2@@Z
_TEXT	SEGMENT
__Alval$ = 8						; size = 4
__Pdest$ = 12						; size = 4
__Src$ = 16						; size = 4
??$_Cons_val@V?$allocator@URINGMONSTER_EVENT_TIME@@@std@@URINGMONSTER_EVENT_TIME@@AAU3@@std@@YAXAAV?$allocator@URINGMONSTER_EVENT_TIME@@@0@PAURINGMONSTER_EVENT_TIME@@AAU2@@Z PROC ; std::_Cons_val<std::allocator<RINGMONSTER_EVENT_TIME>,RINGMONSTER_EVENT_TIME,RINGMONSTER_EVENT_TIME &>, COMDAT

; 279  : 	{	// construct using allocator

  00000	55		 push	 ebp
  00001	8b ec		 mov	 ebp, esp

; 280  : 	_Alval.construct(_Pdest, _STD forward<_Ty2>(_Src));

  00003	8b 45 0c	 mov	 eax, DWORD PTR __Pdest$[ebp]
  00006	85 c0		 test	 eax, eax
  00008	74 0d		 je	 SHORT $LN7@Cons_val@2
  0000a	8b 4d 10	 mov	 ecx, DWORD PTR __Src$[ebp]
  0000d	8b 11		 mov	 edx, DWORD PTR [ecx]
  0000f	89 10		 mov	 DWORD PTR [eax], edx
  00011	8b 49 04	 mov	 ecx, DWORD PTR [ecx+4]
  00014	89 48 04	 mov	 DWORD PTR [eax+4], ecx
$LN7@Cons_val@2:

; 281  : 	}

  00017	5d		 pop	 ebp
  00018	c3		 ret	 0
??$_Cons_val@V?$allocator@URINGMONSTER_EVENT_TIME@@@std@@URINGMONSTER_EVENT_TIME@@AAU3@@std@@YAXAAV?$allocator@URINGMONSTER_EVENT_TIME@@@0@PAURINGMONSTER_EVENT_TIME@@AAU2@@Z ENDP ; std::_Cons_val<std::allocator<RINGMONSTER_EVENT_TIME>,RINGMONSTER_EVENT_TIME,RINGMONSTER_EVENT_TIME &>
_TEXT	ENDS
PUBLIC	__TI2?AVbad_alloc@std@@
PUBLIC	??$_Allocate@URINGMONSTER_DATA@@@std@@YAPAURINGMONSTER_DATA@@IPAU1@@Z ; std::_Allocate<RINGMONSTER_DATA>
PUBLIC	__CTA2?AVbad_alloc@std@@
PUBLIC	__CT??_R0?AVbad_alloc@std@@@8??0bad_alloc@std@@QAE@ABV01@@Z12
PUBLIC	??0bad_alloc@std@@QAE@ABV01@@Z			; std::bad_alloc::bad_alloc
PUBLIC	__CT??_R0?AVexception@std@@@8??0exception@std@@QAE@ABV01@@Z12
EXTRN	??2@YAPAXI@Z:PROC				; operator new
EXTRN	__CxxThrowException@8:PROC
EXTRN	??0exception@std@@QAE@ABV01@@Z:PROC		; std::exception::exception
;	COMDAT __CT??_R0?AVexception@std@@@8??0exception@std@@QAE@ABV01@@Z12
; File c:\program files (x86)\microsoft visual studio 10.0\vc\include\exception
xdata$x	SEGMENT
__CT??_R0?AVexception@std@@@8??0exception@std@@QAE@ABV01@@Z12 DD 00H
	DD	FLAT:??_R0?AVexception@std@@@8
	DD	00H
	DD	0ffffffffH
	ORG $+4
	DD	0cH
	DD	FLAT:??0exception@std@@QAE@ABV01@@Z
xdata$x	ENDS
;	COMDAT __CT??_R0?AVbad_alloc@std@@@8??0bad_alloc@std@@QAE@ABV01@@Z12
xdata$x	SEGMENT
__CT??_R0?AVbad_alloc@std@@@8??0bad_alloc@std@@QAE@ABV01@@Z12 DD 00H
	DD	FLAT:??_R0?AVbad_alloc@std@@@8
	DD	00H
	DD	0ffffffffH
	ORG $+4
	DD	0cH
	DD	FLAT:??0bad_alloc@std@@QAE@ABV01@@Z
xdata$x	ENDS
;	COMDAT __CTA2?AVbad_alloc@std@@
xdata$x	SEGMENT
__CTA2?AVbad_alloc@std@@ DD 02H
	DD	FLAT:__CT??_R0?AVbad_alloc@std@@@8??0bad_alloc@std@@QAE@ABV01@@Z12
	DD	FLAT:__CT??_R0?AVexception@std@@@8??0exception@std@@QAE@ABV01@@Z12
xdata$x	ENDS
;	COMDAT __TI2?AVbad_alloc@std@@
xdata$x	SEGMENT
__TI2?AVbad_alloc@std@@ DD 00H
	DD	FLAT:??1bad_alloc@std@@UAE@XZ
	DD	00H
	DD	FLAT:__CTA2?AVbad_alloc@std@@
; Function compile flags: /Ogtp
; File c:\program files (x86)\microsoft visual studio 10.0\vc\include\xmemory
xdata$x	ENDS
;	COMDAT ??$_Allocate@URINGMONSTER_DATA@@@std@@YAPAURINGMONSTER_DATA@@IPAU1@@Z
_TEXT	SEGMENT
$T157950 = -12						; size = 12
$T157955 = 8						; size = 4
__Count$ = 8						; size = 4
___formal$ = 12						; size = 4
??$_Allocate@URINGMONSTER_DATA@@@std@@YAPAURINGMONSTER_DATA@@IPAU1@@Z PROC ; std::_Allocate<RINGMONSTER_DATA>, COMDAT

; 30   : 	{	// allocate storage for _Count elements of type _Ty

  00000	55		 push	 ebp
  00001	8b ec		 mov	 ebp, esp

; 31   : 	void *_Ptr = 0;
; 32   : 
; 33   : 	if (_Count <= 0)

  00003	8b 4d 08	 mov	 ecx, DWORD PTR __Count$[ebp]
  00006	83 ec 0c	 sub	 esp, 12			; 0000000cH
  00009	33 c0		 xor	 eax, eax
  0000b	85 c9		 test	 ecx, ecx

; 34   : 		_Count = 0;
; 35   : 	else if (((_SIZT)(-1) / sizeof (_Ty) < _Count)

  0000d	74 44		 je	 SHORT $LN5@Allocate

; 36   : 		|| (_Ptr = ::operator new(_Count * sizeof (_Ty))) == 0)

  0000f	81 f9 55 55 55
	15		 cmp	 ecx, 357913941		; 15555555H
  00015	77 14		 ja	 SHORT $LN1@Allocate
  00017	8d 04 49	 lea	 eax, DWORD PTR [ecx+ecx*2]
  0001a	03 c0		 add	 eax, eax
  0001c	03 c0		 add	 eax, eax
  0001e	50		 push	 eax
  0001f	e8 00 00 00 00	 call	 ??2@YAPAXI@Z		; operator new
  00024	83 c4 04	 add	 esp, 4
  00027	85 c0		 test	 eax, eax

; 38   : 
; 39   : 	return ((_Ty _FARQ *)_Ptr);

  00029	75 28		 jne	 SHORT $LN5@Allocate
$LN1@Allocate:

; 37   : 		_THROW_NCEE(bad_alloc, 0);

  0002b	8d 4d 08	 lea	 ecx, DWORD PTR $T157955[ebp]
  0002e	51		 push	 ecx
  0002f	8d 4d f4	 lea	 ecx, DWORD PTR $T157950[ebp]
  00032	c7 45 08 00 00
	00 00		 mov	 DWORD PTR $T157955[ebp], 0
  00039	e8 00 00 00 00	 call	 ??0exception@std@@QAE@ABQBD@Z ; std::exception::exception
  0003e	68 00 00 00 00	 push	 OFFSET __TI2?AVbad_alloc@std@@
  00043	8d 55 f4	 lea	 edx, DWORD PTR $T157950[ebp]
  00046	52		 push	 edx
  00047	c7 45 f4 00 00
	00 00		 mov	 DWORD PTR $T157950[ebp], OFFSET ??_7bad_alloc@std@@6B@
  0004e	e8 00 00 00 00	 call	 __CxxThrowException@8
$LN10@Allocate:
$LN5@Allocate:

; 40   : 	}

  00053	8b e5		 mov	 esp, ebp
  00055	5d		 pop	 ebp
  00056	c3		 ret	 0
$LN9@Allocate:
??$_Allocate@URINGMONSTER_DATA@@@std@@YAPAURINGMONSTER_DATA@@IPAU1@@Z ENDP ; std::_Allocate<RINGMONSTER_DATA>
; Function compile flags: /Ogtp
_TEXT	ENDS
;	COMDAT ??0bad_alloc@std@@QAE@ABV01@@Z
_TEXT	SEGMENT
___that$ = 8						; size = 4
??0bad_alloc@std@@QAE@ABV01@@Z PROC			; std::bad_alloc::bad_alloc, COMDAT
; _this$ = ecx
  00000	55		 push	 ebp
  00001	8b ec		 mov	 ebp, esp
  00003	8b 45 08	 mov	 eax, DWORD PTR ___that$[ebp]
  00006	56		 push	 esi
  00007	50		 push	 eax
  00008	8b f1		 mov	 esi, ecx
  0000a	e8 00 00 00 00	 call	 ??0exception@std@@QAE@ABV01@@Z ; std::exception::exception
  0000f	c7 06 00 00 00
	00		 mov	 DWORD PTR [esi], OFFSET ??_7bad_alloc@std@@6B@
  00015	8b c6		 mov	 eax, esi
  00017	5e		 pop	 esi
  00018	5d		 pop	 ebp
  00019	c2 04 00	 ret	 4
??0bad_alloc@std@@QAE@ABV01@@Z ENDP			; std::bad_alloc::bad_alloc
_TEXT	ENDS
PUBLIC	??$_Allocate@URINGMONSTER_EVENT_TIME@@@std@@YAPAURINGMONSTER_EVENT_TIME@@IPAU1@@Z ; std::_Allocate<RINGMONSTER_EVENT_TIME>
; Function compile flags: /Ogtp
;	COMDAT ??$_Allocate@URINGMONSTER_EVENT_TIME@@@std@@YAPAURINGMONSTER_EVENT_TIME@@IPAU1@@Z
_TEXT	SEGMENT
$T157963 = -12						; size = 12
$T157967 = 8						; size = 4
__Count$ = 8						; size = 4
___formal$ = 12						; size = 4
??$_Allocate@URINGMONSTER_EVENT_TIME@@@std@@YAPAURINGMONSTER_EVENT_TIME@@IPAU1@@Z PROC ; std::_Allocate<RINGMONSTER_EVENT_TIME>, COMDAT

; 30   : 	{	// allocate storage for _Count elements of type _Ty

  00000	55		 push	 ebp
  00001	8b ec		 mov	 ebp, esp

; 31   : 	void *_Ptr = 0;
; 32   : 
; 33   : 	if (_Count <= 0)

  00003	8b 4d 08	 mov	 ecx, DWORD PTR __Count$[ebp]
  00006	83 ec 0c	 sub	 esp, 12			; 0000000cH
  00009	33 c0		 xor	 eax, eax
  0000b	85 c9		 test	 ecx, ecx

; 34   : 		_Count = 0;
; 35   : 	else if (((_SIZT)(-1) / sizeof (_Ty) < _Count)

  0000d	74 44		 je	 SHORT $LN5@Allocate@2

; 36   : 		|| (_Ptr = ::operator new(_Count * sizeof (_Ty))) == 0)

  0000f	81 f9 ff ff ff
	1f		 cmp	 ecx, 536870911		; 1fffffffH
  00015	77 14		 ja	 SHORT $LN1@Allocate@2
  00017	8d 04 cd 00 00
	00 00		 lea	 eax, DWORD PTR [ecx*8]
  0001e	50		 push	 eax
  0001f	e8 00 00 00 00	 call	 ??2@YAPAXI@Z		; operator new
  00024	83 c4 04	 add	 esp, 4
  00027	85 c0		 test	 eax, eax

; 38   : 
; 39   : 	return ((_Ty _FARQ *)_Ptr);

  00029	75 28		 jne	 SHORT $LN5@Allocate@2
$LN1@Allocate@2:

; 37   : 		_THROW_NCEE(bad_alloc, 0);

  0002b	8d 4d 08	 lea	 ecx, DWORD PTR $T157967[ebp]
  0002e	51		 push	 ecx
  0002f	8d 4d f4	 lea	 ecx, DWORD PTR $T157963[ebp]
  00032	c7 45 08 00 00
	00 00		 mov	 DWORD PTR $T157967[ebp], 0
  00039	e8 00 00 00 00	 call	 ??0exception@std@@QAE@ABQBD@Z ; std::exception::exception
  0003e	68 00 00 00 00	 push	 OFFSET __TI2?AVbad_alloc@std@@
  00043	8d 55 f4	 lea	 edx, DWORD PTR $T157963[ebp]
  00046	52		 push	 edx
  00047	c7 45 f4 00 00
	00 00		 mov	 DWORD PTR $T157963[ebp], OFFSET ??_7bad_alloc@std@@6B@
  0004e	e8 00 00 00 00	 call	 __CxxThrowException@8
$LN10@Allocate@2:
$LN5@Allocate@2:

; 40   : 	}

  00053	8b e5		 mov	 esp, ebp
  00055	5d		 pop	 ebp
  00056	c3		 ret	 0
$LN9@Allocate@2:
??$_Allocate@URINGMONSTER_EVENT_TIME@@@std@@YAPAURINGMONSTER_EVENT_TIME@@IPAU1@@Z ENDP ; std::_Allocate<RINGMONSTER_EVENT_TIME>
_TEXT	ENDS
PUBLIC	?construct@?$allocator@URINGMONSTER_DATA@@@std@@QAEXPAURINGMONSTER_DATA@@ABU3@@Z ; std::allocator<RINGMONSTER_DATA>::construct
; Function compile flags: /Ogtp
;	COMDAT ?construct@?$allocator@URINGMONSTER_DATA@@@std@@QAEXPAURINGMONSTER_DATA@@ABU3@@Z
_TEXT	SEGMENT
__Ptr$ = 8						; size = 4
__Val$ = 12						; size = 4
?construct@?$allocator@URINGMONSTER_DATA@@@std@@QAEXPAURINGMONSTER_DATA@@ABU3@@Z PROC ; std::allocator<RINGMONSTER_DATA>::construct, COMDAT
; _this$ = ecx

; 196  : 		{	// construct object at _Ptr with value _Val

  00000	55		 push	 ebp
  00001	8b ec		 mov	 ebp, esp

; 197  : 		_Construct(_Ptr, _Val);

  00003	8b 45 08	 mov	 eax, DWORD PTR __Ptr$[ebp]
  00006	85 c0		 test	 eax, eax
  00008	74 13		 je	 SHORT $LN5@construct@3
  0000a	8b 4d 0c	 mov	 ecx, DWORD PTR __Val$[ebp]
  0000d	8b 11		 mov	 edx, DWORD PTR [ecx]
  0000f	89 10		 mov	 DWORD PTR [eax], edx
  00011	8b 51 04	 mov	 edx, DWORD PTR [ecx+4]
  00014	89 50 04	 mov	 DWORD PTR [eax+4], edx
  00017	8b 49 08	 mov	 ecx, DWORD PTR [ecx+8]
  0001a	89 48 08	 mov	 DWORD PTR [eax+8], ecx
$LN5@construct@3:

; 198  : 		}

  0001d	5d		 pop	 ebp
  0001e	c2 08 00	 ret	 8
?construct@?$allocator@URINGMONSTER_DATA@@@std@@QAEXPAURINGMONSTER_DATA@@ABU3@@Z ENDP ; std::allocator<RINGMONSTER_DATA>::construct
_TEXT	ENDS
PUBLIC	?construct@?$allocator@URINGMONSTER_EVENT_TIME@@@std@@QAEXPAURINGMONSTER_EVENT_TIME@@ABU3@@Z ; std::allocator<RINGMONSTER_EVENT_TIME>::construct
; Function compile flags: /Ogtp
;	COMDAT ?construct@?$allocator@URINGMONSTER_EVENT_TIME@@@std@@QAEXPAURINGMONSTER_EVENT_TIME@@ABU3@@Z
_TEXT	SEGMENT
__Ptr$ = 8						; size = 4
__Val$ = 12						; size = 4
?construct@?$allocator@URINGMONSTER_EVENT_TIME@@@std@@QAEXPAURINGMONSTER_EVENT_TIME@@ABU3@@Z PROC ; std::allocator<RINGMONSTER_EVENT_TIME>::construct, COMDAT
; _this$ = ecx

; 196  : 		{	// construct object at _Ptr with value _Val

  00000	55		 push	 ebp
  00001	8b ec		 mov	 ebp, esp

; 197  : 		_Construct(_Ptr, _Val);

  00003	8b 45 08	 mov	 eax, DWORD PTR __Ptr$[ebp]
  00006	85 c0		 test	 eax, eax
  00008	74 0d		 je	 SHORT $LN5@construct@4
  0000a	8b 4d 0c	 mov	 ecx, DWORD PTR __Val$[ebp]
  0000d	8b 11		 mov	 edx, DWORD PTR [ecx]
  0000f	89 10		 mov	 DWORD PTR [eax], edx
  00011	8b 49 04	 mov	 ecx, DWORD PTR [ecx+4]
  00014	89 48 04	 mov	 DWORD PTR [eax+4], ecx
$LN5@construct@4:

; 198  : 		}

  00017	5d		 pop	 ebp
  00018	c2 08 00	 ret	 8
?construct@?$allocator@URINGMONSTER_EVENT_TIME@@@std@@QAEXPAURINGMONSTER_EVENT_TIME@@ABU3@@Z ENDP ; std::allocator<RINGMONSTER_EVENT_TIME>::construct
_TEXT	ENDS
PUBLIC	??$_Move@PAURINGMONSTER_DATA@@PAU1@@std@@YAPAURINGMONSTER_DATA@@PAU1@00U_Nonscalar_ptr_iterator_tag@0@@Z ; std::_Move<RINGMONSTER_DATA *,RINGMONSTER_DATA *>
; Function compile flags: /Ogtp
; File c:\program files (x86)\microsoft visual studio 10.0\vc\include\xutility
;	COMDAT ??$_Move@PAURINGMONSTER_DATA@@PAU1@@std@@YAPAURINGMONSTER_DATA@@PAU1@00U_Nonscalar_ptr_iterator_tag@0@@Z
_TEXT	SEGMENT
__First$ = 8						; size = 4
__Last$ = 12						; size = 4
__Dest$ = 16						; size = 4
___formal$ = 20						; size = 1
??$_Move@PAURINGMONSTER_DATA@@PAU1@@std@@YAPAURINGMONSTER_DATA@@PAU1@00U_Nonscalar_ptr_iterator_tag@0@@Z PROC ; std::_Move<RINGMONSTER_DATA *,RINGMONSTER_DATA *>, COMDAT

; 2512 : 	{	// move [_First, _Last) to [_Dest, ...), arbitrary iterators

  00000	55		 push	 ebp
  00001	8b ec		 mov	 ebp, esp

; 2513 : 	for (; _First != _Last; ++_Dest, ++_First)

  00003	8b 4d 08	 mov	 ecx, DWORD PTR __First$[ebp]
  00006	8b 55 0c	 mov	 edx, DWORD PTR __Last$[ebp]
  00009	8b 45 10	 mov	 eax, DWORD PTR __Dest$[ebp]
  0000c	3b ca		 cmp	 ecx, edx
  0000e	74 1c		 je	 SHORT $LN1@Move@2
  00010	56		 push	 esi
$LL3@Move@2:

; 2514 : 		*_Dest = _STD move(*_First);

  00011	8b 31		 mov	 esi, DWORD PTR [ecx]
  00013	89 30		 mov	 DWORD PTR [eax], esi
  00015	8b 71 04	 mov	 esi, DWORD PTR [ecx+4]
  00018	89 70 04	 mov	 DWORD PTR [eax+4], esi
  0001b	8b 71 08	 mov	 esi, DWORD PTR [ecx+8]
  0001e	89 70 08	 mov	 DWORD PTR [eax+8], esi
  00021	83 c1 0c	 add	 ecx, 12			; 0000000cH
  00024	83 c0 0c	 add	 eax, 12			; 0000000cH
  00027	3b ca		 cmp	 ecx, edx
  00029	75 e6		 jne	 SHORT $LL3@Move@2
  0002b	5e		 pop	 esi
$LN1@Move@2:

; 2515 : 	return (_Dest);
; 2516 : 	}

  0002c	5d		 pop	 ebp
  0002d	c3		 ret	 0
??$_Move@PAURINGMONSTER_DATA@@PAU1@@std@@YAPAURINGMONSTER_DATA@@PAU1@00U_Nonscalar_ptr_iterator_tag@0@@Z ENDP ; std::_Move<RINGMONSTER_DATA *,RINGMONSTER_DATA *>
_TEXT	ENDS
PUBLIC	??$_Move@PAURINGMONSTER_EVENT_TIME@@PAU1@@std@@YAPAURINGMONSTER_EVENT_TIME@@PAU1@00U_Nonscalar_ptr_iterator_tag@0@@Z ; std::_Move<RINGMONSTER_EVENT_TIME *,RINGMONSTER_EVENT_TIME *>
; Function compile flags: /Ogtp
;	COMDAT ??$_Move@PAURINGMONSTER_EVENT_TIME@@PAU1@@std@@YAPAURINGMONSTER_EVENT_TIME@@PAU1@00U_Nonscalar_ptr_iterator_tag@0@@Z
_TEXT	SEGMENT
__First$ = 8						; size = 4
__Last$ = 12						; size = 4
__Dest$ = 16						; size = 4
___formal$ = 20						; size = 1
??$_Move@PAURINGMONSTER_EVENT_TIME@@PAU1@@std@@YAPAURINGMONSTER_EVENT_TIME@@PAU1@00U_Nonscalar_ptr_iterator_tag@0@@Z PROC ; std::_Move<RINGMONSTER_EVENT_TIME *,RINGMONSTER_EVENT_TIME *>, COMDAT

; 2512 : 	{	// move [_First, _Last) to [_Dest, ...), arbitrary iterators

  00000	55		 push	 ebp
  00001	8b ec		 mov	 ebp, esp

; 2513 : 	for (; _First != _Last; ++_Dest, ++_First)

  00003	8b 4d 08	 mov	 ecx, DWORD PTR __First$[ebp]
  00006	8b 55 0c	 mov	 edx, DWORD PTR __Last$[ebp]
  00009	8b 45 10	 mov	 eax, DWORD PTR __Dest$[ebp]
  0000c	3b ca		 cmp	 ecx, edx
  0000e	74 16		 je	 SHORT $LN1@Move@3
  00010	56		 push	 esi
$LL3@Move@3:

; 2514 : 		*_Dest = _STD move(*_First);

  00011	8b 31		 mov	 esi, DWORD PTR [ecx]
  00013	89 30		 mov	 DWORD PTR [eax], esi
  00015	8b 71 04	 mov	 esi, DWORD PTR [ecx+4]
  00018	89 70 04	 mov	 DWORD PTR [eax+4], esi
  0001b	83 c1 08	 add	 ecx, 8
  0001e	83 c0 08	 add	 eax, 8
  00021	3b ca		 cmp	 ecx, edx
  00023	75 ec		 jne	 SHORT $LL3@Move@3
  00025	5e		 pop	 esi
$LN1@Move@3:

; 2515 : 	return (_Dest);
; 2516 : 	}

  00026	5d		 pop	 ebp
  00027	c3		 ret	 0
??$_Move@PAURINGMONSTER_EVENT_TIME@@PAU1@@std@@YAPAURINGMONSTER_EVENT_TIME@@PAU1@00U_Nonscalar_ptr_iterator_tag@0@@Z ENDP ; std::_Move<RINGMONSTER_EVENT_TIME *,RINGMONSTER_EVENT_TIME *>
_TEXT	ENDS
PUBLIC	?destroy@?$allocator@URINGMONSTER_DATA@@@std@@QAEXPAURINGMONSTER_DATA@@@Z ; std::allocator<RINGMONSTER_DATA>::destroy
; Function compile flags: /Ogtp
; File c:\program files (x86)\microsoft visual studio 10.0\vc\include\xmemory
;	COMDAT ?destroy@?$allocator@URINGMONSTER_DATA@@@std@@QAEXPAURINGMONSTER_DATA@@@Z
_TEXT	SEGMENT
__Ptr$ = 8						; size = 4
?destroy@?$allocator@URINGMONSTER_DATA@@@std@@QAEXPAURINGMONSTER_DATA@@@Z PROC ; std::allocator<RINGMONSTER_DATA>::destroy, COMDAT
; _this$ = ecx

; 213  : 		_Destroy(_Ptr);
; 214  : 		}

  00000	c2 04 00	 ret	 4
?destroy@?$allocator@URINGMONSTER_DATA@@@std@@QAEXPAURINGMONSTER_DATA@@@Z ENDP ; std::allocator<RINGMONSTER_DATA>::destroy
_TEXT	ENDS
PUBLIC	?destroy@?$allocator@URINGMONSTER_EVENT_TIME@@@std@@QAEXPAURINGMONSTER_EVENT_TIME@@@Z ; std::allocator<RINGMONSTER_EVENT_TIME>::destroy
; Function compile flags: /Ogtp
;	COMDAT ?destroy@?$allocator@URINGMONSTER_EVENT_TIME@@@std@@QAEXPAURINGMONSTER_EVENT_TIME@@@Z
_TEXT	SEGMENT
__Ptr$ = 8						; size = 4
?destroy@?$allocator@URINGMONSTER_EVENT_TIME@@@std@@QAEXPAURINGMONSTER_EVENT_TIME@@@Z PROC ; std::allocator<RINGMONSTER_EVENT_TIME>::destroy, COMDAT
; _this$ = ecx

; 213  : 		_Destroy(_Ptr);
; 214  : 		}

  00000	c2 04 00	 ret	 4
?destroy@?$allocator@URINGMONSTER_EVENT_TIME@@@std@@QAEXPAURINGMONSTER_EVENT_TIME@@@Z ENDP ; std::allocator<RINGMONSTER_EVENT_TIME>::destroy
_TEXT	ENDS
PUBLIC	?construct@?$allocator@URINGMONSTER_DATA@@@std@@QAEXPAURINGMONSTER_DATA@@$$QAU3@@Z ; std::allocator<RINGMONSTER_DATA>::construct
; Function compile flags: /Ogtp
;	COMDAT ?construct@?$allocator@URINGMONSTER_DATA@@@std@@QAEXPAURINGMONSTER_DATA@@$$QAU3@@Z
_TEXT	SEGMENT
__Ptr$ = 8						; size = 4
__Val$ = 12						; size = 4
?construct@?$allocator@URINGMONSTER_DATA@@@std@@QAEXPAURINGMONSTER_DATA@@$$QAU3@@Z PROC ; std::allocator<RINGMONSTER_DATA>::construct, COMDAT
; _this$ = ecx

; 201  : 		{	// construct object at _Ptr with value _Val

  00000	55		 push	 ebp
  00001	8b ec		 mov	 ebp, esp

; 202  : 		::new ((void _FARQ *)_Ptr) _Ty(_STD forward<_Ty>(_Val));

  00003	8b 45 08	 mov	 eax, DWORD PTR __Ptr$[ebp]
  00006	85 c0		 test	 eax, eax
  00008	74 13		 je	 SHORT $LN3@construct@5
  0000a	8b 4d 0c	 mov	 ecx, DWORD PTR __Val$[ebp]
  0000d	8b 11		 mov	 edx, DWORD PTR [ecx]
  0000f	89 10		 mov	 DWORD PTR [eax], edx
  00011	8b 51 04	 mov	 edx, DWORD PTR [ecx+4]
  00014	89 50 04	 mov	 DWORD PTR [eax+4], edx
  00017	8b 49 08	 mov	 ecx, DWORD PTR [ecx+8]
  0001a	89 48 08	 mov	 DWORD PTR [eax+8], ecx
$LN3@construct@5:

; 203  : 		}

  0001d	5d		 pop	 ebp
  0001e	c2 08 00	 ret	 8
?construct@?$allocator@URINGMONSTER_DATA@@@std@@QAEXPAURINGMONSTER_DATA@@$$QAU3@@Z ENDP ; std::allocator<RINGMONSTER_DATA>::construct
_TEXT	ENDS
PUBLIC	?construct@?$allocator@URINGMONSTER_EVENT_TIME@@@std@@QAEXPAURINGMONSTER_EVENT_TIME@@$$QAU3@@Z ; std::allocator<RINGMONSTER_EVENT_TIME>::construct
; Function compile flags: /Ogtp
;	COMDAT ?construct@?$allocator@URINGMONSTER_EVENT_TIME@@@std@@QAEXPAURINGMONSTER_EVENT_TIME@@$$QAU3@@Z
_TEXT	SEGMENT
__Ptr$ = 8						; size = 4
__Val$ = 12						; size = 4
?construct@?$allocator@URINGMONSTER_EVENT_TIME@@@std@@QAEXPAURINGMONSTER_EVENT_TIME@@$$QAU3@@Z PROC ; std::allocator<RINGMONSTER_EVENT_TIME>::construct, COMDAT
; _this$ = ecx

; 201  : 		{	// construct object at _Ptr with value _Val

  00000	55		 push	 ebp
  00001	8b ec		 mov	 ebp, esp

; 202  : 		::new ((void _FARQ *)_Ptr) _Ty(_STD forward<_Ty>(_Val));

  00003	8b 45 08	 mov	 eax, DWORD PTR __Ptr$[ebp]
  00006	85 c0		 test	 eax, eax
  00008	74 0d		 je	 SHORT $LN3@construct@6
  0000a	8b 4d 0c	 mov	 ecx, DWORD PTR __Val$[ebp]
  0000d	8b 11		 mov	 edx, DWORD PTR [ecx]
  0000f	89 10		 mov	 DWORD PTR [eax], edx
  00011	8b 49 04	 mov	 ecx, DWORD PTR [ecx+4]
  00014	89 48 04	 mov	 DWORD PTR [eax+4], ecx
$LN3@construct@6:

; 203  : 		}

  00017	5d		 pop	 ebp
  00018	c2 08 00	 ret	 8
?construct@?$allocator@URINGMONSTER_EVENT_TIME@@@std@@QAEXPAURINGMONSTER_EVENT_TIME@@$$QAU3@@Z ENDP ; std::allocator<RINGMONSTER_EVENT_TIME>::construct
_TEXT	ENDS
PUBLIC	??0?$vector@URINGMONSTER_DATA@@V?$allocator@URINGMONSTER_DATA@@@std@@@std@@QAE@XZ ; std::vector<RINGMONSTER_DATA,std::allocator<RINGMONSTER_DATA> >::vector<RINGMONSTER_DATA,std::allocator<RINGMONSTER_DATA> >
; Function compile flags: /Ogtp
; File c:\program files (x86)\microsoft visual studio 10.0\vc\include\vector
;	COMDAT ??0?$vector@URINGMONSTER_DATA@@V?$allocator@URINGMONSTER_DATA@@@std@@@std@@QAE@XZ
_TEXT	SEGMENT
??0?$vector@URINGMONSTER_DATA@@V?$allocator@URINGMONSTER_DATA@@@std@@@std@@QAE@XZ PROC ; std::vector<RINGMONSTER_DATA,std::allocator<RINGMONSTER_DATA> >::vector<RINGMONSTER_DATA,std::allocator<RINGMONSTER_DATA> >, COMDAT
; _this$ = ecx

; 507  : 		{	// construct empty vector

  00000	8b c1		 mov	 eax, ecx
  00002	33 c9		 xor	 ecx, ecx
  00004	89 08		 mov	 DWORD PTR [eax], ecx
  00006	89 48 04	 mov	 DWORD PTR [eax+4], ecx
  00009	89 48 08	 mov	 DWORD PTR [eax+8], ecx

; 508  : 		}

  0000c	c3		 ret	 0
??0?$vector@URINGMONSTER_DATA@@V?$allocator@URINGMONSTER_DATA@@@std@@@std@@QAE@XZ ENDP ; std::vector<RINGMONSTER_DATA,std::allocator<RINGMONSTER_DATA> >::vector<RINGMONSTER_DATA,std::allocator<RINGMONSTER_DATA> >
_TEXT	ENDS
PUBLIC	??0?$vector@URINGMONSTER_EVENT_TIME@@V?$allocator@URINGMONSTER_EVENT_TIME@@@std@@@std@@QAE@XZ ; std::vector<RINGMONSTER_EVENT_TIME,std::allocator<RINGMONSTER_EVENT_TIME> >::vector<RINGMONSTER_EVENT_TIME,std::allocator<RINGMONSTER_EVENT_TIME> >
; Function compile flags: /Ogtp
;	COMDAT ??0?$vector@URINGMONSTER_EVENT_TIME@@V?$allocator@URINGMONSTER_EVENT_TIME@@@std@@@std@@QAE@XZ
_TEXT	SEGMENT
??0?$vector@URINGMONSTER_EVENT_TIME@@V?$allocator@URINGMONSTER_EVENT_TIME@@@std@@@std@@QAE@XZ PROC ; std::vector<RINGMONSTER_EVENT_TIME,std::allocator<RINGMONSTER_EVENT_TIME> >::vector<RINGMONSTER_EVENT_TIME,std::allocator<RINGMONSTER_EVENT_TIME> >, COMDAT
; _this$ = ecx

; 507  : 		{	// construct empty vector

  00000	8b c1		 mov	 eax, ecx
  00002	33 c9		 xor	 ecx, ecx
  00004	89 08		 mov	 DWORD PTR [eax], ecx
  00006	89 48 04	 mov	 DWORD PTR [eax+4], ecx
  00009	89 48 08	 mov	 DWORD PTR [eax+8], ecx

; 508  : 		}

  0000c	c3		 ret	 0
??0?$vector@URINGMONSTER_EVENT_TIME@@V?$allocator@URINGMONSTER_EVENT_TIME@@@std@@@std@@QAE@XZ ENDP ; std::vector<RINGMONSTER_EVENT_TIME,std::allocator<RINGMONSTER_EVENT_TIME> >::vector<RINGMONSTER_EVENT_TIME,std::allocator<RINGMONSTER_EVENT_TIME> >
_TEXT	ENDS
PUBLIC	??E?$_Vector_iterator@V?$_Vector_val@URINGMONSTER_DATA@@V?$allocator@URINGMONSTER_DATA@@@std@@@std@@@std@@QAE?AV01@H@Z ; std::_Vector_iterator<std::_Vector_val<RINGMONSTER_DATA,std::allocator<RINGMONSTER_DATA> > >::operator++
; Function compile flags: /Ogtp
;	COMDAT ??E?$_Vector_iterator@V?$_Vector_val@URINGMONSTER_DATA@@V?$allocator@URINGMONSTER_DATA@@@std@@@std@@@std@@QAE?AV01@H@Z
_TEXT	SEGMENT
___$ReturnUdt$ = 8					; size = 4
___formal$ = 12						; size = 4
??E?$_Vector_iterator@V?$_Vector_val@URINGMONSTER_DATA@@V?$allocator@URINGMONSTER_DATA@@@std@@@std@@@std@@QAE?AV01@H@Z PROC ; std::_Vector_iterator<std::_Vector_val<RINGMONSTER_DATA,std::allocator<RINGMONSTER_DATA> > >::operator++, COMDAT
; _this$ = ecx

; 337  : 		{	// postincrement

  00000	55		 push	 ebp
  00001	8b ec		 mov	 ebp, esp

; 338  : 		_Myiter _Tmp = *this;

  00003	8b 11		 mov	 edx, DWORD PTR [ecx]
  00005	8b 45 08	 mov	 eax, DWORD PTR ___$ReturnUdt$[ebp]
  00008	89 10		 mov	 DWORD PTR [eax], edx

; 339  : 		++*this;

  0000a	83 c2 0c	 add	 edx, 12			; 0000000cH
  0000d	89 11		 mov	 DWORD PTR [ecx], edx

; 340  : 		return (_Tmp);
; 341  : 		}

  0000f	5d		 pop	 ebp
  00010	c2 08 00	 ret	 8
??E?$_Vector_iterator@V?$_Vector_val@URINGMONSTER_DATA@@V?$allocator@URINGMONSTER_DATA@@@std@@@std@@@std@@QAE?AV01@H@Z ENDP ; std::_Vector_iterator<std::_Vector_val<RINGMONSTER_DATA,std::allocator<RINGMONSTER_DATA> > >::operator++
_TEXT	ENDS
PUBLIC	??9?$_Vector_const_iterator@V?$_Vector_val@URINGMONSTER_DATA@@V?$allocator@URINGMONSTER_DATA@@@std@@@std@@@std@@QBE_NABV01@@Z ; std::_Vector_const_iterator<std::_Vector_val<RINGMONSTER_DATA,std::allocator<RINGMONSTER_DATA> > >::operator!=
; Function compile flags: /Ogtp
;	COMDAT ??9?$_Vector_const_iterator@V?$_Vector_val@URINGMONSTER_DATA@@V?$allocator@URINGMONSTER_DATA@@@std@@@std@@@std@@QBE_NABV01@@Z
_TEXT	SEGMENT
__Right$ = 8						; size = 4
??9?$_Vector_const_iterator@V?$_Vector_val@URINGMONSTER_DATA@@V?$allocator@URINGMONSTER_DATA@@@std@@@std@@@std@@QBE_NABV01@@Z PROC ; std::_Vector_const_iterator<std::_Vector_val<RINGMONSTER_DATA,std::allocator<RINGMONSTER_DATA> > >::operator!=, COMDAT
; _this$ = ecx

; 207  : 		{	// test for iterator inequality

  00000	55		 push	 ebp
  00001	8b ec		 mov	 ebp, esp

; 208  : 		return (!(*this == _Right));

  00003	8b 01		 mov	 eax, DWORD PTR [ecx]
  00005	8b 55 08	 mov	 edx, DWORD PTR __Right$[ebp]
  00008	33 c9		 xor	 ecx, ecx
  0000a	3b 02		 cmp	 eax, DWORD PTR [edx]
  0000c	0f 95 c0	 setne	 al

; 209  : 		}

  0000f	5d		 pop	 ebp
  00010	c2 04 00	 ret	 4
??9?$_Vector_const_iterator@V?$_Vector_val@URINGMONSTER_DATA@@V?$allocator@URINGMONSTER_DATA@@@std@@@std@@@std@@QBE_NABV01@@Z ENDP ; std::_Vector_const_iterator<std::_Vector_val<RINGMONSTER_DATA,std::allocator<RINGMONSTER_DATA> > >::operator!=
_TEXT	ENDS
PUBLIC	??E?$_Vector_iterator@V?$_Vector_val@URINGMONSTER_EVENT_TIME@@V?$allocator@URINGMONSTER_EVENT_TIME@@@std@@@std@@@std@@QAE?AV01@H@Z ; std::_Vector_iterator<std::_Vector_val<RINGMONSTER_EVENT_TIME,std::allocator<RINGMONSTER_EVENT_TIME> > >::operator++
; Function compile flags: /Ogtp
;	COMDAT ??E?$_Vector_iterator@V?$_Vector_val@URINGMONSTER_EVENT_TIME@@V?$allocator@URINGMONSTER_EVENT_TIME@@@std@@@std@@@std@@QAE?AV01@H@Z
_TEXT	SEGMENT
___$ReturnUdt$ = 8					; size = 4
___formal$ = 12						; size = 4
??E?$_Vector_iterator@V?$_Vector_val@URINGMONSTER_EVENT_TIME@@V?$allocator@URINGMONSTER_EVENT_TIME@@@std@@@std@@@std@@QAE?AV01@H@Z PROC ; std::_Vector_iterator<std::_Vector_val<RINGMONSTER_EVENT_TIME,std::allocator<RINGMONSTER_EVENT_TIME> > >::operator++, COMDAT
; _this$ = ecx

; 337  : 		{	// postincrement

  00000	55		 push	 ebp
  00001	8b ec		 mov	 ebp, esp

; 338  : 		_Myiter _Tmp = *this;

  00003	8b 11		 mov	 edx, DWORD PTR [ecx]
  00005	8b 45 08	 mov	 eax, DWORD PTR ___$ReturnUdt$[ebp]
  00008	89 10		 mov	 DWORD PTR [eax], edx

; 339  : 		++*this;

  0000a	83 c2 08	 add	 edx, 8
  0000d	89 11		 mov	 DWORD PTR [ecx], edx

; 340  : 		return (_Tmp);
; 341  : 		}

  0000f	5d		 pop	 ebp
  00010	c2 08 00	 ret	 8
??E?$_Vector_iterator@V?$_Vector_val@URINGMONSTER_EVENT_TIME@@V?$allocator@URINGMONSTER_EVENT_TIME@@@std@@@std@@@std@@QAE?AV01@H@Z ENDP ; std::_Vector_iterator<std::_Vector_val<RINGMONSTER_EVENT_TIME,std::allocator<RINGMONSTER_EVENT_TIME> > >::operator++
_TEXT	ENDS
PUBLIC	??9?$_Vector_const_iterator@V?$_Vector_val@URINGMONSTER_EVENT_TIME@@V?$allocator@URINGMONSTER_EVENT_TIME@@@std@@@std@@@std@@QBE_NABV01@@Z ; std::_Vector_const_iterator<std::_Vector_val<RINGMONSTER_EVENT_TIME,std::allocator<RINGMONSTER_EVENT_TIME> > >::operator!=
; Function compile flags: /Ogtp
;	COMDAT ??9?$_Vector_const_iterator@V?$_Vector_val@URINGMONSTER_EVENT_TIME@@V?$allocator@URINGMONSTER_EVENT_TIME@@@std@@@std@@@std@@QBE_NABV01@@Z
_TEXT	SEGMENT
__Right$ = 8						; size = 4
??9?$_Vector_const_iterator@V?$_Vector_val@URINGMONSTER_EVENT_TIME@@V?$allocator@URINGMONSTER_EVENT_TIME@@@std@@@std@@@std@@QBE_NABV01@@Z PROC ; std::_Vector_const_iterator<std::_Vector_val<RINGMONSTER_EVENT_TIME,std::allocator<RINGMONSTER_EVENT_TIME> > >::operator!=, COMDAT
; _this$ = ecx

; 207  : 		{	// test for iterator inequality

  00000	55		 push	 ebp
  00001	8b ec		 mov	 ebp, esp

; 208  : 		return (!(*this == _Right));

  00003	8b 01		 mov	 eax, DWORD PTR [ecx]
  00005	8b 55 08	 mov	 edx, DWORD PTR __Right$[ebp]
  00008	33 c9		 xor	 ecx, ecx
  0000a	3b 02		 cmp	 eax, DWORD PTR [edx]
  0000c	0f 95 c0	 setne	 al

; 209  : 		}

  0000f	5d		 pop	 ebp
  00010	c2 04 00	 ret	 4
??9?$_Vector_const_iterator@V?$_Vector_val@URINGMONSTER_EVENT_TIME@@V?$allocator@URINGMONSTER_EVENT_TIME@@@std@@@std@@@std@@QBE_NABV01@@Z ENDP ; std::_Vector_const_iterator<std::_Vector_val<RINGMONSTER_EVENT_TIME,std::allocator<RINGMONSTER_EVENT_TIME> > >::operator!=
_TEXT	ENDS
PUBLIC	??0?$_Vector_iterator@V?$_Vector_val@URINGMONSTER_DATA@@V?$allocator@URINGMONSTER_DATA@@@std@@@std@@@std@@QAE@PAURINGMONSTER_DATA@@PBU_Container_base0@1@@Z ; std::_Vector_iterator<std::_Vector_val<RINGMONSTER_DATA,std::allocator<RINGMONSTER_DATA> > >::_Vector_iterator<std::_Vector_val<RINGMONSTER_DATA,std::allocator<RINGMONSTER_DATA> > >
; Function compile flags: /Ogtp
;	COMDAT ??0?$_Vector_iterator@V?$_Vector_val@URINGMONSTER_DATA@@V?$allocator@URINGMONSTER_DATA@@@std@@@std@@@std@@QAE@PAURINGMONSTER_DATA@@PBU_Container_base0@1@@Z
_TEXT	SEGMENT
__Parg$ = 8						; size = 4
__Pvector$ = 12						; size = 4
??0?$_Vector_iterator@V?$_Vector_val@URINGMONSTER_DATA@@V?$allocator@URINGMONSTER_DATA@@@std@@@std@@@std@@QAE@PAURINGMONSTER_DATA@@PBU_Container_base0@1@@Z PROC ; std::_Vector_iterator<std::_Vector_val<RINGMONSTER_DATA,std::allocator<RINGMONSTER_DATA> > >::_Vector_iterator<std::_Vector_val<RINGMONSTER_DATA,std::allocator<RINGMONSTER_DATA> > >, COMDAT
; _this$ = ecx

; 304  : 		{	// construct with pointer _Parg

  00000	55		 push	 ebp
  00001	8b ec		 mov	 ebp, esp
  00003	8b c1		 mov	 eax, ecx
  00005	8b 4d 08	 mov	 ecx, DWORD PTR __Parg$[ebp]
  00008	89 08		 mov	 DWORD PTR [eax], ecx

; 305  : 		}

  0000a	5d		 pop	 ebp
  0000b	c2 08 00	 ret	 8
??0?$_Vector_iterator@V?$_Vector_val@URINGMONSTER_DATA@@V?$allocator@URINGMONSTER_DATA@@@std@@@std@@@std@@QAE@PAURINGMONSTER_DATA@@PBU_Container_base0@1@@Z ENDP ; std::_Vector_iterator<std::_Vector_val<RINGMONSTER_DATA,std::allocator<RINGMONSTER_DATA> > >::_Vector_iterator<std::_Vector_val<RINGMONSTER_DATA,std::allocator<RINGMONSTER_DATA> > >
_TEXT	ENDS
PUBLIC	??0?$_Vector_iterator@V?$_Vector_val@URINGMONSTER_EVENT_TIME@@V?$allocator@URINGMONSTER_EVENT_TIME@@@std@@@std@@@std@@QAE@PAURINGMONSTER_EVENT_TIME@@PBU_Container_base0@1@@Z ; std::_Vector_iterator<std::_Vector_val<RINGMONSTER_EVENT_TIME,std::allocator<RINGMONSTER_EVENT_TIME> > >::_Vector_iterator<std::_Vector_val<RINGMONSTER_EVENT_TIME,std::allocator<RINGMONSTER_EVENT_TIME> > >
; Function compile flags: /Ogtp
;	COMDAT ??0?$_Vector_iterator@V?$_Vector_val@URINGMONSTER_EVENT_TIME@@V?$allocator@URINGMONSTER_EVENT_TIME@@@std@@@std@@@std@@QAE@PAURINGMONSTER_EVENT_TIME@@PBU_Container_base0@1@@Z
_TEXT	SEGMENT
__Parg$ = 8						; size = 4
__Pvector$ = 12						; size = 4
??0?$_Vector_iterator@V?$_Vector_val@URINGMONSTER_EVENT_TIME@@V?$allocator@URINGMONSTER_EVENT_TIME@@@std@@@std@@@std@@QAE@PAURINGMONSTER_EVENT_TIME@@PBU_Container_base0@1@@Z PROC ; std::_Vector_iterator<std::_Vector_val<RINGMONSTER_EVENT_TIME,std::allocator<RINGMONSTER_EVENT_TIME> > >::_Vector_iterator<std::_Vector_val<RINGMONSTER_EVENT_TIME,std::allocator<RINGMONSTER_EVENT_TIME> > >, COMDAT
; _this$ = ecx

; 304  : 		{	// construct with pointer _Parg

  00000	55		 push	 ebp
  00001	8b ec		 mov	 ebp, esp
  00003	8b c1		 mov	 eax, ecx
  00005	8b 4d 08	 mov	 ecx, DWORD PTR __Parg$[ebp]
  00008	89 08		 mov	 DWORD PTR [eax], ecx

; 305  : 		}

  0000a	5d		 pop	 ebp
  0000b	c2 08 00	 ret	 8
??0?$_Vector_iterator@V?$_Vector_val@URINGMONSTER_EVENT_TIME@@V?$allocator@URINGMONSTER_EVENT_TIME@@@std@@@std@@@std@@QAE@PAURINGMONSTER_EVENT_TIME@@PBU_Container_base0@1@@Z ENDP ; std::_Vector_iterator<std::_Vector_val<RINGMONSTER_EVENT_TIME,std::allocator<RINGMONSTER_EVENT_TIME> > >::_Vector_iterator<std::_Vector_val<RINGMONSTER_EVENT_TIME,std::allocator<RINGMONSTER_EVENT_TIME> > >
_TEXT	ENDS
PUBLIC	?allocate@?$allocator@URINGMONSTER_DATA@@@std@@QAEPAURINGMONSTER_DATA@@I@Z ; std::allocator<RINGMONSTER_DATA>::allocate
; Function compile flags: /Ogtp
; File c:\program files (x86)\microsoft visual studio 10.0\vc\include\xmemory
;	COMDAT ?allocate@?$allocator@URINGMONSTER_DATA@@@std@@QAEPAURINGMONSTER_DATA@@I@Z
_TEXT	SEGMENT
$T158181 = -12						; size = 12
$T158173 = 8						; size = 4
__Count$ = 8						; size = 4
?allocate@?$allocator@URINGMONSTER_DATA@@@std@@QAEPAURINGMONSTER_DATA@@I@Z PROC ; std::allocator<RINGMONSTER_DATA>::allocate, COMDAT
; _this$ = ecx

; 186  : 		{	// allocate array of _Count elements

  00000	55		 push	 ebp
  00001	8b ec		 mov	 ebp, esp

; 187  : 		return (_Allocate(_Count, (pointer)0));

  00003	8b 4d 08	 mov	 ecx, DWORD PTR __Count$[ebp]
  00006	83 ec 0c	 sub	 esp, 12			; 0000000cH
  00009	33 c0		 xor	 eax, eax
  0000b	85 c9		 test	 ecx, ecx
  0000d	74 44		 je	 SHORT $LN1@allocate
  0000f	81 f9 55 55 55
	15		 cmp	 ecx, 357913941		; 15555555H
  00015	77 14		 ja	 SHORT $LN3@allocate
  00017	8d 04 49	 lea	 eax, DWORD PTR [ecx+ecx*2]
  0001a	03 c0		 add	 eax, eax
  0001c	03 c0		 add	 eax, eax
  0001e	50		 push	 eax
  0001f	e8 00 00 00 00	 call	 ??2@YAPAXI@Z		; operator new
  00024	83 c4 04	 add	 esp, 4
  00027	85 c0		 test	 eax, eax
  00029	75 28		 jne	 SHORT $LN1@allocate
$LN3@allocate:
  0002b	8d 4d 08	 lea	 ecx, DWORD PTR $T158173[ebp]
  0002e	51		 push	 ecx
  0002f	8d 4d f4	 lea	 ecx, DWORD PTR $T158181[ebp]
  00032	c7 45 08 00 00
	00 00		 mov	 DWORD PTR $T158173[ebp], 0
  00039	e8 00 00 00 00	 call	 ??0exception@std@@QAE@ABQBD@Z ; std::exception::exception
  0003e	68 00 00 00 00	 push	 OFFSET __TI2?AVbad_alloc@std@@
  00043	8d 55 f4	 lea	 edx, DWORD PTR $T158181[ebp]
  00046	52		 push	 edx
  00047	c7 45 f4 00 00
	00 00		 mov	 DWORD PTR $T158181[ebp], OFFSET ??_7bad_alloc@std@@6B@
  0004e	e8 00 00 00 00	 call	 __CxxThrowException@8
$LN13@allocate:
$LN1@allocate:

; 188  : 		}

  00053	8b e5		 mov	 esp, ebp
  00055	5d		 pop	 ebp
  00056	c2 04 00	 ret	 4
$LN12@allocate:
?allocate@?$allocator@URINGMONSTER_DATA@@@std@@QAEPAURINGMONSTER_DATA@@I@Z ENDP ; std::allocator<RINGMONSTER_DATA>::allocate
_TEXT	ENDS
PUBLIC	?allocate@?$allocator@URINGMONSTER_EVENT_TIME@@@std@@QAEPAURINGMONSTER_EVENT_TIME@@I@Z ; std::allocator<RINGMONSTER_EVENT_TIME>::allocate
; Function compile flags: /Ogtp
;	COMDAT ?allocate@?$allocator@URINGMONSTER_EVENT_TIME@@@std@@QAEPAURINGMONSTER_EVENT_TIME@@I@Z
_TEXT	SEGMENT
$T158204 = -12						; size = 12
$T158196 = 8						; size = 4
__Count$ = 8						; size = 4
?allocate@?$allocator@URINGMONSTER_EVENT_TIME@@@std@@QAEPAURINGMONSTER_EVENT_TIME@@I@Z PROC ; std::allocator<RINGMONSTER_EVENT_TIME>::allocate, COMDAT
; _this$ = ecx

; 186  : 		{	// allocate array of _Count elements

  00000	55		 push	 ebp
  00001	8b ec		 mov	 ebp, esp

; 187  : 		return (_Allocate(_Count, (pointer)0));

  00003	8b 4d 08	 mov	 ecx, DWORD PTR __Count$[ebp]
  00006	83 ec 0c	 sub	 esp, 12			; 0000000cH
  00009	33 c0		 xor	 eax, eax
  0000b	85 c9		 test	 ecx, ecx
  0000d	74 44		 je	 SHORT $LN1@allocate@2
  0000f	81 f9 ff ff ff
	1f		 cmp	 ecx, 536870911		; 1fffffffH
  00015	77 14		 ja	 SHORT $LN3@allocate@2
  00017	8d 04 cd 00 00
	00 00		 lea	 eax, DWORD PTR [ecx*8]
  0001e	50		 push	 eax
  0001f	e8 00 00 00 00	 call	 ??2@YAPAXI@Z		; operator new
  00024	83 c4 04	 add	 esp, 4
  00027	85 c0		 test	 eax, eax
  00029	75 28		 jne	 SHORT $LN1@allocate@2
$LN3@allocate@2:
  0002b	8d 4d 08	 lea	 ecx, DWORD PTR $T158196[ebp]
  0002e	51		 push	 ecx
  0002f	8d 4d f4	 lea	 ecx, DWORD PTR $T158204[ebp]
  00032	c7 45 08 00 00
	00 00		 mov	 DWORD PTR $T158196[ebp], 0
  00039	e8 00 00 00 00	 call	 ??0exception@std@@QAE@ABQBD@Z ; std::exception::exception
  0003e	68 00 00 00 00	 push	 OFFSET __TI2?AVbad_alloc@std@@
  00043	8d 55 f4	 lea	 edx, DWORD PTR $T158204[ebp]
  00046	52		 push	 edx
  00047	c7 45 f4 00 00
	00 00		 mov	 DWORD PTR $T158204[ebp], OFFSET ??_7bad_alloc@std@@6B@
  0004e	e8 00 00 00 00	 call	 __CxxThrowException@8
$LN13@allocate@2:
$LN1@allocate@2:

; 188  : 		}

  00053	8b e5		 mov	 esp, ebp
  00055	5d		 pop	 ebp
  00056	c2 04 00	 ret	 4
$LN12@allocate@2:
?allocate@?$allocator@URINGMONSTER_EVENT_TIME@@@std@@QAEPAURINGMONSTER_EVENT_TIME@@I@Z ENDP ; std::allocator<RINGMONSTER_EVENT_TIME>::allocate
_TEXT	ENDS
PUBLIC	??$_Cons_val@V?$allocator@URINGMONSTER_DATA@@@std@@URINGMONSTER_DATA@@ABU3@@std@@YAXAAV?$allocator@URINGMONSTER_DATA@@@0@PAURINGMONSTER_DATA@@ABU2@@Z ; std::_Cons_val<std::allocator<RINGMONSTER_DATA>,RINGMONSTER_DATA,RINGMONSTER_DATA const &>
; Function compile flags: /Ogtp
;	COMDAT ??$_Cons_val@V?$allocator@URINGMONSTER_DATA@@@std@@URINGMONSTER_DATA@@ABU3@@std@@YAXAAV?$allocator@URINGMONSTER_DATA@@@0@PAURINGMONSTER_DATA@@ABU2@@Z
_TEXT	SEGMENT
__Alval$ = 8						; size = 4
__Pdest$ = 12						; size = 4
__Src$ = 16						; size = 4
??$_Cons_val@V?$allocator@URINGMONSTER_DATA@@@std@@URINGMONSTER_DATA@@ABU3@@std@@YAXAAV?$allocator@URINGMONSTER_DATA@@@0@PAURINGMONSTER_DATA@@ABU2@@Z PROC ; std::_Cons_val<std::allocator<RINGMONSTER_DATA>,RINGMONSTER_DATA,RINGMONSTER_DATA const &>, COMDAT

; 279  : 	{	// construct using allocator

  00000	55		 push	 ebp
  00001	8b ec		 mov	 ebp, esp

; 280  : 	_Alval.construct(_Pdest, _STD forward<_Ty2>(_Src));

  00003	8b 45 0c	 mov	 eax, DWORD PTR __Pdest$[ebp]
  00006	85 c0		 test	 eax, eax
  00008	74 13		 je	 SHORT $LN9@Cons_val@3
  0000a	8b 4d 10	 mov	 ecx, DWORD PTR __Src$[ebp]
  0000d	8b 11		 mov	 edx, DWORD PTR [ecx]
  0000f	89 10		 mov	 DWORD PTR [eax], edx
  00011	8b 51 04	 mov	 edx, DWORD PTR [ecx+4]
  00014	89 50 04	 mov	 DWORD PTR [eax+4], edx
  00017	8b 49 08	 mov	 ecx, DWORD PTR [ecx+8]
  0001a	89 48 08	 mov	 DWORD PTR [eax+8], ecx
$LN9@Cons_val@3:

; 281  : 	}

  0001d	5d		 pop	 ebp
  0001e	c3		 ret	 0
??$_Cons_val@V?$allocator@URINGMONSTER_DATA@@@std@@URINGMONSTER_DATA@@ABU3@@std@@YAXAAV?$allocator@URINGMONSTER_DATA@@@0@PAURINGMONSTER_DATA@@ABU2@@Z ENDP ; std::_Cons_val<std::allocator<RINGMONSTER_DATA>,RINGMONSTER_DATA,RINGMONSTER_DATA const &>
_TEXT	ENDS
PUBLIC	??$_Move@PAURINGMONSTER_DATA@@PAU1@@std@@YAPAURINGMONSTER_DATA@@PAU1@00@Z ; std::_Move<RINGMONSTER_DATA *,RINGMONSTER_DATA *>
; Function compile flags: /Ogtp
; File c:\program files (x86)\microsoft visual studio 10.0\vc\include\xutility
;	COMDAT ??$_Move@PAURINGMONSTER_DATA@@PAU1@@std@@YAPAURINGMONSTER_DATA@@PAU1@00@Z
_TEXT	SEGMENT
__First$ = 8						; size = 4
__Last$ = 12						; size = 4
__Dest$ = 16						; size = 4
??$_Move@PAURINGMONSTER_DATA@@PAU1@@std@@YAPAURINGMONSTER_DATA@@PAU1@00@Z PROC ; std::_Move<RINGMONSTER_DATA *,RINGMONSTER_DATA *>, COMDAT

; 2533 : 	{	// move [_First, _Last) to [_Dest, ...), unchecked

  00000	55		 push	 ebp
  00001	8b ec		 mov	 ebp, esp

; 2534 : 	return (_Move(_First, _Last,
; 2535 : 		_Dest, _Ptr_cat(_First, _Dest)));

  00003	8b 4d 08	 mov	 ecx, DWORD PTR __First$[ebp]
  00006	8b 55 0c	 mov	 edx, DWORD PTR __Last$[ebp]
  00009	8b 45 10	 mov	 eax, DWORD PTR __Dest$[ebp]
  0000c	3b ca		 cmp	 ecx, edx
  0000e	74 1c		 je	 SHORT $LN5@Move@4
  00010	56		 push	 esi
$LL7@Move@4:
  00011	8b 31		 mov	 esi, DWORD PTR [ecx]
  00013	89 30		 mov	 DWORD PTR [eax], esi
  00015	8b 71 04	 mov	 esi, DWORD PTR [ecx+4]
  00018	89 70 04	 mov	 DWORD PTR [eax+4], esi
  0001b	8b 71 08	 mov	 esi, DWORD PTR [ecx+8]
  0001e	89 70 08	 mov	 DWORD PTR [eax+8], esi
  00021	83 c1 0c	 add	 ecx, 12			; 0000000cH
  00024	83 c0 0c	 add	 eax, 12			; 0000000cH
  00027	3b ca		 cmp	 ecx, edx
  00029	75 e6		 jne	 SHORT $LL7@Move@4
  0002b	5e		 pop	 esi
$LN5@Move@4:

; 2536 : 	}

  0002c	5d		 pop	 ebp
  0002d	c3		 ret	 0
??$_Move@PAURINGMONSTER_DATA@@PAU1@@std@@YAPAURINGMONSTER_DATA@@PAU1@00@Z ENDP ; std::_Move<RINGMONSTER_DATA *,RINGMONSTER_DATA *>
_TEXT	ENDS
PUBLIC	??$_Cons_val@V?$allocator@URINGMONSTER_EVENT_TIME@@@std@@URINGMONSTER_EVENT_TIME@@ABU3@@std@@YAXAAV?$allocator@URINGMONSTER_EVENT_TIME@@@0@PAURINGMONSTER_EVENT_TIME@@ABU2@@Z ; std::_Cons_val<std::allocator<RINGMONSTER_EVENT_TIME>,RINGMONSTER_EVENT_TIME,RINGMONSTER_EVENT_TIME const &>
; Function compile flags: /Ogtp
; File c:\program files (x86)\microsoft visual studio 10.0\vc\include\xmemory
;	COMDAT ??$_Cons_val@V?$allocator@URINGMONSTER_EVENT_TIME@@@std@@URINGMONSTER_EVENT_TIME@@ABU3@@std@@YAXAAV?$allocator@URINGMONSTER_EVENT_TIME@@@0@PAURINGMONSTER_EVENT_TIME@@ABU2@@Z
_TEXT	SEGMENT
__Alval$ = 8						; size = 4
__Pdest$ = 12						; size = 4
__Src$ = 16						; size = 4
??$_Cons_val@V?$allocator@URINGMONSTER_EVENT_TIME@@@std@@URINGMONSTER_EVENT_TIME@@ABU3@@std@@YAXAAV?$allocator@URINGMONSTER_EVENT_TIME@@@0@PAURINGMONSTER_EVENT_TIME@@ABU2@@Z PROC ; std::_Cons_val<std::allocator<RINGMONSTER_EVENT_TIME>,RINGMONSTER_EVENT_TIME,RINGMONSTER_EVENT_TIME const &>, COMDAT

; 279  : 	{	// construct using allocator

  00000	55		 push	 ebp
  00001	8b ec		 mov	 ebp, esp

; 280  : 	_Alval.construct(_Pdest, _STD forward<_Ty2>(_Src));

  00003	8b 45 0c	 mov	 eax, DWORD PTR __Pdest$[ebp]
  00006	85 c0		 test	 eax, eax
  00008	74 0d		 je	 SHORT $LN9@Cons_val@4
  0000a	8b 4d 10	 mov	 ecx, DWORD PTR __Src$[ebp]
  0000d	8b 11		 mov	 edx, DWORD PTR [ecx]
  0000f	89 10		 mov	 DWORD PTR [eax], edx
  00011	8b 49 04	 mov	 ecx, DWORD PTR [ecx+4]
  00014	89 48 04	 mov	 DWORD PTR [eax+4], ecx
$LN9@Cons_val@4:

; 281  : 	}

  00017	5d		 pop	 ebp
  00018	c3		 ret	 0
??$_Cons_val@V?$allocator@URINGMONSTER_EVENT_TIME@@@std@@URINGMONSTER_EVENT_TIME@@ABU3@@std@@YAXAAV?$allocator@URINGMONSTER_EVENT_TIME@@@0@PAURINGMONSTER_EVENT_TIME@@ABU2@@Z ENDP ; std::_Cons_val<std::allocator<RINGMONSTER_EVENT_TIME>,RINGMONSTER_EVENT_TIME,RINGMONSTER_EVENT_TIME const &>
_TEXT	ENDS
PUBLIC	??$_Move@PAURINGMONSTER_EVENT_TIME@@PAU1@@std@@YAPAURINGMONSTER_EVENT_TIME@@PAU1@00@Z ; std::_Move<RINGMONSTER_EVENT_TIME *,RINGMONSTER_EVENT_TIME *>
; Function compile flags: /Ogtp
; File c:\program files (x86)\microsoft visual studio 10.0\vc\include\xutility
;	COMDAT ??$_Move@PAURINGMONSTER_EVENT_TIME@@PAU1@@std@@YAPAURINGMONSTER_EVENT_TIME@@PAU1@00@Z
_TEXT	SEGMENT
__First$ = 8						; size = 4
__Last$ = 12						; size = 4
__Dest$ = 16						; size = 4
??$_Move@PAURINGMONSTER_EVENT_TIME@@PAU1@@std@@YAPAURINGMONSTER_EVENT_TIME@@PAU1@00@Z PROC ; std::_Move<RINGMONSTER_EVENT_TIME *,RINGMONSTER_EVENT_TIME *>, COMDAT

; 2533 : 	{	// move [_First, _Last) to [_Dest, ...), unchecked

  00000	55		 push	 ebp
  00001	8b ec		 mov	 ebp, esp

; 2534 : 	return (_Move(_First, _Last,
; 2535 : 		_Dest, _Ptr_cat(_First, _Dest)));

  00003	8b 4d 08	 mov	 ecx, DWORD PTR __First$[ebp]
  00006	8b 55 0c	 mov	 edx, DWORD PTR __Last$[ebp]
  00009	8b 45 10	 mov	 eax, DWORD PTR __Dest$[ebp]
  0000c	3b ca		 cmp	 ecx, edx
  0000e	74 16		 je	 SHORT $LN5@Move@5
  00010	56		 push	 esi
$LL7@Move@5:
  00011	8b 31		 mov	 esi, DWORD PTR [ecx]
  00013	89 30		 mov	 DWORD PTR [eax], esi
  00015	8b 71 04	 mov	 esi, DWORD PTR [ecx+4]
  00018	89 70 04	 mov	 DWORD PTR [eax+4], esi
  0001b	83 c1 08	 add	 ecx, 8
  0001e	83 c0 08	 add	 eax, 8
  00021	3b ca		 cmp	 ecx, edx
  00023	75 ec		 jne	 SHORT $LL7@Move@5
  00025	5e		 pop	 esi
$LN5@Move@5:

; 2536 : 	}

  00026	5d		 pop	 ebp
  00027	c3		 ret	 0
??$_Move@PAURINGMONSTER_EVENT_TIME@@PAU1@@std@@YAPAURINGMONSTER_EVENT_TIME@@PAU1@00@Z ENDP ; std::_Move<RINGMONSTER_EVENT_TIME *,RINGMONSTER_EVENT_TIME *>
_TEXT	ENDS
PUBLIC	??$_Dest_val@V?$allocator@URINGMONSTER_DATA@@@std@@URINGMONSTER_DATA@@@std@@YAXAAV?$allocator@URINGMONSTER_DATA@@@0@PAURINGMONSTER_DATA@@@Z ; std::_Dest_val<std::allocator<RINGMONSTER_DATA>,RINGMONSTER_DATA>
; Function compile flags: /Ogtp
; File c:\program files (x86)\microsoft visual studio 10.0\vc\include\xmemory
;	COMDAT ??$_Dest_val@V?$allocator@URINGMONSTER_DATA@@@std@@URINGMONSTER_DATA@@@std@@YAXAAV?$allocator@URINGMONSTER_DATA@@@0@PAURINGMONSTER_DATA@@@Z
_TEXT	SEGMENT
__Alval$ = 8						; size = 4
__Pdest$ = 12						; size = 4
??$_Dest_val@V?$allocator@URINGMONSTER_DATA@@@std@@URINGMONSTER_DATA@@@std@@YAXAAV?$allocator@URINGMONSTER_DATA@@@0@PAURINGMONSTER_DATA@@@Z PROC ; std::_Dest_val<std::allocator<RINGMONSTER_DATA>,RINGMONSTER_DATA>, COMDAT

; 287  : 	_Alval.destroy(_Pdest);
; 288  : 	}

  00000	c3		 ret	 0
??$_Dest_val@V?$allocator@URINGMONSTER_DATA@@@std@@URINGMONSTER_DATA@@@std@@YAXAAV?$allocator@URINGMONSTER_DATA@@@0@PAURINGMONSTER_DATA@@@Z ENDP ; std::_Dest_val<std::allocator<RINGMONSTER_DATA>,RINGMONSTER_DATA>
_TEXT	ENDS
PUBLIC	??$_Dest_val@V?$allocator@URINGMONSTER_EVENT_TIME@@@std@@URINGMONSTER_EVENT_TIME@@@std@@YAXAAV?$allocator@URINGMONSTER_EVENT_TIME@@@0@PAURINGMONSTER_EVENT_TIME@@@Z ; std::_Dest_val<std::allocator<RINGMONSTER_EVENT_TIME>,RINGMONSTER_EVENT_TIME>
; Function compile flags: /Ogtp
;	COMDAT ??$_Dest_val@V?$allocator@URINGMONSTER_EVENT_TIME@@@std@@URINGMONSTER_EVENT_TIME@@@std@@YAXAAV?$allocator@URINGMONSTER_EVENT_TIME@@@0@PAURINGMONSTER_EVENT_TIME@@@Z
_TEXT	SEGMENT
__Alval$ = 8						; size = 4
__Pdest$ = 12						; size = 4
??$_Dest_val@V?$allocator@URINGMONSTER_EVENT_TIME@@@std@@URINGMONSTER_EVENT_TIME@@@std@@YAXAAV?$allocator@URINGMONSTER_EVENT_TIME@@@0@PAURINGMONSTER_EVENT_TIME@@@Z PROC ; std::_Dest_val<std::allocator<RINGMONSTER_EVENT_TIME>,RINGMONSTER_EVENT_TIME>, COMDAT

; 287  : 	_Alval.destroy(_Pdest);
; 288  : 	}

  00000	c3		 ret	 0
??$_Dest_val@V?$allocator@URINGMONSTER_EVENT_TIME@@@std@@URINGMONSTER_EVENT_TIME@@@std@@YAXAAV?$allocator@URINGMONSTER_EVENT_TIME@@@0@PAURINGMONSTER_EVENT_TIME@@@Z ENDP ; std::_Dest_val<std::allocator<RINGMONSTER_EVENT_TIME>,RINGMONSTER_EVENT_TIME>
_TEXT	ENDS
PUBLIC	??$_Cons_val@V?$allocator@URINGMONSTER_DATA@@@std@@URINGMONSTER_DATA@@U3@@std@@YAXAAV?$allocator@URINGMONSTER_DATA@@@0@PAURINGMONSTER_DATA@@$$QAU2@@Z ; std::_Cons_val<std::allocator<RINGMONSTER_DATA>,RINGMONSTER_DATA,RINGMONSTER_DATA>
; Function compile flags: /Ogtp
;	COMDAT ??$_Cons_val@V?$allocator@URINGMONSTER_DATA@@@std@@URINGMONSTER_DATA@@U3@@std@@YAXAAV?$allocator@URINGMONSTER_DATA@@@0@PAURINGMONSTER_DATA@@$$QAU2@@Z
_TEXT	SEGMENT
__Alval$ = 8						; size = 4
__Pdest$ = 12						; size = 4
__Src$ = 16						; size = 4
??$_Cons_val@V?$allocator@URINGMONSTER_DATA@@@std@@URINGMONSTER_DATA@@U3@@std@@YAXAAV?$allocator@URINGMONSTER_DATA@@@0@PAURINGMONSTER_DATA@@$$QAU2@@Z PROC ; std::_Cons_val<std::allocator<RINGMONSTER_DATA>,RINGMONSTER_DATA,RINGMONSTER_DATA>, COMDAT

; 279  : 	{	// construct using allocator

  00000	55		 push	 ebp
  00001	8b ec		 mov	 ebp, esp

; 280  : 	_Alval.construct(_Pdest, _STD forward<_Ty2>(_Src));

  00003	8b 45 0c	 mov	 eax, DWORD PTR __Pdest$[ebp]
  00006	85 c0		 test	 eax, eax
  00008	74 13		 je	 SHORT $LN7@Cons_val@5
  0000a	8b 4d 10	 mov	 ecx, DWORD PTR __Src$[ebp]
  0000d	8b 11		 mov	 edx, DWORD PTR [ecx]
  0000f	89 10		 mov	 DWORD PTR [eax], edx
  00011	8b 51 04	 mov	 edx, DWORD PTR [ecx+4]
  00014	89 50 04	 mov	 DWORD PTR [eax+4], edx
  00017	8b 49 08	 mov	 ecx, DWORD PTR [ecx+8]
  0001a	89 48 08	 mov	 DWORD PTR [eax+8], ecx
$LN7@Cons_val@5:

; 281  : 	}

  0001d	5d		 pop	 ebp
  0001e	c3		 ret	 0
??$_Cons_val@V?$allocator@URINGMONSTER_DATA@@@std@@URINGMONSTER_DATA@@U3@@std@@YAXAAV?$allocator@URINGMONSTER_DATA@@@0@PAURINGMONSTER_DATA@@$$QAU2@@Z ENDP ; std::_Cons_val<std::allocator<RINGMONSTER_DATA>,RINGMONSTER_DATA,RINGMONSTER_DATA>
_TEXT	ENDS
PUBLIC	??$_Cons_val@V?$allocator@URINGMONSTER_EVENT_TIME@@@std@@URINGMONSTER_EVENT_TIME@@U3@@std@@YAXAAV?$allocator@URINGMONSTER_EVENT_TIME@@@0@PAURINGMONSTER_EVENT_TIME@@$$QAU2@@Z ; std::_Cons_val<std::allocator<RINGMONSTER_EVENT_TIME>,RINGMONSTER_EVENT_TIME,RINGMONSTER_EVENT_TIME>
; Function compile flags: /Ogtp
;	COMDAT ??$_Cons_val@V?$allocator@URINGMONSTER_EVENT_TIME@@@std@@URINGMONSTER_EVENT_TIME@@U3@@std@@YAXAAV?$allocator@URINGMONSTER_EVENT_TIME@@@0@PAURINGMONSTER_EVENT_TIME@@$$QAU2@@Z
_TEXT	SEGMENT
__Alval$ = 8						; size = 4
__Pdest$ = 12						; size = 4
__Src$ = 16						; size = 4
??$_Cons_val@V?$allocator@URINGMONSTER_EVENT_TIME@@@std@@URINGMONSTER_EVENT_TIME@@U3@@std@@YAXAAV?$allocator@URINGMONSTER_EVENT_TIME@@@0@PAURINGMONSTER_EVENT_TIME@@$$QAU2@@Z PROC ; std::_Cons_val<std::allocator<RINGMONSTER_EVENT_TIME>,RINGMONSTER_EVENT_TIME,RINGMONSTER_EVENT_TIME>, COMDAT

; 279  : 	{	// construct using allocator

  00000	55		 push	 ebp
  00001	8b ec		 mov	 ebp, esp

; 280  : 	_Alval.construct(_Pdest, _STD forward<_Ty2>(_Src));

  00003	8b 45 0c	 mov	 eax, DWORD PTR __Pdest$[ebp]
  00006	85 c0		 test	 eax, eax
  00008	74 0d		 je	 SHORT $LN7@Cons_val@6
  0000a	8b 4d 10	 mov	 ecx, DWORD PTR __Src$[ebp]
  0000d	8b 11		 mov	 edx, DWORD PTR [ecx]
  0000f	89 10		 mov	 DWORD PTR [eax], edx
  00011	8b 49 04	 mov	 ecx, DWORD PTR [ecx+4]
  00014	89 48 04	 mov	 DWORD PTR [eax+4], ecx
$LN7@Cons_val@6:

; 281  : 	}

  00017	5d		 pop	 ebp
  00018	c3		 ret	 0
??$_Cons_val@V?$allocator@URINGMONSTER_EVENT_TIME@@@std@@URINGMONSTER_EVENT_TIME@@U3@@std@@YAXAAV?$allocator@URINGMONSTER_EVENT_TIME@@@0@PAURINGMONSTER_EVENT_TIME@@$$QAU2@@Z ENDP ; std::_Cons_val<std::allocator<RINGMONSTER_EVENT_TIME>,RINGMONSTER_EVENT_TIME,RINGMONSTER_EVENT_TIME>
_TEXT	ENDS
PUBLIC	?begin@?$vector@URINGMONSTER_DATA@@V?$allocator@URINGMONSTER_DATA@@@std@@@std@@QAE?AV?$_Vector_iterator@V?$_Vector_val@URINGMONSTER_DATA@@V?$allocator@URINGMONSTER_DATA@@@std@@@std@@@2@XZ ; std::vector<RINGMONSTER_DATA,std::allocator<RINGMONSTER_DATA> >::begin
; Function compile flags: /Ogtp
; File c:\program files (x86)\microsoft visual studio 10.0\vc\include\vector
;	COMDAT ?begin@?$vector@URINGMONSTER_DATA@@V?$allocator@URINGMONSTER_DATA@@@std@@@std@@QAE?AV?$_Vector_iterator@V?$_Vector_val@URINGMONSTER_DATA@@V?$allocator@URINGMONSTER_DATA@@@std@@@std@@@2@XZ
_TEXT	SEGMENT
___$ReturnUdt$ = 8					; size = 4
?begin@?$vector@URINGMONSTER_DATA@@V?$allocator@URINGMONSTER_DATA@@@std@@@std@@QAE?AV?$_Vector_iterator@V?$_Vector_val@URINGMONSTER_DATA@@V?$allocator@URINGMONSTER_DATA@@@std@@@std@@@2@XZ PROC ; std::vector<RINGMONSTER_DATA,std::allocator<RINGMONSTER_DATA> >::begin, COMDAT
; _this$ = ecx

; 781  : 		{	// return iterator for beginning of mutable sequence

  00000	55		 push	 ebp
  00001	8b ec		 mov	 ebp, esp

; 782  : 		return (iterator(this->_Myfirst, this));

  00003	8b 09		 mov	 ecx, DWORD PTR [ecx]
  00005	8b 45 08	 mov	 eax, DWORD PTR ___$ReturnUdt$[ebp]
  00008	89 08		 mov	 DWORD PTR [eax], ecx

; 783  : 		}

  0000a	5d		 pop	 ebp
  0000b	c2 04 00	 ret	 4
?begin@?$vector@URINGMONSTER_DATA@@V?$allocator@URINGMONSTER_DATA@@@std@@@std@@QAE?AV?$_Vector_iterator@V?$_Vector_val@URINGMONSTER_DATA@@V?$allocator@URINGMONSTER_DATA@@@std@@@std@@@2@XZ ENDP ; std::vector<RINGMONSTER_DATA,std::allocator<RINGMONSTER_DATA> >::begin
_TEXT	ENDS
PUBLIC	?end@?$vector@URINGMONSTER_DATA@@V?$allocator@URINGMONSTER_DATA@@@std@@@std@@QAE?AV?$_Vector_iterator@V?$_Vector_val@URINGMONSTER_DATA@@V?$allocator@URINGMONSTER_DATA@@@std@@@std@@@2@XZ ; std::vector<RINGMONSTER_DATA,std::allocator<RINGMONSTER_DATA> >::end
; Function compile flags: /Ogtp
;	COMDAT ?end@?$vector@URINGMONSTER_DATA@@V?$allocator@URINGMONSTER_DATA@@@std@@@std@@QAE?AV?$_Vector_iterator@V?$_Vector_val@URINGMONSTER_DATA@@V?$allocator@URINGMONSTER_DATA@@@std@@@std@@@2@XZ
_TEXT	SEGMENT
___$ReturnUdt$ = 8					; size = 4
?end@?$vector@URINGMONSTER_DATA@@V?$allocator@URINGMONSTER_DATA@@@std@@@std@@QAE?AV?$_Vector_iterator@V?$_Vector_val@URINGMONSTER_DATA@@V?$allocator@URINGMONSTER_DATA@@@std@@@std@@@2@XZ PROC ; std::vector<RINGMONSTER_DATA,std::allocator<RINGMONSTER_DATA> >::end, COMDAT
; _this$ = ecx

; 791  : 		{	// return iterator for end of mutable sequence

  00000	55		 push	 ebp
  00001	8b ec		 mov	 ebp, esp

; 792  : 		return (iterator(this->_Mylast, this));

  00003	8b 49 04	 mov	 ecx, DWORD PTR [ecx+4]
  00006	8b 45 08	 mov	 eax, DWORD PTR ___$ReturnUdt$[ebp]
  00009	89 08		 mov	 DWORD PTR [eax], ecx

; 793  : 		}

  0000b	5d		 pop	 ebp
  0000c	c2 04 00	 ret	 4
?end@?$vector@URINGMONSTER_DATA@@V?$allocator@URINGMONSTER_DATA@@@std@@@std@@QAE?AV?$_Vector_iterator@V?$_Vector_val@URINGMONSTER_DATA@@V?$allocator@URINGMONSTER_DATA@@@std@@@std@@@2@XZ ENDP ; std::vector<RINGMONSTER_DATA,std::allocator<RINGMONSTER_DATA> >::end
_TEXT	ENDS
PUBLIC	?begin@?$vector@URINGMONSTER_EVENT_TIME@@V?$allocator@URINGMONSTER_EVENT_TIME@@@std@@@std@@QAE?AV?$_Vector_iterator@V?$_Vector_val@URINGMONSTER_EVENT_TIME@@V?$allocator@URINGMONSTER_EVENT_TIME@@@std@@@std@@@2@XZ ; std::vector<RINGMONSTER_EVENT_TIME,std::allocator<RINGMONSTER_EVENT_TIME> >::begin
; Function compile flags: /Ogtp
;	COMDAT ?begin@?$vector@URINGMONSTER_EVENT_TIME@@V?$allocator@URINGMONSTER_EVENT_TIME@@@std@@@std@@QAE?AV?$_Vector_iterator@V?$_Vector_val@URINGMONSTER_EVENT_TIME@@V?$allocator@URINGMONSTER_EVENT_TIME@@@std@@@std@@@2@XZ
_TEXT	SEGMENT
___$ReturnUdt$ = 8					; size = 4
?begin@?$vector@URINGMONSTER_EVENT_TIME@@V?$allocator@URINGMONSTER_EVENT_TIME@@@std@@@std@@QAE?AV?$_Vector_iterator@V?$_Vector_val@URINGMONSTER_EVENT_TIME@@V?$allocator@URINGMONSTER_EVENT_TIME@@@std@@@std@@@2@XZ PROC ; std::vector<RINGMONSTER_EVENT_TIME,std::allocator<RINGMONSTER_EVENT_TIME> >::begin, COMDAT
; _this$ = ecx

; 781  : 		{	// return iterator for beginning of mutable sequence

  00000	55		 push	 ebp
  00001	8b ec		 mov	 ebp, esp

; 782  : 		return (iterator(this->_Myfirst, this));

  00003	8b 09		 mov	 ecx, DWORD PTR [ecx]
  00005	8b 45 08	 mov	 eax, DWORD PTR ___$ReturnUdt$[ebp]
  00008	89 08		 mov	 DWORD PTR [eax], ecx

; 783  : 		}

  0000a	5d		 pop	 ebp
  0000b	c2 04 00	 ret	 4
?begin@?$vector@URINGMONSTER_EVENT_TIME@@V?$allocator@URINGMONSTER_EVENT_TIME@@@std@@@std@@QAE?AV?$_Vector_iterator@V?$_Vector_val@URINGMONSTER_EVENT_TIME@@V?$allocator@URINGMONSTER_EVENT_TIME@@@std@@@std@@@2@XZ ENDP ; std::vector<RINGMONSTER_EVENT_TIME,std::allocator<RINGMONSTER_EVENT_TIME> >::begin
_TEXT	ENDS
PUBLIC	?end@?$vector@URINGMONSTER_EVENT_TIME@@V?$allocator@URINGMONSTER_EVENT_TIME@@@std@@@std@@QAE?AV?$_Vector_iterator@V?$_Vector_val@URINGMONSTER_EVENT_TIME@@V?$allocator@URINGMONSTER_EVENT_TIME@@@std@@@std@@@2@XZ ; std::vector<RINGMONSTER_EVENT_TIME,std::allocator<RINGMONSTER_EVENT_TIME> >::end
; Function compile flags: /Ogtp
;	COMDAT ?end@?$vector@URINGMONSTER_EVENT_TIME@@V?$allocator@URINGMONSTER_EVENT_TIME@@@std@@@std@@QAE?AV?$_Vector_iterator@V?$_Vector_val@URINGMONSTER_EVENT_TIME@@V?$allocator@URINGMONSTER_EVENT_TIME@@@std@@@std@@@2@XZ
_TEXT	SEGMENT
___$ReturnUdt$ = 8					; size = 4
?end@?$vector@URINGMONSTER_EVENT_TIME@@V?$allocator@URINGMONSTER_EVENT_TIME@@@std@@@std@@QAE?AV?$_Vector_iterator@V?$_Vector_val@URINGMONSTER_EVENT_TIME@@V?$allocator@URINGMONSTER_EVENT_TIME@@@std@@@std@@@2@XZ PROC ; std::vector<RINGMONSTER_EVENT_TIME,std::allocator<RINGMONSTER_EVENT_TIME> >::end, COMDAT
; _this$ = ecx

; 791  : 		{	// return iterator for end of mutable sequence

  00000	55		 push	 ebp
  00001	8b ec		 mov	 ebp, esp

; 792  : 		return (iterator(this->_Mylast, this));

  00003	8b 49 04	 mov	 ecx, DWORD PTR [ecx+4]
  00006	8b 45 08	 mov	 eax, DWORD PTR ___$ReturnUdt$[ebp]
  00009	89 08		 mov	 DWORD PTR [eax], ecx

; 793  : 		}

  0000b	5d		 pop	 ebp
  0000c	c2 04 00	 ret	 4
?end@?$vector@URINGMONSTER_EVENT_TIME@@V?$allocator@URINGMONSTER_EVENT_TIME@@@std@@@std@@QAE?AV?$_Vector_iterator@V?$_Vector_val@URINGMONSTER_EVENT_TIME@@V?$allocator@URINGMONSTER_EVENT_TIME@@@std@@@std@@@2@XZ ENDP ; std::vector<RINGMONSTER_EVENT_TIME,std::allocator<RINGMONSTER_EVENT_TIME> >::end
_TEXT	ENDS
PUBLIC	?_Make_iter@?$vector@URINGMONSTER_DATA@@V?$allocator@URINGMONSTER_DATA@@@std@@@std@@QBE?AV?$_Vector_iterator@V?$_Vector_val@URINGMONSTER_DATA@@V?$allocator@URINGMONSTER_DATA@@@std@@@std@@@2@V?$_Vector_const_iterator@V?$_Vector_val@URINGMONSTER_DATA@@V?$allocator@URINGMONSTER_DATA@@@std@@@std@@@2@@Z ; std::vector<RINGMONSTER_DATA,std::allocator<RINGMONSTER_DATA> >::_Make_iter
; Function compile flags: /Ogtp
;	COMDAT ?_Make_iter@?$vector@URINGMONSTER_DATA@@V?$allocator@URINGMONSTER_DATA@@@std@@@std@@QBE?AV?$_Vector_iterator@V?$_Vector_val@URINGMONSTER_DATA@@V?$allocator@URINGMONSTER_DATA@@@std@@@std@@@2@V?$_Vector_const_iterator@V?$_Vector_val@URINGMONSTER_DATA@@V?$allocator@URINGMONSTER_DATA@@@std@@@std@@@2@@Z
_TEXT	SEGMENT
___$ReturnUdt$ = 8					; size = 4
__Where$ = 12						; size = 4
?_Make_iter@?$vector@URINGMONSTER_DATA@@V?$allocator@URINGMONSTER_DATA@@@std@@@std@@QBE?AV?$_Vector_iterator@V?$_Vector_val@URINGMONSTER_DATA@@V?$allocator@URINGMONSTER_DATA@@@std@@@std@@@2@V?$_Vector_const_iterator@V?$_Vector_val@URINGMONSTER_DATA@@V?$allocator@URINGMONSTER_DATA@@@std@@@std@@@2@@Z PROC ; std::vector<RINGMONSTER_DATA,std::allocator<RINGMONSTER_DATA> >::_Make_iter, COMDAT
; _this$ = ecx

; 801  : 		{	// make iterator from const_iterator

  00000	55		 push	 ebp
  00001	8b ec		 mov	 ebp, esp

; 802  : 		return (iterator(_Where._Ptr, this));

  00003	8b 45 08	 mov	 eax, DWORD PTR ___$ReturnUdt$[ebp]
  00006	8b 4d 0c	 mov	 ecx, DWORD PTR __Where$[ebp]
  00009	89 08		 mov	 DWORD PTR [eax], ecx

; 803  : 		}

  0000b	5d		 pop	 ebp
  0000c	c2 08 00	 ret	 8
?_Make_iter@?$vector@URINGMONSTER_DATA@@V?$allocator@URINGMONSTER_DATA@@@std@@@std@@QBE?AV?$_Vector_iterator@V?$_Vector_val@URINGMONSTER_DATA@@V?$allocator@URINGMONSTER_DATA@@@std@@@std@@@2@V?$_Vector_const_iterator@V?$_Vector_val@URINGMONSTER_DATA@@V?$allocator@URINGMONSTER_DATA@@@std@@@std@@@2@@Z ENDP ; std::vector<RINGMONSTER_DATA,std::allocator<RINGMONSTER_DATA> >::_Make_iter
_TEXT	ENDS
PUBLIC	?_Make_iter@?$vector@URINGMONSTER_EVENT_TIME@@V?$allocator@URINGMONSTER_EVENT_TIME@@@std@@@std@@QBE?AV?$_Vector_iterator@V?$_Vector_val@URINGMONSTER_EVENT_TIME@@V?$allocator@URINGMONSTER_EVENT_TIME@@@std@@@std@@@2@V?$_Vector_const_iterator@V?$_Vector_val@URINGMONSTER_EVENT_TIME@@V?$allocator@URINGMONSTER_EVENT_TIME@@@std@@@std@@@2@@Z ; std::vector<RINGMONSTER_EVENT_TIME,std::allocator<RINGMONSTER_EVENT_TIME> >::_Make_iter
; Function compile flags: /Ogtp
;	COMDAT ?_Make_iter@?$vector@URINGMONSTER_EVENT_TIME@@V?$allocator@URINGMONSTER_EVENT_TIME@@@std@@@std@@QBE?AV?$_Vector_iterator@V?$_Vector_val@URINGMONSTER_EVENT_TIME@@V?$allocator@URINGMONSTER_EVENT_TIME@@@std@@@std@@@2@V?$_Vector_const_iterator@V?$_Vector_val@URINGMONSTER_EVENT_TIME@@V?$allocator@URINGMONSTER_EVENT_TIME@@@std@@@std@@@2@@Z
_TEXT	SEGMENT
___$ReturnUdt$ = 8					; size = 4
__Where$ = 12						; size = 4
?_Make_iter@?$vector@URINGMONSTER_EVENT_TIME@@V?$allocator@URINGMONSTER_EVENT_TIME@@@std@@@std@@QBE?AV?$_Vector_iterator@V?$_Vector_val@URINGMONSTER_EVENT_TIME@@V?$allocator@URINGMONSTER_EVENT_TIME@@@std@@@std@@@2@V?$_Vector_const_iterator@V?$_Vector_val@URINGMONSTER_EVENT_TIME@@V?$allocator@URINGMONSTER_EVENT_TIME@@@std@@@std@@@2@@Z PROC ; std::vector<RINGMONSTER_EVENT_TIME,std::allocator<RINGMONSTER_EVENT_TIME> >::_Make_iter, COMDAT
; _this$ = ecx

; 801  : 		{	// make iterator from const_iterator

  00000	55		 push	 ebp
  00001	8b ec		 mov	 ebp, esp

; 802  : 		return (iterator(_Where._Ptr, this));

  00003	8b 45 08	 mov	 eax, DWORD PTR ___$ReturnUdt$[ebp]
  00006	8b 4d 0c	 mov	 ecx, DWORD PTR __Where$[ebp]
  00009	89 08		 mov	 DWORD PTR [eax], ecx

; 803  : 		}

  0000b	5d		 pop	 ebp
  0000c	c2 08 00	 ret	 8
?_Make_iter@?$vector@URINGMONSTER_EVENT_TIME@@V?$allocator@URINGMONSTER_EVENT_TIME@@@std@@@std@@QBE?AV?$_Vector_iterator@V?$_Vector_val@URINGMONSTER_EVENT_TIME@@V?$allocator@URINGMONSTER_EVENT_TIME@@@std@@@std@@@2@V?$_Vector_const_iterator@V?$_Vector_val@URINGMONSTER_EVENT_TIME@@V?$allocator@URINGMONSTER_EVENT_TIME@@@std@@@std@@@2@@Z ENDP ; std::vector<RINGMONSTER_EVENT_TIME,std::allocator<RINGMONSTER_EVENT_TIME> >::_Make_iter
_TEXT	ENDS
PUBLIC	??$_Destroy_range@V?$allocator@URINGMONSTER_DATA@@@std@@@std@@YAXPAURINGMONSTER_DATA@@0AAV?$allocator@URINGMONSTER_DATA@@@0@U_Nonscalar_ptr_iterator_tag@0@@Z ; std::_Destroy_range<std::allocator<RINGMONSTER_DATA> >
; Function compile flags: /Ogtp
; File c:\program files (x86)\microsoft visual studio 10.0\vc\include\xmemory
;	COMDAT ??$_Destroy_range@V?$allocator@URINGMONSTER_DATA@@@std@@@std@@YAXPAURINGMONSTER_DATA@@0AAV?$allocator@URINGMONSTER_DATA@@@0@U_Nonscalar_ptr_iterator_tag@0@@Z
_TEXT	SEGMENT
__First$ = 8						; size = 4
__Last$ = 12						; size = 4
__Al$ = 16						; size = 4
___formal$ = 20						; size = 1
??$_Destroy_range@V?$allocator@URINGMONSTER_DATA@@@std@@@std@@YAXPAURINGMONSTER_DATA@@0AAV?$allocator@URINGMONSTER_DATA@@@0@U_Nonscalar_ptr_iterator_tag@0@@Z PROC ; std::_Destroy_range<std::allocator<RINGMONSTER_DATA> >, COMDAT

; 96   : 	for (; _First != _Last; ++_First)
; 97   : 		_Dest_val(_Al, _First);
; 98   : 	}

  00000	c3		 ret	 0
??$_Destroy_range@V?$allocator@URINGMONSTER_DATA@@@std@@@std@@YAXPAURINGMONSTER_DATA@@0AAV?$allocator@URINGMONSTER_DATA@@@0@U_Nonscalar_ptr_iterator_tag@0@@Z ENDP ; std::_Destroy_range<std::allocator<RINGMONSTER_DATA> >
_TEXT	ENDS
PUBLIC	??$_Destroy_range@V?$allocator@URINGMONSTER_EVENT_TIME@@@std@@@std@@YAXPAURINGMONSTER_EVENT_TIME@@0AAV?$allocator@URINGMONSTER_EVENT_TIME@@@0@U_Nonscalar_ptr_iterator_tag@0@@Z ; std::_Destroy_range<std::allocator<RINGMONSTER_EVENT_TIME> >
; Function compile flags: /Ogtp
;	COMDAT ??$_Destroy_range@V?$allocator@URINGMONSTER_EVENT_TIME@@@std@@@std@@YAXPAURINGMONSTER_EVENT_TIME@@0AAV?$allocator@URINGMONSTER_EVENT_TIME@@@0@U_Nonscalar_ptr_iterator_tag@0@@Z
_TEXT	SEGMENT
__First$ = 8						; size = 4
__Last$ = 12						; size = 4
__Al$ = 16						; size = 4
___formal$ = 20						; size = 1
??$_Destroy_range@V?$allocator@URINGMONSTER_EVENT_TIME@@@std@@@std@@YAXPAURINGMONSTER_EVENT_TIME@@0AAV?$allocator@URINGMONSTER_EVENT_TIME@@@0@U_Nonscalar_ptr_iterator_tag@0@@Z PROC ; std::_Destroy_range<std::allocator<RINGMONSTER_EVENT_TIME> >, COMDAT

; 96   : 	for (; _First != _Last; ++_First)
; 97   : 		_Dest_val(_Al, _First);
; 98   : 	}

  00000	c3		 ret	 0
??$_Destroy_range@V?$allocator@URINGMONSTER_EVENT_TIME@@@std@@@std@@YAXPAURINGMONSTER_EVENT_TIME@@0AAV?$allocator@URINGMONSTER_EVENT_TIME@@@0@U_Nonscalar_ptr_iterator_tag@0@@Z ENDP ; std::_Destroy_range<std::allocator<RINGMONSTER_EVENT_TIME> >
_TEXT	ENDS
PUBLIC	??$_Uninit_move@PAURINGMONSTER_DATA@@PAU1@V?$allocator@URINGMONSTER_DATA@@@std@@U1@@std@@YAPAURINGMONSTER_DATA@@PAU1@00AAV?$allocator@URINGMONSTER_DATA@@@0@0U_Nonscalar_ptr_iterator_tag@0@@Z ; std::_Uninit_move<RINGMONSTER_DATA *,RINGMONSTER_DATA *,std::allocator<RINGMONSTER_DATA>,RINGMONSTER_DATA>
; Function compile flags: /Ogtp
; File c:\program files (x86)\microsoft visual studio 10.0\vc\include\memory
;	COMDAT ??$_Uninit_move@PAURINGMONSTER_DATA@@PAU1@V?$allocator@URINGMONSTER_DATA@@@std@@U1@@std@@YAPAURINGMONSTER_DATA@@PAU1@00AAV?$allocator@URINGMONSTER_DATA@@@0@0U_Nonscalar_ptr_iterator_tag@0@@Z
_TEXT	SEGMENT
__First$ = 8						; size = 4
__Last$ = 12						; size = 4
__Dest$ = 16						; size = 4
__Al$ = 20						; size = 4
___formal$ = 24						; size = 4
___formal$ = 28						; size = 1
??$_Uninit_move@PAURINGMONSTER_DATA@@PAU1@V?$allocator@URINGMONSTER_DATA@@@std@@U1@@std@@YAPAURINGMONSTER_DATA@@PAU1@00AAV?$allocator@URINGMONSTER_DATA@@@0@0U_Nonscalar_ptr_iterator_tag@0@@Z PROC ; std::_Uninit_move<RINGMONSTER_DATA *,RINGMONSTER_DATA *,std::allocator<RINGMONSTER_DATA>,RINGMONSTER_DATA>, COMDAT

; 424  : 	{	// move [_First, _Last) to raw _Dest, using _Al, arbitrary type

  00000	55		 push	 ebp
  00001	8b ec		 mov	 ebp, esp
  00003	53		 push	 ebx

; 425  : 	_DEBUG_RANGE(_First, _Last);
; 426  : 	_DEBUG_POINTER(_Dest);
; 427  : 	_FwdIt _Next = _Dest;
; 428  : 
; 429  : 	_TRY_BEGIN
; 430  : 	for (; _First != _Last; ++_Dest, ++_First)

  00004	8b 5d 0c	 mov	 ebx, DWORD PTR __Last$[ebp]
  00007	56		 push	 esi
  00008	8b 75 08	 mov	 esi, DWORD PTR __First$[ebp]
  0000b	3b f3		 cmp	 esi, ebx
  0000d	74 23		 je	 SHORT $LN17@Uninit_mov
  0000f	57		 push	 edi
  00010	8b 7d 10	 mov	 edi, DWORD PTR __Dest$[ebp]
$LL6@Uninit_mov:

; 431  : 		_Cons_val(_Al, _Dest, (_Valty &&)*_First);

  00013	8b 45 14	 mov	 eax, DWORD PTR __Al$[ebp]
  00016	56		 push	 esi
  00017	57		 push	 edi
  00018	50		 push	 eax
  00019	e8 00 00 00 00	 call	 ??$_Cons_val@V?$allocator@URINGMONSTER_DATA@@@std@@URINGMONSTER_DATA@@U3@@std@@YAXAAV?$allocator@URINGMONSTER_DATA@@@0@PAURINGMONSTER_DATA@@$$QAU2@@Z ; std::_Cons_val<std::allocator<RINGMONSTER_DATA>,RINGMONSTER_DATA,RINGMONSTER_DATA>
  0001e	83 c6 0c	 add	 esi, 12			; 0000000cH
  00021	83 c4 0c	 add	 esp, 12			; 0000000cH
  00024	83 c7 0c	 add	 edi, 12			; 0000000cH
  00027	3b f3		 cmp	 esi, ebx
  00029	75 e8		 jne	 SHORT $LL6@Uninit_mov

; 432  : 	_CATCH_ALL
; 433  : 	for (; _Next != _Dest; ++_Next)
; 434  : 		_Dest_val(_Al, _Next);
; 435  : 	_RERAISE;
; 436  : 	_CATCH_END
; 437  : 	return (_Dest);

  0002b	8b c7		 mov	 eax, edi
  0002d	5f		 pop	 edi
  0002e	5e		 pop	 esi
  0002f	5b		 pop	 ebx

; 438  : 	}

  00030	5d		 pop	 ebp
  00031	c3		 ret	 0
$LN17@Uninit_mov:

; 432  : 	_CATCH_ALL
; 433  : 	for (; _Next != _Dest; ++_Next)
; 434  : 		_Dest_val(_Al, _Next);
; 435  : 	_RERAISE;
; 436  : 	_CATCH_END
; 437  : 	return (_Dest);

  00032	8b 45 10	 mov	 eax, DWORD PTR __Dest$[ebp]
  00035	5e		 pop	 esi
  00036	5b		 pop	 ebx

; 438  : 	}

  00037	5d		 pop	 ebp
  00038	c3		 ret	 0
??$_Uninit_move@PAURINGMONSTER_DATA@@PAU1@V?$allocator@URINGMONSTER_DATA@@@std@@U1@@std@@YAPAURINGMONSTER_DATA@@PAU1@00AAV?$allocator@URINGMONSTER_DATA@@@0@0U_Nonscalar_ptr_iterator_tag@0@@Z ENDP ; std::_Uninit_move<RINGMONSTER_DATA *,RINGMONSTER_DATA *,std::allocator<RINGMONSTER_DATA>,RINGMONSTER_DATA>
_TEXT	ENDS
PUBLIC	??$_Uninit_move@PAURINGMONSTER_EVENT_TIME@@PAU1@V?$allocator@URINGMONSTER_EVENT_TIME@@@std@@U1@@std@@YAPAURINGMONSTER_EVENT_TIME@@PAU1@00AAV?$allocator@URINGMONSTER_EVENT_TIME@@@0@0U_Nonscalar_ptr_iterator_tag@0@@Z ; std::_Uninit_move<RINGMONSTER_EVENT_TIME *,RINGMONSTER_EVENT_TIME *,std::allocator<RINGMONSTER_EVENT_TIME>,RINGMONSTER_EVENT_TIME>
; Function compile flags: /Ogtp
;	COMDAT ??$_Uninit_move@PAURINGMONSTER_EVENT_TIME@@PAU1@V?$allocator@URINGMONSTER_EVENT_TIME@@@std@@U1@@std@@YAPAURINGMONSTER_EVENT_TIME@@PAU1@00AAV?$allocator@URINGMONSTER_EVENT_TIME@@@0@0U_Nonscalar_ptr_iterator_tag@0@@Z
_TEXT	SEGMENT
__First$ = 8						; size = 4
__Last$ = 12						; size = 4
__Dest$ = 16						; size = 4
__Al$ = 20						; size = 4
___formal$ = 24						; size = 4
___formal$ = 28						; size = 1
??$_Uninit_move@PAURINGMONSTER_EVENT_TIME@@PAU1@V?$allocator@URINGMONSTER_EVENT_TIME@@@std@@U1@@std@@YAPAURINGMONSTER_EVENT_TIME@@PAU1@00AAV?$allocator@URINGMONSTER_EVENT_TIME@@@0@0U_Nonscalar_ptr_iterator_tag@0@@Z PROC ; std::_Uninit_move<RINGMONSTER_EVENT_TIME *,RINGMONSTER_EVENT_TIME *,std::allocator<RINGMONSTER_EVENT_TIME>,RINGMONSTER_EVENT_TIME>, COMDAT

; 424  : 	{	// move [_First, _Last) to raw _Dest, using _Al, arbitrary type

  00000	55		 push	 ebp
  00001	8b ec		 mov	 ebp, esp
  00003	53		 push	 ebx

; 425  : 	_DEBUG_RANGE(_First, _Last);
; 426  : 	_DEBUG_POINTER(_Dest);
; 427  : 	_FwdIt _Next = _Dest;
; 428  : 
; 429  : 	_TRY_BEGIN
; 430  : 	for (; _First != _Last; ++_Dest, ++_First)

  00004	8b 5d 0c	 mov	 ebx, DWORD PTR __Last$[ebp]
  00007	56		 push	 esi
  00008	8b 75 08	 mov	 esi, DWORD PTR __First$[ebp]
  0000b	3b f3		 cmp	 esi, ebx
  0000d	74 23		 je	 SHORT $LN17@Uninit_mov@2
  0000f	57		 push	 edi
  00010	8b 7d 10	 mov	 edi, DWORD PTR __Dest$[ebp]
$LL6@Uninit_mov@2:

; 431  : 		_Cons_val(_Al, _Dest, (_Valty &&)*_First);

  00013	8b 45 14	 mov	 eax, DWORD PTR __Al$[ebp]
  00016	56		 push	 esi
  00017	57		 push	 edi
  00018	50		 push	 eax
  00019	e8 00 00 00 00	 call	 ??$_Cons_val@V?$allocator@URINGMONSTER_EVENT_TIME@@@std@@URINGMONSTER_EVENT_TIME@@U3@@std@@YAXAAV?$allocator@URINGMONSTER_EVENT_TIME@@@0@PAURINGMONSTER_EVENT_TIME@@$$QAU2@@Z ; std::_Cons_val<std::allocator<RINGMONSTER_EVENT_TIME>,RINGMONSTER_EVENT_TIME,RINGMONSTER_EVENT_TIME>
  0001e	83 c6 08	 add	 esi, 8
  00021	83 c4 0c	 add	 esp, 12			; 0000000cH
  00024	83 c7 08	 add	 edi, 8
  00027	3b f3		 cmp	 esi, ebx
  00029	75 e8		 jne	 SHORT $LL6@Uninit_mov@2

; 432  : 	_CATCH_ALL
; 433  : 	for (; _Next != _Dest; ++_Next)
; 434  : 		_Dest_val(_Al, _Next);
; 435  : 	_RERAISE;
; 436  : 	_CATCH_END
; 437  : 	return (_Dest);

  0002b	8b c7		 mov	 eax, edi
  0002d	5f		 pop	 edi
  0002e	5e		 pop	 esi
  0002f	5b		 pop	 ebx

; 438  : 	}

  00030	5d		 pop	 ebp
  00031	c3		 ret	 0
$LN17@Uninit_mov@2:

; 432  : 	_CATCH_ALL
; 433  : 	for (; _Next != _Dest; ++_Next)
; 434  : 		_Dest_val(_Al, _Next);
; 435  : 	_RERAISE;
; 436  : 	_CATCH_END
; 437  : 	return (_Dest);

  00032	8b 45 10	 mov	 eax, DWORD PTR __Dest$[ebp]
  00035	5e		 pop	 esi
  00036	5b		 pop	 ebx

; 438  : 	}

  00037	5d		 pop	 ebp
  00038	c3		 ret	 0
??$_Uninit_move@PAURINGMONSTER_EVENT_TIME@@PAU1@V?$allocator@URINGMONSTER_EVENT_TIME@@@std@@U1@@std@@YAPAURINGMONSTER_EVENT_TIME@@PAU1@00AAV?$allocator@URINGMONSTER_EVENT_TIME@@@0@0U_Nonscalar_ptr_iterator_tag@0@@Z ENDP ; std::_Uninit_move<RINGMONSTER_EVENT_TIME *,RINGMONSTER_EVENT_TIME *,std::allocator<RINGMONSTER_EVENT_TIME>,RINGMONSTER_EVENT_TIME>
_TEXT	ENDS
PUBLIC	??_C@_0DP@FPIHCFEB@?$FLRing?5Event?$FN?5?9?5Monster?5Start?5Pos@ ; `string'
PUBLIC	??_C@_0CN@EBKICF@?$FLRing?5Event?$FN?5?9?5Error?5?3?5No?5Monste@ ; `string'
PUBLIC	?StartEvent@CRingAttackEvent@@QAEXXZ		; CRingAttackEvent::StartEvent
EXTRN	__imp__LeaveCriticalSection@4:PROC
EXTRN	__imp__EnterCriticalSection@4:PROC
;	COMDAT ??_C@_0DP@FPIHCFEB@?$FLRing?5Event?$FN?5?9?5Monster?5Start?5Pos@
; File c:\program files (x86)\microsoft visual studio 10.0\vc\include\vector
CONST	SEGMENT
??_C@_0DP@FPIHCFEB@?$FLRing?5Event?$FN?5?9?5Monster?5Start?5Pos@ DB '[Rin'
	DB	'g Event] - Monster Start Position MapNumber:%d, X:%d, Y:%d', 00H ; `string'
CONST	ENDS
;	COMDAT ??_C@_0CN@EBKICF@?$FLRing?5Event?$FN?5?9?5Error?5?3?5No?5Monste@
CONST	SEGMENT
??_C@_0CN@EBKICF@?$FLRing?5Event?$FN?5?9?5Error?5?3?5No?5Monste@ DB '[Rin'
	DB	'g Event] - Error : No Monster Data Exist', 00H ; `string'
; Function compile flags: /Ogtp
; File c:\users\faelhs\mu-1.1\emu - gameserver sapphire s0\gameserver\ringattackevent.cpp
CONST	ENDS
;	COMDAT ?StartEvent@CRingAttackEvent@@QAEXXZ
_TEXT	SEGMENT
tv606 = -20						; size = 4
tv399 = -20						; size = 4
_this$ = -16						; size = 4
tv515 = -12						; size = 4
_iCount$155327 = -8					; size = 4
tv521 = -4						; size = 4
?StartEvent@CRingAttackEvent@@QAEXXZ PROC		; CRingAttackEvent::StartEvent, COMDAT
; _this$ = ecx

; 206  : {

  00000	55		 push	 ebp
  00001	8b ec		 mov	 ebp, esp
  00003	83 ec 14	 sub	 esp, 20			; 00000014H
  00006	53		 push	 ebx
  00007	8b d9		 mov	 ebx, ecx

; 207  : 	int iRandX;
; 208  : 	int iRandY;
; 209  : 
; 210  : 	if ( this->m_bHasData == 0 )

  00009	83 bb ec 00 00
	00 00		 cmp	 DWORD PTR [ebx+236], 0
  00010	89 5d f0	 mov	 DWORD PTR _this$[ebp], ebx
  00013	0f 84 49 01 00
	00		 je	 $LN13@StartEvent

; 211  : 	{
; 212  : 		return;
; 213  : 	}
; 214  : 
; 215  : 	for ( int i=0;i<MAX_RINGMONSTER_MAP;i++)

  00019	56		 push	 esi
  0001a	be 00 00 00 00	 mov	 esi, OFFSET _g_RingMapPosition
  0001f	57		 push	 edi
  00020	c7 45 f4 00 00
	00 00		 mov	 DWORD PTR tv515[ebp], OFFSET _g_RingEventMapNum
  00027	89 75 fc	 mov	 DWORD PTR tv521[ebp], esi
  0002a	83 c3 04	 add	 ebx, 4

; 216  : 	{
; 217  : 		int iCount = 1000;

  0002d	c7 45 f8 e8 03
	00 00		 mov	 DWORD PTR _iCount$155327[ebp], 1000 ; 000003e8H
  00034	eb 1d		 jmp	 SHORT $LN12@StartEvent
  00036	eb 08 8d a4 24
	00 00 00 00 90	 npad	 10
$LL67@StartEvent:

; 211  : 	{
; 212  : 		return;
; 213  : 	}
; 214  : 
; 215  : 	for ( int i=0;i<MAX_RINGMONSTER_MAP;i++)

  00040	8b 75 fc	 mov	 esi, DWORD PTR tv521[ebp]

; 216  : 	{
; 217  : 		int iCount = 1000;

  00043	c7 45 f8 e8 03
	00 00		 mov	 DWORD PTR _iCount$155327[ebp], 1000 ; 000003e8H
  0004a	eb 07		 jmp	 SHORT $LN12@StartEvent
  0004c	8d 64 24 00	 npad	 4
$LL68@StartEvent:
  00050	8b 75 fc	 mov	 esi, DWORD PTR tv521[ebp]
$LN12@StartEvent:

; 218  : 
; 219  : 		while ( iCount-- != 0 )

  00053	ff 4d f8	 dec	 DWORD PTR _iCount$155327[ebp]

; 220  : 		{
; 221  : 			iRandX = rand() % (g_RingMapPosition[i][2] - g_RingMapPosition[i][0]) + g_RingMapPosition[i][0];

  00056	8b 3e		 mov	 edi, DWORD PTR [esi]
  00058	e8 00 00 00 00	 call	 _rand
  0005d	8b 4e 08	 mov	 ecx, DWORD PTR [esi+8]
  00060	2b cf		 sub	 ecx, edi
  00062	99		 cdq
  00063	f7 f9		 idiv	 ecx
  00065	8d 34 17	 lea	 esi, DWORD PTR [edi+edx]

; 222  : 			iRandY = rand() % (g_RingMapPosition[i][3] - g_RingMapPosition[i][1]) + g_RingMapPosition[i][1];

  00068	8b 7d fc	 mov	 edi, DWORD PTR tv521[ebp]
  0006b	8b 57 04	 mov	 edx, DWORD PTR [edi+4]
  0006e	89 55 ec	 mov	 DWORD PTR tv606[ebp], edx
  00071	e8 00 00 00 00	 call	 _rand
  00076	8b 4f 0c	 mov	 ecx, DWORD PTR [edi+12]
  00079	2b 4d ec	 sub	 ecx, DWORD PTR tv606[ebp]
  0007c	99		 cdq
  0007d	f7 f9		 idiv	 ecx

; 223  : 
; 224  : 			if ( this->m_RingMonsterHerd[i].SetTotalInfo(g_RingEventMapNum[i] , 3, iRandX, iRandY ) != FALSE )

  0007f	8b 45 f4	 mov	 eax, DWORD PTR tv515[ebp]
  00082	8b 08		 mov	 ecx, DWORD PTR [eax]
  00084	8b fa		 mov	 edi, edx
  00086	03 7d ec	 add	 edi, DWORD PTR tv606[ebp]
  00089	8b 13		 mov	 edx, DWORD PTR [ebx]
  0008b	8b 52 04	 mov	 edx, DWORD PTR [edx+4]
  0008e	57		 push	 edi
  0008f	56		 push	 esi
  00090	6a 03		 push	 3
  00092	51		 push	 ecx
  00093	8b cb		 mov	 ecx, ebx
  00095	ff d2		 call	 edx
  00097	85 c0		 test	 eax, eax
  00099	75 07		 jne	 SHORT $LN11@StartEvent

; 218  : 
; 219  : 		while ( iCount-- != 0 )

  0009b	39 45 f8	 cmp	 DWORD PTR _iCount$155327[ebp], eax
  0009e	75 b0		 jne	 SHORT $LL68@StartEvent

; 254  : 			{
; 255  : 				if ( this->m_RingMonsterHerd[i].AddMonster(pRMD.m_iType, pRMD.m_bDoRegen, pRMD.m_bDoAttackFirst) != FALSE )

  000a0	eb 06		 jmp	 SHORT $LN66@StartEvent
$LN11@StartEvent:

; 225  : 			{
; 226  : 				break;
; 227  : 			}
; 228  : 		}
; 229  : 
; 230  : 		if ( iCount == 0 )

  000a2	83 7d f8 00	 cmp	 DWORD PTR _iCount$155327[ebp], 0
  000a6	74 39		 je	 SHORT $LN69@StartEvent
$LN66@StartEvent:

; 231  : 		{
; 232  : 
; 233  : 		}
; 234  : 		else
; 235  : 		{
; 236  : 			if ( this->m_vtMonsterAddData.empty() != false )

  000a8	8b 45 f0	 mov	 eax, DWORD PTR _this$[ebp]
  000ab	8b 88 1c 01 00
	00		 mov	 ecx, DWORD PTR [eax+284]
  000b1	3b 88 20 01 00
	00		 cmp	 ecx, DWORD PTR [eax+288]
  000b7	75 11		 jne	 SHORT $LN7@StartEvent

; 237  : 			{
; 238  : 				LogAdd(LOG_BLACK, "[Ring Event] - Error : No Monster Data Exist");

  000b9	68 00 00 00 00	 push	 OFFSET ??_C@_0CN@EBKICF@?$FLRing?5Event?$FN?5?9?5Error?5?3?5No?5Monste@
  000be	6a 00		 push	 0
  000c0	e8 00 00 00 00	 call	 ?LogAdd@@YAXW4eLogColor@@PADZZ ; LogAdd
  000c5	83 c4 08	 add	 esp, 8

; 239  : 				continue;

  000c8	eb 7b		 jmp	 SHORT $LN14@StartEvent
$LN7@StartEvent:

; 240  : 			}
; 241  : 
; 242  : 			LogAdd(LOG_BLACK, "[Ring Event] - Monster Start Position MapNumber:%d, X:%d, Y:%d",
; 243  : 				g_RingEventMapNum[i], iRandX, iRandY);

  000ca	8b 55 f4	 mov	 edx, DWORD PTR tv515[ebp]
  000cd	8b 02		 mov	 eax, DWORD PTR [edx]
  000cf	57		 push	 edi
  000d0	56		 push	 esi
  000d1	50		 push	 eax
  000d2	68 00 00 00 00	 push	 OFFSET ??_C@_0DP@FPIHCFEB@?$FLRing?5Event?$FN?5?9?5Monster?5Start?5Pos@
  000d7	6a 00		 push	 0
  000d9	e8 00 00 00 00	 call	 ?LogAdd@@YAXW4eLogColor@@PADZZ ; LogAdd
  000de	83 c4 14	 add	 esp, 20			; 00000014H
$LN69@StartEvent:

; 244  : 		}
; 245  : 
; 246  : 		EnterCriticalSection(&this->m_critMonsterAddData);

  000e1	8b 7d f0	 mov	 edi, DWORD PTR _this$[ebp]
  000e4	8d 87 2c 01 00
	00		 lea	 eax, DWORD PTR [edi+300]
  000ea	50		 push	 eax
  000eb	89 45 ec	 mov	 DWORD PTR tv399[ebp], eax
  000ee	ff 15 00 00 00
	00		 call	 DWORD PTR __imp__EnterCriticalSection@4

; 247  : 
; 248  : 		for ( std::vector<RINGMONSTER_DATA>::iterator it = this->m_vtMonsterAddData.begin() ; it != this->m_vtMonsterAddData.end() ; it++)

  000f4	8b b7 1c 01 00
	00		 mov	 esi, DWORD PTR [edi+284]
  000fa	3b b7 20 01 00
	00		 cmp	 esi, DWORD PTR [edi+288]
  00100	74 30		 je	 SHORT $LN4@StartEvent
$LL33@StartEvent:

; 249  : 		{
; 250  : 			RINGMONSTER_DATA & pRMD = *it;
; 251  : 			iCount = 100;

  00102	bf 64 00 00 00	 mov	 edi, 100		; 00000064H
$LL3@StartEvent:

; 254  : 			{
; 255  : 				if ( this->m_RingMonsterHerd[i].AddMonster(pRMD.m_iType, pRMD.m_bDoRegen, pRMD.m_bDoAttackFirst) != FALSE )

  00107	8b 46 08	 mov	 eax, DWORD PTR [esi+8]
  0010a	8b 4e 04	 mov	 ecx, DWORD PTR [esi+4]
  0010d	8b 13		 mov	 edx, DWORD PTR [ebx]
  0010f	8b 52 08	 mov	 edx, DWORD PTR [edx+8]
  00112	50		 push	 eax
  00113	8b 06		 mov	 eax, DWORD PTR [esi]
  00115	51		 push	 ecx
  00116	50		 push	 eax
  00117	8b cb		 mov	 ecx, ebx
  00119	4f		 dec	 edi
  0011a	ff d2		 call	 edx
  0011c	85 c0		 test	 eax, eax
  0011e	75 04		 jne	 SHORT $LN5@StartEvent

; 252  : 
; 253  : 			while ( iCount-- != 0 )

  00120	85 ff		 test	 edi, edi
  00122	75 e3		 jne	 SHORT $LL3@StartEvent
$LN5@StartEvent:

; 247  : 
; 248  : 		for ( std::vector<RINGMONSTER_DATA>::iterator it = this->m_vtMonsterAddData.begin() ; it != this->m_vtMonsterAddData.end() ; it++)

  00124	8b 45 f0	 mov	 eax, DWORD PTR _this$[ebp]
  00127	83 c6 0c	 add	 esi, 12			; 0000000cH
  0012a	3b b0 20 01 00
	00		 cmp	 esi, DWORD PTR [eax+288]
  00130	75 d0		 jne	 SHORT $LL33@StartEvent
$LN4@StartEvent:

; 256  : 				{
; 257  : 					break;
; 258  : 				}
; 259  : 			}
; 260  : 		}
; 261  : 
; 262  : 		LeaveCriticalSection(&this->m_critMonsterAddData);

  00132	8b 4d ec	 mov	 ecx, DWORD PTR tv399[ebp]
  00135	51		 push	 ecx
  00136	ff 15 00 00 00
	00		 call	 DWORD PTR __imp__LeaveCriticalSection@4

; 263  : 		this->m_RingMonsterHerd[i].Start();

  0013c	8b 13		 mov	 edx, DWORD PTR [ebx]
  0013e	8b 42 14	 mov	 eax, DWORD PTR [edx+20]
  00141	8b cb		 mov	 ecx, ebx
  00143	ff d0		 call	 eax
$LN14@StartEvent:

; 211  : 	{
; 212  : 		return;
; 213  : 	}
; 214  : 
; 215  : 	for ( int i=0;i<MAX_RINGMONSTER_MAP;i++)

  00145	8b 45 fc	 mov	 eax, DWORD PTR tv521[ebp]
  00148	83 45 f4 04	 add	 DWORD PTR tv515[ebp], 4
  0014c	83 c0 10	 add	 eax, 16			; 00000010H
  0014f	83 c3 4c	 add	 ebx, 76			; 0000004cH
  00152	89 45 fc	 mov	 DWORD PTR tv521[ebp], eax
  00155	3d 30 00 00 00	 cmp	 eax, OFFSET _g_RingMapPosition+48
  0015a	0f 8c e0 fe ff
	ff		 jl	 $LL67@StartEvent
  00160	5f		 pop	 edi
  00161	5e		 pop	 esi
$LN13@StartEvent:
  00162	5b		 pop	 ebx

; 264  : 	}
; 265  : }

  00163	8b e5		 mov	 esp, ebp
  00165	5d		 pop	 ebp
  00166	c3		 ret	 0
?StartEvent@CRingAttackEvent@@QAEXXZ ENDP		; CRingAttackEvent::StartEvent
_TEXT	ENDS
PUBLIC	??_C@_0EG@KMBELKMF@?$FLRing?5Event?$FN?5Sync?5Start?5Time?4?5?$FL?$CF@ ; `string'
PUBLIC	?SetState@CRingAttackEvent@@QAEXH@Z		; CRingAttackEvent::SetState
PUBLIC	??_C@_0CD@BNKPBCAA@?$FLRing?5Event?$FN?5No?5Schedule?5Time?5Da@ ; `string'
PUBLIC	__$ArrayPad$
PUBLIC	?CheckSync@CRingAttackEvent@@QAEXXZ		; CRingAttackEvent::CheckSync
EXTRN	__imp__GetTickCount@0:PROC
EXTRN	__imp__GetLocalTime@4:PROC
;	COMDAT ??_C@_0EG@KMBELKMF@?$FLRing?5Event?$FN?5Sync?5Start?5Time?4?5?$FL?$CF@
; File c:\program files (x86)\microsoft visual studio 10.0\vc\include\vector
CONST	SEGMENT
??_C@_0EG@KMBELKMF@?$FLRing?5Event?$FN?5Sync?5Start?5Time?4?5?$FL?$CF@ DB '['
	DB	'Ring Event] Sync Start Time. [%d] min remain (START HOUR:%d, '
	DB	'MIN:%d)', 00H				; `string'
CONST	ENDS
;	COMDAT ??_C@_0CD@BNKPBCAA@?$FLRing?5Event?$FN?5No?5Schedule?5Time?5Da@
CONST	SEGMENT
??_C@_0CD@BNKPBCAA@?$FLRing?5Event?$FN?5No?5Schedule?5Time?5Da@ DB '[Ring'
	DB	' Event] No Schedule Time Data', 00H		; `string'
; Function compile flags: /Ogtp
; File c:\users\faelhs\mu-1.1\emu - gameserver sapphire s0\gameserver\ringattackevent.cpp
CONST	ENDS
;	COMDAT ?CheckSync@CRingAttackEvent@@QAEXXZ
_TEXT	SEGMENT
_bTIME_CHANGED$ = -28					; size = 4
tv503 = -24						; size = 4
_it$ = -24						; size = 4
_sysTime$ = -20						; size = 16
__$ArrayPad$ = -4					; size = 4
?CheckSync@CRingAttackEvent@@QAEXXZ PROC		; CRingAttackEvent::CheckSync, COMDAT
; _this$ = ecx

; 434  : {

  00000	55		 push	 ebp
  00001	8b ec		 mov	 ebp, esp
  00003	83 ec 1c	 sub	 esp, 28			; 0000001cH
  00006	a1 00 00 00 00	 mov	 eax, DWORD PTR ___security_cookie
  0000b	33 c5		 xor	 eax, ebp
  0000d	89 45 fc	 mov	 DWORD PTR __$ArrayPad$[ebp], eax
  00010	53		 push	 ebx
  00011	8b d9		 mov	 ebx, ecx

; 435  : 	if ( this->m_vtEventTime.empty() != 0 )

  00013	8b 83 44 01 00
	00		 mov	 eax, DWORD PTR [ebx+324]
  00019	3b 83 48 01 00
	00		 cmp	 eax, DWORD PTR [ebx+328]
  0001f	75 27		 jne	 SHORT $LN16@CheckSync

; 436  : 	{
; 437  : 		LogAdd(LOG_RED,  "[Ring Event] No Schedule Time Data");

  00021	68 00 00 00 00	 push	 OFFSET ??_C@_0CD@BNKPBCAA@?$FLRing?5Event?$FN?5No?5Schedule?5Time?5Da@
  00026	6a 01		 push	 1
  00028	e8 00 00 00 00	 call	 ?LogAdd@@YAXW4eLogColor@@PADZZ ; LogAdd
  0002d	83 c4 08	 add	 esp, 8

; 438  : 		this->SetState(0);

  00030	6a 00		 push	 0
  00032	8b cb		 mov	 ecx, ebx
  00034	e8 00 00 00 00	 call	 ?SetState@CRingAttackEvent@@QAEXH@Z ; CRingAttackEvent::SetState
  00039	5b		 pop	 ebx

; 505  : }

  0003a	8b 4d fc	 mov	 ecx, DWORD PTR __$ArrayPad$[ebp]
  0003d	33 cd		 xor	 ecx, ebp
  0003f	e8 00 00 00 00	 call	 @__security_check_cookie@4
  00044	8b e5		 mov	 esp, ebp
  00046	5d		 pop	 ebp
  00047	c3		 ret	 0
$LN16@CheckSync:
  00048	56		 push	 esi
  00049	57		 push	 edi

; 439  : 
; 440  : 		return;
; 441  : 	}
; 442  : 
; 443  : 	SYSTEMTIME sysTime;
; 444  : 	GetLocalTime(&sysTime);

  0004a	8d 4d ec	 lea	 ecx, DWORD PTR _sysTime$[ebp]
  0004d	51		 push	 ecx
  0004e	ff 15 00 00 00
	00		 call	 DWORD PTR __imp__GetLocalTime@4

; 445  : 
; 446  : 	int iMIN_HOUR = 24;
; 447  : 	int iMIN_MINUTE = 60;
; 448  : 	BOOL bTIME_CHANGED = FALSE;
; 449  : 	std::vector<RINGMONSTER_EVENT_TIME>::iterator it;
; 450  : 	for ( it = this->m_vtEventTime.begin(); it != this->m_vtEventTime.end() ; it++ )

  00054	8b 83 44 01 00
	00		 mov	 eax, DWORD PTR [ebx+324]
  0005a	be 18 00 00 00	 mov	 esi, 24			; 00000018H
  0005f	8d 7e 24	 lea	 edi, DWORD PTR [esi+36]
  00062	c7 45 e4 00 00
	00 00		 mov	 DWORD PTR _bTIME_CHANGED$[ebp], 0
  00069	3b 83 48 01 00
	00		 cmp	 eax, DWORD PTR [ebx+328]
  0006f	74 54		 je	 SHORT $LN99@CheckSync

; 462  : 			}
; 463  : 		}
; 464  : 	}
; 465  : 
; 466  : 	if ( bTIME_CHANGED == FALSE )

  00071	0f b7 4d f4	 movzx	 ecx, WORD PTR _sysTime$[ebp+8]
  00075	8b d1		 mov	 edx, ecx
  00077	c1 e2 04	 shl	 edx, 4
  0007a	2b d1		 sub	 edx, ecx
  0007c	0f b7 4d f6	 movzx	 ecx, WORD PTR _sysTime$[ebp+10]
  00080	8d 14 91	 lea	 edx, DWORD PTR [ecx+edx*4]
  00083	89 55 e8	 mov	 DWORD PTR tv503[ebp], edx
$LL37@CheckSync:

; 451  : 	//for ( std::vector<RINGMONSTER_EVENT_TIME>::iterator it = this->m_vtEventTime.begin(); it != this->m_vtEventTime.end() ; it++ )
; 452  : 	{
; 453  : 		RINGMONSTER_EVENT_TIME & pRET = *it;
; 454  : 
; 455  : 		if ( (sysTime.wHour * 60 + sysTime.wMinute) < (pRET.m_iHour * 60 + pRET.m_iMinute ))

  00086	8b 08		 mov	 ecx, DWORD PTR [eax]
  00088	8b d1		 mov	 edx, ecx
  0008a	c1 e2 04	 shl	 edx, 4
  0008d	2b d1		 sub	 edx, ecx
  0008f	8b 48 04	 mov	 ecx, DWORD PTR [eax+4]
  00092	8d 0c 91	 lea	 ecx, DWORD PTR [ecx+edx*4]
  00095	39 4d e8	 cmp	 DWORD PTR tv503[ebp], ecx
  00098	7d 1a		 jge	 SHORT $LN14@CheckSync

; 456  : 		{
; 457  : 			if ( (iMIN_HOUR * 60 + iMIN_MINUTE) > (pRET.m_iHour * 60 + pRET.m_iMinute) )

  0009a	8b d6		 mov	 edx, esi
  0009c	c1 e2 04	 shl	 edx, 4
  0009f	2b d6		 sub	 edx, esi
  000a1	8d 14 97	 lea	 edx, DWORD PTR [edi+edx*4]
  000a4	3b d1		 cmp	 edx, ecx
  000a6	7e 0c		 jle	 SHORT $LN14@CheckSync

; 458  : 			{
; 459  : 				bTIME_CHANGED = TRUE;
; 460  : 				iMIN_HOUR = pRET.m_iHour;

  000a8	8b 30		 mov	 esi, DWORD PTR [eax]

; 461  : 				iMIN_MINUTE = pRET.m_iMinute;

  000aa	8b 78 04	 mov	 edi, DWORD PTR [eax+4]
  000ad	c7 45 e4 01 00
	00 00		 mov	 DWORD PTR _bTIME_CHANGED$[ebp], 1
$LN14@CheckSync:

; 445  : 
; 446  : 	int iMIN_HOUR = 24;
; 447  : 	int iMIN_MINUTE = 60;
; 448  : 	BOOL bTIME_CHANGED = FALSE;
; 449  : 	std::vector<RINGMONSTER_EVENT_TIME>::iterator it;
; 450  : 	for ( it = this->m_vtEventTime.begin(); it != this->m_vtEventTime.end() ; it++ )

  000b4	83 c0 08	 add	 eax, 8
  000b7	3b 83 48 01 00
	00		 cmp	 eax, DWORD PTR [ebx+328]
  000bd	75 c7		 jne	 SHORT $LL37@CheckSync

; 462  : 			}
; 463  : 		}
; 464  : 	}
; 465  : 
; 466  : 	if ( bTIME_CHANGED == FALSE )

  000bf	83 7d e4 00	 cmp	 DWORD PTR _bTIME_CHANGED$[ebp], 0
  000c3	75 55		 jne	 SHORT $LN101@CheckSync
$LN99@CheckSync:

; 467  : 	{
; 468  : 		it = this->m_vtEventTime.begin();

  000c5	8b 8b 44 01 00
	00		 mov	 ecx, DWORD PTR [ebx+324]

; 469  : 		iMIN_HOUR = 24;

  000cb	be 18 00 00 00	 mov	 esi, 24			; 00000018H
  000d0	89 4d e8	 mov	 DWORD PTR _it$[ebp], ecx

; 470  : 		iMIN_MINUTE = 60;

  000d3	8d 7e 24	 lea	 edi, DWORD PTR [esi+36]

; 471  : 
; 472  : 		for ( ; it != this->m_vtEventTime.end() ; it++ )

  000d6	3b 8b 48 01 00
	00		 cmp	 ecx, DWORD PTR [ebx+328]
  000dc	74 3c		 je	 SHORT $LN101@CheckSync
  000de	8b ff		 npad	 2
$LL72@CheckSync:

; 473  : 		{
; 474  : 			RINGMONSTER_EVENT_TIME & pRET = *it;
; 475  : 
; 476  : 			if ( (iMIN_HOUR * 60 + iMIN_MINUTE) > (pRET.m_iHour * 60 + pRET.m_iMinute) )

  000e0	8b 01		 mov	 eax, DWORD PTR [ecx]
  000e2	8b 49 04	 mov	 ecx, DWORD PTR [ecx+4]
  000e5	8b d0		 mov	 edx, eax
  000e7	c1 e2 04	 shl	 edx, 4
  000ea	2b d0		 sub	 edx, eax
  000ec	8d 0c 91	 lea	 ecx, DWORD PTR [ecx+edx*4]
  000ef	8b d6		 mov	 edx, esi
  000f1	c1 e2 04	 shl	 edx, 4
  000f4	2b d6		 sub	 edx, esi
  000f6	8d 14 97	 lea	 edx, DWORD PTR [edi+edx*4]
  000f9	3b d1		 cmp	 edx, ecx

; 477  : 			{
; 478  : 				bTIME_CHANGED = 2;
; 479  : 				iMIN_HOUR = pRET.m_iHour;
; 480  : 				iMIN_MINUTE = pRET.m_iMinute;

  000fb	8b 4d e8	 mov	 ecx, DWORD PTR _it$[ebp]
  000fe	7e 0c		 jle	 SHORT $LN8@CheckSync
  00100	8b 79 04	 mov	 edi, DWORD PTR [ecx+4]
  00103	c7 45 e4 02 00
	00 00		 mov	 DWORD PTR _bTIME_CHANGED$[ebp], 2
  0010a	8b f0		 mov	 esi, eax
$LN8@CheckSync:

; 471  : 
; 472  : 		for ( ; it != this->m_vtEventTime.end() ; it++ )

  0010c	83 c1 08	 add	 ecx, 8
  0010f	89 4d e8	 mov	 DWORD PTR _it$[ebp], ecx
  00112	3b 8b 48 01 00
	00		 cmp	 ecx, DWORD PTR [ebx+328]
  00118	75 c6		 jne	 SHORT $LL72@CheckSync
$LN101@CheckSync:

; 481  : 			}
; 482  : 		}
; 483  : 	}
; 484  : 
; 485  : 	switch ( bTIME_CHANGED )

  0011a	8b 45 e4	 mov	 eax, DWORD PTR _bTIME_CHANGED$[ebp]
  0011d	48		 dec	 eax
  0011e	74 39		 je	 SHORT $LN3@CheckSync
  00120	48		 dec	 eax
  00121	74 29		 je	 SHORT $LN2@CheckSync

; 493  : 		default:
; 494  : 			LogAdd(LOG_RED,  "[Ring Event] No Schedule Time Data");

  00123	68 00 00 00 00	 push	 OFFSET ??_C@_0CD@BNKPBCAA@?$FLRing?5Event?$FN?5No?5Schedule?5Time?5Da@
  00128	6a 01		 push	 1
  0012a	e8 00 00 00 00	 call	 ?LogAdd@@YAXW4eLogColor@@PADZZ ; LogAdd
  0012f	83 c4 08	 add	 esp, 8

; 495  : 			this->SetState(0);

  00132	6a 00		 push	 0
  00134	8b cb		 mov	 ecx, ebx
  00136	e8 00 00 00 00	 call	 ?SetState@CRingAttackEvent@@QAEXH@Z ; CRingAttackEvent::SetState
  0013b	5f		 pop	 edi
  0013c	5e		 pop	 esi
  0013d	5b		 pop	 ebx

; 505  : }

  0013e	8b 4d fc	 mov	 ecx, DWORD PTR __$ArrayPad$[ebp]
  00141	33 cd		 xor	 ecx, ebp
  00143	e8 00 00 00 00	 call	 @__security_check_cookie@4
  00148	8b e5		 mov	 esp, ebp
  0014a	5d		 pop	 ebp
  0014b	c3		 ret	 0
$LN2@CheckSync:

; 489  : 			break;
; 490  : 		case 2:
; 491  : 			this->m_iTIME_MSEC_REMAIN = (((iMIN_HOUR + 24) * 60 * 60 + iMIN_MINUTE * 60) - (sysTime.wHour * 60 * 60 + sysTime.wMinute * 60 + sysTime.wSecond)) * 1000;

  0014c	0f b7 4d f4	 movzx	 ecx, WORD PTR _sysTime$[ebp+8]
  00150	8b c6		 mov	 eax, esi
  00152	2b c1		 sub	 eax, ecx
  00154	83 c0 18	 add	 eax, 24			; 00000018H

; 492  : 			break;

  00157	eb 08		 jmp	 SHORT $LN105@CheckSync
$LN3@CheckSync:

; 486  : 	{
; 487  : 		case 1:
; 488  : 			this->m_iTIME_MSEC_REMAIN = ((iMIN_HOUR * 60 * 60 + iMIN_MINUTE * 60) - (sysTime.wHour * 60 * 60 + sysTime.wMinute * 60 + sysTime.wSecond)) * 1000;

  00159	0f b7 4d f4	 movzx	 ecx, WORD PTR _sysTime$[ebp+8]
  0015d	8b c6		 mov	 eax, esi
  0015f	2b c1		 sub	 eax, ecx
$LN105@CheckSync:
  00161	0f b7 4d f6	 movzx	 ecx, WORD PTR _sysTime$[ebp+10]
  00165	8b d0		 mov	 edx, eax
  00167	c1 e2 04	 shl	 edx, 4
  0016a	2b d0		 sub	 edx, eax
  0016c	03 d2		 add	 edx, edx
  0016e	8d 04 12	 lea	 eax, DWORD PTR [edx+edx]
  00171	2b c1		 sub	 eax, ecx
  00173	03 c7		 add	 eax, edi
  00175	8b d0		 mov	 edx, eax
  00177	c1 e2 04	 shl	 edx, 4
  0017a	2b d0		 sub	 edx, eax
  0017c	0f b7 45 f8	 movzx	 eax, WORD PTR _sysTime$[ebp+12]
  00180	03 d2		 add	 edx, edx
  00182	03 d2		 add	 edx, edx
  00184	2b d0		 sub	 edx, eax
  00186	69 d2 e8 03 00
	00		 imul	 edx, 1000		; 000003e8H
  0018c	89 93 f4 00 00
	00		 mov	 DWORD PTR [ebx+244], edx

; 496  : 			return;
; 497  : 	}
; 498  : 
; 499  : 	this->m_iTIME_TICK_COUNT = GetTickCount();

  00192	ff 15 00 00 00
	00		 call	 DWORD PTR __imp__GetTickCount@0
  00198	89 83 04 01 00
	00		 mov	 DWORD PTR [ebx+260], eax

; 500  : 
; 501  : 	LogAdd(LOG_BLACK, "[Ring Event] Sync Start Time. [%d] min remain (START HOUR:%d, MIN:%d)",
; 502  : 		this->m_iTIME_MSEC_REMAIN/60000, iMIN_HOUR, iMIN_MINUTE);

  0019e	b8 73 b2 e7 45	 mov	 eax, 1172812403		; 45e7b273H
  001a3	f7 ab f4 00 00
	00		 imul	 DWORD PTR [ebx+244]
  001a9	c1 fa 0e	 sar	 edx, 14			; 0000000eH
  001ac	57		 push	 edi
  001ad	8b ca		 mov	 ecx, edx
  001af	c1 e9 1f	 shr	 ecx, 31			; 0000001fH
  001b2	56		 push	 esi
  001b3	03 ca		 add	 ecx, edx
  001b5	51		 push	 ecx
  001b6	68 00 00 00 00	 push	 OFFSET ??_C@_0EG@KMBELKMF@?$FLRing?5Event?$FN?5Sync?5Start?5Time?4?5?$FL?$CF@
  001bb	6a 00		 push	 0
  001bd	e8 00 00 00 00	 call	 ?LogAdd@@YAXW4eLogColor@@PADZZ ; LogAdd

; 503  : 
; 504  : 	this->m_iTIME_NOTIFY_COUNT = this->m_iTIME_MIN_OPEN;

  001c2	8b 93 f8 00 00
	00		 mov	 edx, DWORD PTR [ebx+248]

; 505  : }

  001c8	8b 4d fc	 mov	 ecx, DWORD PTR __$ArrayPad$[ebp]
  001cb	83 c4 14	 add	 esp, 20			; 00000014H
  001ce	5f		 pop	 edi
  001cf	5e		 pop	 esi
  001d0	89 93 08 01 00
	00		 mov	 DWORD PTR [ebx+264], edx
  001d6	33 cd		 xor	 ecx, ebp
  001d8	5b		 pop	 ebx
  001d9	e8 00 00 00 00	 call	 @__security_check_cookie@4
  001de	8b e5		 mov	 esp, ebp
  001e0	5d		 pop	 ebp
  001e1	c3		 ret	 0
?CheckSync@CRingAttackEvent@@QAEXXZ ENDP		; CRingAttackEvent::CheckSync
_TEXT	ENDS
PUBLIC	?SetState_Closed@CRingAttackEvent@@QAEXXZ	; CRingAttackEvent::SetState_Closed
; Function compile flags: /Ogtp
;	COMDAT ?SetState_Closed@CRingAttackEvent@@QAEXXZ
_TEXT	SEGMENT
?SetState_Closed@CRingAttackEvent@@QAEXXZ PROC		; CRingAttackEvent::SetState_Closed, COMDAT
; _this$ = ecx

; 706  : {

  00000	56		 push	 esi
  00001	8b f1		 mov	 esi, ecx

; 707  : 	this->StopEvent();

  00003	e8 00 00 00 00	 call	 ?StopEvent@CRingAttackEvent@@QAEXXZ ; CRingAttackEvent::StopEvent

; 708  : 
; 709  : 	if ( this->m_bDoEvent )

  00008	83 be e8 00 00
	00 00		 cmp	 DWORD PTR [esi+232], 0

; 710  : 	{
; 711  : 		this->CheckSync();

  0000f	8b ce		 mov	 ecx, esi
  00011	74 06		 je	 SHORT $LN2@SetState_C
  00013	5e		 pop	 esi
  00014	e9 00 00 00 00	 jmp	 ?CheckSync@CRingAttackEvent@@QAEXXZ ; CRingAttackEvent::CheckSync
$LN2@SetState_C:

; 712  : 	}
; 713  : 	else
; 714  : 	{
; 715  : 		this->SetState(0);

  00019	6a 00		 push	 0
  0001b	e8 00 00 00 00	 call	 ?SetState@CRingAttackEvent@@QAEXH@Z ; CRingAttackEvent::SetState
  00020	5e		 pop	 esi

; 716  : 	}
; 717  : }

  00021	c3		 ret	 0
?SetState_Closed@CRingAttackEvent@@QAEXXZ ENDP		; CRingAttackEvent::SetState_Closed
_TEXT	ENDS
PUBLIC	?SetState_Playing@CRingAttackEvent@@QAEXXZ	; CRingAttackEvent::SetState_Playing
; Function compile flags: /Ogtp
;	COMDAT ?SetState_Playing@CRingAttackEvent@@QAEXXZ
_TEXT	SEGMENT
?SetState_Playing@CRingAttackEvent@@QAEXXZ PROC		; CRingAttackEvent::SetState_Playing, COMDAT
; _this$ = ecx

; 722  : 	this->m_iTIME_MSEC_REMAIN = this->m_iTIME_MIN_PLAY * 60 * 1000;

  00000	8b 81 fc 00 00
	00		 mov	 eax, DWORD PTR [ecx+252]
  00006	69 c0 60 ea 00
	00		 imul	 eax, 60000		; 0000ea60H
  0000c	89 81 f4 00 00
	00		 mov	 DWORD PTR [ecx+244], eax

; 723  : 	this->StartEvent();

  00012	e9 00 00 00 00	 jmp	 ?StartEvent@CRingAttackEvent@@QAEXXZ ; CRingAttackEvent::StartEvent
?SetState_Playing@CRingAttackEvent@@QAEXXZ ENDP		; CRingAttackEvent::SetState_Playing
_TEXT	ENDS
PUBLIC	??$_Destroy_range@V?$allocator@URINGMONSTER_DATA@@@std@@@std@@YAXPAURINGMONSTER_DATA@@0AAV?$allocator@URINGMONSTER_DATA@@@0@@Z ; std::_Destroy_range<std::allocator<RINGMONSTER_DATA> >
; Function compile flags: /Ogtp
; File c:\program files (x86)\microsoft visual studio 10.0\vc\include\xmemory
;	COMDAT ??$_Destroy_range@V?$allocator@URINGMONSTER_DATA@@@std@@@std@@YAXPAURINGMONSTER_DATA@@0AAV?$allocator@URINGMONSTER_DATA@@@0@@Z
_TEXT	SEGMENT
__First$ = 8						; size = 4
__Last$ = 12						; size = 4
__Al$ = 16						; size = 4
??$_Destroy_range@V?$allocator@URINGMONSTER_DATA@@@std@@@std@@YAXPAURINGMONSTER_DATA@@0AAV?$allocator@URINGMONSTER_DATA@@@0@@Z PROC ; std::_Destroy_range<std::allocator<RINGMONSTER_DATA> >, COMDAT

; 88   : 	_Destroy_range(_First, _Last, _Al, _Ptr_cat(_First, _Last));
; 89   : 	}

  00000	c3		 ret	 0
??$_Destroy_range@V?$allocator@URINGMONSTER_DATA@@@std@@@std@@YAXPAURINGMONSTER_DATA@@0AAV?$allocator@URINGMONSTER_DATA@@@0@@Z ENDP ; std::_Destroy_range<std::allocator<RINGMONSTER_DATA> >
_TEXT	ENDS
PUBLIC	??$_Destroy_range@V?$allocator@URINGMONSTER_EVENT_TIME@@@std@@@std@@YAXPAURINGMONSTER_EVENT_TIME@@0AAV?$allocator@URINGMONSTER_EVENT_TIME@@@0@@Z ; std::_Destroy_range<std::allocator<RINGMONSTER_EVENT_TIME> >
; Function compile flags: /Ogtp
;	COMDAT ??$_Destroy_range@V?$allocator@URINGMONSTER_EVENT_TIME@@@std@@@std@@YAXPAURINGMONSTER_EVENT_TIME@@0AAV?$allocator@URINGMONSTER_EVENT_TIME@@@0@@Z
_TEXT	SEGMENT
__First$ = 8						; size = 4
__Last$ = 12						; size = 4
__Al$ = 16						; size = 4
??$_Destroy_range@V?$allocator@URINGMONSTER_EVENT_TIME@@@std@@@std@@YAXPAURINGMONSTER_EVENT_TIME@@0AAV?$allocator@URINGMONSTER_EVENT_TIME@@@0@@Z PROC ; std::_Destroy_range<std::allocator<RINGMONSTER_EVENT_TIME> >, COMDAT

; 88   : 	_Destroy_range(_First, _Last, _Al, _Ptr_cat(_First, _Last));
; 89   : 	}

  00000	c3		 ret	 0
??$_Destroy_range@V?$allocator@URINGMONSTER_EVENT_TIME@@@std@@@std@@YAXPAURINGMONSTER_EVENT_TIME@@0AAV?$allocator@URINGMONSTER_EVENT_TIME@@@0@@Z ENDP ; std::_Destroy_range<std::allocator<RINGMONSTER_EVENT_TIME> >
_TEXT	ENDS
PUBLIC	??$_Uninitialized_move@PAURINGMONSTER_DATA@@PAU1@V?$allocator@URINGMONSTER_DATA@@@std@@@std@@YAPAURINGMONSTER_DATA@@PAU1@00AAV?$allocator@URINGMONSTER_DATA@@@0@@Z ; std::_Uninitialized_move<RINGMONSTER_DATA *,RINGMONSTER_DATA *,std::allocator<RINGMONSTER_DATA> >
; Function compile flags: /Ogtp
; File c:\program files (x86)\microsoft visual studio 10.0\vc\include\memory
;	COMDAT ??$_Uninitialized_move@PAURINGMONSTER_DATA@@PAU1@V?$allocator@URINGMONSTER_DATA@@@std@@@std@@YAPAURINGMONSTER_DATA@@PAU1@00AAV?$allocator@URINGMONSTER_DATA@@@0@@Z
_TEXT	SEGMENT
__Cat$158911 = -4					; size = 1
__First$ = 8						; size = 4
__Last$ = 12						; size = 4
__Dest$ = 16						; size = 4
__Al$ = 20						; size = 4
??$_Uninitialized_move@PAURINGMONSTER_DATA@@PAU1@V?$allocator@URINGMONSTER_DATA@@@std@@@std@@YAPAURINGMONSTER_DATA@@PAU1@00AAV?$allocator@URINGMONSTER_DATA@@@0@@Z PROC ; std::_Uninitialized_move<RINGMONSTER_DATA *,RINGMONSTER_DATA *,std::allocator<RINGMONSTER_DATA> >, COMDAT

; 469  : 	{	// move [_First, _Last) to raw _Dest, using _Al

  00000	55		 push	 ebp
  00001	8b ec		 mov	 ebp, esp
  00003	51		 push	 ecx

; 470  : 	return (_Uninit_move(_First, _Last, _Dest, _Al,
; 471  : 		_Val_type(_First), _Ptr_cat(_First, _Dest)));

  00004	8b 45 fc	 mov	 eax, DWORD PTR __Cat$158911[ebp]
  00007	8b 4d 14	 mov	 ecx, DWORD PTR __Al$[ebp]
  0000a	8b 55 10	 mov	 edx, DWORD PTR __Dest$[ebp]
  0000d	50		 push	 eax
  0000e	8b 45 0c	 mov	 eax, DWORD PTR __Last$[ebp]
  00011	6a 00		 push	 0
  00013	51		 push	 ecx
  00014	8b 4d 08	 mov	 ecx, DWORD PTR __First$[ebp]
  00017	52		 push	 edx
  00018	50		 push	 eax
  00019	51		 push	 ecx
  0001a	e8 00 00 00 00	 call	 ??$_Uninit_move@PAURINGMONSTER_DATA@@PAU1@V?$allocator@URINGMONSTER_DATA@@@std@@U1@@std@@YAPAURINGMONSTER_DATA@@PAU1@00AAV?$allocator@URINGMONSTER_DATA@@@0@0U_Nonscalar_ptr_iterator_tag@0@@Z ; std::_Uninit_move<RINGMONSTER_DATA *,RINGMONSTER_DATA *,std::allocator<RINGMONSTER_DATA>,RINGMONSTER_DATA>
  0001f	83 c4 18	 add	 esp, 24			; 00000018H

; 472  : 	}

  00022	8b e5		 mov	 esp, ebp
  00024	5d		 pop	 ebp
  00025	c3		 ret	 0
??$_Uninitialized_move@PAURINGMONSTER_DATA@@PAU1@V?$allocator@URINGMONSTER_DATA@@@std@@@std@@YAPAURINGMONSTER_DATA@@PAU1@00AAV?$allocator@URINGMONSTER_DATA@@@0@@Z ENDP ; std::_Uninitialized_move<RINGMONSTER_DATA *,RINGMONSTER_DATA *,std::allocator<RINGMONSTER_DATA> >
_TEXT	ENDS
PUBLIC	??$_Uninitialized_move@PAURINGMONSTER_EVENT_TIME@@PAU1@V?$allocator@URINGMONSTER_EVENT_TIME@@@std@@@std@@YAPAURINGMONSTER_EVENT_TIME@@PAU1@00AAV?$allocator@URINGMONSTER_EVENT_TIME@@@0@@Z ; std::_Uninitialized_move<RINGMONSTER_EVENT_TIME *,RINGMONSTER_EVENT_TIME *,std::allocator<RINGMONSTER_EVENT_TIME> >
; Function compile flags: /Ogtp
;	COMDAT ??$_Uninitialized_move@PAURINGMONSTER_EVENT_TIME@@PAU1@V?$allocator@URINGMONSTER_EVENT_TIME@@@std@@@std@@YAPAURINGMONSTER_EVENT_TIME@@PAU1@00AAV?$allocator@URINGMONSTER_EVENT_TIME@@@0@@Z
_TEXT	SEGMENT
__Cat$158921 = -4					; size = 1
__First$ = 8						; size = 4
__Last$ = 12						; size = 4
__Dest$ = 16						; size = 4
__Al$ = 20						; size = 4
??$_Uninitialized_move@PAURINGMONSTER_EVENT_TIME@@PAU1@V?$allocator@URINGMONSTER_EVENT_TIME@@@std@@@std@@YAPAURINGMONSTER_EVENT_TIME@@PAU1@00AAV?$allocator@URINGMONSTER_EVENT_TIME@@@0@@Z PROC ; std::_Uninitialized_move<RINGMONSTER_EVENT_TIME *,RINGMONSTER_EVENT_TIME *,std::allocator<RINGMONSTER_EVENT_TIME> >, COMDAT

; 469  : 	{	// move [_First, _Last) to raw _Dest, using _Al

  00000	55		 push	 ebp
  00001	8b ec		 mov	 ebp, esp
  00003	51		 push	 ecx

; 470  : 	return (_Uninit_move(_First, _Last, _Dest, _Al,
; 471  : 		_Val_type(_First), _Ptr_cat(_First, _Dest)));

  00004	8b 45 fc	 mov	 eax, DWORD PTR __Cat$158921[ebp]
  00007	8b 4d 14	 mov	 ecx, DWORD PTR __Al$[ebp]
  0000a	8b 55 10	 mov	 edx, DWORD PTR __Dest$[ebp]
  0000d	50		 push	 eax
  0000e	8b 45 0c	 mov	 eax, DWORD PTR __Last$[ebp]
  00011	6a 00		 push	 0
  00013	51		 push	 ecx
  00014	8b 4d 08	 mov	 ecx, DWORD PTR __First$[ebp]
  00017	52		 push	 edx
  00018	50		 push	 eax
  00019	51		 push	 ecx
  0001a	e8 00 00 00 00	 call	 ??$_Uninit_move@PAURINGMONSTER_EVENT_TIME@@PAU1@V?$allocator@URINGMONSTER_EVENT_TIME@@@std@@U1@@std@@YAPAURINGMONSTER_EVENT_TIME@@PAU1@00AAV?$allocator@URINGMONSTER_EVENT_TIME@@@0@0U_Nonscalar_ptr_iterator_tag@0@@Z ; std::_Uninit_move<RINGMONSTER_EVENT_TIME *,RINGMONSTER_EVENT_TIME *,std::allocator<RINGMONSTER_EVENT_TIME>,RINGMONSTER_EVENT_TIME>
  0001f	83 c4 18	 add	 esp, 24			; 00000018H

; 472  : 	}

  00022	8b e5		 mov	 esp, ebp
  00024	5d		 pop	 ebp
  00025	c3		 ret	 0
??$_Uninitialized_move@PAURINGMONSTER_EVENT_TIME@@PAU1@V?$allocator@URINGMONSTER_EVENT_TIME@@@std@@@std@@YAPAURINGMONSTER_EVENT_TIME@@PAU1@00AAV?$allocator@URINGMONSTER_EVENT_TIME@@@0@@Z ENDP ; std::_Uninitialized_move<RINGMONSTER_EVENT_TIME *,RINGMONSTER_EVENT_TIME *,std::allocator<RINGMONSTER_EVENT_TIME> >
; Function compile flags: /Ogtp
; File c:\users\faelhs\mu-1.1\emu - gameserver sapphire s0\gameserver\ringattackevent.cpp
_TEXT	ENDS
;	COMDAT ?SetState@CRingAttackEvent@@QAEXH@Z
_TEXT	SEGMENT
_iSTATE$ = 8						; size = 4
?SetState@CRingAttackEvent@@QAEXH@Z PROC		; CRingAttackEvent::SetState, COMDAT
; _this$ = ecx

; 509  : {

  00000	55		 push	 ebp
  00001	8b ec		 mov	 ebp, esp

; 510  : 	if ( this->m_iEVENT_STATE < 0 || this->m_iEVENT_STATE > 2 )

  00003	8b 81 0c 01 00
	00		 mov	 eax, DWORD PTR [ecx+268]
  00009	85 c0		 test	 eax, eax
  0000b	78 30		 js	 SHORT $LN6@SetState
  0000d	83 f8 02	 cmp	 eax, 2
  00010	7f 2b		 jg	 SHORT $LN6@SetState

; 511  : 		return;
; 512  : 
; 513  : 	this->m_iEVENT_STATE = iSTATE;

  00012	8b 45 08	 mov	 eax, DWORD PTR _iSTATE$[ebp]
  00015	89 81 0c 01 00
	00		 mov	 DWORD PTR [ecx+268], eax

; 514  : 
; 515  : 	switch ( this->m_iEVENT_STATE )

  0001b	83 e8 00	 sub	 eax, 0
  0001e	74 18		 je	 SHORT $LN3@SetState
  00020	48		 dec	 eax
  00021	74 0c		 je	 SHORT $LN2@SetState
  00023	48		 dec	 eax
  00024	75 17		 jne	 SHORT $LN6@SetState

; 522  : 			break;
; 523  : 		case 2:
; 524  : 			this->SetState_Playing();

  00026	e8 00 00 00 00	 call	 ?SetState_Playing@CRingAttackEvent@@QAEXXZ ; CRingAttackEvent::SetState_Playing

; 525  : 			break;
; 526  : 	}
; 527  : }

  0002b	5d		 pop	 ebp
  0002c	c2 04 00	 ret	 4
$LN2@SetState:

; 519  : 			break;
; 520  : 		case 1:
; 521  : 			this->SetState_Closed();

  0002f	e8 00 00 00 00	 call	 ?SetState_Closed@CRingAttackEvent@@QAEXXZ ; CRingAttackEvent::SetState_Closed

; 525  : 			break;
; 526  : 	}
; 527  : }

  00034	5d		 pop	 ebp
  00035	c2 04 00	 ret	 4
$LN3@SetState:

; 516  : 	{
; 517  : 		case 0:
; 518  : 			this->SetState_None();

  00038	e8 00 00 00 00	 call	 ?SetState_None@CRingAttackEvent@@QAEXXZ ; CRingAttackEvent::SetState_None
$LN6@SetState:

; 525  : 			break;
; 526  : 	}
; 527  : }

  0003d	5d		 pop	 ebp
  0003e	c2 04 00	 ret	 4
?SetState@CRingAttackEvent@@QAEXH@Z ENDP		; CRingAttackEvent::SetState
_TEXT	ENDS
PUBLIC	??_C@_0BN@HLGPJCPM@?$FLRing?5Event?$FN?5?9?5Event?5Started?$AA@ ; `string'
PUBLIC	??_C@_0CM@NAOFHPPM@?$FLRing?5Event?$FN?5?9?5Before?53?5minutes?5@ ; `string'
PUBLIC	__$ArrayPad$
PUBLIC	?ProcState_Closed@CRingAttackEvent@@QAEXXZ	; CRingAttackEvent::ProcState_Closed
EXTRN	?DataSendAll@@YAXPAEH@Z:PROC			; DataSendAll
;	COMDAT ??_C@_0BN@HLGPJCPM@?$FLRing?5Event?$FN?5?9?5Event?5Started?$AA@
CONST	SEGMENT
??_C@_0BN@HLGPJCPM@?$FLRing?5Event?$FN?5?9?5Event?5Started?$AA@ DB '[Ring'
	DB	' Event] - Event Started', 00H		; `string'
CONST	ENDS
;	COMDAT ??_C@_0CM@NAOFHPPM@?$FLRing?5Event?$FN?5?9?5Before?53?5minutes?5@
CONST	SEGMENT
??_C@_0CM@NAOFHPPM@?$FLRing?5Event?$FN?5?9?5Before?53?5minutes?5@ DB '[Ri'
	DB	'ng Event] - Before 3 minutes - Advertise', 00H ; `string'
; Function compile flags: /Ogtp
CONST	ENDS
;	COMDAT ?ProcState_Closed@CRingAttackEvent@@QAEXXZ
_TEXT	SEGMENT
_pMsg$155782 = -268					; size = 6
_pMsg$155776 = -268					; size = 6
_szTemp$155781 = -260					; size = 256
_szTemp$155775 = -260					; size = 256
__$ArrayPad$ = -4					; size = 4
?ProcState_Closed@CRingAttackEvent@@QAEXXZ PROC		; CRingAttackEvent::ProcState_Closed, COMDAT
; _this$ = ecx

; 543  : {

  00000	55		 push	 ebp
  00001	8b ec		 mov	 ebp, esp
  00003	81 ec 0c 01 00
	00		 sub	 esp, 268		; 0000010cH
  00009	a1 00 00 00 00	 mov	 eax, DWORD PTR ___security_cookie
  0000e	33 c5		 xor	 eax, ebp
  00010	89 45 fc	 mov	 DWORD PTR __$ArrayPad$[ebp], eax
  00013	53		 push	 ebx
  00014	56		 push	 esi
  00015	57		 push	 edi

; 544  : 	int iTICK_MSEC = GetTickCount() - this->m_iTIME_TICK_COUNT;

  00016	8b 3d 00 00 00
	00		 mov	 edi, DWORD PTR __imp__GetTickCount@0
  0001c	8b f1		 mov	 esi, ecx
  0001e	ff d7		 call	 edi
  00020	2b 86 04 01 00
	00		 sub	 eax, DWORD PTR [esi+260]

; 545  : 
; 546  : 	if ( iTICK_MSEC >= 1000 )

  00026	8b 1d 00 00 00
	00		 mov	 ebx, DWORD PTR __imp__wsprintfA
  0002c	3d e8 03 00 00	 cmp	 eax, 1000		; 000003e8H
  00031	0f 8c c6 00 00
	00		 jl	 $LN10@ProcState_

; 547  : 	{
; 548  : 		this->m_iTIME_MSEC_REMAIN -= iTICK_MSEC;

  00037	29 86 f4 00 00
	00		 sub	 DWORD PTR [esi+244], eax

; 549  : 		this->m_iTIME_TICK_COUNT = GetTickCount();

  0003d	ff d7		 call	 edi

; 550  : 
; 551  : 		if ( this->m_bDoEvent )

  0003f	83 be e8 00 00
	00 00		 cmp	 DWORD PTR [esi+232], 0
  00046	89 86 04 01 00
	00		 mov	 DWORD PTR [esi+260], eax
  0004c	0f 84 ab 00 00
	00		 je	 $LN10@ProcState_

; 552  : 		{
; 553  : 			if ( this->m_iTIME_MSEC_REMAIN <= (this->m_iTIME_MIN_OPEN * 60 * 1000 ) &&
; 554  : 				 this->m_iTIME_MSEC_REMAIN > 0 &&
; 555  : 				 (this->m_iTIME_MSEC_REMAIN / 60000 ) != this->m_iTIME_NOTIFY_COUNT )

  00052	8b 86 f8 00 00
	00		 mov	 eax, DWORD PTR [esi+248]
  00058	8b 8e f4 00 00
	00		 mov	 ecx, DWORD PTR [esi+244]
  0005e	69 c0 60 ea 00
	00		 imul	 eax, 60000		; 0000ea60H
  00064	3b c8		 cmp	 ecx, eax
  00066	0f 8f 91 00 00
	00		 jg	 $LN10@ProcState_
  0006c	85 c9		 test	 ecx, ecx
  0006e	0f 8e 89 00 00
	00		 jle	 $LN10@ProcState_
  00074	b8 73 b2 e7 45	 mov	 eax, 1172812403		; 45e7b273H
  00079	f7 e9		 imul	 ecx
  0007b	c1 fa 0e	 sar	 edx, 14			; 0000000eH
  0007e	8b c2		 mov	 eax, edx
  00080	c1 e8 1f	 shr	 eax, 31			; 0000001fH
  00083	03 c2		 add	 eax, edx
  00085	3b 86 08 01 00
	00		 cmp	 eax, DWORD PTR [esi+264]
  0008b	74 70		 je	 SHORT $LN10@ProcState_

; 556  : 			{
; 557  : 				this->m_iTIME_NOTIFY_COUNT = this->m_iTIME_MSEC_REMAIN / 60000;

  0008d	89 86 08 01 00
	00		 mov	 DWORD PTR [esi+264], eax

; 558  : 
; 559  : 				if ( (this->m_iTIME_NOTIFY_COUNT+1) == 3 )

  00093	40		 inc	 eax
  00094	83 f8 03	 cmp	 eax, 3
  00097	75 64		 jne	 SHORT $LN10@ProcState_

; 560  : 				{
; 561  : 					char szTemp[256];
; 562  : 					wsprintf(szTemp, lMsg.Get(MSGGET(4, 183)));

  00099	68 b7 04 00 00	 push	 1207			; 000004b7H
  0009e	b9 00 00 00 00	 mov	 ecx, OFFSET ?lMsg@@3VCMsg@@A ; lMsg
  000a3	e8 00 00 00 00	 call	 ?Get@CMsg@@QAEPADH@Z	; CMsg::Get
  000a8	50		 push	 eax
  000a9	8d 8d fc fe ff
	ff		 lea	 ecx, DWORD PTR _szTemp$155775[ebp]
  000af	51		 push	 ecx
  000b0	ff d3		 call	 ebx

; 563  : 					AllSendServerMsg(szTemp);

  000b2	8d 95 fc fe ff
	ff		 lea	 edx, DWORD PTR _szTemp$155775[ebp]
  000b8	52		 push	 edx
  000b9	e8 00 00 00 00	 call	 ?AllSendServerMsg@@YAXPAD@Z ; AllSendServerMsg

; 564  : 
; 565  : 					PMSG_ANS_CL_EFFECT pMsg;
; 566  : 
; 567  : 					PHeadSetB((LPBYTE)&pMsg, 0x9E, sizeof(pMsg));

  000be	6a 06		 push	 6
  000c0	8d 85 f4 fe ff
	ff		 lea	 eax, DWORD PTR _pMsg$155776[ebp]
  000c6	68 9e 00 00 00	 push	 158			; 0000009eH
  000cb	50		 push	 eax
  000cc	e8 00 00 00 00	 call	 ?PHeadSetB@@YAXPAEEH@Z	; PHeadSetB

; 568  : 					pMsg.wEffectNum = 0;
; 569  : 
; 570  : 					DataSendAll((LPBYTE)&pMsg, pMsg.h.size);

  000d1	0f b6 95 f5 fe
	ff ff		 movzx	 edx, BYTE PTR _pMsg$155776[ebp+1]
  000d8	52		 push	 edx
  000d9	8d 85 f4 fe ff
	ff		 lea	 eax, DWORD PTR _pMsg$155776[ebp]
  000df	33 c9		 xor	 ecx, ecx
  000e1	50		 push	 eax
  000e2	66 89 8d f8 fe
	ff ff		 mov	 WORD PTR _pMsg$155776[ebp+4], cx
  000e9	e8 00 00 00 00	 call	 ?DataSendAll@@YAXPAEH@Z	; DataSendAll

; 571  : 
; 572  : 					LogAdd(LOG_BLACK, "[Ring Event] - Before 3 minutes - Advertise");

  000ee	68 00 00 00 00	 push	 OFFSET ??_C@_0CM@NAOFHPPM@?$FLRing?5Event?$FN?5?9?5Before?53?5minutes?5@
  000f3	6a 00		 push	 0
  000f5	e8 00 00 00 00	 call	 ?LogAdd@@YAXW4eLogColor@@PADZZ ; LogAdd
  000fa	83 c4 28	 add	 esp, 40			; 00000028H
$LN10@ProcState_:

; 573  : 				}
; 574  : 			}
; 575  : 		}
; 576  : 	}
; 577  : 
; 578  : 	if ( this->m_iTIME_MSEC_REMAIN <= 0 )

  000fd	83 be f4 00 00
	00 00		 cmp	 DWORD PTR [esi+244], 0
  00104	0f 8f 80 00 00
	00		 jg	 $LN3@ProcState_

; 579  : 	{
; 580  : 		char szTemp[256];
; 581  : 		wsprintf(szTemp, lMsg.Get(MSGGET(4, 184)));

  0010a	68 b8 04 00 00	 push	 1208			; 000004b8H
  0010f	b9 00 00 00 00	 mov	 ecx, OFFSET ?lMsg@@3VCMsg@@A ; lMsg
  00114	e8 00 00 00 00	 call	 ?Get@CMsg@@QAEPADH@Z	; CMsg::Get
  00119	50		 push	 eax
  0011a	8d 8d fc fe ff
	ff		 lea	 ecx, DWORD PTR _szTemp$155781[ebp]
  00120	51		 push	 ecx
  00121	ff d3		 call	 ebx

; 582  : 		AllSendServerMsg(szTemp);

  00123	8d 95 fc fe ff
	ff		 lea	 edx, DWORD PTR _szTemp$155781[ebp]
  00129	52		 push	 edx
  0012a	e8 00 00 00 00	 call	 ?AllSendServerMsg@@YAXPAD@Z ; AllSendServerMsg

; 583  : 
; 584  : 		PMSG_ANS_CL_EFFECT pMsg;
; 585  : 
; 586  : 		PHeadSetB((LPBYTE)&pMsg, 0x9E, sizeof(pMsg));

  0012f	6a 06		 push	 6
  00131	8d 85 f4 fe ff
	ff		 lea	 eax, DWORD PTR _pMsg$155782[ebp]
  00137	68 9e 00 00 00	 push	 158			; 0000009eH
  0013c	50		 push	 eax
  0013d	e8 00 00 00 00	 call	 ?PHeadSetB@@YAXPAEEH@Z	; PHeadSetB

; 587  : 		pMsg.wEffectNum = 1;
; 588  : 
; 589  : 		DataSendAll((LPBYTE)&pMsg, pMsg.h.size);

  00142	0f b6 95 f5 fe
	ff ff		 movzx	 edx, BYTE PTR _pMsg$155782[ebp+1]
  00149	52		 push	 edx
  0014a	8d 85 f4 fe ff
	ff		 lea	 eax, DWORD PTR _pMsg$155782[ebp]
  00150	b9 01 00 00 00	 mov	 ecx, 1
  00155	50		 push	 eax
  00156	66 89 8d f8 fe
	ff ff		 mov	 WORD PTR _pMsg$155782[ebp+4], cx
  0015d	e8 00 00 00 00	 call	 ?DataSendAll@@YAXPAEH@Z	; DataSendAll
  00162	83 c4 20	 add	 esp, 32			; 00000020H

; 590  : 
; 591  : 		if ( this->m_bDoEvent )

  00165	83 be e8 00 00
	00 00		 cmp	 DWORD PTR [esi+232], 0

; 592  : 		{
; 593  : 			this->SetState(2);

  0016c	8b ce		 mov	 ecx, esi
  0016e	74 04		 je	 SHORT $LN2@ProcState_
  00170	6a 02		 push	 2

; 594  : 		}
; 595  : 		else

  00172	eb 02		 jmp	 SHORT $LN12@ProcState_
$LN2@ProcState_:

; 596  : 		{
; 597  : 			this->SetState(0);

  00174	6a 00		 push	 0
$LN12@ProcState_:
  00176	e8 00 00 00 00	 call	 ?SetState@CRingAttackEvent@@QAEXH@Z ; CRingAttackEvent::SetState

; 598  : 		}
; 599  : 
; 600  : 		LogAdd(LOG_BLACK, "[Ring Event] - Event Started");

  0017b	68 00 00 00 00	 push	 OFFSET ??_C@_0BN@HLGPJCPM@?$FLRing?5Event?$FN?5?9?5Event?5Started?$AA@
  00180	6a 00		 push	 0
  00182	e8 00 00 00 00	 call	 ?LogAdd@@YAXW4eLogColor@@PADZZ ; LogAdd
  00187	83 c4 08	 add	 esp, 8
$LN3@ProcState_:

; 601  : 	}
; 602  : }

  0018a	8b 4d fc	 mov	 ecx, DWORD PTR __$ArrayPad$[ebp]
  0018d	5f		 pop	 edi
  0018e	5e		 pop	 esi
  0018f	33 cd		 xor	 ecx, ebp
  00191	5b		 pop	 ebx
  00192	e8 00 00 00 00	 call	 @__security_check_cookie@4
  00197	8b e5		 mov	 esp, ebp
  00199	5d		 pop	 ebp
  0019a	c3		 ret	 0
?ProcState_Closed@CRingAttackEvent@@QAEXXZ ENDP		; CRingAttackEvent::ProcState_Closed
_TEXT	ENDS
PUBLIC	??_C@_0BL@KELOKDGN@?$FLRing?5Event?$FN?5?9?5Event?5Ended?$AA@ ; `string'
PUBLIC	??_C@_0EG@MJJALBNB@?$FLRing?5Event?$FN?5?9?5per?530?8S?5Inform?5M@ ; `string'
PUBLIC	_this$GSCopy$
PUBLIC	__$ArrayPad$
PUBLIC	?ProcState_Playing@CRingAttackEvent@@QAEXXZ	; CRingAttackEvent::ProcState_Playing
;	COMDAT ??_C@_0BL@KELOKDGN@?$FLRing?5Event?$FN?5?9?5Event?5Ended?$AA@
; File c:\users\faelhs\mu-1.1\emu - gameserver sapphire s0\gameserver\ringattackevent.h
CONST	SEGMENT
??_C@_0BL@KELOKDGN@?$FLRing?5Event?$FN?5?9?5Event?5Ended?$AA@ DB '[Ring E'
	DB	'vent] - Event Ended', 00H			; `string'
CONST	ENDS
;	COMDAT ??_C@_0EG@MJJALBNB@?$FLRing?5Event?$FN?5?9?5per?530?8S?5Inform?5M@
CONST	SEGMENT
??_C@_0EG@MJJALBNB@?$FLRing?5Event?$FN?5?9?5per?530?8S?5Inform?5M@ DB '[R'
	DB	'ing Event] - per 30''S Inform MapNumber:%d, X:%d, Y:%d, Boss '
	DB	'Live:%d', 00H				; `string'
CONST	ENDS
;	COMDAT ?s_iTIME_REMAIN@?7??ProcState_Playing@CRingAttackEvent@@QAEXXZ@4HA
_DATA	SEGMENT
?s_iTIME_REMAIN@?7??ProcState_Playing@CRingAttackEvent@@QAEXXZ@4HA DD 0ffffffffH ; `CRingAttackEvent::ProcState_Playing'::`8'::s_iTIME_REMAIN
; Function compile flags: /Ogtp
; File c:\users\faelhs\mu-1.1\emu - gameserver sapphire s0\gameserver\ringattackevent.cpp
_DATA	ENDS
;	COMDAT ?ProcState_Playing@CRingAttackEvent@@QAEXXZ
_TEXT	SEGMENT
_iRandY$155816 = -276					; size = 1
_this$GSCopy$ = -272					; size = 4
_pMsg$155822 = -268					; size = 6
_iRandX$155815 = -266					; size = 1
_szTemp$155821 = -260					; size = 256
__$ArrayPad$ = -4					; size = 4
?ProcState_Playing@CRingAttackEvent@@QAEXXZ PROC	; CRingAttackEvent::ProcState_Playing, COMDAT
; _this$ = ecx

; 606  : {

  00000	55		 push	 ebp
  00001	8b ec		 mov	 ebp, esp
  00003	81 ec 14 01 00
	00		 sub	 esp, 276		; 00000114H
  00009	a1 00 00 00 00	 mov	 eax, DWORD PTR ___security_cookie
  0000e	33 c5		 xor	 eax, ebp
  00010	89 45 fc	 mov	 DWORD PTR __$ArrayPad$[ebp], eax
  00013	53		 push	 ebx
  00014	56		 push	 esi

; 607  : 	int iTICK_MSEC = GetTickCount() - this->m_iTIME_TICK_COUNT;

  00015	8b 35 00 00 00
	00		 mov	 esi, DWORD PTR __imp__GetTickCount@0
  0001b	57		 push	 edi
  0001c	8b f9		 mov	 edi, ecx

; 663  : 			{
; 664  : 				LogAdd(LOG_BLACK, "[Ring Event] - Monster Herd Move MapNumber:%d, X:%d, Y:%d",
; 665  : 					g_RingEventMapNum[i], iRandX, iRandY);

  0001e	89 bd f0 fe ff
	ff		 mov	 DWORD PTR _this$GSCopy$[ebp], edi
  00024	ff d6		 call	 esi
  00026	2b 87 04 01 00
	00		 sub	 eax, DWORD PTR [edi+260]
  0002c	3d e8 03 00 00	 cmp	 eax, 1000		; 000003e8H
  00031	7c 26		 jl	 SHORT $LN19@ProcState_@2

; 608  : 
; 609  : 	if ( iTICK_MSEC >= 1000 )
; 610  : 	{
; 611  : 		this->m_iTIME_MSEC_REMAIN -= iTICK_MSEC;
; 612  : 		this->m_iTIME_TICK_COUNT = GetTickCount();

  00033	29 87 f4 00 00
	00		 sub	 DWORD PTR [edi+244], eax
  00039	ff d6		 call	 esi
  0003b	89 87 04 01 00
	00		 mov	 DWORD PTR [edi+260], eax

; 613  : 
; 614  : 		if ( (rand()%10) == 0 )

  00041	e8 00 00 00 00	 call	 _rand
  00046	99		 cdq
  00047	b9 0a 00 00 00	 mov	 ecx, 10			; 0000000aH
  0004c	f7 f9		 idiv	 ecx
  0004e	85 d2		 test	 edx, edx
  00050	75 07		 jne	 SHORT $LN19@ProcState_@2

; 615  : 		{
; 616  : 			this->Move();

  00052	8b cf		 mov	 ecx, edi
  00054	e8 00 00 00 00	 call	 ?Move@CRingAttackEvent@@QAEXXZ ; CRingAttackEvent::Move
$LN19@ProcState_@2:

; 617  : 		}
; 618  : 	}
; 619  : 
; 620  : 	static int s_iTIME_REMAIN = -1;
; 621  : 
; 622  : 	if ( ((this->m_iTIME_MSEC_REMAIN / 1000 ) % 30 ) == 0 && ((this->m_iTIME_MSEC_REMAIN / 1000) / 30) != s_iTIME_REMAIN  )

  00059	b8 d3 4d 62 10	 mov	 eax, 274877907		; 10624dd3H
  0005e	f7 af f4 00 00
	00		 imul	 DWORD PTR [edi+244]
  00064	c1 fa 06	 sar	 edx, 6
  00067	8b c2		 mov	 eax, edx
  00069	c1 e8 1f	 shr	 eax, 31			; 0000001fH
  0006c	03 c2		 add	 eax, edx
  0006e	99		 cdq
  0006f	b9 1e 00 00 00	 mov	 ecx, 30			; 0000001eH
  00074	f7 f9		 idiv	 ecx
  00076	85 d2		 test	 edx, edx
  00078	0f 85 5c 01 00
	00		 jne	 $LN15@ProcState_@2
  0007e	3b 05 00 00 00
	00		 cmp	 eax, DWORD PTR ?s_iTIME_REMAIN@?7??ProcState_Playing@CRingAttackEvent@@QAEXXZ@4HA
  00084	0f 84 50 01 00
	00		 je	 $LN15@ProcState_@2

; 623  : 	{
; 624  : 		s_iTIME_REMAIN = this->m_iTIME_MSEC_REMAIN / 1000 / 30;

  0008a	a3 00 00 00 00	 mov	 DWORD PTR ?s_iTIME_REMAIN@?7??ProcState_Playing@CRingAttackEvent@@QAEXXZ@4HA, eax
  0008f	be 00 00 00 00	 mov	 esi, OFFSET _g_RingEventMapNum
  00094	8d 5f 10	 lea	 ebx, DWORD PTR [edi+16]
  00097	eb 07 8d a4 24
	00 00 00 00	 npad	 9
$LL40@ProcState_@2:

; 625  : 
; 626  : 		for ( int i=0;i<MAX_RINGMONSTER_MAP;i++)
; 627  : 		{
; 628  : 			BOOL bLive = FALSE;

  000a0	33 c9		 xor	 ecx, ecx
  000a2	b8 24 0f 00 00	 mov	 eax, OFFSET ?gObj@@3PAUOBJECTSTRUCT@@A+3876
  000a7	eb 07 8d a4 24
	00 00 00 00	 npad	 9
$LL14@ProcState_@2:

; 631  : 			{
; 632  : 				if ( gObj[n].Class == 135 )

  000b0	ba 87 00 00 00	 mov	 edx, 135		; 00000087H
  000b5	66 39 90 74 f1
	ff ff		 cmp	 WORD PTR [eax-3724], dx
  000bc	75 1e		 jne	 SHORT $LN13@ProcState_@2

; 633  : 				{
; 634  : 					if ( gObj[n].m_bIsInMonsterHerd )

  000be	83 38 00	 cmp	 DWORD PTR [eax], 0
  000c1	74 19		 je	 SHORT $LN13@ProcState_@2

; 635  : 					{
; 636  : 						if ( gObj[n].Live && gObj[n].MapNumber == g_RingEventMapNum[i] )

  000c3	80 b8 3e f1 ff
	ff 00		 cmp	 BYTE PTR [eax-3778], 0
  000ca	74 10		 je	 SHORT $LN13@ProcState_@2
  000cc	0f b6 90 e5 f1
	ff ff		 movzx	 edx, BYTE PTR [eax-3611]
  000d3	3b 16		 cmp	 edx, DWORD PTR [esi]
  000d5	75 05		 jne	 SHORT $LN13@ProcState_@2

; 637  : 						{
; 638  : 							bLive = TRUE;

  000d7	b9 01 00 00 00	 mov	 ecx, 1
$LN13@ProcState_@2:

; 631  : 			{
; 632  : 				if ( gObj[n].Class == 135 )

  000dc	ba 87 00 00 00	 mov	 edx, 135		; 00000087H
  000e1	66 39 90 d8 06
	00 00		 cmp	 WORD PTR [eax+1752], dx
  000e8	75 22		 jne	 SHORT $LN34@ProcState_@2

; 633  : 				{
; 634  : 					if ( gObj[n].m_bIsInMonsterHerd )

  000ea	83 b8 64 15 00
	00 00		 cmp	 DWORD PTR [eax+5476], 0
  000f1	74 19		 je	 SHORT $LN34@ProcState_@2

; 635  : 					{
; 636  : 						if ( gObj[n].Live && gObj[n].MapNumber == g_RingEventMapNum[i] )

  000f3	80 b8 a2 06 00
	00 00		 cmp	 BYTE PTR [eax+1698], 0
  000fa	74 10		 je	 SHORT $LN34@ProcState_@2
  000fc	0f b6 90 49 07
	00 00		 movzx	 edx, BYTE PTR [eax+1865]
  00103	3b 16		 cmp	 edx, DWORD PTR [esi]
  00105	75 05		 jne	 SHORT $LN34@ProcState_@2

; 637  : 						{
; 638  : 							bLive = TRUE;

  00107	b9 01 00 00 00	 mov	 ecx, 1
$LN34@ProcState_@2:

; 631  : 			{
; 632  : 				if ( gObj[n].Class == 135 )

  0010c	ba 87 00 00 00	 mov	 edx, 135		; 00000087H
  00111	66 39 90 3c 1c
	00 00		 cmp	 WORD PTR [eax+7228], dx
  00118	75 22		 jne	 SHORT $LN35@ProcState_@2

; 633  : 				{
; 634  : 					if ( gObj[n].m_bIsInMonsterHerd )

  0011a	83 b8 c8 2a 00
	00 00		 cmp	 DWORD PTR [eax+10952], 0
  00121	74 19		 je	 SHORT $LN35@ProcState_@2

; 635  : 					{
; 636  : 						if ( gObj[n].Live && gObj[n].MapNumber == g_RingEventMapNum[i] )

  00123	80 b8 06 1c 00
	00 00		 cmp	 BYTE PTR [eax+7174], 0
  0012a	74 10		 je	 SHORT $LN35@ProcState_@2
  0012c	0f b6 90 ad 1c
	00 00		 movzx	 edx, BYTE PTR [eax+7341]
  00133	3b 16		 cmp	 edx, DWORD PTR [esi]
  00135	75 05		 jne	 SHORT $LN35@ProcState_@2

; 637  : 						{
; 638  : 							bLive = TRUE;

  00137	b9 01 00 00 00	 mov	 ecx, 1
$LN35@ProcState_@2:

; 631  : 			{
; 632  : 				if ( gObj[n].Class == 135 )

  0013c	ba 87 00 00 00	 mov	 edx, 135		; 00000087H
  00141	66 39 90 a0 31
	00 00		 cmp	 WORD PTR [eax+12704], dx
  00148	75 22		 jne	 SHORT $LN36@ProcState_@2

; 633  : 				{
; 634  : 					if ( gObj[n].m_bIsInMonsterHerd )

  0014a	83 b8 2c 40 00
	00 00		 cmp	 DWORD PTR [eax+16428], 0
  00151	74 19		 je	 SHORT $LN36@ProcState_@2

; 635  : 					{
; 636  : 						if ( gObj[n].Live && gObj[n].MapNumber == g_RingEventMapNum[i] )

  00153	80 b8 6a 31 00
	00 00		 cmp	 BYTE PTR [eax+12650], 0
  0015a	74 10		 je	 SHORT $LN36@ProcState_@2
  0015c	0f b6 90 11 32
	00 00		 movzx	 edx, BYTE PTR [eax+12817]
  00163	3b 16		 cmp	 edx, DWORD PTR [esi]
  00165	75 05		 jne	 SHORT $LN36@ProcState_@2

; 637  : 						{
; 638  : 							bLive = TRUE;

  00167	b9 01 00 00 00	 mov	 ecx, 1
$LN36@ProcState_@2:

; 631  : 			{
; 632  : 				if ( gObj[n].Class == 135 )

  0016c	ba 87 00 00 00	 mov	 edx, 135		; 00000087H
  00171	66 39 90 04 47
	00 00		 cmp	 WORD PTR [eax+18180], dx
  00178	75 22		 jne	 SHORT $LN37@ProcState_@2

; 633  : 				{
; 634  : 					if ( gObj[n].m_bIsInMonsterHerd )

  0017a	83 b8 90 55 00
	00 00		 cmp	 DWORD PTR [eax+21904], 0
  00181	74 19		 je	 SHORT $LN37@ProcState_@2

; 635  : 					{
; 636  : 						if ( gObj[n].Live && gObj[n].MapNumber == g_RingEventMapNum[i] )

  00183	80 b8 ce 46 00
	00 00		 cmp	 BYTE PTR [eax+18126], 0
  0018a	74 10		 je	 SHORT $LN37@ProcState_@2
  0018c	0f b6 90 75 47
	00 00		 movzx	 edx, BYTE PTR [eax+18293]
  00193	3b 16		 cmp	 edx, DWORD PTR [esi]
  00195	75 05		 jne	 SHORT $LN37@ProcState_@2

; 637  : 						{
; 638  : 							bLive = TRUE;

  00197	b9 01 00 00 00	 mov	 ecx, 1
$LN37@ProcState_@2:

; 625  : 
; 626  : 		for ( int i=0;i<MAX_RINGMONSTER_MAP;i++)
; 627  : 		{
; 628  : 			BOOL bLive = FALSE;

  0019c	05 f4 6a 00 00	 add	 eax, 27380		; 00006af4H

; 629  : 
; 630  : 			for ( int n=0;n<OBJ_STARTUSERINDEX;n++)

  001a1	3d 24 d3 16 02	 cmp	 eax, OFFSET ?gObj@@3PAUOBJECTSTRUCT@@A+35050276
  001a6	0f 8c 04 ff ff
	ff		 jl	 $LL14@ProcState_@2

; 639  : 						}
; 640  : 					}
; 641  : 				}
; 642  : 			}
; 643  : 
; 644  : 			LogAdd(LOG_BLACK, "[Ring Event] - per 30'S Inform MapNumber:%d, X:%d, Y:%d, Boss Live:%d",
; 645  : 				g_RingEventMapNum[i], this->m_RingMonsterHerd[i].GetX(), this->m_RingMonsterHerd[i].GetY(), bLive);

  001ac	0f b6 43 04	 movzx	 eax, BYTE PTR [ebx+4]
  001b0	8b 16		 mov	 edx, DWORD PTR [esi]
  001b2	51		 push	 ecx
  001b3	0f b6 0b	 movzx	 ecx, BYTE PTR [ebx]
  001b6	50		 push	 eax
  001b7	51		 push	 ecx
  001b8	52		 push	 edx
  001b9	68 00 00 00 00	 push	 OFFSET ??_C@_0EG@MJJALBNB@?$FLRing?5Event?$FN?5?9?5per?530?8S?5Inform?5M@
  001be	6a 00		 push	 0
  001c0	e8 00 00 00 00	 call	 ?LogAdd@@YAXW4eLogColor@@PADZZ ; LogAdd
  001c5	83 c6 04	 add	 esi, 4
  001c8	83 c4 18	 add	 esp, 24			; 00000018H
  001cb	83 c3 4c	 add	 ebx, 76			; 0000004cH
  001ce	81 fe 0c 00 00
	00		 cmp	 esi, OFFSET _g_RingEventMapNum+12
  001d4	0f 8c c6 fe ff
	ff		 jl	 $LL40@ProcState_@2
$LN15@ProcState_@2:

; 646  : 		}
; 647  : 	}
; 648  : 
; 649  : 	if ( this->m_iTIME_MSEC_REMAIN <= (this->m_iTIME_MONSTER_TO_DEST * 60 * 1000) && this->m_bMonsterToDest == FALSE )

  001da	8b 87 00 01 00
	00		 mov	 eax, DWORD PTR [edi+256]
  001e0	69 c0 60 ea 00
	00		 imul	 eax, 60000		; 0000ea60H
  001e6	39 87 f4 00 00
	00		 cmp	 DWORD PTR [edi+244], eax
  001ec	0f 8f a2 00 00
	00		 jg	 $LN39@ProcState_@2
  001f2	83 bf f0 00 00
	00 00		 cmp	 DWORD PTR [edi+240], 0
  001f9	0f 85 95 00 00
	00		 jne	 $LN39@ProcState_@2

; 650  : 	{
; 651  : 		
; 652  : 		for ( int i=0;i<MAX_RINGMONSTER_MAP;i++)

  001ff	33 f6		 xor	 esi, esi
  00201	83 c7 04	 add	 edi, 4
$LL7@ProcState_@2:

; 653  : 		{
; 654  : 			BYTE iRandX;
; 655  : 			BYTE iRandY;
; 656  : 			BYTE ucRAND;
; 657  : 
; 658  : 			ucRAND = rand()%4;

  00204	e8 00 00 00 00	 call	 _rand
  00209	25 03 00 00 80	 and	 eax, -2147483645	; 80000003H
  0020e	79 05		 jns	 SHORT $LN41@ProcState_@2
  00210	48		 dec	 eax
  00211	83 c8 fc	 or	 eax, -4			; fffffffcH
  00214	40		 inc	 eax
$LN41@ProcState_@2:

; 659  : 			iRandX = g_RingMapDestPosition[i][ucRAND*2];
; 660  : 			iRandY = g_RingMapDestPosition[i][ucRAND*2+1];
; 661  : 
; 662  : 			if ( this->m_RingMonsterHerd[i].MoveHerd(iRandX, iRandY) != FALSE )

  00215	8b 17		 mov	 edx, DWORD PTR [edi]
  00217	8b 52 2c	 mov	 edx, DWORD PTR [edx+44]
  0021a	0f b6 c0	 movzx	 eax, al
  0021d	03 c6		 add	 eax, esi
  0021f	03 c0		 add	 eax, eax
  00221	03 c0		 add	 eax, eax
  00223	8a 8c 00 04 00
	00 00		 mov	 cl, BYTE PTR _g_RingMapDestPosition[eax+eax+4]
  0022a	8a 9c 00 00 00
	00 00		 mov	 bl, BYTE PTR _g_RingMapDestPosition[eax+eax]
  00231	03 c0		 add	 eax, eax
  00233	88 8d ec fe ff
	ff		 mov	 BYTE PTR _iRandY$155816[ebp], cl
  00239	8b 85 ec fe ff
	ff		 mov	 eax, DWORD PTR _iRandY$155816[ebp]
  0023f	88 9d f6 fe ff
	ff		 mov	 BYTE PTR _iRandX$155815[ebp], bl
  00245	8b 8d f6 fe ff
	ff		 mov	 ecx, DWORD PTR _iRandX$155815[ebp]
  0024b	50		 push	 eax
  0024c	51		 push	 ecx
  0024d	8b cf		 mov	 ecx, edi
  0024f	ff d2		 call	 edx
  00251	85 c0		 test	 eax, eax
  00253	74 22		 je	 SHORT $LN6@ProcState_@2

; 663  : 			{
; 664  : 				LogAdd(LOG_BLACK, "[Ring Event] - Monster Herd Move MapNumber:%d, X:%d, Y:%d",
; 665  : 					g_RingEventMapNum[i], iRandX, iRandY);

  00255	0f b6 85 ec fe
	ff ff		 movzx	 eax, BYTE PTR _iRandY$155816[ebp]
  0025c	8b 96 00 00 00
	00		 mov	 edx, DWORD PTR _g_RingEventMapNum[esi]
  00262	50		 push	 eax
  00263	0f b6 cb	 movzx	 ecx, bl
  00266	51		 push	 ecx
  00267	52		 push	 edx
  00268	68 00 00 00 00	 push	 OFFSET ??_C@_0DK@PFGAPPAF@?$FLRing?5Event?$FN?5?9?5Monster?5Herd?5Move@
  0026d	6a 00		 push	 0
  0026f	e8 00 00 00 00	 call	 ?LogAdd@@YAXW4eLogColor@@PADZZ ; LogAdd
  00274	83 c4 14	 add	 esp, 20			; 00000014H
$LN6@ProcState_@2:

; 650  : 	{
; 651  : 		
; 652  : 		for ( int i=0;i<MAX_RINGMONSTER_MAP;i++)

  00277	83 c6 04	 add	 esi, 4
  0027a	83 c7 4c	 add	 edi, 76			; 0000004cH
  0027d	83 fe 0c	 cmp	 esi, 12			; 0000000cH
  00280	7c 82		 jl	 SHORT $LL7@ProcState_@2

; 666  : 			}
; 667  : 		}
; 668  : 
; 669  : 		this->m_bMonsterToDest = TRUE;

  00282	8b 85 f0 fe ff
	ff		 mov	 eax, DWORD PTR _this$GSCopy$[ebp]
  00288	c7 80 f0 00 00
	00 01 00 00 00	 mov	 DWORD PTR [eax+240], 1
  00292	8b f8		 mov	 edi, eax
$LN39@ProcState_@2:

; 670  : 	}
; 671  : 
; 672  : 	if ( this->m_iTIME_MSEC_REMAIN <= 0 )

  00294	83 bf f4 00 00
	00 00		 cmp	 DWORD PTR [edi+244], 0
  0029b	0f 8f 84 00 00
	00		 jg	 $LN3@ProcState_@2

; 673  : 	{
; 674  : 		char szTemp[256];
; 675  : 		wsprintf(szTemp, lMsg.Get(MSGGET(4, 185)));

  002a1	68 b9 04 00 00	 push	 1209			; 000004b9H
  002a6	b9 00 00 00 00	 mov	 ecx, OFFSET ?lMsg@@3VCMsg@@A ; lMsg
  002ab	e8 00 00 00 00	 call	 ?Get@CMsg@@QAEPADH@Z	; CMsg::Get
  002b0	50		 push	 eax
  002b1	8d 8d fc fe ff
	ff		 lea	 ecx, DWORD PTR _szTemp$155821[ebp]
  002b7	51		 push	 ecx
  002b8	ff 15 00 00 00
	00		 call	 DWORD PTR __imp__wsprintfA

; 676  : 		AllSendServerMsg(szTemp);

  002be	8d 95 fc fe ff
	ff		 lea	 edx, DWORD PTR _szTemp$155821[ebp]
  002c4	52		 push	 edx
  002c5	e8 00 00 00 00	 call	 ?AllSendServerMsg@@YAXPAD@Z ; AllSendServerMsg

; 677  : 
; 678  : 		PMSG_ANS_CL_EFFECT pMsg;
; 679  : 
; 680  : 		PHeadSetB((LPBYTE)&pMsg, 0x9E, sizeof(pMsg));

  002ca	6a 06		 push	 6
  002cc	8d 85 f4 fe ff
	ff		 lea	 eax, DWORD PTR _pMsg$155822[ebp]
  002d2	68 9e 00 00 00	 push	 158			; 0000009eH
  002d7	50		 push	 eax
  002d8	e8 00 00 00 00	 call	 ?PHeadSetB@@YAXPAEEH@Z	; PHeadSetB

; 681  : 		pMsg.wEffectNum = 2;
; 682  : 
; 683  : 		DataSendAll((LPBYTE)&pMsg, pMsg.h.size);

  002dd	0f b6 95 f5 fe
	ff ff		 movzx	 edx, BYTE PTR _pMsg$155822[ebp+1]
  002e4	52		 push	 edx
  002e5	8d 85 f4 fe ff
	ff		 lea	 eax, DWORD PTR _pMsg$155822[ebp]
  002eb	b9 02 00 00 00	 mov	 ecx, 2
  002f0	50		 push	 eax
  002f1	66 89 8d f8 fe
	ff ff		 mov	 WORD PTR _pMsg$155822[ebp+4], cx
  002f8	e8 00 00 00 00	 call	 ?DataSendAll@@YAXPAEH@Z	; DataSendAll
  002fd	83 c4 20	 add	 esp, 32			; 00000020H

; 684  : 
; 685  : 		if ( this->m_bDoEvent )

  00300	83 bf e8 00 00
	00 00		 cmp	 DWORD PTR [edi+232], 0

; 686  : 		{
; 687  : 			this->SetState(1);

  00307	8b cf		 mov	 ecx, edi
  00309	74 04		 je	 SHORT $LN2@ProcState_@2
  0030b	6a 01		 push	 1

; 688  : 		}
; 689  : 		else

  0030d	eb 02		 jmp	 SHORT $LN42@ProcState_@2
$LN2@ProcState_@2:

; 690  : 		{
; 691  : 			this->SetState(0);

  0030f	6a 00		 push	 0
$LN42@ProcState_@2:
  00311	e8 00 00 00 00	 call	 ?SetState@CRingAttackEvent@@QAEXH@Z ; CRingAttackEvent::SetState

; 692  : 		}
; 693  : 
; 694  : 		LogAdd(LOG_BLACK, "[Ring Event] - Event Ended");

  00316	68 00 00 00 00	 push	 OFFSET ??_C@_0BL@KELOKDGN@?$FLRing?5Event?$FN?5?9?5Event?5Ended?$AA@
  0031b	6a 00		 push	 0
  0031d	e8 00 00 00 00	 call	 ?LogAdd@@YAXW4eLogColor@@PADZZ ; LogAdd
  00322	83 c4 08	 add	 esp, 8
$LN3@ProcState_@2:

; 695  : 	}
; 696  : }

  00325	8b 4d fc	 mov	 ecx, DWORD PTR __$ArrayPad$[ebp]
  00328	5f		 pop	 edi
  00329	5e		 pop	 esi
  0032a	33 cd		 xor	 ecx, ebp
  0032c	5b		 pop	 ebx
  0032d	e8 00 00 00 00	 call	 @__security_check_cookie@4
  00332	8b e5		 mov	 esp, ebp
  00334	5d		 pop	 ebp
  00335	c3		 ret	 0
?ProcState_Playing@CRingAttackEvent@@QAEXXZ ENDP	; CRingAttackEvent::ProcState_Playing
_TEXT	ENDS
PUBLIC	??_C@_0DB@PHNKOJF@?$KB?$NL?$KB?$NM?$FLEvent?5Management?$FN?5?$FLStart?$FN?5R@ ; `string'
PUBLIC	__$ArrayPad$
PUBLIC	?Start_Menual@CRingAttackEvent@@QAEXXZ		; CRingAttackEvent::Start_Menual
;	COMDAT ??_C@_0DB@PHNKOJF@?$KB?$NL?$KB?$NM?$FLEvent?5Management?$FN?5?$FLStart?$FN?5R@
; File c:\users\faelhs\mu-1.1\emu - gameserver sapphire s0\gameserver\ringattackevent.h
CONST	SEGMENT
??_C@_0DB@PHNKOJF@?$KB?$NL?$KB?$NM?$FLEvent?5Management?$FN?5?$FLStart?$FN?5R@ DB 0a1H
	DB	0dbH, 0a1H, 0dcH, '[Event Management] [Start] RingAttack Event'
	DB	'!', 00H					; `string'
; Function compile flags: /Ogtp
; File c:\users\faelhs\mu-1.1\emu - gameserver sapphire s0\gameserver\ringattackevent.cpp
CONST	ENDS
;	COMDAT ?Start_Menual@CRingAttackEvent@@QAEXXZ
_TEXT	SEGMENT
_pMsg$ = -268						; size = 6
_szTemp$ = -260						; size = 256
__$ArrayPad$ = -4					; size = 4
?Start_Menual@CRingAttackEvent@@QAEXXZ PROC		; CRingAttackEvent::Start_Menual, COMDAT
; _this$ = ecx

; 784  : {

  00000	55		 push	 ebp
  00001	8b ec		 mov	 ebp, esp
  00003	81 ec 0c 01 00
	00		 sub	 esp, 268		; 0000010cH
  00009	a1 00 00 00 00	 mov	 eax, DWORD PTR ___security_cookie
  0000e	33 c5		 xor	 eax, ebp
  00010	89 45 fc	 mov	 DWORD PTR __$ArrayPad$[ebp], eax
  00013	56		 push	 esi
  00014	8b f1		 mov	 esi, ecx

; 785  : 	this->SetMenualStart(TRUE);

  00016	c7 86 54 01 00
	00 01 00 00 00	 mov	 DWORD PTR [esi+340], 1

; 786  : 	this->StopEvent();

  00020	e8 00 00 00 00	 call	 ?StopEvent@CRingAttackEvent@@QAEXXZ ; CRingAttackEvent::StopEvent

; 787  : 
; 788  : 	LogAdd(LOG_BLACK, "[Event Management] [Start] RingAttack Event!");

  00025	68 00 00 00 00	 push	 OFFSET ??_C@_0DB@PHNKOJF@?$KB?$NL?$KB?$NM?$FLEvent?5Management?$FN?5?$FLStart?$FN?5R@
  0002a	6a 00		 push	 0
  0002c	e8 00 00 00 00	 call	 ?LogAdd@@YAXW4eLogColor@@PADZZ ; LogAdd
  00031	83 c4 08	 add	 esp, 8

; 789  : 	this->m_iTIME_MIN_PLAY = 30;
; 790  : 
; 791  : 	char szTemp[256];
; 792  : 
; 793  : 	wsprintf(szTemp, lMsg.Get(MSGGET(4, 184)));

  00034	68 b8 04 00 00	 push	 1208			; 000004b8H
  00039	b9 00 00 00 00	 mov	 ecx, OFFSET ?lMsg@@3VCMsg@@A ; lMsg
  0003e	c7 86 fc 00 00
	00 1e 00 00 00	 mov	 DWORD PTR [esi+252], 30	; 0000001eH
  00048	e8 00 00 00 00	 call	 ?Get@CMsg@@QAEPADH@Z	; CMsg::Get
  0004d	50		 push	 eax
  0004e	8d 85 fc fe ff
	ff		 lea	 eax, DWORD PTR _szTemp$[ebp]
  00054	50		 push	 eax
  00055	ff 15 00 00 00
	00		 call	 DWORD PTR __imp__wsprintfA

; 794  : 	AllSendServerMsg(szTemp);

  0005b	8d 8d fc fe ff
	ff		 lea	 ecx, DWORD PTR _szTemp$[ebp]
  00061	51		 push	 ecx
  00062	e8 00 00 00 00	 call	 ?AllSendServerMsg@@YAXPAD@Z ; AllSendServerMsg

; 795  : 
; 796  : 	PMSG_ANS_CL_EFFECT pMsg;
; 797  : 
; 798  : 	PHeadSetB((LPBYTE)&pMsg, 0x9E, sizeof(pMsg));

  00067	6a 06		 push	 6
  00069	8d 95 f4 fe ff
	ff		 lea	 edx, DWORD PTR _pMsg$[ebp]
  0006f	68 9e 00 00 00	 push	 158			; 0000009eH
  00074	52		 push	 edx
  00075	e8 00 00 00 00	 call	 ?PHeadSetB@@YAXPAEEH@Z	; PHeadSetB

; 799  : 	pMsg.wEffectNum = 1;
; 800  : 
; 801  : 	DataSendAll((LPBYTE)&pMsg, pMsg.h.size);

  0007a	0f b6 8d f5 fe
	ff ff		 movzx	 ecx, BYTE PTR _pMsg$[ebp+1]
  00081	51		 push	 ecx
  00082	8d 95 f4 fe ff
	ff		 lea	 edx, DWORD PTR _pMsg$[ebp]
  00088	b8 01 00 00 00	 mov	 eax, 1
  0008d	52		 push	 edx
  0008e	66 89 85 f8 fe
	ff ff		 mov	 WORD PTR _pMsg$[ebp+4], ax
  00095	e8 00 00 00 00	 call	 ?DataSendAll@@YAXPAEH@Z	; DataSendAll
  0009a	83 c4 20	 add	 esp, 32			; 00000020H

; 802  : 	this->SetState(2);

  0009d	6a 02		 push	 2
  0009f	8b ce		 mov	 ecx, esi
  000a1	e8 00 00 00 00	 call	 ?SetState@CRingAttackEvent@@QAEXH@Z ; CRingAttackEvent::SetState

; 803  : }

  000a6	8b 4d fc	 mov	 ecx, DWORD PTR __$ArrayPad$[ebp]
  000a9	33 cd		 xor	 ecx, ebp
  000ab	5e		 pop	 esi
  000ac	e8 00 00 00 00	 call	 @__security_check_cookie@4
  000b1	8b e5		 mov	 esp, ebp
  000b3	5d		 pop	 ebp
  000b4	c3		 ret	 0
?Start_Menual@CRingAttackEvent@@QAEXXZ ENDP		; CRingAttackEvent::Start_Menual
_TEXT	ENDS
PUBLIC	?_Destroy@?$vector@URINGMONSTER_DATA@@V?$allocator@URINGMONSTER_DATA@@@std@@@std@@IAEXPAURINGMONSTER_DATA@@0@Z ; std::vector<RINGMONSTER_DATA,std::allocator<RINGMONSTER_DATA> >::_Destroy
; Function compile flags: /Ogtp
; File c:\program files (x86)\microsoft visual studio 10.0\vc\include\vector
;	COMDAT ?_Destroy@?$vector@URINGMONSTER_DATA@@V?$allocator@URINGMONSTER_DATA@@@std@@@std@@IAEXPAURINGMONSTER_DATA@@0@Z
_TEXT	SEGMENT
__First$ = 8						; size = 4
__Last$ = 12						; size = 4
?_Destroy@?$vector@URINGMONSTER_DATA@@V?$allocator@URINGMONSTER_DATA@@@std@@@std@@IAEXPAURINGMONSTER_DATA@@0@Z PROC ; std::vector<RINGMONSTER_DATA,std::allocator<RINGMONSTER_DATA> >::_Destroy, COMDAT
; _this$ = ecx

; 1270 : 		_Destroy_range(_First, _Last, this->_Alval);
; 1271 : 		}

  00000	c2 08 00	 ret	 8
?_Destroy@?$vector@URINGMONSTER_DATA@@V?$allocator@URINGMONSTER_DATA@@@std@@@std@@IAEXPAURINGMONSTER_DATA@@0@Z ENDP ; std::vector<RINGMONSTER_DATA,std::allocator<RINGMONSTER_DATA> >::_Destroy
_TEXT	ENDS
PUBLIC	?_Tidy@?$vector@URINGMONSTER_DATA@@V?$allocator@URINGMONSTER_DATA@@@std@@@std@@IAEXXZ ; std::vector<RINGMONSTER_DATA,std::allocator<RINGMONSTER_DATA> >::_Tidy
; Function compile flags: /Ogtp
;	COMDAT ?_Tidy@?$vector@URINGMONSTER_DATA@@V?$allocator@URINGMONSTER_DATA@@@std@@@std@@IAEXXZ
_TEXT	SEGMENT
?_Tidy@?$vector@URINGMONSTER_DATA@@V?$allocator@URINGMONSTER_DATA@@@std@@@std@@IAEXXZ PROC ; std::vector<RINGMONSTER_DATA,std::allocator<RINGMONSTER_DATA> >::_Tidy, COMDAT
; _this$ = ecx

; 1301 : 		{	// free all storage

  00000	56		 push	 esi
  00001	8b f1		 mov	 esi, ecx

; 1302 : 		if (this->_Myfirst != 0)

  00003	8b 06		 mov	 eax, DWORD PTR [esi]
  00005	85 c0		 test	 eax, eax
  00007	74 09		 je	 SHORT $LN6@Tidy

; 1303 : 			{	// something to free, destroy and deallocate it
; 1304 : 			this->_Orphan_all();
; 1305 : 			_Destroy(this->_Myfirst, this->_Mylast);
; 1306 : 			this->_Alval.deallocate(this->_Myfirst,
; 1307 : 				this->_Myend - this->_Myfirst);

  00009	50		 push	 eax
  0000a	e8 00 00 00 00	 call	 ??3@YAXPAX@Z		; operator delete
  0000f	83 c4 04	 add	 esp, 4
$LN6@Tidy:

; 1308 : 			}
; 1309 : 		this->_Myfirst = 0;

  00012	c7 06 00 00 00
	00		 mov	 DWORD PTR [esi], 0

; 1310 : 		this->_Mylast = 0;

  00018	c7 46 04 00 00
	00 00		 mov	 DWORD PTR [esi+4], 0

; 1311 : 		this->_Myend = 0;

  0001f	c7 46 08 00 00
	00 00		 mov	 DWORD PTR [esi+8], 0
  00026	5e		 pop	 esi

; 1312 : 		}

  00027	c3		 ret	 0
?_Tidy@?$vector@URINGMONSTER_DATA@@V?$allocator@URINGMONSTER_DATA@@@std@@@std@@IAEXXZ ENDP ; std::vector<RINGMONSTER_DATA,std::allocator<RINGMONSTER_DATA> >::_Tidy
_TEXT	ENDS
PUBLIC	?_Destroy@?$vector@URINGMONSTER_EVENT_TIME@@V?$allocator@URINGMONSTER_EVENT_TIME@@@std@@@std@@IAEXPAURINGMONSTER_EVENT_TIME@@0@Z ; std::vector<RINGMONSTER_EVENT_TIME,std::allocator<RINGMONSTER_EVENT_TIME> >::_Destroy
; Function compile flags: /Ogtp
;	COMDAT ?_Destroy@?$vector@URINGMONSTER_EVENT_TIME@@V?$allocator@URINGMONSTER_EVENT_TIME@@@std@@@std@@IAEXPAURINGMONSTER_EVENT_TIME@@0@Z
_TEXT	SEGMENT
__First$ = 8						; size = 4
__Last$ = 12						; size = 4
?_Destroy@?$vector@URINGMONSTER_EVENT_TIME@@V?$allocator@URINGMONSTER_EVENT_TIME@@@std@@@std@@IAEXPAURINGMONSTER_EVENT_TIME@@0@Z PROC ; std::vector<RINGMONSTER_EVENT_TIME,std::allocator<RINGMONSTER_EVENT_TIME> >::_Destroy, COMDAT
; _this$ = ecx

; 1270 : 		_Destroy_range(_First, _Last, this->_Alval);
; 1271 : 		}

  00000	c2 08 00	 ret	 8
?_Destroy@?$vector@URINGMONSTER_EVENT_TIME@@V?$allocator@URINGMONSTER_EVENT_TIME@@@std@@@std@@IAEXPAURINGMONSTER_EVENT_TIME@@0@Z ENDP ; std::vector<RINGMONSTER_EVENT_TIME,std::allocator<RINGMONSTER_EVENT_TIME> >::_Destroy
_TEXT	ENDS
PUBLIC	?_Tidy@?$vector@URINGMONSTER_EVENT_TIME@@V?$allocator@URINGMONSTER_EVENT_TIME@@@std@@@std@@IAEXXZ ; std::vector<RINGMONSTER_EVENT_TIME,std::allocator<RINGMONSTER_EVENT_TIME> >::_Tidy
; Function compile flags: /Ogtp
;	COMDAT ?_Tidy@?$vector@URINGMONSTER_EVENT_TIME@@V?$allocator@URINGMONSTER_EVENT_TIME@@@std@@@std@@IAEXXZ
_TEXT	SEGMENT
?_Tidy@?$vector@URINGMONSTER_EVENT_TIME@@V?$allocator@URINGMONSTER_EVENT_TIME@@@std@@@std@@IAEXXZ PROC ; std::vector<RINGMONSTER_EVENT_TIME,std::allocator<RINGMONSTER_EVENT_TIME> >::_Tidy, COMDAT
; _this$ = ecx

; 1301 : 		{	// free all storage

  00000	56		 push	 esi
  00001	8b f1		 mov	 esi, ecx

; 1302 : 		if (this->_Myfirst != 0)

  00003	8b 06		 mov	 eax, DWORD PTR [esi]
  00005	85 c0		 test	 eax, eax
  00007	74 09		 je	 SHORT $LN6@Tidy@2

; 1303 : 			{	// something to free, destroy and deallocate it
; 1304 : 			this->_Orphan_all();
; 1305 : 			_Destroy(this->_Myfirst, this->_Mylast);
; 1306 : 			this->_Alval.deallocate(this->_Myfirst,
; 1307 : 				this->_Myend - this->_Myfirst);

  00009	50		 push	 eax
  0000a	e8 00 00 00 00	 call	 ??3@YAXPAX@Z		; operator delete
  0000f	83 c4 04	 add	 esp, 4
$LN6@Tidy@2:

; 1308 : 			}
; 1309 : 		this->_Myfirst = 0;

  00012	c7 06 00 00 00
	00		 mov	 DWORD PTR [esi], 0

; 1310 : 		this->_Mylast = 0;

  00018	c7 46 04 00 00
	00 00		 mov	 DWORD PTR [esi+4], 0

; 1311 : 		this->_Myend = 0;

  0001f	c7 46 08 00 00
	00 00		 mov	 DWORD PTR [esi+8], 0
  00026	5e		 pop	 esi

; 1312 : 		}

  00027	c3		 ret	 0
?_Tidy@?$vector@URINGMONSTER_EVENT_TIME@@V?$allocator@URINGMONSTER_EVENT_TIME@@@std@@@std@@IAEXXZ ENDP ; std::vector<RINGMONSTER_EVENT_TIME,std::allocator<RINGMONSTER_EVENT_TIME> >::_Tidy
_TEXT	ENDS
PUBLIC	??$_Umove@PAURINGMONSTER_DATA@@@?$vector@URINGMONSTER_DATA@@V?$allocator@URINGMONSTER_DATA@@@std@@@std@@IAEPAURINGMONSTER_DATA@@PAU2@00@Z ; std::vector<RINGMONSTER_DATA,std::allocator<RINGMONSTER_DATA> >::_Umove<RINGMONSTER_DATA *>
; Function compile flags: /Ogtp
;	COMDAT ??$_Umove@PAURINGMONSTER_DATA@@@?$vector@URINGMONSTER_DATA@@V?$allocator@URINGMONSTER_DATA@@@std@@@std@@IAEPAURINGMONSTER_DATA@@PAU2@00@Z
_TEXT	SEGMENT
__First$ = 8						; size = 4
__Last$ = 12						; size = 4
__Cat$159011 = 16					; size = 1
__Ptr$ = 16						; size = 4
??$_Umove@PAURINGMONSTER_DATA@@@?$vector@URINGMONSTER_DATA@@V?$allocator@URINGMONSTER_DATA@@@std@@@std@@IAEPAURINGMONSTER_DATA@@PAU2@00@Z PROC ; std::vector<RINGMONSTER_DATA,std::allocator<RINGMONSTER_DATA> >::_Umove<RINGMONSTER_DATA *>, COMDAT
; _this$ = ecx

; 1322 : 		pointer _Umove(_Iter _First, _Iter _Last, pointer _Ptr)

  00000	55		 push	 ebp
  00001	8b ec		 mov	 ebp, esp

; 1323 : 		{	// move initializing [_First, _Last), using allocator
; 1324 : 		return (_Uninitialized_move(_First, _Last,
; 1325 : 			_Ptr, this->_Alval));

  00003	8b 45 10	 mov	 eax, DWORD PTR __Cat$159011[ebp]
  00006	8b 55 0c	 mov	 edx, DWORD PTR __Last$[ebp]
  00009	50		 push	 eax
  0000a	8b 45 08	 mov	 eax, DWORD PTR __First$[ebp]
  0000d	6a 00		 push	 0
  0000f	83 c1 0c	 add	 ecx, 12			; 0000000cH
  00012	51		 push	 ecx
  00013	8b 4d 10	 mov	 ecx, DWORD PTR __Ptr$[ebp]
  00016	51		 push	 ecx
  00017	52		 push	 edx
  00018	50		 push	 eax
  00019	e8 00 00 00 00	 call	 ??$_Uninit_move@PAURINGMONSTER_DATA@@PAU1@V?$allocator@URINGMONSTER_DATA@@@std@@U1@@std@@YAPAURINGMONSTER_DATA@@PAU1@00AAV?$allocator@URINGMONSTER_DATA@@@0@0U_Nonscalar_ptr_iterator_tag@0@@Z ; std::_Uninit_move<RINGMONSTER_DATA *,RINGMONSTER_DATA *,std::allocator<RINGMONSTER_DATA>,RINGMONSTER_DATA>
  0001e	83 c4 18	 add	 esp, 24			; 00000018H

; 1326 : 		}

  00021	5d		 pop	 ebp
  00022	c2 0c 00	 ret	 12			; 0000000cH
??$_Umove@PAURINGMONSTER_DATA@@@?$vector@URINGMONSTER_DATA@@V?$allocator@URINGMONSTER_DATA@@@std@@@std@@IAEPAURINGMONSTER_DATA@@PAU2@00@Z ENDP ; std::vector<RINGMONSTER_DATA,std::allocator<RINGMONSTER_DATA> >::_Umove<RINGMONSTER_DATA *>
_TEXT	ENDS
PUBLIC	??$_Umove@PAURINGMONSTER_EVENT_TIME@@@?$vector@URINGMONSTER_EVENT_TIME@@V?$allocator@URINGMONSTER_EVENT_TIME@@@std@@@std@@IAEPAURINGMONSTER_EVENT_TIME@@PAU2@00@Z ; std::vector<RINGMONSTER_EVENT_TIME,std::allocator<RINGMONSTER_EVENT_TIME> >::_Umove<RINGMONSTER_EVENT_TIME *>
; Function compile flags: /Ogtp
;	COMDAT ??$_Umove@PAURINGMONSTER_EVENT_TIME@@@?$vector@URINGMONSTER_EVENT_TIME@@V?$allocator@URINGMONSTER_EVENT_TIME@@@std@@@std@@IAEPAURINGMONSTER_EVENT_TIME@@PAU2@00@Z
_TEXT	SEGMENT
__First$ = 8						; size = 4
__Last$ = 12						; size = 4
__Cat$159030 = 16					; size = 1
__Ptr$ = 16						; size = 4
??$_Umove@PAURINGMONSTER_EVENT_TIME@@@?$vector@URINGMONSTER_EVENT_TIME@@V?$allocator@URINGMONSTER_EVENT_TIME@@@std@@@std@@IAEPAURINGMONSTER_EVENT_TIME@@PAU2@00@Z PROC ; std::vector<RINGMONSTER_EVENT_TIME,std::allocator<RINGMONSTER_EVENT_TIME> >::_Umove<RINGMONSTER_EVENT_TIME *>, COMDAT
; _this$ = ecx

; 1322 : 		pointer _Umove(_Iter _First, _Iter _Last, pointer _Ptr)

  00000	55		 push	 ebp
  00001	8b ec		 mov	 ebp, esp

; 1323 : 		{	// move initializing [_First, _Last), using allocator
; 1324 : 		return (_Uninitialized_move(_First, _Last,
; 1325 : 			_Ptr, this->_Alval));

  00003	8b 45 10	 mov	 eax, DWORD PTR __Cat$159030[ebp]
  00006	8b 55 0c	 mov	 edx, DWORD PTR __Last$[ebp]
  00009	50		 push	 eax
  0000a	8b 45 08	 mov	 eax, DWORD PTR __First$[ebp]
  0000d	6a 00		 push	 0
  0000f	83 c1 0c	 add	 ecx, 12			; 0000000cH
  00012	51		 push	 ecx
  00013	8b 4d 10	 mov	 ecx, DWORD PTR __Ptr$[ebp]
  00016	51		 push	 ecx
  00017	52		 push	 edx
  00018	50		 push	 eax
  00019	e8 00 00 00 00	 call	 ??$_Uninit_move@PAURINGMONSTER_EVENT_TIME@@PAU1@V?$allocator@URINGMONSTER_EVENT_TIME@@@std@@U1@@std@@YAPAURINGMONSTER_EVENT_TIME@@PAU1@00AAV?$allocator@URINGMONSTER_EVENT_TIME@@@0@0U_Nonscalar_ptr_iterator_tag@0@@Z ; std::_Uninit_move<RINGMONSTER_EVENT_TIME *,RINGMONSTER_EVENT_TIME *,std::allocator<RINGMONSTER_EVENT_TIME>,RINGMONSTER_EVENT_TIME>
  0001e	83 c4 18	 add	 esp, 24			; 00000018H

; 1326 : 		}

  00021	5d		 pop	 ebp
  00022	c2 0c 00	 ret	 12			; 0000000cH
??$_Umove@PAURINGMONSTER_EVENT_TIME@@@?$vector@URINGMONSTER_EVENT_TIME@@V?$allocator@URINGMONSTER_EVENT_TIME@@@std@@@std@@IAEPAURINGMONSTER_EVENT_TIME@@PAU2@00@Z ENDP ; std::vector<RINGMONSTER_EVENT_TIME,std::allocator<RINGMONSTER_EVENT_TIME> >::_Umove<RINGMONSTER_EVENT_TIME *>
_TEXT	ENDS
PUBLIC	?EnableEvent@CRingAttackEvent@@QAEXH@Z		; CRingAttackEvent::EnableEvent
; Function compile flags: /Ogtp
; File c:\users\faelhs\mu-1.1\emu - gameserver sapphire s0\gameserver\ringattackevent.cpp
;	COMDAT ?EnableEvent@CRingAttackEvent@@QAEXH@Z
_TEXT	SEGMENT
_bDoEvent$ = 8						; size = 4
?EnableEvent@CRingAttackEvent@@QAEXH@Z PROC		; CRingAttackEvent::EnableEvent, COMDAT
; _this$ = ecx

; 278  : {

  00000	55		 push	 ebp
  00001	8b ec		 mov	 ebp, esp

; 279  : 	this->m_bDoEvent = bDoEvent;

  00003	8b 45 08	 mov	 eax, DWORD PTR _bDoEvent$[ebp]
  00006	89 81 e8 00 00
	00		 mov	 DWORD PTR [ecx+232], eax

; 280  : 
; 281  : 	if ( this->m_bDoEvent )

  0000c	85 c0		 test	 eax, eax
  0000e	74 0b		 je	 SHORT $LN2@EnableEven

; 282  : 	{
; 283  : 		this->SetState(1);

  00010	6a 01		 push	 1

; 284  : 	}
; 285  : 	else
; 286  : 	{
; 287  : 		this->SetState(0);

  00012	e8 00 00 00 00	 call	 ?SetState@CRingAttackEvent@@QAEXH@Z ; CRingAttackEvent::SetState

; 288  : 	}
; 289  : }

  00017	5d		 pop	 ebp
  00018	c2 04 00	 ret	 4
$LN2@EnableEven:

; 284  : 	}
; 285  : 	else
; 286  : 	{
; 287  : 		this->SetState(0);

  0001b	6a 00		 push	 0
  0001d	e8 00 00 00 00	 call	 ?SetState@CRingAttackEvent@@QAEXH@Z ; CRingAttackEvent::SetState

; 288  : 	}
; 289  : }

  00022	5d		 pop	 ebp
  00023	c2 04 00	 ret	 4
?EnableEvent@CRingAttackEvent@@QAEXH@Z ENDP		; CRingAttackEvent::EnableEvent
_TEXT	ENDS
PUBLIC	?Run@CRingAttackEvent@@QAEXXZ			; CRingAttackEvent::Run
; Function compile flags: /Ogtp
;	COMDAT ?Run@CRingAttackEvent@@QAEXXZ
_TEXT	SEGMENT
?Run@CRingAttackEvent@@QAEXXZ PROC			; CRingAttackEvent::Run, COMDAT
; _this$ = ecx

; 413  : 	if ( this->m_bMenualStart )

  00000	83 b9 54 01 00
	00 00		 cmp	 DWORD PTR [ecx+340], 0
  00007	75 24		 jne	 SHORT $LN3@Run

; 414  : 		return;
; 415  : 
; 416  : 	if ( this->m_bDoEvent )

  00009	83 b9 e8 00 00
	00 00		 cmp	 DWORD PTR [ecx+232], 0
  00010	74 1b		 je	 SHORT $LN3@Run

; 417  : 	{
; 418  : 		switch ( this->m_iEVENT_STATE )

  00012	8b 81 0c 01 00
	00		 mov	 eax, DWORD PTR [ecx+268]
  00018	83 e8 00	 sub	 eax, 0
  0001b	74 10		 je	 SHORT $LN3@Run
  0001d	48		 dec	 eax
  0001e	74 08		 je	 SHORT $LN2@Run
  00020	48		 dec	 eax
  00021	75 0a		 jne	 SHORT $LN3@Run

; 425  : 				break;
; 426  : 			case 2:
; 427  : 				this->ProcState_Playing();

  00023	e9 00 00 00 00	 jmp	 ?ProcState_Playing@CRingAttackEvent@@QAEXXZ ; CRingAttackEvent::ProcState_Playing
$LN2@Run:

; 419  : 		{
; 420  : 			case 0:
; 421  : 				this->ProcState_None();
; 422  : 				break;
; 423  : 			case 1:
; 424  : 				this->ProcState_Closed();

  00028	e9 00 00 00 00	 jmp	 ?ProcState_Closed@CRingAttackEvent@@QAEXXZ ; CRingAttackEvent::ProcState_Closed
$LN3@Run:

; 428  : 		}
; 429  : 	}
; 430  : }	

  0002d	c3		 ret	 0
?Run@CRingAttackEvent@@QAEXXZ ENDP			; CRingAttackEvent::Run
_TEXT	ENDS
PUBLIC	??1?$vector@URINGMONSTER_DATA@@V?$allocator@URINGMONSTER_DATA@@@std@@@std@@QAE@XZ ; std::vector<RINGMONSTER_DATA,std::allocator<RINGMONSTER_DATA> >::~vector<RINGMONSTER_DATA,std::allocator<RINGMONSTER_DATA> >
; Function compile flags: /Ogtp
; File c:\program files (x86)\microsoft visual studio 10.0\vc\include\vector
;	COMDAT ??1?$vector@URINGMONSTER_DATA@@V?$allocator@URINGMONSTER_DATA@@@std@@@std@@QAE@XZ
_TEXT	SEGMENT
??1?$vector@URINGMONSTER_DATA@@V?$allocator@URINGMONSTER_DATA@@@std@@@std@@QAE@XZ PROC ; std::vector<RINGMONSTER_DATA,std::allocator<RINGMONSTER_DATA> >::~vector<RINGMONSTER_DATA,std::allocator<RINGMONSTER_DATA> >, COMDAT
; _this$ = ecx

; 704  : 		{	// destroy the object

  00000	56		 push	 esi
  00001	8b f1		 mov	 esi, ecx

; 705  : 		_Tidy();

  00003	8b 06		 mov	 eax, DWORD PTR [esi]
  00005	85 c0		 test	 eax, eax
  00007	74 09		 je	 SHORT $LN8@vector
  00009	50		 push	 eax
  0000a	e8 00 00 00 00	 call	 ??3@YAXPAX@Z		; operator delete
  0000f	83 c4 04	 add	 esp, 4
$LN8@vector:
  00012	c7 06 00 00 00
	00		 mov	 DWORD PTR [esi], 0
  00018	c7 46 04 00 00
	00 00		 mov	 DWORD PTR [esi+4], 0
  0001f	c7 46 08 00 00
	00 00		 mov	 DWORD PTR [esi+8], 0
  00026	5e		 pop	 esi

; 706  : 		}

  00027	c3		 ret	 0
??1?$vector@URINGMONSTER_DATA@@V?$allocator@URINGMONSTER_DATA@@@std@@@std@@QAE@XZ ENDP ; std::vector<RINGMONSTER_DATA,std::allocator<RINGMONSTER_DATA> >::~vector<RINGMONSTER_DATA,std::allocator<RINGMONSTER_DATA> >
_TEXT	ENDS
PUBLIC	?erase@?$vector@URINGMONSTER_DATA@@V?$allocator@URINGMONSTER_DATA@@@std@@@std@@QAE?AV?$_Vector_iterator@V?$_Vector_val@URINGMONSTER_DATA@@V?$allocator@URINGMONSTER_DATA@@@std@@@std@@@2@V?$_Vector_const_iterator@V?$_Vector_val@URINGMONSTER_DATA@@V?$allocator@URINGMONSTER_DATA@@@std@@@std@@@2@0@Z ; std::vector<RINGMONSTER_DATA,std::allocator<RINGMONSTER_DATA> >::erase
; Function compile flags: /Ogtp
;	COMDAT ?erase@?$vector@URINGMONSTER_DATA@@V?$allocator@URINGMONSTER_DATA@@@std@@@std@@QAE?AV?$_Vector_iterator@V?$_Vector_val@URINGMONSTER_DATA@@V?$allocator@URINGMONSTER_DATA@@@std@@@std@@@2@V?$_Vector_const_iterator@V?$_Vector_val@URINGMONSTER_DATA@@V?$allocator@URINGMONSTER_DATA@@@std@@@std@@@2@0@Z
_TEXT	SEGMENT
___$ReturnUdt$ = 8					; size = 4
__First_arg$ = 12					; size = 4
__Last_arg$ = 16					; size = 4
?erase@?$vector@URINGMONSTER_DATA@@V?$allocator@URINGMONSTER_DATA@@@std@@@std@@QAE?AV?$_Vector_iterator@V?$_Vector_val@URINGMONSTER_DATA@@V?$allocator@URINGMONSTER_DATA@@@std@@@std@@@2@V?$_Vector_const_iterator@V?$_Vector_val@URINGMONSTER_DATA@@V?$allocator@URINGMONSTER_DATA@@@std@@@std@@@2@0@Z PROC ; std::vector<RINGMONSTER_DATA,std::allocator<RINGMONSTER_DATA> >::erase, COMDAT
; _this$ = ecx

; 1190 : 		{	// erase [_First, _Last)

  00000	55		 push	 ebp
  00001	8b ec		 mov	 ebp, esp

; 1191 : 		iterator _First = _Make_iter(_First_arg);
; 1192 : 		iterator _Last = _Make_iter(_Last_arg);
; 1193 : 
; 1194 : 		if (_First != _Last)

  00003	8b 55 10	 mov	 edx, DWORD PTR __Last_arg$[ebp]
  00006	8b 45 08	 mov	 eax, DWORD PTR ___$ReturnUdt$[ebp]
  00009	56		 push	 esi
  0000a	8b 75 0c	 mov	 esi, DWORD PTR __First_arg$[ebp]
  0000d	89 30		 mov	 DWORD PTR [eax], esi
  0000f	3b f2		 cmp	 esi, edx
  00011	74 2c		 je	 SHORT $LN1@erase

; 1195 : 			{	// worth doing, copy down over hole
; 1196 :  #if _ITERATOR_DEBUG_LEVEL == 2
; 1197 : 			if (_Last < _First || _VICONT(_First) != this
; 1198 : 				|| _VIPTR(_First) < this->_Myfirst
; 1199 : 				|| this->_Mylast < _VIPTR(_Last))
; 1200 : 				_DEBUG_ERROR("vector erase iterator outside range");
; 1201 : 			pointer _Ptr = _Move(_VIPTR(_Last), this->_Mylast,
; 1202 : 				_VIPTR(_First));
; 1203 : 			_Orphan_range(_VIPTR(_First), this->_Mylast);
; 1204 : 
; 1205 :  #else /* _ITERATOR_DEBUG_LEVEL == 2 */
; 1206 : 			pointer _Ptr = _Move(_VIPTR(_Last), this->_Mylast,
; 1207 : 				_VIPTR(_First));

  00013	57		 push	 edi
  00014	8b 79 04	 mov	 edi, DWORD PTR [ecx+4]
  00017	3b d7		 cmp	 edx, edi
  00019	74 20		 je	 SHORT $LN30@erase
  0001b	53		 push	 ebx
  0001c	8d 64 24 00	 npad	 4
$LL32@erase:
  00020	8b 1a		 mov	 ebx, DWORD PTR [edx]
  00022	89 1e		 mov	 DWORD PTR [esi], ebx
  00024	8b 5a 04	 mov	 ebx, DWORD PTR [edx+4]
  00027	89 5e 04	 mov	 DWORD PTR [esi+4], ebx
  0002a	8b 5a 08	 mov	 ebx, DWORD PTR [edx+8]
  0002d	89 5e 08	 mov	 DWORD PTR [esi+8], ebx
  00030	83 c2 0c	 add	 edx, 12			; 0000000cH
  00033	83 c6 0c	 add	 esi, 12			; 0000000cH
  00036	3b d7		 cmp	 edx, edi
  00038	75 e6		 jne	 SHORT $LL32@erase
  0003a	5b		 pop	 ebx
$LN30@erase:

; 1208 :  #endif /* _ITERATOR_DEBUG_LEVEL == 2 */
; 1209 : 
; 1210 : 			_Destroy(_Ptr, this->_Mylast);
; 1211 : 			this->_Mylast = _Ptr;

  0003b	89 71 04	 mov	 DWORD PTR [ecx+4], esi
  0003e	5f		 pop	 edi
$LN1@erase:
  0003f	5e		 pop	 esi

; 1212 : 			}
; 1213 : 		return (_First);
; 1214 : 		}

  00040	5d		 pop	 ebp
  00041	c2 0c 00	 ret	 12			; 0000000cH
?erase@?$vector@URINGMONSTER_DATA@@V?$allocator@URINGMONSTER_DATA@@@std@@@std@@QAE?AV?$_Vector_iterator@V?$_Vector_val@URINGMONSTER_DATA@@V?$allocator@URINGMONSTER_DATA@@@std@@@std@@@2@V?$_Vector_const_iterator@V?$_Vector_val@URINGMONSTER_DATA@@V?$allocator@URINGMONSTER_DATA@@@std@@@std@@@2@0@Z ENDP ; std::vector<RINGMONSTER_DATA,std::allocator<RINGMONSTER_DATA> >::erase
_TEXT	ENDS
PUBLIC	??1?$vector@URINGMONSTER_EVENT_TIME@@V?$allocator@URINGMONSTER_EVENT_TIME@@@std@@@std@@QAE@XZ ; std::vector<RINGMONSTER_EVENT_TIME,std::allocator<RINGMONSTER_EVENT_TIME> >::~vector<RINGMONSTER_EVENT_TIME,std::allocator<RINGMONSTER_EVENT_TIME> >
; Function compile flags: /Ogtp
;	COMDAT ??1?$vector@URINGMONSTER_EVENT_TIME@@V?$allocator@URINGMONSTER_EVENT_TIME@@@std@@@std@@QAE@XZ
_TEXT	SEGMENT
??1?$vector@URINGMONSTER_EVENT_TIME@@V?$allocator@URINGMONSTER_EVENT_TIME@@@std@@@std@@QAE@XZ PROC ; std::vector<RINGMONSTER_EVENT_TIME,std::allocator<RINGMONSTER_EVENT_TIME> >::~vector<RINGMONSTER_EVENT_TIME,std::allocator<RINGMONSTER_EVENT_TIME> >, COMDAT
; _this$ = ecx

; 704  : 		{	// destroy the object

  00000	56		 push	 esi
  00001	8b f1		 mov	 esi, ecx

; 705  : 		_Tidy();

  00003	8b 06		 mov	 eax, DWORD PTR [esi]
  00005	85 c0		 test	 eax, eax
  00007	74 09		 je	 SHORT $LN8@vector@2
  00009	50		 push	 eax
  0000a	e8 00 00 00 00	 call	 ??3@YAXPAX@Z		; operator delete
  0000f	83 c4 04	 add	 esp, 4
$LN8@vector@2:
  00012	c7 06 00 00 00
	00		 mov	 DWORD PTR [esi], 0
  00018	c7 46 04 00 00
	00 00		 mov	 DWORD PTR [esi+4], 0
  0001f	c7 46 08 00 00
	00 00		 mov	 DWORD PTR [esi+8], 0
  00026	5e		 pop	 esi

; 706  : 		}

  00027	c3		 ret	 0
??1?$vector@URINGMONSTER_EVENT_TIME@@V?$allocator@URINGMONSTER_EVENT_TIME@@@std@@@std@@QAE@XZ ENDP ; std::vector<RINGMONSTER_EVENT_TIME,std::allocator<RINGMONSTER_EVENT_TIME> >::~vector<RINGMONSTER_EVENT_TIME,std::allocator<RINGMONSTER_EVENT_TIME> >
_TEXT	ENDS
PUBLIC	?erase@?$vector@URINGMONSTER_EVENT_TIME@@V?$allocator@URINGMONSTER_EVENT_TIME@@@std@@@std@@QAE?AV?$_Vector_iterator@V?$_Vector_val@URINGMONSTER_EVENT_TIME@@V?$allocator@URINGMONSTER_EVENT_TIME@@@std@@@std@@@2@V?$_Vector_const_iterator@V?$_Vector_val@URINGMONSTER_EVENT_TIME@@V?$allocator@URINGMONSTER_EVENT_TIME@@@std@@@std@@@2@0@Z ; std::vector<RINGMONSTER_EVENT_TIME,std::allocator<RINGMONSTER_EVENT_TIME> >::erase
; Function compile flags: /Ogtp
;	COMDAT ?erase@?$vector@URINGMONSTER_EVENT_TIME@@V?$allocator@URINGMONSTER_EVENT_TIME@@@std@@@std@@QAE?AV?$_Vector_iterator@V?$_Vector_val@URINGMONSTER_EVENT_TIME@@V?$allocator@URINGMONSTER_EVENT_TIME@@@std@@@std@@@2@V?$_Vector_const_iterator@V?$_Vector_val@URINGMONSTER_EVENT_TIME@@V?$allocator@URINGMONSTER_EVENT_TIME@@@std@@@std@@@2@0@Z
_TEXT	SEGMENT
___$ReturnUdt$ = 8					; size = 4
__First_arg$ = 12					; size = 4
__Last_arg$ = 16					; size = 4
?erase@?$vector@URINGMONSTER_EVENT_TIME@@V?$allocator@URINGMONSTER_EVENT_TIME@@@std@@@std@@QAE?AV?$_Vector_iterator@V?$_Vector_val@URINGMONSTER_EVENT_TIME@@V?$allocator@URINGMONSTER_EVENT_TIME@@@std@@@std@@@2@V?$_Vector_const_iterator@V?$_Vector_val@URINGMONSTER_EVENT_TIME@@V?$allocator@URINGMONSTER_EVENT_TIME@@@std@@@std@@@2@0@Z PROC ; std::vector<RINGMONSTER_EVENT_TIME,std::allocator<RINGMONSTER_EVENT_TIME> >::erase, COMDAT
; _this$ = ecx

; 1190 : 		{	// erase [_First, _Last)

  00000	55		 push	 ebp
  00001	8b ec		 mov	 ebp, esp

; 1191 : 		iterator _First = _Make_iter(_First_arg);
; 1192 : 		iterator _Last = _Make_iter(_Last_arg);
; 1193 : 
; 1194 : 		if (_First != _Last)

  00003	8b 55 10	 mov	 edx, DWORD PTR __Last_arg$[ebp]
  00006	8b 45 08	 mov	 eax, DWORD PTR ___$ReturnUdt$[ebp]
  00009	56		 push	 esi
  0000a	8b 75 0c	 mov	 esi, DWORD PTR __First_arg$[ebp]
  0000d	89 30		 mov	 DWORD PTR [eax], esi
  0000f	3b f2		 cmp	 esi, edx
  00011	74 26		 je	 SHORT $LN1@erase@2

; 1195 : 			{	// worth doing, copy down over hole
; 1196 :  #if _ITERATOR_DEBUG_LEVEL == 2
; 1197 : 			if (_Last < _First || _VICONT(_First) != this
; 1198 : 				|| _VIPTR(_First) < this->_Myfirst
; 1199 : 				|| this->_Mylast < _VIPTR(_Last))
; 1200 : 				_DEBUG_ERROR("vector erase iterator outside range");
; 1201 : 			pointer _Ptr = _Move(_VIPTR(_Last), this->_Mylast,
; 1202 : 				_VIPTR(_First));
; 1203 : 			_Orphan_range(_VIPTR(_First), this->_Mylast);
; 1204 : 
; 1205 :  #else /* _ITERATOR_DEBUG_LEVEL == 2 */
; 1206 : 			pointer _Ptr = _Move(_VIPTR(_Last), this->_Mylast,
; 1207 : 				_VIPTR(_First));

  00013	57		 push	 edi
  00014	8b 79 04	 mov	 edi, DWORD PTR [ecx+4]
  00017	3b d7		 cmp	 edx, edi
  00019	74 1a		 je	 SHORT $LN30@erase@2
  0001b	53		 push	 ebx
  0001c	8d 64 24 00	 npad	 4
$LL32@erase@2:
  00020	8b 1a		 mov	 ebx, DWORD PTR [edx]
  00022	89 1e		 mov	 DWORD PTR [esi], ebx
  00024	8b 5a 04	 mov	 ebx, DWORD PTR [edx+4]
  00027	89 5e 04	 mov	 DWORD PTR [esi+4], ebx
  0002a	83 c2 08	 add	 edx, 8
  0002d	83 c6 08	 add	 esi, 8
  00030	3b d7		 cmp	 edx, edi
  00032	75 ec		 jne	 SHORT $LL32@erase@2
  00034	5b		 pop	 ebx
$LN30@erase@2:

; 1208 :  #endif /* _ITERATOR_DEBUG_LEVEL == 2 */
; 1209 : 
; 1210 : 			_Destroy(_Ptr, this->_Mylast);
; 1211 : 			this->_Mylast = _Ptr;

  00035	89 71 04	 mov	 DWORD PTR [ecx+4], esi
  00038	5f		 pop	 edi
$LN1@erase@2:
  00039	5e		 pop	 esi

; 1212 : 			}
; 1213 : 		return (_First);
; 1214 : 		}

  0003a	5d		 pop	 ebp
  0003b	c2 0c 00	 ret	 12			; 0000000cH
?erase@?$vector@URINGMONSTER_EVENT_TIME@@V?$allocator@URINGMONSTER_EVENT_TIME@@@std@@@std@@QAE?AV?$_Vector_iterator@V?$_Vector_val@URINGMONSTER_EVENT_TIME@@V?$allocator@URINGMONSTER_EVENT_TIME@@@std@@@std@@@2@V?$_Vector_const_iterator@V?$_Vector_val@URINGMONSTER_EVENT_TIME@@V?$allocator@URINGMONSTER_EVENT_TIME@@@std@@@std@@@2@0@Z ENDP ; std::vector<RINGMONSTER_EVENT_TIME,std::allocator<RINGMONSTER_EVENT_TIME> >::erase
_TEXT	ENDS
PUBLIC	?reserve@?$vector@URINGMONSTER_DATA@@V?$allocator@URINGMONSTER_DATA@@@std@@@std@@QAEXI@Z ; std::vector<RINGMONSTER_DATA,std::allocator<RINGMONSTER_DATA> >::reserve
EXTRN	___CxxFrameHandler3:PROC
;	COMDAT xdata$x
; File c:\program files (x86)\microsoft visual studio 10.0\vc\include\xutility
xdata$x	SEGMENT
__catchsym$?reserve@?$vector@URINGMONSTER_DATA@@V?$allocator@URINGMONSTER_DATA@@@std@@@std@@QAEXI@Z$2 DD 040H
	DD	00H
	DD	00H
	DD	FLAT:__catch$?reserve@?$vector@URINGMONSTER_DATA@@V?$allocator@URINGMONSTER_DATA@@@std@@@std@@QAEXI@Z$0
__unwindtable$?reserve@?$vector@URINGMONSTER_DATA@@V?$allocator@URINGMONSTER_DATA@@@std@@@std@@QAEXI@Z DD 0ffffffffH
	DD	00H
	DD	0ffffffffH
	DD	00H
__tryblocktable$?reserve@?$vector@URINGMONSTER_DATA@@V?$allocator@URINGMONSTER_DATA@@@std@@@std@@QAEXI@Z DD 00H
	DD	00H
	DD	01H
	DD	01H
	DD	FLAT:__catchsym$?reserve@?$vector@URINGMONSTER_DATA@@V?$allocator@URINGMONSTER_DATA@@@std@@@std@@QAEXI@Z$2
__ehfuncinfo$?reserve@?$vector@URINGMONSTER_DATA@@V?$allocator@URINGMONSTER_DATA@@@std@@@std@@QAEXI@Z DD 019930522H
	DD	02H
	DD	FLAT:__unwindtable$?reserve@?$vector@URINGMONSTER_DATA@@V?$allocator@URINGMONSTER_DATA@@@std@@@std@@QAEXI@Z
	DD	01H
	DD	FLAT:__tryblocktable$?reserve@?$vector@URINGMONSTER_DATA@@V?$allocator@URINGMONSTER_DATA@@@std@@@std@@QAEXI@Z
	DD	2 DUP(00H)
	DD	00H
	DD	01H
; Function compile flags: /Ogtp
; File c:\program files (x86)\microsoft visual studio 10.0\vc\include\vector
xdata$x	ENDS
;	COMDAT ?reserve@?$vector@URINGMONSTER_DATA@@V?$allocator@URINGMONSTER_DATA@@@std@@@std@@QAEXI@Z
_TEXT	SEGMENT
__Ptr$156157 = -20					; size = 4
__$EHRec$ = -16						; size = 16
__Cat$159345 = 8					; size = 1
__Count$ = 8						; size = 4
?reserve@?$vector@URINGMONSTER_DATA@@V?$allocator@URINGMONSTER_DATA@@@std@@@std@@QAEXI@Z PROC ; std::vector<RINGMONSTER_DATA,std::allocator<RINGMONSTER_DATA> >::reserve, COMDAT
; _this$ = ecx

; 746  : 		{	// determine new minimum length of allocated storage

  00000	55		 push	 ebp
  00001	8b ec		 mov	 ebp, esp
  00003	6a ff		 push	 -1
  00005	68 00 00 00 00	 push	 __ehhandler$?reserve@?$vector@URINGMONSTER_DATA@@V?$allocator@URINGMONSTER_DATA@@@std@@@std@@QAEXI@Z
  0000a	64 a1 00 00 00
	00		 mov	 eax, DWORD PTR fs:0
  00010	50		 push	 eax
  00011	83 ec 08	 sub	 esp, 8
  00014	53		 push	 ebx
  00015	56		 push	 esi
  00016	57		 push	 edi
  00017	a1 00 00 00 00	 mov	 eax, DWORD PTR ___security_cookie
  0001c	33 c5		 xor	 eax, ebp
  0001e	50		 push	 eax
  0001f	8d 45 f4	 lea	 eax, DWORD PTR __$EHRec$[ebp+4]
  00022	64 a3 00 00 00
	00		 mov	 DWORD PTR fs:0, eax
  00028	89 65 f0	 mov	 DWORD PTR __$EHRec$[ebp], esp
  0002b	8b f1		 mov	 esi, ecx

; 747  : 		if (max_size() < _Count)

  0002d	8b 5d 08	 mov	 ebx, DWORD PTR __Count$[ebp]
  00030	81 fb 55 55 55
	15		 cmp	 ebx, 357913941		; 15555555H
  00036	76 0a		 jbe	 SHORT $LN5@reserve

; 748  : 			_Xlen();	// result too long

  00038	68 00 00 00 00	 push	 OFFSET ??_C@_0BD@OLBABOEK@vector?$DMT?$DO?5too?5long?$AA@
  0003d	e8 00 00 00 00	 call	 ?_Xlength_error@std@@YAXPBD@Z ; std::_Xlength_error
$LN42@reserve:
$LN5@reserve:

; 749  : 		else if (capacity() < _Count)

  00042	8b 4e 08	 mov	 ecx, DWORD PTR [esi+8]
  00045	2b 0e		 sub	 ecx, DWORD PTR [esi]
  00047	b8 ab aa aa 2a	 mov	 eax, 715827883		; 2aaaaaabH
  0004c	f7 e9		 imul	 ecx
  0004e	d1 fa		 sar	 edx, 1
  00050	8b c2		 mov	 eax, edx
  00052	c1 e8 1f	 shr	 eax, 31			; 0000001fH
  00055	03 c2		 add	 eax, edx
  00057	3b c3		 cmp	 eax, ebx
  00059	73 6a		 jae	 SHORT $LN3@reserve

; 750  : 			{	// not enough room, reallocate
; 751  : 			pointer _Ptr = this->_Alval.allocate(_Count);

  0005b	8d 7e 0c	 lea	 edi, DWORD PTR [esi+12]
  0005e	53		 push	 ebx
  0005f	8b cf		 mov	 ecx, edi
  00061	e8 00 00 00 00	 call	 ?allocate@?$allocator@URINGMONSTER_DATA@@@std@@QAEPAURINGMONSTER_DATA@@I@Z ; std::allocator<RINGMONSTER_DATA>::allocate

; 752  : 
; 753  : 			_TRY_BEGIN
; 754  : 			_Umove(this->_Myfirst, this->_Mylast, _Ptr);

  00066	8b 5d 08	 mov	 ebx, DWORD PTR __Cat$159345[ebp]
  00069	8b 4e 04	 mov	 ecx, DWORD PTR [esi+4]
  0006c	8b 16		 mov	 edx, DWORD PTR [esi]
  0006e	53		 push	 ebx
  0006f	6a 00		 push	 0
  00071	57		 push	 edi
  00072	50		 push	 eax
  00073	51		 push	 ecx
  00074	52		 push	 edx
  00075	89 45 ec	 mov	 DWORD PTR __Ptr$156157[ebp], eax
  00078	c7 45 fc 00 00
	00 00		 mov	 DWORD PTR __$EHRec$[ebp+12], 0
  0007f	e8 00 00 00 00	 call	 ??$_Uninit_move@PAURINGMONSTER_DATA@@PAU1@V?$allocator@URINGMONSTER_DATA@@@std@@U1@@std@@YAPAURINGMONSTER_DATA@@PAU1@00AAV?$allocator@URINGMONSTER_DATA@@@0@0U_Nonscalar_ptr_iterator_tag@0@@Z ; std::_Uninit_move<RINGMONSTER_DATA *,RINGMONSTER_DATA *,std::allocator<RINGMONSTER_DATA>,RINGMONSTER_DATA>

; 758  : 			_CATCH_END
; 759  : 
; 760  : 			size_type _Size = size();

  00084	8b 1e		 mov	 ebx, DWORD PTR [esi]
  00086	8b 4e 04	 mov	 ecx, DWORD PTR [esi+4]
  00089	2b cb		 sub	 ecx, ebx
  0008b	b8 ab aa aa 2a	 mov	 eax, 715827883		; 2aaaaaabH
  00090	f7 e9		 imul	 ecx
  00092	d1 fa		 sar	 edx, 1
  00094	8b fa		 mov	 edi, edx
  00096	c1 ef 1f	 shr	 edi, 31			; 0000001fH
  00099	83 c4 18	 add	 esp, 24			; 00000018H
  0009c	03 fa		 add	 edi, edx

; 761  : 			if (this->_Myfirst != 0)

  0009e	85 db		 test	 ebx, ebx
  000a0	74 09		 je	 SHORT $LN35@reserve

; 762  : 				{	// destroy and deallocate old array
; 763  : 				_Destroy(this->_Myfirst, this->_Mylast);
; 764  : 				this->_Alval.deallocate(this->_Myfirst,
; 765  : 					this->_Myend - this->_Myfirst);

  000a2	53		 push	 ebx
  000a3	e8 00 00 00 00	 call	 ??3@YAXPAX@Z		; operator delete
  000a8	83 c4 04	 add	 esp, 4
$LN35@reserve:

; 766  : 				}
; 767  : 
; 768  : 			this->_Orphan_all();
; 769  : 			this->_Myend = _Ptr + _Count;

  000ab	8b 45 08	 mov	 eax, DWORD PTR __Count$[ebp]
  000ae	8d 0c 40	 lea	 ecx, DWORD PTR [eax+eax*2]
  000b1	8b 45 ec	 mov	 eax, DWORD PTR __Ptr$156157[ebp]
  000b4	8d 14 88	 lea	 edx, DWORD PTR [eax+ecx*4]

; 770  : 			this->_Mylast = _Ptr + _Size;

  000b7	8d 0c 7f	 lea	 ecx, DWORD PTR [edi+edi*2]
  000ba	89 56 08	 mov	 DWORD PTR [esi+8], edx
  000bd	8d 14 88	 lea	 edx, DWORD PTR [eax+ecx*4]
  000c0	89 56 04	 mov	 DWORD PTR [esi+4], edx

; 771  : 			this->_Myfirst = _Ptr;

  000c3	89 06		 mov	 DWORD PTR [esi], eax
$LN3@reserve:

; 772  : 			}
; 773  : 		}

  000c5	8b 4d f4	 mov	 ecx, DWORD PTR __$EHRec$[ebp+4]
  000c8	64 89 0d 00 00
	00 00		 mov	 DWORD PTR fs:0, ecx
  000cf	59		 pop	 ecx
  000d0	5f		 pop	 edi
  000d1	5e		 pop	 esi
  000d2	5b		 pop	 ebx
  000d3	8b e5		 mov	 esp, ebp
  000d5	5d		 pop	 ebp
  000d6	c2 04 00	 ret	 4
__catch$?reserve@?$vector@URINGMONSTER_DATA@@V?$allocator@URINGMONSTER_DATA@@@std@@@std@@QAEXI@Z$0:

; 755  : 			_CATCH_ALL
; 756  : 			this->_Alval.deallocate(_Ptr, _Count);

  000d9	8b 45 ec	 mov	 eax, DWORD PTR __Ptr$156157[ebp]
  000dc	50		 push	 eax
  000dd	e8 00 00 00 00	 call	 ??3@YAXPAX@Z		; operator delete
  000e2	83 c4 04	 add	 esp, 4

; 757  : 			_RERAISE;

  000e5	6a 00		 push	 0
  000e7	6a 00		 push	 0
  000e9	e8 00 00 00 00	 call	 __CxxThrowException@8
$LN43@reserve:
$LN41@reserve:
  000ee	cc		 int	 3
_TEXT	ENDS
;	COMDAT text$x
text$x	SEGMENT
__ehhandler$?reserve@?$vector@URINGMONSTER_DATA@@V?$allocator@URINGMONSTER_DATA@@@std@@@std@@QAEXI@Z:
  00000	8b 54 24 08	 mov	 edx, DWORD PTR [esp+8]
  00004	8d 42 0c	 lea	 eax, DWORD PTR [edx+12]
  00007	8b 4a e8	 mov	 ecx, DWORD PTR [edx-24]
  0000a	33 c8		 xor	 ecx, eax
  0000c	e8 00 00 00 00	 call	 @__security_check_cookie@4
  00011	b8 00 00 00 00	 mov	 eax, OFFSET __ehfuncinfo$?reserve@?$vector@URINGMONSTER_DATA@@V?$allocator@URINGMONSTER_DATA@@@std@@@std@@QAEXI@Z
  00016	e9 00 00 00 00	 jmp	 ___CxxFrameHandler3
text$x	ENDS
?reserve@?$vector@URINGMONSTER_DATA@@V?$allocator@URINGMONSTER_DATA@@@std@@@std@@QAEXI@Z ENDP ; std::vector<RINGMONSTER_DATA,std::allocator<RINGMONSTER_DATA> >::reserve
PUBLIC	?reserve@?$vector@URINGMONSTER_EVENT_TIME@@V?$allocator@URINGMONSTER_EVENT_TIME@@@std@@@std@@QAEXI@Z ; std::vector<RINGMONSTER_EVENT_TIME,std::allocator<RINGMONSTER_EVENT_TIME> >::reserve
;	COMDAT xdata$x
; File c:\program files (x86)\microsoft visual studio 10.0\vc\include\xutility
xdata$x	SEGMENT
__catchsym$?reserve@?$vector@URINGMONSTER_EVENT_TIME@@V?$allocator@URINGMONSTER_EVENT_TIME@@@std@@@std@@QAEXI@Z$2 DD 040H
	DD	00H
	DD	00H
	DD	FLAT:__catch$?reserve@?$vector@URINGMONSTER_EVENT_TIME@@V?$allocator@URINGMONSTER_EVENT_TIME@@@std@@@std@@QAEXI@Z$0
__unwindtable$?reserve@?$vector@URINGMONSTER_EVENT_TIME@@V?$allocator@URINGMONSTER_EVENT_TIME@@@std@@@std@@QAEXI@Z DD 0ffffffffH
	DD	00H
	DD	0ffffffffH
	DD	00H
__tryblocktable$?reserve@?$vector@URINGMONSTER_EVENT_TIME@@V?$allocator@URINGMONSTER_EVENT_TIME@@@std@@@std@@QAEXI@Z DD 00H
	DD	00H
	DD	01H
	DD	01H
	DD	FLAT:__catchsym$?reserve@?$vector@URINGMONSTER_EVENT_TIME@@V?$allocator@URINGMONSTER_EVENT_TIME@@@std@@@std@@QAEXI@Z$2
__ehfuncinfo$?reserve@?$vector@URINGMONSTER_EVENT_TIME@@V?$allocator@URINGMONSTER_EVENT_TIME@@@std@@@std@@QAEXI@Z DD 019930522H
	DD	02H
	DD	FLAT:__unwindtable$?reserve@?$vector@URINGMONSTER_EVENT_TIME@@V?$allocator@URINGMONSTER_EVENT_TIME@@@std@@@std@@QAEXI@Z
	DD	01H
	DD	FLAT:__tryblocktable$?reserve@?$vector@URINGMONSTER_EVENT_TIME@@V?$allocator@URINGMONSTER_EVENT_TIME@@@std@@@std@@QAEXI@Z
	DD	2 DUP(00H)
	DD	00H
	DD	01H
; Function compile flags: /Ogtp
; File c:\program files (x86)\microsoft visual studio 10.0\vc\include\vector
xdata$x	ENDS
;	COMDAT ?reserve@?$vector@URINGMONSTER_EVENT_TIME@@V?$allocator@URINGMONSTER_EVENT_TIME@@@std@@@std@@QAEXI@Z
_TEXT	SEGMENT
__Ptr$156188 = -20					; size = 4
__$EHRec$ = -16						; size = 16
__Cat$159431 = 8					; size = 1
__Count$ = 8						; size = 4
?reserve@?$vector@URINGMONSTER_EVENT_TIME@@V?$allocator@URINGMONSTER_EVENT_TIME@@@std@@@std@@QAEXI@Z PROC ; std::vector<RINGMONSTER_EVENT_TIME,std::allocator<RINGMONSTER_EVENT_TIME> >::reserve, COMDAT
; _this$ = ecx

; 746  : 		{	// determine new minimum length of allocated storage

  00000	55		 push	 ebp
  00001	8b ec		 mov	 ebp, esp
  00003	6a ff		 push	 -1
  00005	68 00 00 00 00	 push	 __ehhandler$?reserve@?$vector@URINGMONSTER_EVENT_TIME@@V?$allocator@URINGMONSTER_EVENT_TIME@@@std@@@std@@QAEXI@Z
  0000a	64 a1 00 00 00
	00		 mov	 eax, DWORD PTR fs:0
  00010	50		 push	 eax
  00011	83 ec 08	 sub	 esp, 8
  00014	53		 push	 ebx
  00015	56		 push	 esi
  00016	57		 push	 edi
  00017	a1 00 00 00 00	 mov	 eax, DWORD PTR ___security_cookie
  0001c	33 c5		 xor	 eax, ebp
  0001e	50		 push	 eax
  0001f	8d 45 f4	 lea	 eax, DWORD PTR __$EHRec$[ebp+4]
  00022	64 a3 00 00 00
	00		 mov	 DWORD PTR fs:0, eax
  00028	89 65 f0	 mov	 DWORD PTR __$EHRec$[ebp], esp
  0002b	8b f1		 mov	 esi, ecx

; 747  : 		if (max_size() < _Count)

  0002d	8b 45 08	 mov	 eax, DWORD PTR __Count$[ebp]
  00030	3d ff ff ff 1f	 cmp	 eax, 536870911		; 1fffffffH
  00035	76 0a		 jbe	 SHORT $LN5@reserve@2

; 748  : 			_Xlen();	// result too long

  00037	68 00 00 00 00	 push	 OFFSET ??_C@_0BD@OLBABOEK@vector?$DMT?$DO?5too?5long?$AA@
  0003c	e8 00 00 00 00	 call	 ?_Xlength_error@std@@YAXPBD@Z ; std::_Xlength_error
$LN42@reserve@2:
$LN5@reserve@2:

; 749  : 		else if (capacity() < _Count)

  00041	8b 4e 08	 mov	 ecx, DWORD PTR [esi+8]
  00044	2b 0e		 sub	 ecx, DWORD PTR [esi]
  00046	c1 f9 03	 sar	 ecx, 3
  00049	3b c8		 cmp	 ecx, eax
  0004b	73 56		 jae	 SHORT $LN3@reserve@2

; 750  : 			{	// not enough room, reallocate
; 751  : 			pointer _Ptr = this->_Alval.allocate(_Count);

  0004d	8d 7e 0c	 lea	 edi, DWORD PTR [esi+12]
  00050	50		 push	 eax
  00051	8b cf		 mov	 ecx, edi
  00053	e8 00 00 00 00	 call	 ?allocate@?$allocator@URINGMONSTER_EVENT_TIME@@@std@@QAEPAURINGMONSTER_EVENT_TIME@@I@Z ; std::allocator<RINGMONSTER_EVENT_TIME>::allocate

; 752  : 
; 753  : 			_TRY_BEGIN
; 754  : 			_Umove(this->_Myfirst, this->_Mylast, _Ptr);

  00058	8b 55 08	 mov	 edx, DWORD PTR __Cat$159431[ebp]
  0005b	8b 0e		 mov	 ecx, DWORD PTR [esi]
  0005d	52		 push	 edx
  0005e	6a 00		 push	 0
  00060	8b d8		 mov	 ebx, eax
  00062	8b 46 04	 mov	 eax, DWORD PTR [esi+4]
  00065	57		 push	 edi
  00066	53		 push	 ebx
  00067	50		 push	 eax
  00068	51		 push	 ecx
  00069	89 5d ec	 mov	 DWORD PTR __Ptr$156188[ebp], ebx
  0006c	c7 45 fc 00 00
	00 00		 mov	 DWORD PTR __$EHRec$[ebp+12], 0
  00073	e8 00 00 00 00	 call	 ??$_Uninit_move@PAURINGMONSTER_EVENT_TIME@@PAU1@V?$allocator@URINGMONSTER_EVENT_TIME@@@std@@U1@@std@@YAPAURINGMONSTER_EVENT_TIME@@PAU1@00AAV?$allocator@URINGMONSTER_EVENT_TIME@@@0@0U_Nonscalar_ptr_iterator_tag@0@@Z ; std::_Uninit_move<RINGMONSTER_EVENT_TIME *,RINGMONSTER_EVENT_TIME *,std::allocator<RINGMONSTER_EVENT_TIME>,RINGMONSTER_EVENT_TIME>

; 758  : 			_CATCH_END
; 759  : 
; 760  : 			size_type _Size = size();

  00078	8b 06		 mov	 eax, DWORD PTR [esi]
  0007a	8b 7e 04	 mov	 edi, DWORD PTR [esi+4]
  0007d	2b f8		 sub	 edi, eax
  0007f	83 c4 18	 add	 esp, 24			; 00000018H
  00082	c1 ff 03	 sar	 edi, 3

; 761  : 			if (this->_Myfirst != 0)

  00085	85 c0		 test	 eax, eax
  00087	74 09		 je	 SHORT $LN35@reserve@2

; 762  : 				{	// destroy and deallocate old array
; 763  : 				_Destroy(this->_Myfirst, this->_Mylast);
; 764  : 				this->_Alval.deallocate(this->_Myfirst,
; 765  : 					this->_Myend - this->_Myfirst);

  00089	50		 push	 eax
  0008a	e8 00 00 00 00	 call	 ??3@YAXPAX@Z		; operator delete
  0008f	83 c4 04	 add	 esp, 4
$LN35@reserve@2:

; 766  : 				}
; 767  : 
; 768  : 			this->_Orphan_all();
; 769  : 			this->_Myend = _Ptr + _Count;

  00092	8b 45 08	 mov	 eax, DWORD PTR __Count$[ebp]
  00095	8d 0c c3	 lea	 ecx, DWORD PTR [ebx+eax*8]

; 770  : 			this->_Mylast = _Ptr + _Size;

  00098	8d 14 fb	 lea	 edx, DWORD PTR [ebx+edi*8]
  0009b	89 4e 08	 mov	 DWORD PTR [esi+8], ecx
  0009e	89 56 04	 mov	 DWORD PTR [esi+4], edx

; 771  : 			this->_Myfirst = _Ptr;

  000a1	89 1e		 mov	 DWORD PTR [esi], ebx
$LN3@reserve@2:

; 772  : 			}
; 773  : 		}

  000a3	8b 4d f4	 mov	 ecx, DWORD PTR __$EHRec$[ebp+4]
  000a6	64 89 0d 00 00
	00 00		 mov	 DWORD PTR fs:0, ecx
  000ad	59		 pop	 ecx
  000ae	5f		 pop	 edi
  000af	5e		 pop	 esi
  000b0	5b		 pop	 ebx
  000b1	8b e5		 mov	 esp, ebp
  000b3	5d		 pop	 ebp
  000b4	c2 04 00	 ret	 4
__catch$?reserve@?$vector@URINGMONSTER_EVENT_TIME@@V?$allocator@URINGMONSTER_EVENT_TIME@@@std@@@std@@QAEXI@Z$0:

; 755  : 			_CATCH_ALL
; 756  : 			this->_Alval.deallocate(_Ptr, _Count);

  000b7	8b 45 ec	 mov	 eax, DWORD PTR __Ptr$156188[ebp]
  000ba	50		 push	 eax
  000bb	e8 00 00 00 00	 call	 ??3@YAXPAX@Z		; operator delete
  000c0	83 c4 04	 add	 esp, 4

; 757  : 			_RERAISE;

  000c3	6a 00		 push	 0
  000c5	6a 00		 push	 0
  000c7	e8 00 00 00 00	 call	 __CxxThrowException@8
$LN43@reserve@2:
$LN41@reserve@2:
  000cc	cc		 int	 3
_TEXT	ENDS
;	COMDAT text$x
text$x	SEGMENT
__ehhandler$?reserve@?$vector@URINGMONSTER_EVENT_TIME@@V?$allocator@URINGMONSTER_EVENT_TIME@@@std@@@std@@QAEXI@Z:
  00000	8b 54 24 08	 mov	 edx, DWORD PTR [esp+8]
  00004	8d 42 0c	 lea	 eax, DWORD PTR [edx+12]
  00007	8b 4a e8	 mov	 ecx, DWORD PTR [edx-24]
  0000a	33 c8		 xor	 ecx, eax
  0000c	e8 00 00 00 00	 call	 @__security_check_cookie@4
  00011	b8 00 00 00 00	 mov	 eax, OFFSET __ehfuncinfo$?reserve@?$vector@URINGMONSTER_EVENT_TIME@@V?$allocator@URINGMONSTER_EVENT_TIME@@@std@@@std@@QAEXI@Z
  00016	e9 00 00 00 00	 jmp	 ___CxxFrameHandler3
text$x	ENDS
?reserve@?$vector@URINGMONSTER_EVENT_TIME@@V?$allocator@URINGMONSTER_EVENT_TIME@@@std@@@std@@QAEXI@Z ENDP ; std::vector<RINGMONSTER_EVENT_TIME,std::allocator<RINGMONSTER_EVENT_TIME> >::reserve
PUBLIC	??_7CRingAttackEvent@@6B@			; CRingAttackEvent::`vftable'
PUBLIC	??0CRingAttackEvent@@QAE@XZ			; CRingAttackEvent::CRingAttackEvent
PUBLIC	??_R4CRingAttackEvent@@6B@			; CRingAttackEvent::`RTTI Complete Object Locator'
PUBLIC	??_R0?AVCRingAttackEvent@@@8			; CRingAttackEvent `RTTI Type Descriptor'
PUBLIC	??_R3CRingAttackEvent@@8			; CRingAttackEvent::`RTTI Class Hierarchy Descriptor'
PUBLIC	??_R2CRingAttackEvent@@8			; CRingAttackEvent::`RTTI Base Class Array'
PUBLIC	??_R1A@?0A@EA@CRingAttackEvent@@8		; CRingAttackEvent::`RTTI Base Class Descriptor at (0,-1,0,64)'
PUBLIC	?Load@CRingAttackEvent@@UAEHPAD@Z		; CRingAttackEvent::Load
EXTRN	__imp__InitializeCriticalSection@4:PROC
EXTRN	??_L@YGXPAXIHP6EX0@Z1@Z:PROC			; `eh vector constructor iterator'
EXTRN	??_ECRingAttackEvent@@UAEPAXI@Z:PROC		; CRingAttackEvent::`vector deleting destructor'
;	COMDAT ??_R1A@?0A@EA@CRingAttackEvent@@8
; File c:\program files (x86)\microsoft visual studio 10.0\vc\include\xmemory
rdata$r	SEGMENT
??_R1A@?0A@EA@CRingAttackEvent@@8 DD FLAT:??_R0?AVCRingAttackEvent@@@8 ; CRingAttackEvent::`RTTI Base Class Descriptor at (0,-1,0,64)'
	DD	00H
	DD	00H
	DD	0ffffffffH
	DD	00H
	DD	040H
	DD	FLAT:??_R3CRingAttackEvent@@8
rdata$r	ENDS
;	COMDAT ??_R2CRingAttackEvent@@8
rdata$r	SEGMENT
??_R2CRingAttackEvent@@8 DD FLAT:??_R1A@?0A@EA@CRingAttackEvent@@8 ; CRingAttackEvent::`RTTI Base Class Array'
rdata$r	ENDS
;	COMDAT ??_R3CRingAttackEvent@@8
rdata$r	SEGMENT
??_R3CRingAttackEvent@@8 DD 00H				; CRingAttackEvent::`RTTI Class Hierarchy Descriptor'
	DD	00H
	DD	01H
	DD	FLAT:??_R2CRingAttackEvent@@8
rdata$r	ENDS
;	COMDAT ??_R0?AVCRingAttackEvent@@@8
_DATA	SEGMENT
??_R0?AVCRingAttackEvent@@@8 DD FLAT:??_7type_info@@6B@	; CRingAttackEvent `RTTI Type Descriptor'
	DD	00H
	DB	'.?AVCRingAttackEvent@@', 00H
_DATA	ENDS
;	COMDAT ??_R4CRingAttackEvent@@6B@
rdata$r	SEGMENT
??_R4CRingAttackEvent@@6B@ DD 00H			; CRingAttackEvent::`RTTI Complete Object Locator'
	DD	00H
	DD	00H
	DD	FLAT:??_R0?AVCRingAttackEvent@@@8
	DD	FLAT:??_R3CRingAttackEvent@@8
rdata$r	ENDS
;	COMDAT ??_7CRingAttackEvent@@6B@
CONST	SEGMENT
??_7CRingAttackEvent@@6B@ DD FLAT:??_R4CRingAttackEvent@@6B@ ; CRingAttackEvent::`vftable'
	DD	FLAT:??_ECRingAttackEvent@@UAEPAXI@Z
	DD	FLAT:?Load@CRingAttackEvent@@UAEHPAD@Z
; Function compile flags: /Ogtp
; File c:\users\faelhs\mu-1.1\emu - gameserver sapphire s0\gameserver\ringattackevent.cpp
CONST	ENDS
;	COMDAT ??0CRingAttackEvent@@QAE@XZ
_TEXT	SEGMENT
??0CRingAttackEvent@@QAE@XZ PROC			; CRingAttackEvent::CRingAttackEvent, COMDAT
; _this$ = ecx

; 189  : {

  00000	56		 push	 esi
  00001	68 00 00 00 00	 push	 OFFSET ??1CRingMonsterHerd@@UAE@XZ ; CRingMonsterHerd::~CRingMonsterHerd
  00006	68 00 00 00 00	 push	 OFFSET ??0CRingMonsterHerd@@QAE@XZ ; CRingMonsterHerd::CRingMonsterHerd
  0000b	8b f1		 mov	 esi, ecx
  0000d	6a 03		 push	 3
  0000f	6a 4c		 push	 76			; 0000004cH
  00011	8d 46 04	 lea	 eax, DWORD PTR [esi+4]
  00014	50		 push	 eax
  00015	c7 06 00 00 00
	00		 mov	 DWORD PTR [esi], OFFSET ??_7CRingAttackEvent@@6B@
  0001b	e8 00 00 00 00	 call	 ??_L@YGXPAXIHP6EX0@Z1@Z
  00020	33 c0		 xor	 eax, eax
  00022	89 86 1c 01 00
	00		 mov	 DWORD PTR [esi+284], eax
  00028	89 86 20 01 00
	00		 mov	 DWORD PTR [esi+288], eax
  0002e	89 86 24 01 00
	00		 mov	 DWORD PTR [esi+292], eax
  00034	89 86 44 01 00
	00		 mov	 DWORD PTR [esi+324], eax
  0003a	89 86 48 01 00
	00		 mov	 DWORD PTR [esi+328], eax
  00040	89 86 4c 01 00
	00		 mov	 DWORD PTR [esi+332], eax

; 190  : 	this->m_bDoEvent = FALSE;
; 191  : 	this->m_bHasData = FALSE;
; 192  : 	this->m_iRADIUS_MIN = 3;
; 193  : 	this->m_iRADIUS_MAX = 6;
; 194  : 	this->m_iMOVE_RAND_SIZE = 15;
; 195  : 	InitializeCriticalSection(&this->m_critMonsterAddData);

  00046	8d 8e 2c 01 00
	00		 lea	 ecx, DWORD PTR [esi+300]
  0004c	51		 push	 ecx
  0004d	89 86 e8 00 00
	00		 mov	 DWORD PTR [esi+232], eax
  00053	89 86 ec 00 00
	00		 mov	 DWORD PTR [esi+236], eax
  00059	c7 86 14 01 00
	00 03 00 00 00	 mov	 DWORD PTR [esi+276], 3
  00063	c7 86 18 01 00
	00 06 00 00 00	 mov	 DWORD PTR [esi+280], 6
  0006d	c7 86 10 01 00
	00 0f 00 00 00	 mov	 DWORD PTR [esi+272], 15	; 0000000fH
  00077	ff 15 00 00 00
	00		 call	 DWORD PTR __imp__InitializeCriticalSection@4

; 196  : }

  0007d	8b c6		 mov	 eax, esi
  0007f	5e		 pop	 esi
  00080	c3		 ret	 0
??0CRingAttackEvent@@QAE@XZ ENDP			; CRingAttackEvent::CRingAttackEvent
_TEXT	ENDS
PUBLIC	??1CRingAttackEvent@@UAE@XZ			; CRingAttackEvent::~CRingAttackEvent
EXTRN	??_M@YGXPAXIHP6EX0@Z@Z:PROC			; `eh vector destructor iterator'
EXTRN	__imp__DeleteCriticalSection@4:PROC
; Function compile flags: /Ogtp
;	COMDAT ??1CRingAttackEvent@@UAE@XZ
_TEXT	SEGMENT
??1CRingAttackEvent@@UAE@XZ PROC			; CRingAttackEvent::~CRingAttackEvent, COMDAT
; _this$ = ecx

; 200  : {

  00000	56		 push	 esi
  00001	8b f1		 mov	 esi, ecx
  00003	57		 push	 edi

; 201  : 	DeleteCriticalSection(&this->m_critMonsterAddData);

  00004	8d 86 2c 01 00
	00		 lea	 eax, DWORD PTR [esi+300]
  0000a	50		 push	 eax
  0000b	c7 06 00 00 00
	00		 mov	 DWORD PTR [esi], OFFSET ??_7CRingAttackEvent@@6B@
  00011	ff 15 00 00 00
	00		 call	 DWORD PTR __imp__DeleteCriticalSection@4

; 202  : }

  00017	8b 86 44 01 00
	00		 mov	 eax, DWORD PTR [esi+324]
  0001d	33 ff		 xor	 edi, edi
  0001f	3b c7		 cmp	 eax, edi
  00021	74 09		 je	 SHORT $LN13@CRingAttac
  00023	50		 push	 eax
  00024	e8 00 00 00 00	 call	 ??3@YAXPAX@Z		; operator delete
  00029	83 c4 04	 add	 esp, 4
$LN13@CRingAttac:
  0002c	89 be 44 01 00
	00		 mov	 DWORD PTR [esi+324], edi
  00032	89 be 48 01 00
	00		 mov	 DWORD PTR [esi+328], edi
  00038	89 be 4c 01 00
	00		 mov	 DWORD PTR [esi+332], edi
  0003e	8b 86 1c 01 00
	00		 mov	 eax, DWORD PTR [esi+284]
  00044	3b c7		 cmp	 eax, edi
  00046	74 09		 je	 SHORT $LN24@CRingAttac
  00048	50		 push	 eax
  00049	e8 00 00 00 00	 call	 ??3@YAXPAX@Z		; operator delete
  0004e	83 c4 04	 add	 esp, 4
$LN24@CRingAttac:
  00051	68 00 00 00 00	 push	 OFFSET ??1CRingMonsterHerd@@UAE@XZ ; CRingMonsterHerd::~CRingMonsterHerd
  00056	6a 03		 push	 3
  00058	89 be 1c 01 00
	00		 mov	 DWORD PTR [esi+284], edi
  0005e	89 be 20 01 00
	00		 mov	 DWORD PTR [esi+288], edi
  00064	89 be 24 01 00
	00		 mov	 DWORD PTR [esi+292], edi
  0006a	6a 4c		 push	 76			; 0000004cH
  0006c	83 c6 04	 add	 esi, 4
  0006f	56		 push	 esi
  00070	e8 00 00 00 00	 call	 ??_M@YGXPAXIHP6EX0@Z@Z
  00075	5f		 pop	 edi
  00076	5e		 pop	 esi
  00077	c3		 ret	 0
??1CRingAttackEvent@@UAE@XZ ENDP			; CRingAttackEvent::~CRingAttackEvent
_TEXT	ENDS
PUBLIC	?_Reserve@?$vector@URINGMONSTER_DATA@@V?$allocator@URINGMONSTER_DATA@@@std@@@std@@IAEXI@Z ; std::vector<RINGMONSTER_DATA,std::allocator<RINGMONSTER_DATA> >::_Reserve
; Function compile flags: /Ogtp
; File c:\program files (x86)\microsoft visual studio 10.0\vc\include\vector
;	COMDAT ?_Reserve@?$vector@URINGMONSTER_DATA@@V?$allocator@URINGMONSTER_DATA@@@std@@@std@@IAEXI@Z
_TEXT	SEGMENT
__Count$ = 8						; size = 4
?_Reserve@?$vector@URINGMONSTER_DATA@@V?$allocator@URINGMONSTER_DATA@@@std@@@std@@IAEXI@Z PROC ; std::vector<RINGMONSTER_DATA,std::allocator<RINGMONSTER_DATA> >::_Reserve, COMDAT
; _this$ = ecx

; 1290 : 		{	// ensure room for _Count new elements, grow exponentially

  00000	55		 push	 ebp
  00001	8b ec		 mov	 ebp, esp

; 1291 : 		size_type _Size = size();

  00003	8b 51 04	 mov	 edx, DWORD PTR [ecx+4]
  00006	56		 push	 esi
  00007	57		 push	 edi
  00008	8b 39		 mov	 edi, DWORD PTR [ecx]
  0000a	2b d7		 sub	 edx, edi
  0000c	b8 ab aa aa 2a	 mov	 eax, 715827883		; 2aaaaaabH
  00011	f7 ea		 imul	 edx

; 1292 : 		if (max_size() - _Count < _Size)

  00013	8b 45 08	 mov	 eax, DWORD PTR __Count$[ebp]
  00016	d1 fa		 sar	 edx, 1
  00018	8b f2		 mov	 esi, edx
  0001a	c1 ee 1f	 shr	 esi, 31			; 0000001fH
  0001d	03 f2		 add	 esi, edx
  0001f	ba 55 55 55 15	 mov	 edx, 357913941		; 15555555H
  00024	2b d0		 sub	 edx, eax
  00026	3b d6		 cmp	 edx, esi
  00028	73 0a		 jae	 SHORT $LN4@Reserve

; 1293 : 			_Xlen();

  0002a	68 00 00 00 00	 push	 OFFSET ??_C@_0BD@OLBABOEK@vector?$DMT?$DO?5too?5long?$AA@
  0002f	e8 00 00 00 00	 call	 ?_Xlength_error@std@@YAXPBD@Z ; std::_Xlength_error
$LN34@Reserve:
$LN4@Reserve:

; 1294 : 		else if ((_Size += _Count) <= capacity())

  00034	8b 51 08	 mov	 edx, DWORD PTR [ecx+8]
  00037	03 f0		 add	 esi, eax
  00039	2b d7		 sub	 edx, edi
  0003b	b8 ab aa aa 2a	 mov	 eax, 715827883		; 2aaaaaabH
  00040	f7 ea		 imul	 edx
  00042	d1 fa		 sar	 edx, 1
  00044	8b c2		 mov	 eax, edx
  00046	c1 e8 1f	 shr	 eax, 31			; 0000001fH
  00049	03 c2		 add	 eax, edx
  0004b	3b f0		 cmp	 esi, eax
  0004d	76 21		 jbe	 SHORT $LN1@Reserve

; 1295 : 			;
; 1296 : 		else
; 1297 : 			reserve(_Grow_to(_Size));

  0004f	8b d0		 mov	 edx, eax
  00051	d1 ea		 shr	 edx, 1
  00053	bf 55 55 55 15	 mov	 edi, 357913941		; 15555555H
  00058	2b fa		 sub	 edi, edx
  0005a	3b f8		 cmp	 edi, eax
  0005c	73 04		 jae	 SHORT $LN23@Reserve
  0005e	33 c0		 xor	 eax, eax
  00060	eb 02		 jmp	 SHORT $LN24@Reserve
$LN23@Reserve:
  00062	03 c2		 add	 eax, edx
$LN24@Reserve:
  00064	3b c6		 cmp	 eax, esi
  00066	73 02		 jae	 SHORT $LN20@Reserve
  00068	8b c6		 mov	 eax, esi
$LN20@Reserve:
  0006a	50		 push	 eax
  0006b	e8 00 00 00 00	 call	 ?reserve@?$vector@URINGMONSTER_DATA@@V?$allocator@URINGMONSTER_DATA@@@std@@@std@@QAEXI@Z ; std::vector<RINGMONSTER_DATA,std::allocator<RINGMONSTER_DATA> >::reserve
$LN1@Reserve:
  00070	5f		 pop	 edi
  00071	5e		 pop	 esi

; 1298 : 		}

  00072	5d		 pop	 ebp
  00073	c2 04 00	 ret	 4
$LN33@Reserve:
?_Reserve@?$vector@URINGMONSTER_DATA@@V?$allocator@URINGMONSTER_DATA@@@std@@@std@@IAEXI@Z ENDP ; std::vector<RINGMONSTER_DATA,std::allocator<RINGMONSTER_DATA> >::_Reserve
_TEXT	ENDS
PUBLIC	?_Reserve@?$vector@URINGMONSTER_EVENT_TIME@@V?$allocator@URINGMONSTER_EVENT_TIME@@@std@@@std@@IAEXI@Z ; std::vector<RINGMONSTER_EVENT_TIME,std::allocator<RINGMONSTER_EVENT_TIME> >::_Reserve
; Function compile flags: /Ogtp
;	COMDAT ?_Reserve@?$vector@URINGMONSTER_EVENT_TIME@@V?$allocator@URINGMONSTER_EVENT_TIME@@@std@@@std@@IAEXI@Z
_TEXT	SEGMENT
__Count$ = 8						; size = 4
?_Reserve@?$vector@URINGMONSTER_EVENT_TIME@@V?$allocator@URINGMONSTER_EVENT_TIME@@@std@@@std@@IAEXI@Z PROC ; std::vector<RINGMONSTER_EVENT_TIME,std::allocator<RINGMONSTER_EVENT_TIME> >::_Reserve, COMDAT
; _this$ = ecx

; 1290 : 		{	// ensure room for _Count new elements, grow exponentially

  00000	55		 push	 ebp
  00001	8b ec		 mov	 ebp, esp

; 1291 : 		size_type _Size = size();

  00003	8b 41 04	 mov	 eax, DWORD PTR [ecx+4]

; 1292 : 		if (max_size() - _Count < _Size)

  00006	8b 55 08	 mov	 edx, DWORD PTR __Count$[ebp]
  00009	56		 push	 esi
  0000a	8b 31		 mov	 esi, DWORD PTR [ecx]
  0000c	57		 push	 edi
  0000d	2b c6		 sub	 eax, esi
  0000f	bf ff ff ff 1f	 mov	 edi, 536870911		; 1fffffffH
  00014	c1 f8 03	 sar	 eax, 3
  00017	2b fa		 sub	 edi, edx
  00019	3b f8		 cmp	 edi, eax
  0001b	73 0a		 jae	 SHORT $LN4@Reserve@2

; 1293 : 			_Xlen();

  0001d	68 00 00 00 00	 push	 OFFSET ??_C@_0BD@OLBABOEK@vector?$DMT?$DO?5too?5long?$AA@
  00022	e8 00 00 00 00	 call	 ?_Xlength_error@std@@YAXPBD@Z ; std::_Xlength_error
$LN34@Reserve@2:
$LN4@Reserve@2:

; 1294 : 		else if ((_Size += _Count) <= capacity())

  00027	03 c2		 add	 eax, edx
  00029	8b 51 08	 mov	 edx, DWORD PTR [ecx+8]
  0002c	2b d6		 sub	 edx, esi
  0002e	c1 fa 03	 sar	 edx, 3
  00031	3b c2		 cmp	 eax, edx
  00033	76 21		 jbe	 SHORT $LN1@Reserve@2

; 1295 : 			;
; 1296 : 		else
; 1297 : 			reserve(_Grow_to(_Size));

  00035	8b f2		 mov	 esi, edx
  00037	d1 ee		 shr	 esi, 1
  00039	bf ff ff ff 1f	 mov	 edi, 536870911		; 1fffffffH
  0003e	2b fe		 sub	 edi, esi
  00040	3b fa		 cmp	 edi, edx
  00042	73 04		 jae	 SHORT $LN23@Reserve@2
  00044	33 d2		 xor	 edx, edx
  00046	eb 02		 jmp	 SHORT $LN24@Reserve@2
$LN23@Reserve@2:
  00048	03 d6		 add	 edx, esi
$LN24@Reserve@2:
  0004a	3b d0		 cmp	 edx, eax
  0004c	73 02		 jae	 SHORT $LN20@Reserve@2
  0004e	8b d0		 mov	 edx, eax
$LN20@Reserve@2:
  00050	52		 push	 edx
  00051	e8 00 00 00 00	 call	 ?reserve@?$vector@URINGMONSTER_EVENT_TIME@@V?$allocator@URINGMONSTER_EVENT_TIME@@@std@@@std@@QAEXI@Z ; std::vector<RINGMONSTER_EVENT_TIME,std::allocator<RINGMONSTER_EVENT_TIME> >::reserve
$LN1@Reserve@2:
  00056	5f		 pop	 edi
  00057	5e		 pop	 esi

; 1298 : 		}

  00058	5d		 pop	 ebp
  00059	c2 04 00	 ret	 4
$LN33@Reserve@2:
?_Reserve@?$vector@URINGMONSTER_EVENT_TIME@@V?$allocator@URINGMONSTER_EVENT_TIME@@@std@@@std@@IAEXI@Z ENDP ; std::vector<RINGMONSTER_EVENT_TIME,std::allocator<RINGMONSTER_EVENT_TIME> >::_Reserve
; Function compile flags: /Ogtp
_TEXT	ENDS
;	COMDAT ??_GCRingAttackEvent@@UAEPAXI@Z
_TEXT	SEGMENT
___flags$ = 8						; size = 4
??_GCRingAttackEvent@@UAEPAXI@Z PROC			; CRingAttackEvent::`scalar deleting destructor', COMDAT
; _this$ = ecx
  00000	55		 push	 ebp
  00001	8b ec		 mov	 ebp, esp
  00003	56		 push	 esi
  00004	8b f1		 mov	 esi, ecx
  00006	e8 00 00 00 00	 call	 ??1CRingAttackEvent@@UAE@XZ ; CRingAttackEvent::~CRingAttackEvent
  0000b	f6 45 08 01	 test	 BYTE PTR ___flags$[ebp], 1
  0000f	74 09		 je	 SHORT $LN4@scalar@3
  00011	56		 push	 esi
  00012	e8 00 00 00 00	 call	 ??3@YAXPAX@Z		; operator delete
  00017	83 c4 04	 add	 esp, 4
$LN4@scalar@3:
  0001a	8b c6		 mov	 eax, esi
  0001c	5e		 pop	 esi
  0001d	5d		 pop	 ebp
  0001e	c2 04 00	 ret	 4
??_GCRingAttackEvent@@UAEPAXI@Z ENDP			; CRingAttackEvent::`scalar deleting destructor'
_TEXT	ENDS
PUBLIC	?push_back@?$vector@URINGMONSTER_DATA@@V?$allocator@URINGMONSTER_DATA@@@std@@@std@@QAEXABURINGMONSTER_DATA@@@Z ; std::vector<RINGMONSTER_DATA,std::allocator<RINGMONSTER_DATA> >::push_back
; Function compile flags: /Ogtp
;	COMDAT ?push_back@?$vector@URINGMONSTER_DATA@@V?$allocator@URINGMONSTER_DATA@@@std@@@std@@QAEXABURINGMONSTER_DATA@@@Z
_TEXT	SEGMENT
__Val$ = 8						; size = 4
?push_back@?$vector@URINGMONSTER_DATA@@V?$allocator@URINGMONSTER_DATA@@@std@@@std@@QAEXABURINGMONSTER_DATA@@@Z PROC ; std::vector<RINGMONSTER_DATA,std::allocator<RINGMONSTER_DATA> >::push_back, COMDAT
; _this$ = ecx

; 976  : 		{	// insert element at end

  00000	55		 push	 ebp
  00001	8b ec		 mov	 ebp, esp
  00003	56		 push	 esi
  00004	8b f1		 mov	 esi, ecx

; 977  : 		if (_Inside(_STD addressof(_Val)))

  00006	8b 4e 04	 mov	 ecx, DWORD PTR [esi+4]
  00009	57		 push	 edi
  0000a	8b 7d 08	 mov	 edi, DWORD PTR __Val$[ebp]
  0000d	3b f9		 cmp	 edi, ecx
  0000f	73 49		 jae	 SHORT $LN4@push_back
  00011	8b 06		 mov	 eax, DWORD PTR [esi]
  00013	3b c7		 cmp	 eax, edi
  00015	77 43		 ja	 SHORT $LN4@push_back

; 978  : 			{	// push back an element
; 979  : 			size_type _Idx = _STD addressof(_Val) - this->_Myfirst;

  00017	2b f8		 sub	 edi, eax
  00019	b8 ab aa aa 2a	 mov	 eax, 715827883		; 2aaaaaabH
  0001e	f7 ef		 imul	 edi
  00020	d1 fa		 sar	 edx, 1
  00022	8b fa		 mov	 edi, edx
  00024	c1 ef 1f	 shr	 edi, 31			; 0000001fH
  00027	03 fa		 add	 edi, edx

; 980  : 			if (this->_Mylast == this->_Myend)

  00029	3b 4e 08	 cmp	 ecx, DWORD PTR [esi+8]
  0002c	75 09		 jne	 SHORT $LN3@push_back

; 981  : 				_Reserve(1);

  0002e	6a 01		 push	 1
  00030	8b ce		 mov	 ecx, esi
  00032	e8 00 00 00 00	 call	 ?_Reserve@?$vector@URINGMONSTER_DATA@@V?$allocator@URINGMONSTER_DATA@@@std@@@std@@IAEXI@Z ; std::vector<RINGMONSTER_DATA,std::allocator<RINGMONSTER_DATA> >::_Reserve
$LN3@push_back:

; 982  : 			_Orphan_range(this->_Mylast, this->_Mylast);
; 983  : 			_Cons_val(this->_Alval,
; 984  : 				this->_Mylast,
; 985  : 				this->_Myfirst[_Idx]);

  00037	8b 0e		 mov	 ecx, DWORD PTR [esi]
  00039	8d 04 7f	 lea	 eax, DWORD PTR [edi+edi*2]
  0003c	8d 14 81	 lea	 edx, DWORD PTR [ecx+eax*4]
  0003f	8b 46 04	 mov	 eax, DWORD PTR [esi+4]
  00042	52		 push	 edx
  00043	50		 push	 eax
  00044	8d 4e 0c	 lea	 ecx, DWORD PTR [esi+12]
  00047	51		 push	 ecx
  00048	e8 00 00 00 00	 call	 ??$_Cons_val@V?$allocator@URINGMONSTER_DATA@@@std@@URINGMONSTER_DATA@@AAU3@@std@@YAXAAV?$allocator@URINGMONSTER_DATA@@@0@PAURINGMONSTER_DATA@@AAU2@@Z ; std::_Cons_val<std::allocator<RINGMONSTER_DATA>,RINGMONSTER_DATA,RINGMONSTER_DATA &>

; 992  : 			_Orphan_range(this->_Mylast, this->_Mylast);
; 993  : 			_Cons_val(this->_Alval,
; 994  : 				this->_Mylast,
; 995  : 				_Val);

  0004d	83 c4 0c	 add	 esp, 12			; 0000000cH

; 996  : 			++this->_Mylast;

  00050	83 46 04 0c	 add	 DWORD PTR [esi+4], 12	; 0000000cH
  00054	5f		 pop	 edi
  00055	5e		 pop	 esi

; 997  : 			}
; 998  : 		}

  00056	5d		 pop	 ebp
  00057	c2 04 00	 ret	 4
$LN4@push_back:

; 986  : 			++this->_Mylast;
; 987  : 			}
; 988  : 		else
; 989  : 			{	// push back a non-element
; 990  : 			if (this->_Mylast == this->_Myend)

  0005a	3b 4e 08	 cmp	 ecx, DWORD PTR [esi+8]
  0005d	75 09		 jne	 SHORT $LN1@push_back

; 991  : 				_Reserve(1);

  0005f	6a 01		 push	 1
  00061	8b ce		 mov	 ecx, esi
  00063	e8 00 00 00 00	 call	 ?_Reserve@?$vector@URINGMONSTER_DATA@@V?$allocator@URINGMONSTER_DATA@@@std@@@std@@IAEXI@Z ; std::vector<RINGMONSTER_DATA,std::allocator<RINGMONSTER_DATA> >::_Reserve
$LN1@push_back:

; 992  : 			_Orphan_range(this->_Mylast, this->_Mylast);
; 993  : 			_Cons_val(this->_Alval,
; 994  : 				this->_Mylast,
; 995  : 				_Val);

  00068	8b 56 04	 mov	 edx, DWORD PTR [esi+4]
  0006b	57		 push	 edi
  0006c	52		 push	 edx
  0006d	8d 46 0c	 lea	 eax, DWORD PTR [esi+12]
  00070	50		 push	 eax
  00071	e8 00 00 00 00	 call	 ??$_Cons_val@V?$allocator@URINGMONSTER_DATA@@@std@@URINGMONSTER_DATA@@ABU3@@std@@YAXAAV?$allocator@URINGMONSTER_DATA@@@0@PAURINGMONSTER_DATA@@ABU2@@Z ; std::_Cons_val<std::allocator<RINGMONSTER_DATA>,RINGMONSTER_DATA,RINGMONSTER_DATA const &>
  00076	83 c4 0c	 add	 esp, 12			; 0000000cH

; 996  : 			++this->_Mylast;

  00079	83 46 04 0c	 add	 DWORD PTR [esi+4], 12	; 0000000cH
  0007d	5f		 pop	 edi
  0007e	5e		 pop	 esi

; 997  : 			}
; 998  : 		}

  0007f	5d		 pop	 ebp
  00080	c2 04 00	 ret	 4
?push_back@?$vector@URINGMONSTER_DATA@@V?$allocator@URINGMONSTER_DATA@@@std@@@std@@QAEXABURINGMONSTER_DATA@@@Z ENDP ; std::vector<RINGMONSTER_DATA,std::allocator<RINGMONSTER_DATA> >::push_back
_TEXT	ENDS
PUBLIC	?push_back@?$vector@URINGMONSTER_EVENT_TIME@@V?$allocator@URINGMONSTER_EVENT_TIME@@@std@@@std@@QAEXABURINGMONSTER_EVENT_TIME@@@Z ; std::vector<RINGMONSTER_EVENT_TIME,std::allocator<RINGMONSTER_EVENT_TIME> >::push_back
; Function compile flags: /Ogtp
;	COMDAT ?push_back@?$vector@URINGMONSTER_EVENT_TIME@@V?$allocator@URINGMONSTER_EVENT_TIME@@@std@@@std@@QAEXABURINGMONSTER_EVENT_TIME@@@Z
_TEXT	SEGMENT
__Val$ = 8						; size = 4
?push_back@?$vector@URINGMONSTER_EVENT_TIME@@V?$allocator@URINGMONSTER_EVENT_TIME@@@std@@@std@@QAEXABURINGMONSTER_EVENT_TIME@@@Z PROC ; std::vector<RINGMONSTER_EVENT_TIME,std::allocator<RINGMONSTER_EVENT_TIME> >::push_back, COMDAT
; _this$ = ecx

; 976  : 		{	// insert element at end

  00000	55		 push	 ebp
  00001	8b ec		 mov	 ebp, esp
  00003	56		 push	 esi
  00004	8b f1		 mov	 esi, ecx

; 977  : 		if (_Inside(_STD addressof(_Val)))

  00006	8b 46 04	 mov	 eax, DWORD PTR [esi+4]
  00009	57		 push	 edi
  0000a	8b 7d 08	 mov	 edi, DWORD PTR __Val$[ebp]
  0000d	3b f8		 cmp	 edi, eax
  0000f	73 39		 jae	 SHORT $LN4@push_back@2
  00011	8b 0e		 mov	 ecx, DWORD PTR [esi]
  00013	3b cf		 cmp	 ecx, edi
  00015	77 33		 ja	 SHORT $LN4@push_back@2

; 978  : 			{	// push back an element
; 979  : 			size_type _Idx = _STD addressof(_Val) - this->_Myfirst;

  00017	2b f9		 sub	 edi, ecx
  00019	c1 ff 03	 sar	 edi, 3

; 980  : 			if (this->_Mylast == this->_Myend)

  0001c	3b 46 08	 cmp	 eax, DWORD PTR [esi+8]
  0001f	75 09		 jne	 SHORT $LN3@push_back@2

; 981  : 				_Reserve(1);

  00021	6a 01		 push	 1
  00023	8b ce		 mov	 ecx, esi
  00025	e8 00 00 00 00	 call	 ?_Reserve@?$vector@URINGMONSTER_EVENT_TIME@@V?$allocator@URINGMONSTER_EVENT_TIME@@@std@@@std@@IAEXI@Z ; std::vector<RINGMONSTER_EVENT_TIME,std::allocator<RINGMONSTER_EVENT_TIME> >::_Reserve
$LN3@push_back@2:

; 982  : 			_Orphan_range(this->_Mylast, this->_Mylast);
; 983  : 			_Cons_val(this->_Alval,
; 984  : 				this->_Mylast,
; 985  : 				this->_Myfirst[_Idx]);

  0002a	8b 06		 mov	 eax, DWORD PTR [esi]
  0002c	8b 56 04	 mov	 edx, DWORD PTR [esi+4]
  0002f	8d 0c f8	 lea	 ecx, DWORD PTR [eax+edi*8]
  00032	51		 push	 ecx
  00033	52		 push	 edx
  00034	8d 46 0c	 lea	 eax, DWORD PTR [esi+12]
  00037	50		 push	 eax
  00038	e8 00 00 00 00	 call	 ??$_Cons_val@V?$allocator@URINGMONSTER_EVENT_TIME@@@std@@URINGMONSTER_EVENT_TIME@@AAU3@@std@@YAXAAV?$allocator@URINGMONSTER_EVENT_TIME@@@0@PAURINGMONSTER_EVENT_TIME@@AAU2@@Z ; std::_Cons_val<std::allocator<RINGMONSTER_EVENT_TIME>,RINGMONSTER_EVENT_TIME,RINGMONSTER_EVENT_TIME &>

; 992  : 			_Orphan_range(this->_Mylast, this->_Mylast);
; 993  : 			_Cons_val(this->_Alval,
; 994  : 				this->_Mylast,
; 995  : 				_Val);

  0003d	83 c4 0c	 add	 esp, 12			; 0000000cH

; 996  : 			++this->_Mylast;

  00040	83 46 04 08	 add	 DWORD PTR [esi+4], 8
  00044	5f		 pop	 edi
  00045	5e		 pop	 esi

; 997  : 			}
; 998  : 		}

  00046	5d		 pop	 ebp
  00047	c2 04 00	 ret	 4
$LN4@push_back@2:

; 986  : 			++this->_Mylast;
; 987  : 			}
; 988  : 		else
; 989  : 			{	// push back a non-element
; 990  : 			if (this->_Mylast == this->_Myend)

  0004a	3b 46 08	 cmp	 eax, DWORD PTR [esi+8]
  0004d	75 09		 jne	 SHORT $LN1@push_back@2

; 991  : 				_Reserve(1);

  0004f	6a 01		 push	 1
  00051	8b ce		 mov	 ecx, esi
  00053	e8 00 00 00 00	 call	 ?_Reserve@?$vector@URINGMONSTER_EVENT_TIME@@V?$allocator@URINGMONSTER_EVENT_TIME@@@std@@@std@@IAEXI@Z ; std::vector<RINGMONSTER_EVENT_TIME,std::allocator<RINGMONSTER_EVENT_TIME> >::_Reserve
$LN1@push_back@2:

; 992  : 			_Orphan_range(this->_Mylast, this->_Mylast);
; 993  : 			_Cons_val(this->_Alval,
; 994  : 				this->_Mylast,
; 995  : 				_Val);

  00058	8b 4e 04	 mov	 ecx, DWORD PTR [esi+4]
  0005b	57		 push	 edi
  0005c	51		 push	 ecx
  0005d	8d 56 0c	 lea	 edx, DWORD PTR [esi+12]
  00060	52		 push	 edx
  00061	e8 00 00 00 00	 call	 ??$_Cons_val@V?$allocator@URINGMONSTER_EVENT_TIME@@@std@@URINGMONSTER_EVENT_TIME@@ABU3@@std@@YAXAAV?$allocator@URINGMONSTER_EVENT_TIME@@@0@PAURINGMONSTER_EVENT_TIME@@ABU2@@Z ; std::_Cons_val<std::allocator<RINGMONSTER_EVENT_TIME>,RINGMONSTER_EVENT_TIME,RINGMONSTER_EVENT_TIME const &>
  00066	83 c4 0c	 add	 esp, 12			; 0000000cH

; 996  : 			++this->_Mylast;

  00069	83 46 04 08	 add	 DWORD PTR [esi+4], 8
  0006d	5f		 pop	 edi
  0006e	5e		 pop	 esi

; 997  : 			}
; 998  : 		}

  0006f	5d		 pop	 ebp
  00070	c2 04 00	 ret	 4
?push_back@?$vector@URINGMONSTER_EVENT_TIME@@V?$allocator@URINGMONSTER_EVENT_TIME@@@std@@@std@@QAEXABURINGMONSTER_EVENT_TIME@@@Z ENDP ; std::vector<RINGMONSTER_EVENT_TIME,std::allocator<RINGMONSTER_EVENT_TIME> >::push_back
_TEXT	ENDS
PUBLIC	??_C@_0O@CEHBAEMJ@?$CFs?5file?5load?$CB?$AA@	; `string'
PUBLIC	??_C@_03JBJLGPFL@end?$AA@			; `string'
PUBLIC	??_C@_0CG@OKIEPGH@?$FLRing?5Event?$FN?5Info?5file?5Load?5Fail@ ; `string'
PUBLIC	_lpszFileName$GSCopy$
PUBLIC	??_C@_01KDCPPGHE@r?$AA@				; `string'
PUBLIC	__$ArrayPad$
EXTRN	_fclose:PROC
EXTRN	?MsgBox@@YAXPADZZ:PROC				; MsgBox
EXTRN	_fopen:PROC
EXTRN	__ftol2_sse:PROC
;	COMDAT ??_C@_0O@CEHBAEMJ@?$CFs?5file?5load?$CB?$AA@
; File c:\program files (x86)\microsoft visual studio 10.0\vc\include\utility
CONST	SEGMENT
??_C@_0O@CEHBAEMJ@?$CFs?5file?5load?$CB?$AA@ DB '%s file load!', 00H ; `string'
CONST	ENDS
;	COMDAT ??_C@_03JBJLGPFL@end?$AA@
CONST	SEGMENT
??_C@_03JBJLGPFL@end?$AA@ DB 'end', 00H			; `string'
CONST	ENDS
;	COMDAT ??_C@_0CG@OKIEPGH@?$FLRing?5Event?$FN?5Info?5file?5Load?5Fail@
CONST	SEGMENT
??_C@_0CG@OKIEPGH@?$FLRing?5Event?$FN?5Info?5file?5Load?5Fail@ DB '[Ring '
	DB	'Event] Info file Load Fail [%s]', 00H	; `string'
CONST	ENDS
;	COMDAT ??_C@_01KDCPPGHE@r?$AA@
CONST	SEGMENT
??_C@_01KDCPPGHE@r?$AA@ DB 'r', 00H			; `string'
; Function compile flags: /Ogtp
; File c:\users\faelhs\mu-1.1\emu - gameserver sapphire s0\gameserver\ringattackevent.cpp
CONST	ENDS
;	COMDAT ?Load@CRingAttackEvent@@UAEHPAD@Z
_TEXT	SEGMENT
_pRET$155672 = -28					; size = 8
_lpszFileName$GSCopy$ = -20				; size = 4
_pRMD$155668 = -16					; size = 12
__$ArrayPad$ = -4					; size = 4
_lpszFileName$ = 8					; size = 4
?Load@CRingAttackEvent@@UAEHPAD@Z PROC			; CRingAttackEvent::Load, COMDAT
; _this$ = ecx

; 292  : {

  00000	55		 push	 ebp
  00001	8b ec		 mov	 ebp, esp
  00003	83 ec 1c	 sub	 esp, 28			; 0000001cH
  00006	a1 00 00 00 00	 mov	 eax, DWORD PTR ___security_cookie
  0000b	33 c5		 xor	 eax, ebp
  0000d	89 45 fc	 mov	 DWORD PTR __$ArrayPad$[ebp], eax
  00010	56		 push	 esi
  00011	8b 75 08	 mov	 esi, DWORD PTR _lpszFileName$[ebp]
  00014	57		 push	 edi

; 293  : 	SMDFile = fopen(lpszFileName, "r");

  00015	68 00 00 00 00	 push	 OFFSET ??_C@_01KDCPPGHE@r?$AA@
  0001a	56		 push	 esi
  0001b	8b f9		 mov	 edi, ecx

; 308  : 
; 309  : 	int Token;
; 310  : 	int type = -1;
; 311  : 
; 312  : 	while ( true )
; 313  : 	{
; 314  : 		Token = GetToken();

  0001d	89 75 ec	 mov	 DWORD PTR _lpszFileName$GSCopy$[ebp], esi
  00020	e8 00 00 00 00	 call	 _fopen
  00025	83 c4 08	 add	 esp, 8
  00028	a3 00 00 00 00	 mov	 DWORD PTR _SMDFile, eax
  0002d	85 c0		 test	 eax, eax
  0002f	75 22		 jne	 SHORT $LN17@Load

; 294  : 
; 295  : 	if ( SMDFile == NULL )
; 296  : 	{
; 297  : 		MsgBox("[Ring Event] Info file Load Fail [%s]", lpszFileName);

  00031	56		 push	 esi
  00032	68 00 00 00 00	 push	 OFFSET ??_C@_0CG@OKIEPGH@?$FLRing?5Event?$FN?5Info?5file?5Load?5Fail@
  00037	e8 00 00 00 00	 call	 ?MsgBox@@YAXPADZZ	; MsgBox
  0003c	83 c4 08	 add	 esp, 8
  0003f	5f		 pop	 edi

; 298  : 		return FALSE;

  00040	33 c0		 xor	 eax, eax
  00042	5e		 pop	 esi

; 405  : 	this->m_bHasData = TRUE;
; 406  : 
; 407  : 	return TRUE;
; 408  : }

  00043	8b 4d fc	 mov	 ecx, DWORD PTR __$ArrayPad$[ebp]
  00046	33 cd		 xor	 ecx, ebp
  00048	e8 00 00 00 00	 call	 @__security_check_cookie@4
  0004d	8b e5		 mov	 esp, ebp
  0004f	5d		 pop	 ebp
  00050	c2 04 00	 ret	 4
$LN17@Load:
  00053	53		 push	 ebx

; 299  : 	}
; 300  : 
; 301  : 	EnterCriticalSection(&this->m_critMonsterAddData);

  00054	8d 9f 2c 01 00
	00		 lea	 ebx, DWORD PTR [edi+300]
  0005a	53		 push	 ebx
  0005b	ff 15 00 00 00
	00		 call	 DWORD PTR __imp__EnterCriticalSection@4

; 302  : 	this->m_vtMonsterAddData.erase( this->m_vtMonsterAddData.begin(), this->m_vtMonsterAddData.end() );

  00061	8b 8f 1c 01 00
	00		 mov	 ecx, DWORD PTR [edi+284]
  00067	8b 87 20 01 00
	00		 mov	 eax, DWORD PTR [edi+288]
  0006d	3b c8		 cmp	 ecx, eax
  0006f	74 26		 je	 SHORT $LN36@Load
  00071	8b d0		 mov	 edx, eax
  00073	3b c2		 cmp	 eax, edx
  00075	74 1a		 je	 SHORT $LN65@Load
$LL67@Load:
  00077	8b 30		 mov	 esi, DWORD PTR [eax]
  00079	89 31		 mov	 DWORD PTR [ecx], esi
  0007b	8b 70 04	 mov	 esi, DWORD PTR [eax+4]
  0007e	89 71 04	 mov	 DWORD PTR [ecx+4], esi
  00081	8b 70 08	 mov	 esi, DWORD PTR [eax+8]
  00084	89 71 08	 mov	 DWORD PTR [ecx+8], esi
  00087	83 c0 0c	 add	 eax, 12			; 0000000cH
  0008a	83 c1 0c	 add	 ecx, 12			; 0000000cH
  0008d	3b c2		 cmp	 eax, edx
  0008f	75 e6		 jne	 SHORT $LL67@Load
$LN65@Load:
  00091	89 8f 20 01 00
	00		 mov	 DWORD PTR [edi+288], ecx
$LN36@Load:

; 303  : 	LeaveCriticalSection(&this->m_critMonsterAddData);

  00097	53		 push	 ebx
  00098	ff 15 00 00 00
	00		 call	 DWORD PTR __imp__LeaveCriticalSection@4

; 304  : 
; 305  : 	this->m_vtEventTime.erase( this->m_vtEventTime.begin(), this->m_vtEventTime.end() );

  0009e	8b 8f 44 01 00
	00		 mov	 ecx, DWORD PTR [edi+324]
  000a4	8b 87 48 01 00
	00		 mov	 eax, DWORD PTR [edi+328]
  000aa	3b c8		 cmp	 ecx, eax
  000ac	74 20		 je	 SHORT $LN88@Load
  000ae	8b d0		 mov	 edx, eax
  000b0	3b c2		 cmp	 eax, edx
  000b2	74 14		 je	 SHORT $LN117@Load
$LL119@Load:
  000b4	8b 30		 mov	 esi, DWORD PTR [eax]
  000b6	89 31		 mov	 DWORD PTR [ecx], esi
  000b8	8b 70 04	 mov	 esi, DWORD PTR [eax+4]
  000bb	89 71 04	 mov	 DWORD PTR [ecx+4], esi
  000be	83 c0 08	 add	 eax, 8
  000c1	83 c1 08	 add	 ecx, 8
  000c4	3b c2		 cmp	 eax, edx
  000c6	75 ec		 jne	 SHORT $LL119@Load
$LN117@Load:
  000c8	89 8f 48 01 00
	00		 mov	 DWORD PTR [edi+328], ecx
$LN88@Load:

; 306  : 
; 307  : 	this->m_bHasData = FALSE;

  000ce	c7 87 ec 00 00
	00 00 00 00 00	 mov	 DWORD PTR [edi+236], 0

; 308  : 
; 309  : 	int Token;
; 310  : 	int type = -1;
; 311  : 
; 312  : 	while ( true )
; 313  : 	{
; 314  : 		Token = GetToken();

  000d8	e8 00 00 00 00	 call	 ?GetToken@@YA?AW4SMDToken@@XZ ; GetToken

; 315  : 
; 316  : 		if ( Token == 2 )

  000dd	83 f8 02	 cmp	 eax, 2
  000e0	0f 84 46 02 00
	00		 je	 $LN134@Load
  000e6	eb 08 8d a4 24
	00 00 00 00 90	 npad	 10
$LL16@Load:

; 317  : 		{
; 318  : 			break;
; 319  : 		}
; 320  : 
; 321  : 		type = TokenNumber;

  000f0	d9 05 00 00 00
	00		 fld	 DWORD PTR _TokenNumber
  000f6	e8 00 00 00 00	 call	 __ftol2_sse
  000fb	8b f0		 mov	 esi, eax
  000fd	8d 49 00	 npad	 3
$LL13@Load:

; 322  : 
; 323  : 		while ( true )
; 324  : 		{
; 325  : 			if ( type == 0 )

  00100	85 f6		 test	 esi, esi
  00102	75 7b		 jne	 SHORT $LN11@Load

; 326  : 			{
; 327  : 				Token = GetToken();

  00104	e8 00 00 00 00	 call	 ?GetToken@@YA?AW4SMDToken@@XZ ; GetToken

; 328  : 
; 329  : 				if ( strcmp("end", TokenString) == 0 )

  00109	b9 00 00 00 00	 mov	 ecx, OFFSET _TokenString
  0010e	b8 00 00 00 00	 mov	 eax, OFFSET ??_C@_03JBJLGPFL@end?$AA@
$LL137@Load:
  00113	8a 10		 mov	 dl, BYTE PTR [eax]
  00115	3a 11		 cmp	 dl, BYTE PTR [ecx]
  00117	75 1a		 jne	 SHORT $LN138@Load
  00119	84 d2		 test	 dl, dl
  0011b	74 12		 je	 SHORT $LN139@Load
  0011d	8a 50 01	 mov	 dl, BYTE PTR [eax+1]
  00120	3a 51 01	 cmp	 dl, BYTE PTR [ecx+1]
  00123	75 0e		 jne	 SHORT $LN138@Load
  00125	83 c0 02	 add	 eax, 2
  00128	83 c1 02	 add	 ecx, 2
  0012b	84 d2		 test	 dl, dl
  0012d	75 e4		 jne	 SHORT $LL137@Load
$LN139@Load:
  0012f	33 c0		 xor	 eax, eax
  00131	eb 05		 jmp	 SHORT $LN140@Load
$LN138@Load:
  00133	1b c0		 sbb	 eax, eax
  00135	83 d8 ff	 sbb	 eax, -1
$LN140@Load:
  00138	85 c0		 test	 eax, eax
  0013a	0f 84 de 01 00
	00		 je	 $LN130@Load

; 330  : 				{
; 331  : 					break;
; 332  : 				}
; 333  : 
; 334  : 				this->m_iTIME_MIN_OPEN = TokenNumber;

  00140	d9 05 00 00 00
	00		 fld	 DWORD PTR _TokenNumber
  00146	e8 00 00 00 00	 call	 __ftol2_sse
  0014b	89 87 f8 00 00
	00		 mov	 DWORD PTR [edi+248], eax

; 335  : 
; 336  : 				Token = GetToken();

  00151	e8 00 00 00 00	 call	 ?GetToken@@YA?AW4SMDToken@@XZ ; GetToken

; 337  : 				this->m_iTIME_MIN_PLAY = TokenNumber;

  00156	d9 05 00 00 00
	00		 fld	 DWORD PTR _TokenNumber
  0015c	e8 00 00 00 00	 call	 __ftol2_sse
  00161	89 87 fc 00 00
	00		 mov	 DWORD PTR [edi+252], eax

; 338  : 
; 339  : 				Token = GetToken();

  00167	e8 00 00 00 00	 call	 ?GetToken@@YA?AW4SMDToken@@XZ ; GetToken

; 340  : 				this->m_iTIME_MONSTER_TO_DEST = TokenNumber;

  0016c	d9 05 00 00 00
	00		 fld	 DWORD PTR _TokenNumber
  00172	e8 00 00 00 00	 call	 __ftol2_sse
  00177	89 87 00 01 00
	00		 mov	 DWORD PTR [edi+256], eax
  0017d	eb 81		 jmp	 SHORT $LL13@Load
$LN11@Load:

; 341  : 			}
; 342  : 			else if ( type == 1 )

  0017f	83 fe 01	 cmp	 esi, 1
  00182	75 7e		 jne	 SHORT $LN8@Load

; 343  : 			{
; 344  : 				Token = GetToken();

  00184	e8 00 00 00 00	 call	 ?GetToken@@YA?AW4SMDToken@@XZ ; GetToken

; 345  : 
; 346  : 				if ( strcmp("end", TokenString) == 0 )

  00189	b9 00 00 00 00	 mov	 ecx, OFFSET _TokenString
  0018e	b8 00 00 00 00	 mov	 eax, OFFSET ??_C@_03JBJLGPFL@end?$AA@
$LL141@Load:
  00193	8a 10		 mov	 dl, BYTE PTR [eax]
  00195	3a 11		 cmp	 dl, BYTE PTR [ecx]
  00197	75 1a		 jne	 SHORT $LN142@Load
  00199	84 d2		 test	 dl, dl
  0019b	74 12		 je	 SHORT $LN143@Load
  0019d	8a 50 01	 mov	 dl, BYTE PTR [eax+1]
  001a0	3a 51 01	 cmp	 dl, BYTE PTR [ecx+1]
  001a3	75 0e		 jne	 SHORT $LN142@Load
  001a5	83 c0 02	 add	 eax, 2
  001a8	83 c1 02	 add	 ecx, 2
  001ab	84 d2		 test	 dl, dl
  001ad	75 e4		 jne	 SHORT $LL141@Load
$LN143@Load:
  001af	33 c0		 xor	 eax, eax
  001b1	eb 05		 jmp	 SHORT $LN144@Load
$LN142@Load:
  001b3	1b c0		 sbb	 eax, eax
  001b5	83 d8 ff	 sbb	 eax, -1
$LN144@Load:
  001b8	85 c0		 test	 eax, eax
  001ba	0f 84 5e 01 00
	00		 je	 $LN130@Load

; 347  : 				{
; 348  : 					break;
; 349  : 				}
; 350  : 
; 351  : 				this->m_iMOVE_RAND_SIZE = TokenNumber;

  001c0	d9 05 00 00 00
	00		 fld	 DWORD PTR _TokenNumber
  001c6	e8 00 00 00 00	 call	 __ftol2_sse
  001cb	89 87 10 01 00
	00		 mov	 DWORD PTR [edi+272], eax

; 352  : 
; 353  : 				Token = GetToken();

  001d1	e8 00 00 00 00	 call	 ?GetToken@@YA?AW4SMDToken@@XZ ; GetToken

; 354  : 				this->m_iRADIUS_MIN = TokenNumber;

  001d6	d9 05 00 00 00
	00		 fld	 DWORD PTR _TokenNumber
  001dc	e8 00 00 00 00	 call	 __ftol2_sse
  001e1	89 87 14 01 00
	00		 mov	 DWORD PTR [edi+276], eax

; 355  : 
; 356  : 				Token = GetToken();

  001e7	e8 00 00 00 00	 call	 ?GetToken@@YA?AW4SMDToken@@XZ ; GetToken

; 357  : 				this->m_iRADIUS_MAX = TokenNumber;

  001ec	d9 05 00 00 00
	00		 fld	 DWORD PTR _TokenNumber
  001f2	e8 00 00 00 00	 call	 __ftol2_sse
  001f7	89 87 18 01 00
	00		 mov	 DWORD PTR [edi+280], eax
  001fd	e9 fe fe ff ff	 jmp	 $LL13@Load
$LN8@Load:

; 358  : 			}
; 359  : 			else if ( type == 2 )

  00202	83 fe 02	 cmp	 esi, 2
  00205	0f 85 98 00 00
	00		 jne	 $LN5@Load

; 360  : 			{
; 361  : 				Token = GetToken();

  0020b	e8 00 00 00 00	 call	 ?GetToken@@YA?AW4SMDToken@@XZ ; GetToken

; 362  : 
; 363  : 				if ( strcmp("end", TokenString) == 0 )

  00210	b9 00 00 00 00	 mov	 ecx, OFFSET _TokenString
  00215	b8 00 00 00 00	 mov	 eax, OFFSET ??_C@_03JBJLGPFL@end?$AA@
  0021a	8d 9b 00 00 00
	00		 npad	 6
$LL145@Load:
  00220	8a 10		 mov	 dl, BYTE PTR [eax]
  00222	3a 11		 cmp	 dl, BYTE PTR [ecx]
  00224	75 1a		 jne	 SHORT $LN146@Load
  00226	84 d2		 test	 dl, dl
  00228	74 12		 je	 SHORT $LN147@Load
  0022a	8a 50 01	 mov	 dl, BYTE PTR [eax+1]
  0022d	3a 51 01	 cmp	 dl, BYTE PTR [ecx+1]
  00230	75 0e		 jne	 SHORT $LN146@Load
  00232	83 c0 02	 add	 eax, 2
  00235	83 c1 02	 add	 ecx, 2
  00238	84 d2		 test	 dl, dl
  0023a	75 e4		 jne	 SHORT $LL145@Load
$LN147@Load:
  0023c	33 c0		 xor	 eax, eax
  0023e	eb 05		 jmp	 SHORT $LN148@Load
$LN146@Load:
  00240	1b c0		 sbb	 eax, eax
  00242	83 d8 ff	 sbb	 eax, -1
$LN148@Load:
  00245	85 c0		 test	 eax, eax
  00247	0f 84 d1 00 00
	00		 je	 $LN130@Load

; 364  : 				{
; 365  : 					break;
; 366  : 				}
; 367  : 
; 368  : 				RINGMONSTER_DATA pRMD;
; 369  : 
; 370  : 				pRMD.m_iType = TokenNumber;

  0024d	d9 05 00 00 00
	00		 fld	 DWORD PTR _TokenNumber
  00253	e8 00 00 00 00	 call	 __ftol2_sse
  00258	89 45 f0	 mov	 DWORD PTR _pRMD$155668[ebp], eax

; 371  : 
; 372  : 				Token = GetToken();

  0025b	e8 00 00 00 00	 call	 ?GetToken@@YA?AW4SMDToken@@XZ ; GetToken

; 373  : 				pRMD.m_bDoRegen = TokenNumber;

  00260	d9 05 00 00 00
	00		 fld	 DWORD PTR _TokenNumber
  00266	e8 00 00 00 00	 call	 __ftol2_sse
  0026b	89 45 f4	 mov	 DWORD PTR _pRMD$155668[ebp+4], eax

; 374  : 
; 375  : 				Token= GetToken();

  0026e	e8 00 00 00 00	 call	 ?GetToken@@YA?AW4SMDToken@@XZ ; GetToken

; 376  : 				pRMD.m_bDoAttackFirst = TokenNumber;

  00273	d9 05 00 00 00
	00		 fld	 DWORD PTR _TokenNumber
  00279	e8 00 00 00 00	 call	 __ftol2_sse

; 377  : 
; 378  : 				EnterCriticalSection(&this->m_critMonsterAddData);

  0027e	53		 push	 ebx
  0027f	89 45 f8	 mov	 DWORD PTR _pRMD$155668[ebp+8], eax
  00282	ff 15 00 00 00
	00		 call	 DWORD PTR __imp__EnterCriticalSection@4

; 379  : 				this->m_vtMonsterAddData.push_back(pRMD);

  00288	8d 45 f0	 lea	 eax, DWORD PTR _pRMD$155668[ebp]
  0028b	50		 push	 eax
  0028c	8d 8f 1c 01 00
	00		 lea	 ecx, DWORD PTR [edi+284]
  00292	e8 00 00 00 00	 call	 ?push_back@?$vector@URINGMONSTER_DATA@@V?$allocator@URINGMONSTER_DATA@@@std@@@std@@QAEXABURINGMONSTER_DATA@@@Z ; std::vector<RINGMONSTER_DATA,std::allocator<RINGMONSTER_DATA> >::push_back

; 380  : 				LeaveCriticalSection(&this->m_critMonsterAddData);

  00297	53		 push	 ebx
  00298	ff 15 00 00 00
	00		 call	 DWORD PTR __imp__LeaveCriticalSection@4
  0029e	e9 5d fe ff ff	 jmp	 $LL13@Load
$LN5@Load:

; 381  : 			}
; 382  : 			else if ( type == 3 )

  002a3	83 fe 03	 cmp	 esi, 3
  002a6	0f 85 54 fe ff
	ff		 jne	 $LL13@Load

; 383  : 			{
; 384  : 				Token = GetToken();

  002ac	e8 00 00 00 00	 call	 ?GetToken@@YA?AW4SMDToken@@XZ ; GetToken

; 385  : 
; 386  : 				if ( strcmp("end", TokenString) == 0 )

  002b1	b9 00 00 00 00	 mov	 ecx, OFFSET _TokenString
  002b6	b8 00 00 00 00	 mov	 eax, OFFSET ??_C@_03JBJLGPFL@end?$AA@
  002bb	eb 03 8d 49 00	 npad	 5
$LL149@Load:
  002c0	8a 10		 mov	 dl, BYTE PTR [eax]
  002c2	3a 11		 cmp	 dl, BYTE PTR [ecx]
  002c4	75 1a		 jne	 SHORT $LN150@Load
  002c6	84 d2		 test	 dl, dl
  002c8	74 12		 je	 SHORT $LN151@Load
  002ca	8a 50 01	 mov	 dl, BYTE PTR [eax+1]
  002cd	3a 51 01	 cmp	 dl, BYTE PTR [ecx+1]
  002d0	75 0e		 jne	 SHORT $LN150@Load
  002d2	83 c0 02	 add	 eax, 2
  002d5	83 c1 02	 add	 ecx, 2
  002d8	84 d2		 test	 dl, dl
  002da	75 e4		 jne	 SHORT $LL149@Load
$LN151@Load:
  002dc	33 c0		 xor	 eax, eax
  002de	eb 05		 jmp	 SHORT $LN152@Load
$LN150@Load:
  002e0	1b c0		 sbb	 eax, eax
  002e2	83 d8 ff	 sbb	 eax, -1
$LN152@Load:
  002e5	85 c0		 test	 eax, eax
  002e7	74 35		 je	 SHORT $LN130@Load

; 387  : 				{
; 388  : 					break;
; 389  : 				}
; 390  : 
; 391  : 				RINGMONSTER_EVENT_TIME pRET;
; 392  : 
; 393  : 				pRET.m_iHour = TokenNumber;

  002e9	d9 05 00 00 00
	00		 fld	 DWORD PTR _TokenNumber
  002ef	e8 00 00 00 00	 call	 __ftol2_sse
  002f4	89 45 e4	 mov	 DWORD PTR _pRET$155672[ebp], eax

; 394  : 
; 395  : 				Token = GetToken();

  002f7	e8 00 00 00 00	 call	 ?GetToken@@YA?AW4SMDToken@@XZ ; GetToken

; 396  : 				pRET.m_iMinute = TokenNumber;

  002fc	d9 05 00 00 00
	00		 fld	 DWORD PTR _TokenNumber
  00302	e8 00 00 00 00	 call	 __ftol2_sse

; 397  : 
; 398  : 				this->m_vtEventTime.push_back(pRET);

  00307	8d 4d e4	 lea	 ecx, DWORD PTR _pRET$155672[ebp]
  0030a	51		 push	 ecx
  0030b	8d 8f 44 01 00
	00		 lea	 ecx, DWORD PTR [edi+324]
  00311	89 45 e8	 mov	 DWORD PTR _pRET$155672[ebp+4], eax
  00314	e8 00 00 00 00	 call	 ?push_back@?$vector@URINGMONSTER_EVENT_TIME@@V?$allocator@URINGMONSTER_EVENT_TIME@@@std@@@std@@QAEXABURINGMONSTER_EVENT_TIME@@@Z ; std::vector<RINGMONSTER_EVENT_TIME,std::allocator<RINGMONSTER_EVENT_TIME> >::push_back

; 399  : 			}
; 400  : 		}

  00319	e9 e2 fd ff ff	 jmp	 $LL13@Load
$LN130@Load:

; 308  : 
; 309  : 	int Token;
; 310  : 	int type = -1;
; 311  : 
; 312  : 	while ( true )
; 313  : 	{
; 314  : 		Token = GetToken();

  0031e	e8 00 00 00 00	 call	 ?GetToken@@YA?AW4SMDToken@@XZ ; GetToken

; 315  : 
; 316  : 		if ( Token == 2 )

  00323	83 f8 02	 cmp	 eax, 2
  00326	0f 85 c4 fd ff
	ff		 jne	 $LL16@Load
$LN134@Load:

; 401  : 	}
; 402  : 
; 403  : 	fclose(SMDFile);

  0032c	8b 15 00 00 00
	00		 mov	 edx, DWORD PTR _SMDFile
  00332	52		 push	 edx
  00333	e8 00 00 00 00	 call	 _fclose

; 404  : 	LogAdd(LOG_BLACK, "%s file load!", lpszFileName);

  00338	8b 45 ec	 mov	 eax, DWORD PTR _lpszFileName$GSCopy$[ebp]
  0033b	50		 push	 eax
  0033c	68 00 00 00 00	 push	 OFFSET ??_C@_0O@CEHBAEMJ@?$CFs?5file?5load?$CB?$AA@
  00341	6a 00		 push	 0
  00343	e8 00 00 00 00	 call	 ?LogAdd@@YAXW4eLogColor@@PADZZ ; LogAdd

; 405  : 	this->m_bHasData = TRUE;
; 406  : 
; 407  : 	return TRUE;
; 408  : }

  00348	8b 4d fc	 mov	 ecx, DWORD PTR __$ArrayPad$[ebp]
  0034b	83 c4 10	 add	 esp, 16			; 00000010H
  0034e	b8 01 00 00 00	 mov	 eax, 1
  00353	5b		 pop	 ebx
  00354	89 87 ec 00 00
	00		 mov	 DWORD PTR [edi+236], eax
  0035a	5f		 pop	 edi
  0035b	33 cd		 xor	 ecx, ebp
  0035d	5e		 pop	 esi
  0035e	e8 00 00 00 00	 call	 @__security_check_cookie@4
  00363	8b e5		 mov	 esp, ebp
  00365	5d		 pop	 ebp
  00366	c2 04 00	 ret	 4
?Load@CRingAttackEvent@@UAEHPAD@Z ENDP			; CRingAttackEvent::Load
_TEXT	ENDS
END
