; Listing generated by Microsoft (R) Optimizing Compiler Version 16.00.30319.01 

	TITLE	C:\Users\faelhs\mu-1.1\eMu - GameServer Sapphire S0\GameServer\ServerInfo.cpp
	.686P
	.XMM
	include listing.inc
	.model	flat

INCLUDELIB LIBCMT
INCLUDELIB OLDNAMES

PUBLIC	?gServerInfo@@3VCServerInfo@@A			; gServerInfo
_BSS	SEGMENT
?gServerInfo@@3VCServerInfo@@A DB 02c4H DUP (?)		; gServerInfo
_BSS	ENDS
PUBLIC	??_C@_0N@GONKKLJL@DataServerIP?$AA@		; `string'
PUBLIC	??_C@_0P@KCPFKKD@DataServerPort?$AA@		; `string'
PUBLIC	??_C@_0N@KOPNFGLM@ExDBServerIP?$AA@		; `string'
PUBLIC	??_C@_0P@BDOGKGEA@ExDBServerPort?$AA@		; `string'
PUBLIC	??_C@_0P@KNHIEOID@JoinServerPort?$AA@		; `string'
PUBLIC	??_C@_0N@OJGEKGHE@JoinServerIP?$AA@		; `string'
PUBLIC	??_C@_09PFCHIMEP@127?40?40?41?$AA@		; `string'
PUBLIC	??_C@_0P@CLMGKHJH@GameServerPort?$AA@		; `string'
PUBLIC	??_C@_0P@EMJDPFDH@GameServerInfo?$AA@		; `string'
PUBLIC	??_C@_0O@HEDEOKBI@ServerUpdPort?$AA@		; `string'
PUBLIC	??_C@_0BF@GFIEDMEK@?4?2Hgt_GameServer?4ini?$AA@	; `string'
PUBLIC	?Connect@CServerInfo@@QAEXXZ			; CServerInfo::Connect
EXTRN	?DataServerPort@@3GA:WORD			; DataServerPort
EXTRN	?DataServerIp@@3PADA:BYTE			; DataServerIp
EXTRN	?ExDbPort@@3GA:WORD				; ExDbPort
EXTRN	?ExDbIp@@3PADA:BYTE				; ExDbIp
EXTRN	?JoinServerPort@@3GA:WORD			; JoinServerPort
EXTRN	?GameServerPort@@3GA:WORD			; GameServerPort
EXTRN	?JoinServerIp@@3PADA:BYTE			; JoinServerIp
EXTRN	__imp__GetPrivateProfileStringA@24:PROC
EXTRN	?UDPPort@@3GA:WORD				; UDPPort
EXTRN	__imp__GetPrivateProfileIntA@16:PROC
;	COMDAT ??_C@_0N@GONKKLJL@DataServerIP?$AA@
; File c:\users\faelhs\mu-1.1\emu - gameserver sapphire s0\gameserver\serverinfo.cpp
CONST	SEGMENT
??_C@_0N@GONKKLJL@DataServerIP?$AA@ DB 'DataServerIP', 00H ; `string'
CONST	ENDS
;	COMDAT ??_C@_0P@KCPFKKD@DataServerPort?$AA@
CONST	SEGMENT
??_C@_0P@KCPFKKD@DataServerPort?$AA@ DB 'DataServerPort', 00H ; `string'
CONST	ENDS
;	COMDAT ??_C@_0N@KOPNFGLM@ExDBServerIP?$AA@
CONST	SEGMENT
??_C@_0N@KOPNFGLM@ExDBServerIP?$AA@ DB 'ExDBServerIP', 00H ; `string'
CONST	ENDS
;	COMDAT ??_C@_0P@BDOGKGEA@ExDBServerPort?$AA@
CONST	SEGMENT
??_C@_0P@BDOGKGEA@ExDBServerPort?$AA@ DB 'ExDBServerPort', 00H ; `string'
CONST	ENDS
;	COMDAT ??_C@_0P@KNHIEOID@JoinServerPort?$AA@
CONST	SEGMENT
??_C@_0P@KNHIEOID@JoinServerPort?$AA@ DB 'JoinServerPort', 00H ; `string'
CONST	ENDS
;	COMDAT ??_C@_0N@OJGEKGHE@JoinServerIP?$AA@
CONST	SEGMENT
??_C@_0N@OJGEKGHE@JoinServerIP?$AA@ DB 'JoinServerIP', 00H ; `string'
CONST	ENDS
;	COMDAT ??_C@_09PFCHIMEP@127?40?40?41?$AA@
CONST	SEGMENT
??_C@_09PFCHIMEP@127?40?40?41?$AA@ DB '127.0.0.1', 00H	; `string'
CONST	ENDS
;	COMDAT ??_C@_0P@CLMGKHJH@GameServerPort?$AA@
CONST	SEGMENT
??_C@_0P@CLMGKHJH@GameServerPort?$AA@ DB 'GameServerPort', 00H ; `string'
CONST	ENDS
;	COMDAT ??_C@_0P@EMJDPFDH@GameServerInfo?$AA@
CONST	SEGMENT
??_C@_0P@EMJDPFDH@GameServerInfo?$AA@ DB 'GameServerInfo', 00H ; `string'
CONST	ENDS
;	COMDAT ??_C@_0O@HEDEOKBI@ServerUpdPort?$AA@
CONST	SEGMENT
??_C@_0O@HEDEOKBI@ServerUpdPort?$AA@ DB 'ServerUpdPort', 00H ; `string'
CONST	ENDS
;	COMDAT ??_C@_0BF@GFIEDMEK@?4?2Hgt_GameServer?4ini?$AA@
CONST	SEGMENT
??_C@_0BF@GFIEDMEK@?4?2Hgt_GameServer?4ini?$AA@ DB '.\Hgt_GameServer.ini', 00H ; `string'
; Function compile flags: /Ogtp
CONST	ENDS
;	COMDAT ?Connect@CServerInfo@@QAEXXZ
_TEXT	SEGMENT
?Connect@CServerInfo@@QAEXXZ PROC			; CServerInfo::Connect, COMDAT
; _this$ = ecx

; 22   : {

  00000	56		 push	 esi

; 23   : 	UDPPort						= GetPrivateProfileInt("GameServerInfo","ServerUpdPort", 60006, SERVER_FILE);

  00001	8b 35 00 00 00
	00		 mov	 esi, DWORD PTR __imp__GetPrivateProfileIntA@16
  00007	57		 push	 edi
  00008	68 00 00 00 00	 push	 OFFSET ??_C@_0BF@GFIEDMEK@?4?2Hgt_GameServer?4ini?$AA@
  0000d	68 66 ea 00 00	 push	 60006			; 0000ea66H
  00012	68 00 00 00 00	 push	 OFFSET ??_C@_0O@HEDEOKBI@ServerUpdPort?$AA@
  00017	68 00 00 00 00	 push	 OFFSET ??_C@_0P@EMJDPFDH@GameServerInfo?$AA@
  0001c	ff d6		 call	 esi

; 24   : 	GameServerPort				= GetPrivateProfileInt("GameServerInfo","GameServerPort", 55901, SERVER_FILE);

  0001e	68 00 00 00 00	 push	 OFFSET ??_C@_0BF@GFIEDMEK@?4?2Hgt_GameServer?4ini?$AA@
  00023	68 5d da 00 00	 push	 55901			; 0000da5dH
  00028	68 00 00 00 00	 push	 OFFSET ??_C@_0P@CLMGKHJH@GameServerPort?$AA@
  0002d	68 00 00 00 00	 push	 OFFSET ??_C@_0P@EMJDPFDH@GameServerInfo?$AA@
  00032	66 a3 00 00 00
	00		 mov	 WORD PTR ?UDPPort@@3GA, ax ; UDPPort
  00038	ff d6		 call	 esi

; 25   : 	// ---
; 26   : 	GetPrivateProfileString("GameServerInfo", "JoinServerIP", "127.0.0.1", JoinServerIp, 256, SERVER_FILE);

  0003a	8b 3d 00 00 00
	00		 mov	 edi, DWORD PTR __imp__GetPrivateProfileStringA@24
  00040	68 00 00 00 00	 push	 OFFSET ??_C@_0BF@GFIEDMEK@?4?2Hgt_GameServer?4ini?$AA@
  00045	68 00 01 00 00	 push	 256			; 00000100H
  0004a	68 00 00 00 00	 push	 OFFSET ?JoinServerIp@@3PADA ; JoinServerIp
  0004f	68 00 00 00 00	 push	 OFFSET ??_C@_09PFCHIMEP@127?40?40?41?$AA@
  00054	68 00 00 00 00	 push	 OFFSET ??_C@_0N@OJGEKGHE@JoinServerIP?$AA@
  00059	68 00 00 00 00	 push	 OFFSET ??_C@_0P@EMJDPFDH@GameServerInfo?$AA@
  0005e	66 a3 00 00 00
	00		 mov	 WORD PTR ?GameServerPort@@3GA, ax ; GameServerPort
  00064	ff d7		 call	 edi

; 27   : 	JoinServerPort				= GetPrivateProfileInt("GameServerInfo","JoinServerPort", 55970, SERVER_FILE);

  00066	68 00 00 00 00	 push	 OFFSET ??_C@_0BF@GFIEDMEK@?4?2Hgt_GameServer?4ini?$AA@
  0006b	68 a2 da 00 00	 push	 55970			; 0000daa2H
  00070	68 00 00 00 00	 push	 OFFSET ??_C@_0P@KNHIEOID@JoinServerPort?$AA@
  00075	68 00 00 00 00	 push	 OFFSET ??_C@_0P@EMJDPFDH@GameServerInfo?$AA@
  0007a	ff d6		 call	 esi

; 28   : 	// ---
; 29   : 	ExDbPort					= GetPrivateProfileInt("GameServerInfo","ExDBServerPort", 55906, SERVER_FILE);

  0007c	68 00 00 00 00	 push	 OFFSET ??_C@_0BF@GFIEDMEK@?4?2Hgt_GameServer?4ini?$AA@
  00081	68 62 da 00 00	 push	 55906			; 0000da62H
  00086	68 00 00 00 00	 push	 OFFSET ??_C@_0P@BDOGKGEA@ExDBServerPort?$AA@
  0008b	68 00 00 00 00	 push	 OFFSET ??_C@_0P@EMJDPFDH@GameServerInfo?$AA@
  00090	66 a3 00 00 00
	00		 mov	 WORD PTR ?JoinServerPort@@3GA, ax ; JoinServerPort
  00096	ff d6		 call	 esi

; 30   : 	GetPrivateProfileString("GameServerInfo", "ExDBServerIP", "127.0.0.1", ExDbIp, 256, SERVER_FILE);

  00098	68 00 00 00 00	 push	 OFFSET ??_C@_0BF@GFIEDMEK@?4?2Hgt_GameServer?4ini?$AA@
  0009d	68 00 01 00 00	 push	 256			; 00000100H
  000a2	68 00 00 00 00	 push	 OFFSET ?ExDbIp@@3PADA	; ExDbIp
  000a7	68 00 00 00 00	 push	 OFFSET ??_C@_09PFCHIMEP@127?40?40?41?$AA@
  000ac	68 00 00 00 00	 push	 OFFSET ??_C@_0N@KOPNFGLM@ExDBServerIP?$AA@
  000b1	68 00 00 00 00	 push	 OFFSET ??_C@_0P@EMJDPFDH@GameServerInfo?$AA@
  000b6	66 a3 00 00 00
	00		 mov	 WORD PTR ?ExDbPort@@3GA, ax ; ExDbPort
  000bc	ff d7		 call	 edi

; 31   : 	// ---
; 32   : 	DataServerPort				= GetPrivateProfileInt("GameServerInfo","DataServerPort", 55960, SERVER_FILE);

  000be	68 00 00 00 00	 push	 OFFSET ??_C@_0BF@GFIEDMEK@?4?2Hgt_GameServer?4ini?$AA@
  000c3	68 98 da 00 00	 push	 55960			; 0000da98H
  000c8	68 00 00 00 00	 push	 OFFSET ??_C@_0P@KCPFKKD@DataServerPort?$AA@
  000cd	68 00 00 00 00	 push	 OFFSET ??_C@_0P@EMJDPFDH@GameServerInfo?$AA@
  000d2	ff d6		 call	 esi

; 33   : 	GetPrivateProfileString("GameServerInfo", "DataServerIP", "127.0.0.1", DataServerIp, 256, SERVER_FILE);

  000d4	68 00 00 00 00	 push	 OFFSET ??_C@_0BF@GFIEDMEK@?4?2Hgt_GameServer?4ini?$AA@
  000d9	68 00 01 00 00	 push	 256			; 00000100H
  000de	68 00 00 00 00	 push	 OFFSET ?DataServerIp@@3PADA ; DataServerIp
  000e3	68 00 00 00 00	 push	 OFFSET ??_C@_09PFCHIMEP@127?40?40?41?$AA@
  000e8	68 00 00 00 00	 push	 OFFSET ??_C@_0N@GONKKLJL@DataServerIP?$AA@
  000ed	68 00 00 00 00	 push	 OFFSET ??_C@_0P@EMJDPFDH@GameServerInfo?$AA@
  000f2	66 a3 00 00 00
	00		 mov	 WORD PTR ?DataServerPort@@3GA, ax ; DataServerPort
  000f8	ff d7		 call	 edi
  000fa	5f		 pop	 edi
  000fb	5e		 pop	 esi

; 34   : }

  000fc	c3		 ret	 0
?Connect@CServerInfo@@QAEXXZ ENDP			; CServerInfo::Connect
_TEXT	ENDS
PUBLIC	??_C@_0BI@OMHFPPJG@Pet_DarkHorse_AddDamage?$AA@	; `string'
PUBLIC	??_C@_0BF@JOOEHJCI@Pet_Angel_AddDefense?$AA@	; `string'
PUBLIC	??_C@_0BH@EKGPMNOH@Pet_Dinorant_AddDamage?$AA@	; `string'
PUBLIC	??_C@_0BE@MOAAEBAG@Pet_Satan_AddDamage?$AA@	; `string'
PUBLIC	??_C@_0O@MMFCOONI@ItemDrop_Luck?$AA@		; `string'
PUBLIC	??_C@_0P@GCOEDOP@ItemDrop_Skill?$AA@		; `string'
PUBLIC	??_C@_0BH@PPCOCEBG@ItemDrop_ExcellentLuck?$AA@	; `string'
PUBLIC	??_C@_0BI@HKMBNAJC@ItemDrop_ExcellentSkill?$AA@	; `string'
PUBLIC	??_C@_0BD@PMCBNPEL@ItemDrop_Excellent?$AA@	; `string'
PUBLIC	??_C@_0BL@JBCBPCBE@PartyExp_SetPercentDefault?$AA@ ; `string'
PUBLIC	??_C@_0BF@CIKKNCNP@PartyExp_SetPercent5?$AA@	; `string'
PUBLIC	??_C@_0BF@DBLBODJO@PartyExp_SetPercent4?$AA@	; `string'
PUBLIC	??_C@_0BF@HOPAHFFJ@PartyExp_SetPercent3?$AA@	; `string'
PUBLIC	??_C@_0BF@GHOLEEBI@PartyExp_SetPercent2?$AA@	; `string'
PUBLIC	??_C@_0BI@MGONKCHB@PartyExp_PercentDefault?$AA@	; `string'
PUBLIC	??_C@_0BC@DIKDJGNL@PartyExp_Percent5?$AA@	; `string'
PUBLIC	??_C@_0BC@CBLIKHJK@PartyExp_Percent4?$AA@	; `string'
PUBLIC	??_C@_0BC@GOPJDBFN@PartyExp_Percent3?$AA@	; `string'
PUBLIC	??_C@_0BG@LBPCFLIE@TranformRing_DeathCow?$AA@	; `string'
PUBLIC	??_C@_0BI@HOAOPFPH@TranformRing_PoisonBull?$AA@	; `string'
PUBLIC	??_C@_0BJ@PAHEAKA@TranformRing_ThunderLich?$AA@	; `string'
PUBLIC	??_C@_0BG@HJHPGPFK@TranformRing_Skeleton?$AA@	; `string'
PUBLIC	??_C@_0BD@PPPMDONO@TranformRing_Giant?$AA@	; `string'
PUBLIC	??_C@_0BJ@MOCBCNCP@TranformRing_BudgeDragon?$AA@ ; `string'
PUBLIC	??_C@_0BI@KJNLBLOI@Recovery_Mana_Large_Div?$AA@	; `string'
PUBLIC	??_C@_0BE@LBFPHMJP@Recovery_Mana_Large?$AA@	; `string'
PUBLIC	??_C@_0BJ@KJFGDGAH@Recovery_Mana_Medium_Div?$AA@ ; `string'
PUBLIC	??_C@_0BF@JOONDLIA@Recovery_Mana_Medium?$AA@	; `string'
PUBLIC	??_C@_0BI@EOHGABGD@Recovery_Mana_Small_Div?$AA@	; `string'
PUBLIC	??_C@_0BE@BJBEINAJ@Recovery_Mana_Small?$AA@	; `string'
PUBLIC	??_C@_0BF@HOEPDEMC@Recovery_Healing_Div?$AA@	; `string'
PUBLIC	??_C@_0BH@NOCLCDIK@Recovery_Healing_Large?$AA@	; `string'
PUBLIC	??_C@_0BI@PDFPKLDE@Recovery_Healing_Medium?$AA@	; `string'
PUBLIC	??_C@_0BH@HGGANCBM@Recovery_Healing_Small?$AA@	; `string'
PUBLIC	??_C@_0BH@JJGJKJAM@Recovery_Healing_Apple?$AA@	; `string'
PUBLIC	??_C@_0BC@DFPLDDFL@LevelUpPointsPlus?$AA@	; `string'
PUBLIC	??_C@_0BA@DBOGNGCM@LevelUpPointsDL?$AA@		; `string'
PUBLIC	??_C@_0BA@NNMDDEGI@LevelUpPointsMG?$AA@		; `string'
PUBLIC	??_C@_0BA@ODKALJAL@LevelUpPointsFE?$AA@		; `string'
PUBLIC	??_C@_0BA@HOKHEAOL@LevelUpPointsDK?$AA@		; `string'
PUBLIC	??_C@_0BA@JINABNLG@LevelUpPointsDW?$AA@		; `string'
PUBLIC	??_C@_0L@GADIOFCA@StartMapDL?$AA@		; `string'
PUBLIC	??_C@_0L@IMBNAHGE@StartMapMG?$AA@		; `string'
PUBLIC	??_C@_0L@LCHOIKAH@StartMapFE?$AA@		; `string'
PUBLIC	??_C@_0L@MJAOCOLK@StartMapDW?$AA@		; `string'
PUBLIC	??_C@_0L@CPHJHDOH@StartMapDK?$AA@		; `string'
PUBLIC	??_C@_06GOOKGCKJ@AddZen?$AA@			; `string'
PUBLIC	__real@00000000
PUBLIC	??_C@_0BE@IMKNPHAF@AncientAndExcellent?$AA@	; `string'
PUBLIC	??_C@_0N@CAKKMODH@ItemDropTime?$AA@		; `string'
PUBLIC	??_C@_0O@FPAOMFKL@SkillNotLevel?$AA@		; `string'
PUBLIC	??_C@_0BA@EPIDNBFI@ServerMaxStatus?$AA@		; `string'
PUBLIC	??_C@_0BF@EBHCLCDG@ResetsMinEnterServer?$AA@	; `string'
PUBLIC	??_C@_0BF@GGMJNFAH@ResetsMaxEnterServer?$AA@	; `string'
PUBLIC	??_C@_0P@GFCGPJJM@VipEnterServer?$AA@		; `string'
PUBLIC	??_C@_0L@NFOKKEDI@Guard_Talk?$AA@		; `string'
PUBLIC	??_C@_0N@IHLPCMPB@CommonServer?$AA@		; `string'
PUBLIC	??_C@_0M@LNLBAAMM@Server_Name?$AA@		; `string'
PUBLIC	??_C@_0BP@DLGEGJKM@?4?2Customs?2Hgt_CommonServer?4ini?$AA@ ; `string'
PUBLIC	?Common@CServerInfo@@QAEXXZ			; CServerInfo::Common
EXTRN	?GetPrivateProfileFloat@@YAMPBD0M0@Z:PROC	; GetPrivateProfileFloat
EXTRN	__fltused:DWORD
;	COMDAT ??_C@_0BI@OMHFPPJG@Pet_DarkHorse_AddDamage?$AA@
CONST	SEGMENT
??_C@_0BI@OMHFPPJG@Pet_DarkHorse_AddDamage?$AA@ DB 'Pet_DarkHorse_AddDama'
	DB	'ge', 00H					; `string'
CONST	ENDS
;	COMDAT ??_C@_0BF@JOOEHJCI@Pet_Angel_AddDefense?$AA@
CONST	SEGMENT
??_C@_0BF@JOOEHJCI@Pet_Angel_AddDefense?$AA@ DB 'Pet_Angel_AddDefense', 00H ; `string'
CONST	ENDS
;	COMDAT ??_C@_0BH@EKGPMNOH@Pet_Dinorant_AddDamage?$AA@
CONST	SEGMENT
??_C@_0BH@EKGPMNOH@Pet_Dinorant_AddDamage?$AA@ DB 'Pet_Dinorant_AddDamage'
	DB	00H						; `string'
CONST	ENDS
;	COMDAT ??_C@_0BE@MOAAEBAG@Pet_Satan_AddDamage?$AA@
CONST	SEGMENT
??_C@_0BE@MOAAEBAG@Pet_Satan_AddDamage?$AA@ DB 'Pet_Satan_AddDamage', 00H ; `string'
CONST	ENDS
;	COMDAT ??_C@_0O@MMFCOONI@ItemDrop_Luck?$AA@
CONST	SEGMENT
??_C@_0O@MMFCOONI@ItemDrop_Luck?$AA@ DB 'ItemDrop_Luck', 00H ; `string'
CONST	ENDS
;	COMDAT ??_C@_0P@GCOEDOP@ItemDrop_Skill?$AA@
CONST	SEGMENT
??_C@_0P@GCOEDOP@ItemDrop_Skill?$AA@ DB 'ItemDrop_Skill', 00H ; `string'
CONST	ENDS
;	COMDAT ??_C@_0BH@PPCOCEBG@ItemDrop_ExcellentLuck?$AA@
CONST	SEGMENT
??_C@_0BH@PPCOCEBG@ItemDrop_ExcellentLuck?$AA@ DB 'ItemDrop_ExcellentLuck'
	DB	00H						; `string'
CONST	ENDS
;	COMDAT ??_C@_0BI@HKMBNAJC@ItemDrop_ExcellentSkill?$AA@
CONST	SEGMENT
??_C@_0BI@HKMBNAJC@ItemDrop_ExcellentSkill?$AA@ DB 'ItemDrop_ExcellentSki'
	DB	'll', 00H					; `string'
CONST	ENDS
;	COMDAT ??_C@_0BD@PMCBNPEL@ItemDrop_Excellent?$AA@
CONST	SEGMENT
??_C@_0BD@PMCBNPEL@ItemDrop_Excellent?$AA@ DB 'ItemDrop_Excellent', 00H ; `string'
CONST	ENDS
;	COMDAT ??_C@_0BL@JBCBPCBE@PartyExp_SetPercentDefault?$AA@
CONST	SEGMENT
??_C@_0BL@JBCBPCBE@PartyExp_SetPercentDefault?$AA@ DB 'PartyExp_SetPercen'
	DB	'tDefault', 00H				; `string'
CONST	ENDS
;	COMDAT ??_C@_0BF@CIKKNCNP@PartyExp_SetPercent5?$AA@
CONST	SEGMENT
??_C@_0BF@CIKKNCNP@PartyExp_SetPercent5?$AA@ DB 'PartyExp_SetPercent5', 00H ; `string'
CONST	ENDS
;	COMDAT ??_C@_0BF@DBLBODJO@PartyExp_SetPercent4?$AA@
CONST	SEGMENT
??_C@_0BF@DBLBODJO@PartyExp_SetPercent4?$AA@ DB 'PartyExp_SetPercent4', 00H ; `string'
CONST	ENDS
;	COMDAT ??_C@_0BF@HOPAHFFJ@PartyExp_SetPercent3?$AA@
CONST	SEGMENT
??_C@_0BF@HOPAHFFJ@PartyExp_SetPercent3?$AA@ DB 'PartyExp_SetPercent3', 00H ; `string'
CONST	ENDS
;	COMDAT ??_C@_0BF@GHOLEEBI@PartyExp_SetPercent2?$AA@
CONST	SEGMENT
??_C@_0BF@GHOLEEBI@PartyExp_SetPercent2?$AA@ DB 'PartyExp_SetPercent2', 00H ; `string'
CONST	ENDS
;	COMDAT ??_C@_0BI@MGONKCHB@PartyExp_PercentDefault?$AA@
CONST	SEGMENT
??_C@_0BI@MGONKCHB@PartyExp_PercentDefault?$AA@ DB 'PartyExp_PercentDefau'
	DB	'lt', 00H					; `string'
CONST	ENDS
;	COMDAT ??_C@_0BC@DIKDJGNL@PartyExp_Percent5?$AA@
CONST	SEGMENT
??_C@_0BC@DIKDJGNL@PartyExp_Percent5?$AA@ DB 'PartyExp_Percent5', 00H ; `string'
CONST	ENDS
;	COMDAT ??_C@_0BC@CBLIKHJK@PartyExp_Percent4?$AA@
CONST	SEGMENT
??_C@_0BC@CBLIKHJK@PartyExp_Percent4?$AA@ DB 'PartyExp_Percent4', 00H ; `string'
CONST	ENDS
;	COMDAT ??_C@_0BC@GOPJDBFN@PartyExp_Percent3?$AA@
CONST	SEGMENT
??_C@_0BC@GOPJDBFN@PartyExp_Percent3?$AA@ DB 'PartyExp_Percent3', 00H ; `string'
CONST	ENDS
;	COMDAT ??_C@_0BG@LBPCFLIE@TranformRing_DeathCow?$AA@
CONST	SEGMENT
??_C@_0BG@LBPCFLIE@TranformRing_DeathCow?$AA@ DB 'TranformRing_DeathCow', 00H ; `string'
CONST	ENDS
;	COMDAT ??_C@_0BI@HOAOPFPH@TranformRing_PoisonBull?$AA@
CONST	SEGMENT
??_C@_0BI@HOAOPFPH@TranformRing_PoisonBull?$AA@ DB 'TranformRing_PoisonBu'
	DB	'll', 00H					; `string'
CONST	ENDS
;	COMDAT ??_C@_0BJ@PAHEAKA@TranformRing_ThunderLich?$AA@
CONST	SEGMENT
??_C@_0BJ@PAHEAKA@TranformRing_ThunderLich?$AA@ DB 'TranformRing_ThunderL'
	DB	'ich', 00H					; `string'
CONST	ENDS
;	COMDAT ??_C@_0BG@HJHPGPFK@TranformRing_Skeleton?$AA@
CONST	SEGMENT
??_C@_0BG@HJHPGPFK@TranformRing_Skeleton?$AA@ DB 'TranformRing_Skeleton', 00H ; `string'
CONST	ENDS
;	COMDAT ??_C@_0BD@PPPMDONO@TranformRing_Giant?$AA@
CONST	SEGMENT
??_C@_0BD@PPPMDONO@TranformRing_Giant?$AA@ DB 'TranformRing_Giant', 00H ; `string'
CONST	ENDS
;	COMDAT ??_C@_0BJ@MOCBCNCP@TranformRing_BudgeDragon?$AA@
CONST	SEGMENT
??_C@_0BJ@MOCBCNCP@TranformRing_BudgeDragon?$AA@ DB 'TranformRing_BudgeDr'
	DB	'agon', 00H					; `string'
CONST	ENDS
;	COMDAT ??_C@_0BI@KJNLBLOI@Recovery_Mana_Large_Div?$AA@
CONST	SEGMENT
??_C@_0BI@KJNLBLOI@Recovery_Mana_Large_Div?$AA@ DB 'Recovery_Mana_Large_D'
	DB	'iv', 00H					; `string'
CONST	ENDS
;	COMDAT ??_C@_0BE@LBFPHMJP@Recovery_Mana_Large?$AA@
CONST	SEGMENT
??_C@_0BE@LBFPHMJP@Recovery_Mana_Large?$AA@ DB 'Recovery_Mana_Large', 00H ; `string'
CONST	ENDS
;	COMDAT ??_C@_0BJ@KJFGDGAH@Recovery_Mana_Medium_Div?$AA@
CONST	SEGMENT
??_C@_0BJ@KJFGDGAH@Recovery_Mana_Medium_Div?$AA@ DB 'Recovery_Mana_Medium'
	DB	'_Div', 00H					; `string'
CONST	ENDS
;	COMDAT ??_C@_0BF@JOONDLIA@Recovery_Mana_Medium?$AA@
CONST	SEGMENT
??_C@_0BF@JOONDLIA@Recovery_Mana_Medium?$AA@ DB 'Recovery_Mana_Medium', 00H ; `string'
CONST	ENDS
;	COMDAT ??_C@_0BI@EOHGABGD@Recovery_Mana_Small_Div?$AA@
CONST	SEGMENT
??_C@_0BI@EOHGABGD@Recovery_Mana_Small_Div?$AA@ DB 'Recovery_Mana_Small_D'
	DB	'iv', 00H					; `string'
CONST	ENDS
;	COMDAT ??_C@_0BE@BJBEINAJ@Recovery_Mana_Small?$AA@
CONST	SEGMENT
??_C@_0BE@BJBEINAJ@Recovery_Mana_Small?$AA@ DB 'Recovery_Mana_Small', 00H ; `string'
CONST	ENDS
;	COMDAT ??_C@_0BF@HOEPDEMC@Recovery_Healing_Div?$AA@
CONST	SEGMENT
??_C@_0BF@HOEPDEMC@Recovery_Healing_Div?$AA@ DB 'Recovery_Healing_Div', 00H ; `string'
CONST	ENDS
;	COMDAT ??_C@_0BH@NOCLCDIK@Recovery_Healing_Large?$AA@
CONST	SEGMENT
??_C@_0BH@NOCLCDIK@Recovery_Healing_Large?$AA@ DB 'Recovery_Healing_Large'
	DB	00H						; `string'
CONST	ENDS
;	COMDAT ??_C@_0BI@PDFPKLDE@Recovery_Healing_Medium?$AA@
CONST	SEGMENT
??_C@_0BI@PDFPKLDE@Recovery_Healing_Medium?$AA@ DB 'Recovery_Healing_Medi'
	DB	'um', 00H					; `string'
CONST	ENDS
;	COMDAT ??_C@_0BH@HGGANCBM@Recovery_Healing_Small?$AA@
CONST	SEGMENT
??_C@_0BH@HGGANCBM@Recovery_Healing_Small?$AA@ DB 'Recovery_Healing_Small'
	DB	00H						; `string'
CONST	ENDS
;	COMDAT ??_C@_0BH@JJGJKJAM@Recovery_Healing_Apple?$AA@
CONST	SEGMENT
??_C@_0BH@JJGJKJAM@Recovery_Healing_Apple?$AA@ DB 'Recovery_Healing_Apple'
	DB	00H						; `string'
CONST	ENDS
;	COMDAT ??_C@_0BC@DFPLDDFL@LevelUpPointsPlus?$AA@
CONST	SEGMENT
??_C@_0BC@DFPLDDFL@LevelUpPointsPlus?$AA@ DB 'LevelUpPointsPlus', 00H ; `string'
CONST	ENDS
;	COMDAT ??_C@_0BA@DBOGNGCM@LevelUpPointsDL?$AA@
CONST	SEGMENT
??_C@_0BA@DBOGNGCM@LevelUpPointsDL?$AA@ DB 'LevelUpPointsDL', 00H ; `string'
CONST	ENDS
;	COMDAT ??_C@_0BA@NNMDDEGI@LevelUpPointsMG?$AA@
CONST	SEGMENT
??_C@_0BA@NNMDDEGI@LevelUpPointsMG?$AA@ DB 'LevelUpPointsMG', 00H ; `string'
CONST	ENDS
;	COMDAT ??_C@_0BA@ODKALJAL@LevelUpPointsFE?$AA@
CONST	SEGMENT
??_C@_0BA@ODKALJAL@LevelUpPointsFE?$AA@ DB 'LevelUpPointsFE', 00H ; `string'
CONST	ENDS
;	COMDAT ??_C@_0BA@HOKHEAOL@LevelUpPointsDK?$AA@
CONST	SEGMENT
??_C@_0BA@HOKHEAOL@LevelUpPointsDK?$AA@ DB 'LevelUpPointsDK', 00H ; `string'
CONST	ENDS
;	COMDAT ??_C@_0BA@JINABNLG@LevelUpPointsDW?$AA@
CONST	SEGMENT
??_C@_0BA@JINABNLG@LevelUpPointsDW?$AA@ DB 'LevelUpPointsDW', 00H ; `string'
CONST	ENDS
;	COMDAT ??_C@_0L@GADIOFCA@StartMapDL?$AA@
CONST	SEGMENT
??_C@_0L@GADIOFCA@StartMapDL?$AA@ DB 'StartMapDL', 00H	; `string'
CONST	ENDS
;	COMDAT ??_C@_0L@IMBNAHGE@StartMapMG?$AA@
CONST	SEGMENT
??_C@_0L@IMBNAHGE@StartMapMG?$AA@ DB 'StartMapMG', 00H	; `string'
CONST	ENDS
;	COMDAT ??_C@_0L@LCHOIKAH@StartMapFE?$AA@
CONST	SEGMENT
??_C@_0L@LCHOIKAH@StartMapFE?$AA@ DB 'StartMapFE', 00H	; `string'
CONST	ENDS
;	COMDAT ??_C@_0L@MJAOCOLK@StartMapDW?$AA@
CONST	SEGMENT
??_C@_0L@MJAOCOLK@StartMapDW?$AA@ DB 'StartMapDW', 00H	; `string'
CONST	ENDS
;	COMDAT ??_C@_0L@CPHJHDOH@StartMapDK?$AA@
CONST	SEGMENT
??_C@_0L@CPHJHDOH@StartMapDK?$AA@ DB 'StartMapDK', 00H	; `string'
CONST	ENDS
;	COMDAT ??_C@_06GOOKGCKJ@AddZen?$AA@
CONST	SEGMENT
??_C@_06GOOKGCKJ@AddZen?$AA@ DB 'AddZen', 00H		; `string'
CONST	ENDS
;	COMDAT __real@00000000
CONST	SEGMENT
__real@00000000 DD 000000000r			; 0
CONST	ENDS
;	COMDAT ??_C@_0BE@IMKNPHAF@AncientAndExcellent?$AA@
CONST	SEGMENT
??_C@_0BE@IMKNPHAF@AncientAndExcellent?$AA@ DB 'AncientAndExcellent', 00H ; `string'
CONST	ENDS
;	COMDAT ??_C@_0N@CAKKMODH@ItemDropTime?$AA@
CONST	SEGMENT
??_C@_0N@CAKKMODH@ItemDropTime?$AA@ DB 'ItemDropTime', 00H ; `string'
CONST	ENDS
;	COMDAT ??_C@_0O@FPAOMFKL@SkillNotLevel?$AA@
CONST	SEGMENT
??_C@_0O@FPAOMFKL@SkillNotLevel?$AA@ DB 'SkillNotLevel', 00H ; `string'
CONST	ENDS
;	COMDAT ??_C@_0BA@EPIDNBFI@ServerMaxStatus?$AA@
CONST	SEGMENT
??_C@_0BA@EPIDNBFI@ServerMaxStatus?$AA@ DB 'ServerMaxStatus', 00H ; `string'
CONST	ENDS
;	COMDAT ??_C@_0BF@EBHCLCDG@ResetsMinEnterServer?$AA@
CONST	SEGMENT
??_C@_0BF@EBHCLCDG@ResetsMinEnterServer?$AA@ DB 'ResetsMinEnterServer', 00H ; `string'
CONST	ENDS
;	COMDAT ??_C@_0BF@GGMJNFAH@ResetsMaxEnterServer?$AA@
CONST	SEGMENT
??_C@_0BF@GGMJNFAH@ResetsMaxEnterServer?$AA@ DB 'ResetsMaxEnterServer', 00H ; `string'
CONST	ENDS
;	COMDAT ??_C@_0P@GFCGPJJM@VipEnterServer?$AA@
CONST	SEGMENT
??_C@_0P@GFCGPJJM@VipEnterServer?$AA@ DB 'VipEnterServer', 00H ; `string'
CONST	ENDS
;	COMDAT ??_C@_0L@NFOKKEDI@Guard_Talk?$AA@
CONST	SEGMENT
??_C@_0L@NFOKKEDI@Guard_Talk?$AA@ DB 'Guard_Talk', 00H	; `string'
CONST	ENDS
;	COMDAT ??_C@_0N@IHLPCMPB@CommonServer?$AA@
CONST	SEGMENT
??_C@_0N@IHLPCMPB@CommonServer?$AA@ DB 'CommonServer', 00H ; `string'
CONST	ENDS
;	COMDAT ??_C@_0M@LNLBAAMM@Server_Name?$AA@
CONST	SEGMENT
??_C@_0M@LNLBAAMM@Server_Name?$AA@ DB 'Server_Name', 00H ; `string'
CONST	ENDS
;	COMDAT ??_C@_0BP@DLGEGJKM@?4?2Customs?2Hgt_CommonServer?4ini?$AA@
CONST	SEGMENT
??_C@_0BP@DLGEGJKM@?4?2Customs?2Hgt_CommonServer?4ini?$AA@ DB '.\Customs\'
	DB	'Hgt_CommonServer.ini', 00H			; `string'
; Function compile flags: /Ogtp
CONST	ENDS
;	COMDAT ?Common@CServerInfo@@QAEXXZ
_TEXT	SEGMENT
?Common@CServerInfo@@QAEXXZ PROC			; CServerInfo::Common, COMDAT
; _this$ = ecx

; 37   : {

  00000	56		 push	 esi
  00001	57		 push	 edi

; 38   : 	GetPrivateProfileString("CommonServer", "Server_Name", NULL, this->m_Data.szServerName, sizeof(this->m_Data.szServerName), COMMON_FILE);

  00002	8b 3d 00 00 00
	00		 mov	 edi, DWORD PTR __imp__GetPrivateProfileStringA@24
  00008	68 00 00 00 00	 push	 OFFSET ??_C@_0BP@DLGEGJKM@?4?2Customs?2Hgt_CommonServer?4ini?$AA@
  0000d	6a 32		 push	 50			; 00000032H
  0000f	8b f1		 mov	 esi, ecx
  00011	56		 push	 esi
  00012	6a 00		 push	 0
  00014	68 00 00 00 00	 push	 OFFSET ??_C@_0M@LNLBAAMM@Server_Name?$AA@
  00019	68 00 00 00 00	 push	 OFFSET ??_C@_0N@IHLPCMPB@CommonServer?$AA@
  0001e	ff d7		 call	 edi

; 39   : 	// ---
; 40   : 	GetPrivateProfileString("CommonServer", "Guard_Talk", NULL, this->m_Data.szGuardTalk, sizeof(this->m_Data.szGuardTalk), COMMON_FILE);

  00020	68 00 00 00 00	 push	 OFFSET ??_C@_0BP@DLGEGJKM@?4?2Customs?2Hgt_CommonServer?4ini?$AA@
  00025	6a 32		 push	 50			; 00000032H
  00027	8d 46 32	 lea	 eax, DWORD PTR [esi+50]
  0002a	50		 push	 eax
  0002b	6a 00		 push	 0
  0002d	68 00 00 00 00	 push	 OFFSET ??_C@_0L@NFOKKEDI@Guard_Talk?$AA@
  00032	68 00 00 00 00	 push	 OFFSET ??_C@_0N@IHLPCMPB@CommonServer?$AA@
  00037	ff d7		 call	 edi

; 41   : 	// ---
; 42   : 	this->m_Data.iServerVip					= GetPrivateProfileInt("CommonServer", "VipEnterServer", NULL, COMMON_FILE);

  00039	8b 3d 00 00 00
	00		 mov	 edi, DWORD PTR __imp__GetPrivateProfileIntA@16
  0003f	68 00 00 00 00	 push	 OFFSET ??_C@_0BP@DLGEGJKM@?4?2Customs?2Hgt_CommonServer?4ini?$AA@
  00044	6a 00		 push	 0
  00046	68 00 00 00 00	 push	 OFFSET ??_C@_0P@GFCGPJJM@VipEnterServer?$AA@
  0004b	68 00 00 00 00	 push	 OFFSET ??_C@_0N@IHLPCMPB@CommonServer?$AA@
  00050	ff d7		 call	 edi

; 43   : 	// ---
; 44   : 	this->m_Data.iServerResetMax			= GetPrivateProfileInt("CommonServer", "ResetsMaxEnterServer", NULL, COMMON_FILE);

  00052	68 00 00 00 00	 push	 OFFSET ??_C@_0BP@DLGEGJKM@?4?2Customs?2Hgt_CommonServer?4ini?$AA@
  00057	6a 00		 push	 0
  00059	68 00 00 00 00	 push	 OFFSET ??_C@_0BF@GGMJNFAH@ResetsMaxEnterServer?$AA@
  0005e	68 00 00 00 00	 push	 OFFSET ??_C@_0N@IHLPCMPB@CommonServer?$AA@
  00063	89 46 64	 mov	 DWORD PTR [esi+100], eax
  00066	ff d7		 call	 edi

; 45   : 	this->m_Data.iServerResetMin			= GetPrivateProfileInt("CommonServer", "ResetsMinEnterServer", NULL, COMMON_FILE);

  00068	68 00 00 00 00	 push	 OFFSET ??_C@_0BP@DLGEGJKM@?4?2Customs?2Hgt_CommonServer?4ini?$AA@
  0006d	6a 00		 push	 0
  0006f	68 00 00 00 00	 push	 OFFSET ??_C@_0BF@EBHCLCDG@ResetsMinEnterServer?$AA@
  00074	68 00 00 00 00	 push	 OFFSET ??_C@_0N@IHLPCMPB@CommonServer?$AA@
  00079	89 46 6c	 mov	 DWORD PTR [esi+108], eax
  0007c	ff d7		 call	 edi

; 46   : 	// ---
; 47   : 	this->m_Data.iMaxStatus					= GetPrivateProfileInt("CommonServer", "ServerMaxStatus", NULL, COMMON_FILE);

  0007e	68 00 00 00 00	 push	 OFFSET ??_C@_0BP@DLGEGJKM@?4?2Customs?2Hgt_CommonServer?4ini?$AA@
  00083	6a 00		 push	 0
  00085	68 00 00 00 00	 push	 OFFSET ??_C@_0BA@EPIDNBFI@ServerMaxStatus?$AA@
  0008a	68 00 00 00 00	 push	 OFFSET ??_C@_0N@IHLPCMPB@CommonServer?$AA@
  0008f	89 46 68	 mov	 DWORD PTR [esi+104], eax
  00092	ff d7		 call	 edi

; 48   : 	// ---
; 49   : 	this->m_Data.iSkillNotLevel				= GetPrivateProfileInt("CommonServer", "SkillNotLevel", NULL, COMMON_FILE);

  00094	68 00 00 00 00	 push	 OFFSET ??_C@_0BP@DLGEGJKM@?4?2Customs?2Hgt_CommonServer?4ini?$AA@
  00099	6a 00		 push	 0
  0009b	68 00 00 00 00	 push	 OFFSET ??_C@_0O@FPAOMFKL@SkillNotLevel?$AA@
  000a0	68 00 00 00 00	 push	 OFFSET ??_C@_0N@IHLPCMPB@CommonServer?$AA@
  000a5	89 46 70	 mov	 DWORD PTR [esi+112], eax
  000a8	ff d7		 call	 edi

; 50   : 	// ---
; 51   : 	this->m_Data.iItemDropTime				= GetPrivateProfileInt("CommonServer","ItemDropTime", NULL, COMMON_FILE);

  000aa	68 00 00 00 00	 push	 OFFSET ??_C@_0BP@DLGEGJKM@?4?2Customs?2Hgt_CommonServer?4ini?$AA@
  000af	6a 00		 push	 0
  000b1	68 00 00 00 00	 push	 OFFSET ??_C@_0N@CAKKMODH@ItemDropTime?$AA@
  000b6	68 00 00 00 00	 push	 OFFSET ??_C@_0N@IHLPCMPB@CommonServer?$AA@
  000bb	89 46 74	 mov	 DWORD PTR [esi+116], eax
  000be	ff d7		 call	 edi

; 52   : 	// ---
; 53   : 	this->m_Data.iAncientAndExcellent		= GetPrivateProfileInt("CommonServer","AncientAndExcellent", NULL, COMMON_FILE);

  000c0	68 00 00 00 00	 push	 OFFSET ??_C@_0BP@DLGEGJKM@?4?2Customs?2Hgt_CommonServer?4ini?$AA@
  000c5	6a 00		 push	 0
  000c7	68 00 00 00 00	 push	 OFFSET ??_C@_0BE@IMKNPHAF@AncientAndExcellent?$AA@
  000cc	68 00 00 00 00	 push	 OFFSET ??_C@_0N@IHLPCMPB@CommonServer?$AA@
  000d1	89 46 78	 mov	 DWORD PTR [esi+120], eax
  000d4	ff d7		 call	 edi

; 54   : 	// ---
; 55   : 	this->m_Data.fRateZen					= GetPrivateProfileFloat("CommonServer", "AddZen", NULL, COMMON_FILE);

  000d6	d9 ee		 fldz
  000d8	68 00 00 00 00	 push	 OFFSET ??_C@_0BP@DLGEGJKM@?4?2Customs?2Hgt_CommonServer?4ini?$AA@
  000dd	51		 push	 ecx
  000de	d9 1c 24	 fstp	 DWORD PTR [esp]
  000e1	68 00 00 00 00	 push	 OFFSET ??_C@_06GOOKGCKJ@AddZen?$AA@
  000e6	68 00 00 00 00	 push	 OFFSET ??_C@_0N@IHLPCMPB@CommonServer?$AA@
  000eb	89 46 7c	 mov	 DWORD PTR [esi+124], eax
  000ee	e8 00 00 00 00	 call	 ?GetPrivateProfileFloat@@YAMPBD0M0@Z ; GetPrivateProfileFloat
  000f3	d9 9e 80 00 00
	00		 fstp	 DWORD PTR [esi+128]
  000f9	83 c4 10	 add	 esp, 16			; 00000010H

; 56   : 	// ---
; 57   : 	this->m_Data.iStartMap[0]				= GetPrivateProfileInt("CommonServer", "StartMapDK", NULL, COMMON_FILE);

  000fc	68 00 00 00 00	 push	 OFFSET ??_C@_0BP@DLGEGJKM@?4?2Customs?2Hgt_CommonServer?4ini?$AA@
  00101	6a 00		 push	 0
  00103	68 00 00 00 00	 push	 OFFSET ??_C@_0L@CPHJHDOH@StartMapDK?$AA@
  00108	68 00 00 00 00	 push	 OFFSET ??_C@_0N@IHLPCMPB@CommonServer?$AA@
  0010d	ff d7		 call	 edi

; 58   : 	this->m_Data.iStartMap[1]				= GetPrivateProfileInt("CommonServer", "StartMapDW", NULL, COMMON_FILE);

  0010f	68 00 00 00 00	 push	 OFFSET ??_C@_0BP@DLGEGJKM@?4?2Customs?2Hgt_CommonServer?4ini?$AA@
  00114	6a 00		 push	 0
  00116	68 00 00 00 00	 push	 OFFSET ??_C@_0L@MJAOCOLK@StartMapDW?$AA@
  0011b	89 86 84 00 00
	00		 mov	 DWORD PTR [esi+132], eax
  00121	68 00 00 00 00	 push	 OFFSET ??_C@_0N@IHLPCMPB@CommonServer?$AA@
  00126	ff d7		 call	 edi

; 59   : 	this->m_Data.iStartMap[2]				= GetPrivateProfileInt("CommonServer", "StartMapFE", NULL, COMMON_FILE);

  00128	68 00 00 00 00	 push	 OFFSET ??_C@_0BP@DLGEGJKM@?4?2Customs?2Hgt_CommonServer?4ini?$AA@
  0012d	6a 00		 push	 0
  0012f	68 00 00 00 00	 push	 OFFSET ??_C@_0L@LCHOIKAH@StartMapFE?$AA@
  00134	68 00 00 00 00	 push	 OFFSET ??_C@_0N@IHLPCMPB@CommonServer?$AA@
  00139	89 86 88 00 00
	00		 mov	 DWORD PTR [esi+136], eax
  0013f	ff d7		 call	 edi

; 60   : 	this->m_Data.iStartMap[3]				= GetPrivateProfileInt("CommonServer", "StartMapMG", NULL, COMMON_FILE);

  00141	68 00 00 00 00	 push	 OFFSET ??_C@_0BP@DLGEGJKM@?4?2Customs?2Hgt_CommonServer?4ini?$AA@
  00146	6a 00		 push	 0
  00148	68 00 00 00 00	 push	 OFFSET ??_C@_0L@IMBNAHGE@StartMapMG?$AA@
  0014d	68 00 00 00 00	 push	 OFFSET ??_C@_0N@IHLPCMPB@CommonServer?$AA@
  00152	89 86 8c 00 00
	00		 mov	 DWORD PTR [esi+140], eax
  00158	ff d7		 call	 edi

; 61   : 	this->m_Data.iStartMap[4]				= GetPrivateProfileInt("CommonServer", "StartMapDL", NULL, COMMON_FILE);

  0015a	68 00 00 00 00	 push	 OFFSET ??_C@_0BP@DLGEGJKM@?4?2Customs?2Hgt_CommonServer?4ini?$AA@
  0015f	6a 00		 push	 0
  00161	68 00 00 00 00	 push	 OFFSET ??_C@_0L@GADIOFCA@StartMapDL?$AA@
  00166	68 00 00 00 00	 push	 OFFSET ??_C@_0N@IHLPCMPB@CommonServer?$AA@
  0016b	89 86 90 00 00
	00		 mov	 DWORD PTR [esi+144], eax
  00171	ff d7		 call	 edi

; 62   : 	// ---
; 63   : 	this->m_Data.iLevelUp[0]				= GetPrivateProfileInt("CommonServer", "LevelUpPointsDW", NULL, COMMON_FILE);

  00173	68 00 00 00 00	 push	 OFFSET ??_C@_0BP@DLGEGJKM@?4?2Customs?2Hgt_CommonServer?4ini?$AA@
  00178	6a 00		 push	 0
  0017a	68 00 00 00 00	 push	 OFFSET ??_C@_0BA@JINABNLG@LevelUpPointsDW?$AA@
  0017f	68 00 00 00 00	 push	 OFFSET ??_C@_0N@IHLPCMPB@CommonServer?$AA@
  00184	89 86 94 00 00
	00		 mov	 DWORD PTR [esi+148], eax
  0018a	ff d7		 call	 edi

; 64   : 	this->m_Data.iLevelUp[1]				= GetPrivateProfileInt("CommonServer", "LevelUpPointsDK", NULL, COMMON_FILE);

  0018c	68 00 00 00 00	 push	 OFFSET ??_C@_0BP@DLGEGJKM@?4?2Customs?2Hgt_CommonServer?4ini?$AA@
  00191	6a 00		 push	 0
  00193	68 00 00 00 00	 push	 OFFSET ??_C@_0BA@HOKHEAOL@LevelUpPointsDK?$AA@
  00198	68 00 00 00 00	 push	 OFFSET ??_C@_0N@IHLPCMPB@CommonServer?$AA@
  0019d	89 86 98 00 00
	00		 mov	 DWORD PTR [esi+152], eax
  001a3	ff d7		 call	 edi

; 65   : 	this->m_Data.iLevelUp[2]				= GetPrivateProfileInt("CommonServer", "LevelUpPointsFE", NULL, COMMON_FILE);

  001a5	68 00 00 00 00	 push	 OFFSET ??_C@_0BP@DLGEGJKM@?4?2Customs?2Hgt_CommonServer?4ini?$AA@
  001aa	6a 00		 push	 0
  001ac	68 00 00 00 00	 push	 OFFSET ??_C@_0BA@ODKALJAL@LevelUpPointsFE?$AA@
  001b1	68 00 00 00 00	 push	 OFFSET ??_C@_0N@IHLPCMPB@CommonServer?$AA@
  001b6	89 86 9c 00 00
	00		 mov	 DWORD PTR [esi+156], eax
  001bc	ff d7		 call	 edi

; 66   : 	this->m_Data.iLevelUp[3]				= GetPrivateProfileInt("CommonServer", "LevelUpPointsMG", NULL, COMMON_FILE);

  001be	68 00 00 00 00	 push	 OFFSET ??_C@_0BP@DLGEGJKM@?4?2Customs?2Hgt_CommonServer?4ini?$AA@
  001c3	6a 00		 push	 0
  001c5	68 00 00 00 00	 push	 OFFSET ??_C@_0BA@NNMDDEGI@LevelUpPointsMG?$AA@
  001ca	68 00 00 00 00	 push	 OFFSET ??_C@_0N@IHLPCMPB@CommonServer?$AA@
  001cf	89 86 a0 00 00
	00		 mov	 DWORD PTR [esi+160], eax
  001d5	ff d7		 call	 edi

; 67   : 	this->m_Data.iLevelUp[4]				= GetPrivateProfileInt("CommonServer", "LevelUpPointsDL", NULL, COMMON_FILE);

  001d7	68 00 00 00 00	 push	 OFFSET ??_C@_0BP@DLGEGJKM@?4?2Customs?2Hgt_CommonServer?4ini?$AA@
  001dc	6a 00		 push	 0
  001de	68 00 00 00 00	 push	 OFFSET ??_C@_0BA@DBOGNGCM@LevelUpPointsDL?$AA@
  001e3	68 00 00 00 00	 push	 OFFSET ??_C@_0N@IHLPCMPB@CommonServer?$AA@
  001e8	89 86 a4 00 00
	00		 mov	 DWORD PTR [esi+164], eax
  001ee	ff d7		 call	 edi

; 68   : 	this->m_Data.iLevelUp[5]				= GetPrivateProfileInt("CommonServer", "LevelUpPointsPlus", NULL, COMMON_FILE);

  001f0	68 00 00 00 00	 push	 OFFSET ??_C@_0BP@DLGEGJKM@?4?2Customs?2Hgt_CommonServer?4ini?$AA@
  001f5	6a 00		 push	 0
  001f7	68 00 00 00 00	 push	 OFFSET ??_C@_0BC@DFPLDDFL@LevelUpPointsPlus?$AA@
  001fc	68 00 00 00 00	 push	 OFFSET ??_C@_0N@IHLPCMPB@CommonServer?$AA@
  00201	89 86 a8 00 00
	00		 mov	 DWORD PTR [esi+168], eax
  00207	ff d7		 call	 edi

; 69   : 	// ---
; 70   : 	this->m_Data.iPotionHP[0]				= GetPrivateProfileInt("CommonServer", "Recovery_Healing_Apple", NULL, COMMON_FILE);

  00209	68 00 00 00 00	 push	 OFFSET ??_C@_0BP@DLGEGJKM@?4?2Customs?2Hgt_CommonServer?4ini?$AA@
  0020e	6a 00		 push	 0
  00210	68 00 00 00 00	 push	 OFFSET ??_C@_0BH@JJGJKJAM@Recovery_Healing_Apple?$AA@
  00215	68 00 00 00 00	 push	 OFFSET ??_C@_0N@IHLPCMPB@CommonServer?$AA@
  0021a	89 86 ac 00 00
	00		 mov	 DWORD PTR [esi+172], eax
  00220	ff d7		 call	 edi

; 71   : 	this->m_Data.iPotionHP[1]				= GetPrivateProfileInt("CommonServer", "Recovery_Healing_Small", NULL, COMMON_FILE);

  00222	68 00 00 00 00	 push	 OFFSET ??_C@_0BP@DLGEGJKM@?4?2Customs?2Hgt_CommonServer?4ini?$AA@
  00227	6a 00		 push	 0
  00229	68 00 00 00 00	 push	 OFFSET ??_C@_0BH@HGGANCBM@Recovery_Healing_Small?$AA@
  0022e	68 00 00 00 00	 push	 OFFSET ??_C@_0N@IHLPCMPB@CommonServer?$AA@
  00233	89 86 b0 00 00
	00		 mov	 DWORD PTR [esi+176], eax
  00239	ff d7		 call	 edi

; 72   : 	this->m_Data.iPotionHP[2]				= GetPrivateProfileInt("CommonServer", "Recovery_Healing_Medium", NULL, COMMON_FILE);

  0023b	68 00 00 00 00	 push	 OFFSET ??_C@_0BP@DLGEGJKM@?4?2Customs?2Hgt_CommonServer?4ini?$AA@
  00240	6a 00		 push	 0
  00242	68 00 00 00 00	 push	 OFFSET ??_C@_0BI@PDFPKLDE@Recovery_Healing_Medium?$AA@
  00247	68 00 00 00 00	 push	 OFFSET ??_C@_0N@IHLPCMPB@CommonServer?$AA@
  0024c	89 86 b4 00 00
	00		 mov	 DWORD PTR [esi+180], eax
  00252	ff d7		 call	 edi

; 73   : 	this->m_Data.iPotionHP[3]				= GetPrivateProfileInt("CommonServer", "Recovery_Healing_Large", NULL, COMMON_FILE);

  00254	68 00 00 00 00	 push	 OFFSET ??_C@_0BP@DLGEGJKM@?4?2Customs?2Hgt_CommonServer?4ini?$AA@
  00259	6a 00		 push	 0
  0025b	68 00 00 00 00	 push	 OFFSET ??_C@_0BH@NOCLCDIK@Recovery_Healing_Large?$AA@
  00260	68 00 00 00 00	 push	 OFFSET ??_C@_0N@IHLPCMPB@CommonServer?$AA@
  00265	89 86 b8 00 00
	00		 mov	 DWORD PTR [esi+184], eax
  0026b	ff d7		 call	 edi
  0026d	89 86 bc 00 00
	00		 mov	 DWORD PTR [esi+188], eax

; 74   : 	this->m_Data.iPotionHP[4]				= GetPrivateProfileInt("CommonServer", "Recovery_Healing_Div", NULL, COMMON_FILE);

  00273	68 00 00 00 00	 push	 OFFSET ??_C@_0BP@DLGEGJKM@?4?2Customs?2Hgt_CommonServer?4ini?$AA@
  00278	6a 00		 push	 0
  0027a	68 00 00 00 00	 push	 OFFSET ??_C@_0BF@HOEPDEMC@Recovery_Healing_Div?$AA@
  0027f	68 00 00 00 00	 push	 OFFSET ??_C@_0N@IHLPCMPB@CommonServer?$AA@
  00284	ff d7		 call	 edi

; 75   : 	// ---
; 76   : 	this->m_Data.iPotionMP[0]				= GetPrivateProfileInt("CommonServer", "Recovery_Mana_Small", NULL, COMMON_FILE);

  00286	68 00 00 00 00	 push	 OFFSET ??_C@_0BP@DLGEGJKM@?4?2Customs?2Hgt_CommonServer?4ini?$AA@
  0028b	6a 00		 push	 0
  0028d	68 00 00 00 00	 push	 OFFSET ??_C@_0BE@BJBEINAJ@Recovery_Mana_Small?$AA@
  00292	68 00 00 00 00	 push	 OFFSET ??_C@_0N@IHLPCMPB@CommonServer?$AA@
  00297	89 86 c0 00 00
	00		 mov	 DWORD PTR [esi+192], eax
  0029d	ff d7		 call	 edi

; 77   : 	this->m_Data.iPotionMP[1]				= GetPrivateProfileInt("CommonServer", "Recovery_Mana_Small_Div", NULL, COMMON_FILE);

  0029f	68 00 00 00 00	 push	 OFFSET ??_C@_0BP@DLGEGJKM@?4?2Customs?2Hgt_CommonServer?4ini?$AA@
  002a4	6a 00		 push	 0
  002a6	68 00 00 00 00	 push	 OFFSET ??_C@_0BI@EOHGABGD@Recovery_Mana_Small_Div?$AA@
  002ab	68 00 00 00 00	 push	 OFFSET ??_C@_0N@IHLPCMPB@CommonServer?$AA@
  002b0	89 86 c4 00 00
	00		 mov	 DWORD PTR [esi+196], eax
  002b6	ff d7		 call	 edi

; 78   : 	this->m_Data.iPotionMP[2]				= GetPrivateProfileInt("CommonServer", "Recovery_Mana_Medium", NULL, COMMON_FILE);

  002b8	68 00 00 00 00	 push	 OFFSET ??_C@_0BP@DLGEGJKM@?4?2Customs?2Hgt_CommonServer?4ini?$AA@
  002bd	6a 00		 push	 0
  002bf	68 00 00 00 00	 push	 OFFSET ??_C@_0BF@JOONDLIA@Recovery_Mana_Medium?$AA@
  002c4	68 00 00 00 00	 push	 OFFSET ??_C@_0N@IHLPCMPB@CommonServer?$AA@
  002c9	89 86 c8 00 00
	00		 mov	 DWORD PTR [esi+200], eax
  002cf	ff d7		 call	 edi

; 79   : 	this->m_Data.iPotionMP[3]				= GetPrivateProfileInt("CommonServer", "Recovery_Mana_Medium_Div", NULL, COMMON_FILE);

  002d1	68 00 00 00 00	 push	 OFFSET ??_C@_0BP@DLGEGJKM@?4?2Customs?2Hgt_CommonServer?4ini?$AA@
  002d6	6a 00		 push	 0
  002d8	68 00 00 00 00	 push	 OFFSET ??_C@_0BJ@KJFGDGAH@Recovery_Mana_Medium_Div?$AA@
  002dd	68 00 00 00 00	 push	 OFFSET ??_C@_0N@IHLPCMPB@CommonServer?$AA@
  002e2	89 86 cc 00 00
	00		 mov	 DWORD PTR [esi+204], eax
  002e8	ff d7		 call	 edi

; 80   : 	this->m_Data.iPotionMP[4]				= GetPrivateProfileInt("CommonServer", "Recovery_Mana_Large", NULL, COMMON_FILE);

  002ea	68 00 00 00 00	 push	 OFFSET ??_C@_0BP@DLGEGJKM@?4?2Customs?2Hgt_CommonServer?4ini?$AA@
  002ef	6a 00		 push	 0
  002f1	68 00 00 00 00	 push	 OFFSET ??_C@_0BE@LBFPHMJP@Recovery_Mana_Large?$AA@
  002f6	68 00 00 00 00	 push	 OFFSET ??_C@_0N@IHLPCMPB@CommonServer?$AA@
  002fb	89 86 d0 00 00
	00		 mov	 DWORD PTR [esi+208], eax
  00301	ff d7		 call	 edi

; 81   : 	this->m_Data.iPotionMP[5]				= GetPrivateProfileInt("CommonServer", "Recovery_Mana_Large_Div", NULL, COMMON_FILE);

  00303	68 00 00 00 00	 push	 OFFSET ??_C@_0BP@DLGEGJKM@?4?2Customs?2Hgt_CommonServer?4ini?$AA@
  00308	6a 00		 push	 0
  0030a	68 00 00 00 00	 push	 OFFSET ??_C@_0BI@KJNLBLOI@Recovery_Mana_Large_Div?$AA@
  0030f	68 00 00 00 00	 push	 OFFSET ??_C@_0N@IHLPCMPB@CommonServer?$AA@
  00314	89 86 d4 00 00
	00		 mov	 DWORD PTR [esi+212], eax
  0031a	ff d7		 call	 edi

; 82   : 	// ---
; 83   : 	this->m_Data.iRings[0]					= GetPrivateProfileInt("CommonServer", "TranformRing_BudgeDragon", NULL, COMMON_FILE);

  0031c	68 00 00 00 00	 push	 OFFSET ??_C@_0BP@DLGEGJKM@?4?2Customs?2Hgt_CommonServer?4ini?$AA@
  00321	6a 00		 push	 0
  00323	68 00 00 00 00	 push	 OFFSET ??_C@_0BJ@MOCBCNCP@TranformRing_BudgeDragon?$AA@
  00328	68 00 00 00 00	 push	 OFFSET ??_C@_0N@IHLPCMPB@CommonServer?$AA@
  0032d	89 86 d8 00 00
	00		 mov	 DWORD PTR [esi+216], eax
  00333	ff d7		 call	 edi

; 84   : 	this->m_Data.iRings[1]					= GetPrivateProfileInt("CommonServer", "TranformRing_Giant", NULL, COMMON_FILE);

  00335	68 00 00 00 00	 push	 OFFSET ??_C@_0BP@DLGEGJKM@?4?2Customs?2Hgt_CommonServer?4ini?$AA@
  0033a	6a 00		 push	 0
  0033c	68 00 00 00 00	 push	 OFFSET ??_C@_0BD@PPPMDONO@TranformRing_Giant?$AA@
  00341	68 00 00 00 00	 push	 OFFSET ??_C@_0N@IHLPCMPB@CommonServer?$AA@
  00346	89 86 dc 00 00
	00		 mov	 DWORD PTR [esi+220], eax
  0034c	ff d7		 call	 edi

; 85   : 	this->m_Data.iRings[2]					= GetPrivateProfileInt("CommonServer", "TranformRing_Skeleton", NULL, COMMON_FILE);

  0034e	68 00 00 00 00	 push	 OFFSET ??_C@_0BP@DLGEGJKM@?4?2Customs?2Hgt_CommonServer?4ini?$AA@
  00353	6a 00		 push	 0
  00355	68 00 00 00 00	 push	 OFFSET ??_C@_0BG@HJHPGPFK@TranformRing_Skeleton?$AA@
  0035a	68 00 00 00 00	 push	 OFFSET ??_C@_0N@IHLPCMPB@CommonServer?$AA@
  0035f	89 86 e0 00 00
	00		 mov	 DWORD PTR [esi+224], eax
  00365	ff d7		 call	 edi

; 86   : 	this->m_Data.iRings[3]					= GetPrivateProfileInt("CommonServer", "TranformRing_ThunderLich", NULL, COMMON_FILE);

  00367	68 00 00 00 00	 push	 OFFSET ??_C@_0BP@DLGEGJKM@?4?2Customs?2Hgt_CommonServer?4ini?$AA@
  0036c	6a 00		 push	 0
  0036e	68 00 00 00 00	 push	 OFFSET ??_C@_0BJ@PAHEAKA@TranformRing_ThunderLich?$AA@
  00373	68 00 00 00 00	 push	 OFFSET ??_C@_0N@IHLPCMPB@CommonServer?$AA@
  00378	89 86 e4 00 00
	00		 mov	 DWORD PTR [esi+228], eax
  0037e	ff d7		 call	 edi

; 87   : 	this->m_Data.iRings[4]					= GetPrivateProfileInt("CommonServer", "TranformRing_PoisonBull", NULL, COMMON_FILE);

  00380	68 00 00 00 00	 push	 OFFSET ??_C@_0BP@DLGEGJKM@?4?2Customs?2Hgt_CommonServer?4ini?$AA@
  00385	6a 00		 push	 0
  00387	68 00 00 00 00	 push	 OFFSET ??_C@_0BI@HOAOPFPH@TranformRing_PoisonBull?$AA@
  0038c	68 00 00 00 00	 push	 OFFSET ??_C@_0N@IHLPCMPB@CommonServer?$AA@
  00391	89 86 e8 00 00
	00		 mov	 DWORD PTR [esi+232], eax
  00397	ff d7		 call	 edi

; 88   : 	this->m_Data.iRings[5]					= GetPrivateProfileInt("CommonServer", "TranformRing_DeathCow", NULL, COMMON_FILE);

  00399	68 00 00 00 00	 push	 OFFSET ??_C@_0BP@DLGEGJKM@?4?2Customs?2Hgt_CommonServer?4ini?$AA@
  0039e	6a 00		 push	 0
  003a0	68 00 00 00 00	 push	 OFFSET ??_C@_0BG@LBPCFLIE@TranformRing_DeathCow?$AA@
  003a5	68 00 00 00 00	 push	 OFFSET ??_C@_0N@IHLPCMPB@CommonServer?$AA@
  003aa	89 86 ec 00 00
	00		 mov	 DWORD PTR [esi+236], eax
  003b0	ff d7		 call	 edi

; 89   : 	// ---
; 90   : 	this->m_Data.iExpParty[0]				= GetPrivateProfileInt("CommonServer", "PartyExp_Percent3", NULL, COMMON_FILE);

  003b2	68 00 00 00 00	 push	 OFFSET ??_C@_0BP@DLGEGJKM@?4?2Customs?2Hgt_CommonServer?4ini?$AA@
  003b7	6a 00		 push	 0
  003b9	68 00 00 00 00	 push	 OFFSET ??_C@_0BC@GOPJDBFN@PartyExp_Percent3?$AA@
  003be	89 86 f0 00 00
	00		 mov	 DWORD PTR [esi+240], eax
  003c4	68 00 00 00 00	 push	 OFFSET ??_C@_0N@IHLPCMPB@CommonServer?$AA@
  003c9	ff d7		 call	 edi

; 91   : 	this->m_Data.iExpParty[1]				= GetPrivateProfileInt("CommonServer", "PartyExp_Percent4", NULL, COMMON_FILE);

  003cb	68 00 00 00 00	 push	 OFFSET ??_C@_0BP@DLGEGJKM@?4?2Customs?2Hgt_CommonServer?4ini?$AA@
  003d0	6a 00		 push	 0
  003d2	68 00 00 00 00	 push	 OFFSET ??_C@_0BC@CBLIKHJK@PartyExp_Percent4?$AA@
  003d7	68 00 00 00 00	 push	 OFFSET ??_C@_0N@IHLPCMPB@CommonServer?$AA@
  003dc	89 86 f4 00 00
	00		 mov	 DWORD PTR [esi+244], eax
  003e2	ff d7		 call	 edi

; 92   : 	this->m_Data.iExpParty[2]				= GetPrivateProfileInt("CommonServer", "PartyExp_Percent5", NULL, COMMON_FILE);

  003e4	68 00 00 00 00	 push	 OFFSET ??_C@_0BP@DLGEGJKM@?4?2Customs?2Hgt_CommonServer?4ini?$AA@
  003e9	6a 00		 push	 0
  003eb	68 00 00 00 00	 push	 OFFSET ??_C@_0BC@DIKDJGNL@PartyExp_Percent5?$AA@
  003f0	68 00 00 00 00	 push	 OFFSET ??_C@_0N@IHLPCMPB@CommonServer?$AA@
  003f5	89 86 f8 00 00
	00		 mov	 DWORD PTR [esi+248], eax
  003fb	ff d7		 call	 edi

; 93   : 	this->m_Data.iExpParty[3]				= GetPrivateProfileInt("CommonServer", "PartyExp_PercentDefault", NULL, COMMON_FILE);

  003fd	68 00 00 00 00	 push	 OFFSET ??_C@_0BP@DLGEGJKM@?4?2Customs?2Hgt_CommonServer?4ini?$AA@
  00402	6a 00		 push	 0
  00404	68 00 00 00 00	 push	 OFFSET ??_C@_0BI@MGONKCHB@PartyExp_PercentDefault?$AA@
  00409	68 00 00 00 00	 push	 OFFSET ??_C@_0N@IHLPCMPB@CommonServer?$AA@
  0040e	89 86 fc 00 00
	00		 mov	 DWORD PTR [esi+252], eax
  00414	ff d7		 call	 edi

; 94   : 	this->m_Data.iExpParty[4]				= GetPrivateProfileInt("CommonServer", "PartyExp_SetPercent2", NULL, COMMON_FILE);

  00416	68 00 00 00 00	 push	 OFFSET ??_C@_0BP@DLGEGJKM@?4?2Customs?2Hgt_CommonServer?4ini?$AA@
  0041b	6a 00		 push	 0
  0041d	68 00 00 00 00	 push	 OFFSET ??_C@_0BF@GHOLEEBI@PartyExp_SetPercent2?$AA@
  00422	68 00 00 00 00	 push	 OFFSET ??_C@_0N@IHLPCMPB@CommonServer?$AA@
  00427	89 86 00 01 00
	00		 mov	 DWORD PTR [esi+256], eax
  0042d	ff d7		 call	 edi

; 95   : 	this->m_Data.iExpParty[5]				= GetPrivateProfileInt("CommonServer", "PartyExp_SetPercent3", NULL, COMMON_FILE);

  0042f	68 00 00 00 00	 push	 OFFSET ??_C@_0BP@DLGEGJKM@?4?2Customs?2Hgt_CommonServer?4ini?$AA@
  00434	6a 00		 push	 0
  00436	68 00 00 00 00	 push	 OFFSET ??_C@_0BF@HOPAHFFJ@PartyExp_SetPercent3?$AA@
  0043b	68 00 00 00 00	 push	 OFFSET ??_C@_0N@IHLPCMPB@CommonServer?$AA@
  00440	89 86 04 01 00
	00		 mov	 DWORD PTR [esi+260], eax
  00446	ff d7		 call	 edi

; 96   : 	this->m_Data.iExpParty[6]				= GetPrivateProfileInt("CommonServer", "PartyExp_SetPercent4", NULL, COMMON_FILE);

  00448	68 00 00 00 00	 push	 OFFSET ??_C@_0BP@DLGEGJKM@?4?2Customs?2Hgt_CommonServer?4ini?$AA@
  0044d	6a 00		 push	 0
  0044f	68 00 00 00 00	 push	 OFFSET ??_C@_0BF@DBLBODJO@PartyExp_SetPercent4?$AA@
  00454	68 00 00 00 00	 push	 OFFSET ??_C@_0N@IHLPCMPB@CommonServer?$AA@
  00459	89 86 08 01 00
	00		 mov	 DWORD PTR [esi+264], eax
  0045f	ff d7		 call	 edi

; 97   : 	this->m_Data.iExpParty[7]				= GetPrivateProfileInt("CommonServer", "PartyExp_SetPercent5", NULL, COMMON_FILE);

  00461	68 00 00 00 00	 push	 OFFSET ??_C@_0BP@DLGEGJKM@?4?2Customs?2Hgt_CommonServer?4ini?$AA@
  00466	6a 00		 push	 0
  00468	68 00 00 00 00	 push	 OFFSET ??_C@_0BF@CIKKNCNP@PartyExp_SetPercent5?$AA@
  0046d	68 00 00 00 00	 push	 OFFSET ??_C@_0N@IHLPCMPB@CommonServer?$AA@
  00472	89 86 0c 01 00
	00		 mov	 DWORD PTR [esi+268], eax
  00478	ff d7		 call	 edi

; 98   : 	this->m_Data.iExpParty[8]				= GetPrivateProfileInt("CommonServer", "PartyExp_SetPercentDefault", NULL, COMMON_FILE);

  0047a	68 00 00 00 00	 push	 OFFSET ??_C@_0BP@DLGEGJKM@?4?2Customs?2Hgt_CommonServer?4ini?$AA@
  0047f	6a 00		 push	 0
  00481	68 00 00 00 00	 push	 OFFSET ??_C@_0BL@JBCBPCBE@PartyExp_SetPercentDefault?$AA@
  00486	68 00 00 00 00	 push	 OFFSET ??_C@_0N@IHLPCMPB@CommonServer?$AA@
  0048b	89 86 10 01 00
	00		 mov	 DWORD PTR [esi+272], eax
  00491	ff d7		 call	 edi

; 99   : 	// ---
; 100  : 	this->m_Data.iDropItemMonsterRate[0]	= GetPrivateProfileInt("CommonServer", "ItemDrop_Excellent", NULL, COMMON_FILE);

  00493	68 00 00 00 00	 push	 OFFSET ??_C@_0BP@DLGEGJKM@?4?2Customs?2Hgt_CommonServer?4ini?$AA@
  00498	6a 00		 push	 0
  0049a	68 00 00 00 00	 push	 OFFSET ??_C@_0BD@PMCBNPEL@ItemDrop_Excellent?$AA@
  0049f	68 00 00 00 00	 push	 OFFSET ??_C@_0N@IHLPCMPB@CommonServer?$AA@
  004a4	89 86 14 01 00
	00		 mov	 DWORD PTR [esi+276], eax
  004aa	ff d7		 call	 edi

; 101  : 	this->m_Data.iDropItemMonsterRate[1]	= GetPrivateProfileInt("CommonServer", "ItemDrop_ExcellentSkill", NULL, COMMON_FILE);

  004ac	68 00 00 00 00	 push	 OFFSET ??_C@_0BP@DLGEGJKM@?4?2Customs?2Hgt_CommonServer?4ini?$AA@
  004b1	6a 00		 push	 0
  004b3	68 00 00 00 00	 push	 OFFSET ??_C@_0BI@HKMBNAJC@ItemDrop_ExcellentSkill?$AA@
  004b8	68 00 00 00 00	 push	 OFFSET ??_C@_0N@IHLPCMPB@CommonServer?$AA@
  004bd	89 86 18 01 00
	00		 mov	 DWORD PTR [esi+280], eax
  004c3	ff d7		 call	 edi

; 102  : 	this->m_Data.iDropItemMonsterRate[2]	= GetPrivateProfileInt("CommonServer", "ItemDrop_ExcellentLuck", NULL, COMMON_FILE);

  004c5	68 00 00 00 00	 push	 OFFSET ??_C@_0BP@DLGEGJKM@?4?2Customs?2Hgt_CommonServer?4ini?$AA@
  004ca	6a 00		 push	 0
  004cc	68 00 00 00 00	 push	 OFFSET ??_C@_0BH@PPCOCEBG@ItemDrop_ExcellentLuck?$AA@
  004d1	68 00 00 00 00	 push	 OFFSET ??_C@_0N@IHLPCMPB@CommonServer?$AA@
  004d6	89 86 1c 01 00
	00		 mov	 DWORD PTR [esi+284], eax
  004dc	ff d7		 call	 edi

; 103  : 	this->m_Data.iDropItemMonsterRate[3]	= GetPrivateProfileInt("CommonServer", "ItemDrop_Skill", NULL, COMMON_FILE);

  004de	68 00 00 00 00	 push	 OFFSET ??_C@_0BP@DLGEGJKM@?4?2Customs?2Hgt_CommonServer?4ini?$AA@
  004e3	6a 00		 push	 0
  004e5	68 00 00 00 00	 push	 OFFSET ??_C@_0P@GCOEDOP@ItemDrop_Skill?$AA@
  004ea	68 00 00 00 00	 push	 OFFSET ??_C@_0N@IHLPCMPB@CommonServer?$AA@
  004ef	89 86 20 01 00
	00		 mov	 DWORD PTR [esi+288], eax
  004f5	ff d7		 call	 edi

; 104  : 	this->m_Data.iDropItemMonsterRate[4]	= GetPrivateProfileInt("CommonServer", "ItemDrop_Luck", NULL, COMMON_FILE);

  004f7	68 00 00 00 00	 push	 OFFSET ??_C@_0BP@DLGEGJKM@?4?2Customs?2Hgt_CommonServer?4ini?$AA@
  004fc	6a 00		 push	 0
  004fe	68 00 00 00 00	 push	 OFFSET ??_C@_0O@MMFCOONI@ItemDrop_Luck?$AA@
  00503	68 00 00 00 00	 push	 OFFSET ??_C@_0N@IHLPCMPB@CommonServer?$AA@
  00508	89 86 24 01 00
	00		 mov	 DWORD PTR [esi+292], eax
  0050e	ff d7		 call	 edi
  00510	89 86 28 01 00
	00		 mov	 DWORD PTR [esi+296], eax

; 105  : 	// ---
; 106  : 	this->m_Data.wSatanAddDamage			= GetPrivateProfileInt("CommonServer", "Pet_Satan_AddDamage", NULL, COMMON_FILE);

  00516	68 00 00 00 00	 push	 OFFSET ??_C@_0BP@DLGEGJKM@?4?2Customs?2Hgt_CommonServer?4ini?$AA@
  0051b	6a 00		 push	 0
  0051d	68 00 00 00 00	 push	 OFFSET ??_C@_0BE@MOAAEBAG@Pet_Satan_AddDamage?$AA@
  00522	68 00 00 00 00	 push	 OFFSET ??_C@_0N@IHLPCMPB@CommonServer?$AA@
  00527	ff d7		 call	 edi

; 107  : 	this->m_Data.wDinorantAddDamage			= GetPrivateProfileInt("CommonServer", "Pet_Dinorant_AddDamage", NULL, COMMON_FILE);

  00529	68 00 00 00 00	 push	 OFFSET ??_C@_0BP@DLGEGJKM@?4?2Customs?2Hgt_CommonServer?4ini?$AA@
  0052e	6a 00		 push	 0
  00530	68 00 00 00 00	 push	 OFFSET ??_C@_0BH@EKGPMNOH@Pet_Dinorant_AddDamage?$AA@
  00535	68 00 00 00 00	 push	 OFFSET ??_C@_0N@IHLPCMPB@CommonServer?$AA@
  0053a	66 89 86 32 01
	00 00		 mov	 WORD PTR [esi+306], ax
  00541	ff d7		 call	 edi

; 108  : 	this->m_Data.wAngelAddDefense			= GetPrivateProfileInt("CommonServer", "Pet_Angel_AddDefense", NULL, COMMON_FILE);

  00543	68 00 00 00 00	 push	 OFFSET ??_C@_0BP@DLGEGJKM@?4?2Customs?2Hgt_CommonServer?4ini?$AA@
  00548	6a 00		 push	 0
  0054a	68 00 00 00 00	 push	 OFFSET ??_C@_0BF@JOOEHJCI@Pet_Angel_AddDefense?$AA@
  0054f	68 00 00 00 00	 push	 OFFSET ??_C@_0N@IHLPCMPB@CommonServer?$AA@
  00554	66 89 86 34 01
	00 00		 mov	 WORD PTR [esi+308], ax
  0055b	ff d7		 call	 edi

; 109  : 	this->m_Data.wDarkHorseAddDamage		= GetPrivateProfileInt("CommonServer", "Pet_DarkHorse_AddDamage", NULL, COMMON_FILE);

  0055d	68 00 00 00 00	 push	 OFFSET ??_C@_0BP@DLGEGJKM@?4?2Customs?2Hgt_CommonServer?4ini?$AA@
  00562	6a 00		 push	 0
  00564	68 00 00 00 00	 push	 OFFSET ??_C@_0BI@OMHFPPJG@Pet_DarkHorse_AddDamage?$AA@
  00569	68 00 00 00 00	 push	 OFFSET ??_C@_0N@IHLPCMPB@CommonServer?$AA@
  0056e	66 89 86 30 01
	00 00		 mov	 WORD PTR [esi+304], ax
  00575	ff d7		 call	 edi
  00577	5f		 pop	 edi
  00578	66 89 86 36 01
	00 00		 mov	 WORD PTR [esi+310], ax
  0057f	5e		 pop	 esi

; 110  : }

  00580	c3		 ret	 0
?Common@CServerInfo@@QAEXXZ ENDP			; CServerInfo::Common
_TEXT	ENDS
PUBLIC	??_C@_0BN@HEBCAPIA@?$FLCHARACTER?5FILE?$FN?5Carregado?5?$CB?$AA@ ; `string'
PUBLIC	??_C@_0O@NIKACMCF@ReflectDamage?$AA@		; `string'
PUBLIC	??_C@_0BF@INBHPCPJ@ReflectPercentDamage?$AA@	; `string'
PUBLIC	??_C@_0O@GKEDGPCL@DL_DamageRate?$AA@		; `string'
PUBLIC	??_C@_0O@CDNMCPMI@MG_DamageRate?$AA@		; `string'
PUBLIC	??_C@_0P@JMFBKION@ELF_DamageRate?$AA@		; `string'
PUBLIC	??_C@_0O@DJINHGFC@DW_DamageRate?$AA@		; `string'
PUBLIC	??_C@_09NCHHBCEJ@PVMDamage?$AA@			; `string'
PUBLIC	??_C@_0O@BHDAGJHD@DK_DamageRate?$AA@		; `string'
PUBLIC	??_C@_09DFMJDGLD@PVPDamage?$AA@			; `string'
PUBLIC	??_C@_0CB@BMEDHJJD@?4?2Customs?2Systems?2Hgt_Damage?4ini@ ; `string'
PUBLIC	??_C@_0BC@GJHEMBFJ@?$CFsTo?$CFs_DamageRate?$AA@	; `string'
PUBLIC	??_C@_04JBHPEIGC@Lord?$AA@			; `string'
PUBLIC	??_C@_05PGIOBOGC@Magic?$AA@			; `string'
PUBLIC	??_C@_0BE@DFKJPKED@AttackDamageMaxDiv3?$AA@	; `string'
PUBLIC	??_C@_0BE@NDMJFFKC@AttackDamageMinDiv3?$AA@	; `string'
PUBLIC	??_C@_0BE@CMLCMLAC@AttackDamageMaxDiv2?$AA@	; `string'
PUBLIC	??_C@_0BE@MKNCGEOD@AttackDamageMinDiv2?$AA@	; `string'
PUBLIC	??_C@_05NMMICPNI@Fairy?$AA@			; `string'
PUBLIC	??_C@_06CJCFJDME@Knight?$AA@			; `string'
PUBLIC	??_C@_0BA@OINNJGM@SuccessBlockDiv?$AA@		; `string'
PUBLIC	??_C@_0L@FPKNOMOE@DefenseDiv?$AA@		; `string'
PUBLIC	??_C@_0O@GGHOLBLA@MagicSpeedDiv?$AA@		; `string'
PUBLIC	??_C@_0P@KBPLHIKI@AttackSpeedDiv?$AA@		; `string'
PUBLIC	??_C@_0BC@OLKFDBJM@MagicDamageMaxDiv?$AA@	; `string'
PUBLIC	??_C@_0BC@OIFGNBND@MagicDamageMinDiv?$AA@	; `string'
PUBLIC	??_C@_0BE@HJPJIMB@AttackDamageMaxDiv1?$AA@	; `string'
PUBLIC	??_C@_02CLOBADPI@DL?$AA@			; `string'
PUBLIC	??_C@_02MHMEOBLM@MG?$AA@			; `string'
PUBLIC	??_C@_03KNNCBEML@ELF?$AA@			; `string'
PUBLIC	??_C@_02GEKAJFDP@DK?$AA@			; `string'
PUBLIC	??_C@_02ICNHMIGC@DW?$AA@			; `string'
PUBLIC	??_C@_06MNAGNDLP@Wizard?$AA@			; `string'
PUBLIC	??_C@_0BE@OBPPDHCA@AttackDamageMinDiv1?$AA@	; `string'
PUBLIC	??_C@_0CE@GNOGNPAA@?4?2Customs?2Systems?2Hgt_Character?4@ ; `string'
PUBLIC	__$ArrayPad$
PUBLIC	?Character@CServerInfo@@QAEXXZ			; CServerInfo::Character
EXTRN	?LogAdd@@YAXW4eLogColor@@PADZZ:PROC		; LogAdd
EXTRN	_sprintf:PROC
EXTRN	___security_cookie:DWORD
EXTRN	@__security_check_cookie@4:PROC
;	COMDAT ??_C@_0BN@HEBCAPIA@?$FLCHARACTER?5FILE?$FN?5Carregado?5?$CB?$AA@
CONST	SEGMENT
??_C@_0BN@HEBCAPIA@?$FLCHARACTER?5FILE?$FN?5Carregado?5?$CB?$AA@ DB '[CHA'
	DB	'RACTER FILE] Carregado !', 00H		; `string'
CONST	ENDS
;	COMDAT ??_C@_0O@NIKACMCF@ReflectDamage?$AA@
CONST	SEGMENT
??_C@_0O@NIKACMCF@ReflectDamage?$AA@ DB 'ReflectDamage', 00H ; `string'
CONST	ENDS
;	COMDAT ??_C@_0BF@INBHPCPJ@ReflectPercentDamage?$AA@
CONST	SEGMENT
??_C@_0BF@INBHPCPJ@ReflectPercentDamage?$AA@ DB 'ReflectPercentDamage', 00H ; `string'
CONST	ENDS
;	COMDAT ??_C@_0O@GKEDGPCL@DL_DamageRate?$AA@
CONST	SEGMENT
??_C@_0O@GKEDGPCL@DL_DamageRate?$AA@ DB 'DL_DamageRate', 00H ; `string'
CONST	ENDS
;	COMDAT ??_C@_0O@CDNMCPMI@MG_DamageRate?$AA@
CONST	SEGMENT
??_C@_0O@CDNMCPMI@MG_DamageRate?$AA@ DB 'MG_DamageRate', 00H ; `string'
CONST	ENDS
;	COMDAT ??_C@_0P@JMFBKION@ELF_DamageRate?$AA@
CONST	SEGMENT
??_C@_0P@JMFBKION@ELF_DamageRate?$AA@ DB 'ELF_DamageRate', 00H ; `string'
CONST	ENDS
;	COMDAT ??_C@_0O@DJINHGFC@DW_DamageRate?$AA@
CONST	SEGMENT
??_C@_0O@DJINHGFC@DW_DamageRate?$AA@ DB 'DW_DamageRate', 00H ; `string'
CONST	ENDS
;	COMDAT ??_C@_09NCHHBCEJ@PVMDamage?$AA@
CONST	SEGMENT
??_C@_09NCHHBCEJ@PVMDamage?$AA@ DB 'PVMDamage', 00H	; `string'
CONST	ENDS
;	COMDAT ??_C@_0O@BHDAGJHD@DK_DamageRate?$AA@
CONST	SEGMENT
??_C@_0O@BHDAGJHD@DK_DamageRate?$AA@ DB 'DK_DamageRate', 00H ; `string'
CONST	ENDS
;	COMDAT ??_C@_09DFMJDGLD@PVPDamage?$AA@
CONST	SEGMENT
??_C@_09DFMJDGLD@PVPDamage?$AA@ DB 'PVPDamage', 00H	; `string'
CONST	ENDS
;	COMDAT ??_C@_0CB@BMEDHJJD@?4?2Customs?2Systems?2Hgt_Damage?4ini@
CONST	SEGMENT
??_C@_0CB@BMEDHJJD@?4?2Customs?2Systems?2Hgt_Damage?4ini@ DB '.\Customs\S'
	DB	'ystems\Hgt_Damage.ini', 00H			; `string'
CONST	ENDS
;	COMDAT ??_C@_0BC@GJHEMBFJ@?$CFsTo?$CFs_DamageRate?$AA@
CONST	SEGMENT
??_C@_0BC@GJHEMBFJ@?$CFsTo?$CFs_DamageRate?$AA@ DB '%sTo%s_DamageRate', 00H ; `string'
CONST	ENDS
;	COMDAT ??_C@_04JBHPEIGC@Lord?$AA@
CONST	SEGMENT
??_C@_04JBHPEIGC@Lord?$AA@ DB 'Lord', 00H		; `string'
CONST	ENDS
;	COMDAT ??_C@_05PGIOBOGC@Magic?$AA@
CONST	SEGMENT
??_C@_05PGIOBOGC@Magic?$AA@ DB 'Magic', 00H		; `string'
CONST	ENDS
;	COMDAT ??_C@_0BE@DFKJPKED@AttackDamageMaxDiv3?$AA@
CONST	SEGMENT
??_C@_0BE@DFKJPKED@AttackDamageMaxDiv3?$AA@ DB 'AttackDamageMaxDiv3', 00H ; `string'
CONST	ENDS
;	COMDAT ??_C@_0BE@NDMJFFKC@AttackDamageMinDiv3?$AA@
CONST	SEGMENT
??_C@_0BE@NDMJFFKC@AttackDamageMinDiv3?$AA@ DB 'AttackDamageMinDiv3', 00H ; `string'
CONST	ENDS
;	COMDAT ??_C@_0BE@CMLCMLAC@AttackDamageMaxDiv2?$AA@
CONST	SEGMENT
??_C@_0BE@CMLCMLAC@AttackDamageMaxDiv2?$AA@ DB 'AttackDamageMaxDiv2', 00H ; `string'
CONST	ENDS
;	COMDAT ??_C@_0BE@MKNCGEOD@AttackDamageMinDiv2?$AA@
CONST	SEGMENT
??_C@_0BE@MKNCGEOD@AttackDamageMinDiv2?$AA@ DB 'AttackDamageMinDiv2', 00H ; `string'
CONST	ENDS
;	COMDAT ??_C@_05NMMICPNI@Fairy?$AA@
CONST	SEGMENT
??_C@_05NMMICPNI@Fairy?$AA@ DB 'Fairy', 00H		; `string'
CONST	ENDS
;	COMDAT ??_C@_06CJCFJDME@Knight?$AA@
CONST	SEGMENT
??_C@_06CJCFJDME@Knight?$AA@ DB 'Knight', 00H		; `string'
CONST	ENDS
;	COMDAT ??_C@_0BA@OINNJGM@SuccessBlockDiv?$AA@
CONST	SEGMENT
??_C@_0BA@OINNJGM@SuccessBlockDiv?$AA@ DB 'SuccessBlockDiv', 00H ; `string'
CONST	ENDS
;	COMDAT ??_C@_0L@FPKNOMOE@DefenseDiv?$AA@
CONST	SEGMENT
??_C@_0L@FPKNOMOE@DefenseDiv?$AA@ DB 'DefenseDiv', 00H	; `string'
CONST	ENDS
;	COMDAT ??_C@_0O@GGHOLBLA@MagicSpeedDiv?$AA@
CONST	SEGMENT
??_C@_0O@GGHOLBLA@MagicSpeedDiv?$AA@ DB 'MagicSpeedDiv', 00H ; `string'
CONST	ENDS
;	COMDAT ??_C@_0P@KBPLHIKI@AttackSpeedDiv?$AA@
CONST	SEGMENT
??_C@_0P@KBPLHIKI@AttackSpeedDiv?$AA@ DB 'AttackSpeedDiv', 00H ; `string'
CONST	ENDS
;	COMDAT ??_C@_0BC@OLKFDBJM@MagicDamageMaxDiv?$AA@
CONST	SEGMENT
??_C@_0BC@OLKFDBJM@MagicDamageMaxDiv?$AA@ DB 'MagicDamageMaxDiv', 00H ; `string'
CONST	ENDS
;	COMDAT ??_C@_0BC@OIFGNBND@MagicDamageMinDiv?$AA@
CONST	SEGMENT
??_C@_0BC@OIFGNBND@MagicDamageMinDiv?$AA@ DB 'MagicDamageMinDiv', 00H ; `string'
CONST	ENDS
;	COMDAT ??_C@_0BE@HJPJIMB@AttackDamageMaxDiv1?$AA@
CONST	SEGMENT
??_C@_0BE@HJPJIMB@AttackDamageMaxDiv1?$AA@ DB 'AttackDamageMaxDiv1', 00H ; `string'
CONST	ENDS
;	COMDAT ??_C@_02CLOBADPI@DL?$AA@
CONST	SEGMENT
??_C@_02CLOBADPI@DL?$AA@ DB 'DL', 00H			; `string'
CONST	ENDS
;	COMDAT ??_C@_02MHMEOBLM@MG?$AA@
CONST	SEGMENT
??_C@_02MHMEOBLM@MG?$AA@ DB 'MG', 00H			; `string'
CONST	ENDS
;	COMDAT ??_C@_03KNNCBEML@ELF?$AA@
CONST	SEGMENT
??_C@_03KNNCBEML@ELF?$AA@ DB 'ELF', 00H			; `string'
CONST	ENDS
;	COMDAT ??_C@_02GEKAJFDP@DK?$AA@
CONST	SEGMENT
??_C@_02GEKAJFDP@DK?$AA@ DB 'DK', 00H			; `string'
CONST	ENDS
;	COMDAT ??_C@_02ICNHMIGC@DW?$AA@
CONST	SEGMENT
??_C@_02ICNHMIGC@DW?$AA@ DB 'DW', 00H			; `string'
CONST	ENDS
;	COMDAT ??_C@_06MNAGNDLP@Wizard?$AA@
CONST	SEGMENT
??_C@_06MNAGNDLP@Wizard?$AA@ DB 'Wizard', 00H		; `string'
CONST	ENDS
;	COMDAT ??_C@_0BE@OBPPDHCA@AttackDamageMinDiv1?$AA@
CONST	SEGMENT
??_C@_0BE@OBPPDHCA@AttackDamageMinDiv1?$AA@ DB 'AttackDamageMinDiv1', 00H ; `string'
CONST	ENDS
;	COMDAT ??_C@_0CE@GNOGNPAA@?4?2Customs?2Systems?2Hgt_Character?4@
CONST	SEGMENT
??_C@_0CE@GNOGNPAA@?4?2Customs?2Systems?2Hgt_Character?4@ DB '.\Customs\S'
	DB	'ystems\Hgt_Character.ini', 00H		; `string'
; Function compile flags: /Ogtp
CONST	ENDS
;	COMDAT ?Character@CServerInfo@@QAEXXZ
_TEXT	SEGMENT
_szClassPrefixes$ = -164				; size = 20
tv713 = -144						; size = 4
_iPlayer$155142 = -140					; size = 4
tv833 = -136						; size = 4
_szTemp$ = -132						; size = 128
__$ArrayPad$ = -4					; size = 4
?Character@CServerInfo@@QAEXXZ PROC			; CServerInfo::Character, COMDAT
; _this$ = ecx

; 113  : {

  00000	55		 push	 ebp
  00001	8b ec		 mov	 ebp, esp
  00003	81 ec a4 00 00
	00		 sub	 esp, 164		; 000000a4H
  00009	a1 00 00 00 00	 mov	 eax, DWORD PTR ___security_cookie
  0000e	33 c5		 xor	 eax, ebp
  00010	89 45 fc	 mov	 DWORD PTR __$ArrayPad$[ebp], eax
  00013	53		 push	 ebx
  00014	56		 push	 esi

; 114  : 	char * szClassPrefixes[] = { "DW", "DK", "ELF", "MG", "DL" };
; 115  : 	// ---
; 116  : 	char szTemp[128];
; 117  : 	// ---
; 118  : 	this->m_Character.MinimumDamageDW			= GetPrivateProfileInt("Wizard","AttackDamageMinDiv1",8, CHARACTER_FILE);

  00015	8b 35 00 00 00
	00		 mov	 esi, DWORD PTR __imp__GetPrivateProfileIntA@16
  0001b	57		 push	 edi
  0001c	68 00 00 00 00	 push	 OFFSET ??_C@_0CE@GNOGNPAA@?4?2Customs?2Systems?2Hgt_Character?4@
  00021	6a 08		 push	 8
  00023	68 00 00 00 00	 push	 OFFSET ??_C@_0BE@OBPPDHCA@AttackDamageMinDiv1?$AA@
  00028	68 00 00 00 00	 push	 OFFSET ??_C@_06MNAGNDLP@Wizard?$AA@
  0002d	8b f9		 mov	 edi, ecx
  0002f	c7 85 5c ff ff
	ff 00 00 00 00	 mov	 DWORD PTR _szClassPrefixes$[ebp], OFFSET ??_C@_02ICNHMIGC@DW?$AA@
  00039	c7 85 60 ff ff
	ff 00 00 00 00	 mov	 DWORD PTR _szClassPrefixes$[ebp+4], OFFSET ??_C@_02GEKAJFDP@DK?$AA@
  00043	c7 85 64 ff ff
	ff 00 00 00 00	 mov	 DWORD PTR _szClassPrefixes$[ebp+8], OFFSET ??_C@_03KNNCBEML@ELF?$AA@
  0004d	c7 85 68 ff ff
	ff 00 00 00 00	 mov	 DWORD PTR _szClassPrefixes$[ebp+12], OFFSET ??_C@_02MHMEOBLM@MG?$AA@
  00057	c7 85 6c ff ff
	ff 00 00 00 00	 mov	 DWORD PTR _szClassPrefixes$[ebp+16], OFFSET ??_C@_02CLOBADPI@DL?$AA@
  00061	ff d6		 call	 esi

; 119  : 	this->m_Character.MaximumDamageDW			= GetPrivateProfileInt("Wizard","AttackDamageMaxDiv1",4, CHARACTER_FILE);

  00063	68 00 00 00 00	 push	 OFFSET ??_C@_0CE@GNOGNPAA@?4?2Customs?2Systems?2Hgt_Character?4@
  00068	6a 04		 push	 4
  0006a	68 00 00 00 00	 push	 OFFSET ??_C@_0BE@HJPJIMB@AttackDamageMaxDiv1?$AA@
  0006f	68 00 00 00 00	 push	 OFFSET ??_C@_06MNAGNDLP@Wizard?$AA@
  00074	66 89 87 46 01
	00 00		 mov	 WORD PTR [edi+326], ax
  0007b	ff d6		 call	 esi

; 120  : 	this->m_Character.MinimumMagicDamageDW		= GetPrivateProfileInt("Wizard","MagicDamageMinDiv",9, CHARACTER_FILE);

  0007d	68 00 00 00 00	 push	 OFFSET ??_C@_0CE@GNOGNPAA@?4?2Customs?2Systems?2Hgt_Character?4@
  00082	6a 09		 push	 9
  00084	68 00 00 00 00	 push	 OFFSET ??_C@_0BC@OIFGNBND@MagicDamageMinDiv?$AA@
  00089	68 00 00 00 00	 push	 OFFSET ??_C@_06MNAGNDLP@Wizard?$AA@
  0008e	66 89 87 48 01
	00 00		 mov	 WORD PTR [edi+328], ax
  00095	ff d6		 call	 esi

; 121  : 	this->m_Character.MaximumMagicDamageDW		= GetPrivateProfileInt("Wizard","MagicDamageMaxDiv",4, CHARACTER_FILE);

  00097	68 00 00 00 00	 push	 OFFSET ??_C@_0CE@GNOGNPAA@?4?2Customs?2Systems?2Hgt_Character?4@
  0009c	6a 04		 push	 4
  0009e	68 00 00 00 00	 push	 OFFSET ??_C@_0BC@OLKFDBJM@MagicDamageMaxDiv?$AA@
  000a3	68 00 00 00 00	 push	 OFFSET ??_C@_06MNAGNDLP@Wizard?$AA@
  000a8	66 89 87 42 01
	00 00		 mov	 WORD PTR [edi+322], ax
  000af	ff d6		 call	 esi

; 122  : 	this->m_Character.AttackSpeedDW				= GetPrivateProfileInt("Wizard","AttackSpeedDiv",20, CHARACTER_FILE);

  000b1	68 00 00 00 00	 push	 OFFSET ??_C@_0CE@GNOGNPAA@?4?2Customs?2Systems?2Hgt_Character?4@
  000b6	6a 14		 push	 20			; 00000014H
  000b8	68 00 00 00 00	 push	 OFFSET ??_C@_0P@KBPLHIKI@AttackSpeedDiv?$AA@
  000bd	68 00 00 00 00	 push	 OFFSET ??_C@_06MNAGNDLP@Wizard?$AA@
  000c2	66 89 87 44 01
	00 00		 mov	 WORD PTR [edi+324], ax
  000c9	ff d6		 call	 esi

; 123  : 	this->m_Character.MagicSpeedDW				= GetPrivateProfileInt("Wizard","MagicSpeedDiv",10, CHARACTER_FILE);

  000cb	68 00 00 00 00	 push	 OFFSET ??_C@_0CE@GNOGNPAA@?4?2Customs?2Systems?2Hgt_Character?4@
  000d0	6a 0a		 push	 10			; 0000000aH
  000d2	68 00 00 00 00	 push	 OFFSET ??_C@_0O@GGHOLBLA@MagicSpeedDiv?$AA@
  000d7	68 00 00 00 00	 push	 OFFSET ??_C@_06MNAGNDLP@Wizard?$AA@
  000dc	66 89 87 4a 01
	00 00		 mov	 WORD PTR [edi+330], ax
  000e3	ff d6		 call	 esi

; 124  : 	this->m_Character.DefenseDW					= GetPrivateProfileInt("Wizard","DefenseDiv",4, CHARACTER_FILE);

  000e5	68 00 00 00 00	 push	 OFFSET ??_C@_0CE@GNOGNPAA@?4?2Customs?2Systems?2Hgt_Character?4@
  000ea	6a 04		 push	 4
  000ec	68 00 00 00 00	 push	 OFFSET ??_C@_0L@FPKNOMOE@DefenseDiv?$AA@
  000f1	68 00 00 00 00	 push	 OFFSET ??_C@_06MNAGNDLP@Wizard?$AA@
  000f6	66 89 87 4c 01
	00 00		 mov	 WORD PTR [edi+332], ax
  000fd	ff d6		 call	 esi

; 125  : 	this->m_Character.BlockDW					= GetPrivateProfileInt("Wizard","SuccessBlockDiv",4, CHARACTER_FILE);

  000ff	68 00 00 00 00	 push	 OFFSET ??_C@_0CE@GNOGNPAA@?4?2Customs?2Systems?2Hgt_Character?4@
  00104	6a 04		 push	 4
  00106	68 00 00 00 00	 push	 OFFSET ??_C@_0BA@OINNJGM@SuccessBlockDiv?$AA@
  0010b	68 00 00 00 00	 push	 OFFSET ??_C@_06MNAGNDLP@Wizard?$AA@
  00110	66 89 87 38 01
	00 00		 mov	 WORD PTR [edi+312], ax
  00117	ff d6		 call	 esi

; 126  : 		
; 127  : 	this->m_Character.MinimumDamageDK			= GetPrivateProfileInt("Knight","AttackDamageMinDiv1",6, CHARACTER_FILE);

  00119	68 00 00 00 00	 push	 OFFSET ??_C@_0CE@GNOGNPAA@?4?2Customs?2Systems?2Hgt_Character?4@
  0011e	6a 06		 push	 6
  00120	68 00 00 00 00	 push	 OFFSET ??_C@_0BE@OBPPDHCA@AttackDamageMinDiv1?$AA@
  00125	68 00 00 00 00	 push	 OFFSET ??_C@_06CJCFJDME@Knight?$AA@
  0012a	66 89 87 4e 01
	00 00		 mov	 WORD PTR [edi+334], ax
  00131	ff d6		 call	 esi

; 128  : 	this->m_Character.MaximumDamageDK			= GetPrivateProfileInt("Knight","AttackDamageMaxDiv1",4, CHARACTER_FILE);

  00133	68 00 00 00 00	 push	 OFFSET ??_C@_0CE@GNOGNPAA@?4?2Customs?2Systems?2Hgt_Character?4@
  00138	6a 04		 push	 4
  0013a	68 00 00 00 00	 push	 OFFSET ??_C@_0BE@HJPJIMB@AttackDamageMaxDiv1?$AA@
  0013f	68 00 00 00 00	 push	 OFFSET ??_C@_06CJCFJDME@Knight?$AA@
  00144	66 89 87 50 01
	00 00		 mov	 WORD PTR [edi+336], ax
  0014b	ff d6		 call	 esi

; 129  : 	this->m_Character.MinimumMagicDamageDK		= GetPrivateProfileInt("Knight","MagicDamageMinDiv",9, CHARACTER_FILE);

  0014d	68 00 00 00 00	 push	 OFFSET ??_C@_0CE@GNOGNPAA@?4?2Customs?2Systems?2Hgt_Character?4@
  00152	6a 09		 push	 9
  00154	68 00 00 00 00	 push	 OFFSET ??_C@_0BC@OIFGNBND@MagicDamageMinDiv?$AA@
  00159	68 00 00 00 00	 push	 OFFSET ??_C@_06CJCFJDME@Knight?$AA@
  0015e	66 89 87 52 01
	00 00		 mov	 WORD PTR [edi+338], ax
  00165	ff d6		 call	 esi

; 130  : 	this->m_Character.MaximumMagicDamageDK		= GetPrivateProfileInt("Knight","MagicDamageMaxDiv",4, CHARACTER_FILE);

  00167	68 00 00 00 00	 push	 OFFSET ??_C@_0CE@GNOGNPAA@?4?2Customs?2Systems?2Hgt_Character?4@
  0016c	6a 04		 push	 4
  0016e	68 00 00 00 00	 push	 OFFSET ??_C@_0BC@OLKFDBJM@MagicDamageMaxDiv?$AA@
  00173	68 00 00 00 00	 push	 OFFSET ??_C@_06CJCFJDME@Knight?$AA@
  00178	66 89 87 54 01
	00 00		 mov	 WORD PTR [edi+340], ax
  0017f	ff d6		 call	 esi

; 131  : 	this->m_Character.AttackSpeedDK				= GetPrivateProfileInt("Knight","AttackSpeedDiv",15, CHARACTER_FILE);

  00181	68 00 00 00 00	 push	 OFFSET ??_C@_0CE@GNOGNPAA@?4?2Customs?2Systems?2Hgt_Character?4@
  00186	6a 0f		 push	 15			; 0000000fH
  00188	68 00 00 00 00	 push	 OFFSET ??_C@_0P@KBPLHIKI@AttackSpeedDiv?$AA@
  0018d	68 00 00 00 00	 push	 OFFSET ??_C@_06CJCFJDME@Knight?$AA@
  00192	66 89 87 56 01
	00 00		 mov	 WORD PTR [edi+342], ax
  00199	ff d6		 call	 esi

; 132  : 	this->m_Character.MagicSpeedDK				= GetPrivateProfileInt("Knight","MagicSpeedDiv",20, CHARACTER_FILE);

  0019b	68 00 00 00 00	 push	 OFFSET ??_C@_0CE@GNOGNPAA@?4?2Customs?2Systems?2Hgt_Character?4@
  001a0	6a 14		 push	 20			; 00000014H
  001a2	68 00 00 00 00	 push	 OFFSET ??_C@_0O@GGHOLBLA@MagicSpeedDiv?$AA@
  001a7	68 00 00 00 00	 push	 OFFSET ??_C@_06CJCFJDME@Knight?$AA@
  001ac	66 89 87 58 01
	00 00		 mov	 WORD PTR [edi+344], ax
  001b3	ff d6		 call	 esi

; 133  : 	this->m_Character.DefenseDK					= GetPrivateProfileInt("Knight","DefenseDiv",3, CHARACTER_FILE);

  001b5	68 00 00 00 00	 push	 OFFSET ??_C@_0CE@GNOGNPAA@?4?2Customs?2Systems?2Hgt_Character?4@
  001ba	6a 03		 push	 3
  001bc	68 00 00 00 00	 push	 OFFSET ??_C@_0L@FPKNOMOE@DefenseDiv?$AA@
  001c1	68 00 00 00 00	 push	 OFFSET ??_C@_06CJCFJDME@Knight?$AA@
  001c6	66 89 87 5a 01
	00 00		 mov	 WORD PTR [edi+346], ax
  001cd	ff d6		 call	 esi

; 134  : 	this->m_Character.BlockDK					= GetPrivateProfileInt("Wizard","SuccessBlockDiv",4, CHARACTER_FILE);

  001cf	68 00 00 00 00	 push	 OFFSET ??_C@_0CE@GNOGNPAA@?4?2Customs?2Systems?2Hgt_Character?4@
  001d4	6a 04		 push	 4
  001d6	68 00 00 00 00	 push	 OFFSET ??_C@_0BA@OINNJGM@SuccessBlockDiv?$AA@
  001db	68 00 00 00 00	 push	 OFFSET ??_C@_06MNAGNDLP@Wizard?$AA@
  001e0	66 89 87 3a 01
	00 00		 mov	 WORD PTR [edi+314], ax
  001e7	ff d6		 call	 esi

; 135  : 	
; 136  : 	this->m_Character.MinimumDamageFE_NoBow		= GetPrivateProfileInt("Fairy","AttackDamageMinDiv1", 7, CHARACTER_FILE);

  001e9	68 00 00 00 00	 push	 OFFSET ??_C@_0CE@GNOGNPAA@?4?2Customs?2Systems?2Hgt_Character?4@
  001ee	6a 07		 push	 7
  001f0	68 00 00 00 00	 push	 OFFSET ??_C@_0BE@OBPPDHCA@AttackDamageMinDiv1?$AA@
  001f5	68 00 00 00 00	 push	 OFFSET ??_C@_05NMMICPNI@Fairy?$AA@
  001fa	66 89 87 5c 01
	00 00		 mov	 WORD PTR [edi+348], ax
  00201	ff d6		 call	 esi

; 137  : 	this->m_Character.MaximumDamageFE_NoBow		= GetPrivateProfileInt("Fairy","AttackDamageMaxDiv1", 4, CHARACTER_FILE);

  00203	68 00 00 00 00	 push	 OFFSET ??_C@_0CE@GNOGNPAA@?4?2Customs?2Systems?2Hgt_Character?4@
  00208	6a 04		 push	 4
  0020a	68 00 00 00 00	 push	 OFFSET ??_C@_0BE@HJPJIMB@AttackDamageMaxDiv1?$AA@
  0020f	68 00 00 00 00	 push	 OFFSET ??_C@_05NMMICPNI@Fairy?$AA@
  00214	66 89 87 5e 01
	00 00		 mov	 WORD PTR [edi+350], ax
  0021b	ff d6		 call	 esi

; 138  : 	this->m_Character.MinimumDamageFE_StrBow		= GetPrivateProfileInt("Fairy","AttackDamageMinDiv2",14, CHARACTER_FILE);

  0021d	68 00 00 00 00	 push	 OFFSET ??_C@_0CE@GNOGNPAA@?4?2Customs?2Systems?2Hgt_Character?4@
  00222	6a 0e		 push	 14			; 0000000eH
  00224	68 00 00 00 00	 push	 OFFSET ??_C@_0BE@MKNCGEOD@AttackDamageMinDiv2?$AA@
  00229	68 00 00 00 00	 push	 OFFSET ??_C@_05NMMICPNI@Fairy?$AA@
  0022e	66 89 87 60 01
	00 00		 mov	 WORD PTR [edi+352], ax
  00235	ff d6		 call	 esi

; 139  : 	this->m_Character.MaximumDamageFE_StrBow		= GetPrivateProfileInt("Fairy","AttackDamageMaxDiv2",8, CHARACTER_FILE);

  00237	68 00 00 00 00	 push	 OFFSET ??_C@_0CE@GNOGNPAA@?4?2Customs?2Systems?2Hgt_Character?4@
  0023c	6a 08		 push	 8
  0023e	68 00 00 00 00	 push	 OFFSET ??_C@_0BE@CMLCMLAC@AttackDamageMaxDiv2?$AA@
  00243	68 00 00 00 00	 push	 OFFSET ??_C@_05NMMICPNI@Fairy?$AA@
  00248	66 89 87 62 01
	00 00		 mov	 WORD PTR [edi+354], ax
  0024f	ff d6		 call	 esi

; 140  : 	this->m_Character.MinimumDamageFE_AgiBow		= GetPrivateProfileInt("Fairy","AttackDamageMinDiv3",7, CHARACTER_FILE);

  00251	68 00 00 00 00	 push	 OFFSET ??_C@_0CE@GNOGNPAA@?4?2Customs?2Systems?2Hgt_Character?4@
  00256	6a 07		 push	 7
  00258	68 00 00 00 00	 push	 OFFSET ??_C@_0BE@NDMJFFKC@AttackDamageMinDiv3?$AA@
  0025d	68 00 00 00 00	 push	 OFFSET ??_C@_05NMMICPNI@Fairy?$AA@
  00262	66 89 87 64 01
	00 00		 mov	 WORD PTR [edi+356], ax
  00269	ff d6		 call	 esi

; 141  : 	this->m_Character.MaximumDamageFE_AgiBow		= GetPrivateProfileInt("Fairy","AttackDamageMaxDiv3",4, CHARACTER_FILE);

  0026b	68 00 00 00 00	 push	 OFFSET ??_C@_0CE@GNOGNPAA@?4?2Customs?2Systems?2Hgt_Character?4@
  00270	6a 04		 push	 4
  00272	68 00 00 00 00	 push	 OFFSET ??_C@_0BE@DFKJPKED@AttackDamageMaxDiv3?$AA@
  00277	68 00 00 00 00	 push	 OFFSET ??_C@_05NMMICPNI@Fairy?$AA@
  0027c	66 89 87 66 01
	00 00		 mov	 WORD PTR [edi+358], ax
  00283	ff d6		 call	 esi

; 142  : 	this->m_Character.MinimumMagicDamageFE		= GetPrivateProfileInt("Fairy","MagicDamageMinDiv",9, CHARACTER_FILE);

  00285	68 00 00 00 00	 push	 OFFSET ??_C@_0CE@GNOGNPAA@?4?2Customs?2Systems?2Hgt_Character?4@
  0028a	6a 09		 push	 9
  0028c	68 00 00 00 00	 push	 OFFSET ??_C@_0BC@OIFGNBND@MagicDamageMinDiv?$AA@
  00291	68 00 00 00 00	 push	 OFFSET ??_C@_05NMMICPNI@Fairy?$AA@
  00296	66 89 87 68 01
	00 00		 mov	 WORD PTR [edi+360], ax
  0029d	ff d6		 call	 esi

; 143  : 	this->m_Character.MaximumMagicDamageFE		= GetPrivateProfileInt("Fairy","MagicDamageMaxDiv",4, CHARACTER_FILE);

  0029f	68 00 00 00 00	 push	 OFFSET ??_C@_0CE@GNOGNPAA@?4?2Customs?2Systems?2Hgt_Character?4@
  002a4	6a 04		 push	 4
  002a6	68 00 00 00 00	 push	 OFFSET ??_C@_0BC@OLKFDBJM@MagicDamageMaxDiv?$AA@
  002ab	68 00 00 00 00	 push	 OFFSET ??_C@_05NMMICPNI@Fairy?$AA@
  002b0	66 89 87 6a 01
	00 00		 mov	 WORD PTR [edi+362], ax
  002b7	ff d6		 call	 esi

; 144  : 	this->m_Character.AttackSpeedFE				= GetPrivateProfileInt("Fairy","AttackSpeedDiv",50, CHARACTER_FILE);

  002b9	68 00 00 00 00	 push	 OFFSET ??_C@_0CE@GNOGNPAA@?4?2Customs?2Systems?2Hgt_Character?4@
  002be	6a 32		 push	 50			; 00000032H
  002c0	68 00 00 00 00	 push	 OFFSET ??_C@_0P@KBPLHIKI@AttackSpeedDiv?$AA@
  002c5	68 00 00 00 00	 push	 OFFSET ??_C@_05NMMICPNI@Fairy?$AA@
  002ca	66 89 87 6c 01
	00 00		 mov	 WORD PTR [edi+364], ax
  002d1	ff d6		 call	 esi

; 145  : 	this->m_Character.MagicSpeedFE				= GetPrivateProfileInt("Fairy","MagicSpeedDiv",50, CHARACTER_FILE);

  002d3	68 00 00 00 00	 push	 OFFSET ??_C@_0CE@GNOGNPAA@?4?2Customs?2Systems?2Hgt_Character?4@
  002d8	66 89 87 6e 01
	00 00		 mov	 WORD PTR [edi+366], ax
  002df	6a 32		 push	 50			; 00000032H
  002e1	68 00 00 00 00	 push	 OFFSET ??_C@_0O@GGHOLBLA@MagicSpeedDiv?$AA@
  002e6	68 00 00 00 00	 push	 OFFSET ??_C@_05NMMICPNI@Fairy?$AA@
  002eb	ff d6		 call	 esi

; 146  : 	this->m_Character.DefenseFE					= GetPrivateProfileInt("Fairy","DefenseDiv",10, CHARACTER_FILE);

  002ed	68 00 00 00 00	 push	 OFFSET ??_C@_0CE@GNOGNPAA@?4?2Customs?2Systems?2Hgt_Character?4@
  002f2	6a 0a		 push	 10			; 0000000aH
  002f4	68 00 00 00 00	 push	 OFFSET ??_C@_0L@FPKNOMOE@DefenseDiv?$AA@
  002f9	68 00 00 00 00	 push	 OFFSET ??_C@_05NMMICPNI@Fairy?$AA@
  002fe	66 89 87 70 01
	00 00		 mov	 WORD PTR [edi+368], ax
  00305	ff d6		 call	 esi

; 147  : 	this->m_Character.BlockFE					= GetPrivateProfileInt("Fairy","SuccessBlockDiv",4, CHARACTER_FILE);

  00307	68 00 00 00 00	 push	 OFFSET ??_C@_0CE@GNOGNPAA@?4?2Customs?2Systems?2Hgt_Character?4@
  0030c	6a 04		 push	 4
  0030e	68 00 00 00 00	 push	 OFFSET ??_C@_0BA@OINNJGM@SuccessBlockDiv?$AA@
  00313	68 00 00 00 00	 push	 OFFSET ??_C@_05NMMICPNI@Fairy?$AA@
  00318	66 89 87 3c 01
	00 00		 mov	 WORD PTR [edi+316], ax
  0031f	ff d6		 call	 esi

; 148  : 	
; 149  : 	this->m_Character.MinimumDamageMG_Str		= GetPrivateProfileInt("Magic","AttackDamageMinDiv1",6, CHARACTER_FILE);

  00321	68 00 00 00 00	 push	 OFFSET ??_C@_0CE@GNOGNPAA@?4?2Customs?2Systems?2Hgt_Character?4@
  00326	6a 06		 push	 6
  00328	68 00 00 00 00	 push	 OFFSET ??_C@_0BE@OBPPDHCA@AttackDamageMinDiv1?$AA@
  0032d	68 00 00 00 00	 push	 OFFSET ??_C@_05PGIOBOGC@Magic?$AA@
  00332	66 89 87 72 01
	00 00		 mov	 WORD PTR [edi+370], ax
  00339	ff d6		 call	 esi

; 150  : 	this->m_Character.MaximumDamageMG_Str		= GetPrivateProfileInt("Magic","AttackDamageMaxDiv1",4, CHARACTER_FILE);

  0033b	68 00 00 00 00	 push	 OFFSET ??_C@_0CE@GNOGNPAA@?4?2Customs?2Systems?2Hgt_Character?4@
  00340	6a 04		 push	 4
  00342	68 00 00 00 00	 push	 OFFSET ??_C@_0BE@HJPJIMB@AttackDamageMaxDiv1?$AA@
  00347	68 00 00 00 00	 push	 OFFSET ??_C@_05PGIOBOGC@Magic?$AA@
  0034c	66 89 87 74 01
	00 00		 mov	 WORD PTR [edi+372], ax
  00353	ff d6		 call	 esi

; 151  : 	this->m_Character.MinimumDamageMG_Ene		= GetPrivateProfileInt("Magic","AttackDamageMinDiv2",12, CHARACTER_FILE);

  00355	68 00 00 00 00	 push	 OFFSET ??_C@_0CE@GNOGNPAA@?4?2Customs?2Systems?2Hgt_Character?4@
  0035a	6a 0c		 push	 12			; 0000000cH
  0035c	68 00 00 00 00	 push	 OFFSET ??_C@_0BE@MKNCGEOD@AttackDamageMinDiv2?$AA@
  00361	68 00 00 00 00	 push	 OFFSET ??_C@_05PGIOBOGC@Magic?$AA@
  00366	66 89 87 76 01
	00 00		 mov	 WORD PTR [edi+374], ax
  0036d	ff d6		 call	 esi

; 152  : 	this->m_Character.MaximumDamageMG_Ene		= GetPrivateProfileInt("Magic","AttackDamageMaxDiv2",8, CHARACTER_FILE);

  0036f	68 00 00 00 00	 push	 OFFSET ??_C@_0CE@GNOGNPAA@?4?2Customs?2Systems?2Hgt_Character?4@
  00374	6a 08		 push	 8
  00376	68 00 00 00 00	 push	 OFFSET ??_C@_0BE@CMLCMLAC@AttackDamageMaxDiv2?$AA@
  0037b	68 00 00 00 00	 push	 OFFSET ??_C@_05PGIOBOGC@Magic?$AA@
  00380	66 89 87 78 01
	00 00		 mov	 WORD PTR [edi+376], ax
  00387	ff d6		 call	 esi

; 153  : 	this->m_Character.MinimumMagicDamageMG		= GetPrivateProfileInt("Magic","MagicDamageMinDiv",9, CHARACTER_FILE);

  00389	68 00 00 00 00	 push	 OFFSET ??_C@_0CE@GNOGNPAA@?4?2Customs?2Systems?2Hgt_Character?4@
  0038e	6a 09		 push	 9
  00390	68 00 00 00 00	 push	 OFFSET ??_C@_0BC@OIFGNBND@MagicDamageMinDiv?$AA@
  00395	68 00 00 00 00	 push	 OFFSET ??_C@_05PGIOBOGC@Magic?$AA@
  0039a	66 89 87 7a 01
	00 00		 mov	 WORD PTR [edi+378], ax
  003a1	ff d6		 call	 esi

; 154  : 	this->m_Character.MaximumMagicDamageMG		= GetPrivateProfileInt("Magic","MagicDamageMaxDiv",4, CHARACTER_FILE);

  003a3	68 00 00 00 00	 push	 OFFSET ??_C@_0CE@GNOGNPAA@?4?2Customs?2Systems?2Hgt_Character?4@
  003a8	6a 04		 push	 4
  003aa	68 00 00 00 00	 push	 OFFSET ??_C@_0BC@OLKFDBJM@MagicDamageMaxDiv?$AA@
  003af	68 00 00 00 00	 push	 OFFSET ??_C@_05PGIOBOGC@Magic?$AA@
  003b4	66 89 87 7c 01
	00 00		 mov	 WORD PTR [edi+380], ax
  003bb	ff d6		 call	 esi

; 155  : 	this->m_Character.AttackSpeedMG				= GetPrivateProfileInt("Magic","AttackSpeedDiv",50, CHARACTER_FILE);

  003bd	68 00 00 00 00	 push	 OFFSET ??_C@_0CE@GNOGNPAA@?4?2Customs?2Systems?2Hgt_Character?4@
  003c2	6a 32		 push	 50			; 00000032H
  003c4	68 00 00 00 00	 push	 OFFSET ??_C@_0P@KBPLHIKI@AttackSpeedDiv?$AA@
  003c9	68 00 00 00 00	 push	 OFFSET ??_C@_05PGIOBOGC@Magic?$AA@
  003ce	66 89 87 7e 01
	00 00		 mov	 WORD PTR [edi+382], ax
  003d5	ff d6		 call	 esi

; 156  : 	this->m_Character.MagicSpeedMG				= GetPrivateProfileInt("Magic","MagicSpeedDiv",50, CHARACTER_FILE);

  003d7	68 00 00 00 00	 push	 OFFSET ??_C@_0CE@GNOGNPAA@?4?2Customs?2Systems?2Hgt_Character?4@
  003dc	6a 32		 push	 50			; 00000032H
  003de	68 00 00 00 00	 push	 OFFSET ??_C@_0O@GGHOLBLA@MagicSpeedDiv?$AA@
  003e3	68 00 00 00 00	 push	 OFFSET ??_C@_05PGIOBOGC@Magic?$AA@
  003e8	66 89 87 80 01
	00 00		 mov	 WORD PTR [edi+384], ax
  003ef	ff d6		 call	 esi

; 157  : 	this->m_Character.DefenseMG					= GetPrivateProfileInt("Magic","DefenseDiv",4, CHARACTER_FILE);	

  003f1	68 00 00 00 00	 push	 OFFSET ??_C@_0CE@GNOGNPAA@?4?2Customs?2Systems?2Hgt_Character?4@
  003f6	6a 04		 push	 4
  003f8	68 00 00 00 00	 push	 OFFSET ??_C@_0L@FPKNOMOE@DefenseDiv?$AA@
  003fd	68 00 00 00 00	 push	 OFFSET ??_C@_05PGIOBOGC@Magic?$AA@
  00402	66 89 87 82 01
	00 00		 mov	 WORD PTR [edi+386], ax
  00409	ff d6		 call	 esi

; 158  : 	this->m_Character.BlockMG					= GetPrivateProfileInt("Magic","SuccessBlockDiv",4, CHARACTER_FILE);

  0040b	68 00 00 00 00	 push	 OFFSET ??_C@_0CE@GNOGNPAA@?4?2Customs?2Systems?2Hgt_Character?4@
  00410	6a 04		 push	 4
  00412	68 00 00 00 00	 push	 OFFSET ??_C@_0BA@OINNJGM@SuccessBlockDiv?$AA@
  00417	68 00 00 00 00	 push	 OFFSET ??_C@_05PGIOBOGC@Magic?$AA@
  0041c	66 89 87 3e 01
	00 00		 mov	 WORD PTR [edi+318], ax
  00423	ff d6		 call	 esi

; 159  : 
; 160  : 	this->m_Character.MinimumDamageDL_Str		= GetPrivateProfileInt("Lord","AttackDamageMinDiv1",7, CHARACTER_FILE);

  00425	68 00 00 00 00	 push	 OFFSET ??_C@_0CE@GNOGNPAA@?4?2Customs?2Systems?2Hgt_Character?4@
  0042a	6a 07		 push	 7
  0042c	68 00 00 00 00	 push	 OFFSET ??_C@_0BE@OBPPDHCA@AttackDamageMinDiv1?$AA@
  00431	68 00 00 00 00	 push	 OFFSET ??_C@_04JBHPEIGC@Lord?$AA@
  00436	66 89 87 84 01
	00 00		 mov	 WORD PTR [edi+388], ax
  0043d	ff d6		 call	 esi

; 161  : 	this->m_Character.MaximumDamageDL_Str		= GetPrivateProfileInt("Lord","AttackDamageMaxDiv1",5, CHARACTER_FILE);

  0043f	68 00 00 00 00	 push	 OFFSET ??_C@_0CE@GNOGNPAA@?4?2Customs?2Systems?2Hgt_Character?4@
  00444	6a 05		 push	 5
  00446	68 00 00 00 00	 push	 OFFSET ??_C@_0BE@HJPJIMB@AttackDamageMaxDiv1?$AA@
  0044b	68 00 00 00 00	 push	 OFFSET ??_C@_04JBHPEIGC@Lord?$AA@
  00450	66 89 87 86 01
	00 00		 mov	 WORD PTR [edi+390], ax
  00457	ff d6		 call	 esi

; 162  : 	this->m_Character.MinimumDamageDL_Ene		= GetPrivateProfileInt("Lord","AttackDamageMinDiv2",14, CHARACTER_FILE);

  00459	68 00 00 00 00	 push	 OFFSET ??_C@_0CE@GNOGNPAA@?4?2Customs?2Systems?2Hgt_Character?4@
  0045e	6a 0e		 push	 14			; 0000000eH
  00460	68 00 00 00 00	 push	 OFFSET ??_C@_0BE@MKNCGEOD@AttackDamageMinDiv2?$AA@
  00465	68 00 00 00 00	 push	 OFFSET ??_C@_04JBHPEIGC@Lord?$AA@
  0046a	66 89 87 88 01
	00 00		 mov	 WORD PTR [edi+392], ax
  00471	ff d6		 call	 esi

; 163  : 	this->m_Character.MaximumDamageDL_Ene		= GetPrivateProfileInt("Lord","AttackDamageMaxDiv2",10, CHARACTER_FILE);

  00473	68 00 00 00 00	 push	 OFFSET ??_C@_0CE@GNOGNPAA@?4?2Customs?2Systems?2Hgt_Character?4@
  00478	6a 0a		 push	 10			; 0000000aH
  0047a	68 00 00 00 00	 push	 OFFSET ??_C@_0BE@CMLCMLAC@AttackDamageMaxDiv2?$AA@
  0047f	68 00 00 00 00	 push	 OFFSET ??_C@_04JBHPEIGC@Lord?$AA@
  00484	66 89 87 8a 01
	00 00		 mov	 WORD PTR [edi+394], ax
  0048b	ff d6		 call	 esi

; 164  : 	this->m_Character.MinimumMagicDamageDL		= GetPrivateProfileInt("Lord","MagicDamageMinDiv",9, CHARACTER_FILE);

  0048d	68 00 00 00 00	 push	 OFFSET ??_C@_0CE@GNOGNPAA@?4?2Customs?2Systems?2Hgt_Character?4@
  00492	6a 09		 push	 9
  00494	68 00 00 00 00	 push	 OFFSET ??_C@_0BC@OIFGNBND@MagicDamageMinDiv?$AA@
  00499	68 00 00 00 00	 push	 OFFSET ??_C@_04JBHPEIGC@Lord?$AA@
  0049e	66 89 87 8c 01
	00 00		 mov	 WORD PTR [edi+396], ax
  004a5	ff d6		 call	 esi

; 165  : 	this->m_Character.MaximumMagicDamageDL		= GetPrivateProfileInt("Lord","MagicDamageMaxDiv",4, CHARACTER_FILE);

  004a7	68 00 00 00 00	 push	 OFFSET ??_C@_0CE@GNOGNPAA@?4?2Customs?2Systems?2Hgt_Character?4@
  004ac	6a 04		 push	 4
  004ae	68 00 00 00 00	 push	 OFFSET ??_C@_0BC@OLKFDBJM@MagicDamageMaxDiv?$AA@
  004b3	68 00 00 00 00	 push	 OFFSET ??_C@_04JBHPEIGC@Lord?$AA@
  004b8	66 89 87 8e 01
	00 00		 mov	 WORD PTR [edi+398], ax
  004bf	ff d6		 call	 esi

; 166  : 	this->m_Character.AttackSpeedDL				= GetPrivateProfileInt("Lord","AttackSpeedDiv",50, CHARACTER_FILE);

  004c1	68 00 00 00 00	 push	 OFFSET ??_C@_0CE@GNOGNPAA@?4?2Customs?2Systems?2Hgt_Character?4@
  004c6	6a 32		 push	 50			; 00000032H
  004c8	68 00 00 00 00	 push	 OFFSET ??_C@_0P@KBPLHIKI@AttackSpeedDiv?$AA@
  004cd	68 00 00 00 00	 push	 OFFSET ??_C@_04JBHPEIGC@Lord?$AA@
  004d2	66 89 87 90 01
	00 00		 mov	 WORD PTR [edi+400], ax
  004d9	ff d6		 call	 esi

; 167  : 	this->m_Character.MagicSpeedDL				= GetPrivateProfileInt("Lord","MagicSpeedDiv",50, CHARACTER_FILE);

  004db	68 00 00 00 00	 push	 OFFSET ??_C@_0CE@GNOGNPAA@?4?2Customs?2Systems?2Hgt_Character?4@
  004e0	6a 32		 push	 50			; 00000032H
  004e2	68 00 00 00 00	 push	 OFFSET ??_C@_0O@GGHOLBLA@MagicSpeedDiv?$AA@
  004e7	68 00 00 00 00	 push	 OFFSET ??_C@_04JBHPEIGC@Lord?$AA@
  004ec	66 89 87 92 01
	00 00		 mov	 WORD PTR [edi+402], ax
  004f3	ff d6		 call	 esi

; 168  : 	this->m_Character.DefenseDL					= GetPrivateProfileInt("Lord","DefenseDiv",7, CHARACTER_FILE);

  004f5	68 00 00 00 00	 push	 OFFSET ??_C@_0CE@GNOGNPAA@?4?2Customs?2Systems?2Hgt_Character?4@
  004fa	6a 07		 push	 7
  004fc	68 00 00 00 00	 push	 OFFSET ??_C@_0L@FPKNOMOE@DefenseDiv?$AA@
  00501	68 00 00 00 00	 push	 OFFSET ??_C@_04JBHPEIGC@Lord?$AA@
  00506	66 89 87 94 01
	00 00		 mov	 WORD PTR [edi+404], ax
  0050d	ff d6		 call	 esi

; 169  : 	this->m_Character.BlockDL					= GetPrivateProfileInt("Lord","SuccessBlockDiv",4, CHARACTER_FILE);

  0050f	68 00 00 00 00	 push	 OFFSET ??_C@_0CE@GNOGNPAA@?4?2Customs?2Systems?2Hgt_Character?4@
  00514	6a 04		 push	 4
  00516	68 00 00 00 00	 push	 OFFSET ??_C@_0BA@OINNJGM@SuccessBlockDiv?$AA@
  0051b	68 00 00 00 00	 push	 OFFSET ??_C@_04JBHPEIGC@Lord?$AA@
  00520	66 89 87 40 01
	00 00		 mov	 WORD PTR [edi+320], ax
  00527	ff d6		 call	 esi
  00529	66 89 87 96 01
	00 00		 mov	 WORD PTR [edi+406], ax

; 170  : 	// ---
; 171  : 	for(int iPlayer = 0; iPlayer < MAX_TYPE_PLAYER; iPlayer++)

  00530	c7 85 74 ff ff
	ff 00 00 00 00	 mov	 DWORD PTR _iPlayer$155142[ebp], 0

; 172  : 	{
; 173  : 		for(int iTarget = 0; iTarget < MAX_TYPE_PLAYER; iTarget++)

  0053a	8d 87 98 01 00
	00		 lea	 eax, DWORD PTR [edi+408]
$LL13@Character:
  00540	8b 8d 74 ff ff
	ff		 mov	 ecx, DWORD PTR _iPlayer$155142[ebp]
  00546	8b 94 8d 5c ff
	ff ff		 mov	 edx, DWORD PTR _szClassPrefixes$[ebp+ecx*4]
  0054d	33 db		 xor	 ebx, ebx
  0054f	89 95 70 ff ff
	ff		 mov	 DWORD PTR tv713[ebp], edx
  00555	89 85 78 ff ff
	ff		 mov	 DWORD PTR tv833[ebp], eax
  0055b	eb 03 8d 49 00	 npad	 5
$LL14@Character:

; 174  : 		{
; 175  : 			sprintf(szTemp, "%sTo%s_DamageRate", szClassPrefixes[iPlayer], szClassPrefixes[iTarget]);

  00560	8b 84 9d 5c ff
	ff ff		 mov	 eax, DWORD PTR _szClassPrefixes$[ebp+ebx*4]
  00567	8b 8d 70 ff ff
	ff		 mov	 ecx, DWORD PTR tv713[ebp]
  0056d	50		 push	 eax
  0056e	51		 push	 ecx
  0056f	8d 95 7c ff ff
	ff		 lea	 edx, DWORD PTR _szTemp$[ebp]
  00575	68 00 00 00 00	 push	 OFFSET ??_C@_0BC@GJHEMBFJ@?$CFsTo?$CFs_DamageRate?$AA@
  0057a	52		 push	 edx
  0057b	e8 00 00 00 00	 call	 _sprintf
  00580	83 c4 10	 add	 esp, 16			; 00000010H

; 176  : 			// ---
; 177  : 			this->m_Character.PvPDamageRate[iPlayer][iTarget] = GetPrivateProfileInt("PVPDamage", szTemp, 100, DAMAGE_FILE);

  00583	68 00 00 00 00	 push	 OFFSET ??_C@_0CB@BMEDHJJD@?4?2Customs?2Systems?2Hgt_Damage?4ini@
  00588	6a 64		 push	 100			; 00000064H
  0058a	8d 85 7c ff ff
	ff		 lea	 eax, DWORD PTR _szTemp$[ebp]
  00590	50		 push	 eax
  00591	68 00 00 00 00	 push	 OFFSET ??_C@_09DFMJDGLD@PVPDamage?$AA@
  00596	ff d6		 call	 esi
  00598	8b 8d 78 ff ff
	ff		 mov	 ecx, DWORD PTR tv833[ebp]
  0059e	66 89 01	 mov	 WORD PTR [ecx], ax
  005a1	43		 inc	 ebx
  005a2	83 c1 02	 add	 ecx, 2
  005a5	89 8d 78 ff ff
	ff		 mov	 DWORD PTR tv833[ebp], ecx
  005ab	83 fb 05	 cmp	 ebx, 5
  005ae	7c b0		 jl	 SHORT $LL14@Character

; 170  : 	// ---
; 171  : 	for(int iPlayer = 0; iPlayer < MAX_TYPE_PLAYER; iPlayer++)

  005b0	8b 8d 74 ff ff
	ff		 mov	 ecx, DWORD PTR _iPlayer$155142[ebp]
  005b6	8b 85 78 ff ff
	ff		 mov	 eax, DWORD PTR tv833[ebp]
  005bc	41		 inc	 ecx
  005bd	89 8d 74 ff ff
	ff		 mov	 DWORD PTR _iPlayer$155142[ebp], ecx
  005c3	83 f9 05	 cmp	 ecx, 5
  005c6	0f 8c 74 ff ff
	ff		 jl	 $LL13@Character

; 178  : 		}
; 179  : 	}
; 180  : 	// ---
; 181  : 	this->m_Character.PvMDamageRate[CLASS_KNIGHT]	= GetPrivateProfileInt("PVMDamage", "DK_DamageRate", 100, DAMAGE_FILE);

  005cc	68 00 00 00 00	 push	 OFFSET ??_C@_0CB@BMEDHJJD@?4?2Customs?2Systems?2Hgt_Damage?4ini@
  005d1	6a 64		 push	 100			; 00000064H
  005d3	68 00 00 00 00	 push	 OFFSET ??_C@_0O@BHDAGJHD@DK_DamageRate?$AA@
  005d8	68 00 00 00 00	 push	 OFFSET ??_C@_09NCHHBCEJ@PVMDamage?$AA@
  005dd	ff d6		 call	 esi

; 182  : 	this->m_Character.PvMDamageRate[CLASS_WIZARD]	= GetPrivateProfileInt("PVMDamage", "DW_DamageRate", 100, DAMAGE_FILE);

  005df	68 00 00 00 00	 push	 OFFSET ??_C@_0CB@BMEDHJJD@?4?2Customs?2Systems?2Hgt_Damage?4ini@
  005e4	6a 64		 push	 100			; 00000064H
  005e6	68 00 00 00 00	 push	 OFFSET ??_C@_0O@DJINHGFC@DW_DamageRate?$AA@
  005eb	68 00 00 00 00	 push	 OFFSET ??_C@_09NCHHBCEJ@PVMDamage?$AA@
  005f0	66 89 87 cc 01
	00 00		 mov	 WORD PTR [edi+460], ax
  005f7	ff d6		 call	 esi

; 183  : 	this->m_Character.PvMDamageRate[CLASS_ELF]		= GetPrivateProfileInt("PVMDamage", "ELF_DamageRate", 100, DAMAGE_FILE);

  005f9	68 00 00 00 00	 push	 OFFSET ??_C@_0CB@BMEDHJJD@?4?2Customs?2Systems?2Hgt_Damage?4ini@
  005fe	6a 64		 push	 100			; 00000064H
  00600	68 00 00 00 00	 push	 OFFSET ??_C@_0P@JMFBKION@ELF_DamageRate?$AA@
  00605	68 00 00 00 00	 push	 OFFSET ??_C@_09NCHHBCEJ@PVMDamage?$AA@
  0060a	66 89 87 ca 01
	00 00		 mov	 WORD PTR [edi+458], ax
  00611	ff d6		 call	 esi

; 184  : 	this->m_Character.PvMDamageRate[CLASS_MAGUMSA]	= GetPrivateProfileInt("PVMDamage", "MG_DamageRate", 100, DAMAGE_FILE);

  00613	68 00 00 00 00	 push	 OFFSET ??_C@_0CB@BMEDHJJD@?4?2Customs?2Systems?2Hgt_Damage?4ini@
  00618	6a 64		 push	 100			; 00000064H
  0061a	68 00 00 00 00	 push	 OFFSET ??_C@_0O@CDNMCPMI@MG_DamageRate?$AA@
  0061f	68 00 00 00 00	 push	 OFFSET ??_C@_09NCHHBCEJ@PVMDamage?$AA@
  00624	66 89 87 ce 01
	00 00		 mov	 WORD PTR [edi+462], ax
  0062b	ff d6		 call	 esi

; 185  : 	this->m_Character.PvMDamageRate[CLASS_DARKLORD]	= GetPrivateProfileInt("PVMDamage", "DL_DamageRate", 100, DAMAGE_FILE);

  0062d	68 00 00 00 00	 push	 OFFSET ??_C@_0CB@BMEDHJJD@?4?2Customs?2Systems?2Hgt_Damage?4ini@
  00632	6a 64		 push	 100			; 00000064H
  00634	68 00 00 00 00	 push	 OFFSET ??_C@_0O@GKEDGPCL@DL_DamageRate?$AA@
  00639	68 00 00 00 00	 push	 OFFSET ??_C@_09NCHHBCEJ@PVMDamage?$AA@
  0063e	66 89 87 d0 01
	00 00		 mov	 WORD PTR [edi+464], ax
  00645	ff d6		 call	 esi

; 186  : 	// ---
; 187  : 	this->m_Character.ReflectDamage = GetPrivateProfileInt("ReflectDamage", "ReflectPercentDamage", 50, DAMAGE_FILE);

  00647	68 00 00 00 00	 push	 OFFSET ??_C@_0CB@BMEDHJJD@?4?2Customs?2Systems?2Hgt_Damage?4ini@
  0064c	6a 32		 push	 50			; 00000032H
  0064e	68 00 00 00 00	 push	 OFFSET ??_C@_0BF@INBHPCPJ@ReflectPercentDamage?$AA@
  00653	68 00 00 00 00	 push	 OFFSET ??_C@_0O@NIKACMCF@ReflectDamage?$AA@
  00658	66 89 87 d2 01
	00 00		 mov	 WORD PTR [edi+466], ax
  0065f	ff d6		 call	 esi

; 188  : 	// ---
; 189  : 	LogAdd(LOG_GOLD, "[CHARACTER FILE] Carregado !");

  00661	68 00 00 00 00	 push	 OFFSET ??_C@_0BN@HEBCAPIA@?$FLCHARACTER?5FILE?$FN?5Carregado?5?$CB?$AA@
  00666	6a 05		 push	 5
  00668	66 89 87 d4 01
	00 00		 mov	 WORD PTR [edi+468], ax
  0066f	e8 00 00 00 00	 call	 ?LogAdd@@YAXW4eLogColor@@PADZZ ; LogAdd

; 190  : }

  00674	8b 4d fc	 mov	 ecx, DWORD PTR __$ArrayPad$[ebp]
  00677	83 c4 08	 add	 esp, 8
  0067a	5f		 pop	 edi
  0067b	5e		 pop	 esi
  0067c	33 cd		 xor	 ecx, ebp
  0067e	5b		 pop	 ebx
  0067f	e8 00 00 00 00	 call	 @__security_check_cookie@4
  00684	8b e5		 mov	 esp, ebp
  00686	5d		 pop	 ebp
  00687	c3		 ret	 0
?Character@CServerInfo@@QAEXXZ ENDP			; CServerInfo::Character
_TEXT	ENDS
PUBLIC	??_C@_0BM@POJKPLKI@Conta?5?$CFs?0?5Tenha?5um?5Bom?5jogo?$AA@ ; `string'
PUBLIC	??_C@_0BL@PJPHPHNL@?$CFs?5Seja?5Bem?5Vindo?$CIa?$CJ?5ao?5?$CFs?$AA@ ; `string'
PUBLIC	??_C@_0CO@CMFHNJMH@?$FL?$CFs?$FN?5Servidor?5limitado?5por?5reset@ ; `string'
PUBLIC	??_C@_0CL@KIJFKOPB@?$FL?$CFs?$FN?5Servidor?5limitado?5por?5vip?0?5@ ; `string'
PUBLIC	??_C@_0L@FBMFKAOL@WareNumber?$AA@		; `string'
PUBLIC	??_C@_0DI@JPPEOLGM@SELECT?5WareNumber?5FROM?5MEMB_INFO@ ; `string'
PUBLIC	??_C@_04PABHPHAJ@Gold?$AA@			; `string'
PUBLIC	??_C@_0DC@MKNLADMM@SELECT?5Gold?5FROM?5MEMB_INFO?5WHERE@ ; `string'
PUBLIC	??_C@_04FOIHINLL@Cash?$AA@			; `string'
PUBLIC	??_C@_0DC@FMIHGDKA@SELECT?5Cash?5FROM?5MEMB_INFO?5WHERE@ ; `string'
PUBLIC	??_C@_0N@NACNDKDJ@MasterResets?$AA@		; `string'
PUBLIC	??_C@_0DF@CLEHMEJG@SELECT?5MasterResets?5FROM?5Charact@ ; `string'
PUBLIC	??_C@_06GLIADBGB@Resets?$AA@			; `string'
PUBLIC	??_C@_0CP@MKKINFGP@SELECT?5Resets?5FROM?5Character?5WHE@ ; `string'
PUBLIC	??_C@_03FIOEPJME@Vip?$AA@			; `string'
PUBLIC	??_C@_0DB@EBCGONGB@SELECT?5Vip?5FROM?5MEMB_INFO?5WHERE?5@ ; `string'
PUBLIC	?SetInfo@CServerInfo@@QAEXH@Z			; CServerInfo::SetInfo
EXTRN	?GetName@CVip@@QAEPADH@Z:PROC			; CVip::GetName
EXTRN	?gVip@@3VCVip@@A:BYTE				; gVip
EXTRN	?gObjCloseSet@@YAXHH@Z:PROC			; gObjCloseSet
EXTRN	?MsgUser@@YAXHHPADZZ:PROC			; MsgUser
EXTRN	?ReturnInt@SQLClass@@QAAHPAD0ZZ:PROC		; SQLClass::ReturnInt
EXTRN	?gSQLManager@@3VSQLClass@@A:BYTE		; gSQLManager
EXTRN	?gObj@@3PAUOBJECTSTRUCT@@A:BYTE			; gObj
;	COMDAT ??_C@_0BM@POJKPLKI@Conta?5?$CFs?0?5Tenha?5um?5Bom?5jogo?$AA@
CONST	SEGMENT
??_C@_0BM@POJKPLKI@Conta?5?$CFs?0?5Tenha?5um?5Bom?5jogo?$AA@ DB 'Conta %s'
	DB	', Tenha um Bom jogo', 00H			; `string'
CONST	ENDS
;	COMDAT ??_C@_0BL@PJPHPHNL@?$CFs?5Seja?5Bem?5Vindo?$CIa?$CJ?5ao?5?$CFs?$AA@
CONST	SEGMENT
??_C@_0BL@PJPHPHNL@?$CFs?5Seja?5Bem?5Vindo?$CIa?$CJ?5ao?5?$CFs?$AA@ DB '%'
	DB	's Seja Bem Vindo(a) ao %s', 00H		; `string'
CONST	ENDS
;	COMDAT ??_C@_0CO@CMFHNJMH@?$FL?$CFs?$FN?5Servidor?5limitado?5por?5reset@
CONST	SEGMENT
??_C@_0CO@CMFHNJMH@?$FL?$CFs?$FN?5Servidor?5limitado?5por?5reset@ DB '[%s'
	DB	'] Servidor limitado por resets, saindo ...', 00H ; `string'
CONST	ENDS
;	COMDAT ??_C@_0CL@KIJFKOPB@?$FL?$CFs?$FN?5Servidor?5limitado?5por?5vip?0?5@
CONST	SEGMENT
??_C@_0CL@KIJFKOPB@?$FL?$CFs?$FN?5Servidor?5limitado?5por?5vip?0?5@ DB '['
	DB	'%s] Servidor limitado por vip, saindo ...', 00H ; `string'
CONST	ENDS
;	COMDAT ??_C@_0L@FBMFKAOL@WareNumber?$AA@
CONST	SEGMENT
??_C@_0L@FBMFKAOL@WareNumber?$AA@ DB 'WareNumber', 00H	; `string'
CONST	ENDS
;	COMDAT ??_C@_0DI@JPPEOLGM@SELECT?5WareNumber?5FROM?5MEMB_INFO@
CONST	SEGMENT
??_C@_0DI@JPPEOLGM@SELECT?5WareNumber?5FROM?5MEMB_INFO@ DB 'SELECT WareNu'
	DB	'mber FROM MEMB_INFO WHERE memb___id = ''%s''', 00H ; `string'
CONST	ENDS
;	COMDAT ??_C@_04PABHPHAJ@Gold?$AA@
CONST	SEGMENT
??_C@_04PABHPHAJ@Gold?$AA@ DB 'Gold', 00H		; `string'
CONST	ENDS
;	COMDAT ??_C@_0DC@MKNLADMM@SELECT?5Gold?5FROM?5MEMB_INFO?5WHERE@
CONST	SEGMENT
??_C@_0DC@MKNLADMM@SELECT?5Gold?5FROM?5MEMB_INFO?5WHERE@ DB 'SELECT Gold '
	DB	'FROM MEMB_INFO WHERE memb___id = ''%s''', 00H ; `string'
CONST	ENDS
;	COMDAT ??_C@_04FOIHINLL@Cash?$AA@
CONST	SEGMENT
??_C@_04FOIHINLL@Cash?$AA@ DB 'Cash', 00H		; `string'
CONST	ENDS
;	COMDAT ??_C@_0DC@FMIHGDKA@SELECT?5Cash?5FROM?5MEMB_INFO?5WHERE@
CONST	SEGMENT
??_C@_0DC@FMIHGDKA@SELECT?5Cash?5FROM?5MEMB_INFO?5WHERE@ DB 'SELECT Cash '
	DB	'FROM MEMB_INFO WHERE memb___id = ''%s''', 00H ; `string'
CONST	ENDS
;	COMDAT ??_C@_0N@NACNDKDJ@MasterResets?$AA@
CONST	SEGMENT
??_C@_0N@NACNDKDJ@MasterResets?$AA@ DB 'MasterResets', 00H ; `string'
CONST	ENDS
;	COMDAT ??_C@_0DF@CLEHMEJG@SELECT?5MasterResets?5FROM?5Charact@
CONST	SEGMENT
??_C@_0DF@CLEHMEJG@SELECT?5MasterResets?5FROM?5Charact@ DB 'SELECT Master'
	DB	'Resets FROM Character WHERE Name = ''%s''', 00H ; `string'
CONST	ENDS
;	COMDAT ??_C@_06GLIADBGB@Resets?$AA@
CONST	SEGMENT
??_C@_06GLIADBGB@Resets?$AA@ DB 'Resets', 00H		; `string'
CONST	ENDS
;	COMDAT ??_C@_0CP@MKKINFGP@SELECT?5Resets?5FROM?5Character?5WHE@
CONST	SEGMENT
??_C@_0CP@MKKINFGP@SELECT?5Resets?5FROM?5Character?5WHE@ DB 'SELECT Reset'
	DB	's FROM Character WHERE Name = ''%s''', 00H	; `string'
CONST	ENDS
;	COMDAT ??_C@_03FIOEPJME@Vip?$AA@
CONST	SEGMENT
??_C@_03FIOEPJME@Vip?$AA@ DB 'Vip', 00H			; `string'
CONST	ENDS
;	COMDAT ??_C@_0DB@EBCGONGB@SELECT?5Vip?5FROM?5MEMB_INFO?5WHERE?5@
CONST	SEGMENT
??_C@_0DB@EBCGONGB@SELECT?5Vip?5FROM?5MEMB_INFO?5WHERE?5@ DB 'SELECT Vip '
	DB	'FROM MEMB_INFO WHERE memb___id = ''%s''', 00H ; `string'
; Function compile flags: /Ogtp
CONST	ENDS
;	COMDAT ?SetInfo@CServerInfo@@QAEXH@Z
_TEXT	SEGMENT
_aIndex$ = 8						; size = 4
?SetInfo@CServerInfo@@QAEXH@Z PROC			; CServerInfo::SetInfo, COMDAT
; _this$ = ecx

; 193  : {

  00000	55		 push	 ebp
  00001	8b ec		 mov	 ebp, esp
  00003	53		 push	 ebx
  00004	56		 push	 esi

; 194  : 	gObj[aIndex].m_Vip = gSQLManager.ReturnInt("Vip", "SELECT Vip FROM MEMB_INFO WHERE memb___id = '%s'", gObj[aIndex].AccountID);

  00005	8b 75 08	 mov	 esi, DWORD PTR _aIndex$[ebp]
  00008	69 f6 64 15 00
	00		 imul	 esi, 5476		; 00001564H
  0000e	57		 push	 edi
  0000f	8d be 64 00 00
	00		 lea	 edi, DWORD PTR ?gObj@@3PAUOBJECTSTRUCT@@A[esi+100]
  00015	57		 push	 edi
  00016	68 00 00 00 00	 push	 OFFSET ??_C@_0DB@EBCGONGB@SELECT?5Vip?5FROM?5MEMB_INFO?5WHERE?5@
  0001b	68 00 00 00 00	 push	 OFFSET ??_C@_03FIOEPJME@Vip?$AA@
  00020	68 00 00 00 00	 push	 OFFSET ?gSQLManager@@3VSQLClass@@A ; gSQLManager
  00025	e8 00 00 00 00	 call	 ?ReturnInt@SQLClass@@QAAHPAD0ZZ ; SQLClass::ReturnInt

; 195  : 	// ---
; 196  : 	gObj[aIndex].m_Resets = gSQLManager.ReturnInt("Resets", "SELECT Resets FROM Character WHERE Name = '%s'", gObj[aIndex].Name);

  0002a	8d 9e 6f 00 00
	00		 lea	 ebx, DWORD PTR ?gObj@@3PAUOBJECTSTRUCT@@A[esi+111]
  00030	53		 push	 ebx
  00031	68 00 00 00 00	 push	 OFFSET ??_C@_0CP@MKKINFGP@SELECT?5Resets?5FROM?5Character?5WHE@
  00036	68 00 00 00 00	 push	 OFFSET ??_C@_06GLIADBGB@Resets?$AA@
  0003b	68 00 00 00 00	 push	 OFFSET ?gSQLManager@@3VSQLClass@@A ; gSQLManager
  00040	89 86 3c 15 00
	00		 mov	 DWORD PTR ?gObj@@3PAUOBJECTSTRUCT@@A[esi+5436], eax
  00046	e8 00 00 00 00	 call	 ?ReturnInt@SQLClass@@QAAHPAD0ZZ ; SQLClass::ReturnInt

; 197  : 	// ---
; 198  : 	gObj[aIndex].m_MasterResets = gSQLManager.ReturnInt("MasterResets", "SELECT MasterResets FROM Character WHERE Name = '%s'", gObj[aIndex].Name);

  0004b	53		 push	 ebx
  0004c	68 00 00 00 00	 push	 OFFSET ??_C@_0DF@CLEHMEJG@SELECT?5MasterResets?5FROM?5Charact@
  00051	68 00 00 00 00	 push	 OFFSET ??_C@_0N@NACNDKDJ@MasterResets?$AA@
  00056	68 00 00 00 00	 push	 OFFSET ?gSQLManager@@3VSQLClass@@A ; gSQLManager
  0005b	89 86 40 15 00
	00		 mov	 DWORD PTR ?gObj@@3PAUOBJECTSTRUCT@@A[esi+5440], eax
  00061	e8 00 00 00 00	 call	 ?ReturnInt@SQLClass@@QAAHPAD0ZZ ; SQLClass::ReturnInt

; 199  : 	// ---
; 200  : 	gObj[aIndex].m_Cash = gSQLManager.ReturnInt("Cash", "SELECT Cash FROM MEMB_INFO WHERE memb___id = '%s'", gObj[aIndex].AccountID);

  00066	57		 push	 edi
  00067	68 00 00 00 00	 push	 OFFSET ??_C@_0DC@FMIHGDKA@SELECT?5Cash?5FROM?5MEMB_INFO?5WHERE@
  0006c	68 00 00 00 00	 push	 OFFSET ??_C@_04FOIHINLL@Cash?$AA@
  00071	68 00 00 00 00	 push	 OFFSET ?gSQLManager@@3VSQLClass@@A ; gSQLManager
  00076	89 86 44 15 00
	00		 mov	 DWORD PTR ?gObj@@3PAUOBJECTSTRUCT@@A[esi+5444], eax
  0007c	e8 00 00 00 00	 call	 ?ReturnInt@SQLClass@@QAAHPAD0ZZ ; SQLClass::ReturnInt
  00081	83 c4 40	 add	 esp, 64			; 00000040H

; 201  : 	// ---
; 202  : 	gObj[aIndex].m_Gold = gSQLManager.ReturnInt("Gold", "SELECT Gold FROM MEMB_INFO WHERE memb___id = '%s'", gObj[aIndex].AccountID);

  00084	57		 push	 edi
  00085	68 00 00 00 00	 push	 OFFSET ??_C@_0DC@MKNLADMM@SELECT?5Gold?5FROM?5MEMB_INFO?5WHERE@
  0008a	68 00 00 00 00	 push	 OFFSET ??_C@_04PABHPHAJ@Gold?$AA@
  0008f	68 00 00 00 00	 push	 OFFSET ?gSQLManager@@3VSQLClass@@A ; gSQLManager
  00094	89 86 48 15 00
	00		 mov	 DWORD PTR ?gObj@@3PAUOBJECTSTRUCT@@A[esi+5448], eax
  0009a	e8 00 00 00 00	 call	 ?ReturnInt@SQLClass@@QAAHPAD0ZZ ; SQLClass::ReturnInt

; 203  : 	// ---
; 204  : 	gObj[aIndex].m_WareNumber = gSQLManager.ReturnInt("WareNumber", "SELECT WareNumber FROM MEMB_INFO WHERE memb___id = '%s'", gObj[aIndex].AccountID);

  0009f	57		 push	 edi
  000a0	68 00 00 00 00	 push	 OFFSET ??_C@_0DI@JPPEOLGM@SELECT?5WareNumber?5FROM?5MEMB_INFO@
  000a5	68 00 00 00 00	 push	 OFFSET ??_C@_0L@FBMFKAOL@WareNumber?$AA@
  000aa	68 00 00 00 00	 push	 OFFSET ?gSQLManager@@3VSQLClass@@A ; gSQLManager
  000af	89 86 4c 15 00
	00		 mov	 DWORD PTR ?gObj@@3PAUOBJECTSTRUCT@@A[esi+5452], eax
  000b5	e8 00 00 00 00	 call	 ?ReturnInt@SQLClass@@QAAHPAD0ZZ ; SQLClass::ReturnInt
  000ba	89 86 60 15 00
	00		 mov	 DWORD PTR ?gObj@@3PAUOBJECTSTRUCT@@A[esi+5472], eax

; 205  : 	// ---
; 206  : 	if(gServerInfo.m_Data.iServerVip != -1 && gObj[aIndex].m_Vip < gServerInfo.m_Data.iServerVip)

  000c0	a1 64 00 00 00	 mov	 eax, DWORD PTR ?gServerInfo@@3VCServerInfo@@A+100
  000c5	83 c4 20	 add	 esp, 32			; 00000020H
  000c8	83 f8 ff	 cmp	 eax, -1
  000cb	74 2b		 je	 SHORT $LN4@SetInfo
  000cd	39 86 3c 15 00
	00		 cmp	 DWORD PTR ?gObj@@3PAUOBJECTSTRUCT@@A[esi+5436], eax
  000d3	7d 23		 jge	 SHORT $LN4@SetInfo

; 207  : 	{
; 208  : 		MsgUser(aIndex, 1, "[%s] Servidor limitado por vip, saindo ...", gObj[aIndex].Name);

  000d5	53		 push	 ebx
  000d6	68 00 00 00 00	 push	 OFFSET ??_C@_0CL@KIJFKOPB@?$FL?$CFs?$FN?5Servidor?5limitado?5por?5vip?0?5@
$LN7@SetInfo:
  000db	8b 75 08	 mov	 esi, DWORD PTR _aIndex$[ebp]
  000de	6a 01		 push	 1
  000e0	56		 push	 esi
  000e1	e8 00 00 00 00	 call	 ?MsgUser@@YAXHHPADZZ	; MsgUser

; 209  : 		gObjCloseSet(aIndex, 2);

  000e6	6a 02		 push	 2
  000e8	56		 push	 esi
  000e9	e8 00 00 00 00	 call	 ?gObjCloseSet@@YAXHH@Z	; gObjCloseSet
  000ee	83 c4 18	 add	 esp, 24			; 00000018H
  000f1	5f		 pop	 edi
  000f2	5e		 pop	 esi
  000f3	5b		 pop	 ebx

; 224  : }

  000f4	5d		 pop	 ebp
  000f5	c2 04 00	 ret	 4
$LN4@SetInfo:

; 210  : 		return;
; 211  : 	}
; 212  : 	// ---
; 213  : 	if(	(gServerInfo.m_Data.iServerResetMin != -1 && gObj[aIndex].m_Resets < gServerInfo.m_Data.iServerResetMin) ||
; 214  : 		(gServerInfo.m_Data.iServerResetMax != -1 && gObj[aIndex].m_Resets > gServerInfo.m_Data.iServerResetMax))

  000f8	a1 68 00 00 00	 mov	 eax, DWORD PTR ?gServerInfo@@3VCServerInfo@@A+104
  000fd	83 f8 ff	 cmp	 eax, -1
  00100	74 08		 je	 SHORT $LN1@SetInfo
  00102	39 86 40 15 00
	00		 cmp	 DWORD PTR ?gObj@@3PAUOBJECTSTRUCT@@A[esi+5440], eax
  00108	7c 12		 jl	 SHORT $LN2@SetInfo
$LN1@SetInfo:
  0010a	a1 6c 00 00 00	 mov	 eax, DWORD PTR ?gServerInfo@@3VCServerInfo@@A+108
  0010f	83 f8 ff	 cmp	 eax, -1
  00112	74 10		 je	 SHORT $LN3@SetInfo
  00114	39 86 40 15 00
	00		 cmp	 DWORD PTR ?gObj@@3PAUOBJECTSTRUCT@@A[esi+5440], eax
  0011a	7e 08		 jle	 SHORT $LN3@SetInfo
$LN2@SetInfo:

; 215  : 	{
; 216  : 		MsgUser(aIndex, 1, "[%s] Servidor limitado por resets, saindo ...", gObj[aIndex].Name);

  0011c	53		 push	 ebx
  0011d	68 00 00 00 00	 push	 OFFSET ??_C@_0CO@CMFHNJMH@?$FL?$CFs?$FN?5Servidor?5limitado?5por?5reset@

; 217  : 		gObjCloseSet(aIndex, 2);
; 218  : 		return;

  00122	eb b7		 jmp	 SHORT $LN7@SetInfo
$LN3@SetInfo:

; 219  : 	}
; 220  : 	// ---
; 221  : 	MsgUser(aIndex, 0, "%s Seja Bem Vindo(a) ao %s", gObj[aIndex].Name, gServerInfo.m_Data.szServerName);

  00124	8b 7d 08	 mov	 edi, DWORD PTR _aIndex$[ebp]
  00127	68 00 00 00 00	 push	 OFFSET ?gServerInfo@@3VCServerInfo@@A ; gServerInfo
  0012c	53		 push	 ebx
  0012d	68 00 00 00 00	 push	 OFFSET ??_C@_0BL@PJPHPHNL@?$CFs?5Seja?5Bem?5Vindo?$CIa?$CJ?5ao?5?$CFs?$AA@
  00132	6a 00		 push	 0
  00134	57		 push	 edi
  00135	e8 00 00 00 00	 call	 ?MsgUser@@YAXHHPADZZ	; MsgUser

; 222  : 	// ---
; 223  : 	MsgUser(aIndex, 0, "Conta %s, Tenha um Bom jogo", gVip.GetName(gObj[aIndex].m_Vip));

  0013a	8b 86 3c 15 00
	00		 mov	 eax, DWORD PTR ?gObj@@3PAUOBJECTSTRUCT@@A[esi+5436]
  00140	83 c4 14	 add	 esp, 20			; 00000014H
  00143	50		 push	 eax
  00144	b9 00 00 00 00	 mov	 ecx, OFFSET ?gVip@@3VCVip@@A ; gVip
  00149	e8 00 00 00 00	 call	 ?GetName@CVip@@QAEPADH@Z ; CVip::GetName
  0014e	50		 push	 eax
  0014f	68 00 00 00 00	 push	 OFFSET ??_C@_0BM@POJKPLKI@Conta?5?$CFs?0?5Tenha?5um?5Bom?5jogo?$AA@
  00154	6a 00		 push	 0
  00156	57		 push	 edi
  00157	e8 00 00 00 00	 call	 ?MsgUser@@YAXHHPADZZ	; MsgUser
  0015c	83 c4 10	 add	 esp, 16			; 00000010H
  0015f	5f		 pop	 edi
  00160	5e		 pop	 esi
  00161	5b		 pop	 ebx

; 224  : }

  00162	5d		 pop	 ebp
  00163	c2 04 00	 ret	 4
?SetInfo@CServerInfo@@QAEXH@Z ENDP			; CServerInfo::SetInfo
_TEXT	ENDS
PUBLIC	__$ArrayPad$
PUBLIC	?SendMain@CServerInfo@@QAEXH@Z			; CServerInfo::SendMain
EXTRN	?DataSend@@YAHHPAEK@Z:PROC			; DataSend
; Function compile flags: /Ogtp
;	COMDAT ?SendMain@CServerInfo@@QAEXH@Z
_TEXT	SEGMENT
_Result$ = -16						; size = 12
__$ArrayPad$ = -4					; size = 4
_aIndex$ = 8						; size = 4
?SendMain@CServerInfo@@QAEXH@Z PROC			; CServerInfo::SendMain, COMDAT
; _this$ = ecx

; 227  : {

  00000	55		 push	 ebp
  00001	8b ec		 mov	 ebp, esp
  00003	83 ec 10	 sub	 esp, 16			; 00000010H
  00006	a1 00 00 00 00	 mov	 eax, DWORD PTR ___security_cookie
  0000b	33 c5		 xor	 eax, ebp
  0000d	89 45 fc	 mov	 DWORD PTR __$ArrayPad$[ebp], eax
  00010	8b 4d 08	 mov	 ecx, DWORD PTR _aIndex$[ebp]

; 228  : 	PMSG_CHARINFOMAIN Result;
; 229  : 
; 230  : 	Result.h.c = 0xC1;
; 231  : 	Result.h.size = sizeof(Result);
; 232  : 	Result.h.headcode = 0xFE;
; 233  : 	Result.Code = 0x07;
; 234  : 	Result.Class = gObj[aIndex].Class;

  00013	8b c1		 mov	 eax, ecx
  00015	69 c0 64 15 00
	00		 imul	 eax, 5476		; 00001564H
  0001b	8a 90 98 00 00
	00		 mov	 dl, BYTE PTR ?gObj@@3PAUOBJECTSTRUCT@@A[eax+152]
  00021	88 55 f4	 mov	 BYTE PTR _Result$[ebp+4], dl

; 235  : 	Result.Dexterity = (WORD)(gObj[aIndex].Dexterity);

  00024	0f b7 90 b6 00
	00 00		 movzx	 edx, WORD PTR ?gObj@@3PAUOBJECTSTRUCT@@A[eax+182]
  0002b	66 89 55 f6	 mov	 WORD PTR _Result$[ebp+6], dx

; 236  : 	Result.AttackSpeed = (WORD)(gObj[aIndex].m_AttackSpeed);

  0002f	0f b7 90 08 03
	00 00		 movzx	 edx, WORD PTR ?gObj@@3PAUOBJECTSTRUCT@@A[eax+776]

; 237  : 	Result.MagicSpeed = (WORD)(gObj[aIndex].m_MagicSpeed);

  00036	66 8b 80 0c 03
	00 00		 mov	 ax, WORD PTR ?gObj@@3PAUOBJECTSTRUCT@@A[eax+780]
  0003d	66 89 55 f8	 mov	 WORD PTR _Result$[ebp+8], dx

; 238  : 
; 239  : 	DataSend(aIndex, (LPBYTE)(&Result), Result.h.size);

  00041	6a 0c		 push	 12			; 0000000cH
  00043	8d 55 f0	 lea	 edx, DWORD PTR _Result$[ebp]
  00046	52		 push	 edx
  00047	51		 push	 ecx
  00048	c7 45 f0 c1 0c
	fe 07		 mov	 DWORD PTR _Result$[ebp], 134089921 ; 07fe0cc1H
  0004f	66 89 45 fa	 mov	 WORD PTR _Result$[ebp+10], ax
  00053	e8 00 00 00 00	 call	 ?DataSend@@YAHHPAEK@Z	; DataSend

; 240  : }

  00058	8b 4d fc	 mov	 ecx, DWORD PTR __$ArrayPad$[ebp]
  0005b	33 cd		 xor	 ecx, ebp
  0005d	83 c4 0c	 add	 esp, 12			; 0000000cH
  00060	e8 00 00 00 00	 call	 @__security_check_cookie@4
  00065	8b e5		 mov	 esp, ebp
  00067	5d		 pop	 ebp
  00068	c2 04 00	 ret	 4
?SendMain@CServerInfo@@QAEXH@Z ENDP			; CServerInfo::SendMain
_TEXT	ENDS
PUBLIC	??_C@_0BP@LBHLDKNE@?$FLSERVER?5INFO?5FILE?$FN?5Carregado?5?$CB?$AA@ ; `string'
PUBLIC	?Load@CServerInfo@@QAEXXZ			; CServerInfo::Load
EXTRN	_memset:PROC
;	COMDAT ??_C@_0BP@LBHLDKNE@?$FLSERVER?5INFO?5FILE?$FN?5Carregado?5?$CB?$AA@
CONST	SEGMENT
??_C@_0BP@LBHLDKNE@?$FLSERVER?5INFO?5FILE?$FN?5Carregado?5?$CB?$AA@ DB '['
	DB	'SERVER INFO FILE] Carregado !', 00H		; `string'
; Function compile flags: /Ogtp
CONST	ENDS
;	COMDAT ?Load@CServerInfo@@QAEXXZ
_TEXT	SEGMENT
?Load@CServerInfo@@QAEXXZ PROC				; CServerInfo::Load, COMDAT
; _this$ = ecx

; 10   : {

  00000	56		 push	 esi

; 11   : 	memset(&this->m_Data, 0, sizeof(this->m_Data));

  00001	68 38 01 00 00	 push	 312			; 00000138H
  00006	8b f1		 mov	 esi, ecx
  00008	6a 00		 push	 0
  0000a	56		 push	 esi
  0000b	e8 00 00 00 00	 call	 _memset

; 12   : 	memset(&this->m_Character, 0, sizeof(this->m_Character));

  00010	68 9e 00 00 00	 push	 158			; 0000009eH
  00015	8d 86 38 01 00
	00		 lea	 eax, DWORD PTR [esi+312]
  0001b	6a 00		 push	 0
  0001d	50		 push	 eax
  0001e	e8 00 00 00 00	 call	 _memset
  00023	83 c4 18	 add	 esp, 24			; 00000018H

; 13   : 	// ---
; 14   : 	this->Connect();

  00026	8b ce		 mov	 ecx, esi
  00028	e8 00 00 00 00	 call	 ?Connect@CServerInfo@@QAEXXZ ; CServerInfo::Connect

; 15   : 	this->Common();

  0002d	8b ce		 mov	 ecx, esi
  0002f	e8 00 00 00 00	 call	 ?Common@CServerInfo@@QAEXXZ ; CServerInfo::Common

; 16   : 	this->Character();

  00034	8b ce		 mov	 ecx, esi
  00036	e8 00 00 00 00	 call	 ?Character@CServerInfo@@QAEXXZ ; CServerInfo::Character

; 17   : 	// ---
; 18   : 	LogAdd(LOG_GOLD, "[SERVER INFO FILE] Carregado !");

  0003b	68 00 00 00 00	 push	 OFFSET ??_C@_0BP@LBHLDKNE@?$FLSERVER?5INFO?5FILE?$FN?5Carregado?5?$CB?$AA@
  00040	6a 05		 push	 5
  00042	e8 00 00 00 00	 call	 ?LogAdd@@YAXW4eLogColor@@PADZZ ; LogAdd
  00047	83 c4 08	 add	 esp, 8
  0004a	5e		 pop	 esi

; 19   : }

  0004b	c3		 ret	 0
?Load@CServerInfo@@QAEXXZ ENDP				; CServerInfo::Load
_TEXT	ENDS
END
