; Listing generated by Microsoft (R) Optimizing Compiler Version 16.00.30319.01 

	TITLE	C:\Users\faelhs\mu-1.1\eMu - GameServer Sapphire S0\GameServer\user.cpp
	.686P
	.XMM
	include listing.inc
	.model	flat

INCLUDELIB LIBCMT
INCLUDELIB OLDNAMES

PUBLIC	?ChangeCount@@3HA				; ChangeCount
PUBLIC	?lOfsChange@@3HA				; lOfsChange
PUBLIC	?GuildUserCount@@3HA				; GuildUserCount
PUBLIC	?GuildUserOfs@@3HA				; GuildUserOfs
PUBLIC	?GuildInfoCount@@3HA				; GuildInfoCount
PUBLIC	?GuildInfoOfs@@3HA				; GuildInfoOfs
PUBLIC	?skillSuccess@@3HA				; skillSuccess
PUBLIC	?gCurConnectUser@@3HA				; gCurConnectUser
PUBLIC	?aaaaaaaaa@@3HA					; aaaaaaaaa
PUBLIC	?gDisconnect@@3HA				; gDisconnect
PUBLIC	?gObjTotalUser@@3HA				; gObjTotalUser
PUBLIC	?gItemLoopMax@@3HA				; gItemLoopMax
PUBLIC	?gItemLoop@@3HA					; gItemLoop
PUBLIC	?gItemLoop2@@3HA				; gItemLoop2
PUBLIC	?gObjCSFlag@@3HA				; gObjCSFlag
PUBLIC	?gObjCount@@3HA					; gObjCount
PUBLIC	?gObjMonCount@@3HA				; gObjMonCount
PUBLIC	?gObjCallMonCount@@3HA				; gObjCallMonCount
PUBLIC	?gSMMsg@@3PAY09UMessageStateMachine@@A		; gSMMsg
PUBLIC	?gSMAttackProcMsg@@3PAY0DC@UExMessageStateMachine@@A ; gSMAttackProcMsg
PUBLIC	?hThread_gObjMove@@3PAXA			; hThread_gObjMove
PUBLIC	?GuildInfoBuf@@3PAEA				; GuildInfoBuf
PUBLIC	?GuildUserBuf@@3PAEA				; GuildUserBuf
PUBLIC	?SendGBufChange@@3PAEA				; SendGBufChange
PUBLIC	?pViewportCreate@@3UPMSG_VIEWPORTCREATE@@A	; pViewportCreate
PUBLIC	?pViewportCreateChange@@3UPMSG_VIEWPORTCREATE_CHANGE@@A ; pViewportCreateChange
PUBLIC	?pViewportDestroy@@3UPMSG_VIEWPORTDESTROY@@A	; pViewportDestroy
PUBLIC	?pMonsterViewportCreate@@3UPMSG_MONSTER_VIEWPORTCREATE@@A ; pMonsterViewportCreate
PUBLIC	?pCallMonsterViewportCreate@@3UPMSG_CALLMONSTER_VIEWPORTCREATE@@A ; pCallMonsterViewportCreate
PUBLIC	?pItemCount@@3UPWMSG_COUNT@@A			; pItemCount
PUBLIC	?pItemViewportCreate@@3UPMSG_ITEMVIEWPORTCREATE@@A ; pItemViewportCreate
PUBLIC	?pItemViewportDestroy@@3UPMSG_VIEWPORTDESTROY@@A ; pItemViewportDestroy
PUBLIC	?RoadPathTable@@3PAFA				; RoadPathTable
PUBLIC	?gServerMaxUser@@3HA				; gServerMaxUser
PUBLIC	?g_EnergyCheckOff@@3HA				; g_EnergyCheckOff
_BSS	SEGMENT
?ChangeCount@@3HA DD 01H DUP (?)			; ChangeCount
?lOfsChange@@3HA DD 01H DUP (?)				; lOfsChange
?GuildUserCount@@3HA DD 01H DUP (?)			; GuildUserCount
?GuildUserOfs@@3HA DD 01H DUP (?)			; GuildUserOfs
?GuildInfoCount@@3HA DD 01H DUP (?)			; GuildInfoCount
?GuildInfoOfs@@3HA DD 01H DUP (?)			; GuildInfoOfs
?skillSuccess@@3HA DD 01H DUP (?)			; skillSuccess
?gCurConnectUser@@3HA DD 01H DUP (?)			; gCurConnectUser
?aaaaaaaaa@@3HA DD 01H DUP (?)				; aaaaaaaaa
?gDisconnect@@3HA DD 01H DUP (?)			; gDisconnect
?gObjTotalUser@@3HA DD 01H DUP (?)			; gObjTotalUser
?gItemLoopMax@@3HA DD 01H DUP (?)			; gItemLoopMax
?gItemLoop@@3HA DD 01H DUP (?)				; gItemLoop
?gItemLoop2@@3HA DD 01H DUP (?)				; gItemLoop2
?gObjCSFlag@@3HA DD 01H DUP (?)				; gObjCSFlag
?gObjCount@@3HA DD 01H DUP (?)				; gObjCount
?gObjMonCount@@3HA DD 01H DUP (?)			; gObjMonCount
?gObjCallMonCount@@3HA DD 01H DUP (?)			; gObjCallMonCount
?gSMMsg@@3PAY09UMessageStateMachine@@A DB 0121100H DUP (?) ; gSMMsg
?gSMAttackProcMsg@@3PAY0DC@UExMessageStateMachine@@A DB 070ea40H DUP (?) ; gSMAttackProcMsg
?hThread_gObjMove@@3PAXA DD 01H DUP (?)			; hThread_gObjMove
?GuildInfoBuf@@3PAEA DB 02710H DUP (?)			; GuildInfoBuf
?GuildUserBuf@@3PAEA DB 02710H DUP (?)			; GuildUserBuf
?SendGBufChange@@3PAEA DB 01388H DUP (?)		; SendGBufChange
?pViewportCreate@@3UPMSG_VIEWPORTCREATE@@A DB 02cH DUP (?) ; pViewportCreate
?pViewportCreateChange@@3UPMSG_VIEWPORTCREATE_CHANGE@@A DB 01cH DUP (?) ; pViewportCreateChange
?pViewportDestroy@@3UPMSG_VIEWPORTDESTROY@@A DW 01H DUP (?) ; pViewportDestroy
	ALIGN	4

?pMonsterViewportCreate@@3UPMSG_MONSTER_VIEWPORTCREATE@@A DB 010H DUP (?) ; pMonsterViewportCreate
?pCallMonsterViewportCreate@@3UPMSG_CALLMONSTER_VIEWPORTCREATE@@A DB 018H DUP (?) ; pCallMonsterViewportCreate
?pItemCount@@3UPWMSG_COUNT@@A DB 05H DUP (?)		; pItemCount
	ALIGN	4

?pItemViewportCreate@@3UPMSG_ITEMVIEWPORTCREATE@@A DB 0bH DUP (?) ; pItemViewportCreate
	ALIGN	4

?pItemViewportDestroy@@3UPMSG_VIEWPORTDESTROY@@A DW 01H DUP (?) ; pItemViewportDestroy
_BSS	ENDS
_DATA	SEGMENT
_g_sttDEVILSQUARE_LEVEL DD 0fH
	DD	082H
	DD	0aH
	DD	06eH
	DD	03aH
	DD	083H
	DD	0b4H
	DD	06fH
	DD	0a0H
	DD	03bH
	DD	0b5H
	DD	0e6H
	DD	0a1H
	DD	0d2H
	DD	03cH
	DD	0e7H
	DD	0118H
	DD	0d3H
	DD	0104H
	DD	03dH
	DD	0119H
	DD	014aH
	DD	0105H
	DD	0136H
	DD	06fH
	DD	014bH
	DD	0190H
	DD	0137H
	DD	0190H
	DD	070H
_g_sttKALIMAGATE_LEVEL DD 028H
	DD	082H
	DD	014H
	DD	06eH
	DD	083H
	DD	0b4H
	DD	06fH
	DD	0a0H
	DD	0b5H
	DD	0e6H
	DD	0a1H
	DD	0d2H
	DD	0e7H
	DD	0118H
	DD	0d3H
	DD	0104H
	DD	0119H
	DD	014aH
	DD	0105H
	DD	0136H
	DD	014bH
	DD	015dH
	DD	0137H
	DD	015dH
	DD	015eH
	DD	0190H
	DD	015eH
	DD	0190H
_g_iKalimaGateGateIndex DD 058H
	DD	059H
	DD	05aH
	DD	05bH
	DD	05cH
	DD	05dH
	DD	074H
?gServerMaxUser@@3HA DD 01f4H				; gServerMaxUser
_g_sttBLOODCASTLE_LEVEL DD 0fH
	DD	050H
	DD	0aH
	DD	03cH
	DD	051H
	DD	082H
	DD	03dH
	DD	06eH
	DD	083H
	DD	0b4H
	DD	06fH
	DD	0a0H
	DD	0b5H
	DD	0e6H
	DD	0a1H
	DD	0d2H
	DD	0e7H
	DD	0118H
	DD	0d3H
	DD	0104H
	DD	0119H
	DD	014aH
	DD	0105H
	DD	0136H
	DD	014bH
	DD	0190H
	DD	0137H
	DD	0190H
_g_sttCHAOSCASTLE_LEVEL DD 0aH
	DD	031H
	DD	0aH
	DD	01dH
	DD	032H
	DD	077H
	DD	01eH
	DD	063H
	DD	078H
	DD	0b3H
	DD	064H
	DD	09fH
	DD	0b4H
	DD	0efH
	DD	0a0H
	DD	0dbH
	DD	0f0H
	DD	012bH
	DD	0dcH
	DD	0117H
	DD	012cH
	DD	0190H
	DD	0118H
	DD	0190H
_g_iChaosCastle_BlowOutDistance DD 03H
	DD	04H
	DD	03H
	DD	04H
	DD	02H
	DD	03H
	DD	00H
	DD	01H
_g_iChaosCastle_BlowOutDamage DD 0fH
	DD	0fH
	DD	0aH
	DD	05H
_g_iChaosCastle_EnterCost DD 061a8H
	DD	013880H
	DD	0249f0H
	DD	03d090H
	DD	061a80H
	DD	09eb10H
_g_iChaosCastle_GuardSetValue DD 09c4H
	DD	09c4H
	DD	09c4H
	DD	09c4H
	DD	09c4H
	DD	09c4H
_g_iChaosCastle_MonsterItems DD 01c0dH
	DD	01H
	DD	01c0eH
	DD	01H
	DD	01c0dH
	DD	01H
	DD	01c0eH
	DD	01H
	DD	01c0dH
	DD	01H
	DD	01c0eH
	DD	01H
	DD	01c0dH
	DD	01H
	DD	01c0eH
	DD	01H
	DD	01c0dH
	DD	01H
	DD	01c0eH
	DD	02H
	DD	01c0dH
	DD	01H
	DD	01c0eH
	DD	02H
_g_iChaosCastle_GroundAxis DD 017H
	DD	04bH
	DD	02cH
	DD	06cH
_g_iChaosCastle_DamageAxis DD 017H
	DD	04bH
	DD	02cH
	DD	06cH
	DD	019H
	DD	04dH
	DD	02aH
	DD	06aH
	DD	01bH
	DD	04fH
	DD	028H
	DD	068H
	DD	01dH
	DD	051H
	DD	026H
	DD	066H
_g_iChaosCastle_MapHollowZone DD 017H
	DD	04bH
	DD	02cH
	DD	04cH
	DD	02bH
	DD	04dH
	DD	02cH
	DD	06cH
	DD	017H
	DD	06bH
	DD	02aH
	DD	06cH
	DD	017H
	DD	04dH
	DD	018H
	DD	06aH
	DD	017H
	DD	04bH
	DD	02cH
	DD	04cH
	DD	02bH
	DD	04dH
	DD	02cH
	DD	06cH
	DD	017H
	DD	06bH
	DD	02aH
	DD	06cH
	DD	017H
	DD	04dH
	DD	018H
	DD	06aH
	DD	019H
	DD	04dH
	DD	02aH
	DD	04eH
	DD	029H
	DD	04fH
	DD	02aH
	DD	06aH
	DD	019H
	DD	069H
	DD	028H
	DD	06aH
	DD	019H
	DD	04fH
	DD	01aH
	DD	068H
	DD	01bH
	DD	04fH
	DD	028H
	DD	050H
	DD	027H
	DD	051H
	DD	028H
	DD	068H
	DD	01bH
	DD	067H
	DD	026H
	DD	068H
	DD	01bH
	DD	051H
	DD	01cH
	DD	066H
?RoadPathTable@@3PAFA DW 0ffffH				; RoadPathTable
	DW	0ffffH
	DW	00H
	DW	0ffffH
	DW	01H
	DW	0ffffH
	DW	01H
	DW	00H
	DW	01H
	DW	01H
	DW	00H
	DW	01H
	DW	0ffffH
	DW	01H
	DW	0ffffH
	DW	00H
?g_EnergyCheckOff@@3HA DD 01H				; g_EnergyCheckOff
_DATA	ENDS
PUBLIC	?GetInfinityArrowUseLevel@CSkillAdditionInfo@@QAEHXZ ; CSkillAdditionInfo::GetInfinityArrowUseLevel
; Function compile flags: /Ogtp
; File c:\users\faelhs\mu-1.1\emu - gameserver sapphire s0\gameserver\skilladditioninfo.h
;	COMDAT ?GetInfinityArrowUseLevel@CSkillAdditionInfo@@QAEHXZ
_TEXT	SEGMENT
?GetInfinityArrowUseLevel@CSkillAdditionInfo@@QAEHXZ PROC ; CSkillAdditionInfo::GetInfinityArrowUseLevel, COMDAT
; _this$ = ecx

; 25   : 	int GetInfinityArrowUseLevel(){return this->m_iInfinityArrowUseLevel;}

  00000	8b 41 08	 mov	 eax, DWORD PTR [ecx+8]
  00003	c3		 ret	 0
?GetInfinityArrowUseLevel@CSkillAdditionInfo@@QAEHXZ ENDP ; CSkillAdditionInfo::GetInfinityArrowUseLevel
_TEXT	ENDS
PUBLIC	__$ArrayPad$
EXTRN	_isalnum:PROC
EXTRN	_isalpha:PROC
EXTRN	_atof:PROC
EXTRN	_isdigit:PROC
EXTRN	_getc:PROC
EXTRN	_ungetc:PROC
EXTRN	_isspace:PROC
EXTRN	_fgetc:PROC
EXTRN	___security_cookie:DWORD
EXTRN	__fltused:DWORD
EXTRN	@__security_check_cookie@4:PROC
_BSS	SEGMENT
	ALIGN	4

_CurrentToken DD 01H DUP (?)
_TokenNumber DD	01H DUP (?)
_SMDFile DD	01H DUP (?)
_TokenString DB	064H DUP (?)
; Function compile flags: /Ogtp
; File c:\users\faelhs\mu-1.1\emu - gameserver sapphire s0\include\readscript.h
_BSS	ENDS
;	COMDAT ?GetToken@@YA?AW4SMDToken@@XZ
_TEXT	SEGMENT
_TempString$ = -104					; size = 100
__$ArrayPad$ = -4					; size = 4
?GetToken@@YA?AW4SMDToken@@XZ PROC			; GetToken, COMDAT

; 24   : {

  00000	55		 push	 ebp
  00001	8b ec		 mov	 ebp, esp
  00003	83 ec 68	 sub	 esp, 104		; 00000068H
  00006	a1 00 00 00 00	 mov	 eax, DWORD PTR ___security_cookie
  0000b	33 c5		 xor	 eax, ebp
  0000d	89 45 fc	 mov	 DWORD PTR __$ArrayPad$[ebp], eax

; 25   : 	char ch;
; 26   : 	char* p;
; 27   : 	char TempString[100];
; 28   : 
; 29   : 	TokenString[0]=0;

  00010	c6 05 00 00 00
	00 00		 mov	 BYTE PTR _TokenString, 0
  00017	53		 push	 ebx
  00018	eb 06 8d 9b 00
	00 00 00	 npad	 8
$LL31@GetToken:

; 30   : 
; 31   : 	do
; 32   : 	{
; 33   : 		if ((ch=fgetc(SMDFile)) == -1)

  00020	a1 00 00 00 00	 mov	 eax, DWORD PTR _SMDFile
  00025	50		 push	 eax
  00026	e8 00 00 00 00	 call	 _fgetc
  0002b	8a d8		 mov	 bl, al
  0002d	83 c4 04	 add	 esp, 4
  00030	80 fb ff	 cmp	 bl, -1
  00033	74 64		 je	 SHORT $LN39@GetToken

; 36   : 		}
; 37   : 		else
; 38   : 		{	
; 39   : 			if (ch=='/')		// this is /

  00035	80 fb 2f	 cmp	 bl, 47			; 0000002fH
  00038	75 31		 jne	 SHORT $LN30@GetToken

; 40   : 			{
; 41   : 				if((ch=fgetc(SMDFile)) == '/')

  0003a	8b 0d 00 00 00
	00		 mov	 ecx, DWORD PTR _SMDFile
  00040	51		 push	 ecx
  00041	e8 00 00 00 00	 call	 _fgetc
  00046	8a d8		 mov	 bl, al
  00048	83 c4 04	 add	 esp, 4
  0004b	80 fb 2f	 cmp	 bl, 47			; 0000002fH
  0004e	75 1b		 jne	 SHORT $LN30@GetToken
$LL24@GetToken:

; 42   : 				{
; 43   : 					while ((ch != '\n') && (ch != -1))	// End of Line (EOL)

  00050	80 fb ff	 cmp	 bl, -1
  00053	74 44		 je	 SHORT $LN39@GetToken

; 44   : 					{
; 45   : 						ch=fgetc(SMDFile);

  00055	8b 15 00 00 00
	00		 mov	 edx, DWORD PTR _SMDFile
  0005b	52		 push	 edx
  0005c	e8 00 00 00 00	 call	 _fgetc
  00061	8a d8		 mov	 bl, al
  00063	83 c4 04	 add	 esp, 4
  00066	80 fb 0a	 cmp	 bl, 10			; 0000000aH
  00069	75 e5		 jne	 SHORT $LL24@GetToken
$LN30@GetToken:

; 46   : 					}
; 47   : 	
; 48   : 					if (ch == -1)
; 49   : 					{
; 50   : 						return END;	// End of FILE
; 51   : 					}
; 52   : 				}
; 53   : 			}
; 54   : 		}
; 55   : 	}
; 56   : 	while (isspace(ch) != 0);

  0006b	0f be c3	 movsx	 eax, bl
  0006e	50		 push	 eax
  0006f	e8 00 00 00 00	 call	 _isspace
  00074	83 c4 04	 add	 esp, 4
  00077	85 c0		 test	 eax, eax
  00079	75 a5		 jne	 SHORT $LL31@GetToken

; 57   : 
; 58   : 	
; 59   : 	switch(ch)

  0007b	0f be c3	 movsx	 eax, bl
  0007e	8d 48 de	 lea	 ecx, DWORD PTR [eax-34]
  00081	56		 push	 esi
  00082	83 f9 5b	 cmp	 ecx, 91			; 0000005bH
  00085	0f 87 2b 01 00
	00		 ja	 $LN6@GetToken
  0008b	0f b6 89 00 00
	00 00		 movzx	 ecx, BYTE PTR $LN46@GetToken[ecx]
  00092	ff 24 8d 00 00
	00 00		 jmp	 DWORD PTR $LN50@GetToken[ecx*4]
$LN39@GetToken:

; 34   : 		{
; 35   : 			return END;	// End of FILE (EOF)

  00099	b8 02 00 00 00	 mov	 eax, 2
  0009e	5b		 pop	 ebx

; 147  : 		}
; 148  : 		break;
; 149  : 
; 150  : 	}
; 151  : 
; 152  : 	return NAME;
; 153  : }

  0009f	8b 4d fc	 mov	 ecx, DWORD PTR __$ArrayPad$[ebp]
  000a2	33 cd		 xor	 ecx, ebp
  000a4	e8 00 00 00 00	 call	 @__security_check_cookie@4
  000a9	8b e5		 mov	 esp, ebp
  000ab	5d		 pop	 ebp
  000ac	c3		 ret	 0
$LN19@GetToken:

; 60   : 	{
; 61   : 
; 62   : 	case 0x23:	// #
; 63   : 		return CurrentToken=COMMAND;

  000ad	b8 23 00 00 00	 mov	 eax, 35			; 00000023H
  000b2	e9 99 01 00 00	 jmp	 $LN48@GetToken
$LN18@GetToken:

; 64   : 		break;
; 65   : 	
; 66   : 	case 0x3B:	// ;
; 67   : 		return CurrentToken=SEMICOLON;

  000b7	b8 3b 00 00 00	 mov	 eax, 59			; 0000003bH
  000bc	e9 8f 01 00 00	 jmp	 $LN48@GetToken
$LN17@GetToken:

; 68   : 		break;
; 69   : 	
; 70   : 	case 0x2C:	// ,
; 71   : 
; 72   : 		return CurrentToken=COMMA;

  000c1	b8 2c 00 00 00	 mov	 eax, 44			; 0000002cH
  000c6	e9 85 01 00 00	 jmp	 $LN48@GetToken
$LN16@GetToken:

; 73   : 		break;
; 74   : 	
; 75   : 	case 0x7B:	// {
; 76   : 		return CurrentToken = LP;

  000cb	b8 7b 00 00 00	 mov	 eax, 123		; 0000007bH
  000d0	e9 7b 01 00 00	 jmp	 $LN48@GetToken
$LN15@GetToken:

; 77   : 		break;
; 78   : 
; 79   : 	case 0x7D:	// }
; 80   : 		return CurrentToken = RP;

  000d5	b8 7d 00 00 00	 mov	 eax, 125		; 0000007dH
  000da	e9 71 01 00 00	 jmp	 $LN48@GetToken
$LN14@GetToken:

; 81   : 		break;
; 82   : 	// Nice Index Table :)	by Deathway
; 83   : 	// Numbers Case
; 84   : 	case 0x2D:	//-
; 85   : 	case 0x2E:	//.
; 86   : 	case '0':	//0
; 87   : 	case '1':	//1
; 88   : 	case '2':	//2
; 89   : 	case '3':	//3
; 90   : 	case '4':	//4		
; 91   : 	case '5':	//5
; 92   : 	case '6':	//6
; 93   : 	case '7':	//7
; 94   : 	case '8':	//8
; 95   : 	case '9':	//9
; 96   : 		ungetc(ch, SMDFile);

  000df	8b 15 00 00 00
	00		 mov	 edx, DWORD PTR _SMDFile
  000e5	52		 push	 edx
  000e6	50		 push	 eax
  000e7	e8 00 00 00 00	 call	 _ungetc

; 97   : 		p = TempString;
; 98   : 		
; 99   : 		while (((ch=getc(SMDFile)) != -1) && ((ch == 0x2E) || (isdigit(ch) != 0) || (ch == 0x2D)))  // 2e '.'  2D '-'

  000ec	a1 00 00 00 00	 mov	 eax, DWORD PTR _SMDFile
  000f1	50		 push	 eax
  000f2	8d 75 98	 lea	 esi, DWORD PTR _TempString$[ebp]
  000f5	e8 00 00 00 00	 call	 _getc
  000fa	8a d8		 mov	 bl, al
  000fc	83 c4 0c	 add	 esp, 12			; 0000000cH
  000ff	80 fb ff	 cmp	 bl, -1
  00102	74 33		 je	 SHORT $LN12@GetToken
$LL13@GetToken:
  00104	80 fb 2e	 cmp	 bl, 46			; 0000002eH
  00107	74 15		 je	 SHORT $LN11@GetToken
  00109	0f be cb	 movsx	 ecx, bl
  0010c	51		 push	 ecx
  0010d	e8 00 00 00 00	 call	 _isdigit
  00112	83 c4 04	 add	 esp, 4
  00115	85 c0		 test	 eax, eax
  00117	75 05		 jne	 SHORT $LN11@GetToken
  00119	80 fb 2d	 cmp	 bl, 45			; 0000002dH
  0011c	75 19		 jne	 SHORT $LN12@GetToken
$LN11@GetToken:
  0011e	8b 15 00 00 00
	00		 mov	 edx, DWORD PTR _SMDFile

; 100  : 		{
; 101  : 			*p = ch;	// Construct a String

  00124	88 1e		 mov	 BYTE PTR [esi], bl
  00126	52		 push	 edx

; 102  : 			p++;

  00127	46		 inc	 esi
  00128	e8 00 00 00 00	 call	 _getc
  0012d	8a d8		 mov	 bl, al
  0012f	83 c4 04	 add	 esp, 4
  00132	80 fb ff	 cmp	 bl, -1
  00135	75 cd		 jne	 SHORT $LL13@GetToken
$LN12@GetToken:

; 103  : 		}		
; 104  : 		*p = 0;
; 105  : 		TokenNumber = atof( TempString);	// Select the first Byte as Main ID

  00137	8d 45 98	 lea	 eax, DWORD PTR _TempString$[ebp]
  0013a	50		 push	 eax
  0013b	c6 06 00	 mov	 BYTE PTR [esi], 0
  0013e	e8 00 00 00 00	 call	 _atof
  00143	d9 1d 00 00 00
	00		 fstp	 DWORD PTR _TokenNumber
  00149	83 c4 04	 add	 esp, 4
  0014c	5e		 pop	 esi

; 106  : 		return CurrentToken  = NUMBER ;

  0014d	c7 05 00 00 00
	00 01 00 00 00	 mov	 DWORD PTR _CurrentToken, 1
  00157	b8 01 00 00 00	 mov	 eax, 1
  0015c	5b		 pop	 ebx

; 147  : 		}
; 148  : 		break;
; 149  : 
; 150  : 	}
; 151  : 
; 152  : 	return NAME;
; 153  : }

  0015d	8b 4d fc	 mov	 ecx, DWORD PTR __$ArrayPad$[ebp]
  00160	33 cd		 xor	 ecx, ebp
  00162	e8 00 00 00 00	 call	 @__security_check_cookie@4
  00167	8b e5		 mov	 esp, ebp
  00169	5d		 pop	 ebp
  0016a	c3		 ret	 0
$LN10@GetToken:

; 107  : 		break;
; 108  : 
; 109  : 	case '\"':	// "	String Case
; 110  : 		p=&TokenString[0];
; 111  : 		
; 112  : 		while (((ch=getc(SMDFile)) != -1 ) && (ch != 0x22))	// nice

  0016b	8b 0d 00 00 00
	00		 mov	 ecx, DWORD PTR _SMDFile
  00171	51		 push	 ecx
  00172	be 00 00 00 00	 mov	 esi, OFFSET _TokenString
  00177	e8 00 00 00 00	 call	 _getc
  0017c	83 c4 04	 add	 esp, 4
  0017f	3c ff		 cmp	 al, -1
  00181	74 1e		 je	 SHORT $LN8@GetToken
$LL9@GetToken:
  00183	3c 22		 cmp	 al, 34			; 00000022H
  00185	0f 84 a1 00 00
	00		 je	 $LN7@GetToken
  0018b	8b 15 00 00 00
	00		 mov	 edx, DWORD PTR _SMDFile

; 113  : 		{
; 114  : 			*p = ch;

  00191	88 06		 mov	 BYTE PTR [esi], al
  00193	52		 push	 edx

; 115  : 			p++;

  00194	46		 inc	 esi
  00195	e8 00 00 00 00	 call	 _getc
  0019a	83 c4 04	 add	 esp, 4
  0019d	3c ff		 cmp	 al, -1
  0019f	75 e2		 jne	 SHORT $LL9@GetToken
$LN8@GetToken:

; 116  : 		}
; 117  : 		if (ch != 0x22 )

  001a1	3c 22		 cmp	 al, 34			; 00000022H
  001a3	0f 84 83 00 00
	00		 je	 $LN7@GetToken

; 118  : 		{
; 119  : 			ungetc(ch, SMDFile);

  001a9	8b 0d 00 00 00
	00		 mov	 ecx, DWORD PTR _SMDFile
  001af	0f be d0	 movsx	 edx, al
  001b2	51		 push	 ecx
  001b3	52		 push	 edx

; 120  : 		}
; 121  : 		*p = 0;
; 122  : 		return CurrentToken = NAME;

  001b4	eb 6e		 jmp	 SHORT $LN49@GetToken
$LN6@GetToken:

; 123  : 		break;
; 124  : 
; 125  : 	default:	// Others
; 126  : 		if (isalpha(ch))

  001b6	50		 push	 eax
  001b7	e8 00 00 00 00	 call	 _isalpha
  001bc	83 c4 04	 add	 esp, 4
  001bf	85 c0		 test	 eax, eax
  001c1	0f 84 84 00 00
	00		 je	 $LN5@GetToken

; 127  : 		{
; 128  : 			p=&TokenString[0];
; 129  : 			*p=ch;
; 130  : 			p++;
; 131  : 
; 132  : 			while ( ((ch=getc(SMDFile)) != -1) && ( (ch == 0x2E) || (ch == 0x5F) || (isalnum(ch) != 0) ) )

  001c7	a1 00 00 00 00	 mov	 eax, DWORD PTR _SMDFile
  001cc	50		 push	 eax
  001cd	88 1d 00 00 00
	00		 mov	 BYTE PTR _TokenString, bl
  001d3	be 01 00 00 00	 mov	 esi, OFFSET _TokenString+1
  001d8	e8 00 00 00 00	 call	 _getc
  001dd	8a d8		 mov	 bl, al
  001df	83 c4 04	 add	 esp, 4
  001e2	80 fb ff	 cmp	 bl, -1
  001e5	74 33		 je	 SHORT $LN3@GetToken
$LL4@GetToken:
  001e7	80 fb 2e	 cmp	 bl, 46			; 0000002eH
  001ea	74 15		 je	 SHORT $LN2@GetToken
  001ec	80 fb 5f	 cmp	 bl, 95			; 0000005fH
  001ef	74 10		 je	 SHORT $LN2@GetToken
  001f1	0f be cb	 movsx	 ecx, bl
  001f4	51		 push	 ecx
  001f5	e8 00 00 00 00	 call	 _isalnum
  001fa	83 c4 04	 add	 esp, 4
  001fd	85 c0		 test	 eax, eax
  001ff	74 19		 je	 SHORT $LN3@GetToken
$LN2@GetToken:
  00201	8b 15 00 00 00
	00		 mov	 edx, DWORD PTR _SMDFile

; 133  : 			{
; 134  : 				*p=ch;

  00207	88 1e		 mov	 BYTE PTR [esi], bl
  00209	52		 push	 edx

; 135  : 				p++;

  0020a	46		 inc	 esi
  0020b	e8 00 00 00 00	 call	 _getc
  00210	8a d8		 mov	 bl, al
  00212	83 c4 04	 add	 esp, 4
  00215	80 fb ff	 cmp	 bl, -1
  00218	75 cd		 jne	 SHORT $LL4@GetToken
$LN3@GetToken:

; 136  : 				
; 137  : 			}
; 138  : 
; 139  : 			ungetc(ch, SMDFile);

  0021a	a1 00 00 00 00	 mov	 eax, DWORD PTR _SMDFile
  0021f	0f be cb	 movsx	 ecx, bl
  00222	50		 push	 eax
  00223	51		 push	 ecx
$LN49@GetToken:
  00224	e8 00 00 00 00	 call	 _ungetc
  00229	83 c4 08	 add	 esp, 8
$LN7@GetToken:

; 140  : 			*p=0;

  0022c	c6 06 00	 mov	 BYTE PTR [esi], 0
  0022f	5e		 pop	 esi

; 141  : 			CurrentToken=NAME;

  00230	c7 05 00 00 00
	00 00 00 00 00	 mov	 DWORD PTR _CurrentToken, 0

; 142  : 			return CurrentToken;

  0023a	33 c0		 xor	 eax, eax
  0023c	5b		 pop	 ebx

; 147  : 		}
; 148  : 		break;
; 149  : 
; 150  : 	}
; 151  : 
; 152  : 	return NAME;
; 153  : }

  0023d	8b 4d fc	 mov	 ecx, DWORD PTR __$ArrayPad$[ebp]
  00240	33 cd		 xor	 ecx, ebp
  00242	e8 00 00 00 00	 call	 @__security_check_cookie@4
  00247	8b e5		 mov	 esp, ebp
  00249	5d		 pop	 ebp
  0024a	c3		 ret	 0
$LN5@GetToken:

; 143  : 		}
; 144  : 		else
; 145  : 		{
; 146  : 			return CurrentToken = SMD_ERROR; // '<'

  0024b	b8 3c 00 00 00	 mov	 eax, 60			; 0000003cH
$LN48@GetToken:

; 147  : 		}
; 148  : 		break;
; 149  : 
; 150  : 	}
; 151  : 
; 152  : 	return NAME;
; 153  : }

  00250	8b 4d fc	 mov	 ecx, DWORD PTR __$ArrayPad$[ebp]
  00253	5e		 pop	 esi
  00254	33 cd		 xor	 ecx, ebp
  00256	a3 00 00 00 00	 mov	 DWORD PTR _CurrentToken, eax
  0025b	5b		 pop	 ebx
  0025c	e8 00 00 00 00	 call	 @__security_check_cookie@4
  00261	8b e5		 mov	 esp, ebp
  00263	5d		 pop	 ebp
  00264	c3		 ret	 0
  00265	8d 49 00	 npad	 3
$LN50@GetToken:
  00268	00 00 00 00	 DD	 $LN10@GetToken
  0026c	00 00 00 00	 DD	 $LN19@GetToken
  00270	00 00 00 00	 DD	 $LN17@GetToken
  00274	00 00 00 00	 DD	 $LN14@GetToken
  00278	00 00 00 00	 DD	 $LN18@GetToken
  0027c	00 00 00 00	 DD	 $LN16@GetToken
  00280	00 00 00 00	 DD	 $LN15@GetToken
  00284	00 00 00 00	 DD	 $LN6@GetToken
$LN46@GetToken:
  00288	00		 DB	 0
  00289	01		 DB	 1
  0028a	07		 DB	 7
  0028b	07		 DB	 7
  0028c	07		 DB	 7
  0028d	07		 DB	 7
  0028e	07		 DB	 7
  0028f	07		 DB	 7
  00290	07		 DB	 7
  00291	07		 DB	 7
  00292	02		 DB	 2
  00293	03		 DB	 3
  00294	03		 DB	 3
  00295	07		 DB	 7
  00296	03		 DB	 3
  00297	03		 DB	 3
  00298	03		 DB	 3
  00299	03		 DB	 3
  0029a	03		 DB	 3
  0029b	03		 DB	 3
  0029c	03		 DB	 3
  0029d	03		 DB	 3
  0029e	03		 DB	 3
  0029f	03		 DB	 3
  002a0	07		 DB	 7
  002a1	04		 DB	 4
  002a2	07		 DB	 7
  002a3	07		 DB	 7
  002a4	07		 DB	 7
  002a5	07		 DB	 7
  002a6	07		 DB	 7
  002a7	07		 DB	 7
  002a8	07		 DB	 7
  002a9	07		 DB	 7
  002aa	07		 DB	 7
  002ab	07		 DB	 7
  002ac	07		 DB	 7
  002ad	07		 DB	 7
  002ae	07		 DB	 7
  002af	07		 DB	 7
  002b0	07		 DB	 7
  002b1	07		 DB	 7
  002b2	07		 DB	 7
  002b3	07		 DB	 7
  002b4	07		 DB	 7
  002b5	07		 DB	 7
  002b6	07		 DB	 7
  002b7	07		 DB	 7
  002b8	07		 DB	 7
  002b9	07		 DB	 7
  002ba	07		 DB	 7
  002bb	07		 DB	 7
  002bc	07		 DB	 7
  002bd	07		 DB	 7
  002be	07		 DB	 7
  002bf	07		 DB	 7
  002c0	07		 DB	 7
  002c1	07		 DB	 7
  002c2	07		 DB	 7
  002c3	07		 DB	 7
  002c4	07		 DB	 7
  002c5	07		 DB	 7
  002c6	07		 DB	 7
  002c7	07		 DB	 7
  002c8	07		 DB	 7
  002c9	07		 DB	 7
  002ca	07		 DB	 7
  002cb	07		 DB	 7
  002cc	07		 DB	 7
  002cd	07		 DB	 7
  002ce	07		 DB	 7
  002cf	07		 DB	 7
  002d0	07		 DB	 7
  002d1	07		 DB	 7
  002d2	07		 DB	 7
  002d3	07		 DB	 7
  002d4	07		 DB	 7
  002d5	07		 DB	 7
  002d6	07		 DB	 7
  002d7	07		 DB	 7
  002d8	07		 DB	 7
  002d9	07		 DB	 7
  002da	07		 DB	 7
  002db	07		 DB	 7
  002dc	07		 DB	 7
  002dd	07		 DB	 7
  002de	07		 DB	 7
  002df	07		 DB	 7
  002e0	07		 DB	 7
  002e1	05		 DB	 5
  002e2	07		 DB	 7
  002e3	06		 DB	 6
?GetToken@@YA?AW4SMDToken@@XZ ENDP			; GetToken
_TEXT	ENDS
PUBLIC	??0OBJECTSTRUCT@@QAE@XZ				; OBJECTSTRUCT::OBJECTSTRUCT
EXTRN	??0CSkillDelay@@QAE@XZ:PROC			; CSkillDelay::CSkillDelay
; Function compile flags: /Ogtp
;	COMDAT ??0OBJECTSTRUCT@@QAE@XZ
_TEXT	SEGMENT
??0OBJECTSTRUCT@@QAE@XZ PROC				; OBJECTSTRUCT::OBJECTSTRUCT, COMDAT
; _this$ = ecx
  00000	56		 push	 esi
  00001	8b f1		 mov	 esi, ecx
  00003	8d 8e bc 10 00
	00		 lea	 ecx, DWORD PTR [esi+4284]
  00009	e8 00 00 00 00	 call	 ??0CSkillDelay@@QAE@XZ	; CSkillDelay::CSkillDelay
  0000e	8b c6		 mov	 eax, esi
  00010	5e		 pop	 esi
  00011	c3		 ret	 0
??0OBJECTSTRUCT@@QAE@XZ ENDP				; OBJECTSTRUCT::OBJECTSTRUCT
_TEXT	ENDS
PUBLIC	??1OBJECTSTRUCT@@QAE@XZ				; OBJECTSTRUCT::~OBJECTSTRUCT
EXTRN	??1CSkillDelay@@UAE@XZ:PROC			; CSkillDelay::~CSkillDelay
; Function compile flags: /Ogtp
;	COMDAT ??1OBJECTSTRUCT@@QAE@XZ
_TEXT	SEGMENT
??1OBJECTSTRUCT@@QAE@XZ PROC				; OBJECTSTRUCT::~OBJECTSTRUCT, COMDAT
; _this$ = ecx
  00000	81 c1 bc 10 00
	00		 add	 ecx, 4284		; 000010bcH
  00006	e9 00 00 00 00	 jmp	 ??1CSkillDelay@@UAE@XZ	; CSkillDelay::~CSkillDelay
??1OBJECTSTRUCT@@QAE@XZ ENDP				; OBJECTSTRUCT::~OBJECTSTRUCT
_TEXT	ENDS
PUBLIC	??_H@YGXPAXIHP6EPAX0@Z@Z			; `vector constructor iterator'
; Function compile flags: /Ogtp
;	COMDAT ??_H@YGXPAXIHP6EPAX0@Z@Z
_TEXT	SEGMENT
___t$ = 8						; size = 4
___s$ = 12						; size = 4
___n$ = 16						; size = 4
___f$ = 20						; size = 4
??_H@YGXPAXIHP6EPAX0@Z@Z PROC				; `vector constructor iterator', COMDAT
  00000	55		 push	 ebp
  00001	8b ec		 mov	 ebp, esp
  00003	57		 push	 edi
  00004	8b 7d 10	 mov	 edi, DWORD PTR ___n$[ebp]
  00007	4f		 dec	 edi
  00008	78 14		 js	 SHORT $LN1@vector
  0000a	53		 push	 ebx
  0000b	8b 5d 14	 mov	 ebx, DWORD PTR ___f$[ebp]
  0000e	56		 push	 esi
  0000f	8b 75 08	 mov	 esi, DWORD PTR ___t$[ebp]
$LL2@vector:
  00012	8b ce		 mov	 ecx, esi
  00014	ff d3		 call	 ebx
  00016	03 75 0c	 add	 esi, DWORD PTR ___s$[ebp]
  00019	4f		 dec	 edi
  0001a	79 f6		 jns	 SHORT $LL2@vector
  0001c	5e		 pop	 esi
  0001d	5b		 pop	 ebx
$LN1@vector:
  0001e	5f		 pop	 edi
  0001f	5d		 pop	 ebp
  00020	c2 10 00	 ret	 16			; 00000010H
??_H@YGXPAXIHP6EPAX0@Z@Z ENDP				; `vector constructor iterator'
_TEXT	ENDS
PUBLIC	?gObjRefillProcess@@YAXHPAUOBJECTSTRUCT@@@Z	; gObjRefillProcess
; Function compile flags: /Ogtp
; File c:\users\faelhs\mu-1.1\emu - gameserver sapphire s0\gameserver\user.cpp
;	COMDAT ?gObjRefillProcess@@YAXHPAUOBJECTSTRUCT@@@Z
_TEXT	SEGMENT
_aIndex$ = 8						; size = 4
_lpObj$ = 12						; size = 4
?gObjRefillProcess@@YAXHPAUOBJECTSTRUCT@@@Z PROC	; gObjRefillProcess, COMDAT

; 613  : 	return;	// HEre is a MACRO
; 614  : }

  00000	c3		 ret	 0
?gObjRefillProcess@@YAXHPAUOBJECTSTRUCT@@@Z ENDP	; gObjRefillProcess
_TEXT	ENDS
PUBLIC	??_ECMagicInf@@UAEPAXI@Z			; CMagicInf::`vector deleting destructor'
EXTRN	??3@YAXPAX@Z:PROC				; operator delete
EXTRN	??_V@YAXPAX@Z:PROC				; operator delete[]
EXTRN	??_M@YGXPAXIHP6EX0@Z@Z:PROC			; `eh vector destructor iterator'
EXTRN	??1CMagicInf@@UAE@XZ:PROC			; CMagicInf::~CMagicInf
; Function compile flags: /Ogtp
;	COMDAT ??_ECMagicInf@@UAEPAXI@Z
_TEXT	SEGMENT
___flags$ = 8						; size = 4
??_ECMagicInf@@UAEPAXI@Z PROC				; CMagicInf::`vector deleting destructor', COMDAT
; _this$ = ecx
  00000	55		 push	 ebp
  00001	8b ec		 mov	 ebp, esp
  00003	53		 push	 ebx
  00004	8a 5d 08	 mov	 bl, BYTE PTR ___flags$[ebp]
  00007	56		 push	 esi
  00008	8b f1		 mov	 esi, ecx
  0000a	f6 c3 02	 test	 bl, 2
  0000d	74 2c		 je	 SHORT $LN3@vector@2
  0000f	8b 46 fc	 mov	 eax, DWORD PTR [esi-4]
  00012	57		 push	 edi
  00013	68 00 00 00 00	 push	 OFFSET ??1CMagicInf@@UAE@XZ ; CMagicInf::~CMagicInf
  00018	8d 7e fc	 lea	 edi, DWORD PTR [esi-4]
  0001b	50		 push	 eax
  0001c	6a 10		 push	 16			; 00000010H
  0001e	56		 push	 esi
  0001f	e8 00 00 00 00	 call	 ??_M@YGXPAXIHP6EX0@Z@Z
  00024	f6 c3 01	 test	 bl, 1
  00027	74 09		 je	 SHORT $LN2@vector@2
  00029	57		 push	 edi
  0002a	e8 00 00 00 00	 call	 ??_V@YAXPAX@Z		; operator delete[]
  0002f	83 c4 04	 add	 esp, 4
$LN2@vector@2:
  00032	8b c7		 mov	 eax, edi
  00034	5f		 pop	 edi
  00035	5e		 pop	 esi
  00036	5b		 pop	 ebx
  00037	5d		 pop	 ebp
  00038	c2 04 00	 ret	 4
$LN3@vector@2:
  0003b	e8 00 00 00 00	 call	 ??1CMagicInf@@UAE@XZ	; CMagicInf::~CMagicInf
  00040	f6 c3 01	 test	 bl, 1
  00043	74 09		 je	 SHORT $LN1@vector@2
  00045	56		 push	 esi
  00046	e8 00 00 00 00	 call	 ??3@YAXPAX@Z		; operator delete
  0004b	83 c4 04	 add	 esp, 4
$LN1@vector@2:
  0004e	8b c6		 mov	 eax, esi
  00050	5e		 pop	 esi
  00051	5b		 pop	 ebx
  00052	5d		 pop	 ebp
  00053	c2 04 00	 ret	 4
??_ECMagicInf@@UAEPAXI@Z ENDP				; CMagicInf::`vector deleting destructor'
_TEXT	ENDS
PUBLIC	?gObjClearViewportOfMine@@YAXPAUOBJECTSTRUCT@@@Z ; gObjClearViewportOfMine
; Function compile flags: /Ogtp
;	COMDAT ?gObjClearViewportOfMine@@YAXPAUOBJECTSTRUCT@@@Z
_TEXT	SEGMENT
_lpObj$ = 8						; size = 4
?gObjClearViewportOfMine@@YAXPAUOBJECTSTRUCT@@@Z PROC	; gObjClearViewportOfMine, COMDAT

; 743  : {

  00000	55		 push	 ebp
  00001	8b ec		 mov	 ebp, esp
  00003	56		 push	 esi

; 744  : 	for (int i=0;i<MAX_VIEWPORT;i++)

  00004	8b 75 08	 mov	 esi, DWORD PTR _lpObj$[ebp]
  00007	57		 push	 edi
  00008	8d 86 92 03 00
	00		 lea	 eax, DWORD PTR [esi+914]
  0000e	b9 4b 00 00 00	 mov	 ecx, 75			; 0000004bH
  00013	33 d2		 xor	 edx, edx
$LL3@gObjClearV:

; 745  : 	{
; 746  : 		lpObj->VpPlayer[i].state =0;
; 747  : 		lpObj->VpPlayer[i].number =-1;

  00015	83 cf ff	 or	 edi, -1
  00018	88 50 fe	 mov	 BYTE PTR [eax-2], dl
  0001b	66 89 38	 mov	 WORD PTR [eax], di
  0001e	83 c0 0c	 add	 eax, 12			; 0000000cH
  00021	49		 dec	 ecx
  00022	75 f1		 jne	 SHORT $LL3@gObjClearV

; 748  : 	}
; 749  : 
; 750  : 	lpObj->VPCount=0;

  00024	5f		 pop	 edi
  00025	89 96 98 0a 00
	00		 mov	 DWORD PTR [esi+2712], edx
  0002b	5e		 pop	 esi

; 751  : }

  0002c	5d		 pop	 ebp
  0002d	c3		 ret	 0
?gObjClearViewportOfMine@@YAXPAUOBJECTSTRUCT@@@Z ENDP	; gObjClearViewportOfMine
_TEXT	ENDS
PUBLIC	?gObjClearViewport@@YAXPAUOBJECTSTRUCT@@@Z	; gObjClearViewport
; Function compile flags: /Ogtp
;	COMDAT ?gObjClearViewport@@YAXPAUOBJECTSTRUCT@@@Z
_TEXT	SEGMENT
_lpObj$ = 8						; size = 4
?gObjClearViewport@@YAXPAUOBJECTSTRUCT@@@Z PROC		; gObjClearViewport, COMDAT

; 754  : {

  00000	55		 push	 ebp
  00001	8b ec		 mov	 ebp, esp
  00003	56		 push	 esi

; 755  : 	for ( int i=0;i<MAX_VIEWPORT;i++)

  00004	8b 75 08	 mov	 esi, DWORD PTR _lpObj$[ebp]
  00007	57		 push	 edi
  00008	8d 86 92 03 00
	00		 lea	 eax, DWORD PTR [esi+914]
  0000e	ba 4b 00 00 00	 mov	 edx, 75			; 0000004bH
  00013	33 c9		 xor	 ecx, ecx
$LL3@gObjClearV@2:

; 756  : 	{
; 757  : 		lpObj->VpPlayer[i].state=0;
; 758  : 		lpObj->VpPlayer[i].number =-1;

  00015	83 cf ff	 or	 edi, -1
  00018	66 89 38	 mov	 WORD PTR [eax], di

; 759  : 		lpObj->VpPlayer2[i].state=0;
; 760  : 		lpObj->VpPlayer2[i].number=-1;

  0001b	0b ff		 or	 edi, edi
  0001d	88 48 fe	 mov	 BYTE PTR [eax-2], cl
  00020	88 88 82 03 00
	00		 mov	 BYTE PTR [eax+898], cl
  00026	66 89 b8 84 03
	00 00		 mov	 WORD PTR [eax+900], di
  0002d	83 c0 0c	 add	 eax, 12			; 0000000cH
  00030	4a		 dec	 edx
  00031	75 e2		 jne	 SHORT $LL3@gObjClearV@2

; 761  : 	}
; 762  : 
; 763  : 	lpObj->VPCount = 0;

  00033	5f		 pop	 edi
  00034	89 8e 98 0a 00
	00		 mov	 DWORD PTR [esi+2712], ecx

; 764  : 	lpObj->VPCount2 = 0;

  0003a	89 8e 9c 0a 00
	00		 mov	 DWORD PTR [esi+2716], ecx
  00040	5e		 pop	 esi

; 765  : }

  00041	5d		 pop	 ebp
  00042	c3		 ret	 0
?gObjClearViewport@@YAXPAUOBJECTSTRUCT@@@Z ENDP		; gObjClearViewport
_TEXT	ENDS
PUBLIC	?gObjCharTradeClear@@YAXPAUOBJECTSTRUCT@@@Z	; gObjCharTradeClear
EXTRN	?Clear@CItem@@QAEXXZ:PROC			; CItem::Clear
; Function compile flags: /Ogtp
;	COMDAT ?gObjCharTradeClear@@YAXPAUOBJECTSTRUCT@@@Z
_TEXT	SEGMENT
_lpObj$ = 8						; size = 4
?gObjCharTradeClear@@YAXPAUOBJECTSTRUCT@@@Z PROC	; gObjCharTradeClear, COMDAT

; 828  : {

  00000	55		 push	 ebp
  00001	8b ec		 mov	 ebp, esp
  00003	57		 push	 edi

; 829  : 	if ( lpObj->Type != OBJ_USER )

  00004	8b 7d 08	 mov	 edi, DWORD PTR _lpObj$[ebp]
  00007	66 83 7f 60 01	 cmp	 WORD PTR [edi+96], 1
  0000c	75 50		 jne	 SHORT $LN5@gObjCharTr

; 830  : 	{
; 831  : 		return;
; 832  : 	}
; 833  : 
; 834  : 	memset(lpObj->TradeMap, 0xFF , TRADE_BOX_SIZE);

  0000e	8b 8f b8 0c 00
	00		 mov	 ecx, DWORD PTR [edi+3256]
  00014	83 c8 ff	 or	 eax, -1
  00017	89 01		 mov	 DWORD PTR [ecx], eax
  00019	89 41 04	 mov	 DWORD PTR [ecx+4], eax
  0001c	89 41 08	 mov	 DWORD PTR [ecx+8], eax
  0001f	89 41 0c	 mov	 DWORD PTR [ecx+12], eax
  00022	89 41 10	 mov	 DWORD PTR [ecx+16], eax
  00025	89 41 14	 mov	 DWORD PTR [ecx+20], eax
  00028	56		 push	 esi
  00029	89 41 18	 mov	 DWORD PTR [ecx+24], eax
  0002c	89 41 1c	 mov	 DWORD PTR [ecx+28], eax
  0002f	33 f6		 xor	 esi, esi
$LL3@gObjCharTr:

; 835  : 
; 836  : 	for ( int i=0 ; i< TRADE_BOX_SIZE ; i++)
; 837  : 	{
; 838  : 		lpObj->Trade[i].Clear();

  00031	8b 8f b4 0c 00
	00		 mov	 ecx, DWORD PTR [edi+3252]
  00037	03 ce		 add	 ecx, esi
  00039	e8 00 00 00 00	 call	 ?Clear@CItem@@QAEXXZ	; CItem::Clear
  0003e	81 c6 a8 00 00
	00		 add	 esi, 168		; 000000a8H
  00044	81 fe 00 15 00
	00		 cmp	 esi, 5376		; 00001500H
  0004a	7c e5		 jl	 SHORT $LL3@gObjCharTr

; 839  : 	}
; 840  : 
; 841  : 	lpObj->TradeMoney = 0;

  0004c	c7 87 bc 0c 00
	00 00 00 00 00	 mov	 DWORD PTR [edi+3260], 0

; 842  : 	lpObj->TradeOk = false;

  00056	c6 87 c0 0c 00
	00 00		 mov	 BYTE PTR [edi+3264], 0
  0005d	5e		 pop	 esi
$LN5@gObjCharTr:
  0005e	5f		 pop	 edi

; 843  : }

  0005f	5d		 pop	 ebp
  00060	c3		 ret	 0
?gObjCharTradeClear@@YAXPAUOBJECTSTRUCT@@@Z ENDP	; gObjCharTradeClear
_TEXT	ENDS
PUBLIC	?gObjGetSocket@@YAHI@Z				; gObjGetSocket
; Function compile flags: /Ogtp
;	COMDAT ?gObjGetSocket@@YAHI@Z
_TEXT	SEGMENT
_socket$ = 8						; size = 4
?gObjGetSocket@@YAHI@Z PROC				; gObjGetSocket, COMDAT

; 1230 : {

  00000	55		 push	 ebp
  00001	8b ec		 mov	 ebp, esp

; 1231 : 	for (int n=OBJ_STARTUSERINDEX;n<OBJMAX;n++)

  00003	8b 55 08	 mov	 edx, DWORD PTR _socket$[ebp]
  00006	b8 00 19 00 00	 mov	 eax, 6400		; 00001900H
  0000b	b9 10 c4 16 02	 mov	 ecx, OFFSET ?gObj@@3PAUOBJECTSTRUCT@@A+35046416
$LL5@gObjGetSoc:

; 1232 : 	{
; 1233 : 		if (gObj[n].Connected != PLAYER_EMPTY)

  00010	80 79 f4 00	 cmp	 BYTE PTR [ecx-12], 0
  00014	74 04		 je	 SHORT $LN4@gObjGetSoc

; 1234 : 		{
; 1235 : 			if (gObj[n].m_socket == socket)

  00016	39 11		 cmp	 DWORD PTR [ecx], edx
  00018	74 12		 je	 SHORT $LN6@gObjGetSoc
$LN4@gObjGetSoc:

; 1231 : 	for (int n=OBJ_STARTUSERINDEX;n<OBJMAX;n++)

  0001a	81 c1 64 15 00
	00		 add	 ecx, 5476		; 00001564H
  00020	40		 inc	 eax
  00021	81 f9 b0 52 6a
	02		 cmp	 ecx, OFFSET ?gObj@@3PAUOBJECTSTRUCT@@A+40522416
  00027	7c e7		 jl	 SHORT $LL5@gObjGetSoc

; 1236 : 			{
; 1237 : 				return n;
; 1238 : 			}
; 1239 : 		}
; 1240 : 	}
; 1241 : 	return -1;

  00029	83 c8 ff	 or	 eax, -1
$LN6@gObjGetSoc:

; 1242 : }

  0002c	5d		 pop	 ebp
  0002d	c3		 ret	 0
?gObjGetSocket@@YAHI@Z ENDP				; gObjGetSocket
_TEXT	ENDS
PUBLIC	?IsOnDuel@@YA_NHH@Z				; IsOnDuel
; Function compile flags: /Ogtp
;	COMDAT ?IsOnDuel@@YA_NHH@Z
_TEXT	SEGMENT
_aIndex1$ = 8						; size = 4
_aIndex2$ = 12						; size = 4
?IsOnDuel@@YA_NHH@Z PROC				; IsOnDuel, COMDAT

; 1295 : {

  00000	55		 push	 ebp
  00001	8b ec		 mov	 ebp, esp
  00003	56		 push	 esi
  00004	57		 push	 edi

; 1296 : 	if ( OBJMAX_RANGE(aIndex1) == FALSE || OBJMAX_RANGE(aIndex2) == FALSE )

  00005	8b 7d 08	 mov	 edi, DWORD PTR _aIndex1$[ebp]
  00008	85 ff		 test	 edi, edi
  0000a	78 5c		 js	 SHORT $LN4@IsOnDuel
  0000c	33 c0		 xor	 eax, eax
  0000e	81 ff e7 1c 00
	00		 cmp	 edi, 7399		; 00001ce7H
  00014	0f 9e c0	 setle	 al
  00017	85 c0		 test	 eax, eax
  00019	74 4d		 je	 SHORT $LN4@IsOnDuel
  0001b	8b 75 0c	 mov	 esi, DWORD PTR _aIndex2$[ebp]
  0001e	85 f6		 test	 esi, esi
  00020	78 46		 js	 SHORT $LN4@IsOnDuel
  00022	33 c0		 xor	 eax, eax
  00024	81 fe e7 1c 00
	00		 cmp	 esi, 7399		; 00001ce7H
  0002a	0f 9e c0	 setle	 al
  0002d	85 c0		 test	 eax, eax
  0002f	74 37		 je	 SHORT $LN4@IsOnDuel

; 1299 : 	}
; 1300 : 
; 1301 : 	if ( gObj[aIndex1].Type != OBJ_USER || gObj[aIndex2].Type != OBJ_USER )

  00031	8b d7		 mov	 edx, edi
  00033	69 d2 64 15 00
	00		 imul	 edx, 5476		; 00001564H
  00039	b8 01 00 00 00	 mov	 eax, 1
  0003e	66 39 82 60 00
	00 00		 cmp	 WORD PTR ?gObj@@3PAUOBJECTSTRUCT@@A[edx+96], ax
  00045	75 21		 jne	 SHORT $LN4@IsOnDuel
  00047	8b ce		 mov	 ecx, esi
  00049	69 c9 64 15 00
	00		 imul	 ecx, 5476		; 00001564H
  0004f	66 39 81 60 00
	00 00		 cmp	 WORD PTR ?gObj@@3PAUOBJECTSTRUCT@@A[ecx+96], ax
  00056	75 10		 jne	 SHORT $LN4@IsOnDuel

; 1302 : 	{
; 1303 : 		return false;
; 1304 : 	}
; 1305 : 
; 1306 : 	if ( gObj[aIndex1].m_iDuelUser == aIndex2 && gObj[aIndex2].m_iDuelUser == aIndex1 )

  00058	39 b2 1c 0d 00
	00		 cmp	 DWORD PTR ?gObj@@3PAUOBJECTSTRUCT@@A[edx+3356], esi
  0005e	75 08		 jne	 SHORT $LN4@IsOnDuel
  00060	39 b9 1c 0d 00
	00		 cmp	 DWORD PTR ?gObj@@3PAUOBJECTSTRUCT@@A[ecx+3356], edi

; 1307 : 	{
; 1308 : 		return true;

  00066	74 02		 je	 SHORT $LN6@IsOnDuel
$LN4@IsOnDuel:

; 1297 : 	{
; 1298 : 		return false;

  00068	32 c0		 xor	 al, al
$LN6@IsOnDuel:
  0006a	5f		 pop	 edi
  0006b	5e		 pop	 esi

; 1309 : 	}
; 1310 : 
; 1311 : 	return false;
; 1312 : }

  0006c	5d		 pop	 ebp
  0006d	c3		 ret	 0
?IsOnDuel@@YA_NHH@Z ENDP				; IsOnDuel
_TEXT	ENDS
PUBLIC	??_C@_0CA@HDKCFMCD@error?9L3?5?3?5map?5number?5not?5?$CFs?5?$CFd?$AA@ ; `string'
PUBLIC	??_C@_08DCNFOMBO@user?4cpp?$AA@			; `string'
PUBLIC	?GetMapMoveLevel@@YAHPAUOBJECTSTRUCT@@HH@Z	; GetMapMoveLevel
EXTRN	?MapMinUserLevel@@3PAHA:BYTE			; MapMinUserLevel
EXTRN	?LogAdd@@YAXW4eLogColor@@PADZZ:PROC		; LogAdd
;	COMDAT ??_C@_0CA@HDKCFMCD@error?9L3?5?3?5map?5number?5not?5?$CFs?5?$CFd?$AA@
CONST	SEGMENT
??_C@_0CA@HDKCFMCD@error?9L3?5?3?5map?5number?5not?5?$CFs?5?$CFd?$AA@ DB 'e'
	DB	'rror-L3 : map number not %s %d', 00H	; `string'
CONST	ENDS
;	COMDAT ??_C@_08DCNFOMBO@user?4cpp?$AA@
CONST	SEGMENT
??_C@_08DCNFOMBO@user?4cpp?$AA@ DB 'user.cpp', 00H	; `string'
; Function compile flags: /Ogtp
CONST	ENDS
;	COMDAT ?GetMapMoveLevel@@YAHPAUOBJECTSTRUCT@@HH@Z
_TEXT	SEGMENT
_lpObj$ = 8						; size = 4
_mapnumber$ = 12					; size = 4
_max_over$ = 16						; size = 4
?GetMapMoveLevel@@YAHPAUOBJECTSTRUCT@@HH@Z PROC		; GetMapMoveLevel, COMDAT

; 1315 : {

  00000	55		 push	 ebp
  00001	8b ec		 mov	 ebp, esp

; 1316 : 	int overLevel = 0;
; 1317 : 
; 1318 : 	if ( mapnumber > MAX_NUMBER_MAP-1 )

  00003	8b 45 0c	 mov	 eax, DWORD PTR _mapnumber$[ebp]
  00006	83 f8 27	 cmp	 eax, 39			; 00000027H
  00009	7e 1d		 jle	 SHORT $LN6@GetMapMove

; 1319 : 	{
; 1320 : 		mapnumber = 0;
; 1321 : 		LogAdd(LOG_BLACK, "error-L3 : map number not %s %d", __FILE__, __LINE__);

  0000b	68 29 05 00 00	 push	 1321			; 00000529H
  00010	68 00 00 00 00	 push	 OFFSET ??_C@_08DCNFOMBO@user?4cpp?$AA@
  00015	68 00 00 00 00	 push	 OFFSET ??_C@_0CA@HDKCFMCD@error?9L3?5?3?5map?5number?5not?5?$CFs?5?$CFd?$AA@
  0001a	6a 00		 push	 0
  0001c	e8 00 00 00 00	 call	 ?LogAdd@@YAXW4eLogColor@@PADZZ ; LogAdd
  00021	83 c4 10	 add	 esp, 16			; 00000010H

; 1322 : 		return 0;

  00024	33 c0		 xor	 eax, eax

; 1340 : 		}
; 1341 : 	}
; 1342 : 
; 1343 : 	return overLevel;
; 1344 : }

  00026	5d		 pop	 ebp
  00027	c3		 ret	 0
$LN6@GetMapMove:

; 1323 : 	}
; 1324 : 
; 1325 : 	if ( max_over != 0 )

  00028	8b 4d 10	 mov	 ecx, DWORD PTR _max_over$[ebp]
  0002b	85 c9		 test	 ecx, ecx

; 1326 : 	{
; 1327 : 		overLevel = max_over;
; 1328 : 	}
; 1329 : 	else

  0002d	75 07		 jne	 SHORT $LN9@GetMapMove

; 1330 : 	{
; 1331 : 		max_over = MapMinUserLevel[mapnumber];

  0002f	8b 0c 85 00 00
	00 00		 mov	 ecx, DWORD PTR ?MapMinUserLevel@@3PAHA[eax*4]
$LN9@GetMapMove:

; 1332 : 		overLevel = MapMinUserLevel[mapnumber];
; 1333 : 	}
; 1334 : 	
; 1335 : 	if ( lpObj->Class == 4 || lpObj->Class == 3 )

  00036	8b 55 08	 mov	 edx, DWORD PTR _lpObj$[ebp]
  00039	0f b7 92 98 00
	00 00		 movzx	 edx, WORD PTR [edx+152]
  00040	8b c1		 mov	 eax, ecx
  00042	83 fa 04	 cmp	 edx, 4
  00045	74 05		 je	 SHORT $LN2@GetMapMove
  00047	83 fa 03	 cmp	 edx, 3
  0004a	75 18		 jne	 SHORT $LN7@GetMapMove
$LN2@GetMapMove:

; 1336 : 	{
; 1337 : 		if ( overLevel > 0 && max_over > 0 )

  0004c	85 c0		 test	 eax, eax
  0004e	7e 14		 jle	 SHORT $LN7@GetMapMove
  00050	85 c9		 test	 ecx, ecx
  00052	7e 10		 jle	 SHORT $LN7@GetMapMove

; 1338 : 		{
; 1339 : 			overLevel = (max_over/3)*2;

  00054	b8 56 55 55 55	 mov	 eax, 1431655766		; 55555556H
  00059	f7 e9		 imul	 ecx
  0005b	8b c2		 mov	 eax, edx
  0005d	c1 e8 1f	 shr	 eax, 31			; 0000001fH
  00060	03 c2		 add	 eax, edx
  00062	03 c0		 add	 eax, eax
$LN7@GetMapMove:

; 1340 : 		}
; 1341 : 	}
; 1342 : 
; 1343 : 	return overLevel;
; 1344 : }

  00064	5d		 pop	 ebp
  00065	c3		 ret	 0
?GetMapMoveLevel@@YAHPAUOBJECTSTRUCT@@HH@Z ENDP		; GetMapMoveLevel
_TEXT	ENDS
PUBLIC	__real@3fb999999999999a
PUBLIC	__real@3fd0000000000000
PUBLIC	__real@3fc3333333333333
PUBLIC	__real@3fd3333333333333
PUBLIC	__real@3fc999999999999a
PUBLIC	__real@3fd999999999999a
PUBLIC	?gObjSetBP@@YAXH@Z				; gObjSetBP
EXTRN	__ftol2_sse:PROC
;	COMDAT __real@3fb999999999999a
CONST	SEGMENT
__real@3fb999999999999a DQ 03fb999999999999ar	; 0.1
CONST	ENDS
;	COMDAT __real@3fd0000000000000
CONST	SEGMENT
__real@3fd0000000000000 DQ 03fd0000000000000r	; 0.25
CONST	ENDS
;	COMDAT __real@3fc3333333333333
CONST	SEGMENT
__real@3fc3333333333333 DQ 03fc3333333333333r	; 0.15
CONST	ENDS
;	COMDAT __real@3fd3333333333333
CONST	SEGMENT
__real@3fd3333333333333 DQ 03fd3333333333333r	; 0.3
CONST	ENDS
;	COMDAT __real@3fc999999999999a
CONST	SEGMENT
__real@3fc999999999999a DQ 03fc999999999999ar	; 0.2
CONST	ENDS
;	COMDAT __real@3fd999999999999a
CONST	SEGMENT
__real@3fd999999999999a DQ 03fd999999999999ar	; 0.4
; Function compile flags: /Ogtp
CONST	ENDS
;	COMDAT ?gObjSetBP@@YAXH@Z
_TEXT	SEGMENT
_Energy$ = -12						; size = 4
_Vitality$ = -8						; size = 4
_Strength$ = -4						; size = 4
tv342 = 8						; size = 4
_Dexterity$ = 8						; size = 4
_aIndex$ = 8						; size = 4
?gObjSetBP@@YAXH@Z PROC					; gObjSetBP, COMDAT

; 1567 : {

  00000	55		 push	 ebp
  00001	8b ec		 mov	 ebp, esp
  00003	83 ec 0c	 sub	 esp, 12			; 0000000cH
  00006	56		 push	 esi

; 1568 : 	int Strength	= gObj[aIndex].Strength + gObj[aIndex].AddStrength;

  00007	8b 75 08	 mov	 esi, DWORD PTR _aIndex$[ebp]
  0000a	69 f6 64 15 00
	00		 imul	 esi, 5476		; 00001564H
  00010	0f b7 8e b4 00
	00 00		 movzx	 ecx, WORD PTR ?gObj@@3PAUOBJECTSTRUCT@@A[esi+180]
  00017	0f bf 86 e0 00
	00 00		 movsx	 eax, WORD PTR ?gObj@@3PAUOBJECTSTRUCT@@A[esi+224]

; 1569 : 	int Dexterity	= gObj[aIndex].Dexterity + gObj[aIndex].AddDexterity;

  0001e	0f bf 96 e2 00
	00 00		 movsx	 edx, WORD PTR ?gObj@@3PAUOBJECTSTRUCT@@A[esi+226]
  00025	03 c1		 add	 eax, ecx

; 1570 : 	int Vitality	= gObj[aIndex].Vitality + gObj[aIndex].AddVitality;

  00027	0f bf 8e e4 00
	00 00		 movsx	 ecx, WORD PTR ?gObj@@3PAUOBJECTSTRUCT@@A[esi+228]
  0002e	89 45 fc	 mov	 DWORD PTR _Strength$[ebp], eax
  00031	0f b7 86 b6 00
	00 00		 movzx	 eax, WORD PTR ?gObj@@3PAUOBJECTSTRUCT@@A[esi+182]
  00038	03 d0		 add	 edx, eax

; 1571 : 	int Energy		= gObj[aIndex].Energy + gObj[aIndex].AddEnergy;

  0003a	0f bf 86 e6 00
	00 00		 movsx	 eax, WORD PTR ?gObj@@3PAUOBJECTSTRUCT@@A[esi+230]
  00041	89 55 08	 mov	 DWORD PTR _Dexterity$[ebp], edx
  00044	0f b7 96 b8 00
	00 00		 movzx	 edx, WORD PTR ?gObj@@3PAUOBJECTSTRUCT@@A[esi+184]
  0004b	03 ca		 add	 ecx, edx
  0004d	89 4d f8	 mov	 DWORD PTR _Vitality$[ebp], ecx
  00050	0f b7 8e ba 00
	00 00		 movzx	 ecx, WORD PTR ?gObj@@3PAUOBJECTSTRUCT@@A[esi+186]
  00057	03 c1		 add	 eax, ecx
  00059	89 45 f4	 mov	 DWORD PTR _Energy$[ebp], eax

; 1572 : 	int Leadership	= gObj[aIndex].Leadership + gObj[aIndex].AddLeadership;
; 1573 : 	// ---
; 1574 : 	switch(gObj[aIndex].Class)

  0005c	0f b7 86 98 00
	00 00		 movzx	 eax, WORD PTR ?gObj@@3PAUOBJECTSTRUCT@@A[esi+152]
  00063	83 f8 04	 cmp	 eax, 4
  00066	0f 87 36 01 00
	00		 ja	 $LN6@gObjSetBP
  0006c	ff 24 85 00 00
	00 00		 jmp	 DWORD PTR $LN13@gObjSetBP[eax*4]
$LN5@gObjSetBP:

; 1575 : 	{
; 1576 : 		case 0: gObj[aIndex].MaxBP = (Strength * 0.2) + (Dexterity * 0.4) + (Vitality * 0.3) + (Energy * 0.2); break;

  00073	db 45 08	 fild	 DWORD PTR _Dexterity$[ebp]
  00076	dc 0d 00 00 00
	00		 fmul	 QWORD PTR __real@3fd999999999999a
  0007c	db 45 fc	 fild	 DWORD PTR _Strength$[ebp]
  0007f	dd 05 00 00 00
	00		 fld	 QWORD PTR __real@3fc999999999999a
  00085	dc c9		 fmul	 ST(1), ST(0)
  00087	d9 ca		 fxch	 ST(2)
  00089	de c1		 faddp	 ST(1), ST(0)
  0008b	db 45 f8	 fild	 DWORD PTR _Vitality$[ebp]
  0008e	dc 0d 00 00 00
	00		 fmul	 QWORD PTR __real@3fd3333333333333
  00094	de c1		 faddp	 ST(1), ST(0)
  00096	db 45 f4	 fild	 DWORD PTR _Energy$[ebp]

; 1580 : 		case 4: gObj[aIndex].MaxBP = (Strength * 0.3) + (Dexterity * 0.2) + (Vitality * 0.1) + (Energy * 0.15) + (Leadership * 0.3); break;

  00099	de ca		 fmulp	 ST(2), ST(0)
  0009b	de c1		 faddp	 ST(1), ST(0)
  0009d	e8 00 00 00 00	 call	 __ftol2_sse
  000a2	89 86 ec 00 00
	00		 mov	 DWORD PTR ?gObj@@3PAUOBJECTSTRUCT@@A[esi+236], eax
  000a8	5e		 pop	 esi

; 1581 : 	}
; 1582 : }

  000a9	8b e5		 mov	 esp, ebp
  000ab	5d		 pop	 ebp
  000ac	c3		 ret	 0
$LN4@gObjSetBP:

; 1577 : 		case 1: gObj[aIndex].MaxBP = (Strength * 0.15) + (Dexterity * 0.2) + (Vitality * 0.3) + (Energy * 1.0); break;

  000ad	db 45 08	 fild	 DWORD PTR _Dexterity$[ebp]
  000b0	dc 0d 00 00 00
	00		 fmul	 QWORD PTR __real@3fc999999999999a
  000b6	db 45 fc	 fild	 DWORD PTR _Strength$[ebp]
  000b9	dc 0d 00 00 00
	00		 fmul	 QWORD PTR __real@3fc3333333333333
  000bf	de c1		 faddp	 ST(1), ST(0)
  000c1	db 45 f8	 fild	 DWORD PTR _Vitality$[ebp]
  000c4	dc 0d 00 00 00
	00		 fmul	 QWORD PTR __real@3fd3333333333333
  000ca	de c1		 faddp	 ST(1), ST(0)
  000cc	da 45 f4	 fiadd	 DWORD PTR _Energy$[ebp]

; 1580 : 		case 4: gObj[aIndex].MaxBP = (Strength * 0.3) + (Dexterity * 0.2) + (Vitality * 0.1) + (Energy * 0.15) + (Leadership * 0.3); break;

  000cf	e8 00 00 00 00	 call	 __ftol2_sse
  000d4	89 86 ec 00 00
	00		 mov	 DWORD PTR ?gObj@@3PAUOBJECTSTRUCT@@A[esi+236], eax
  000da	5e		 pop	 esi

; 1581 : 	}
; 1582 : }

  000db	8b e5		 mov	 esp, ebp
  000dd	5d		 pop	 ebp
  000de	c3		 ret	 0
$LN3@gObjSetBP:

; 1578 : 		case 2: gObj[aIndex].MaxBP = (Strength * 0.3) + (Dexterity * 0.2) + (Vitality * 0.3) + (Energy * 0.2); break;

  000df	db 45 08	 fild	 DWORD PTR _Dexterity$[ebp]
  000e2	dd 05 00 00 00
	00		 fld	 QWORD PTR __real@3fc999999999999a
  000e8	dc c9		 fmul	 ST(1), ST(0)
  000ea	db 45 fc	 fild	 DWORD PTR _Strength$[ebp]
  000ed	dd 05 00 00 00
	00		 fld	 QWORD PTR __real@3fd3333333333333
  000f3	dc c9		 fmul	 ST(1), ST(0)
  000f5	d9 cb		 fxch	 ST(3)
  000f7	de c1		 faddp	 ST(1), ST(0)
  000f9	db 45 f8	 fild	 DWORD PTR _Vitality$[ebp]
  000fc	de cb		 fmulp	 ST(3), ST(0)
  000fe	de c2		 faddp	 ST(2), ST(0)
  00100	da 4d f4	 fimul	 DWORD PTR _Energy$[ebp]

; 1580 : 		case 4: gObj[aIndex].MaxBP = (Strength * 0.3) + (Dexterity * 0.2) + (Vitality * 0.1) + (Energy * 0.15) + (Leadership * 0.3); break;

  00103	de c1		 faddp	 ST(1), ST(0)
  00105	e8 00 00 00 00	 call	 __ftol2_sse
  0010a	89 86 ec 00 00
	00		 mov	 DWORD PTR ?gObj@@3PAUOBJECTSTRUCT@@A[esi+236], eax
  00110	5e		 pop	 esi

; 1581 : 	}
; 1582 : }

  00111	8b e5		 mov	 esp, ebp
  00113	5d		 pop	 ebp
  00114	c3		 ret	 0
$LN2@gObjSetBP:

; 1579 : 		case 3: gObj[aIndex].MaxBP = (Strength * 0.2) + (Dexterity * 0.25) + (Vitality * 0.3) + (Energy * 0.15); break;

  00115	db 45 fc	 fild	 DWORD PTR _Strength$[ebp]
  00118	dc 0d 00 00 00
	00		 fmul	 QWORD PTR __real@3fc999999999999a
  0011e	db 45 08	 fild	 DWORD PTR _Dexterity$[ebp]
  00121	dc 0d 00 00 00
	00		 fmul	 QWORD PTR __real@3fd0000000000000
  00127	de c1		 faddp	 ST(1), ST(0)
  00129	db 45 f8	 fild	 DWORD PTR _Vitality$[ebp]
  0012c	dc 0d 00 00 00
	00		 fmul	 QWORD PTR __real@3fd3333333333333
  00132	de c1		 faddp	 ST(1), ST(0)
  00134	db 45 f4	 fild	 DWORD PTR _Energy$[ebp]
  00137	dc 0d 00 00 00
	00		 fmul	 QWORD PTR __real@3fc3333333333333

; 1580 : 		case 4: gObj[aIndex].MaxBP = (Strength * 0.3) + (Dexterity * 0.2) + (Vitality * 0.1) + (Energy * 0.15) + (Leadership * 0.3); break;

  0013d	de c1		 faddp	 ST(1), ST(0)
  0013f	e8 00 00 00 00	 call	 __ftol2_sse
  00144	89 86 ec 00 00
	00		 mov	 DWORD PTR ?gObj@@3PAUOBJECTSTRUCT@@A[esi+236], eax
  0014a	5e		 pop	 esi

; 1581 : 	}
; 1582 : }

  0014b	8b e5		 mov	 esp, ebp
  0014d	5d		 pop	 ebp
  0014e	c3		 ret	 0
$LN1@gObjSetBP:

; 1580 : 		case 4: gObj[aIndex].MaxBP = (Strength * 0.3) + (Dexterity * 0.2) + (Vitality * 0.1) + (Energy * 0.15) + (Leadership * 0.3); break;

  0014f	db 45 08	 fild	 DWORD PTR _Dexterity$[ebp]
  00152	0f b7 86 d8 00
	00 00		 movzx	 eax, WORD PTR ?gObj@@3PAUOBJECTSTRUCT@@A[esi+216]
  00159	0f b7 96 da 00
	00 00		 movzx	 edx, WORD PTR ?gObj@@3PAUOBJECTSTRUCT@@A[esi+218]
  00160	dc 0d 00 00 00
	00		 fmul	 QWORD PTR __real@3fc999999999999a
  00166	db 45 fc	 fild	 DWORD PTR _Strength$[ebp]
  00169	03 d0		 add	 edx, eax
  0016b	dd 05 00 00 00
	00		 fld	 QWORD PTR __real@3fd3333333333333
  00171	89 55 08	 mov	 DWORD PTR tv342[ebp], edx
  00174	dc c9		 fmul	 ST(1), ST(0)
  00176	d9 ca		 fxch	 ST(2)
  00178	de c1		 faddp	 ST(1), ST(0)
  0017a	db 45 f8	 fild	 DWORD PTR _Vitality$[ebp]
  0017d	dc 0d 00 00 00
	00		 fmul	 QWORD PTR __real@3fb999999999999a
  00183	de c1		 faddp	 ST(1), ST(0)
  00185	db 45 f4	 fild	 DWORD PTR _Energy$[ebp]
  00188	dc 0d 00 00 00
	00		 fmul	 QWORD PTR __real@3fc3333333333333
  0018e	de c1		 faddp	 ST(1), ST(0)
  00190	db 45 08	 fild	 DWORD PTR tv342[ebp]
  00193	de ca		 fmulp	 ST(2), ST(0)
  00195	de c1		 faddp	 ST(1), ST(0)
  00197	e8 00 00 00 00	 call	 __ftol2_sse
  0019c	89 86 ec 00 00
	00		 mov	 DWORD PTR ?gObj@@3PAUOBJECTSTRUCT@@A[esi+236], eax
$LN6@gObjSetBP:
  001a2	5e		 pop	 esi

; 1581 : 	}
; 1582 : }

  001a3	8b e5		 mov	 esp, ebp
  001a5	5d		 pop	 ebp
  001a6	c3		 ret	 0
  001a7	90		 npad	 1
$LN13@gObjSetBP:
  001a8	00 00 00 00	 DD	 $LN5@gObjSetBP
  001ac	00 00 00 00	 DD	 $LN4@gObjSetBP
  001b0	00 00 00 00	 DD	 $LN3@gObjSetBP
  001b4	00 00 00 00	 DD	 $LN2@gObjSetBP
  001b8	00 00 00 00	 DD	 $LN1@gObjSetBP
?gObjSetBP@@YAXH@Z ENDP					; gObjSetBP
_TEXT	ENDS
PUBLIC	?gObjCanItemTouch@@YAHPAUOBJECTSTRUCT@@H@Z	; gObjCanItemTouch
; Function compile flags: /Ogtp
;	COMDAT ?gObjCanItemTouch@@YAHPAUOBJECTSTRUCT@@H@Z
_TEXT	SEGMENT
_lpObj$ = 8						; size = 4
_type$ = 12						; size = 4
?gObjCanItemTouch@@YAHPAUOBJECTSTRUCT@@H@Z PROC		; gObjCanItemTouch, COMDAT

; 2185 : {

  00000	55		 push	 ebp
  00001	8b ec		 mov	 ebp, esp

; 2186 : 	if ( (lpObj->Penalty &4) == 4 )

  00003	8b 45 08	 mov	 eax, DWORD PTR _lpObj$[ebp]
  00006	8b 80 ac 01 00
	00		 mov	 eax, DWORD PTR [eax+428]
  0000c	a8 04		 test	 al, 4
  0000e	74 04		 je	 SHORT $LN4@gObjCanIte
$LN7@gObjCanIte:

; 2187 : 	{
; 2188 : 		return false;

  00010	33 c0		 xor	 eax, eax

; 2200 : }

  00012	5d		 pop	 ebp
  00013	c3		 ret	 0
$LN4@gObjCanIte:

; 2189 : 	}
; 2190 : 
; 2191 : 	if ( (lpObj->Penalty &8) == 8 )

  00014	a8 08		 test	 al, 8
  00016	74 0d		 je	 SHORT $LN3@gObjCanIte

; 2192 : 	{
; 2193 : 		if ( type == 6 || type == 8 )

  00018	8b 45 0c	 mov	 eax, DWORD PTR _type$[ebp]
  0001b	83 f8 06	 cmp	 eax, 6
  0001e	74 05		 je	 SHORT $LN3@gObjCanIte
  00020	83 f8 08	 cmp	 eax, 8

; 2194 : 		{
; 2195 : 			return true;
; 2196 : 		}
; 2197 : 		return false;

  00023	75 eb		 jne	 SHORT $LN7@gObjCanIte
$LN3@gObjCanIte:

; 2198 : 	}
; 2199 : 	return true;

  00025	b8 01 00 00 00	 mov	 eax, 1

; 2200 : }

  0002a	5d		 pop	 ebp
  0002b	c3		 ret	 0
?gObjCanItemTouch@@YAHPAUOBJECTSTRUCT@@H@Z ENDP		; gObjCanItemTouch
_TEXT	ENDS
PUBLIC	?gObjMagicTextSave@@YAXPAUOBJECTSTRUCT@@@Z	; gObjMagicTextSave
EXTRN	?Get@CMsg@@QAEPADH@Z:PROC			; CMsg::Get
EXTRN	?lMsg@@3VCMsg@@A:BYTE				; lMsg
EXTRN	?IsMagic@CMagicInf@@QAEHXZ:PROC			; CMagicInf::IsMagic
; Function compile flags: /Ogtp
;	COMDAT ?gObjMagicTextSave@@YAXPAUOBJECTSTRUCT@@@Z
_TEXT	SEGMENT
_lpObj$ = 8						; size = 4
?gObjMagicTextSave@@YAXPAUOBJECTSTRUCT@@@Z PROC		; gObjMagicTextSave, COMDAT

; 2203 : {

  00000	55		 push	 ebp
  00001	8b ec		 mov	 ebp, esp
  00003	53		 push	 ebx
  00004	56		 push	 esi
  00005	57		 push	 edi

; 2204 : 	int total=0;
; 2205 : 
; 2206 : 	for ( int n=0;n<MAGIC_SIZE;n++)

  00006	8b 7d 08	 mov	 edi, DWORD PTR _lpObj$[ebp]
  00009	33 db		 xor	 ebx, ebx
  0000b	33 f6		 xor	 esi, esi
  0000d	8d 49 00	 npad	 3
$LL4@gObjMagicT:

; 2207 : 	{
; 2208 : 		if ( lpObj->Magic[n].IsMagic() == TRUE )

  00010	8b 8f 38 03 00
	00		 mov	 ecx, DWORD PTR [edi+824]
  00016	03 ce		 add	 ecx, esi
  00018	e8 00 00 00 00	 call	 ?IsMagic@CMagicInf@@QAEHXZ ; CMagicInf::IsMagic
  0001d	83 f8 01	 cmp	 eax, 1
  00020	75 2f		 jne	 SHORT $LN3@gObjMagicT

; 2209 : 		{
; 2210 : 			LogAdd(LOG_BLACK, lMsg.Get(MSGGET(1, 247)), lpObj->AccountID, lpObj->Name, n, lpObj->Magic[n].m_Skill);

  00022	8b 87 38 03 00
	00		 mov	 eax, DWORD PTR [edi+824]
  00028	0f b6 4c 30 05	 movzx	 ecx, BYTE PTR [eax+esi+5]
  0002d	51		 push	 ecx
  0002e	53		 push	 ebx
  0002f	8d 57 6f	 lea	 edx, DWORD PTR [edi+111]
  00032	52		 push	 edx
  00033	8d 47 64	 lea	 eax, DWORD PTR [edi+100]
  00036	50		 push	 eax
  00037	68 f7 01 00 00	 push	 503			; 000001f7H
  0003c	b9 00 00 00 00	 mov	 ecx, OFFSET ?lMsg@@3VCMsg@@A ; lMsg
  00041	e8 00 00 00 00	 call	 ?Get@CMsg@@QAEPADH@Z	; CMsg::Get
  00046	50		 push	 eax
  00047	6a 00		 push	 0
  00049	e8 00 00 00 00	 call	 ?LogAdd@@YAXW4eLogColor@@PADZZ ; LogAdd
  0004e	83 c4 18	 add	 esp, 24			; 00000018H
$LN3@gObjMagicT:

; 2204 : 	int total=0;
; 2205 : 
; 2206 : 	for ( int n=0;n<MAGIC_SIZE;n++)

  00051	83 c6 10	 add	 esi, 16			; 00000010H
  00054	43		 inc	 ebx
  00055	81 fe c0 03 00
	00		 cmp	 esi, 960		; 000003c0H
  0005b	7c b3		 jl	 SHORT $LL4@gObjMagicT
  0005d	5f		 pop	 edi
  0005e	5e		 pop	 esi
  0005f	5b		 pop	 ebx

; 2211 : 			total++;
; 2212 : 		}
; 2213 : 	}
; 2214 : }

  00060	5d		 pop	 ebp
  00061	c3		 ret	 0
?gObjMagicTextSave@@YAXPAUOBJECTSTRUCT@@@Z ENDP		; gObjMagicTextSave
_TEXT	ENDS
PUBLIC	?ItemIsBufExOption@@YAXPAEPAVCItem@@@Z		; ItemIsBufExOption
EXTRN	?IsExtMonsterMoney@CItem@@QAEHXZ:PROC		; CItem::IsExtMonsterMoney
EXTRN	?IsExtDefenseSuccessfull@CItem@@QAEHXZ:PROC	; CItem::IsExtDefenseSuccessfull
EXTRN	?IsExtDamageReflect@CItem@@QAEHXZ:PROC		; CItem::IsExtDamageReflect
EXTRN	?IsExtDamageMinus@CItem@@QAEHXZ:PROC		; CItem::IsExtDamageMinus
EXTRN	?IsExtManaAdd@CItem@@QAEHXZ:PROC		; CItem::IsExtManaAdd
EXTRN	?IsExtLifeAdd@CItem@@QAEHXZ:PROC		; CItem::IsExtLifeAdd
; Function compile flags: /Ogtp
;	COMDAT ?ItemIsBufExOption@@YAXPAEPAVCItem@@@Z
_TEXT	SEGMENT
_buf$ = 8						; size = 4
_lpItem$ = 12						; size = 4
?ItemIsBufExOption@@YAXPAEPAVCItem@@@Z PROC		; ItemIsBufExOption, COMDAT

; 2217 : {

  00000	55		 push	 ebp
  00001	8b ec		 mov	 ebp, esp
  00003	53		 push	 ebx
  00004	56		 push	 esi

; 2218 : 	for ( int i=0;i<MAX_EXOPTION_SIZE;i++ )
; 2219 : 	{
; 2220 : 		buf[i] = 0;

  00005	8b 75 08	 mov	 esi, DWORD PTR _buf$[ebp]
  00008	57		 push	 edi

; 2221 : 	}
; 2222 : 
; 2223 : 	if ( lpItem->IsExtLifeAdd() != FALSE )

  00009	8b 7d 0c	 mov	 edi, DWORD PTR _lpItem$[ebp]
  0000c	33 c0		 xor	 eax, eax
  0000e	89 06		 mov	 DWORD PTR [esi], eax
  00010	8b cf		 mov	 ecx, edi
  00012	89 46 04	 mov	 DWORD PTR [esi+4], eax
  00015	e8 00 00 00 00	 call	 ?IsExtLifeAdd@CItem@@QAEHXZ ; CItem::IsExtLifeAdd
  0001a	b3 01		 mov	 bl, 1
  0001c	85 c0		 test	 eax, eax
  0001e	74 02		 je	 SHORT $LN6@ItemIsBufE

; 2224 : 	{
; 2225 : 		buf[0] = TRUE;

  00020	88 1e		 mov	 BYTE PTR [esi], bl
$LN6@ItemIsBufE:

; 2226 : 	}
; 2227 : 
; 2228 : 	if ( lpItem->IsExtManaAdd() != FALSE )

  00022	8b cf		 mov	 ecx, edi
  00024	e8 00 00 00 00	 call	 ?IsExtManaAdd@CItem@@QAEHXZ ; CItem::IsExtManaAdd
  00029	85 c0		 test	 eax, eax
  0002b	74 03		 je	 SHORT $LN5@ItemIsBufE

; 2229 : 	{
; 2230 : 		buf[1] = TRUE;

  0002d	88 5e 01	 mov	 BYTE PTR [esi+1], bl
$LN5@ItemIsBufE:

; 2231 : 	}
; 2232 : 
; 2233 : 	if ( lpItem->IsExtDamageMinus() != FALSE )

  00030	8b cf		 mov	 ecx, edi
  00032	e8 00 00 00 00	 call	 ?IsExtDamageMinus@CItem@@QAEHXZ ; CItem::IsExtDamageMinus
  00037	85 c0		 test	 eax, eax
  00039	74 03		 je	 SHORT $LN4@ItemIsBufE

; 2234 : 	{
; 2235 : 		buf[2] = TRUE;

  0003b	88 5e 02	 mov	 BYTE PTR [esi+2], bl
$LN4@ItemIsBufE:

; 2236 : 	}
; 2237 : 
; 2238 : 	if ( lpItem->IsExtDamageReflect() != FALSE )

  0003e	8b cf		 mov	 ecx, edi
  00040	e8 00 00 00 00	 call	 ?IsExtDamageReflect@CItem@@QAEHXZ ; CItem::IsExtDamageReflect
  00045	85 c0		 test	 eax, eax
  00047	74 03		 je	 SHORT $LN3@ItemIsBufE

; 2239 : 	{
; 2240 : 		buf[3] = TRUE;

  00049	88 5e 03	 mov	 BYTE PTR [esi+3], bl
$LN3@ItemIsBufE:

; 2241 : 	}
; 2242 : 
; 2243 : 	if ( lpItem->IsExtDefenseSuccessfull() != FALSE )

  0004c	8b cf		 mov	 ecx, edi
  0004e	e8 00 00 00 00	 call	 ?IsExtDefenseSuccessfull@CItem@@QAEHXZ ; CItem::IsExtDefenseSuccessfull
  00053	85 c0		 test	 eax, eax
  00055	74 03		 je	 SHORT $LN2@ItemIsBufE

; 2244 : 	{
; 2245 : 		buf[4] = TRUE;

  00057	88 5e 04	 mov	 BYTE PTR [esi+4], bl
$LN2@ItemIsBufE:

; 2246 : 	}
; 2247 : 
; 2248 : 	if ( lpItem->IsExtMonsterMoney() != FALSE )

  0005a	8b cf		 mov	 ecx, edi
  0005c	e8 00 00 00 00	 call	 ?IsExtMonsterMoney@CItem@@QAEHXZ ; CItem::IsExtMonsterMoney
  00061	85 c0		 test	 eax, eax
  00063	74 03		 je	 SHORT $LN1@ItemIsBufE

; 2249 : 	{
; 2250 : 		buf[5] = TRUE;

  00065	88 5e 05	 mov	 BYTE PTR [esi+5], bl
$LN1@ItemIsBufE:
  00068	5f		 pop	 edi
  00069	5e		 pop	 esi
  0006a	5b		 pop	 ebx

; 2251 : 	}
; 2252 : 
; 2253 : }

  0006b	5d		 pop	 ebp
  0006c	c3		 ret	 0
?ItemIsBufExOption@@YAXPAEPAVCItem@@@Z ENDP		; ItemIsBufExOption
_TEXT	ENDS
PUBLIC	??_C@_0HG@OJODFIFG@?$FL?$CFs?$FN?$FL?$CFs?$FN?5CharInfoSave?5?3?5Class?$DN?$CFd@ ; `string'
PUBLIC	?gObjStatTextSave@@YAXPAUOBJECTSTRUCT@@@Z	; gObjStatTextSave
;	COMDAT ??_C@_0HG@OJODFIFG@?$FL?$CFs?$FN?$FL?$CFs?$FN?5CharInfoSave?5?3?5Class?$DN?$CFd@
CONST	SEGMENT
??_C@_0HG@OJODFIFG@?$FL?$CFs?$FN?$FL?$CFs?$FN?5CharInfoSave?5?3?5Class?$DN?$CFd@ DB '['
	DB	'%s][%s] CharInfoSave : Class=%d Level=%d LVPoint=%d Exp=%u St'
	DB	'r=%d Dex=%d Vit=%d Energy=%d Leadership:%d Map=%d Pk=%d', 00H ; `string'
; Function compile flags: /Ogtp
CONST	ENDS
;	COMDAT ?gObjStatTextSave@@YAXPAUOBJECTSTRUCT@@@Z
_TEXT	SEGMENT
_lpObj$ = 8						; size = 4
?gObjStatTextSave@@YAXPAUOBJECTSTRUCT@@@Z PROC		; gObjStatTextSave, COMDAT

; 2256 : {

  00000	55		 push	 ebp
  00001	8b ec		 mov	 ebp, esp

; 2257 : 	LogAdd(LOG_BLACK, "[%s][%s] CharInfoSave : Class=%d Level=%d LVPoint=%d Exp=%u Str=%d Dex=%d Vit=%d Energy=%d Leadership:%d Map=%d Pk=%d",
; 2258 : 		lpObj->AccountID, lpObj->Name, lpObj->DbClass,lpObj->Level, lpObj->LevelUpPoint, lpObj->Experience, 
; 2259 : 		lpObj->Strength, lpObj->Dexterity, lpObj->Vitality, lpObj->Energy, lpObj->Leadership, lpObj->MapNumber,
; 2260 : 		lpObj->m_PK_Level);

  00003	8b 45 08	 mov	 eax, DWORD PTR _lpObj$[ebp]
  00006	0f be 88 fd 00
	00 00		 movsx	 ecx, BYTE PTR [eax+253]
  0000d	0f b6 90 09 01
	00 00		 movzx	 edx, BYTE PTR [eax+265]
  00014	51		 push	 ecx
  00015	0f b7 88 d8 00
	00 00		 movzx	 ecx, WORD PTR [eax+216]
  0001c	52		 push	 edx
  0001d	0f b7 90 ba 00
	00 00		 movzx	 edx, WORD PTR [eax+186]
  00024	51		 push	 ecx
  00025	0f b7 88 b8 00
	00 00		 movzx	 ecx, WORD PTR [eax+184]
  0002c	52		 push	 edx
  0002d	0f b7 90 b6 00
	00 00		 movzx	 edx, WORD PTR [eax+182]
  00034	51		 push	 ecx
  00035	0f b7 88 b4 00
	00 00		 movzx	 ecx, WORD PTR [eax+180]
  0003c	52		 push	 edx
  0003d	8b 90 a8 00 00
	00		 mov	 edx, DWORD PTR [eax+168]
  00043	51		 push	 ecx
  00044	8b 88 a0 00 00
	00		 mov	 ecx, DWORD PTR [eax+160]
  0004a	52		 push	 edx
  0004b	0f bf 90 9c 00
	00 00		 movsx	 edx, WORD PTR [eax+156]
  00052	51		 push	 ecx
  00053	0f b6 88 9a 00
	00 00		 movzx	 ecx, BYTE PTR [eax+154]
  0005a	52		 push	 edx
  0005b	51		 push	 ecx
  0005c	8d 50 6f	 lea	 edx, DWORD PTR [eax+111]
  0005f	52		 push	 edx
  00060	83 c0 64	 add	 eax, 100		; 00000064H
  00063	50		 push	 eax
  00064	68 00 00 00 00	 push	 OFFSET ??_C@_0HG@OJODFIFG@?$FL?$CFs?$FN?$FL?$CFs?$FN?5CharInfoSave?5?3?5Class?$DN?$CFd@
  00069	6a 00		 push	 0
  0006b	e8 00 00 00 00	 call	 ?LogAdd@@YAXW4eLogColor@@PADZZ ; LogAdd
  00070	83 c4 3c	 add	 esp, 60			; 0000003cH

; 2261 : }

  00073	5d		 pop	 ebp
  00074	c3		 ret	 0
?gObjStatTextSave@@YAXPAUOBJECTSTRUCT@@@Z ENDP		; gObjStatTextSave
_TEXT	ENDS
PUBLIC	__$ArrayPad$
PUBLIC	?gObjItemTextSave@@YAXPAUOBJECTSTRUCT@@@Z	; gObjItemTextSave
EXTRN	?GetName@CItem@@QAEPADXZ:PROC			; CItem::GetName
EXTRN	?IsItem@CItem@@QAEHXZ:PROC			; CItem::IsItem
; Function compile flags: /Ogtp
;	COMDAT ?gObjItemTextSave@@YAXPAUOBJECTSTRUCT@@@Z
_TEXT	SEGMENT
tv361 = -20						; size = 4
tv359 = -20						; size = 4
tv364 = -14						; size = 2
_NewOption$ = -12					; size = 8
__$ArrayPad$ = -4					; size = 4
_lpObj$ = 8						; size = 4
?gObjItemTextSave@@YAXPAUOBJECTSTRUCT@@@Z PROC		; gObjItemTextSave, COMDAT

; 2264 : {

  00000	55		 push	 ebp
  00001	8b ec		 mov	 ebp, esp
  00003	83 ec 14	 sub	 esp, 20			; 00000014H
  00006	a1 00 00 00 00	 mov	 eax, DWORD PTR ___security_cookie
  0000b	33 c5		 xor	 eax, ebp
  0000d	89 45 fc	 mov	 DWORD PTR __$ArrayPad$[ebp], eax
  00010	53		 push	 ebx
  00011	56		 push	 esi
  00012	8b 75 08	 mov	 esi, DWORD PTR _lpObj$[ebp]
  00015	57		 push	 edi

; 2265 : 	BYTE NewOption[MAX_EXOPTION_SIZE];
; 2266 : 	int n;
; 2267 : 
; 2268 : 	for (int n=0;n<INVENTORY_SIZE;n++)

  00016	33 db		 xor	 ebx, ebx

; 2269 : 	{
; 2270 : 		if ( lpObj->pInventory[n].IsItem() == TRUE )

  00018	33 ff		 xor	 edi, edi
  0001a	8d 9b 00 00 00
	00		 npad	 6
$LL5@gObjItemTe:
  00020	8b 8e 8c 0c 00
	00		 mov	 ecx, DWORD PTR [esi+3212]
  00026	03 cf		 add	 ecx, edi
  00028	e8 00 00 00 00	 call	 ?IsItem@CItem@@QAEHXZ	; CItem::IsItem
  0002d	83 f8 01	 cmp	 eax, 1
  00030	0f 85 bd 00 00
	00		 jne	 $LN4@gObjItemTe

; 2271 : 		{
; 2272 : 			if ( lpObj->pInventory[n].m_serial != 0 )

  00036	8b 86 8c 0c 00
	00		 mov	 eax, DWORD PTR [esi+3212]
  0003c	03 c7		 add	 eax, edi
  0003e	80 78 04 00	 cmp	 BYTE PTR [eax+4], 0
  00042	0f 84 ab 00 00
	00		 je	 $LN4@gObjItemTe

; 2273 : 			{
; 2274 : 				ItemIsBufExOption(NewOption, &lpObj->pInventory[n]);

  00048	50		 push	 eax
  00049	8d 4d f4	 lea	 ecx, DWORD PTR _NewOption$[ebp]
  0004c	51		 push	 ecx
  0004d	e8 00 00 00 00	 call	 ?ItemIsBufExOption@@YAXPAEPAVCItem@@@Z ; ItemIsBufExOption

; 2275 : 				LogAdd(LOG_BLACK, lMsg.Get(MSGGET(1, 248)), lpObj->AccountID, lpObj->Name, n, lpObj->pInventory[n].GetName(),
; 2276 : 					lpObj->pInventory[n].m_Level, lpObj->pInventory[n].m_Option1,
; 2277 : 					lpObj->pInventory[n].m_Option2, lpObj->pInventory[n].m_Option3,
; 2278 : 					lpObj->pInventory[n].m_Number, (BYTE)lpObj->pInventory[n].m_Durability,
; 2279 : 					NewOption[0], NewOption[1], NewOption[2], NewOption[3], NewOption[4], NewOption[5], NewOption[6],
; 2280 : 					lpObj->pInventory[n].m_SetOption, 0, 0, 0);

  00052	d9 7d f2	 fnstcw	 WORD PTR tv364[ebp]
  00055	8b 96 8c 0c 00
	00		 mov	 edx, DWORD PTR [esi+3212]
  0005b	d9 44 17 24	 fld	 DWORD PTR [edi+edx+36]
  0005f	0f b6 84 17 92
	00 00 00	 movzx	 eax, BYTE PTR [edi+edx+146]
  00067	83 c4 08	 add	 esp, 8
  0006a	6a 00		 push	 0
  0006c	8d 0c 17	 lea	 ecx, DWORD PTR [edi+edx]
  0006f	0f b6 55 fa	 movzx	 edx, BYTE PTR _NewOption$[ebp+6]
  00073	6a 00		 push	 0
  00075	6a 00		 push	 0
  00077	50		 push	 eax
  00078	0f b6 45 f9	 movzx	 eax, BYTE PTR _NewOption$[ebp+5]
  0007c	52		 push	 edx
  0007d	0f b6 55 f8	 movzx	 edx, BYTE PTR _NewOption$[ebp+4]
  00081	50		 push	 eax
  00082	0f b6 45 f7	 movzx	 eax, BYTE PTR _NewOption$[ebp+3]
  00086	52		 push	 edx
  00087	0f b6 55 f6	 movzx	 edx, BYTE PTR _NewOption$[ebp+2]
  0008b	50		 push	 eax
  0008c	0f b6 45 f5	 movzx	 eax, BYTE PTR _NewOption$[ebp+1]
  00090	52		 push	 edx
  00091	0f b6 55 f4	 movzx	 edx, BYTE PTR _NewOption$[ebp]
  00095	50		 push	 eax
  00096	0f b7 45 f2	 movzx	 eax, WORD PTR tv364[ebp]
  0009a	0d 00 0c 00 00	 or	 eax, 3072		; 00000c00H
  0009f	89 45 ec	 mov	 DWORD PTR tv361[ebp], eax
  000a2	52		 push	 edx
  000a3	d9 6d ec	 fldcw	 WORD PTR tv361[ebp]
  000a6	db 5d ec	 fistp	 DWORD PTR tv359[ebp]
  000a9	8a 45 ec	 mov	 al, BYTE PTR tv359[ebp]
  000ac	0f b6 d0	 movzx	 edx, al
  000af	8b 01		 mov	 eax, DWORD PTR [ecx]
  000b1	d9 6d f2	 fldcw	 WORD PTR tv364[ebp]
  000b4	52		 push	 edx
  000b5	0f b6 51 7a	 movzx	 edx, BYTE PTR [ecx+122]
  000b9	50		 push	 eax
  000ba	0f b6 41 79	 movzx	 eax, BYTE PTR [ecx+121]
  000be	52		 push	 edx
  000bf	0f b6 51 78	 movzx	 edx, BYTE PTR [ecx+120]
  000c3	50		 push	 eax
  000c4	0f bf 41 08	 movsx	 eax, WORD PTR [ecx+8]
  000c8	52		 push	 edx
  000c9	50		 push	 eax
  000ca	e8 00 00 00 00	 call	 ?GetName@CItem@@QAEPADXZ ; CItem::GetName
  000cf	50		 push	 eax
  000d0	53		 push	 ebx
  000d1	8d 4e 6f	 lea	 ecx, DWORD PTR [esi+111]
  000d4	51		 push	 ecx
  000d5	8d 56 64	 lea	 edx, DWORD PTR [esi+100]
  000d8	52		 push	 edx
  000d9	68 f8 01 00 00	 push	 504			; 000001f8H
  000de	b9 00 00 00 00	 mov	 ecx, OFFSET ?lMsg@@3VCMsg@@A ; lMsg
  000e3	e8 00 00 00 00	 call	 ?Get@CMsg@@QAEPADH@Z	; CMsg::Get
  000e8	50		 push	 eax
  000e9	6a 00		 push	 0
  000eb	e8 00 00 00 00	 call	 ?LogAdd@@YAXW4eLogColor@@PADZZ ; LogAdd
  000f0	83 c4 5c	 add	 esp, 92			; 0000005cH
$LN4@gObjItemTe:

; 2265 : 	BYTE NewOption[MAX_EXOPTION_SIZE];
; 2266 : 	int n;
; 2267 : 
; 2268 : 	for (int n=0;n<INVENTORY_SIZE;n++)

  000f3	81 c7 a8 00 00
	00		 add	 edi, 168		; 000000a8H
  000f9	43		 inc	 ebx
  000fa	81 ff e0 46 00
	00		 cmp	 edi, 18144		; 000046e0H
  00100	0f 8c 1a ff ff
	ff		 jl	 $LL5@gObjItemTe

; 2281 : 			}
; 2282 : 		}
; 2283 : 	}
; 2284 : 
; 2285 : 	LogAdd(LOG_BLACK, lMsg.Get(MSGGET(1, 249)), lpObj->AccountID, lpObj->Name, lpObj->Money);

  00106	8b 86 b0 00 00
	00		 mov	 eax, DWORD PTR [esi+176]
  0010c	50		 push	 eax
  0010d	8d 4e 6f	 lea	 ecx, DWORD PTR [esi+111]
  00110	51		 push	 ecx
  00111	83 c6 64	 add	 esi, 100		; 00000064H
  00114	56		 push	 esi
  00115	68 f9 01 00 00	 push	 505			; 000001f9H
  0011a	b9 00 00 00 00	 mov	 ecx, OFFSET ?lMsg@@3VCMsg@@A ; lMsg
  0011f	e8 00 00 00 00	 call	 ?Get@CMsg@@QAEPADH@Z	; CMsg::Get
  00124	50		 push	 eax
  00125	6a 00		 push	 0
  00127	e8 00 00 00 00	 call	 ?LogAdd@@YAXW4eLogColor@@PADZZ ; LogAdd

; 2286 : }

  0012c	8b 4d fc	 mov	 ecx, DWORD PTR __$ArrayPad$[ebp]
  0012f	83 c4 14	 add	 esp, 20			; 00000014H
  00132	5f		 pop	 edi
  00133	5e		 pop	 esi
  00134	33 cd		 xor	 ecx, ebp
  00136	5b		 pop	 ebx
  00137	e8 00 00 00 00	 call	 @__security_check_cookie@4
  0013c	8b e5		 mov	 esp, ebp
  0013e	5d		 pop	 ebp
  0013f	c3		 ret	 0
?gObjItemTextSave@@YAXPAUOBJECTSTRUCT@@@Z ENDP		; gObjItemTextSave
_TEXT	ENDS
PUBLIC	__$ArrayPad$
PUBLIC	?gObjWarehouseTextSave@@YAXPAUOBJECTSTRUCT@@@Z	; gObjWarehouseTextSave
; Function compile flags: /Ogtp
;	COMDAT ?gObjWarehouseTextSave@@YAXPAUOBJECTSTRUCT@@@Z
_TEXT	SEGMENT
tv361 = -20						; size = 4
tv359 = -20						; size = 4
tv364 = -14						; size = 2
_NewOption$ = -12					; size = 8
__$ArrayPad$ = -4					; size = 4
_lpObj$ = 8						; size = 4
?gObjWarehouseTextSave@@YAXPAUOBJECTSTRUCT@@@Z PROC	; gObjWarehouseTextSave, COMDAT

; 2289 : {

  00000	55		 push	 ebp
  00001	8b ec		 mov	 ebp, esp
  00003	83 ec 14	 sub	 esp, 20			; 00000014H
  00006	a1 00 00 00 00	 mov	 eax, DWORD PTR ___security_cookie
  0000b	33 c5		 xor	 eax, ebp
  0000d	89 45 fc	 mov	 DWORD PTR __$ArrayPad$[ebp], eax
  00010	53		 push	 ebx
  00011	56		 push	 esi
  00012	8b 75 08	 mov	 esi, DWORD PTR _lpObj$[ebp]
  00015	57		 push	 edi

; 2290 : 	BYTE NewOption[MAX_EXOPTION_SIZE];
; 2291 : 	int n;
; 2292 : 
; 2293 : 	for (int n=0;n<WAREHOUSE_SIZE;n++)

  00016	33 db		 xor	 ebx, ebx

; 2294 : 	{
; 2295 : 		if ( lpObj->pWarehouse[n].IsItem() == TRUE )

  00018	33 ff		 xor	 edi, edi
  0001a	8d 9b 00 00 00
	00		 npad	 6
$LL5@gObjWareho:
  00020	8b 8e c4 0c 00
	00		 mov	 ecx, DWORD PTR [esi+3268]
  00026	03 cf		 add	 ecx, edi
  00028	e8 00 00 00 00	 call	 ?IsItem@CItem@@QAEHXZ	; CItem::IsItem
  0002d	83 f8 01	 cmp	 eax, 1
  00030	0f 85 bd 00 00
	00		 jne	 $LN4@gObjWareho

; 2296 : 		{
; 2297 : 			if ( lpObj->pWarehouse[n].m_serial != 0 )

  00036	8b 86 c4 0c 00
	00		 mov	 eax, DWORD PTR [esi+3268]
  0003c	03 c7		 add	 eax, edi
  0003e	80 78 04 00	 cmp	 BYTE PTR [eax+4], 0
  00042	0f 84 ab 00 00
	00		 je	 $LN4@gObjWareho

; 2298 : 			{
; 2299 : 				ItemIsBufExOption(NewOption, &lpObj->pWarehouse[n]);

  00048	50		 push	 eax
  00049	8d 4d f4	 lea	 ecx, DWORD PTR _NewOption$[ebp]
  0004c	51		 push	 ecx
  0004d	e8 00 00 00 00	 call	 ?ItemIsBufExOption@@YAXPAEPAVCItem@@@Z ; ItemIsBufExOption

; 2300 : 				LogAdd(LOG_BLACK, lMsg.Get(MSGGET(1, 250)), lpObj->AccountID, lpObj->Name, n, lpObj->pWarehouse[n].GetName(),
; 2301 : 					lpObj->pWarehouse[n].m_Level, lpObj->pWarehouse[n].m_Option1,
; 2302 : 					lpObj->pWarehouse[n].m_Option2, lpObj->pWarehouse[n].m_Option3,
; 2303 : 					lpObj->pWarehouse[n].m_Number, (BYTE)lpObj->pWarehouse[n].m_Durability,
; 2304 : 					NewOption[0], NewOption[1], NewOption[2], NewOption[3], NewOption[4], NewOption[5], NewOption[6],
; 2305 : 					lpObj->pWarehouse[n].m_SetOption, 0, 0, 0);

  00052	d9 7d f2	 fnstcw	 WORD PTR tv364[ebp]
  00055	8b 96 c4 0c 00
	00		 mov	 edx, DWORD PTR [esi+3268]
  0005b	d9 44 17 24	 fld	 DWORD PTR [edi+edx+36]
  0005f	0f b6 84 17 92
	00 00 00	 movzx	 eax, BYTE PTR [edi+edx+146]
  00067	83 c4 08	 add	 esp, 8
  0006a	6a 00		 push	 0
  0006c	8d 0c 17	 lea	 ecx, DWORD PTR [edi+edx]
  0006f	0f b6 55 fa	 movzx	 edx, BYTE PTR _NewOption$[ebp+6]
  00073	6a 00		 push	 0
  00075	6a 00		 push	 0
  00077	50		 push	 eax
  00078	0f b6 45 f9	 movzx	 eax, BYTE PTR _NewOption$[ebp+5]
  0007c	52		 push	 edx
  0007d	0f b6 55 f8	 movzx	 edx, BYTE PTR _NewOption$[ebp+4]
  00081	50		 push	 eax
  00082	0f b6 45 f7	 movzx	 eax, BYTE PTR _NewOption$[ebp+3]
  00086	52		 push	 edx
  00087	0f b6 55 f6	 movzx	 edx, BYTE PTR _NewOption$[ebp+2]
  0008b	50		 push	 eax
  0008c	0f b6 45 f5	 movzx	 eax, BYTE PTR _NewOption$[ebp+1]
  00090	52		 push	 edx
  00091	0f b6 55 f4	 movzx	 edx, BYTE PTR _NewOption$[ebp]
  00095	50		 push	 eax
  00096	0f b7 45 f2	 movzx	 eax, WORD PTR tv364[ebp]
  0009a	0d 00 0c 00 00	 or	 eax, 3072		; 00000c00H
  0009f	89 45 ec	 mov	 DWORD PTR tv361[ebp], eax
  000a2	52		 push	 edx
  000a3	d9 6d ec	 fldcw	 WORD PTR tv361[ebp]
  000a6	db 5d ec	 fistp	 DWORD PTR tv359[ebp]
  000a9	8a 45 ec	 mov	 al, BYTE PTR tv359[ebp]
  000ac	0f b6 d0	 movzx	 edx, al
  000af	8b 01		 mov	 eax, DWORD PTR [ecx]
  000b1	d9 6d f2	 fldcw	 WORD PTR tv364[ebp]
  000b4	52		 push	 edx
  000b5	0f b6 51 7a	 movzx	 edx, BYTE PTR [ecx+122]
  000b9	50		 push	 eax
  000ba	0f b6 41 79	 movzx	 eax, BYTE PTR [ecx+121]
  000be	52		 push	 edx
  000bf	0f b6 51 78	 movzx	 edx, BYTE PTR [ecx+120]
  000c3	50		 push	 eax
  000c4	0f bf 41 08	 movsx	 eax, WORD PTR [ecx+8]
  000c8	52		 push	 edx
  000c9	50		 push	 eax
  000ca	e8 00 00 00 00	 call	 ?GetName@CItem@@QAEPADXZ ; CItem::GetName
  000cf	50		 push	 eax
  000d0	53		 push	 ebx
  000d1	8d 4e 6f	 lea	 ecx, DWORD PTR [esi+111]
  000d4	51		 push	 ecx
  000d5	8d 56 64	 lea	 edx, DWORD PTR [esi+100]
  000d8	52		 push	 edx
  000d9	68 fa 01 00 00	 push	 506			; 000001faH
  000de	b9 00 00 00 00	 mov	 ecx, OFFSET ?lMsg@@3VCMsg@@A ; lMsg
  000e3	e8 00 00 00 00	 call	 ?Get@CMsg@@QAEPADH@Z	; CMsg::Get
  000e8	50		 push	 eax
  000e9	6a 00		 push	 0
  000eb	e8 00 00 00 00	 call	 ?LogAdd@@YAXW4eLogColor@@PADZZ ; LogAdd
  000f0	83 c4 5c	 add	 esp, 92			; 0000005cH
$LN4@gObjWareho:

; 2290 : 	BYTE NewOption[MAX_EXOPTION_SIZE];
; 2291 : 	int n;
; 2292 : 
; 2293 : 	for (int n=0;n<WAREHOUSE_SIZE;n++)

  000f3	81 c7 a8 00 00
	00		 add	 edi, 168		; 000000a8H
  000f9	43		 inc	 ebx
  000fa	81 ff c0 4e 00
	00		 cmp	 edi, 20160		; 00004ec0H
  00100	0f 8c 1a ff ff
	ff		 jl	 $LL5@gObjWareho

; 2306 : 			}
; 2307 : 		}
; 2308 : 	}
; 2309 : 
; 2310 : 	LogAdd(LOG_BLACK, lMsg.Get(MSGGET(1, 251)), lpObj->AccountID, lpObj->Name, lpObj->WarehouseMoney);

  00106	8b 86 d4 0c 00
	00		 mov	 eax, DWORD PTR [esi+3284]
  0010c	50		 push	 eax
  0010d	8d 4e 6f	 lea	 ecx, DWORD PTR [esi+111]
  00110	51		 push	 ecx
  00111	83 c6 64	 add	 esi, 100		; 00000064H
  00114	56		 push	 esi
  00115	68 fb 01 00 00	 push	 507			; 000001fbH
  0011a	b9 00 00 00 00	 mov	 ecx, OFFSET ?lMsg@@3VCMsg@@A ; lMsg
  0011f	e8 00 00 00 00	 call	 ?Get@CMsg@@QAEPADH@Z	; CMsg::Get
  00124	50		 push	 eax
  00125	6a 00		 push	 0
  00127	e8 00 00 00 00	 call	 ?LogAdd@@YAXW4eLogColor@@PADZZ ; LogAdd

; 2311 : }

  0012c	8b 4d fc	 mov	 ecx, DWORD PTR __$ArrayPad$[ebp]
  0012f	83 c4 14	 add	 esp, 20			; 00000014H
  00132	5f		 pop	 edi
  00133	5e		 pop	 esi
  00134	33 cd		 xor	 ecx, ebp
  00136	5b		 pop	 ebx
  00137	e8 00 00 00 00	 call	 @__security_check_cookie@4
  0013c	8b e5		 mov	 esp, ebp
  0013e	5d		 pop	 ebp
  0013f	c3		 ret	 0
?gObjWarehouseTextSave@@YAXPAUOBJECTSTRUCT@@@Z ENDP	; gObjWarehouseTextSave
_TEXT	ENDS
PUBLIC	?gObjAuthorityCodeSet@@YAXPAUOBJECTSTRUCT@@@Z	; gObjAuthorityCodeSet
; Function compile flags: /Ogtp
;	COMDAT ?gObjAuthorityCodeSet@@YAXPAUOBJECTSTRUCT@@@Z
_TEXT	SEGMENT
_lpObj$ = 8						; size = 4
?gObjAuthorityCodeSet@@YAXPAUOBJECTSTRUCT@@@Z PROC	; gObjAuthorityCodeSet, COMDAT

; 2314 : {

  00000	55		 push	 ebp
  00001	8b ec		 mov	 ebp, esp

; 2315 : 	if ( (lpObj->Authority&1) == 1 )

  00003	8b 4d 08	 mov	 ecx, DWORD PTR _lpObj$[ebp]
  00006	8b 81 a4 01 00
	00		 mov	 eax, DWORD PTR [ecx+420]
  0000c	a8 01		 test	 al, 1
  0000e	75 27		 jne	 SHORT $LN1@gObjAuthor

; 2316 : 	{
; 2317 : 		return;
; 2318 : 	}
; 2319 : 
; 2320 : 	if ( (lpObj->Authority&2)== 2 )

  00010	a8 02		 test	 al, 2
  00012	74 0c		 je	 SHORT $LN5@gObjAuthor

; 2321 : 	{
; 2322 : 		lpObj->AuthorityCode = -1;

  00014	c7 81 a8 01 00
	00 ff ff ff ff	 mov	 DWORD PTR [ecx+424], -1

; 2356 : 
; 2357 : 		return;
; 2358 : 	}
; 2359 : 
; 2360 : }

  0001e	5d		 pop	 ebp
  0001f	c3		 ret	 0
$LN5@gObjAuthor:

; 2323 : 		return;
; 2324 : 	}
; 2325 : 
; 2326 : 	if ( (lpObj->Authority&4) == 4 )

  00020	a8 04		 test	 al, 4
  00022	75 13		 jne	 SHORT $LN1@gObjAuthor

; 2327 : 	{
; 2328 : 		return;
; 2329 : 	}
; 2330 : 
; 2331 : 	if ( (lpObj->Authority&8) == 8 )

  00024	a8 08		 test	 al, 8

; 2332 : 	{
; 2333 : 		lpObj->AuthorityCode |= 1;
; 2334 : 		lpObj->AuthorityCode |= 2;
; 2335 : 		lpObj->AuthorityCode |= 4;
; 2336 : 		lpObj->AuthorityCode |= 8;
; 2337 : 		lpObj->AuthorityCode |= 16;
; 2338 : 		lpObj->AuthorityCode |= 32;
; 2339 : 
; 2340 : 		return;

  00026	75 08		 jne	 SHORT $LN9@gObjAuthor

; 2341 : 	}
; 2342 : 
; 2343 : 	if ( (lpObj->Authority&16) == 16 )

  00028	a8 10		 test	 al, 16			; 00000010H
  0002a	75 0b		 jne	 SHORT $LN1@gObjAuthor

; 2344 : 	{
; 2345 : 		return;
; 2346 : 	}
; 2347 : 
; 2348 : 	if ( (lpObj->Authority&32) == 32 )

  0002c	a8 20		 test	 al, 32			; 00000020H
  0002e	74 07		 je	 SHORT $LN1@gObjAuthor
$LN9@gObjAuthor:

; 2349 : 	{
; 2350 : 		lpObj->AuthorityCode |= 1;
; 2351 : 		lpObj->AuthorityCode |= 2;
; 2352 : 		lpObj->AuthorityCode |= 4;
; 2353 : 		lpObj->AuthorityCode |= 8;
; 2354 : 		lpObj->AuthorityCode |= 16;
; 2355 : 		lpObj->AuthorityCode |= 32;

  00030	83 89 a8 01 00
	00 3f		 or	 DWORD PTR [ecx+424], 63	; 0000003fH
$LN1@gObjAuthor:

; 2356 : 
; 2357 : 		return;
; 2358 : 	}
; 2359 : 
; 2360 : }

  00037	5d		 pop	 ebp
  00038	c3		 ret	 0
?gObjAuthorityCodeSet@@YAXPAUOBJECTSTRUCT@@@Z ENDP	; gObjAuthorityCodeSet
_TEXT	ENDS
PUBLIC	??_C@_0BJ@KEIINKC@error?9L2?5?3?5?$CFd?5class?5?3?5?$CFd?$AA@ ; `string'
PUBLIC	??_C@_0O@CKAEPJAF@error?5?3?5?$CFs?5?$CFd?$AA@	; `string'
PUBLIC	?gObjSetPosMonster@@YAHHH@Z			; gObjSetPosMonster
EXTRN	?GetPosition@CMonsterSetBase@@QAEHHFAAF0@Z:PROC	; CMonsterSetBase::GetPosition
EXTRN	?gMSetBase@@3VCMonsterSetBase@@A:BYTE		; gMSetBase
;	COMDAT ??_C@_0BJ@KEIINKC@error?9L2?5?3?5?$CFd?5class?5?3?5?$CFd?$AA@
CONST	SEGMENT
??_C@_0BJ@KEIINKC@error?9L2?5?3?5?$CFd?5class?5?3?5?$CFd?$AA@ DB 'error-L'
	DB	'2 : %d class : %d', 00H			; `string'
CONST	ENDS
;	COMDAT ??_C@_0O@CKAEPJAF@error?5?3?5?$CFs?5?$CFd?$AA@
CONST	SEGMENT
??_C@_0O@CKAEPJAF@error?5?3?5?$CFs?5?$CFd?$AA@ DB 'error : %s %d', 00H ; `string'
; Function compile flags: /Ogtp
CONST	ENDS
;	COMDAT ?gObjSetPosMonster@@YAHHH@Z
_TEXT	SEGMENT
_aIndex$ = 8						; size = 4
_PosTableNum$ = 12					; size = 4
?gObjSetPosMonster@@YAHHH@Z PROC			; gObjSetPosMonster, COMDAT

; 2363 : {

  00000	55		 push	 ebp
  00001	8b ec		 mov	 ebp, esp
  00003	56		 push	 esi

; 2364 : 	if ( (  (aIndex<0)? FALSE: (aIndex > OBJMAX-1)? FALSE: TRUE ) == FALSE )

  00004	8b 75 08	 mov	 esi, DWORD PTR _aIndex$[ebp]
  00007	85 f6		 test	 esi, esi
  00009	78 0f		 js	 SHORT $LN15@gObjSetPos
  0000b	33 c0		 xor	 eax, eax
  0000d	81 fe e7 1c 00
	00		 cmp	 esi, 7399		; 00001ce7H
  00013	0f 9e c0	 setle	 al
  00016	85 c0		 test	 eax, eax
  00018	75 1e		 jne	 SHORT $LN8@gObjSetPos
$LN15@gObjSetPos:

; 2365 : 	{
; 2366 : 		LogAdd(LOG_BLACK, "error : %s %d", __FILE__, __LINE__);

  0001a	68 3e 09 00 00	 push	 2366			; 0000093eH
  0001f	68 00 00 00 00	 push	 OFFSET ??_C@_08DCNFOMBO@user?4cpp?$AA@
  00024	68 00 00 00 00	 push	 OFFSET ??_C@_0O@CKAEPJAF@error?5?3?5?$CFs?5?$CFd?$AA@
  00029	6a 00		 push	 0
  0002b	e8 00 00 00 00	 call	 ?LogAdd@@YAXW4eLogColor@@PADZZ ; LogAdd
  00030	83 c4 10	 add	 esp, 16			; 00000010H

; 2367 : 		return FALSE;

  00033	33 c0		 xor	 eax, eax
  00035	5e		 pop	 esi

; 2413 : }

  00036	5d		 pop	 ebp
  00037	c3		 ret	 0
$LN8@gObjSetPos:
  00038	57		 push	 edi

; 2368 : 	}
; 2369 : 
; 2370 : 	if ( (  (PosTableNum<0)? FALSE: (PosTableNum > OBJ_MAXMONSTER-1)? FALSE: TRUE ) == FALSE )

  00039	8b 7d 0c	 mov	 edi, DWORD PTR _PosTableNum$[ebp]
  0003c	85 ff		 test	 edi, edi
  0003e	78 0f		 js	 SHORT $LN16@gObjSetPos
  00040	33 c0		 xor	 eax, eax
  00042	81 ff a7 16 00
	00		 cmp	 edi, 5799		; 000016a7H
  00048	0f 9e c0	 setle	 al
  0004b	85 c0		 test	 eax, eax
  0004d	75 1f		 jne	 SHORT $LN7@gObjSetPos
$LN16@gObjSetPos:

; 2371 : 	{
; 2372 : 		LogAdd(LOG_BLACK, "error : %s %d", __FILE__, __LINE__);

  0004f	68 44 09 00 00	 push	 2372			; 00000944H
  00054	68 00 00 00 00	 push	 OFFSET ??_C@_08DCNFOMBO@user?4cpp?$AA@
  00059	68 00 00 00 00	 push	 OFFSET ??_C@_0O@CKAEPJAF@error?5?3?5?$CFs?5?$CFd?$AA@
  0005e	6a 00		 push	 0
  00060	e8 00 00 00 00	 call	 ?LogAdd@@YAXW4eLogColor@@PADZZ ; LogAdd
  00065	83 c4 10	 add	 esp, 16			; 00000010H
  00068	5f		 pop	 edi

; 2373 : 		return FALSE;

  00069	33 c0		 xor	 eax, eax
  0006b	5e		 pop	 esi

; 2413 : }

  0006c	5d		 pop	 ebp
  0006d	c3		 ret	 0
$LN7@gObjSetPos:

; 2374 : 	}
; 2375 : 
; 2376 : 	LPOBJ lpObj = &gObj[aIndex];

  0006e	69 f6 64 15 00
	00		 imul	 esi, 5476		; 00001564H
  00074	81 c6 00 00 00
	00		 add	 esi, OFFSET ?gObj@@3PAUOBJECTSTRUCT@@A ; gObj

; 2377 : 	lpObj->m_PosNum = PosTableNum;

  0007a	66 89 be 10 02
	00 00		 mov	 WORD PTR [esi+528], di

; 2378 : 	lpObj->X = gMSetBase.m_Mp[PosTableNum].m_X;

  00081	8d 3c 7f	 lea	 edi, DWORD PTR [edi+edi*2]
  00084	03 ff		 add	 edi, edi

; 2379 : 	lpObj->Y = gMSetBase.m_Mp[PosTableNum].m_Y;

  00086	0f b6 8c 3f 0b
	00 00 00	 movzx	 ecx, BYTE PTR ?gMSetBase@@3VCMonsterSetBase@@A[edi+edi+11]
  0008e	0f b6 84 3f 0a
	00 00 00	 movzx	 eax, BYTE PTR ?gMSetBase@@3VCMonsterSetBase@@A[edi+edi+10]

; 2380 : 	lpObj->MapNumber = gMSetBase.m_Mp[PosTableNum].m_MapNumber;

  00096	8a 94 3f 08 00
	00 00		 mov	 dl, BYTE PTR ?gMSetBase@@3VCMonsterSetBase@@A[edi+edi+8]
  0009d	03 ff		 add	 edi, edi
  0009f	53		 push	 ebx
  000a0	8d 9e 04 01 00
	00		 lea	 ebx, DWORD PTR [esi+260]
  000a6	66 89 03	 mov	 WORD PTR [ebx], ax
  000a9	66 89 8e 06 01
	00 00		 mov	 WORD PTR [esi+262], cx

; 2381 : 	lpObj->TX = lpObj->X;

  000b0	66 89 86 20 01
	00 00		 mov	 WORD PTR [esi+288], ax

; 2382 : 	lpObj->TY = lpObj->Y;
; 2383 : 	lpObj->m_OldX = lpObj->X;

  000b7	66 89 86 1c 01
	00 00		 mov	 WORD PTR [esi+284], ax

; 2384 : 	lpObj->m_OldY = lpObj->Y;
; 2385 : 	lpObj->Dir = gMSetBase.m_Mp[PosTableNum].m_Dir;

  000be	0f b6 87 0c 00
	00 00		 movzx	 eax, BYTE PTR ?gMSetBase@@3VCMonsterSetBase@@A[edi+12]
  000c5	66 89 8e 22 01
	00 00		 mov	 WORD PTR [esi+290], cx
  000cc	66 89 8e 1e 01
	00 00		 mov	 WORD PTR [esi+286], cx

; 2386 : 	lpObj->StartX = lpObj->X;

  000d3	8a 0b		 mov	 cl, BYTE PTR [ebx]
  000d5	88 8e 1a 01 00
	00		 mov	 BYTE PTR [esi+282], cl
  000db	88 86 08 01 00
	00		 mov	 BYTE PTR [esi+264], al

; 2387 : 	lpObj->StartY = lpObj->Y;

  000e1	0f b6 86 06 01
	00 00		 movzx	 eax, BYTE PTR [esi+262]
  000e8	8d 8e 06 01 00
	00		 lea	 ecx, DWORD PTR [esi+262]
  000ee	88 86 1b 01 00
	00		 mov	 BYTE PTR [esi+283], al

; 2388 : 
; 2389 : 	if ( lpObj->Class == 44 ||  lpObj->Class == 53 ||  lpObj->Class == 54 ||  lpObj->Class == 55 ||  lpObj->Class == 56)

  000f4	0f b7 86 98 00
	00 00		 movzx	 eax, WORD PTR [esi+152]
  000fb	88 96 09 01 00
	00		 mov	 BYTE PTR [esi+265], dl
  00101	83 f8 2c	 cmp	 eax, 44			; 0000002cH
  00104	74 79		 je	 SHORT $LN5@gObjSetPos
  00106	83 f8 35	 cmp	 eax, 53			; 00000035H
  00109	74 74		 je	 SHORT $LN5@gObjSetPos
  0010b	83 f8 36	 cmp	 eax, 54			; 00000036H
  0010e	74 6f		 je	 SHORT $LN5@gObjSetPos
  00110	83 f8 37	 cmp	 eax, 55			; 00000037H
  00113	74 6a		 je	 SHORT $LN5@gObjSetPos
  00115	83 f8 38	 cmp	 eax, 56			; 00000038H
  00118	74 65		 je	 SHORT $LN5@gObjSetPos

; 2390 : 	{
; 2391 : 
; 2392 : 	}
; 2393 : 	else if (  lpObj->Class >= 78 &&  lpObj->Class <= 83)

  0011a	83 f8 4e	 cmp	 eax, 78			; 0000004eH
  0011d	72 05		 jb	 SHORT $LN3@gObjSetPos
  0011f	83 f8 53	 cmp	 eax, 83			; 00000053H
  00122	76 5b		 jbe	 SHORT $LN5@gObjSetPos
$LN3@gObjSetPos:

; 2394 : 	{
; 2395 : 
; 2396 : 	}
; 2397 : 	else if ( gMSetBase.GetPosition(PosTableNum, lpObj->MapNumber, lpObj->X, lpObj->Y) == FALSE )

  00124	8b 45 0c	 mov	 eax, DWORD PTR _PosTableNum$[ebp]
  00127	51		 push	 ecx
  00128	0f b6 d2	 movzx	 edx, dl
  0012b	53		 push	 ebx
  0012c	52		 push	 edx
  0012d	50		 push	 eax
  0012e	b9 00 00 00 00	 mov	 ecx, OFFSET ?gMSetBase@@3VCMonsterSetBase@@A ; gMSetBase
  00133	e8 00 00 00 00	 call	 ?GetPosition@CMonsterSetBase@@QAEHHFAAF0@Z ; CMonsterSetBase::GetPosition
  00138	85 c0		 test	 eax, eax
  0013a	75 43		 jne	 SHORT $LN5@gObjSetPos

; 2398 : 	{
; 2399 : 		LogAdd(LOG_BLACK, lMsg.Get(MSGGET(1, 252)), __FILE__, __LINE__);

  0013c	68 5f 09 00 00	 push	 2399			; 0000095fH
  00141	68 00 00 00 00	 push	 OFFSET ??_C@_08DCNFOMBO@user?4cpp?$AA@
  00146	68 fc 01 00 00	 push	 508			; 000001fcH
  0014b	b9 00 00 00 00	 mov	 ecx, OFFSET ?lMsg@@3VCMsg@@A ; lMsg
  00150	e8 00 00 00 00	 call	 ?Get@CMsg@@QAEPADH@Z	; CMsg::Get
  00155	50		 push	 eax
  00156	6a 00		 push	 0
  00158	e8 00 00 00 00	 call	 ?LogAdd@@YAXW4eLogColor@@PADZZ ; LogAdd

; 2400 : 		LogAdd(LOG_BLACK, "error-L2 : %d class : %d", PosTableNum, lpObj->Class);

  0015d	0f b7 8e 98 00
	00 00		 movzx	 ecx, WORD PTR [esi+152]
  00164	8b 55 0c	 mov	 edx, DWORD PTR _PosTableNum$[ebp]
  00167	51		 push	 ecx
  00168	52		 push	 edx
  00169	68 00 00 00 00	 push	 OFFSET ??_C@_0BJ@KEIINKC@error?9L2?5?3?5?$CFd?5class?5?3?5?$CFd?$AA@
  0016e	6a 00		 push	 0
  00170	e8 00 00 00 00	 call	 ?LogAdd@@YAXW4eLogColor@@PADZZ ; LogAdd
  00175	83 c4 20	 add	 esp, 32			; 00000020H
  00178	5b		 pop	 ebx
  00179	5f		 pop	 edi

; 2401 : 		return FALSE;

  0017a	33 c0		 xor	 eax, eax
  0017c	5e		 pop	 esi

; 2413 : }

  0017d	5d		 pop	 ebp
  0017e	c3		 ret	 0
$LN5@gObjSetPos:

; 2402 : 	}
; 2403 : 
; 2404 : 	lpObj->TX = lpObj->X;
; 2405 : 	lpObj->TY = lpObj->Y;

  0017f	0f b7 8e 06 01
	00 00		 movzx	 ecx, WORD PTR [esi+262]
  00186	0f b7 03	 movzx	 eax, WORD PTR [ebx]

; 2406 : 	lpObj->m_OldX = lpObj->X;
; 2407 : 	lpObj->m_OldY = lpObj->Y;
; 2408 : 	lpObj->Dir = gMSetBase.m_Mp[PosTableNum].m_Dir;
; 2409 : 	lpObj->StartX = lpObj->X;
; 2410 : 	lpObj->StartY = lpObj->Y;

  00189	8a 96 06 01 00
	00		 mov	 dl, BYTE PTR [esi+262]
  0018f	66 89 8e 22 01
	00 00		 mov	 WORD PTR [esi+290], cx
  00196	66 89 8e 1e 01
	00 00		 mov	 WORD PTR [esi+286], cx
  0019d	8a 0b		 mov	 cl, BYTE PTR [ebx]
  0019f	66 89 86 20 01
	00 00		 mov	 WORD PTR [esi+288], ax
  001a6	66 89 86 1c 01
	00 00		 mov	 WORD PTR [esi+284], ax
  001ad	8a 87 0c 00 00
	00		 mov	 al, BYTE PTR ?gMSetBase@@3VCMonsterSetBase@@A[edi+12]
  001b3	5b		 pop	 ebx
  001b4	88 86 08 01 00
	00		 mov	 BYTE PTR [esi+264], al
  001ba	5f		 pop	 edi
  001bb	88 8e 1a 01 00
	00		 mov	 BYTE PTR [esi+282], cl
  001c1	88 96 1b 01 00
	00		 mov	 BYTE PTR [esi+283], dl

; 2411 : 
; 2412 : 	return true;

  001c7	b8 01 00 00 00	 mov	 eax, 1
  001cc	5e		 pop	 esi

; 2413 : }

  001cd	5d		 pop	 ebp
  001ce	c3		 ret	 0
?gObjSetPosMonster@@YAHHH@Z ENDP			; gObjSetPosMonster
_TEXT	ENDS
PUBLIC	?gObjDestroy@@YAXIH@Z				; gObjDestroy
; Function compile flags: /Ogtp
;	COMDAT ?gObjDestroy@@YAXIH@Z
_TEXT	SEGMENT
_aSocket$ = 8						; size = 4
_client$ = 12						; size = 4
?gObjDestroy@@YAXIH@Z PROC				; gObjDestroy, COMDAT

; 2711 : {

  00000	55		 push	 ebp
  00001	8b ec		 mov	 ebp, esp

; 2712 : 	if ( client < 0 || client > OBJMAX-1)

  00003	8b 45 0c	 mov	 eax, DWORD PTR _client$[ebp]
  00006	3d e7 1c 00 00	 cmp	 eax, 7399		; 00001ce7H
  0000b	77 0d		 ja	 SHORT $LN1@gObjDestro

; 2713 : 	{
; 2714 : 		return;
; 2715 : 	}
; 2716 : 
; 2717 : 	gObj[client].Connected = PLAYER_EMPTY;

  0000d	69 c0 64 15 00
	00		 imul	 eax, 5476		; 00001564H
  00013	c6 80 04 00 00
	00 00		 mov	 BYTE PTR ?gObj@@3PAUOBJECTSTRUCT@@A[eax+4], 0
$LN1@gObjDestro:

; 2718 : }

  0001a	5d		 pop	 ebp
  0001b	c3		 ret	 0
?gObjDestroy@@YAXIH@Z ENDP				; gObjDestroy
_TEXT	ENDS
PUBLIC	?gObjAddSearch@@YAFIPAD@Z			; gObjAddSearch
EXTRN	?GCJoinSocketResult@@YAXEI@Z:PROC		; GCJoinSocketResult
EXTRN	?IsIp@CAcceptIp@@QAEHPAD@Z:PROC			; CAcceptIp::IsIp
EXTRN	?acceptIP@@3VCAcceptIp@@A:BYTE			; acceptIP
; Function compile flags: /Ogtp
;	COMDAT ?gObjAddSearch@@YAFIPAD@Z
_TEXT	SEGMENT
_aSocket$ = 8						; size = 4
_ip$ = 12						; size = 4
?gObjAddSearch@@YAFIPAD@Z PROC				; gObjAddSearch, COMDAT

; 2721 : {

  00000	55		 push	 ebp
  00001	8b ec		 mov	 ebp, esp
  00003	56		 push	 esi

; 2722 : 	int count;
; 2723 : 	int totalcount = 0;

  00004	33 f6		 xor	 esi, esi

; 2724 : 
; 2725 : 	if ( gDisconnect == 1 )

  00006	83 3d 00 00 00
	00 01		 cmp	 DWORD PTR ?gDisconnect@@3HA, 1 ; gDisconnect

; 2726 : 	{
; 2727 : 		return -1;

  0000d	74 2d		 je	 SHORT $LN14@gObjAddSea

; 2728 : 	}
; 2729 : 
; 2730 : 	if ( gObjTotalUser > gServerMaxUser )

  0000f	a1 00 00 00 00	 mov	 eax, DWORD PTR ?gObjTotalUser@@3HA ; gObjTotalUser
  00014	3b 05 00 00 00
	00		 cmp	 eax, DWORD PTR ?gServerMaxUser@@3HA ; gServerMaxUser
  0001a	7e 26		 jle	 SHORT $LN6@gObjAddSea

; 2731 : 	{
; 2732 : 		if (acceptIP.IsIp(ip) == 0 )

  0001c	8b 4d 0c	 mov	 ecx, DWORD PTR _ip$[ebp]
  0001f	51		 push	 ecx
  00020	b9 00 00 00 00	 mov	 ecx, OFFSET ?acceptIP@@3VCAcceptIp@@A ; acceptIP
  00025	e8 00 00 00 00	 call	 ?IsIp@CAcceptIp@@QAEHPAD@Z ; CAcceptIp::IsIp
  0002a	85 c0		 test	 eax, eax
  0002c	75 14		 jne	 SHORT $LN6@gObjAddSea

; 2733 : 		{
; 2734 : 			GCJoinSocketResult(4, aSocket);

  0002e	8b 55 08	 mov	 edx, DWORD PTR _aSocket$[ebp]
  00031	52		 push	 edx
  00032	6a 04		 push	 4
  00034	e8 00 00 00 00	 call	 ?GCJoinSocketResult@@YAXEI@Z ; GCJoinSocketResult
  00039	83 c4 08	 add	 esp, 8
$LN14@gObjAddSea:

; 2756 : 		{
; 2757 : 			break;
; 2758 : 		}
; 2759 : 	}
; 2760 : 	return -1;

  0003c	83 c8 ff	 or	 eax, -1
$LN9@gObjAddSea:
  0003f	5e		 pop	 esi

; 2761 : }

  00040	5d		 pop	 ebp
  00041	c3		 ret	 0
$LN6@gObjAddSea:

; 2735 : 			return -1;
; 2736 : 		}
; 2737 : 	}
; 2738 : 
; 2739 : 	count = gObjCount;

  00042	a1 00 00 00 00	 mov	 eax, DWORD PTR ?gObjCount@@3HA ; gObjCount

; 2740 : 	
; 2741 : 	while ( true )
; 2742 : 	{
; 2743 : 		if ( gObj[count].Connected == PLAYER_EMPTY )

  00047	8b c8		 mov	 ecx, eax
  00049	69 c9 64 15 00
	00		 imul	 ecx, 5476		; 00001564H
  0004f	80 b9 04 00 00
	00 00		 cmp	 BYTE PTR ?gObj@@3PAUOBJECTSTRUCT@@A[ecx+4], 0
  00056	74 e7		 je	 SHORT $LN9@gObjAddSea
$LL5@gObjAddSea:

; 2744 : 		{
; 2745 : 			return count;
; 2746 : 		}
; 2747 : 
; 2748 : 		count++;

  00058	40		 inc	 eax

; 2749 : 
; 2750 : 		if ( count >= OBJMAX )

  00059	3d e8 1c 00 00	 cmp	 eax, 7400		; 00001ce8H
  0005e	7c 05		 jl	 SHORT $LN2@gObjAddSea

; 2751 : 		{
; 2752 : 			count = OBJ_STARTUSERINDEX;

  00060	b8 00 19 00 00	 mov	 eax, 6400		; 00001900H
$LN2@gObjAddSea:

; 2753 : 		}
; 2754 : 		totalcount++;

  00065	46		 inc	 esi

; 2755 : 		if ( totalcount >= OBJMAXUSER )

  00066	81 fe e8 03 00
	00		 cmp	 esi, 1000		; 000003e8H
  0006c	7d ce		 jge	 SHORT $LN14@gObjAddSea

; 2740 : 	
; 2741 : 	while ( true )
; 2742 : 	{
; 2743 : 		if ( gObj[count].Connected == PLAYER_EMPTY )

  0006e	8b d0		 mov	 edx, eax
  00070	69 d2 64 15 00
	00		 imul	 edx, 5476		; 00001564H
  00076	80 ba 04 00 00
	00 00		 cmp	 BYTE PTR ?gObj@@3PAUOBJECTSTRUCT@@A[edx+4], 0
  0007d	75 d9		 jne	 SHORT $LL5@gObjAddSea
  0007f	5e		 pop	 esi

; 2761 : }

  00080	5d		 pop	 ebp
  00081	c3		 ret	 0
?gObjAddSearch@@YAFIPAD@Z ENDP				; gObjAddSearch
_TEXT	ENDS
PUBLIC	?gObjUserKill@@YAXH@Z				; gObjUserKill
; Function compile flags: /Ogtp
;	COMDAT ?gObjUserKill@@YAXH@Z
_TEXT	SEGMENT
_aIndex$ = 8						; size = 4
?gObjUserKill@@YAXH@Z PROC				; gObjUserKill, COMDAT

; 2902 : {

  00000	55		 push	 ebp
  00001	8b ec		 mov	 ebp, esp

; 2903 : 	LPOBJ lpObj = &gObj[aIndex];

  00003	8b 45 08	 mov	 eax, DWORD PTR _aIndex$[ebp]
  00006	69 c0 64 15 00
	00		 imul	 eax, 5476		; 00001564H
  0000c	05 00 00 00 00	 add	 eax, OFFSET ?gObj@@3PAUOBJECTSTRUCT@@A ; gObj

; 2904 : 
; 2905 : 	if ( lpObj->CloseCount < 1 )

  00011	80 78 07 01	 cmp	 BYTE PTR [eax+7], 1
  00015	7d 06		 jge	 SHORT $LN1@gObjUserKi

; 2906 : 	{
; 2907 : 		lpObj->CloseCount = 6;

  00017	66 c7 40 07 06
	00		 mov	 WORD PTR [eax+7], 6
$LN1@gObjUserKi:

; 2908 : 		lpObj->CloseType = 0;
; 2909 : 	}
; 2910 : }

  0001d	5d		 pop	 ebp
  0001e	c3		 ret	 0
?gObjUserKill@@YAXH@Z ENDP				; gObjUserKill
_TEXT	ENDS
PUBLIC	?gObjAllDisconnect@@YAXXZ			; gObjAllDisconnect
EXTRN	?CloseClient@@YAXH@Z:PROC			; CloseClient
; Function compile flags: /Ogtp
;	COMDAT ?gObjAllDisconnect@@YAXXZ
_TEXT	SEGMENT
?gObjAllDisconnect@@YAXXZ PROC				; gObjAllDisconnect, COMDAT

; 2926 : {

  00000	56		 push	 esi
  00001	57		 push	 edi

; 2927 : 	gDisconnect = TRUE;

  00002	c7 05 00 00 00
	00 01 00 00 00	 mov	 DWORD PTR ?gDisconnect@@3HA, 1 ; gDisconnect

; 2928 : 
; 2929 : 	for ( int n=OBJ_STARTUSERINDEX; n< OBJMAX; n++)

  0000c	bf 00 19 00 00	 mov	 edi, 6400		; 00001900H
  00011	be 60 c4 16 02	 mov	 esi, OFFSET ?gObj@@3PAUOBJECTSTRUCT@@A+35046496
$LL5@gObjAllDis:

; 2930 : 	{
; 2931 : 		if ( gObj[n].Connected > PLAYER_EMPTY )

  00016	80 7e a4 00	 cmp	 BYTE PTR [esi-92], 0
  0001a	76 0f		 jbe	 SHORT $LN4@gObjAllDis

; 2932 : 		{
; 2933 : 			if ( gObj[n].Type == OBJ_USER )

  0001c	66 83 3e 01	 cmp	 WORD PTR [esi], 1
  00020	75 09		 jne	 SHORT $LN4@gObjAllDis

; 2934 : 			{
; 2935 : 				CloseClient(n);

  00022	57		 push	 edi
  00023	e8 00 00 00 00	 call	 ?CloseClient@@YAXH@Z	; CloseClient
  00028	83 c4 04	 add	 esp, 4
$LN4@gObjAllDis:

; 2928 : 
; 2929 : 	for ( int n=OBJ_STARTUSERINDEX; n< OBJMAX; n++)

  0002b	81 c6 64 15 00
	00		 add	 esi, 5476		; 00001564H
  00031	47		 inc	 edi
  00032	81 fe 00 53 6a
	02		 cmp	 esi, OFFSET ?gObj@@3PAUOBJECTSTRUCT@@A+40522496
  00038	7c dc		 jl	 SHORT $LL5@gObjAllDis

; 2936 : 			}
; 2937 : 		}
; 2938 : 	}
; 2939 : }

  0003a	5f		 pop	 edi
  0003b	5e		 pop	 esi
  0003c	c3		 ret	 0
?gObjAllDisconnect@@YAXXZ ENDP				; gObjAllDisconnect
_TEXT	ENDS
PUBLIC	?gObjIsGamePlaing@@YAHPAUOBJECTSTRUCT@@@Z	; gObjIsGamePlaing
; Function compile flags: /Ogtp
;	COMDAT ?gObjIsGamePlaing@@YAHPAUOBJECTSTRUCT@@@Z
_TEXT	SEGMENT
_lpObj$ = 8						; size = 4
?gObjIsGamePlaing@@YAHPAUOBJECTSTRUCT@@@Z PROC		; gObjIsGamePlaing, COMDAT

; 3337 : {

  00000	55		 push	 ebp
  00001	8b ec		 mov	 ebp, esp

; 3338 : 	if ( lpObj->Connected < PLAYER_PLAYING )

  00003	8b 45 08	 mov	 eax, DWORD PTR _lpObj$[ebp]
  00006	80 78 04 03	 cmp	 BYTE PTR [eax+4], 3
  0000a	1b c0		 sbb	 eax, eax
  0000c	40		 inc	 eax

; 3339 : 	{
; 3340 : 		return false;
; 3341 : 	}
; 3342 : 
; 3343 : 	return TRUE;
; 3344 : }

  0000d	5d		 pop	 ebp
  0000e	c3		 ret	 0
?gObjIsGamePlaing@@YAHPAUOBJECTSTRUCT@@@Z ENDP		; gObjIsGamePlaing
_TEXT	ENDS
PUBLIC	?gObjIsConnectedGP@@YAHH@Z			; gObjIsConnectedGP
; Function compile flags: /Ogtp
;	COMDAT ?gObjIsConnectedGP@@YAHH@Z
_TEXT	SEGMENT
_aIndex$ = 8						; size = 4
?gObjIsConnectedGP@@YAHH@Z PROC				; gObjIsConnectedGP, COMDAT

; 3347 : {

  00000	55		 push	 ebp
  00001	8b ec		 mov	 ebp, esp

; 3348 : 	if (aIndex < 0 || aIndex > OBJMAX-1 )

  00003	8b 45 08	 mov	 eax, DWORD PTR _aIndex$[ebp]
  00006	3d e7 1c 00 00	 cmp	 eax, 7399		; 00001ce7H
  0000b	77 28		 ja	 SHORT $LN4@gObjIsConn

; 3351 : 	}
; 3352 : 	
; 3353 : 	if ( gObj[aIndex].Type != OBJ_USER )

  0000d	69 c0 64 15 00
	00		 imul	 eax, 5476		; 00001564H
  00013	66 83 b8 60 00
	00 00 01	 cmp	 WORD PTR ?gObj@@3PAUOBJECTSTRUCT@@A[eax+96], 1

; 3354 : 	{
; 3355 : 		return FALSE;

  0001b	75 18		 jne	 SHORT $LN4@gObjIsConn

; 3356 : 	}
; 3357 : 
; 3358 : 	if ( gObj[aIndex].Connected < PLAYER_PLAYING )

  0001d	80 b8 04 00 00
	00 03		 cmp	 BYTE PTR ?gObj@@3PAUOBJECTSTRUCT@@A[eax+4], 3

; 3359 : 	{
; 3360 : 		return FALSE;

  00024	72 0f		 jb	 SHORT $LN4@gObjIsConn

; 3361 : 	}
; 3362 : 
; 3363 : 	if ( gObj[aIndex].CloseCount > 0 )

  00026	33 c9		 xor	 ecx, ecx
  00028	38 88 07 00 00
	00		 cmp	 BYTE PTR ?gObj@@3PAUOBJECTSTRUCT@@A[eax+7], cl
  0002e	0f 9e c1	 setle	 cl
  00031	8b c1		 mov	 eax, ecx

; 3364 : 	{
; 3365 : 		return FALSE;
; 3366 : 	}
; 3367 : 
; 3368 : 	return TRUE;
; 3369 : }

  00033	5d		 pop	 ebp
  00034	c3		 ret	 0
$LN4@gObjIsConn:

; 3349 : 	{
; 3350 : 		return FALSE;

  00035	33 c0		 xor	 eax, eax

; 3364 : 	{
; 3365 : 		return FALSE;
; 3366 : 	}
; 3367 : 
; 3368 : 	return TRUE;
; 3369 : }

  00037	5d		 pop	 ebp
  00038	c3		 ret	 0
?gObjIsConnectedGP@@YAHH@Z ENDP				; gObjIsConnectedGP
_TEXT	ENDS
PUBLIC	?gObjIsConnectedGP@@YAHHPAD@Z			; gObjIsConnectedGP
; Function compile flags: /Ogtp
;	COMDAT ?gObjIsConnectedGP@@YAHHPAD@Z
_TEXT	SEGMENT
_aIndex$ = 8						; size = 4
_CharName$ = 12						; size = 4
?gObjIsConnectedGP@@YAHHPAD@Z PROC			; gObjIsConnectedGP, COMDAT

; 3372 : {

  00000	55		 push	 ebp
  00001	8b ec		 mov	 ebp, esp

; 3373 : 	if (aIndex < 0 || aIndex > OBJMAX-1 )

  00003	8b 45 08	 mov	 eax, DWORD PTR _aIndex$[ebp]
  00006	3d e7 1c 00 00	 cmp	 eax, 7399		; 00001ce7H
  0000b	77 64		 ja	 SHORT $LN5@gObjIsConn@2

; 3376 : 	}
; 3377 : 	
; 3378 : 	if ( gObj[aIndex].Type != OBJ_USER )

  0000d	69 c0 64 15 00
	00		 imul	 eax, 5476		; 00001564H
  00013	66 83 b8 60 00
	00 00 01	 cmp	 WORD PTR ?gObj@@3PAUOBJECTSTRUCT@@A[eax+96], 1

; 3379 : 	{
; 3380 : 		return FALSE;

  0001b	75 54		 jne	 SHORT $LN5@gObjIsConn@2

; 3381 : 	}
; 3382 : 
; 3383 : 	if ( gObj[aIndex].Connected < PLAYER_PLAYING )

  0001d	80 b8 04 00 00
	00 03		 cmp	 BYTE PTR ?gObj@@3PAUOBJECTSTRUCT@@A[eax+4], 3

; 3384 : 	{
; 3385 : 		return FALSE;

  00024	72 4b		 jb	 SHORT $LN5@gObjIsConn@2

; 3386 : 	}
; 3387 : 
; 3388 : 	if ( gObj[aIndex].CloseCount > 0 )

  00026	80 b8 07 00 00
	00 00		 cmp	 BYTE PTR ?gObj@@3PAUOBJECTSTRUCT@@A[eax+7], 0

; 3389 : 	{
; 3390 : 		return FALSE;

  0002d	7f 42		 jg	 SHORT $LN5@gObjIsConn@2

; 3391 : 	}
; 3392 : 
; 3393 : 	if ( strcmp(gObj[aIndex].Name, CharName) != 0 )

  0002f	8b 4d 0c	 mov	 ecx, DWORD PTR _CharName$[ebp]
  00032	8d 80 6f 00 00
	00		 lea	 eax, DWORD PTR ?gObj@@3PAUOBJECTSTRUCT@@A[eax+111]
$LL9@gObjIsConn@2:
  00038	8a 10		 mov	 dl, BYTE PTR [eax]
  0003a	3a 11		 cmp	 dl, BYTE PTR [ecx]
  0003c	75 23		 jne	 SHORT $LN10@gObjIsConn@2
  0003e	84 d2		 test	 dl, dl
  00040	74 12		 je	 SHORT $LN11@gObjIsConn@2
  00042	8a 50 01	 mov	 dl, BYTE PTR [eax+1]
  00045	3a 51 01	 cmp	 dl, BYTE PTR [ecx+1]
  00048	75 17		 jne	 SHORT $LN10@gObjIsConn@2
  0004a	83 c0 02	 add	 eax, 2
  0004d	83 c1 02	 add	 ecx, 2
  00050	84 d2		 test	 dl, dl
  00052	75 e4		 jne	 SHORT $LL9@gObjIsConn@2
$LN11@gObjIsConn@2:
  00054	33 c0		 xor	 eax, eax
  00056	33 c9		 xor	 ecx, ecx
  00058	85 c0		 test	 eax, eax
  0005a	0f 94 c1	 sete	 cl
  0005d	8b c1		 mov	 eax, ecx

; 3394 : 	{
; 3395 : 		return FALSE;
; 3396 : 	}
; 3397 : 
; 3398 : 	return TRUE;
; 3399 : }

  0005f	5d		 pop	 ebp
  00060	c3		 ret	 0
$LN10@gObjIsConn@2:

; 3391 : 	}
; 3392 : 
; 3393 : 	if ( strcmp(gObj[aIndex].Name, CharName) != 0 )

  00061	1b c0		 sbb	 eax, eax
  00063	83 d8 ff	 sbb	 eax, -1
  00066	33 c9		 xor	 ecx, ecx
  00068	85 c0		 test	 eax, eax
  0006a	0f 94 c1	 sete	 cl
  0006d	8b c1		 mov	 eax, ecx

; 3394 : 	{
; 3395 : 		return FALSE;
; 3396 : 	}
; 3397 : 
; 3398 : 	return TRUE;
; 3399 : }

  0006f	5d		 pop	 ebp
  00070	c3		 ret	 0
$LN5@gObjIsConn@2:

; 3374 : 	{
; 3375 : 		return FALSE;

  00071	33 c0		 xor	 eax, eax

; 3394 : 	{
; 3395 : 		return FALSE;
; 3396 : 	}
; 3397 : 
; 3398 : 	return TRUE;
; 3399 : }

  00073	5d		 pop	 ebp
  00074	c3		 ret	 0
?gObjIsConnectedGP@@YAHHPAD@Z ENDP			; gObjIsConnectedGP
_TEXT	ENDS
PUBLIC	?gObjIsConnected@@YAHPAUOBJECTSTRUCT@@@Z	; gObjIsConnected
; Function compile flags: /Ogtp
;	COMDAT ?gObjIsConnected@@YAHPAUOBJECTSTRUCT@@@Z
_TEXT	SEGMENT
_lpObj$ = 8						; size = 4
?gObjIsConnected@@YAHPAUOBJECTSTRUCT@@@Z PROC		; gObjIsConnected, COMDAT

; 3402 : {

  00000	55		 push	 ebp
  00001	8b ec		 mov	 ebp, esp

; 3403 : 	if ( lpObj->Type != OBJ_USER )

  00003	8b 45 08	 mov	 eax, DWORD PTR _lpObj$[ebp]
  00006	66 83 78 60 01	 cmp	 WORD PTR [eax+96], 1
  0000b	74 04		 je	 SHORT $LN3@gObjIsConn@3
$LN6@gObjIsConn@3:

; 3404 : 	{
; 3405 : 		return FALSE;

  0000d	33 c0		 xor	 eax, eax

; 3414 : 	{
; 3415 : 		return FALSE;
; 3416 : 	}
; 3417 : 
; 3418 : 	return TRUE;
; 3419 : }

  0000f	5d		 pop	 ebp
  00010	c3		 ret	 0
$LN3@gObjIsConn@3:

; 3406 : 	}
; 3407 : 
; 3408 : 	if ( lpObj->Connected < PLAYER_PLAYING )

  00011	80 78 04 03	 cmp	 BYTE PTR [eax+4], 3

; 3409 : 	{
; 3410 : 		return FALSE;

  00015	72 f6		 jb	 SHORT $LN6@gObjIsConn@3

; 3411 : 	}
; 3412 : 
; 3413 : 	if ( lpObj->CloseCount > 0 )

  00017	33 c9		 xor	 ecx, ecx
  00019	38 48 07	 cmp	 BYTE PTR [eax+7], cl
  0001c	0f 9e c1	 setle	 cl
  0001f	8b c1		 mov	 eax, ecx

; 3414 : 	{
; 3415 : 		return FALSE;
; 3416 : 	}
; 3417 : 
; 3418 : 	return TRUE;
; 3419 : }

  00021	5d		 pop	 ebp
  00022	c3		 ret	 0
?gObjIsConnected@@YAHPAUOBJECTSTRUCT@@@Z ENDP		; gObjIsConnected
_TEXT	ENDS
PUBLIC	?gObjIsConnected@@YAHH@Z			; gObjIsConnected
; Function compile flags: /Ogtp
;	COMDAT ?gObjIsConnected@@YAHH@Z
_TEXT	SEGMENT
_aIndex$ = 8						; size = 4
?gObjIsConnected@@YAHH@Z PROC				; gObjIsConnected, COMDAT

; 3428 : {

  00000	55		 push	 ebp
  00001	8b ec		 mov	 ebp, esp

; 3429 : 	if ( aIndex < 0 || aIndex > OBJMAX-1)

  00003	8b 45 08	 mov	 eax, DWORD PTR _aIndex$[ebp]
  00006	3d e7 1c 00 00	 cmp	 eax, 7399		; 00001ce7H
  0000b	77 12		 ja	 SHORT $LN2@gObjIsConn@4

; 3432 : 	}
; 3433 : 	if ( gObj[aIndex].Connected < PLAYER_PLAYING )

  0000d	69 c0 64 15 00
	00		 imul	 eax, 5476		; 00001564H
  00013	80 b8 04 00 00
	00 03		 cmp	 BYTE PTR ?gObj@@3PAUOBJECTSTRUCT@@A[eax+4], 3
  0001a	1b c0		 sbb	 eax, eax
  0001c	40		 inc	 eax

; 3434 : 	{
; 3435 : 		return FALSE;
; 3436 : 	}
; 3437 : 	return TRUE;
; 3438 : }

  0001d	5d		 pop	 ebp
  0001e	c3		 ret	 0
$LN2@gObjIsConn@4:

; 3430 : 	{
; 3431 : 		return FALSE;

  0001f	33 c0		 xor	 eax, eax

; 3434 : 	{
; 3435 : 		return FALSE;
; 3436 : 	}
; 3437 : 	return TRUE;
; 3438 : }

  00021	5d		 pop	 ebp
  00022	c3		 ret	 0
?gObjIsConnected@@YAHH@Z ENDP				; gObjIsConnected
_TEXT	ENDS
PUBLIC	?gObjIsConnected@@YAHPAUOBJECTSTRUCT@@H@Z	; gObjIsConnected
; Function compile flags: /Ogtp
;	COMDAT ?gObjIsConnected@@YAHPAUOBJECTSTRUCT@@H@Z
_TEXT	SEGMENT
_lpObj$ = 8						; size = 4
_dbnumber$ = 12						; size = 4
?gObjIsConnected@@YAHPAUOBJECTSTRUCT@@H@Z PROC		; gObjIsConnected, COMDAT

; 3441 : {

  00000	55		 push	 ebp
  00001	8b ec		 mov	 ebp, esp

; 3442 : 	if (lpObj->Connected < PLAYER_PLAYING)

  00003	8b 45 08	 mov	 eax, DWORD PTR _lpObj$[ebp]
  00006	80 78 04 03	 cmp	 BYTE PTR [eax+4], 3
  0000a	73 04		 jae	 SHORT $LN2@gObjIsConn@5

; 3443 : 	{
; 3444 : 		return 0;

  0000c	33 c0		 xor	 eax, eax

; 3448 : 	{
; 3449 : 		return 0;
; 3450 : 	}
; 3451 : 
; 3452 : 	return 1;
; 3453 : }

  0000e	5d		 pop	 ebp
  0000f	c3		 ret	 0
$LN2@gObjIsConn@5:

; 3445 : 	}
; 3446 : 
; 3447 : 	if (lpObj->DBNumber != dbnumber)

  00010	8b 50 28	 mov	 edx, DWORD PTR [eax+40]
  00013	33 c9		 xor	 ecx, ecx
  00015	3b 55 0c	 cmp	 edx, DWORD PTR _dbnumber$[ebp]
  00018	0f 94 c1	 sete	 cl
  0001b	8b c1		 mov	 eax, ecx

; 3448 : 	{
; 3449 : 		return 0;
; 3450 : 	}
; 3451 : 
; 3452 : 	return 1;
; 3453 : }

  0001d	5d		 pop	 ebp
  0001e	c3		 ret	 0
?gObjIsConnected@@YAHPAUOBJECTSTRUCT@@H@Z ENDP		; gObjIsConnected
_TEXT	ENDS
PUBLIC	?gObjIsAccontConnect@@YAHHPAD@Z			; gObjIsAccontConnect
; Function compile flags: /Ogtp
;	COMDAT ?gObjIsAccontConnect@@YAHHPAD@Z
_TEXT	SEGMENT
_aIndex$ = 8						; size = 4
_accountid$ = 12					; size = 4
?gObjIsAccontConnect@@YAHHPAD@Z PROC			; gObjIsAccontConnect, COMDAT

; 3456 : {

  00000	55		 push	 ebp
  00001	8b ec		 mov	 ebp, esp

; 3457 : 	if (aIndex <0 || aIndex > OBJMAX-1) // Bad

  00003	8b 45 08	 mov	 eax, DWORD PTR _aIndex$[ebp]
  00006	3d e7 1c 00 00	 cmp	 eax, 7399		; 00001ce7H
  0000b	77 6c		 ja	 SHORT $LN4@gObjIsAcco

; 3460 : 	}
; 3461 : 
; 3462 : 	if (gObj[aIndex].Connected< PLAYER_CONNECTED)

  0000d	69 c0 64 15 00
	00		 imul	 eax, 5476		; 00001564H
  00013	80 b8 04 00 00
	00 01		 cmp	 BYTE PTR ?gObj@@3PAUOBJECTSTRUCT@@A[eax+4], 1

; 3463 : 	{
; 3464 : 		return 0;

  0001a	72 5d		 jb	 SHORT $LN4@gObjIsAcco

; 3465 : 	}
; 3466 : 
; 3467 : 	if (strlen(&gObj[aIndex].AccountID[0]) < 1 )

  0001c	8d 88 64 00 00
	00		 lea	 ecx, DWORD PTR ?gObj@@3PAUOBJECTSTRUCT@@A[eax+100]
  00022	8b c1		 mov	 eax, ecx
  00024	56		 push	 esi
  00025	8d 70 01	 lea	 esi, DWORD PTR [eax+1]
$LL8@gObjIsAcco:
  00028	8a 10		 mov	 dl, BYTE PTR [eax]
  0002a	40		 inc	 eax
  0002b	84 d2		 test	 dl, dl
  0002d	75 f9		 jne	 SHORT $LL8@gObjIsAcco
  0002f	2b c6		 sub	 eax, esi
  00031	5e		 pop	 esi
  00032	83 f8 01	 cmp	 eax, 1

; 3468 : 	{
; 3469 : 		return 0;

  00035	72 42		 jb	 SHORT $LN4@gObjIsAcco

; 3470 : 	}
; 3471 : 
; 3472 : 	if ( strcmp(accountid, &gObj[aIndex].AccountID[0]) != 0)

  00037	8b 45 0c	 mov	 eax, DWORD PTR _accountid$[ebp]
  0003a	8d 9b 00 00 00
	00		 npad	 6
$LL9@gObjIsAcco:
  00040	8a 10		 mov	 dl, BYTE PTR [eax]
  00042	3a 11		 cmp	 dl, BYTE PTR [ecx]
  00044	75 23		 jne	 SHORT $LN10@gObjIsAcco
  00046	84 d2		 test	 dl, dl
  00048	74 12		 je	 SHORT $LN11@gObjIsAcco
  0004a	8a 50 01	 mov	 dl, BYTE PTR [eax+1]
  0004d	3a 51 01	 cmp	 dl, BYTE PTR [ecx+1]
  00050	75 17		 jne	 SHORT $LN10@gObjIsAcco
  00052	83 c0 02	 add	 eax, 2
  00055	83 c1 02	 add	 ecx, 2
  00058	84 d2		 test	 dl, dl
  0005a	75 e4		 jne	 SHORT $LL9@gObjIsAcco
$LN11@gObjIsAcco:
  0005c	33 c0		 xor	 eax, eax
  0005e	33 c9		 xor	 ecx, ecx
  00060	85 c0		 test	 eax, eax
  00062	0f 94 c1	 sete	 cl
  00065	8b c1		 mov	 eax, ecx

; 3473 : 	{
; 3474 : 		return 0;
; 3475 : 	}
; 3476 : 	return 1;
; 3477 : }

  00067	5d		 pop	 ebp
  00068	c3		 ret	 0
$LN10@gObjIsAcco:

; 3470 : 	}
; 3471 : 
; 3472 : 	if ( strcmp(accountid, &gObj[aIndex].AccountID[0]) != 0)

  00069	1b c0		 sbb	 eax, eax
  0006b	83 d8 ff	 sbb	 eax, -1
  0006e	33 c9		 xor	 ecx, ecx
  00070	85 c0		 test	 eax, eax
  00072	0f 94 c1	 sete	 cl
  00075	8b c1		 mov	 eax, ecx

; 3473 : 	{
; 3474 : 		return 0;
; 3475 : 	}
; 3476 : 	return 1;
; 3477 : }

  00077	5d		 pop	 ebp
  00078	c3		 ret	 0
$LN4@gObjIsAcco:

; 3458 : 	{
; 3459 : 		return 0;

  00079	33 c0		 xor	 eax, eax

; 3473 : 	{
; 3474 : 		return 0;
; 3475 : 	}
; 3476 : 	return 1;
; 3477 : }

  0007b	5d		 pop	 ebp
  0007c	c3		 ret	 0
?gObjIsAccontConnect@@YAHHPAD@Z ENDP			; gObjIsAccontConnect
_TEXT	ENDS
PUBLIC	?gObjJoominCheck@@YAHHPAD@Z			; gObjJoominCheck
EXTRN	_strcmpi:PROC
EXTRN	_strncmp:PROC
EXTRN	?gLanguage@@3HA:DWORD				; gLanguage
; Function compile flags: /Ogtp
;	COMDAT ?gObjJoominCheck@@YAHHPAD@Z
_TEXT	SEGMENT
_aIndex$ = 8						; size = 4
_szInJN$ = 12						; size = 4
?gObjJoominCheck@@YAHHPAD@Z PROC			; gObjJoominCheck, COMDAT

; 3480 : {

  00000	55		 push	 ebp
  00001	8b ec		 mov	 ebp, esp

; 3481 : 	LPOBJ lpObj = &gObj[aIndex];
; 3482 : 	
; 3483 : 	switch ( gLanguage )

  00003	a1 00 00 00 00	 mov	 eax, DWORD PTR ?gLanguage@@3HA ; gLanguage
  00008	56		 push	 esi
  00009	8b 75 08	 mov	 esi, DWORD PTR _aIndex$[ebp]
  0000c	69 f6 64 15 00
	00		 imul	 esi, 5476		; 00001564H
  00012	48		 dec	 eax
  00013	81 c6 00 00 00
	00		 add	 esi, OFFSET ?gObj@@3PAUOBJECTSTRUCT@@A ; gObj
  00019	57		 push	 edi
  0001a	83 f8 07	 cmp	 eax, 7
  0001d	0f 87 a6 00 00
	00		 ja	 $LN2@gObjJoomin
  00023	8b 7d 0c	 mov	 edi, DWORD PTR _szInJN$[ebp]
  00026	ff 24 85 00 00
	00 00		 jmp	 DWORD PTR $LN24@gObjJoomin[eax*4]
$LN16@gObjJoomin:

; 3484 : 	{
; 3485 : 		case 1:
; 3486 : 		case 5:
; 3487 : 		case 6:
; 3488 : 		case 8:
; 3489 : 			if ( strncmp(szInJN, lpObj->LastJoominNumber, 7) == 0 )

  0002d	6a 07		 push	 7
  0002f	8d 46 7a	 lea	 eax, DWORD PTR [esi+122]
  00032	50		 push	 eax
  00033	57		 push	 edi
  00034	e8 00 00 00 00	 call	 _strncmp
  00039	83 c4 0c	 add	 esp, 12			; 0000000cH
  0003c	85 c0		 test	 eax, eax

; 3490 : 			{
; 3491 : 				return TRUE;

  0003e	74 24		 je	 SHORT $LN22@gObjJoomin
$LN15@gObjJoomin:

; 3492 : 			}
; 3493 : 		case 2:
; 3494 : 			if ( strncmp(szInJN, &lpObj->LastJoominNumber[5], 8) == 0 )

  00040	6a 08		 push	 8
  00042	8d 4e 7f	 lea	 ecx, DWORD PTR [esi+127]
  00045	51		 push	 ecx
  00046	57		 push	 edi
  00047	e8 00 00 00 00	 call	 _strncmp
  0004c	83 c4 0c	 add	 esp, 12			; 0000000cH
  0004f	85 c0		 test	 eax, eax

; 3495 : 			{
; 3496 : 				return TRUE;

  00051	74 11		 je	 SHORT $LN22@gObjJoomin
$LN13@gObjJoomin:

; 3497 : 			}
; 3498 : 		case 3:
; 3499 : 			if ( strcmpi(szInJN, &lpObj->LastJoominNumber[6]) == 0 )

  00053	83 ee 80	 sub	 esi, -128		; ffffff80H
  00056	56		 push	 esi
  00057	57		 push	 edi
  00058	e8 00 00 00 00	 call	 _strcmpi
  0005d	83 c4 08	 add	 esp, 8
  00060	85 c0		 test	 eax, eax
  00062	75 71		 jne	 SHORT $LN1@gObjJoomin
$LN22@gObjJoomin:
  00064	5f		 pop	 edi

; 3500 : 			{
; 3501 : 				return TRUE;

  00065	b8 01 00 00 00	 mov	 eax, 1
  0006a	5e		 pop	 esi

; 3538 : }

  0006b	5d		 pop	 ebp
  0006c	c3		 ret	 0
$LN10@gObjJoomin:

; 3502 : 			}
; 3503 : 			break;
; 3504 : 		case 4:
; 3505 : 			if ( strlen(szInJN) < 2 )

  0006d	8b c7		 mov	 eax, edi
  0006f	8d 50 01	 lea	 edx, DWORD PTR [eax+1]
$LL21@gObjJoomin:
  00072	8a 08		 mov	 cl, BYTE PTR [eax]
  00074	40		 inc	 eax
  00075	84 c9		 test	 cl, cl
  00077	75 f9		 jne	 SHORT $LL21@gObjJoomin
  00079	2b c2		 sub	 eax, edx
  0007b	83 f8 02	 cmp	 eax, 2

; 3506 : 			{
; 3507 : 				return FALSE;

  0007e	72 55		 jb	 SHORT $LN1@gObjJoomin

; 3508 : 			}
; 3509 : 
; 3510 : 			if ( (szInJN[0] >= 'A' && szInJN[0] <= 'Z') || (szInJN[0] >= 'a' && szInJN[0] <= 'z') )

  00080	8a 07		 mov	 al, BYTE PTR [edi]
  00082	3c 41		 cmp	 al, 65			; 00000041H
  00084	7c 04		 jl	 SHORT $LN6@gObjJoomin
  00086	3c 5a		 cmp	 al, 90			; 0000005aH
  00088	7e 08		 jle	 SHORT $LN7@gObjJoomin
$LN6@gObjJoomin:
  0008a	3c 61		 cmp	 al, 97			; 00000061H
  0008c	7c 47		 jl	 SHORT $LN1@gObjJoomin
  0008e	3c 7a		 cmp	 al, 122			; 0000007aH
  00090	7f 43		 jg	 SHORT $LN1@gObjJoomin
$LN7@gObjJoomin:

; 3511 : 			{
; 3512 : 				if ( szInJN[0] >= 'A' && szInJN[0] <= 'Z' )

  00092	3c 41		 cmp	 al, 65			; 00000041H
  00094	7c 08		 jl	 SHORT $LN5@gObjJoomin
  00096	3c 5a		 cmp	 al, 90			; 0000005aH
  00098	7f 04		 jg	 SHORT $LN5@gObjJoomin

; 3513 : 				{
; 3514 : 					szInJN[0] = szInJN[0] + 32;

  0009a	04 20		 add	 al, 32			; 00000020H
  0009c	88 07		 mov	 BYTE PTR [edi], al
$LN5@gObjJoomin:

; 3515 : 				}
; 3516 : 
; 3517 : 				if ( lpObj->LastJoominNumber[0] >= 'A' && lpObj->LastJoominNumber[0] <= 'Z' )

  0009e	8a 46 7a	 mov	 al, BYTE PTR [esi+122]
  000a1	8d 4e 7a	 lea	 ecx, DWORD PTR [esi+122]
  000a4	3c 41		 cmp	 al, 65			; 00000041H
  000a6	7c 08		 jl	 SHORT $LN4@gObjJoomin
  000a8	3c 5a		 cmp	 al, 90			; 0000005aH
  000aa	7f 04		 jg	 SHORT $LN4@gObjJoomin

; 3518 : 				{
; 3519 : 					lpObj->LastJoominNumber[0] = lpObj->LastJoominNumber[0] + 32;

  000ac	04 20		 add	 al, 32			; 00000020H
  000ae	88 01		 mov	 BYTE PTR [ecx], al
$LN4@gObjJoomin:

; 3520 : 				}
; 3521 : 
; 3522 : 				if ( strncmp(lpObj->LastJoominNumber, szInJN, 10) == 0 )

  000b0	6a 0a		 push	 10			; 0000000aH
  000b2	57		 push	 edi
  000b3	51		 push	 ecx
$LN23@gObjJoomin:
  000b4	e8 00 00 00 00	 call	 _strncmp
  000b9	83 c4 0c	 add	 esp, 12			; 0000000cH
  000bc	85 c0		 test	 eax, eax
  000be	75 15		 jne	 SHORT $LN1@gObjJoomin

; 3523 : 				{
; 3524 : 					return TRUE;

  000c0	5f		 pop	 edi
  000c1	b8 01 00 00 00	 mov	 eax, 1
  000c6	5e		 pop	 esi

; 3538 : }

  000c7	5d		 pop	 ebp
  000c8	c3		 ret	 0
$LN2@gObjJoomin:

; 3525 : 				}
; 3526 : 			}
; 3527 : 			break;
; 3528 : 
; 3529 : 		default:
; 3530 : 
; 3531 : 			if ( strncmp(szInJN, &lpObj->LastJoominNumber[6], 7) == 0 )

  000c9	8b 55 0c	 mov	 edx, DWORD PTR _szInJN$[ebp]
  000cc	6a 07		 push	 7
  000ce	83 ee 80	 sub	 esi, -128		; ffffff80H
  000d1	56		 push	 esi
  000d2	52		 push	 edx

; 3532 : 			{
; 3533 : 				return TRUE;

  000d3	eb df		 jmp	 SHORT $LN23@gObjJoomin
$LN1@gObjJoomin:
  000d5	5f		 pop	 edi

; 3534 : 			}
; 3535 : 	}
; 3536 : 
; 3537 : 	return FALSE;

  000d6	33 c0		 xor	 eax, eax
  000d8	5e		 pop	 esi

; 3538 : }

  000d9	5d		 pop	 ebp
  000da	c3		 ret	 0
  000db	90		 npad	 1
$LN24@gObjJoomin:
  000dc	00 00 00 00	 DD	 $LN16@gObjJoomin
  000e0	00 00 00 00	 DD	 $LN15@gObjJoomin
  000e4	00 00 00 00	 DD	 $LN13@gObjJoomin
  000e8	00 00 00 00	 DD	 $LN10@gObjJoomin
  000ec	00 00 00 00	 DD	 $LN16@gObjJoomin
  000f0	00 00 00 00	 DD	 $LN16@gObjJoomin
  000f4	00 00 00 00	 DD	 $LN2@gObjJoomin
  000f8	00 00 00 00	 DD	 $LN16@gObjJoomin
?gObjJoominCheck@@YAHHPAD@Z ENDP			; gObjJoominCheck
_TEXT	ENDS
PUBLIC	?gObjTaiwanJoominCheck@@YAHHPAD@Z		; gObjTaiwanJoominCheck
; Function compile flags: /Ogtp
;	COMDAT ?gObjTaiwanJoominCheck@@YAHHPAD@Z
_TEXT	SEGMENT
_aIndex$ = 8						; size = 4
_szInJN$ = 12						; size = 4
?gObjTaiwanJoominCheck@@YAHHPAD@Z PROC			; gObjTaiwanJoominCheck, COMDAT

; 3541 : {

  00000	55		 push	 ebp
  00001	8b ec		 mov	 ebp, esp
  00003	56		 push	 esi

; 3543 : 
; 3544 : 	if ( strlen(szInJN) < 2 )

  00004	8b 75 0c	 mov	 esi, DWORD PTR _szInJN$[ebp]
  00007	8b c6		 mov	 eax, esi
  00009	8d 50 01	 lea	 edx, DWORD PTR [eax+1]
  0000c	8d 64 24 00	 npad	 4
$LL5@gObjTaiwan:
  00010	8a 08		 mov	 cl, BYTE PTR [eax]
  00012	40		 inc	 eax
  00013	84 c9		 test	 cl, cl
  00015	75 f9		 jne	 SHORT $LL5@gObjTaiwan
  00017	2b c2		 sub	 eax, edx
  00019	83 f8 02	 cmp	 eax, 2
  0001c	73 05		 jae	 SHORT $LN2@gObjTaiwan

; 3545 : 	{
; 3546 : 		return FALSE;

  0001e	33 c0		 xor	 eax, eax
  00020	5e		 pop	 esi

; 3550 : 	{
; 3551 : 		return TRUE;
; 3552 : 	}
; 3553 : 
; 3554 : 	return FALSE;
; 3555 : }

  00021	5d		 pop	 ebp
  00022	c3		 ret	 0
$LN2@gObjTaiwan:

; 3542 : 	LPOBJ lpObj = &gObj[aIndex];

  00023	8b 45 08	 mov	 eax, DWORD PTR _aIndex$[ebp]
  00026	69 c0 64 15 00
	00		 imul	 eax, 5476		; 00001564H

; 3547 : 	}
; 3548 : 	
; 3549 : 	if ( strncmp(&lpObj->LastJoominNumber[1], szInJN, 9) == 0 )

  0002c	6a 09		 push	 9
  0002e	05 7b 00 00 00	 add	 eax, OFFSET ?gObj@@3PAUOBJECTSTRUCT@@A+123
  00033	56		 push	 esi
  00034	50		 push	 eax
  00035	e8 00 00 00 00	 call	 _strncmp
  0003a	83 c4 0c	 add	 esp, 12			; 0000000cH
  0003d	f7 d8		 neg	 eax
  0003f	1b c0		 sbb	 eax, eax
  00041	40		 inc	 eax
  00042	5e		 pop	 esi

; 3550 : 	{
; 3551 : 		return TRUE;
; 3552 : 	}
; 3553 : 
; 3554 : 	return FALSE;
; 3555 : }

  00043	5d		 pop	 ebp
  00044	c3		 ret	 0
?gObjTaiwanJoominCheck@@YAHHPAD@Z ENDP			; gObjTaiwanJoominCheck
_TEXT	ENDS
PUBLIC	?gObjSetAccountLogin@@YAHHPADHH0@Z		; gObjSetAccountLogin
EXTRN	?SendGame@CReconnect@@QAEXH@Z:PROC		; CReconnect::SendGame
EXTRN	?gReconnect@@3VCReconnect@@A:BYTE		; gReconnect
; Function compile flags: /Ogtp
;	COMDAT ?gObjSetAccountLogin@@YAHHPADHH0@Z
_TEXT	SEGMENT
_aIndex$ = 8						; size = 4
_szId$ = 12						; size = 4
_aUserNumber$ = 16					; size = 4
_aDBNumber$ = 20					; size = 4
_JoominNumber$ = 24					; size = 4
?gObjSetAccountLogin@@YAHHPADHH0@Z PROC			; gObjSetAccountLogin, COMDAT

; 3646 : {

  00000	55		 push	 ebp
  00001	8b ec		 mov	 ebp, esp
  00003	53		 push	 ebx

; 3647 : 	if ( !OBJMAX_RANGE(aIndex) )

  00004	8b 5d 08	 mov	 ebx, DWORD PTR _aIndex$[ebp]
  00007	85 db		 test	 ebx, ebx
  00009	78 0f		 js	 SHORT $LN11@gObjSetAcc
  0000b	33 c0		 xor	 eax, eax
  0000d	81 fb e7 1c 00
	00		 cmp	 ebx, 7399		; 00001ce7H
  00013	0f 9e c0	 setle	 al
  00016	85 c0		 test	 eax, eax
  00018	75 1e		 jne	 SHORT $LN4@gObjSetAcc
$LN11@gObjSetAcc:

; 3648 : 	{
; 3649 : 		LogAdd(LOG_BLACK, "error : %s %d", __FILE__, __LINE__);

  0001a	68 41 0e 00 00	 push	 3649			; 00000e41H
  0001f	68 00 00 00 00	 push	 OFFSET ??_C@_08DCNFOMBO@user?4cpp?$AA@
  00024	68 00 00 00 00	 push	 OFFSET ??_C@_0O@CKAEPJAF@error?5?3?5?$CFs?5?$CFd?$AA@
  00029	6a 00		 push	 0
  0002b	e8 00 00 00 00	 call	 ?LogAdd@@YAXW4eLogColor@@PADZZ ; LogAdd
  00030	83 c4 10	 add	 esp, 16			; 00000010H

; 3650 : 		return 0;

  00033	33 c0		 xor	 eax, eax
  00035	5b		 pop	 ebx

; 3676 : 
; 3677 : }

  00036	5d		 pop	 ebp
  00037	c3		 ret	 0
$LN4@gObjSetAcc:
  00038	56		 push	 esi

; 3651 : 	}
; 3652 : 
; 3653 : 	if ( gObj[aIndex].Connected != PLAYER_CONNECTED )

  00039	8b f3		 mov	 esi, ebx
  0003b	69 f6 64 15 00
	00		 imul	 esi, 5476		; 00001564H
  00041	80 be 04 00 00
	00 01		 cmp	 BYTE PTR ?gObj@@3PAUOBJECTSTRUCT@@A[esi+4], 1
  00048	74 33		 je	 SHORT $LN3@gObjSetAcc

; 3654 : 	{
; 3655 : 		LogAdd(LOG_BLACK, lMsg.Get(MSGGET(2, 6)), aIndex, szId, aDBNumber, __FILE__, __LINE__);

  0004a	8b 45 14	 mov	 eax, DWORD PTR _aDBNumber$[ebp]
  0004d	8b 4d 0c	 mov	 ecx, DWORD PTR _szId$[ebp]
  00050	68 47 0e 00 00	 push	 3655			; 00000e47H
  00055	68 00 00 00 00	 push	 OFFSET ??_C@_08DCNFOMBO@user?4cpp?$AA@
  0005a	50		 push	 eax
  0005b	51		 push	 ecx
  0005c	53		 push	 ebx
  0005d	68 06 02 00 00	 push	 518			; 00000206H
  00062	b9 00 00 00 00	 mov	 ecx, OFFSET ?lMsg@@3VCMsg@@A ; lMsg
  00067	e8 00 00 00 00	 call	 ?Get@CMsg@@QAEPADH@Z	; CMsg::Get
  0006c	50		 push	 eax
  0006d	6a 00		 push	 0
  0006f	e8 00 00 00 00	 call	 ?LogAdd@@YAXW4eLogColor@@PADZZ ; LogAdd
  00074	83 c4 1c	 add	 esp, 28			; 0000001cH
  00077	5e		 pop	 esi

; 3656 : 		return 0;

  00078	33 c0		 xor	 eax, eax
  0007a	5b		 pop	 ebx

; 3676 : 
; 3677 : }

  0007b	5d		 pop	 ebp
  0007c	c3		 ret	 0
$LN3@gObjSetAcc:
  0007d	57		 push	 edi

; 3657 : 	}
; 3658 : 
; 3659 : 	if ( strcmp(gObj[aIndex].AccountID, szId) != 0 )

  0007e	8b 7d 0c	 mov	 edi, DWORD PTR _szId$[ebp]
  00081	8b cf		 mov	 ecx, edi
  00083	8d 86 64 00 00
	00		 lea	 eax, DWORD PTR ?gObj@@3PAUOBJECTSTRUCT@@A[esi+100]
  00089	8d a4 24 00 00
	00 00		 npad	 7
$LL12@gObjSetAcc:
  00090	8a 10		 mov	 dl, BYTE PTR [eax]
  00092	3a 11		 cmp	 dl, BYTE PTR [ecx]
  00094	75 1a		 jne	 SHORT $LN13@gObjSetAcc
  00096	84 d2		 test	 dl, dl
  00098	74 12		 je	 SHORT $LN14@gObjSetAcc
  0009a	8a 50 01	 mov	 dl, BYTE PTR [eax+1]
  0009d	3a 51 01	 cmp	 dl, BYTE PTR [ecx+1]
  000a0	75 0e		 jne	 SHORT $LN13@gObjSetAcc
  000a2	83 c0 02	 add	 eax, 2
  000a5	83 c1 02	 add	 ecx, 2
  000a8	84 d2		 test	 dl, dl
  000aa	75 e4		 jne	 SHORT $LL12@gObjSetAcc
$LN14@gObjSetAcc:
  000ac	33 c0		 xor	 eax, eax
  000ae	eb 05		 jmp	 SHORT $LN15@gObjSetAcc
$LN13@gObjSetAcc:
  000b0	1b c0		 sbb	 eax, eax
  000b2	83 d8 ff	 sbb	 eax, -1
$LN15@gObjSetAcc:
  000b5	85 c0		 test	 eax, eax
  000b7	74 22		 je	 SHORT $LN2@gObjSetAcc

; 3660 : 	{
; 3661 : 		LogAdd(LOG_BLACK, lMsg.Get(MSGGET(2, 7)), szId);

  000b9	57		 push	 edi
  000ba	68 07 02 00 00	 push	 519			; 00000207H
  000bf	b9 00 00 00 00	 mov	 ecx, OFFSET ?lMsg@@3VCMsg@@A ; lMsg
  000c4	e8 00 00 00 00	 call	 ?Get@CMsg@@QAEPADH@Z	; CMsg::Get
  000c9	50		 push	 eax
  000ca	6a 00		 push	 0
  000cc	e8 00 00 00 00	 call	 ?LogAdd@@YAXW4eLogColor@@PADZZ ; LogAdd
  000d1	83 c4 0c	 add	 esp, 12			; 0000000cH
  000d4	5f		 pop	 edi
  000d5	5e		 pop	 esi

; 3662 : 		return 0;

  000d6	33 c0		 xor	 eax, eax
  000d8	5b		 pop	 ebx

; 3676 : 
; 3677 : }

  000d9	5d		 pop	 ebp
  000da	c3		 ret	 0
$LN2@gObjSetAcc:

; 3663 : 	}
; 3664 : 
; 3665 : 	gObj[aIndex].UserNumber = aUserNumber;

  000db	8b 55 10	 mov	 edx, DWORD PTR _aUserNumber$[ebp]

; 3666 : 	gObj[aIndex].DBNumber = aDBNumber;

  000de	8b 45 14	 mov	 eax, DWORD PTR _aDBNumber$[ebp]
  000e1	89 96 24 00 00
	00		 mov	 DWORD PTR ?gObj@@3PAUOBJECTSTRUCT@@A[esi+36], edx
  000e7	89 86 28 00 00
	00		 mov	 DWORD PTR ?gObj@@3PAUOBJECTSTRUCT@@A[esi+40], eax

; 3667 : 	gObj[aIndex].Connected = PLAYER_LOGGED;
; 3668 : 	strcpy(gObj[aIndex].LastJoominNumber, JoominNumber);

  000ed	8b 45 18	 mov	 eax, DWORD PTR _JoominNumber$[ebp]
  000f0	8d 96 7a 00 00
	00		 lea	 edx, DWORD PTR ?gObj@@3PAUOBJECTSTRUCT@@A[esi+122]
  000f6	c6 86 04 00 00
	00 02		 mov	 BYTE PTR ?gObj@@3PAUOBJECTSTRUCT@@A[esi+4], 2
  000fd	2b d0		 sub	 edx, eax
  000ff	90		 npad	 1
$LL9@gObjSetAcc:
  00100	8a 08		 mov	 cl, BYTE PTR [eax]
  00102	88 0c 02	 mov	 BYTE PTR [edx+eax], cl
  00105	40		 inc	 eax
  00106	84 c9		 test	 cl, cl
  00108	75 f6		 jne	 SHORT $LL9@gObjSetAcc

; 3669 : 	// ---
; 3670 : 	if(gObj[aIndex].bReconnect)

  0010a	38 8e 5c 15 00
	00		 cmp	 BYTE PTR ?gObj@@3PAUOBJECTSTRUCT@@A[esi+5468], cl
  00110	74 0b		 je	 SHORT $LN1@gObjSetAcc

; 3671 : 	{
; 3672 : 		gReconnect.SendGame(aIndex);

  00112	53		 push	 ebx
  00113	b9 00 00 00 00	 mov	 ecx, OFFSET ?gReconnect@@3VCReconnect@@A ; gReconnect
  00118	e8 00 00 00 00	 call	 ?SendGame@CReconnect@@QAEXH@Z ; CReconnect::SendGame
$LN1@gObjSetAcc:

; 3673 : 	}
; 3674 : 	// ---
; 3675 : 	return TRUE;

  0011d	5f		 pop	 edi
  0011e	5e		 pop	 esi
  0011f	b8 01 00 00 00	 mov	 eax, 1
  00124	5b		 pop	 ebx

; 3676 : 
; 3677 : }

  00125	5d		 pop	 ebp
  00126	c3		 ret	 0
?gObjSetAccountLogin@@YAHHPADHH0@Z ENDP			; gObjSetAccountLogin
_TEXT	ENDS
PUBLIC	?gObjGetUserNumber@@YAHH@Z			; gObjGetUserNumber
; Function compile flags: /Ogtp
;	COMDAT ?gObjGetUserNumber@@YAHH@Z
_TEXT	SEGMENT
_aIndex$ = 8						; size = 4
?gObjGetUserNumber@@YAHH@Z PROC				; gObjGetUserNumber, COMDAT

; 3680 : {

  00000	55		 push	 ebp
  00001	8b ec		 mov	 ebp, esp

; 3681 : 	int usernumber;
; 3682 : 
; 3683 : 	if ( !OBJMAX_RANGE(aIndex))

  00003	8b 45 08	 mov	 eax, DWORD PTR _aIndex$[ebp]
  00006	85 c0		 test	 eax, eax
  00008	78 0e		 js	 SHORT $LN6@gObjGetUse
  0000a	33 c9		 xor	 ecx, ecx
  0000c	3d e7 1c 00 00	 cmp	 eax, 7399		; 00001ce7H
  00011	0f 9e c1	 setle	 cl
  00014	85 c9		 test	 ecx, ecx
  00016	75 1d		 jne	 SHORT $LN1@gObjGetUse
$LN6@gObjGetUse:

; 3684 : 	{
; 3685 : 		LogAdd(LOG_BLACK, "error : %s %d",__FILE__, __LINE__);

  00018	68 65 0e 00 00	 push	 3685			; 00000e65H
  0001d	68 00 00 00 00	 push	 OFFSET ??_C@_08DCNFOMBO@user?4cpp?$AA@
  00022	68 00 00 00 00	 push	 OFFSET ??_C@_0O@CKAEPJAF@error?5?3?5?$CFs?5?$CFd?$AA@
  00027	6a 00		 push	 0
  00029	e8 00 00 00 00	 call	 ?LogAdd@@YAXW4eLogColor@@PADZZ ; LogAdd
  0002e	83 c4 10	 add	 esp, 16			; 00000010H

; 3686 : 		return 0;

  00031	33 c0		 xor	 eax, eax

; 3691 : }

  00033	5d		 pop	 ebp
  00034	c3		 ret	 0
$LN1@gObjGetUse:

; 3687 : 	}
; 3688 : 
; 3689 : 	usernumber=gObj[aIndex].UserNumber;

  00035	69 c0 64 15 00
	00		 imul	 eax, 5476		; 00001564H

; 3690 : 	return usernumber;

  0003b	8b 80 24 00 00
	00		 mov	 eax, DWORD PTR ?gObj@@3PAUOBJECTSTRUCT@@A[eax+36]

; 3691 : }

  00041	5d		 pop	 ebp
  00042	c3		 ret	 0
?gObjGetUserNumber@@YAHH@Z ENDP				; gObjGetUserNumber
_TEXT	ENDS
PUBLIC	?gObjGetNumber@@YAHHAAH0@Z			; gObjGetNumber
; Function compile flags: /Ogtp
;	COMDAT ?gObjGetNumber@@YAHHAAH0@Z
_TEXT	SEGMENT
_aIndex$ = 8						; size = 4
_UN$ = 12						; size = 4
_DBN$ = 16						; size = 4
?gObjGetNumber@@YAHHAAH0@Z PROC				; gObjGetNumber, COMDAT

; 3694 : {

  00000	55		 push	 ebp
  00001	8b ec		 mov	 ebp, esp

; 3695 : 	if ( aIndex < 0 || aIndex > OBJMAX-1)

  00003	8b 45 08	 mov	 eax, DWORD PTR _aIndex$[ebp]
  00006	3d e7 1c 00 00	 cmp	 eax, 7399		; 00001ce7H
  0000b	77 23		 ja	 SHORT $LN1@gObjGetNum

; 3699 : 	}
; 3700 : 	UN=gObj[aIndex].UserNumber;

  0000d	8b 55 0c	 mov	 edx, DWORD PTR _UN$[ebp]
  00010	69 c0 64 15 00
	00		 imul	 eax, 5476		; 00001564H
  00016	8b 88 24 00 00
	00		 mov	 ecx, DWORD PTR ?gObj@@3PAUOBJECTSTRUCT@@A[eax+36]
  0001c	89 0a		 mov	 DWORD PTR [edx], ecx

; 3701 : 	DBN=gObj[aIndex].DBNumber;

  0001e	8b 80 28 00 00
	00		 mov	 eax, DWORD PTR ?gObj@@3PAUOBJECTSTRUCT@@A[eax+40]
  00024	8b 4d 10	 mov	 ecx, DWORD PTR _DBN$[ebp]
  00027	89 01		 mov	 DWORD PTR [ecx], eax

; 3702 : 	return 1;

  00029	b8 01 00 00 00	 mov	 eax, 1

; 3703 : }

  0002e	5d		 pop	 ebp
  0002f	c3		 ret	 0
$LN1@gObjGetNum:

; 3696 : 	{
; 3697 : 		LogAdd(LOG_BLACK, "error : %s %d",__FILE__, __LINE__);

  00030	68 71 0e 00 00	 push	 3697			; 00000e71H
  00035	68 00 00 00 00	 push	 OFFSET ??_C@_08DCNFOMBO@user?4cpp?$AA@
  0003a	68 00 00 00 00	 push	 OFFSET ??_C@_0O@CKAEPJAF@error?5?3?5?$CFs?5?$CFd?$AA@
  0003f	6a 00		 push	 0
  00041	e8 00 00 00 00	 call	 ?LogAdd@@YAXW4eLogColor@@PADZZ ; LogAdd
  00046	83 c4 10	 add	 esp, 16			; 00000010H

; 3698 : 		return 0;

  00049	33 c0		 xor	 eax, eax

; 3703 : }

  0004b	5d		 pop	 ebp
  0004c	c3		 ret	 0
?gObjGetNumber@@YAHHAAH0@Z ENDP				; gObjGetNumber
_TEXT	ENDS
PUBLIC	?gObjGetAccountId@@YAPADH@Z			; gObjGetAccountId
; Function compile flags: /Ogtp
;	COMDAT ?gObjGetAccountId@@YAPADH@Z
_TEXT	SEGMENT
_aIndex$ = 8						; size = 4
?gObjGetAccountId@@YAPADH@Z PROC			; gObjGetAccountId, COMDAT

; 3707 : {

  00000	55		 push	 ebp
  00001	8b ec		 mov	 ebp, esp

; 3708 : 	if ( aIndex < 0 || aIndex > OBJMAX-1)

  00003	8b 45 08	 mov	 eax, DWORD PTR _aIndex$[ebp]
  00006	3d e7 1c 00 00	 cmp	 eax, 7399		; 00001ce7H
  0000b	77 17		 ja	 SHORT $LN2@gObjGetAcc

; 3712 : 	}
; 3713 : 
; 3714 : 	if ( gObj[aIndex].Connected == 2)

  0000d	69 c0 64 15 00
	00		 imul	 eax, 5476		; 00001564H
  00013	80 b8 04 00 00
	00 02		 cmp	 BYTE PTR ?gObj@@3PAUOBJECTSTRUCT@@A[eax+4], 2
  0001a	75 21		 jne	 SHORT $LN1@gObjGetAcc

; 3715 : 	{
; 3716 : 		return &gObj[aIndex].AccountID[0];

  0001c	8d 80 64 00 00
	00		 lea	 eax, DWORD PTR ?gObj@@3PAUOBJECTSTRUCT@@A[eax+100]

; 3717 : 	}
; 3718 : 	return 0;
; 3719 : }

  00022	5d		 pop	 ebp
  00023	c3		 ret	 0
$LN2@gObjGetAcc:

; 3709 : 	{
; 3710 : 		LogAdd(LOG_BLACK, "error : %s %d",__FILE__, __LINE__);

  00024	68 7e 0e 00 00	 push	 3710			; 00000e7eH
  00029	68 00 00 00 00	 push	 OFFSET ??_C@_08DCNFOMBO@user?4cpp?$AA@
  0002e	68 00 00 00 00	 push	 OFFSET ??_C@_0O@CKAEPJAF@error?5?3?5?$CFs?5?$CFd?$AA@
  00033	6a 00		 push	 0
  00035	e8 00 00 00 00	 call	 ?LogAdd@@YAXW4eLogColor@@PADZZ ; LogAdd
  0003a	83 c4 10	 add	 esp, 16			; 00000010H
$LN1@gObjGetAcc:

; 3711 : 		return 0;

  0003d	33 c0		 xor	 eax, eax

; 3717 : 	}
; 3718 : 	return 0;
; 3719 : }

  0003f	5d		 pop	 ebp
  00040	c3		 ret	 0
?gObjGetAccountId@@YAPADH@Z ENDP			; gObjGetAccountId
_TEXT	ENDS
PUBLIC	?gObjGetIndex@@YAHPAD@Z				; gObjGetIndex
; Function compile flags: /Ogtp
;	COMDAT ?gObjGetIndex@@YAHPAD@Z
_TEXT	SEGMENT
_szId$ = 8						; size = 4
?gObjGetIndex@@YAHPAD@Z PROC				; gObjGetIndex, COMDAT

; 3722 : {

  00000	55		 push	 ebp
  00001	8b ec		 mov	 ebp, esp
  00003	53		 push	 ebx
  00004	56		 push	 esi
  00005	57		 push	 edi

; 3723 : 	int n;
; 3724 : 
; 3725 : 	for (n=OBJ_STARTUSERINDEX;n<OBJMAX; n++)

  00006	8b 7d 08	 mov	 edi, DWORD PTR _szId$[ebp]
  00009	b8 00 19 00 00	 mov	 eax, 6400		; 00001900H
  0000e	be 6f c4 16 02	 mov	 esi, OFFSET ?gObj@@3PAUOBJECTSTRUCT@@A+35046511
$LL6@gObjGetInd:

; 3726 : 	{
; 3727 : 		if ( gObj[n].Connected >= PLAYER_PLAYING)

  00013	80 7e 95 03	 cmp	 BYTE PTR [esi-107], 3
  00017	72 33		 jb	 SHORT $LN5@gObjGetInd

; 3728 : 		{
; 3729 : 			if ( gObj[n].Name[0] == *szId )

  00019	8a 0e		 mov	 cl, BYTE PTR [esi]
  0001b	3a 0f		 cmp	 cl, BYTE PTR [edi]
  0001d	75 2d		 jne	 SHORT $LN5@gObjGetInd

; 3730 : 			{
; 3731 : 				if ( strcmp(&gObj[n].Name[0] , szId) == 0)

  0001f	8b d7		 mov	 edx, edi
  00021	8b ce		 mov	 ecx, esi
$LL12@gObjGetInd:
  00023	8a 19		 mov	 bl, BYTE PTR [ecx]
  00025	3a 1a		 cmp	 bl, BYTE PTR [edx]
  00027	75 1a		 jne	 SHORT $LN13@gObjGetInd
  00029	84 db		 test	 bl, bl
  0002b	74 12		 je	 SHORT $LN14@gObjGetInd
  0002d	8a 59 01	 mov	 bl, BYTE PTR [ecx+1]
  00030	3a 5a 01	 cmp	 bl, BYTE PTR [edx+1]
  00033	75 0e		 jne	 SHORT $LN13@gObjGetInd
  00035	83 c1 02	 add	 ecx, 2
  00038	83 c2 02	 add	 edx, 2
  0003b	84 db		 test	 bl, bl
  0003d	75 e4		 jne	 SHORT $LL12@gObjGetInd
$LN14@gObjGetInd:
  0003f	33 c9		 xor	 ecx, ecx
  00041	eb 05		 jmp	 SHORT $LN15@gObjGetInd
$LN13@gObjGetInd:
  00043	1b c9		 sbb	 ecx, ecx
  00045	83 d9 ff	 sbb	 ecx, -1
$LN15@gObjGetInd:
  00048	85 c9		 test	 ecx, ecx
  0004a	74 12		 je	 SHORT $LN7@gObjGetInd
$LN5@gObjGetInd:

; 3723 : 	int n;
; 3724 : 
; 3725 : 	for (n=OBJ_STARTUSERINDEX;n<OBJMAX; n++)

  0004c	81 c6 64 15 00
	00		 add	 esi, 5476		; 00001564H
  00052	40		 inc	 eax
  00053	81 fe 0f 53 6a
	02		 cmp	 esi, OFFSET ?gObj@@3PAUOBJECTSTRUCT@@A+40522511
  00059	7c b8		 jl	 SHORT $LL6@gObjGetInd

; 3732 : 				{
; 3733 : 					return n;
; 3734 : 				}
; 3735 : 			}
; 3736 : 		}
; 3737 : 	}
; 3738 : 	return -1;

  0005b	83 c8 ff	 or	 eax, -1
$LN7@gObjGetInd:
  0005e	5f		 pop	 edi
  0005f	5e		 pop	 esi
  00060	5b		 pop	 ebx

; 3739 : }

  00061	5d		 pop	 ebp
  00062	c3		 ret	 0
?gObjGetIndex@@YAHPAD@Z ENDP				; gObjGetIndex
_TEXT	ENDS
PUBLIC	??_C@_0BN@NCIMKKEA@error?5?3?5index?5error?5?$CB?$CB?5?$CFs?5?$CFd?$AA@ ; `string'
PUBLIC	?gObjUserIdConnectCheck@@YAHPADH@Z		; gObjUserIdConnectCheck
;	COMDAT ??_C@_0BN@NCIMKKEA@error?5?3?5index?5error?5?$CB?$CB?5?$CFs?5?$CFd?$AA@
CONST	SEGMENT
??_C@_0BN@NCIMKKEA@error?5?3?5index?5error?5?$CB?$CB?5?$CFs?5?$CFd?$AA@ DB 'e'
	DB	'rror : index error !! %s %d', 00H		; `string'
; Function compile flags: /Ogtp
CONST	ENDS
;	COMDAT ?gObjUserIdConnectCheck@@YAHPADH@Z
_TEXT	SEGMENT
_szId$ = 8						; size = 4
_index$ = 12						; size = 4
?gObjUserIdConnectCheck@@YAHPADH@Z PROC			; gObjUserIdConnectCheck, COMDAT

; 3742 : {

  00000	55		 push	 ebp
  00001	8b ec		 mov	 ebp, esp

; 3743 : 	if ( index < 0 || index > OBJMAX)	// Deathway Fix Here

  00003	8b 45 0c	 mov	 eax, DWORD PTR _index$[ebp]
  00006	3d e8 1c 00 00	 cmp	 eax, 7400		; 00001ce8H
  0000b	77 5c		 ja	 SHORT $LN4@gObjUserId

; 3747 : 	}
; 3748 : 
; 3749 : 	if ( gObj[index].Connected < PLAYER_PLAYING)

  0000d	69 c0 64 15 00
	00		 imul	 eax, 5476		; 00001564H
  00013	80 b8 04 00 00
	00 03		 cmp	 BYTE PTR ?gObj@@3PAUOBJECTSTRUCT@@A[eax+4], 3

; 3750 : 	{
; 3751 : 		return 0;

  0001a	72 66		 jb	 SHORT $LN12@gObjUserId

; 3752 : 	}
; 3753 : 
; 3754 : 	if (gObj[index].Name[0] != *szId)

  0001c	8a 90 6f 00 00
	00		 mov	 dl, BYTE PTR ?gObj@@3PAUOBJECTSTRUCT@@A[eax+111]
  00022	8b 4d 08	 mov	 ecx, DWORD PTR _szId$[ebp]
  00025	8d 80 6f 00 00
	00		 lea	 eax, DWORD PTR ?gObj@@3PAUOBJECTSTRUCT@@A[eax+111]
  0002b	3a 11		 cmp	 dl, BYTE PTR [ecx]

; 3755 : 	{
; 3756 : 		return 0;

  0002d	75 53		 jne	 SHORT $LN12@gObjUserId
  0002f	90		 npad	 1
$LL2@gObjUserId:

; 3757 : 	}
; 3758 : 
; 3759 : 	if ( strcmp(gObj[index].Name , szId) == 0)

  00030	8a 10		 mov	 dl, BYTE PTR [eax]
  00032	3a 11		 cmp	 dl, BYTE PTR [ecx]
  00034	75 23		 jne	 SHORT $LN9@gObjUserId
  00036	84 d2		 test	 dl, dl
  00038	74 12		 je	 SHORT $LN10@gObjUserId
  0003a	8a 50 01	 mov	 dl, BYTE PTR [eax+1]
  0003d	3a 51 01	 cmp	 dl, BYTE PTR [ecx+1]
  00040	75 17		 jne	 SHORT $LN9@gObjUserId
  00042	83 c0 02	 add	 eax, 2
  00045	83 c1 02	 add	 ecx, 2
  00048	84 d2		 test	 dl, dl
  0004a	75 e4		 jne	 SHORT $LL2@gObjUserId
$LN10@gObjUserId:
  0004c	33 c0		 xor	 eax, eax
  0004e	33 c9		 xor	 ecx, ecx
  00050	85 c0		 test	 eax, eax
  00052	0f 94 c1	 sete	 cl
  00055	8b c1		 mov	 eax, ecx

; 3760 : 	{
; 3761 : 		return 1;
; 3762 : 	}
; 3763 : 	return 0;
; 3764 : }

  00057	5d		 pop	 ebp
  00058	c3		 ret	 0
$LN9@gObjUserId:

; 3757 : 	}
; 3758 : 
; 3759 : 	if ( strcmp(gObj[index].Name , szId) == 0)

  00059	1b c0		 sbb	 eax, eax
  0005b	83 d8 ff	 sbb	 eax, -1
  0005e	33 c9		 xor	 ecx, ecx
  00060	85 c0		 test	 eax, eax
  00062	0f 94 c1	 sete	 cl
  00065	8b c1		 mov	 eax, ecx

; 3760 : 	{
; 3761 : 		return 1;
; 3762 : 	}
; 3763 : 	return 0;
; 3764 : }

  00067	5d		 pop	 ebp
  00068	c3		 ret	 0
$LN4@gObjUserId:

; 3744 : 	{
; 3745 : 		LogAdd(LOG_BLACK, "error : index error !! %s %d",__FILE__, __LINE__);

  00069	68 a1 0e 00 00	 push	 3745			; 00000ea1H
  0006e	68 00 00 00 00	 push	 OFFSET ??_C@_08DCNFOMBO@user?4cpp?$AA@
  00073	68 00 00 00 00	 push	 OFFSET ??_C@_0BN@NCIMKKEA@error?5?3?5index?5error?5?$CB?$CB?5?$CFs?5?$CFd?$AA@
  00078	6a 00		 push	 0
  0007a	e8 00 00 00 00	 call	 ?LogAdd@@YAXW4eLogColor@@PADZZ ; LogAdd
  0007f	83 c4 10	 add	 esp, 16			; 00000010H
$LN12@gObjUserId:

; 3746 : 		return 0;

  00082	33 c0		 xor	 eax, eax

; 3760 : 	{
; 3761 : 		return 1;
; 3762 : 	}
; 3763 : 	return 0;
; 3764 : }

  00084	5d		 pop	 ebp
  00085	c3		 ret	 0
?gObjUserIdConnectCheck@@YAHPADH@Z ENDP			; gObjUserIdConnectCheck
_TEXT	ENDS
PUBLIC	?GetPathPacketDirPos@@YAEHH@Z			; GetPathPacketDirPos
; Function compile flags: /Ogtp
;	COMDAT ?GetPathPacketDirPos@@YAEHH@Z
_TEXT	SEGMENT
_px$ = 8						; size = 4
_py$ = 12						; size = 4
?GetPathPacketDirPos@@YAEHH@Z PROC			; GetPathPacketDirPos, COMDAT

; 3767 : {

  00000	55		 push	 ebp
  00001	8b ec		 mov	 ebp, esp

; 3768 : 	BYTE pos = 0;
; 3769 : 
; 3770 : 	if (px <= -1 && py <= -1)

  00003	8b 55 08	 mov	 edx, DWORD PTR _px$[ebp]
  00006	8b 4d 0c	 mov	 ecx, DWORD PTR _py$[ebp]
  00009	32 c0		 xor	 al, al
  0000b	83 fa ff	 cmp	 edx, -1
  0000e	7f 18		 jg	 SHORT $LN11@GetPathPac
  00010	83 f9 ff	 cmp	 ecx, -1
  00013	7f 02		 jg	 SHORT $LN15@GetPathPac

; 3801 : 	}
; 3802 : 
; 3803 : 	return pos;
; 3804 : }

  00015	5d		 pop	 ebp
  00016	c3		 ret	 0
$LN15@GetPathPac:

; 3771 : 	{
; 3772 : 		pos=0;
; 3773 : 	}
; 3774 : 	else if (px <= -1 && py == 0)

  00017	85 c9		 test	 ecx, ecx
  00019	75 04		 jne	 SHORT $LN13@GetPathPac

; 3775 : 	{
; 3776 : 		pos=7;

  0001b	b0 07		 mov	 al, 7

; 3801 : 	}
; 3802 : 
; 3803 : 	return pos;
; 3804 : }

  0001d	5d		 pop	 ebp
  0001e	c3		 ret	 0
$LN13@GetPathPac:

; 3777 : 	}
; 3778 : 	else if ( px <= -1 && py >= 1)

  0001f	83 f9 01	 cmp	 ecx, 1
  00022	7c 04		 jl	 SHORT $LN11@GetPathPac

; 3779 : 	{
; 3780 : 		pos=6;

  00024	b0 06		 mov	 al, 6

; 3801 : 	}
; 3802 : 
; 3803 : 	return pos;
; 3804 : }

  00026	5d		 pop	 ebp
  00027	c3		 ret	 0
$LN11@GetPathPac:

; 3781 : 	}
; 3782 : 	else if ( px == 0 && py <= -1)

  00028	85 d2		 test	 edx, edx
  0002a	75 12		 jne	 SHORT $LN7@GetPathPac
  0002c	83 f9 ff	 cmp	 ecx, -1
  0002f	7f 04		 jg	 SHORT $LN18@GetPathPac

; 3783 : 	{
; 3784 : 		pos= 1;

  00031	b0 01		 mov	 al, 1

; 3801 : 	}
; 3802 : 
; 3803 : 	return pos;
; 3804 : }

  00033	5d		 pop	 ebp
  00034	c3		 ret	 0
$LN18@GetPathPac:

; 3785 : 	}
; 3786 : 	else if ( px == 0 && py >= 1)

  00035	83 f9 01	 cmp	 ecx, 1
  00038	7c 21		 jl	 SHORT $LN1@GetPathPac

; 3787 : 	{
; 3788 : 		pos = 5;

  0003a	b0 05		 mov	 al, 5

; 3801 : 	}
; 3802 : 
; 3803 : 	return pos;
; 3804 : }

  0003c	5d		 pop	 ebp
  0003d	c3		 ret	 0
$LN7@GetPathPac:

; 3789 : 	}
; 3790 : 	else if ( px >= 1 && py <=-1)

  0003e	83 fa 01	 cmp	 edx, 1
  00041	7c 18		 jl	 SHORT $LN1@GetPathPac
  00043	83 f9 ff	 cmp	 ecx, -1
  00046	7f 04		 jg	 SHORT $LN5@GetPathPac

; 3791 : 	{
; 3792 : 		pos=2;

  00048	b0 02		 mov	 al, 2

; 3801 : 	}
; 3802 : 
; 3803 : 	return pos;
; 3804 : }

  0004a	5d		 pop	 ebp
  0004b	c3		 ret	 0
$LN5@GetPathPac:

; 3793 : 	}
; 3794 : 	else if ( px >= 1 && py == 0)

  0004c	85 c9		 test	 ecx, ecx
  0004e	75 04		 jne	 SHORT $LN3@GetPathPac

; 3795 : 	{
; 3796 : 		pos = 3;

  00050	b0 03		 mov	 al, 3

; 3801 : 	}
; 3802 : 
; 3803 : 	return pos;
; 3804 : }

  00052	5d		 pop	 ebp
  00053	c3		 ret	 0
$LN3@GetPathPac:

; 3797 : 	}
; 3798 : 	else if ( px >=1  && py >= 1)

  00054	83 f9 01	 cmp	 ecx, 1
  00057	7c 02		 jl	 SHORT $LN1@GetPathPac

; 3799 : 	{
; 3800 : 		pos = 4;

  00059	b0 04		 mov	 al, 4
$LN1@GetPathPac:

; 3801 : 	}
; 3802 : 
; 3803 : 	return pos;
; 3804 : }

  0005b	5d		 pop	 ebp
  0005c	c3		 ret	 0
?GetPathPacketDirPos@@YAEHH@Z ENDP			; GetPathPacketDirPos
_TEXT	ENDS
PUBLIC	?gObjPositionCheck@@YAHPAUOBJECTSTRUCT@@@Z	; gObjPositionCheck
; Function compile flags: /Ogtp
;	COMDAT ?gObjPositionCheck@@YAHPAUOBJECTSTRUCT@@@Z
_TEXT	SEGMENT
_lpObj$ = 8						; size = 4
?gObjPositionCheck@@YAHPAUOBJECTSTRUCT@@@Z PROC		; gObjPositionCheck, COMDAT

; 3820 : {

  00000	55		 push	 ebp
  00001	8b ec		 mov	 ebp, esp

; 3821 : 	int ix = lpObj->m_OldX - lpObj->TX;

  00003	8b 45 08	 mov	 eax, DWORD PTR _lpObj$[ebp]
  00006	0f bf 90 20 01
	00 00		 movsx	 edx, WORD PTR [eax+288]
  0000d	0f bf 88 1c 01
	00 00		 movsx	 ecx, WORD PTR [eax+284]
  00014	2b ca		 sub	 ecx, edx

; 3822 : 	int iy = lpObj->m_OldY - lpObj->TY;

  00016	0f bf 90 22 01
	00 00		 movsx	 edx, WORD PTR [eax+290]
  0001d	0f bf 80 1e 01
	00 00		 movsx	 eax, WORD PTR [eax+286]

; 3823 : 
; 3824 : 	if ( ix <= -15 ||  ix >= 15 )

  00024	83 c1 0e	 add	 ecx, 14			; 0000000eH
  00027	2b c2		 sub	 eax, edx
  00029	83 f9 1c	 cmp	 ecx, 28			; 0000001cH
  0002c	77 0f		 ja	 SHORT $LN3@gObjPositi

; 3827 : 	}
; 3828 : 
; 3829 : 	if ( iy <= -15 ||  iy >= 15 )

  0002e	83 c0 0e	 add	 eax, 14			; 0000000eH
  00031	b9 1c 00 00 00	 mov	 ecx, 28			; 0000001cH
  00036	3b c8		 cmp	 ecx, eax
  00038	1b c0		 sbb	 eax, eax
  0003a	40		 inc	 eax

; 3830 : 	{
; 3831 : 		return FALSE;
; 3832 : 	}
; 3833 : 
; 3834 : 	return TRUE;
; 3835 : }

  0003b	5d		 pop	 ebp
  0003c	c3		 ret	 0
$LN3@gObjPositi:

; 3825 : 	{
; 3826 : 		return FALSE;

  0003d	33 c0		 xor	 eax, eax

; 3830 : 	{
; 3831 : 		return FALSE;
; 3832 : 	}
; 3833 : 
; 3834 : 	return TRUE;
; 3835 : }

  0003f	5d		 pop	 ebp
  00040	c3		 ret	 0
?gObjPositionCheck@@YAHPAUOBJECTSTRUCT@@@Z ENDP		; gObjPositionCheck
_TEXT	ENDS
PUBLIC	?gObjCheckTileArea@@YAHHHHH@Z			; gObjCheckTileArea
; Function compile flags: /Ogtp
;	COMDAT ?gObjCheckTileArea@@YAHHHHH@Z
_TEXT	SEGMENT
_aIndex$ = 8						; size = 4
_x$ = 12						; size = 4
_y$ = 16						; size = 4
_dis$ = 20						; size = 4
?gObjCheckTileArea@@YAHHHHH@Z PROC			; gObjCheckTileArea, COMDAT

; 3838 : {

  00000	55		 push	 ebp
  00001	8b ec		 mov	 ebp, esp

; 3839 : 	LPOBJ lpObj = & gObj[aIndex];

  00003	8b 45 08	 mov	 eax, DWORD PTR _aIndex$[ebp]

; 3840 : 
; 3841 : 	if ( x < (lpObj->X - dis) || x > (lpObj->X + dis) || y < (lpObj->Y - dis) || y > (lpObj->Y + dis) )

  00006	8b 4d 14	 mov	 ecx, DWORD PTR _dis$[ebp]
  00009	69 c0 64 15 00
	00		 imul	 eax, 5476		; 00001564H
  0000f	05 00 00 00 00	 add	 eax, OFFSET ?gObj@@3PAUOBJECTSTRUCT@@A ; gObj
  00014	0f bf 90 04 01
	00 00		 movsx	 edx, WORD PTR [eax+260]
  0001b	56		 push	 esi
  0001c	8b 75 0c	 mov	 esi, DWORD PTR _x$[ebp]
  0001f	57		 push	 edi
  00020	8b fa		 mov	 edi, edx
  00022	2b f9		 sub	 edi, ecx
  00024	3b f7		 cmp	 esi, edi
  00026	7c 27		 jl	 SHORT $LN1@gObjCheckT
  00028	03 d1		 add	 edx, ecx
  0002a	3b f2		 cmp	 esi, edx
  0002c	7f 21		 jg	 SHORT $LN1@gObjCheckT
  0002e	0f bf 80 06 01
	00 00		 movsx	 eax, WORD PTR [eax+262]
  00035	8b 55 10	 mov	 edx, DWORD PTR _y$[ebp]
  00038	8b f0		 mov	 esi, eax
  0003a	2b f1		 sub	 esi, ecx
  0003c	3b d6		 cmp	 edx, esi
  0003e	7c 0f		 jl	 SHORT $LN1@gObjCheckT
  00040	03 c1		 add	 eax, ecx
  00042	3b d0		 cmp	 edx, eax
  00044	7f 09		 jg	 SHORT $LN1@gObjCheckT

; 3844 : 	}
; 3845 : 	return TRUE;

  00046	5f		 pop	 edi
  00047	b8 01 00 00 00	 mov	 eax, 1
  0004c	5e		 pop	 esi

; 3846 : }

  0004d	5d		 pop	 ebp
  0004e	c3		 ret	 0
$LN1@gObjCheckT:
  0004f	5f		 pop	 edi

; 3842 : 	{
; 3843 : 		return FALSE;

  00050	33 c0		 xor	 eax, eax
  00052	5e		 pop	 esi

; 3846 : }

  00053	5d		 pop	 ebp
  00054	c3		 ret	 0
?gObjCheckTileArea@@YAHHHHH@Z ENDP			; gObjCheckTileArea
_TEXT	ENDS
PUBLIC	?ExtentCheck@@YAHHHHH@Z				; ExtentCheck
; Function compile flags: /Ogtp
;	COMDAT ?ExtentCheck@@YAHHHHH@Z
_TEXT	SEGMENT
_x$ = 8							; size = 4
_y$ = 12						; size = 4
_w$ = 16						; size = 4
_h$ = 20						; size = 4
?ExtentCheck@@YAHHHHH@Z PROC				; ExtentCheck, COMDAT

; 3849 : {

  00000	55		 push	 ebp
  00001	8b ec		 mov	 ebp, esp

; 3850 : 	if ( (x >=0) && (x<w) && (y >=0) && (y<h) )

  00003	8b 45 08	 mov	 eax, DWORD PTR _x$[ebp]
  00006	85 c0		 test	 eax, eax
  00008	78 18		 js	 SHORT $LN1@ExtentChec
  0000a	3b 45 10	 cmp	 eax, DWORD PTR _w$[ebp]
  0000d	7d 13		 jge	 SHORT $LN1@ExtentChec
  0000f	8b 45 0c	 mov	 eax, DWORD PTR _y$[ebp]
  00012	85 c0		 test	 eax, eax
  00014	78 0c		 js	 SHORT $LN1@ExtentChec
  00016	3b 45 14	 cmp	 eax, DWORD PTR _h$[ebp]
  00019	7d 07		 jge	 SHORT $LN1@ExtentChec

; 3851 : 	{
; 3852 : 		return 1;

  0001b	b8 01 00 00 00	 mov	 eax, 1

; 3855 : }

  00020	5d		 pop	 ebp
  00021	c3		 ret	 0
$LN1@ExtentChec:

; 3853 : 	}
; 3854 : 	return 0;

  00022	33 c0		 xor	 eax, eax

; 3855 : }

  00024	5d		 pop	 ebp
  00025	c3		 ret	 0
?ExtentCheck@@YAHHHHH@Z ENDP				; ExtentCheck
_TEXT	ENDS
PUBLIC	?gObjSetInventory1Pointer@@YAXPAUOBJECTSTRUCT@@@Z ; gObjSetInventory1Pointer
; Function compile flags: /Ogtp
;	COMDAT ?gObjSetInventory1Pointer@@YAXPAUOBJECTSTRUCT@@@Z
_TEXT	SEGMENT
_lpObj$ = 8						; size = 4
?gObjSetInventory1Pointer@@YAXPAUOBJECTSTRUCT@@@Z PROC	; gObjSetInventory1Pointer, COMDAT

; 3858 : {

  00000	55		 push	 ebp
  00001	8b ec		 mov	 ebp, esp

; 3859 : 	lpObj->pInventory = lpObj->Inventory1;

  00003	8b 45 08	 mov	 eax, DWORD PTR _lpObj$[ebp]
  00006	8b 88 9c 0c 00
	00		 mov	 ecx, DWORD PTR [eax+3228]

; 3860 : 	lpObj->pInventoryMap = lpObj->InventoryMap1;

  0000c	8b 90 a0 0c 00
	00		 mov	 edx, DWORD PTR [eax+3232]
  00012	89 88 8c 0c 00
	00		 mov	 DWORD PTR [eax+3212], ecx

; 3861 : 	lpObj->pInventoryCount  = &lpObj->InventoryCount1;

  00018	8d 88 a4 0c 00
	00		 lea	 ecx, DWORD PTR [eax+3236]
  0001e	89 90 90 0c 00
	00		 mov	 DWORD PTR [eax+3216], edx
  00024	89 88 94 0c 00
	00		 mov	 DWORD PTR [eax+3220], ecx

; 3862 : }

  0002a	5d		 pop	 ebp
  0002b	c3		 ret	 0
?gObjSetInventory1Pointer@@YAXPAUOBJECTSTRUCT@@@Z ENDP	; gObjSetInventory1Pointer
_TEXT	ENDS
PUBLIC	?gObjSetInventory2Pointer@@YAXPAUOBJECTSTRUCT@@@Z ; gObjSetInventory2Pointer
; Function compile flags: /Ogtp
;	COMDAT ?gObjSetInventory2Pointer@@YAXPAUOBJECTSTRUCT@@@Z
_TEXT	SEGMENT
_lpObj$ = 8						; size = 4
?gObjSetInventory2Pointer@@YAXPAUOBJECTSTRUCT@@@Z PROC	; gObjSetInventory2Pointer, COMDAT

; 3865 : {

  00000	55		 push	 ebp
  00001	8b ec		 mov	 ebp, esp

; 3866 : 	lpObj->pInventory = lpObj->Inventory2;

  00003	8b 45 08	 mov	 eax, DWORD PTR _lpObj$[ebp]
  00006	8b 88 a8 0c 00
	00		 mov	 ecx, DWORD PTR [eax+3240]

; 3867 : 	lpObj->pInventoryMap = lpObj->InventoryMap2;

  0000c	8b 90 ac 0c 00
	00		 mov	 edx, DWORD PTR [eax+3244]
  00012	89 88 8c 0c 00
	00		 mov	 DWORD PTR [eax+3212], ecx

; 3868 : 	lpObj->pInventoryCount  = &lpObj->InventoryCount2;

  00018	8d 88 b0 0c 00
	00		 lea	 ecx, DWORD PTR [eax+3248]
  0001e	89 90 90 0c 00
	00		 mov	 DWORD PTR [eax+3216], edx
  00024	89 88 94 0c 00
	00		 mov	 DWORD PTR [eax+3220], ecx

; 3869 : }

  0002a	5d		 pop	 ebp
  0002b	c3		 ret	 0
?gObjSetInventory2Pointer@@YAXPAUOBJECTSTRUCT@@@Z ENDP	; gObjSetInventory2Pointer
_TEXT	ENDS
PUBLIC	?gObjAddMsgSend@@YAXPAUOBJECTSTRUCT@@HHH@Z	; gObjAddMsgSend
EXTRN	__imp__GetTickCount@0:PROC
; Function compile flags: /Ogtp
;	COMDAT ?gObjAddMsgSend@@YAXPAUOBJECTSTRUCT@@HHH@Z
_TEXT	SEGMENT
_lpObj$ = 8						; size = 4
_aMsgCode$ = 12						; size = 4
_aIndex$ = 16						; size = 4
_SubCode$ = 20						; size = 4
?gObjAddMsgSend@@YAXPAUOBJECTSTRUCT@@HHH@Z PROC		; gObjAddMsgSend, COMDAT

; 3872 : {

  00000	55		 push	 ebp
  00001	8b ec		 mov	 ebp, esp
  00003	56		 push	 esi
  00004	57		 push	 edi

; 3873 : 	for ( int n=0;n<MAX_MONSTER_SEND_MSG;n++)

  00005	8b 7d 08	 mov	 edi, DWORD PTR _lpObj$[ebp]
  00008	8b 0f		 mov	 ecx, DWORD PTR [edi]
  0000a	8d 14 89	 lea	 edx, DWORD PTR [ecx+ecx*4]
  0000d	33 f6		 xor	 esi, esi
  0000f	c1 e2 05	 shl	 edx, 5
  00012	8d 92 00 00 00
	00		 lea	 edx, DWORD PTR ?gSMMsg@@3PAY09UMessageStateMachine@@A[edx]
  00018	8b c2		 mov	 eax, edx
  0001a	8d 9b 00 00 00
	00		 npad	 6
$LL9@gObjAddMsg:

; 3874 : 	{
; 3875 : 		if ( gSMMsg[lpObj->m_Index][n].MsgCode < 0 )

  00020	83 38 00	 cmp	 DWORD PTR [eax], 0
  00023	7c 29		 jl	 SHORT $LN15@gObjAddMsg

; 3873 : 	for ( int n=0;n<MAX_MONSTER_SEND_MSG;n++)

  00025	46		 inc	 esi
  00026	83 c0 10	 add	 eax, 16			; 00000010H
  00029	83 fe 0a	 cmp	 esi, 10			; 0000000aH
  0002c	7c f2		 jl	 SHORT $LL9@gObjAddMsg

; 3876 : 		{
; 3877 : 			gSMMsg[lpObj->m_Index][n].MsgCode = aMsgCode;
; 3878 : 			gSMMsg[lpObj->m_Index][n].MsgTime = GetTickCount();
; 3879 : 			gSMMsg[lpObj->m_Index][n].SendUser = aIndex;
; 3880 : 			gSMMsg[lpObj->m_Index][n].SubCode = SubCode;
; 3881 : 
; 3882 : 			return;
; 3883 : 		}
; 3884 : 	}
; 3885 : 
; 3886 : 	for (int n=0;n<MAX_MONSTER_SEND_MSG;n++)

  0002e	33 f6		 xor	 esi, esi
$LL5@gObjAddMsg:

; 3887 : 	{
; 3888 : 		if ( gSMMsg[lpObj->m_Index][n].MsgCode == 2 || gSMMsg[lpObj->m_Index][n].MsgCode == 6 || gSMMsg[lpObj->m_Index][n].MsgCode == 7 )

  00030	8b 02		 mov	 eax, DWORD PTR [edx]
  00032	83 f8 02	 cmp	 eax, 2
  00035	74 17		 je	 SHORT $LN15@gObjAddMsg
  00037	83 f8 06	 cmp	 eax, 6
  0003a	74 12		 je	 SHORT $LN15@gObjAddMsg
  0003c	83 f8 07	 cmp	 eax, 7
  0003f	74 0d		 je	 SHORT $LN15@gObjAddMsg

; 3876 : 		{
; 3877 : 			gSMMsg[lpObj->m_Index][n].MsgCode = aMsgCode;
; 3878 : 			gSMMsg[lpObj->m_Index][n].MsgTime = GetTickCount();
; 3879 : 			gSMMsg[lpObj->m_Index][n].SendUser = aIndex;
; 3880 : 			gSMMsg[lpObj->m_Index][n].SubCode = SubCode;
; 3881 : 
; 3882 : 			return;
; 3883 : 		}
; 3884 : 	}
; 3885 : 
; 3886 : 	for (int n=0;n<MAX_MONSTER_SEND_MSG;n++)

  00041	46		 inc	 esi
  00042	83 c2 10	 add	 edx, 16			; 00000010H
  00045	83 fe 0a	 cmp	 esi, 10			; 0000000aH
  00048	7c e6		 jl	 SHORT $LL5@gObjAddMsg
  0004a	5f		 pop	 edi
  0004b	5e		 pop	 esi

; 3894 : 			
; 3895 : 			return;
; 3896 : 		}
; 3897 : 	}
; 3898 : }

  0004c	5d		 pop	 ebp
  0004d	c3		 ret	 0
$LN15@gObjAddMsg:

; 3889 : 		{
; 3890 : 			gSMMsg[lpObj->m_Index][n].MsgCode = aMsgCode;

  0004e	8b 55 0c	 mov	 edx, DWORD PTR _aMsgCode$[ebp]
  00051	8d 04 89	 lea	 eax, DWORD PTR [ecx+ecx*4]
  00054	8d 0c 46	 lea	 ecx, DWORD PTR [esi+eax*2]
  00057	c1 e1 04	 shl	 ecx, 4
  0005a	89 91 00 00 00
	00		 mov	 DWORD PTR ?gSMMsg@@3PAY09UMessageStateMachine@@A[ecx], edx

; 3891 : 			gSMMsg[lpObj->m_Index][n].MsgTime = GetTickCount();

  00060	ff 15 00 00 00
	00		 call	 DWORD PTR __imp__GetTickCount@0
  00066	8b 0f		 mov	 ecx, DWORD PTR [edi]
  00068	8d 0c 89	 lea	 ecx, DWORD PTR [ecx+ecx*4]
  0006b	8d 14 4e	 lea	 edx, DWORD PTR [esi+ecx*2]
  0006e	c1 e2 04	 shl	 edx, 4
  00071	89 82 08 00 00
	00		 mov	 DWORD PTR ?gSMMsg@@3PAY09UMessageStateMachine@@A[edx+8], eax

; 3892 : 			gSMMsg[lpObj->m_Index][n].SendUser = aIndex;

  00077	8b 07		 mov	 eax, DWORD PTR [edi]
  00079	8b 55 10	 mov	 edx, DWORD PTR _aIndex$[ebp]
  0007c	8d 04 80	 lea	 eax, DWORD PTR [eax+eax*4]
  0007f	8d 0c 46	 lea	 ecx, DWORD PTR [esi+eax*2]
  00082	c1 e1 04	 shl	 ecx, 4
  00085	89 91 04 00 00
	00		 mov	 DWORD PTR ?gSMMsg@@3PAY09UMessageStateMachine@@A[ecx+4], edx

; 3893 : 			gSMMsg[lpObj->m_Index][n].SubCode = SubCode;

  0008b	8b 07		 mov	 eax, DWORD PTR [edi]
  0008d	8b 55 14	 mov	 edx, DWORD PTR _SubCode$[ebp]
  00090	8d 04 80	 lea	 eax, DWORD PTR [eax+eax*4]
  00093	8d 0c 46	 lea	 ecx, DWORD PTR [esi+eax*2]
  00096	c1 e1 04	 shl	 ecx, 4
  00099	5f		 pop	 edi
  0009a	89 91 0c 00 00
	00		 mov	 DWORD PTR ?gSMMsg@@3PAY09UMessageStateMachine@@A[ecx+12], edx
  000a0	5e		 pop	 esi

; 3894 : 			
; 3895 : 			return;
; 3896 : 		}
; 3897 : 	}
; 3898 : }

  000a1	5d		 pop	 ebp
  000a2	c3		 ret	 0
?gObjAddMsgSend@@YAXPAUOBJECTSTRUCT@@HHH@Z ENDP		; gObjAddMsgSend
_TEXT	ENDS
PUBLIC	?gObjAddMsgSendDelay@@YAXPAUOBJECTSTRUCT@@HHHH@Z ; gObjAddMsgSendDelay
; Function compile flags: /Ogtp
;	COMDAT ?gObjAddMsgSendDelay@@YAXPAUOBJECTSTRUCT@@HHHH@Z
_TEXT	SEGMENT
_lpObj$ = 8						; size = 4
_aMsgCode$ = 12						; size = 4
_aIndex$ = 16						; size = 4
_delay$ = 20						; size = 4
_SubCode$ = 24						; size = 4
?gObjAddMsgSendDelay@@YAXPAUOBJECTSTRUCT@@HHHH@Z PROC	; gObjAddMsgSendDelay, COMDAT

; 3901 : {

  00000	55		 push	 ebp
  00001	8b ec		 mov	 ebp, esp
  00003	56		 push	 esi
  00004	57		 push	 edi

; 3902 : 	for ( int n=0;n<MAX_MONSTER_SEND_MSG;n++)

  00005	8b 7d 08	 mov	 edi, DWORD PTR _lpObj$[ebp]
  00008	8b 0f		 mov	 ecx, DWORD PTR [edi]
  0000a	8d 14 89	 lea	 edx, DWORD PTR [ecx+ecx*4]
  0000d	33 f6		 xor	 esi, esi
  0000f	c1 e2 05	 shl	 edx, 5
  00012	8d 92 00 00 00
	00		 lea	 edx, DWORD PTR ?gSMMsg@@3PAY09UMessageStateMachine@@A[edx]
  00018	8b c2		 mov	 eax, edx
  0001a	8d 9b 00 00 00
	00		 npad	 6
$LL9@gObjAddMsg@2:

; 3903 : 	{
; 3904 : 		if ( gSMMsg[lpObj->m_Index][n].MsgCode < 0 )

  00020	83 38 00	 cmp	 DWORD PTR [eax], 0
  00023	7c 29		 jl	 SHORT $LN14@gObjAddMsg@2

; 3902 : 	for ( int n=0;n<MAX_MONSTER_SEND_MSG;n++)

  00025	46		 inc	 esi
  00026	83 c0 10	 add	 eax, 16			; 00000010H
  00029	83 fe 0a	 cmp	 esi, 10			; 0000000aH
  0002c	7c f2		 jl	 SHORT $LL9@gObjAddMsg@2

; 3910 : 
; 3911 : 			return;
; 3912 : 		}
; 3913 : 	}
; 3914 : 
; 3915 : 	for (int n=0;n<MAX_MONSTER_SEND_MSG;n++)

  0002e	33 f6		 xor	 esi, esi
$LL5@gObjAddMsg@2:

; 3916 : 	{
; 3917 : 		if ( gSMMsg[lpObj->m_Index][n].MsgCode == 2 || gSMMsg[lpObj->m_Index][n].MsgCode == 6 || gSMMsg[lpObj->m_Index][n].MsgCode == 7 )

  00030	8b 02		 mov	 eax, DWORD PTR [edx]
  00032	83 f8 02	 cmp	 eax, 2
  00035	74 71		 je	 SHORT $LN15@gObjAddMsg@2
  00037	83 f8 06	 cmp	 eax, 6
  0003a	74 6c		 je	 SHORT $LN15@gObjAddMsg@2
  0003c	83 f8 07	 cmp	 eax, 7
  0003f	74 67		 je	 SHORT $LN15@gObjAddMsg@2

; 3910 : 
; 3911 : 			return;
; 3912 : 		}
; 3913 : 	}
; 3914 : 
; 3915 : 	for (int n=0;n<MAX_MONSTER_SEND_MSG;n++)

  00041	46		 inc	 esi
  00042	83 c2 10	 add	 edx, 16			; 00000010H
  00045	83 fe 0a	 cmp	 esi, 10			; 0000000aH
  00048	7c e6		 jl	 SHORT $LL5@gObjAddMsg@2
  0004a	5f		 pop	 edi
  0004b	5e		 pop	 esi

; 3923 : 			
; 3924 : 			return;
; 3925 : 		}
; 3926 : 	}
; 3927 : 
; 3928 : }

  0004c	5d		 pop	 ebp
  0004d	c3		 ret	 0
$LN14@gObjAddMsg@2:

; 3905 : 		{
; 3906 : 			gSMMsg[lpObj->m_Index][n].MsgCode = aMsgCode;

  0004e	8b 55 0c	 mov	 edx, DWORD PTR _aMsgCode$[ebp]
  00051	8d 04 89	 lea	 eax, DWORD PTR [ecx+ecx*4]
  00054	8d 0c 46	 lea	 ecx, DWORD PTR [esi+eax*2]
  00057	c1 e1 04	 shl	 ecx, 4
  0005a	89 91 00 00 00
	00		 mov	 DWORD PTR ?gSMMsg@@3PAY09UMessageStateMachine@@A[ecx], edx

; 3907 : 			gSMMsg[lpObj->m_Index][n].MsgTime = GetTickCount() + delay;

  00060	ff 15 00 00 00
	00		 call	 DWORD PTR __imp__GetTickCount@0
  00066	8b c8		 mov	 ecx, eax
  00068	8b 07		 mov	 eax, DWORD PTR [edi]
  0006a	03 4d 14	 add	 ecx, DWORD PTR _delay$[ebp]
  0006d	8d 14 80	 lea	 edx, DWORD PTR [eax+eax*4]
  00070	8d 04 56	 lea	 eax, DWORD PTR [esi+edx*2]
  00073	c1 e0 04	 shl	 eax, 4
  00076	89 88 08 00 00
	00		 mov	 DWORD PTR ?gSMMsg@@3PAY09UMessageStateMachine@@A[eax+8], ecx

; 3908 : 			gSMMsg[lpObj->m_Index][n].SendUser = aIndex;

  0007c	8b 07		 mov	 eax, DWORD PTR [edi]
  0007e	8d 0c 80	 lea	 ecx, DWORD PTR [eax+eax*4]
  00081	8b 45 10	 mov	 eax, DWORD PTR _aIndex$[ebp]
  00084	8d 14 4e	 lea	 edx, DWORD PTR [esi+ecx*2]
  00087	c1 e2 04	 shl	 edx, 4
  0008a	89 82 04 00 00
	00		 mov	 DWORD PTR ?gSMMsg@@3PAY09UMessageStateMachine@@A[edx+4], eax

; 3909 : 			gSMMsg[lpObj->m_Index][n].SubCode = SubCode;

  00090	8b 07		 mov	 eax, DWORD PTR [edi]
  00092	8d 0c 80	 lea	 ecx, DWORD PTR [eax+eax*4]
  00095	8b 45 18	 mov	 eax, DWORD PTR _SubCode$[ebp]
  00098	8d 14 4e	 lea	 edx, DWORD PTR [esi+ecx*2]
  0009b	c1 e2 04	 shl	 edx, 4
  0009e	5f		 pop	 edi
  0009f	89 82 0c 00 00
	00		 mov	 DWORD PTR ?gSMMsg@@3PAY09UMessageStateMachine@@A[edx+12], eax
  000a5	5e		 pop	 esi

; 3923 : 			
; 3924 : 			return;
; 3925 : 		}
; 3926 : 	}
; 3927 : 
; 3928 : }

  000a6	5d		 pop	 ebp
  000a7	c3		 ret	 0
$LN15@gObjAddMsg@2:

; 3918 : 		{
; 3919 : 			gSMMsg[lpObj->m_Index][n].MsgCode = aMsgCode;

  000a8	8b 45 0c	 mov	 eax, DWORD PTR _aMsgCode$[ebp]
  000ab	8d 0c 89	 lea	 ecx, DWORD PTR [ecx+ecx*4]
  000ae	8d 14 4e	 lea	 edx, DWORD PTR [esi+ecx*2]
  000b1	c1 e2 04	 shl	 edx, 4
  000b4	89 82 00 00 00
	00		 mov	 DWORD PTR ?gSMMsg@@3PAY09UMessageStateMachine@@A[edx], eax

; 3920 : 			gSMMsg[lpObj->m_Index][n].MsgTime = GetTickCount();

  000ba	ff 15 00 00 00
	00		 call	 DWORD PTR __imp__GetTickCount@0
  000c0	8b 0f		 mov	 ecx, DWORD PTR [edi]
  000c2	8d 0c 89	 lea	 ecx, DWORD PTR [ecx+ecx*4]
  000c5	8d 14 4e	 lea	 edx, DWORD PTR [esi+ecx*2]
  000c8	c1 e2 04	 shl	 edx, 4
  000cb	89 82 08 00 00
	00		 mov	 DWORD PTR ?gSMMsg@@3PAY09UMessageStateMachine@@A[edx+8], eax

; 3921 : 			gSMMsg[lpObj->m_Index][n].SendUser= aIndex;

  000d1	8b 07		 mov	 eax, DWORD PTR [edi]
  000d3	8b 55 10	 mov	 edx, DWORD PTR _aIndex$[ebp]
  000d6	8d 04 80	 lea	 eax, DWORD PTR [eax+eax*4]
  000d9	8d 0c 46	 lea	 ecx, DWORD PTR [esi+eax*2]
  000dc	c1 e1 04	 shl	 ecx, 4
  000df	89 91 04 00 00
	00		 mov	 DWORD PTR ?gSMMsg@@3PAY09UMessageStateMachine@@A[ecx+4], edx

; 3922 : 			gSMMsg[lpObj->m_Index][n].SubCode = SubCode;

  000e5	8b 07		 mov	 eax, DWORD PTR [edi]
  000e7	8b 55 18	 mov	 edx, DWORD PTR _SubCode$[ebp]
  000ea	8d 04 80	 lea	 eax, DWORD PTR [eax+eax*4]
  000ed	8d 0c 46	 lea	 ecx, DWORD PTR [esi+eax*2]
  000f0	c1 e1 04	 shl	 ecx, 4
  000f3	5f		 pop	 edi
  000f4	89 91 0c 00 00
	00		 mov	 DWORD PTR ?gSMMsg@@3PAY09UMessageStateMachine@@A[ecx+12], edx
  000fa	5e		 pop	 esi

; 3923 : 			
; 3924 : 			return;
; 3925 : 		}
; 3926 : 	}
; 3927 : 
; 3928 : }

  000fb	5d		 pop	 ebp
  000fc	c3		 ret	 0
?gObjAddMsgSendDelay@@YAXPAUOBJECTSTRUCT@@HHHH@Z ENDP	; gObjAddMsgSendDelay
_TEXT	ENDS
PUBLIC	?gObjAddMsgSendDelayInSpecificQPos@@YAXPAUOBJECTSTRUCT@@HHHHH@Z ; gObjAddMsgSendDelayInSpecificQPos
; Function compile flags: /Ogtp
;	COMDAT ?gObjAddMsgSendDelayInSpecificQPos@@YAXPAUOBJECTSTRUCT@@HHHHH@Z
_TEXT	SEGMENT
_lpObj$ = 8						; size = 4
_aMsgCode$ = 12						; size = 4
_aIndex$ = 16						; size = 4
_delay$ = 20						; size = 4
_SubCode$ = 24						; size = 4
_iQPosition$ = 28					; size = 4
?gObjAddMsgSendDelayInSpecificQPos@@YAXPAUOBJECTSTRUCT@@HHHHH@Z PROC ; gObjAddMsgSendDelayInSpecificQPos, COMDAT

; 3931 : {

  00000	55		 push	 ebp
  00001	8b ec		 mov	 ebp, esp
  00003	56		 push	 esi

; 3932 : 	if ( iQPosition >= 0 &&  iQPosition < MAX_MONSTER_SEND_MSG )

  00004	8b 75 1c	 mov	 esi, DWORD PTR _iQPosition$[ebp]
  00007	83 fe 09	 cmp	 esi, 9
  0000a	77 58		 ja	 SHORT $LN1@gObjAddMsg@3

; 3933 : 	{
; 3934 : 		gSMMsg[lpObj->m_Index][iQPosition].MsgCode = aMsgCode;

  0000c	8b 55 0c	 mov	 edx, DWORD PTR _aMsgCode$[ebp]
  0000f	57		 push	 edi
  00010	8b 7d 08	 mov	 edi, DWORD PTR _lpObj$[ebp]
  00013	8b 07		 mov	 eax, DWORD PTR [edi]
  00015	8d 04 80	 lea	 eax, DWORD PTR [eax+eax*4]
  00018	8d 0c 46	 lea	 ecx, DWORD PTR [esi+eax*2]
  0001b	c1 e1 04	 shl	 ecx, 4
  0001e	89 91 00 00 00
	00		 mov	 DWORD PTR ?gSMMsg@@3PAY09UMessageStateMachine@@A[ecx], edx

; 3935 : 		gSMMsg[lpObj->m_Index][iQPosition].MsgTime = GetTickCount();

  00024	ff 15 00 00 00
	00		 call	 DWORD PTR __imp__GetTickCount@0
  0002a	8b 0f		 mov	 ecx, DWORD PTR [edi]
  0002c	8d 0c 89	 lea	 ecx, DWORD PTR [ecx+ecx*4]
  0002f	8d 14 4e	 lea	 edx, DWORD PTR [esi+ecx*2]
  00032	c1 e2 04	 shl	 edx, 4
  00035	89 82 08 00 00
	00		 mov	 DWORD PTR ?gSMMsg@@3PAY09UMessageStateMachine@@A[edx+8], eax

; 3936 : 		gSMMsg[lpObj->m_Index][iQPosition].SendUser = aIndex;

  0003b	8b 07		 mov	 eax, DWORD PTR [edi]
  0003d	8b 55 10	 mov	 edx, DWORD PTR _aIndex$[ebp]
  00040	8d 04 80	 lea	 eax, DWORD PTR [eax+eax*4]
  00043	8d 0c 46	 lea	 ecx, DWORD PTR [esi+eax*2]
  00046	c1 e1 04	 shl	 ecx, 4
  00049	89 91 04 00 00
	00		 mov	 DWORD PTR ?gSMMsg@@3PAY09UMessageStateMachine@@A[ecx+4], edx

; 3937 : 		gSMMsg[lpObj->m_Index][iQPosition].SubCode = SubCode;

  0004f	8b 3f		 mov	 edi, DWORD PTR [edi]
  00051	8b 55 18	 mov	 edx, DWORD PTR _SubCode$[ebp]
  00054	8d 04 bf	 lea	 eax, DWORD PTR [edi+edi*4]
  00057	8d 0c 46	 lea	 ecx, DWORD PTR [esi+eax*2]
  0005a	c1 e1 04	 shl	 ecx, 4
  0005d	89 91 0c 00 00
	00		 mov	 DWORD PTR ?gSMMsg@@3PAY09UMessageStateMachine@@A[ecx+12], edx
  00063	5f		 pop	 edi
$LN1@gObjAddMsg@3:
  00064	5e		 pop	 esi

; 3938 : 	}
; 3939 : 
; 3940 : }

  00065	5d		 pop	 ebp
  00066	c3		 ret	 0
?gObjAddMsgSendDelayInSpecificQPos@@YAXPAUOBJECTSTRUCT@@HHHHH@Z ENDP ; gObjAddMsgSendDelayInSpecificQPos
_TEXT	ENDS
PUBLIC	?gObjAddAttackProcMsgSendDelay@@YAXPAUOBJECTSTRUCT@@HHHHH@Z ; gObjAddAttackProcMsgSendDelay
; Function compile flags: /Ogtp
;	COMDAT ?gObjAddAttackProcMsgSendDelay@@YAXPAUOBJECTSTRUCT@@HHHHH@Z
_TEXT	SEGMENT
_lpObj$ = 8						; size = 4
_aMsgCode$ = 12						; size = 4
_aIndex$ = 16						; size = 4
_delay$ = 20						; size = 4
_SubCode$ = 24						; size = 4
_SubCode2$ = 28						; size = 4
?gObjAddAttackProcMsgSendDelay@@YAXPAUOBJECTSTRUCT@@HHHHH@Z PROC ; gObjAddAttackProcMsgSendDelay, COMDAT

; 3943 : {

  00000	55		 push	 ebp
  00001	8b ec		 mov	 ebp, esp

; 3945 : 	{
; 3946 : 		int iIndex = lpObj->m_Index - OBJ_STARTUSERINDEX;

  00003	8b 4d 08	 mov	 ecx, DWORD PTR _lpObj$[ebp]
  00006	8b 11		 mov	 edx, DWORD PTR [ecx]
  00008	81 ea 00 19 00
	00		 sub	 edx, 6400		; 00001900H
  0000e	33 c0		 xor	 eax, eax
  00010	6b d2 32	 imul	 edx, 50			; 00000032H
  00013	eb 0b 8d a4 24
	00 00 00 00 8d
	64 24 00	 npad	 13
$LL4@gObjAddAtt:

; 3947 : 
; 3948 : 		if ( gSMAttackProcMsg[iIndex][n].MsgCode < 0 )

  00020	8d 0c 02	 lea	 ecx, DWORD PTR [edx+eax]
  00023	8d 0c 89	 lea	 ecx, DWORD PTR [ecx+ecx*4]
  00026	83 3c 8d 00 00
	00 00 00	 cmp	 DWORD PTR ?gSMAttackProcMsg@@3PAY0DC@UExMessageStateMachine@@A[ecx*4], 0
  0002e	7c 08		 jl	 SHORT $LN8@gObjAddAtt

; 3944 : 	for ( int n=0;n<MAX_MONSTER_SEND_ATTACK_MSG;n++)

  00030	40		 inc	 eax
  00031	83 f8 32	 cmp	 eax, 50			; 00000032H
  00034	7c ea		 jl	 SHORT $LL4@gObjAddAtt

; 3955 : 			return;
; 3956 : 		}
; 3957 : 	}
; 3958 : }

  00036	5d		 pop	 ebp
  00037	c3		 ret	 0
$LN8@gObjAddAtt:
  00038	56		 push	 esi

; 3949 : 		{
; 3950 : 			gSMAttackProcMsg[iIndex][n].MsgCode = aMsgCode;

  00039	03 c2		 add	 eax, edx
  0003b	8b 55 0c	 mov	 edx, DWORD PTR _aMsgCode$[ebp]
  0003e	8d 34 80	 lea	 esi, DWORD PTR [eax+eax*4]
  00041	03 f6		 add	 esi, esi
  00043	03 f6		 add	 esi, esi
  00045	89 96 00 00 00
	00		 mov	 DWORD PTR ?gSMAttackProcMsg@@3PAY0DC@UExMessageStateMachine@@A[esi], edx

; 3951 : 			gSMAttackProcMsg[iIndex][n].MsgTime = GetTickCount() + delay;

  0004b	ff 15 00 00 00
	00		 call	 DWORD PTR __imp__GetTickCount@0
  00051	03 45 14	 add	 eax, DWORD PTR _delay$[ebp]

; 3952 : 			gSMAttackProcMsg[iIndex][n].SendUser = aIndex;
; 3953 : 			gSMAttackProcMsg[iIndex][n].SubCode = SubCode;

  00054	8b 4d 18	 mov	 ecx, DWORD PTR _SubCode$[ebp]

; 3954 : 			gSMAttackProcMsg[iIndex][n].SubCode2 = SubCode2;

  00057	8b 55 1c	 mov	 edx, DWORD PTR _SubCode2$[ebp]
  0005a	89 86 08 00 00
	00		 mov	 DWORD PTR ?gSMAttackProcMsg@@3PAY0DC@UExMessageStateMachine@@A[esi+8], eax
  00060	8b 45 10	 mov	 eax, DWORD PTR _aIndex$[ebp]
  00063	89 86 04 00 00
	00		 mov	 DWORD PTR ?gSMAttackProcMsg@@3PAY0DC@UExMessageStateMachine@@A[esi+4], eax
  00069	89 8e 0c 00 00
	00		 mov	 DWORD PTR ?gSMAttackProcMsg@@3PAY0DC@UExMessageStateMachine@@A[esi+12], ecx
  0006f	89 96 10 00 00
	00		 mov	 DWORD PTR ?gSMAttackProcMsg@@3PAY0DC@UExMessageStateMachine@@A[esi+16], edx
  00075	5e		 pop	 esi

; 3955 : 			return;
; 3956 : 		}
; 3957 : 	}
; 3958 : }

  00076	5d		 pop	 ebp
  00077	c3		 ret	 0
?gObjAddAttackProcMsgSendDelay@@YAXPAUOBJECTSTRUCT@@HHHHH@Z ENDP ; gObjAddAttackProcMsgSendDelay
_TEXT	ENDS
PUBLIC	?gObjBackSpring@@YAHPAUOBJECTSTRUCT@@0@Z	; gObjBackSpring
EXTRN	?RecvPositionSetProc@@YAXPAUPMSG_POSISTION_SET@@H@Z:PROC ; RecvPositionSetProc
EXTRN	?SetStandAttr@MapClass@@QAEXHH@Z:PROC		; MapClass::SetStandAttr
EXTRN	?ClearStandAttr@MapClass@@QAEXHH@Z:PROC		; MapClass::ClearStandAttr
EXTRN	?GetAttr@MapClass@@QAEEHH@Z:PROC		; MapClass::GetAttr
EXTRN	?MapC@@3PAVMapClass@@A:BYTE			; MapC
EXTRN	_rand:PROC
; Function compile flags: /Ogtp
;	COMDAT ?gObjBackSpring@@YAHPAUOBJECTSTRUCT@@0@Z
_TEXT	SEGMENT
_pMove$ = -8						; size = 5
_y$ = 8							; size = 4
_lpObj$ = 8						; size = 4
_lpTargetObj$ = 12					; size = 4
?gObjBackSpring@@YAHPAUOBJECTSTRUCT@@0@Z PROC		; gObjBackSpring, COMDAT

; 4085 : {

  00000	55		 push	 ebp
  00001	8b ec		 mov	 ebp, esp
  00003	83 ec 08	 sub	 esp, 8
  00006	56		 push	 esi

; 4086 : 	if ( MAX_MAP_RANGE(lpObj->MapNumber) == FALSE )

  00007	8b 75 08	 mov	 esi, DWORD PTR _lpObj$[ebp]
  0000a	b8 27 00 00 00	 mov	 eax, 39			; 00000027H
  0000f	3a 86 09 01 00
	00		 cmp	 al, BYTE PTR [esi+265]
  00015	1b c0		 sbb	 eax, eax
  00017	40		 inc	 eax
  00018	75 1f		 jne	 SHORT $LN11@gObjBackSp

; 4087 : 	{
; 4088 : 		LogAdd(LOG_BLACK, "error : %s %d", __FILE__, __LINE__);

  0001a	68 f8 0f 00 00	 push	 4088			; 00000ff8H
  0001f	68 00 00 00 00	 push	 OFFSET ??_C@_08DCNFOMBO@user?4cpp?$AA@
  00024	68 00 00 00 00	 push	 OFFSET ??_C@_0O@CKAEPJAF@error?5?3?5?$CFs?5?$CFd?$AA@
  00029	50		 push	 eax
  0002a	e8 00 00 00 00	 call	 ?LogAdd@@YAXW4eLogColor@@PADZZ ; LogAdd
  0002f	83 c4 10	 add	 esp, 16			; 00000010H
$LN17@gObjBackSp:

; 4089 : 		return FALSE;

  00032	33 c0		 xor	 eax, eax
  00034	5e		 pop	 esi

; 4200 : }

  00035	8b e5		 mov	 esp, ebp
  00037	5d		 pop	 ebp
  00038	c3		 ret	 0
$LN11@gObjBackSp:

; 4090 : 	}
; 4091 : 
; 4092 : 	if ( lpObj->Type == OBJ_USER )

  00039	66 83 7e 60 01	 cmp	 WORD PTR [esi+96], 1
  0003e	75 09		 jne	 SHORT $LN9@gObjBackSp

; 4093 : 	{
; 4094 : 		if ( lpObj->m_LastTeleportTime > 0 )

  00040	80 be 21 0f 00
	00 00		 cmp	 BYTE PTR [esi+3873], 0

; 4095 : 		{
; 4096 : 			return FALSE;

  00047	7f e9		 jg	 SHORT $LN17@gObjBackSp
$LN9@gObjBackSp:

; 4097 : 		}
; 4098 : 	}
; 4099 : 
; 4100 : #if GS_CASTLE == 1
; 4101 : 	if ( lpObj->Type == OBJ_USER )
; 4102 : 	{
; 4103 : 		if ( (lpObj->Authority & 2) == 2 )
; 4104 : 			return FALSE;
; 4105 : 	}
; 4106 : #endif
; 4107 : 
; 4108 : 	if ( lpObj->Class >= 131 && lpObj->Class <= 134 )

  00049	0f b7 86 98 00
	00 00		 movzx	 eax, WORD PTR [esi+152]
  00050	b9 83 00 00 00	 mov	 ecx, 131		; 00000083H
  00055	66 3b c1	 cmp	 ax, cx
  00058	72 0a		 jb	 SHORT $LN8@gObjBackSp
  0005a	ba 86 00 00 00	 mov	 edx, 134		; 00000086H
  0005f	66 3b c2	 cmp	 ax, dx

; 4109 : 	{
; 4110 : 		return FALSE;

  00062	76 ce		 jbe	 SHORT $LN17@gObjBackSp
$LN8@gObjBackSp:

; 4111 : 	}
; 4112 : 
; 4113 : 	int tdir;
; 4114 : 
; 4115 : #if GS_CASTLE == 1
; 4116 : 	if( lpObj->Class == 277 || lpObj->Class == 283 ||
; 4117 : 		lpObj->Class == 288 || lpObj->Class == 278 ||
; 4118 : 		lpObj->Class == 215 || lpObj->Class == 216 || 
; 4119 : 		lpObj->Class == 217 || lpObj->Class == 218 ||
; 4120 : 		lpObj->Class == 219 )
; 4121 : 	{
; 4122 : 		return FALSE;
; 4123 : 	}
; 4124 : 
; 4125 : 
; 4126 : 	if ( g_CastleSiege.GetCrownUserIndex() == lpObj->m_Index )
; 4127 : 	{
; 4128 : 		if ( lpObj->pInventory[8].m_Type == ITEMGET(13,4) )
; 4129 : 		{
; 4130 : 			return FALSE;
; 4131 : 		}
; 4132 : 	}
; 4133 : 
; 4134 : 	if ( CHECK_LIMIT2(lpObj->Class, 205, 210) || 
; 4135 : 		 CHECK_CLASS(lpObj->Class, 204) )
; 4136 : 	{
; 4137 : 		return FALSE;
; 4138 : 	}
; 4139 : 	
; 4140 : 	if ( lpObj->Class == 348 )
; 4141 : 	{
; 4142 : 		return FALSE;
; 4143 : 	}
; 4144 : #endif
; 4145 : 
; 4146 : 	if ( (rand()%3) == 0 )

  00064	e8 00 00 00 00	 call	 _rand
  00069	99		 cdq
  0006a	b9 03 00 00 00	 mov	 ecx, 3
  0006f	f7 f9		 idiv	 ecx
  00071	85 d2		 test	 edx, edx
  00073	75 1a		 jne	 SHORT $LN7@gObjBackSp

; 4147 : 	{
; 4148 : 		if ( lpTargetObj->Dir < 4 )

  00075	8b 55 0c	 mov	 edx, DWORD PTR _lpTargetObj$[ebp]
  00078	8a 82 08 01 00
	00		 mov	 al, BYTE PTR [edx+264]
  0007e	3c 04		 cmp	 al, 4

; 4149 : 		{
; 4150 : 			tdir = lpTargetObj->Dir + 4;

  00080	0f b6 c0	 movzx	 eax, al
  00083	73 05		 jae	 SHORT $LN6@gObjBackSp
  00085	83 c0 04	 add	 eax, 4

; 4151 : 		}
; 4152 : 		else

  00088	eb 0f		 jmp	 SHORT $LN5@gObjBackSp
$LN6@gObjBackSp:

; 4153 : 		{
; 4154 : 			tdir = lpTargetObj->Dir - 4;

  0008a	83 e8 04	 sub	 eax, 4

; 4155 : 		}
; 4156 : 
; 4157 : 		tdir *= 2;
; 4158 : 	}
; 4159 : 	else

  0008d	eb 0a		 jmp	 SHORT $LN5@gObjBackSp
$LN7@gObjBackSp:

; 4160 : 	{
; 4161 : 		tdir = lpTargetObj->Dir * 2;

  0008f	8b 45 0c	 mov	 eax, DWORD PTR _lpTargetObj$[ebp]
  00092	0f b6 80 08 01
	00 00		 movzx	 eax, BYTE PTR [eax+264]
$LN5@gObjBackSp:

; 4162 : 	}
; 4163 : 
; 4164 : 	
; 4165 : 	int x = lpObj->X;
; 4166 : 	int y = lpObj->Y;
; 4167 : 	x += RoadPathTable[tdir];

  00099	0f bf 8e 04 01
	00 00		 movsx	 ecx, WORD PTR [esi+260]

; 4168 : 	y += RoadPathTable[1+tdir];

  000a0	0f bf 96 06 01
	00 00		 movsx	 edx, WORD PTR [esi+262]
  000a7	03 c0		 add	 eax, eax
  000a9	53		 push	 ebx
  000aa	0f bf 1c 45 00
	00 00 00	 movsx	 ebx, WORD PTR ?RoadPathTable@@3PAFA[eax*2]
  000b2	0f bf 04 45 02
	00 00 00	 movsx	 eax, WORD PTR ?RoadPathTable@@3PAFA[eax*2+2]
  000ba	03 d9		 add	 ebx, ecx

; 4169 : 	BYTE attr = MapC[lpObj->MapNumber].GetAttr(x, y);

  000bc	0f b6 8e 09 01
	00 00		 movzx	 ecx, BYTE PTR [esi+265]
  000c3	69 c9 08 07 05
	00		 imul	 ecx, 329480		; 00050708H
  000c9	03 c2		 add	 eax, edx
  000cb	50		 push	 eax
  000cc	53		 push	 ebx
  000cd	81 c1 00 00 00
	00		 add	 ecx, OFFSET ?MapC@@3PAVMapClass@@A ; MapC
  000d3	89 45 08	 mov	 DWORD PTR _y$[ebp], eax
  000d6	e8 00 00 00 00	 call	 ?GetAttr@MapClass@@QAEEHH@Z ; MapClass::GetAttr

; 4170 : 
; 4171 : 	if ( (attr&1)==1 || (attr&2)==2 || (attr&4)== 4 || (attr&8)== 8 
; 4172 : #if GS_CASTLE == 1
; 4173 : 		 || (attr&16)== 16 
; 4174 : #endif
; 4175 : 		 )

  000db	a8 0f		 test	 al, 15			; 0000000fH
  000dd	0f 85 9c 00 00
	00		 jne	 $LN2@gObjBackSp

; 4178 : 	}
; 4179 : 
; 4180 : 	PMSG_POSISTION_SET pMove;
; 4181 : 	pMove.h.c = 0xC1;
; 4182 : 	pMove.h.headcode = PROTOCOL_POSITION;
; 4183 : 	pMove.h.size = sizeof(pMove);
; 4184 : 	pMove.X = x;
; 4185 : 	pMove.Y = y;
; 4186 : 
; 4187 : 	lpObj->m_Rest = 0;
; 4188 : 	MapC[lpObj->MapNumber].ClearStandAttr(lpObj->m_OldX, lpObj->m_OldY);

  000e3	0f bf 8e 1e 01
	00 00		 movsx	 ecx, WORD PTR [esi+286]
  000ea	0f bf 96 1c 01
	00 00		 movsx	 edx, WORD PTR [esi+284]
  000f1	8a 45 08	 mov	 al, BYTE PTR _y$[ebp]
  000f4	51		 push	 ecx
  000f5	0f b6 8e 09 01
	00 00		 movzx	 ecx, BYTE PTR [esi+265]
  000fc	69 c9 08 07 05
	00		 imul	 ecx, 329480		; 00050708H
  00102	52		 push	 edx
  00103	81 c1 00 00 00
	00		 add	 ecx, OFFSET ?MapC@@3PAVMapClass@@A ; MapC
  00109	c6 45 f8 c1	 mov	 BYTE PTR _pMove$[ebp], 193 ; 000000c1H
  0010d	66 c7 45 f9 05
	df		 mov	 WORD PTR _pMove$[ebp+1], 57093 ; 0000df05H
  00113	88 5d fb	 mov	 BYTE PTR _pMove$[ebp+3], bl
  00116	88 45 fc	 mov	 BYTE PTR _pMove$[ebp+4], al
  00119	c6 86 c1 01 00
	00 00		 mov	 BYTE PTR [esi+449], 0
  00120	e8 00 00 00 00	 call	 ?ClearStandAttr@MapClass@@QAEXHH@Z ; MapClass::ClearStandAttr

; 4189 : 	MapC[lpObj->MapNumber].SetStandAttr(x, y);

  00125	0f b6 8e 09 01
	00 00		 movzx	 ecx, BYTE PTR [esi+265]
  0012c	8b 45 08	 mov	 eax, DWORD PTR _y$[ebp]
  0012f	69 c9 08 07 05
	00		 imul	 ecx, 329480		; 00050708H
  00135	50		 push	 eax
  00136	53		 push	 ebx
  00137	81 c1 00 00 00
	00		 add	 ecx, OFFSET ?MapC@@3PAVMapClass@@A ; MapC
  0013d	e8 00 00 00 00	 call	 ?SetStandAttr@MapClass@@QAEXHH@Z ; MapClass::SetStandAttr

; 4190 : 	lpObj->m_OldX = x;
; 4191 : 	lpObj->m_OldY = y;
; 4192 : 	RecvPositionSetProc(&pMove, lpObj->m_Index);

  00142	8b 16		 mov	 edx, DWORD PTR [esi]
  00144	66 8b 4d 08	 mov	 cx, WORD PTR _y$[ebp]
  00148	52		 push	 edx
  00149	8d 45 f8	 lea	 eax, DWORD PTR _pMove$[ebp]
  0014c	50		 push	 eax
  0014d	66 89 9e 1c 01
	00 00		 mov	 WORD PTR [esi+284], bx
  00154	66 89 8e 1e 01
	00 00		 mov	 WORD PTR [esi+286], cx
  0015b	e8 00 00 00 00	 call	 ?RecvPositionSetProc@@YAXPAUPMSG_POSISTION_SET@@H@Z ; RecvPositionSetProc
  00160	83 c4 08	 add	 esp, 8

; 4193 : 
; 4194 : 	if ( lpObj->Type == OBJ_USER )

  00163	66 83 7e 60 01	 cmp	 WORD PTR [esi+96], 1
  00168	75 0a		 jne	 SHORT $LN1@gObjBackSp

; 4195 : 	{
; 4196 : 		lpObj->PathCount = 0;

  0016a	c7 86 28 01 00
	00 00 00 00 00	 mov	 DWORD PTR [esi+296], 0
$LN1@gObjBackSp:
  00174	5b		 pop	 ebx

; 4197 : 	}
; 4198 : 
; 4199 : 	return TRUE;

  00175	b8 01 00 00 00	 mov	 eax, 1
  0017a	5e		 pop	 esi

; 4200 : }

  0017b	8b e5		 mov	 esp, ebp
  0017d	5d		 pop	 ebp
  0017e	c3		 ret	 0
$LN2@gObjBackSp:
  0017f	5b		 pop	 ebx

; 4176 : 	{
; 4177 : 		return FALSE;

  00180	33 c0		 xor	 eax, eax
  00182	5e		 pop	 esi

; 4200 : }

  00183	8b e5		 mov	 esp, ebp
  00185	5d		 pop	 ebp
  00186	c3		 ret	 0
?gObjBackSpring@@YAHPAUOBJECTSTRUCT@@0@Z ENDP		; gObjBackSpring
_TEXT	ENDS
PUBLIC	?BackSpringCheck@@YAHAAH00E@Z			; BackSpringCheck
; Function compile flags: /Ogtp
;	COMDAT ?BackSpringCheck@@YAHAAH00E@Z
_TEXT	SEGMENT
_x$ = 8							; size = 4
_y$ = 12						; size = 4
_dir$ = 16						; size = 4
_map$ = 20						; size = 1
?BackSpringCheck@@YAHAAH00E@Z PROC			; BackSpringCheck, COMDAT

; 4203 : {

  00000	55		 push	 ebp
  00001	8b ec		 mov	 ebp, esp

; 4204 : 	BYTE attr;
; 4205 : 	int tx = x;
; 4206 : 	int ty = y;
; 4207 : 	int tdir = dir/2;

  00003	8b 45 10	 mov	 eax, DWORD PTR _dir$[ebp]
  00006	8b 08		 mov	 ecx, DWORD PTR [eax]
  00008	53		 push	 ebx
  00009	56		 push	 esi

; 4208 : 
; 4209 : 	tx = tx + RoadPathTable[dir];

  0000a	0f bf 34 4d 00
	00 00 00	 movsx	 esi, WORD PTR ?RoadPathTable@@3PAFA[ecx*2]
  00012	57		 push	 edi

; 4210 : 	ty = ty + RoadPathTable[1+dir];

  00013	0f bf 3c 4d 02
	00 00 00	 movsx	 edi, WORD PTR ?RoadPathTable@@3PAFA[ecx*2+2]
  0001b	8b c1		 mov	 eax, ecx

; 4211 : 
; 4212 : 	attr = MapC[map].GetAttr(tx, ty);

  0001d	0f b6 4d 14	 movzx	 ecx, BYTE PTR _map$[ebp]
  00021	99		 cdq
  00022	69 c9 08 07 05
	00		 imul	 ecx, 329480		; 00050708H
  00028	2b c2		 sub	 eax, edx
  0002a	8b 55 08	 mov	 edx, DWORD PTR _x$[ebp]
  0002d	03 32		 add	 esi, DWORD PTR [edx]
  0002f	8b d8		 mov	 ebx, eax
  00031	8b 45 0c	 mov	 eax, DWORD PTR _y$[ebp]
  00034	03 38		 add	 edi, DWORD PTR [eax]
  00036	81 c1 00 00 00
	00		 add	 ecx, OFFSET ?MapC@@3PAVMapClass@@A ; MapC
  0003c	57		 push	 edi
  0003d	56		 push	 esi
  0003e	d1 fb		 sar	 ebx, 1
  00040	e8 00 00 00 00	 call	 ?GetAttr@MapClass@@QAEEHH@Z ; MapClass::GetAttr

; 4213 : 
; 4214 : 	if ( (attr&1)==1 || (attr&4)== 4 || (attr&8)== 8 
; 4215 : #if GS_CASTLE == 1
; 4216 : 		 || (attr&16)== 16 
; 4217 : #endif
; 4218 : 		 )

  00045	a8 0d		 test	 al, 13			; 0000000dH
  00047	75 14		 jne	 SHORT $LN2@BackSpring

; 4229 : 	}
; 4230 : 
; 4231 : 	x = tx;

  00049	8b 4d 08	 mov	 ecx, DWORD PTR _x$[ebp]

; 4232 : 	y = ty;

  0004c	8b 55 0c	 mov	 edx, DWORD PTR _y$[ebp]
  0004f	89 31		 mov	 DWORD PTR [ecx], esi
  00051	89 3a		 mov	 DWORD PTR [edx], edi
  00053	5f		 pop	 edi
  00054	5e		 pop	 esi

; 4233 : 
; 4234 : 	return TRUE;

  00055	b8 01 00 00 00	 mov	 eax, 1
  0005a	5b		 pop	 ebx

; 4235 : }

  0005b	5d		 pop	 ebp
  0005c	c3		 ret	 0
$LN2@BackSpring:

; 4219 : 	{
; 4220 : 		tdir += 4;

  0005d	83 c3 04	 add	 ebx, 4

; 4221 : 
; 4222 : 		if ( tdir > 7 )

  00060	83 fb 07	 cmp	 ebx, 7
  00063	7e 03		 jle	 SHORT $LN1@BackSpring

; 4223 : 		{
; 4224 : 			tdir -= 8;

  00065	83 eb 08	 sub	 ebx, 8
$LN1@BackSpring:

; 4225 : 		}
; 4226 : 
; 4227 : 		dir = tdir * 2;

  00068	8b 4d 10	 mov	 ecx, DWORD PTR _dir$[ebp]
  0006b	8d 04 1b	 lea	 eax, DWORD PTR [ebx+ebx]
  0006e	5f		 pop	 edi
  0006f	5e		 pop	 esi
  00070	89 01		 mov	 DWORD PTR [ecx], eax

; 4228 : 		return FALSE;

  00072	33 c0		 xor	 eax, eax
  00074	5b		 pop	 ebx

; 4235 : }

  00075	5d		 pop	 ebp
  00076	c3		 ret	 0
?BackSpringCheck@@YAHAAH00E@Z ENDP			; BackSpringCheck
_TEXT	ENDS
PUBLIC	?gObjBackSpring2@@YAHPAUOBJECTSTRUCT@@0H@Z	; gObjBackSpring2
; Function compile flags: /Ogtp
;	COMDAT ?gObjBackSpring2@@YAHPAUOBJECTSTRUCT@@0H@Z
_TEXT	SEGMENT
_pMove$ = -16						; size = 5
_tdir$ = -8						; size = 4
_x$ = -4						; size = 4
_y$ = 8							; size = 4
_lpObj$ = 8						; size = 4
_lpTargetObj$ = 12					; size = 4
_count$ = 16						; size = 4
?gObjBackSpring2@@YAHPAUOBJECTSTRUCT@@0H@Z PROC		; gObjBackSpring2, COMDAT

; 4238 : {

  00000	55		 push	 ebp
  00001	8b ec		 mov	 ebp, esp
  00003	83 ec 10	 sub	 esp, 16			; 00000010H
  00006	56		 push	 esi

; 4239 : 	if ( MAX_MAP_RANGE(lpObj->MapNumber) == FALSE )

  00007	8b 75 08	 mov	 esi, DWORD PTR _lpObj$[ebp]
  0000a	b8 27 00 00 00	 mov	 eax, 39			; 00000027H
  0000f	3a 86 09 01 00
	00		 cmp	 al, BYTE PTR [esi+265]
  00015	1b c0		 sbb	 eax, eax
  00017	40		 inc	 eax
  00018	75 1f		 jne	 SHORT $LN11@gObjBackSp@2

; 4240 : 	{
; 4241 : 		LogAdd(LOG_BLACK, "error : %s %d", __FILE__, __LINE__);

  0001a	68 91 10 00 00	 push	 4241			; 00001091H
  0001f	68 00 00 00 00	 push	 OFFSET ??_C@_08DCNFOMBO@user?4cpp?$AA@
  00024	68 00 00 00 00	 push	 OFFSET ??_C@_0O@CKAEPJAF@error?5?3?5?$CFs?5?$CFd?$AA@
  00029	50		 push	 eax
  0002a	e8 00 00 00 00	 call	 ?LogAdd@@YAXW4eLogColor@@PADZZ ; LogAdd
  0002f	83 c4 10	 add	 esp, 16			; 00000010H
$LN9@gObjBackSp@2:

; 4253 : 	{
; 4254 : 		return FALSE;

  00032	33 c0		 xor	 eax, eax
  00034	5e		 pop	 esi

; 4336 : }

  00035	8b e5		 mov	 esp, ebp
  00037	5d		 pop	 ebp
  00038	c3		 ret	 0
$LN11@gObjBackSp@2:

; 4242 : 		return FALSE;
; 4243 : 	}
; 4244 : 
; 4245 : #if GS_CASTLE == 1
; 4246 : 	if ( lpObj->Type == OBJ_USER )
; 4247 : 	{
; 4248 : 		if ( (lpObj->Authority & 2) == 2 )
; 4249 : 			return FALSE;
; 4250 : 	}
; 4251 : #endif
; 4252 : 	if ( lpObj->Class == 287 || lpObj->Class == 286 )

  00039	0f b7 86 98 00
	00 00		 movzx	 eax, WORD PTR [esi+152]
  00040	b9 1f 01 00 00	 mov	 ecx, 287		; 0000011fH
  00045	66 3b c1	 cmp	 ax, cx
  00048	74 e8		 je	 SHORT $LN9@gObjBackSp@2
  0004a	ba 1e 01 00 00	 mov	 edx, 286		; 0000011eH
  0004f	66 3b c2	 cmp	 ax, dx
  00052	74 de		 je	 SHORT $LN9@gObjBackSp@2

; 4255 : 	}
; 4256 : 
; 4257 : #if GS_CASTLE == 1
; 4258 : 	if ( lpObj->Class == 278 )
; 4259 : 	{
; 4260 : 		return FALSE;
; 4261 : 	}
; 4262 : #endif
; 4263 : 
; 4264 : 	if ( lpObj->Class >= 131 && lpObj->Class <= 134 )

  00054	b9 83 00 00 00	 mov	 ecx, 131		; 00000083H
  00059	66 3b c1	 cmp	 ax, cx
  0005c	72 0a		 jb	 SHORT $LN8@gObjBackSp@2
  0005e	ba 86 00 00 00	 mov	 edx, 134		; 00000086H
  00063	66 3b c2	 cmp	 ax, dx

; 4265 : 	{
; 4266 : 		return FALSE;

  00066	76 ca		 jbe	 SHORT $LN9@gObjBackSp@2
$LN8@gObjBackSp@2:

; 4267 : 	}
; 4268 : 
; 4269 : 	int tdir;
; 4270 : #if GS_CASTLE == 1
; 4271 : 	if( lpObj->Class == 277 || lpObj->Class == 283 ||
; 4272 : 		lpObj->Class == 288 || lpObj->Class == 278 ||
; 4273 : 		lpObj->Class == 215 || lpObj->Class == 216 || 
; 4274 : 		lpObj->Class == 217 || lpObj->Class == 218 ||
; 4275 : 		lpObj->Class == 219 )
; 4276 : 	{
; 4277 : 		return FALSE;
; 4278 : 	}
; 4279 : 
; 4280 : 
; 4281 : 	if ( g_CastleSiege.GetCrownUserIndex() == lpObj->m_Index )
; 4282 : 	{
; 4283 : 		if ( lpObj->pInventory[8].m_Type == ITEMGET(13,4) )
; 4284 : 		{
; 4285 : 			return FALSE;
; 4286 : 		}
; 4287 : 	}
; 4288 : 
; 4289 : 	if ( CHECK_LIMIT2(lpObj->Class, 205, 210) || 
; 4290 : 		 CHECK_CLASS(lpObj->Class, 204) )
; 4291 : 	{
; 4292 : 		return FALSE;
; 4293 : 	}
; 4294 : 	
; 4295 : 	if ( lpObj->Class == 348 )
; 4296 : 	{
; 4297 : 		return FALSE;
; 4298 : 	}
; 4299 : #endif
; 4300 : 	
; 4301 : 	tdir = GetPathPacketDirPos(lpObj->X - lpTargetObj->X, lpObj->Y - lpTargetObj->Y) * 2;

  00068	8b 45 0c	 mov	 eax, DWORD PTR _lpTargetObj$[ebp]
  0006b	0f bf 88 06 01
	00 00		 movsx	 ecx, WORD PTR [eax+262]
  00072	0f bf 80 04 01
	00 00		 movsx	 eax, WORD PTR [eax+260]
  00079	53		 push	 ebx
  0007a	0f bf 9e 04 01
	00 00		 movsx	 ebx, WORD PTR [esi+260]
  00081	57		 push	 edi
  00082	0f bf be 06 01
	00 00		 movsx	 edi, WORD PTR [esi+262]
  00089	8b d7		 mov	 edx, edi
  0008b	2b d1		 sub	 edx, ecx
  0008d	8b cb		 mov	 ecx, ebx
  0008f	52		 push	 edx
  00090	2b c8		 sub	 ecx, eax
  00092	51		 push	 ecx
  00093	e8 00 00 00 00	 call	 ?GetPathPacketDirPos@@YAEHH@Z ; GetPathPacketDirPos
  00098	0f b6 d0	 movzx	 edx, al

; 4302 : 	int x = lpObj->X;
; 4303 : 	int y = lpObj->Y;

  0009b	89 7d 08	 mov	 DWORD PTR _y$[ebp], edi
  0009e	03 d2		 add	 edx, edx

; 4304 : 
; 4305 : 	for ( int n=0;n<count;n++)

  000a0	33 ff		 xor	 edi, edi
  000a2	83 c4 08	 add	 esp, 8
  000a5	89 55 f8	 mov	 DWORD PTR _tdir$[ebp], edx
  000a8	89 5d fc	 mov	 DWORD PTR _x$[ebp], ebx
  000ab	39 7d 10	 cmp	 DWORD PTR _count$[ebp], edi
  000ae	7e 56		 jle	 SHORT $LN5@gObjBackSp@2
$LL7@gObjBackSp@2:

; 4306 : 	{
; 4307 : 		if ( n >= 2 )

  000b0	83 ff 02	 cmp	 edi, 2
  000b3	7c 2c		 jl	 SHORT $LN4@gObjBackSp@2

; 4308 : 		{
; 4309 : 			if ( lpObj->Class == 4 || lpObj->Class == 3 || lpObj->Class == 1 )

  000b5	0f b7 86 98 00
	00 00		 movzx	 eax, WORD PTR [esi+152]
  000bc	83 f8 04	 cmp	 eax, 4
  000bf	74 0a		 je	 SHORT $LN18@gObjBackSp@2
  000c1	83 f8 03	 cmp	 eax, 3
  000c4	74 05		 je	 SHORT $LN18@gObjBackSp@2
  000c6	83 f8 01	 cmp	 eax, 1
  000c9	75 32		 jne	 SHORT $LN6@gObjBackSp@2
$LN18@gObjBackSp@2:

; 4310 : 			{
; 4311 : 				BackSpringCheck(x, y, tdir, lpObj->MapNumber);

  000cb	0f b6 86 09 01
	00 00		 movzx	 eax, BYTE PTR [esi+265]
  000d2	50		 push	 eax
  000d3	8d 4d f8	 lea	 ecx, DWORD PTR _tdir$[ebp]
  000d6	51		 push	 ecx
  000d7	8d 55 08	 lea	 edx, DWORD PTR _y$[ebp]
  000da	52		 push	 edx
  000db	8d 45 fc	 lea	 eax, DWORD PTR _x$[ebp]
  000de	50		 push	 eax

; 4312 : 			}
; 4313 : 		}
; 4314 : 		else

  000df	eb 14		 jmp	 SHORT $LN19@gObjBackSp@2
$LN4@gObjBackSp@2:

; 4315 : 		{
; 4316 : 			BackSpringCheck(x, y, tdir, lpObj->MapNumber);

  000e1	0f b6 8e 09 01
	00 00		 movzx	 ecx, BYTE PTR [esi+265]
  000e8	51		 push	 ecx
  000e9	8d 55 f8	 lea	 edx, DWORD PTR _tdir$[ebp]
  000ec	52		 push	 edx
  000ed	8d 45 08	 lea	 eax, DWORD PTR _y$[ebp]
  000f0	50		 push	 eax
  000f1	8d 4d fc	 lea	 ecx, DWORD PTR _x$[ebp]
  000f4	51		 push	 ecx
$LN19@gObjBackSp@2:
  000f5	e8 00 00 00 00	 call	 ?BackSpringCheck@@YAHAAH00E@Z ; BackSpringCheck
  000fa	83 c4 10	 add	 esp, 16			; 00000010H
$LN6@gObjBackSp@2:

; 4304 : 
; 4305 : 	for ( int n=0;n<count;n++)

  000fd	47		 inc	 edi
  000fe	3b 7d 10	 cmp	 edi, DWORD PTR _count$[ebp]
  00101	7c ad		 jl	 SHORT $LL7@gObjBackSp@2
  00103	8b 5d fc	 mov	 ebx, DWORD PTR _x$[ebp]
$LN5@gObjBackSp@2:

; 4317 : 		}
; 4318 : 	}
; 4319 : 
; 4320 : 	PMSG_POSISTION_SET pMove;
; 4321 : 
; 4322 : 	pMove.h.c = 0xC1;
; 4323 : 	pMove.h.headcode = PROTOCOL_POSITION;
; 4324 : 	pMove.h.size = sizeof(pMove);
; 4325 : 	pMove.X = x;
; 4326 : 	pMove.Y = y;
; 4327 : 
; 4328 : 	lpObj->m_Rest = 0;
; 4329 : 	MapC[lpObj->MapNumber].ClearStandAttr(lpObj->m_OldX, lpObj->m_OldY);

  00106	0f bf 86 1e 01
	00 00		 movsx	 eax, WORD PTR [esi+286]
  0010d	0f bf 8e 1c 01
	00 00		 movsx	 ecx, WORD PTR [esi+284]
  00114	8a 55 08	 mov	 dl, BYTE PTR _y$[ebp]
  00117	50		 push	 eax
  00118	51		 push	 ecx
  00119	0f b6 8e 09 01
	00 00		 movzx	 ecx, BYTE PTR [esi+265]
  00120	69 c9 08 07 05
	00		 imul	 ecx, 329480		; 00050708H
  00126	81 c1 00 00 00
	00		 add	 ecx, OFFSET ?MapC@@3PAVMapClass@@A ; MapC
  0012c	c6 45 f0 c1	 mov	 BYTE PTR _pMove$[ebp], 193 ; 000000c1H
  00130	66 c7 45 f1 05
	df		 mov	 WORD PTR _pMove$[ebp+1], 57093 ; 0000df05H
  00136	88 5d f3	 mov	 BYTE PTR _pMove$[ebp+3], bl
  00139	88 55 f4	 mov	 BYTE PTR _pMove$[ebp+4], dl
  0013c	c6 86 c1 01 00
	00 00		 mov	 BYTE PTR [esi+449], 0
  00143	e8 00 00 00 00	 call	 ?ClearStandAttr@MapClass@@QAEXHH@Z ; MapClass::ClearStandAttr

; 4330 : 	MapC[lpObj->MapNumber].SetStandAttr(x, y);

  00148	0f b6 8e 09 01
	00 00		 movzx	 ecx, BYTE PTR [esi+265]
  0014f	8b 55 08	 mov	 edx, DWORD PTR _y$[ebp]
  00152	69 c9 08 07 05
	00		 imul	 ecx, 329480		; 00050708H
  00158	52		 push	 edx
  00159	53		 push	 ebx
  0015a	81 c1 00 00 00
	00		 add	 ecx, OFFSET ?MapC@@3PAVMapClass@@A ; MapC
  00160	e8 00 00 00 00	 call	 ?SetStandAttr@MapClass@@QAEXHH@Z ; MapClass::SetStandAttr

; 4331 : 	lpObj->m_OldX = x;
; 4332 : 	lpObj->m_OldY = y;
; 4333 : 	RecvPositionSetProc(&pMove, lpObj->m_Index);

  00165	8b 0e		 mov	 ecx, DWORD PTR [esi]
  00167	66 8b 45 08	 mov	 ax, WORD PTR _y$[ebp]
  0016b	51		 push	 ecx
  0016c	8d 55 f0	 lea	 edx, DWORD PTR _pMove$[ebp]
  0016f	52		 push	 edx
  00170	66 89 9e 1c 01
	00 00		 mov	 WORD PTR [esi+284], bx
  00177	66 89 86 1e 01
	00 00		 mov	 WORD PTR [esi+286], ax
  0017e	e8 00 00 00 00	 call	 ?RecvPositionSetProc@@YAXPAUPMSG_POSISTION_SET@@H@Z ; RecvPositionSetProc
  00183	83 c4 08	 add	 esp, 8
  00186	5f		 pop	 edi
  00187	5b		 pop	 ebx

; 4334 : 
; 4335 : 	return TRUE;

  00188	b8 01 00 00 00	 mov	 eax, 1
  0018d	5e		 pop	 esi

; 4336 : }

  0018e	8b e5		 mov	 esp, ebp
  00190	5d		 pop	 ebp
  00191	c3		 ret	 0
?gObjBackSpring2@@YAHPAUOBJECTSTRUCT@@0H@Z ENDP		; gObjBackSpring2
_TEXT	ENDS
PUBLIC	?gObjGiveItemSearch@@YAXPAUOBJECTSTRUCT@@H@Z	; gObjGiveItemSearch
; Function compile flags: /Ogtp
;	COMDAT ?gObjGiveItemSearch@@YAXPAUOBJECTSTRUCT@@H@Z
_TEXT	SEGMENT
_lpObj$ = 8						; size = 4
_maxlevel$ = 12						; size = 4
?gObjGiveItemSearch@@YAXPAUOBJECTSTRUCT@@H@Z PROC	; gObjGiveItemSearch, COMDAT

; 4591 : #if ACTIVE_ITEM_SEARCH == 0
; 4592 : 	//goto lavelend;
; 4593 : #endif
; 4594 : 
; 4595 : //	int count;
; 4596 : 	//while (--count)
; 4597 : 	{
; 4598 : 
; 4599 : 	}
; 4600 : 
; 4601 : #if ACTIVE_ITEM_SEARCH == 0
; 4602 : 	//labelend:
; 4603 : #endif
; 4604 : }

  00000	c3		 ret	 0
?gObjGiveItemSearch@@YAXPAUOBJECTSTRUCT@@H@Z ENDP	; gObjGiveItemSearch
_TEXT	ENDS
PUBLIC	__$ArrayPad$
PUBLIC	?gObjWarehouseInsertItem@@YAEPAUOBJECTSTRUCT@@HHHH@Z ; gObjWarehouseInsertItem
EXTRN	?Convert@CItem@@QAEXHEEEEEEE@Z:PROC		; CItem::Convert
EXTRN	?ItemGetNumberMake@@YAHHH@Z:PROC		; ItemGetNumberMake
EXTRN	??0CItem@@QAE@XZ:PROC				; CItem::CItem
; Function compile flags: /Ogtp
;	COMDAT ?gObjWarehouseInsertItem@@YAEPAUOBJECTSTRUCT@@HHHH@Z
_TEXT	SEGMENT
_item$ = -172						; size = 168
__$ArrayPad$ = -4					; size = 4
_lpObj$ = 8						; size = 4
_type$ = 12						; size = 4
_index$ = 16						; size = 4
_level$ = 20						; size = 4
_pos$ = 24						; size = 4
?gObjWarehouseInsertItem@@YAEPAUOBJECTSTRUCT@@HHHH@Z PROC ; gObjWarehouseInsertItem, COMDAT

; 4611 : {

  00000	55		 push	 ebp
  00001	8b ec		 mov	 ebp, esp
  00003	81 ec ac 00 00
	00		 sub	 esp, 172		; 000000acH
  00009	a1 00 00 00 00	 mov	 eax, DWORD PTR ___security_cookie
  0000e	33 c5		 xor	 eax, ebp
  00010	89 45 fc	 mov	 DWORD PTR __$ArrayPad$[ebp], eax
  00013	53		 push	 ebx
  00014	8b 5d 18	 mov	 ebx, DWORD PTR _pos$[ebp]
  00017	56		 push	 esi
  00018	8b 75 08	 mov	 esi, DWORD PTR _lpObj$[ebp]
  0001b	57		 push	 edi

; 4612 : 	CItem item;

  0001c	8d 8d 54 ff ff
	ff		 lea	 ecx, DWORD PTR _item$[ebp]
  00022	e8 00 00 00 00	 call	 ??0CItem@@QAE@XZ	; CItem::CItem

; 4613 : 
; 4614 : 	int item_type = ItemGetNumberMake(type, index);

  00027	8b 45 10	 mov	 eax, DWORD PTR _index$[ebp]
  0002a	8b 4d 0c	 mov	 ecx, DWORD PTR _type$[ebp]
  0002d	50		 push	 eax
  0002e	51		 push	 ecx
  0002f	e8 00 00 00 00	 call	 ?ItemGetNumberMake@@YAHHH@Z ; ItemGetNumberMake

; 4615 : 	item.m_Level =level;

  00034	66 8b 55 14	 mov	 dx, WORD PTR _level$[ebp]
  00038	83 c4 08	 add	 esp, 8

; 4616 : 	item.Convert(item_type, 0 , 0, 0, 0, 0,0,  CURRENT_DB_VERSION);

  0003b	6a 03		 push	 3
  0003d	6a 00		 push	 0
  0003f	6a 00		 push	 0
  00041	6a 00		 push	 0
  00043	6a 00		 push	 0
  00045	6a 00		 push	 0
  00047	6a 00		 push	 0
  00049	50		 push	 eax
  0004a	8d 8d 54 ff ff
	ff		 lea	 ecx, DWORD PTR _item$[ebp]
  00050	66 89 95 5c ff
	ff ff		 mov	 WORD PTR _item$[ebp+8], dx
  00057	e8 00 00 00 00	 call	 ?Convert@CItem@@QAEXHEEEEEEE@Z ; CItem::Convert

; 4617 : 	lpObj->pWarehouse[pos] = item;

  0005c	8b be c4 0c 00
	00		 mov	 edi, DWORD PTR [esi+3268]
  00062	8b c3		 mov	 eax, ebx
  00064	69 c0 a8 00 00
	00		 imul	 eax, 168		; 000000a8H
  0006a	03 f8		 add	 edi, eax
  0006c	b9 2a 00 00 00	 mov	 ecx, 42			; 0000002aH
  00071	8d b5 54 ff ff
	ff		 lea	 esi, DWORD PTR _item$[ebp]
  00077	f3 a5		 rep movsd

; 4618 : 	return pos;
; 4619 : }

  00079	8b 4d fc	 mov	 ecx, DWORD PTR __$ArrayPad$[ebp]
  0007c	5f		 pop	 edi
  0007d	5e		 pop	 esi
  0007e	8a c3		 mov	 al, bl
  00080	33 cd		 xor	 ecx, ebp
  00082	5b		 pop	 ebx
  00083	e8 00 00 00 00	 call	 @__security_check_cookie@4
  00088	8b e5		 mov	 esp, ebp
  0008a	5d		 pop	 ebp
  0008b	c3		 ret	 0
?gObjWarehouseInsertItem@@YAEPAUOBJECTSTRUCT@@HHHH@Z ENDP ; gObjWarehouseInsertItem
_TEXT	ENDS
PUBLIC	?gObjGiveItemWarehouseSearch@@YAXPAUOBJECTSTRUCT@@H@Z ; gObjGiveItemWarehouseSearch
; Function compile flags: /Ogtp
;	COMDAT ?gObjGiveItemWarehouseSearch@@YAXPAUOBJECTSTRUCT@@H@Z
_TEXT	SEGMENT
_lpObj$ = 8						; size = 4
_maxlevel$ = 12						; size = 4
?gObjGiveItemWarehouseSearch@@YAXPAUOBJECTSTRUCT@@H@Z PROC ; gObjGiveItemWarehouseSearch, COMDAT

; 4629 : #if ACTIVE_ITEM_SEARCH == 0
; 4630 : 	//goto lavelend;
; 4631 : #endif
; 4632 : 
; 4633 : 	
; 4634 : 
; 4635 : #if ACTIVE_ITEM_SEARCH == 0
; 4636 : 	//labelend:
; 4637 : #endif
; 4638 : }

  00000	c3		 ret	 0
?gObjGiveItemWarehouseSearch@@YAXPAUOBJECTSTRUCT@@H@Z ENDP ; gObjGiveItemWarehouseSearch
_TEXT	ENDS
PUBLIC	?gObjGuildMasterCapacityTest@@YAHPAUOBJECTSTRUCT@@@Z ; gObjGuildMasterCapacityTest
EXTRN	?gGuildCreateLevel@@3HA:DWORD			; gGuildCreateLevel
; Function compile flags: /Ogtp
;	COMDAT ?gObjGuildMasterCapacityTest@@YAHPAUOBJECTSTRUCT@@@Z
_TEXT	SEGMENT
_lpObj$ = 8						; size = 4
?gObjGuildMasterCapacityTest@@YAHPAUOBJECTSTRUCT@@@Z PROC ; gObjGuildMasterCapacityTest, COMDAT

; 4646 : {

  00000	55		 push	 ebp
  00001	8b ec		 mov	 ebp, esp

; 4647 : 	if (lpObj->Level < gGuildCreateLevel)

  00003	8b 45 08	 mov	 eax, DWORD PTR _lpObj$[ebp]
  00006	0f bf 88 9c 00
	00 00		 movsx	 ecx, WORD PTR [eax+156]
  0000d	33 c0		 xor	 eax, eax
  0000f	3b 0d 00 00 00
	00		 cmp	 ecx, DWORD PTR ?gGuildCreateLevel@@3HA ; gGuildCreateLevel
  00015	0f 9d c0	 setge	 al

; 4648 : 	{
; 4649 : 		return 0;
; 4650 : 	}
; 4651 : 	return 1;
; 4652 : }

  00018	5d		 pop	 ebp
  00019	c3		 ret	 0
?gObjGuildMasterCapacityTest@@YAHPAUOBJECTSTRUCT@@@Z ENDP ; gObjGuildMasterCapacityTest
_TEXT	ENDS
PUBLIC	?gObjNextExpCal@@YAXPAUOBJECTSTRUCT@@@Z		; gObjNextExpCal
EXTRN	?gLevelExperience@@3PAKA:BYTE			; gLevelExperience
; Function compile flags: /Ogtp
;	COMDAT ?gObjNextExpCal@@YAXPAUOBJECTSTRUCT@@@Z
_TEXT	SEGMENT
_lpObj$ = 8						; size = 4
?gObjNextExpCal@@YAXPAUOBJECTSTRUCT@@@Z PROC		; gObjNextExpCal, COMDAT

; 4655 : {

  00000	55		 push	 ebp
  00001	8b ec		 mov	 ebp, esp

; 4656 : 	lpObj->NextExp = gLevelExperience[lpObj->Level];

  00003	8b 45 08	 mov	 eax, DWORD PTR _lpObj$[ebp]
  00006	0f bf 88 9c 00
	00 00		 movsx	 ecx, WORD PTR [eax+156]
  0000d	8b 14 8d 00 00
	00 00		 mov	 edx, DWORD PTR ?gLevelExperience@@3PAKA[ecx*4]
  00014	89 90 ac 00 00
	00		 mov	 DWORD PTR [eax+172], edx

; 4657 : }

  0001a	5d		 pop	 ebp
  0001b	c3		 ret	 0
?gObjNextExpCal@@YAXPAUOBJECTSTRUCT@@@Z ENDP		; gObjNextExpCal
_TEXT	ENDS
PUBLIC	?retResistance@@YAHPAUOBJECTSTRUCT@@H@Z		; retResistance
; Function compile flags: /Ogtp
;	COMDAT ?retResistance@@YAHPAUOBJECTSTRUCT@@H@Z
_TEXT	SEGMENT
_lpObj$ = 8						; size = 4
_Resistance_Type$ = 12					; size = 4
?retResistance@@YAHPAUOBJECTSTRUCT@@H@Z PROC		; retResistance, COMDAT

; 4660 : {

  00000	55		 push	 ebp
  00001	8b ec		 mov	 ebp, esp

; 4661 : 	BYTE r = lpObj->m_Resistance[Resistance_Type];

  00003	8b 45 08	 mov	 eax, DWORD PTR _lpObj$[ebp]
  00006	8b 4d 0c	 mov	 ecx, DWORD PTR _Resistance_Type$[ebp]
  00009	53		 push	 ebx
  0000a	8a 9c 08 62 03
	00 00		 mov	 bl, BYTE PTR [eax+ecx+866]

; 4662 : 
; 4663 : 	if( r == 0xFF)

  00011	80 fb ff	 cmp	 bl, 255			; 000000ffH
  00014	75 08		 jne	 SHORT $LN5@retResista

; 4664 : 	{
; 4665 : 		return 1;

  00016	b8 01 00 00 00	 mov	 eax, 1
  0001b	5b		 pop	 ebx

; 4679 : 	{
; 4680 : 		return 0;
; 4681 : 	}
; 4682 : 
; 4683 : 	return 1;
; 4684 : }

  0001c	5d		 pop	 ebp
  0001d	c3		 ret	 0
$LN5@retResista:

; 4666 : 	}
; 4667 : 
; 4668 : 	if ( r > 0 && lpObj->m_iPotionSoulTime > 0 && (Resistance_Type == 2 || Resistance_Type == 0 ))

  0001e	84 db		 test	 bl, bl
  00020	74 2f		 je	 SHORT $LN9@retResista
  00022	83 b8 f8 14 00
	00 00		 cmp	 DWORD PTR [eax+5368], 0
  00029	7e 22		 jle	 SHORT $LN4@retResista
  0002b	83 f9 02	 cmp	 ecx, 2
  0002e	74 04		 je	 SHORT $LN3@retResista
  00030	85 c9		 test	 ecx, ecx
  00032	75 19		 jne	 SHORT $LN4@retResista
$LN3@retResista:

; 4669 : 	{
; 4670 : 		r += r * 50 / 100;

  00034	0f b6 cb	 movzx	 ecx, bl
  00037	6b c9 32	 imul	 ecx, 50			; 00000032H
  0003a	b8 1f 85 eb 51	 mov	 eax, 1374389535		; 51eb851fH
  0003f	f7 e9		 imul	 ecx
  00041	c1 fa 05	 sar	 edx, 5
  00044	8b c2		 mov	 eax, edx
  00046	c1 e8 1f	 shr	 eax, 31			; 0000001fH
  00049	03 c2		 add	 eax, edx
  0004b	02 d8		 add	 bl, al
$LN4@retResista:

; 4671 : 	}
; 4672 : 
; 4673 : 	if ( r  == 0 )

  0004d	84 db		 test	 bl, bl
  0004f	75 05		 jne	 SHORT $LN2@retResista
$LN9@retResista:

; 4674 : 	{
; 4675 : 		return 0;

  00051	33 c0		 xor	 eax, eax
  00053	5b		 pop	 ebx

; 4679 : 	{
; 4680 : 		return 0;
; 4681 : 	}
; 4682 : 
; 4683 : 	return 1;
; 4684 : }

  00054	5d		 pop	 ebp
  00055	c3		 ret	 0
$LN2@retResista:

; 4676 : 	}
; 4677 : 
; 4678 : 	if (  (rand()%(r+1)) == 0 )

  00056	e8 00 00 00 00	 call	 _rand
  0005b	0f b6 cb	 movzx	 ecx, bl
  0005e	99		 cdq
  0005f	41		 inc	 ecx
  00060	f7 f9		 idiv	 ecx
  00062	5b		 pop	 ebx
  00063	8b c2		 mov	 eax, edx
  00065	f7 d8		 neg	 eax
  00067	1b c0		 sbb	 eax, eax
  00069	f7 d8		 neg	 eax

; 4679 : 	{
; 4680 : 		return 0;
; 4681 : 	}
; 4682 : 
; 4683 : 	return 1;
; 4684 : }

  0006b	5d		 pop	 ebp
  0006c	c3		 ret	 0
?retResistance@@YAHPAUOBJECTSTRUCT@@H@Z ENDP		; retResistance
_TEXT	ENDS
PUBLIC	?retCalcSkillResistance@@YAHPAUOBJECTSTRUCT@@H@Z ; retCalcSkillResistance
; Function compile flags: /Ogtp
;	COMDAT ?retCalcSkillResistance@@YAHPAUOBJECTSTRUCT@@H@Z
_TEXT	SEGMENT
_lpTargetObj$ = 8					; size = 4
_isDouble$ = 12						; size = 4
?retCalcSkillResistance@@YAHPAUOBJECTSTRUCT@@H@Z PROC	; retCalcSkillResistance, COMDAT

; 4687 : {

  00000	55		 push	 ebp
  00001	8b ec		 mov	 ebp, esp

; 4688 : 	if ( isDouble != FALSE )
; 4689 : 	{
; 4690 : 		if ( (rand()%100) < 45 )

  00003	e8 00 00 00 00	 call	 _rand
  00008	99		 cdq
  00009	b9 64 00 00 00	 mov	 ecx, 100		; 00000064H
  0000e	f7 f9		 idiv	 ecx
  00010	83 7d 0c 00	 cmp	 DWORD PTR _isDouble$[ebp], 0
  00014	74 0a		 je	 SHORT $LN4@retCalcSki
  00016	83 fa 2d	 cmp	 edx, 45			; 0000002dH
  00019	7d 11		 jge	 SHORT $LN1@retCalcSki

; 4691 : 		{
; 4692 : 			return TRUE;

  0001b	8d 41 9d	 lea	 eax, DWORD PTR [ecx-99]

; 4704 : }

  0001e	5d		 pop	 ebp
  0001f	c3		 ret	 0
$LN4@retCalcSki:

; 4693 : 		}
; 4694 : 	}
; 4695 : 	else
; 4696 : 	{
; 4697 : 		if ( (rand()%100) < 40 )

  00020	83 fa 28	 cmp	 edx, 40			; 00000028H
  00023	7d 07		 jge	 SHORT $LN1@retCalcSki

; 4698 : 		{
; 4699 : 			return TRUE;

  00025	b8 01 00 00 00	 mov	 eax, 1

; 4704 : }

  0002a	5d		 pop	 ebp
  0002b	c3		 ret	 0
$LN1@retCalcSki:

; 4700 : 		}
; 4701 : 	}
; 4702 : 
; 4703 : 	return FALSE;

  0002c	33 c0		 xor	 eax, eax

; 4704 : }

  0002e	5d		 pop	 ebp
  0002f	c3		 ret	 0
?retCalcSkillResistance@@YAHPAUOBJECTSTRUCT@@H@Z ENDP	; retCalcSkillResistance
_TEXT	ENDS
PUBLIC	?gObjAttackQ@@YAHPAUOBJECTSTRUCT@@@Z		; gObjAttackQ
EXTRN	?CheckBossKillSuccess@CBloodCastle@@QAE_NH@Z:PROC ; CBloodCastle::CheckBossKillSuccess
EXTRN	?CheckMonsterKillSuccess@CBloodCastle@@QAE_NH@Z:PROC ; CBloodCastle::CheckMonsterKillSuccess
EXTRN	?g_BloodCastle@@3VCBloodCastle@@A:BYTE		; g_BloodCastle
; Function compile flags: /Ogtp
;	COMDAT ?gObjAttackQ@@YAHPAUOBJECTSTRUCT@@@Z
_TEXT	SEGMENT
_lpObj$ = 8						; size = 4
?gObjAttackQ@@YAHPAUOBJECTSTRUCT@@@Z PROC		; gObjAttackQ, COMDAT

; 4707 : {

  00000	55		 push	 ebp
  00001	8b ec		 mov	 ebp, esp
  00003	56		 push	 esi

; 4708 : 	if ( ATTRIBUTE_RANGE(lpObj->m_Attribute) )

  00004	8b 75 08	 mov	 esi, DWORD PTR _lpObj$[ebp]
  00007	0f b7 86 26 03
	00 00		 movzx	 eax, WORD PTR [esi+806]
  0000e	66 83 f8 33	 cmp	 ax, 51			; 00000033H
  00012	7c 13		 jl	 SHORT $LN11@gObjAttack
  00014	33 c9		 xor	 ecx, ecx
  00016	66 83 f8 3a	 cmp	 ax, 58			; 0000003aH
  0001a	0f 9e c1	 setle	 cl
  0001d	8b c1		 mov	 eax, ecx
  0001f	85 c0		 test	 eax, eax

; 4709 : 	{
; 4710 : 		return FALSE;

  00021	0f 85 d7 00 00
	00		 jne	 $LN9@gObjAttack
$LN11@gObjAttack:

; 4711 : 	}
; 4712 : 
; 4713 : 	if ( lpObj->Class == 221 || lpObj->Class == 222 )

  00027	0f b7 96 98 00
	00 00		 movzx	 edx, WORD PTR [esi+152]
  0002e	b8 dd 00 00 00	 mov	 eax, 221		; 000000ddH
  00033	66 3b d0	 cmp	 dx, ax
  00036	0f 84 c2 00 00
	00		 je	 $LN9@gObjAttack
  0003c	b9 de 00 00 00	 mov	 ecx, 222		; 000000deH
  00041	66 3b d1	 cmp	 dx, cx
  00044	0f 84 b4 00 00
	00		 je	 $LN9@gObjAttack

; 4716 : 	}
; 4717 : 
; 4718 : #if GS_CASTLE == 1
; 4719 : 	if ( lpObj->Class == 277 || lpObj->Class == 283 )
; 4720 : 	{
; 4721 : 		if ( g_CastleSiege.GetCastleState() != CASTLESIEGE_STATE_STARTSIEGE )
; 4722 : 		{
; 4723 : 			return FALSE;
; 4724 : 		}
; 4725 : 	}
; 4726 : 
; 4727 : 	if ( lpObj->Class == 221 || lpObj->Class == 222 )
; 4728 : 	{
; 4729 : 		return FALSE;
; 4730 : 	}
; 4731 : 
; 4732 : 	if ( lpObj->Class == 277 && lpObj->m_btCsGateOpen == 1 )
; 4733 : 	{
; 4734 : 		return FALSE;
; 4735 : 	}
; 4736 : #endif
; 4737 : 
; 4738 : 	if ( BC_MAP_RANGE(lpObj->MapNumber) )

  0004a	8a 8e 09 01 00
	00		 mov	 cl, BYTE PTR [esi+265]
  00050	80 f9 0b	 cmp	 cl, 11			; 0000000bH
  00053	72 67		 jb	 SHORT $LN5@gObjAttack
  00055	b8 11 00 00 00	 mov	 eax, 17			; 00000011H
  0005a	3a c1		 cmp	 al, cl
  0005c	1b c0		 sbb	 eax, eax
  0005e	40		 inc	 eax
  0005f	74 5b		 je	 SHORT $LN5@gObjAttack

; 4739 : 	{
; 4740 : 		if ( lpObj->Type >= OBJ_MONSTER )

  00061	66 83 7e 60 02	 cmp	 WORD PTR [esi+96], 2
  00066	72 54		 jb	 SHORT $LN5@gObjAttack

; 4741 : 		{
; 4742 : 			if ( lpObj->Class == 131 && g_BloodCastle.CheckMonsterKillSuccess(lpObj->MapNumber-MAP_INDEX_BLOODCASTLE1) == false)

  00068	b8 83 00 00 00	 mov	 eax, 131		; 00000083H
  0006d	66 3b d0	 cmp	 dx, ax
  00070	75 15		 jne	 SHORT $LN6@gObjAttack
  00072	0f b6 c9	 movzx	 ecx, cl
  00075	83 e9 0b	 sub	 ecx, 11			; 0000000bH
  00078	51		 push	 ecx
  00079	b9 00 00 00 00	 mov	 ecx, OFFSET ?g_BloodCastle@@3VCBloodCastle@@A ; g_BloodCastle
  0007e	e8 00 00 00 00	 call	 ?CheckMonsterKillSuccess@CBloodCastle@@QAE_NH@Z ; CBloodCastle::CheckMonsterKillSuccess
  00083	84 c0		 test	 al, al

; 4743 : 			{
; 4744 : 				return FALSE;

  00085	74 77		 je	 SHORT $LN9@gObjAttack
$LN6@gObjAttack:

; 4745 : 			}
; 4746 : 
; 4747 : 			if ( (((lpObj->Class - 132) < 0)?FALSE:((lpObj->Class-132) > 2)?FALSE:TRUE) !=FALSE && g_BloodCastle.CheckBossKillSuccess(lpObj->MapNumber-MAP_INDEX_BLOODCASTLE1) == false )

  00087	0f b7 86 98 00
	00 00		 movzx	 eax, WORD PTR [esi+152]
  0008e	05 7c ff ff ff	 add	 eax, -132		; ffffff7cH
  00093	78 27		 js	 SHORT $LN5@gObjAttack
  00095	33 d2		 xor	 edx, edx
  00097	83 f8 02	 cmp	 eax, 2
  0009a	0f 9e c2	 setle	 dl
  0009d	8b c2		 mov	 eax, edx
  0009f	85 c0		 test	 eax, eax
  000a1	74 19		 je	 SHORT $LN5@gObjAttack
  000a3	0f b6 86 09 01
	00 00		 movzx	 eax, BYTE PTR [esi+265]
  000aa	83 e8 0b	 sub	 eax, 11			; 0000000bH
  000ad	50		 push	 eax
  000ae	b9 00 00 00 00	 mov	 ecx, OFFSET ?g_BloodCastle@@3VCBloodCastle@@A ; g_BloodCastle
  000b3	e8 00 00 00 00	 call	 ?CheckBossKillSuccess@CBloodCastle@@QAE_NH@Z ; CBloodCastle::CheckBossKillSuccess
  000b8	84 c0		 test	 al, al

; 4748 : 			{
; 4749 : 				return FALSE;

  000ba	74 42		 je	 SHORT $LN9@gObjAttack
$LN5@gObjAttack:

; 4750 : 			}
; 4751 : 		}
; 4752 : 	}
; 4753 : 
; 4754 : 	if ( lpObj->Class != 247 && lpObj->Class != 249 && lpObj->Class  >= 100 && lpObj->Class <= 110 )

  000bc	0f b7 86 98 00
	00 00		 movzx	 eax, WORD PTR [esi+152]
  000c3	b9 f7 00 00 00	 mov	 ecx, 247		; 000000f7H
  000c8	66 3b c1	 cmp	 ax, cx
  000cb	74 14		 je	 SHORT $LN4@gObjAttack
  000cd	ba f9 00 00 00	 mov	 edx, 249		; 000000f9H
  000d2	66 3b c2	 cmp	 ax, dx
  000d5	74 0a		 je	 SHORT $LN4@gObjAttack
  000d7	83 f8 64	 cmp	 eax, 100		; 00000064H
  000da	72 05		 jb	 SHORT $LN4@gObjAttack
  000dc	83 f8 6e	 cmp	 eax, 110		; 0000006eH

; 4755 : 	{
; 4756 : 		return FALSE;

  000df	76 1d		 jbe	 SHORT $LN9@gObjAttack
$LN4@gObjAttack:

; 4757 : 	}
; 4758 : 
; 4759 : 	if ( lpObj->m_State != 2 )

  000e1	83 be bc 01 00
	00 02		 cmp	 DWORD PTR [esi+444], 2

; 4760 : 	{
; 4761 : 		return FALSE;

  000e8	75 14		 jne	 SHORT $LN9@gObjAttack

; 4762 : 	}
; 4763 : 
; 4764 : 	if( lpObj->Live == false )
; 4765 : 	{
; 4766 : 		return false;

  000ea	33 c0		 xor	 eax, eax
  000ec	38 46 62	 cmp	 BYTE PTR [esi+98], al
  000ef	74 0f		 je	 SHORT $LN12@gObjAttack

; 4767 : 	}
; 4768 : 
; 4769 : 	if ( lpObj->Teleport == 1 )

  000f1	80 be 00 02 00
	00 01		 cmp	 BYTE PTR [esi+512], 1
  000f8	5e		 pop	 esi
  000f9	0f 95 c0	 setne	 al

; 4770 : 	{
; 4771 : 		return FALSE;
; 4772 : 	}
; 4773 : 
; 4774 : 	return TRUE;
; 4775 : }

  000fc	5d		 pop	 ebp
  000fd	c3		 ret	 0
$LN9@gObjAttack:

; 4714 : 	{
; 4715 : 		return FALSE;

  000fe	33 c0		 xor	 eax, eax
$LN12@gObjAttack:
  00100	5e		 pop	 esi

; 4770 : 	{
; 4771 : 		return FALSE;
; 4772 : 	}
; 4773 : 
; 4774 : 	return TRUE;
; 4775 : }

  00101	5d		 pop	 ebp
  00102	c3		 ret	 0
?gObjAttackQ@@YAHPAUOBJECTSTRUCT@@@Z ENDP		; gObjAttackQ
_TEXT	ENDS
PUBLIC	?gObjInterfaceTimeCheck@@YAXPAUOBJECTSTRUCT@@@Z	; gObjInterfaceTimeCheck
EXTRN	?GCResultSend@@YAXHEE@Z:PROC			; GCResultSend
EXTRN	?GCServerMsgStringSend@@YAXPADHE@Z:PROC		; GCServerMsgStringSend
EXTRN	?CGTradeResult@@YAXHE@Z:PROC			; CGTradeResult
; Function compile flags: /Ogtp
;	COMDAT ?gObjInterfaceTimeCheck@@YAXPAUOBJECTSTRUCT@@@Z
_TEXT	SEGMENT
_lpObj$ = 8						; size = 4
?gObjInterfaceTimeCheck@@YAXPAUOBJECTSTRUCT@@@Z PROC	; gObjInterfaceTimeCheck, COMDAT

; 5390 : {

  00000	55		 push	 ebp
  00001	8b ec		 mov	 ebp, esp
  00003	56		 push	 esi

; 5391 : 	int tObjNum;
; 5392 : 	BOOL TimeCheck = FALSE;
; 5393 : 
; 5394 : 	if ( lpObj->m_IfState.use == 0 )

  00004	8b 75 08	 mov	 esi, DWORD PTR _lpObj$[ebp]
  00007	f6 86 84 0c 00
	00 03		 test	 BYTE PTR [esi+3204], 3
  0000e	0f 84 cc 00 00
	00		 je	 $LN1@gObjInterf

; 5395 : 	{
; 5396 : 		return;
; 5397 : 	}
; 5398 : 
; 5399 : 	if ( (GetTickCount() - lpObj->m_InterfaceTime) < 5000 )

  00014	ff 15 00 00 00
	00		 call	 DWORD PTR __imp__GetTickCount@0
  0001a	2b 86 88 0c 00
	00		 sub	 eax, DWORD PTR [esi+3208]
  00020	3d 88 13 00 00	 cmp	 eax, 5000		; 00001388H
  00025	0f 82 b5 00 00
	00		 jb	 $LN1@gObjInterf

; 5400 : 	{
; 5401 : 		return;
; 5402 : 	}
; 5403 : 
; 5404 : 	if ( lpObj->m_IfState.state == 1 )

  0002b	8b 86 84 0c 00
	00		 mov	 eax, DWORD PTR [esi+3204]
  00031	8b c8		 mov	 ecx, eax
  00033	80 e1 3c	 and	 cl, 60			; 0000003cH
  00036	80 f9 04	 cmp	 cl, 4
  00039	0f 84 a1 00 00
	00		 je	 $LN1@gObjInterf

; 5405 : 	{
; 5406 : 		return;
; 5407 : 	}
; 5408 : 
; 5409 : 	tObjNum = lpObj->TargetNumber;

  0003f	57		 push	 edi
  00040	0f bf be d4 02
	00 00		 movsx	 edi, WORD PTR [esi+724]

; 5410 : 
; 5411 : 	if ( tObjNum < 0 )

  00047	85 ff		 test	 edi, edi
  00049	0f 88 90 00 00
	00		 js	 $LN12@gObjInterf

; 5412 : 	{
; 5413 : 		return;
; 5414 : 	}
; 5415 : 
; 5416 : 	if ( lpObj->m_IfState.type == 1 )

  0004f	c1 e8 06	 shr	 eax, 6
  00052	53		 push	 ebx
  00053	25 ff 03 00 00	 and	 eax, 1023		; 000003ffH
  00058	83 cb ff	 or	 ebx, -1
  0005b	83 f8 01	 cmp	 eax, 1
  0005e	75 2f		 jne	 SHORT $LN4@gObjInterf

; 5417 : 	{
; 5418 : 		CGTradeResult(lpObj->m_Index, 3);

  00060	8b 16		 mov	 edx, DWORD PTR [esi]
  00062	6a 03		 push	 3
  00064	52		 push	 edx
  00065	e8 00 00 00 00	 call	 ?CGTradeResult@@YAXHE@Z	; CGTradeResult

; 5419 : 		CGTradeResult(tObjNum, 3);

  0006a	6a 03		 push	 3
  0006c	57		 push	 edi
  0006d	e8 00 00 00 00	 call	 ?CGTradeResult@@YAXHE@Z	; CGTradeResult
  00072	83 c4 10	 add	 esp, 16			; 00000010H

; 5420 : 
; 5421 : 		GCServerMsgStringSend(lMsg.Get(MSGGET(4, 114)), tObjNum, 1);

  00075	6a 01		 push	 1
  00077	57		 push	 edi
  00078	68 72 04 00 00	 push	 1138			; 00000472H
  0007d	b9 00 00 00 00	 mov	 ecx, OFFSET ?lMsg@@3VCMsg@@A ; lMsg
  00082	e8 00 00 00 00	 call	 ?Get@CMsg@@QAEPADH@Z	; CMsg::Get
  00087	50		 push	 eax
  00088	e8 00 00 00 00	 call	 ?GCServerMsgStringSend@@YAXPADHE@Z ; GCServerMsgStringSend

; 5422 : 		TimeCheck = TRUE;
; 5423 : 	}
; 5424 : 	else

  0008d	eb 23		 jmp	 SHORT $LN14@gObjInterf
$LN4@gObjInterf:

; 5425 : 	{
; 5426 : 		if ( lpObj->m_IfState.type == 2 )

  0008f	83 f8 02	 cmp	 eax, 2
  00092	75 4a		 jne	 SHORT $LN13@gObjInterf

; 5427 : 		{
; 5428 : 			lpObj->PartyTargetUser = -1;
; 5429 : 			gObj[tObjNum].PartyTargetUser = -1;

  00094	8b c7		 mov	 eax, edi
  00096	69 c0 64 15 00
	00		 imul	 eax, 5476		; 00001564H

; 5430 : 			GCResultSend(tObjNum, 0x41, FALSE );

  0009c	6a 00		 push	 0
  0009e	6a 41		 push	 65			; 00000041H
  000a0	89 9e ac 02 00
	00		 mov	 DWORD PTR [esi+684], ebx
  000a6	57		 push	 edi
  000a7	89 98 ac 02 00
	00		 mov	 DWORD PTR ?gObj@@3PAUOBJECTSTRUCT@@A[eax+684], ebx
  000ad	e8 00 00 00 00	 call	 ?GCResultSend@@YAXHEE@Z	; GCResultSend
$LN14@gObjInterf:

; 5431 : 			TimeCheck = TRUE;
; 5432 : 		}
; 5433 : 	}
; 5434 : 
; 5435 : 	if ( TimeCheck != FALSE )
; 5436 : 	{
; 5437 : 		lpObj->m_IfState.use = 0;
; 5438 : 		lpObj->TargetNumber = -1;
; 5439 : 		gObj[tObjNum].m_IfState.use = 0;

  000b2	8b c7		 mov	 eax, edi
  000b4	69 c0 64 15 00
	00		 imul	 eax, 5476		; 00001564H
  000ba	b9 fc ff ff ff	 mov	 ecx, -4			; fffffffcH
  000bf	21 8e 84 0c 00
	00		 and	 DWORD PTR [esi+3204], ecx
  000c5	8b d3		 mov	 edx, ebx
  000c7	66 89 96 d4 02
	00 00		 mov	 WORD PTR [esi+724], dx
  000ce	83 c4 0c	 add	 esp, 12			; 0000000cH
  000d1	21 88 84 0c 00
	00		 and	 DWORD PTR ?gObj@@3PAUOBJECTSTRUCT@@A[eax+3204], ecx

; 5440 : 		gObj[tObjNum].TargetNumber = -1;

  000d7	66 89 98 d4 02
	00 00		 mov	 WORD PTR ?gObj@@3PAUOBJECTSTRUCT@@A[eax+724], bx
$LN13@gObjInterf:
  000de	5b		 pop	 ebx
$LN12@gObjInterf:
  000df	5f		 pop	 edi
$LN1@gObjInterf:
  000e0	5e		 pop	 esi

; 5441 : 	}
; 5442 : 
; 5443 : }

  000e1	5d		 pop	 ebp
  000e2	c3		 ret	 0
?gObjInterfaceTimeCheck@@YAXPAUOBJECTSTRUCT@@@Z ENDP	; gObjInterfaceTimeCheck
_TEXT	ENDS
PUBLIC	?gObjPkDownTimeCheck@@YAXPAUOBJECTSTRUCT@@H@Z	; gObjPkDownTimeCheck
EXTRN	?GCPkLevelSend@@YAXHE@Z:PROC			; GCPkLevelSend
EXTRN	?gPkTime@@3HA:DWORD				; gPkTime
; Function compile flags: /Ogtp
;	COMDAT ?gObjPkDownTimeCheck@@YAXPAUOBJECTSTRUCT@@H@Z
_TEXT	SEGMENT
_lpObj$ = 8						; size = 4
_TargetLevel$ = 12					; size = 4
?gObjPkDownTimeCheck@@YAXPAUOBJECTSTRUCT@@H@Z PROC	; gObjPkDownTimeCheck, COMDAT

; 5446 : {

  00000	55		 push	 ebp
  00001	8b ec		 mov	 ebp, esp
  00003	56		 push	 esi

; 5447 : 
; 5448 : 	if(lpObj->m_PK_Level == 3)

  00004	8b 75 08	 mov	 esi, DWORD PTR _lpObj$[ebp]
  00007	80 be fd 00 00
	00 03		 cmp	 BYTE PTR [esi+253], 3
  0000e	0f 84 ab 01 00
	00		 je	 $LN1@gObjPkDown

; 5449 : 	{
; 5450 : 		return;
; 5451 : 	}
; 5452 : 
; 5453 : 	unsigned int dwtime = ((GetTickCount() - lpObj->m_dwPKTimer) / 1000) * gPkTime;

  00014	53		 push	 ebx
  00015	8b 1d 00 00 00
	00		 mov	 ebx, DWORD PTR __imp__GetTickCount@0
  0001b	57		 push	 edi
  0001c	ff d3		 call	 ebx
  0001e	8b c8		 mov	 ecx, eax
  00020	2b 4e 54	 sub	 ecx, DWORD PTR [esi+84]
  00023	b8 d3 4d 62 10	 mov	 eax, 274877907		; 10624dd3H
  00028	f7 e1		 mul	 ecx
  0002a	c1 ea 06	 shr	 edx, 6
  0002d	8b fa		 mov	 edi, edx
  0002f	0f af 3d 00 00
	00 00		 imul	 edi, DWORD PTR ?gPkTime@@3HA ; gPkTime

; 5454 : 
; 5455 : 	if(dwtime > 5)

  00036	83 ff 05	 cmp	 edi, 5
  00039	76 0c		 jbe	 SHORT $LN27@gObjPkDown

; 5456 : 	{
; 5457 : 		dwtime = 2;

  0003b	bf 02 00 00 00	 mov	 edi, 2

; 5458 : 		lpObj->m_dwPKTimer = GetTickCount();

  00040	ff d3		 call	 ebx
  00042	89 46 54	 mov	 DWORD PTR [esi+84], eax

; 5459 : 	}
; 5460 : 	else

  00045	eb 0b		 jmp	 SHORT $LN26@gObjPkDown
$LN27@gObjPkDown:

; 5461 : 	{
; 5462 : 		lpObj->m_dwPKTimer = dwtime * 1000;

  00047	8b d7		 mov	 edx, edi
  00049	69 d2 e8 03 00
	00		 imul	 edx, 1000		; 000003e8H
  0004f	89 56 54	 mov	 DWORD PTR [esi+84], edx
$LN26@gObjPkDown:

; 5463 : 	}
; 5464 : 
; 5465 : 	if(TargetLevel < 2)

  00052	8b 45 0c	 mov	 eax, DWORD PTR _TargetLevel$[ebp]
  00055	83 f8 02	 cmp	 eax, 2
  00058	7d 08		 jge	 SHORT $LN25@gObjPkDown

; 5466 : 	{
; 5467 : 		lpObj->m_PK_Time += dwtime;

  0005a	01 be 00 01 00
	00		 add	 DWORD PTR [esi+256], edi

; 5468 : 	}
; 5469 : 	else

  00060	eb 06		 jmp	 SHORT $LN24@gObjPkDown
$LN25@gObjPkDown:

; 5470 : 	{
; 5471 : 		lpObj->m_PK_Time += TargetLevel;

  00062	01 86 00 01 00
	00		 add	 DWORD PTR [esi+256], eax
$LN24@gObjPkDown:

; 5472 : 	}
; 5473 : 
; 5474 : 	if(lpObj->m_PK_Level < 3)

  00068	8a 86 fd 00 00
	00		 mov	 al, BYTE PTR [esi+253]
  0006e	3c 03		 cmp	 al, 3
  00070	7d 49		 jge	 SHORT $LN32@gObjPkDown

; 5475 : 	{
; 5476 : 		if(lpObj->m_PK_Time > 3600)

  00072	81 be 00 01 00
	00 10 0e 00 00	 cmp	 DWORD PTR [esi+256], 3600 ; 00000e10H
  0007c	0f 8e 3b 01 00
	00		 jle	 $LN31@gObjPkDown

; 5477 : 		{
; 5478 : 			lpObj->m_PK_Time = 0;
; 5479 : 			lpObj->m_PK_Count += 1;

  00082	fe 86 fc 00 00
	00		 inc	 BYTE PTR [esi+252]

; 5480 : 
; 5481 : 			if(lpObj->m_PK_Count > 100)

  00088	80 be fc 00 00
	00 64		 cmp	 BYTE PTR [esi+252], 100	; 00000064H
  0008f	c7 86 00 01 00
	00 00 00 00 00	 mov	 DWORD PTR [esi+256], 0
  00099	7e 07		 jle	 SHORT $LN21@gObjPkDown

; 5482 : 			{
; 5483 : 				lpObj->m_PK_Count = 100;

  0009b	c6 86 fc 00 00
	00 64		 mov	 BYTE PTR [esi+252], 100	; 00000064H
$LN21@gObjPkDown:

; 5484 : 			}
; 5485 : 
; 5486 : 			lpObj->m_PK_Level += 1;

  000a2	fe c0		 inc	 al
  000a4	88 86 fd 00 00
	00		 mov	 BYTE PTR [esi+253], al

; 5487 : 
; 5488 : 			GCPkLevelSend(lpObj->m_Index,lpObj->m_PK_Level);

  000aa	50		 push	 eax
  000ab	8b 06		 mov	 eax, DWORD PTR [esi]
  000ad	50		 push	 eax
  000ae	e8 00 00 00 00	 call	 ?GCPkLevelSend@@YAXHE@Z	; GCPkLevelSend
  000b3	83 c4 08	 add	 esp, 8
  000b6	5f		 pop	 edi
  000b7	5b		 pop	 ebx
  000b8	5e		 pop	 esi

; 5552 : 			}
; 5553 : 		}
; 5554 : 	}
; 5555 : }

  000b9	5d		 pop	 ebp
  000ba	c3		 ret	 0
$LN32@gObjPkDown:

; 5489 : 		}
; 5490 : 	}
; 5491 : 	else if(lpObj->m_PK_Level > 3)

  000bb	0f 8e fc 00 00
	00		 jle	 $LN31@gObjPkDown

; 5492 : 	{
; 5493 : 		if(lpObj->m_PK_Count > 3)

  000c1	8a 86 fc 00 00
	00		 mov	 al, BYTE PTR [esi+252]
  000c7	3c 03		 cmp	 al, 3
  000c9	7e 72		 jle	 SHORT $LN18@gObjPkDown

; 5494 : 		{
; 5495 : 			if(lpObj->m_PK_Time > 3600)

  000cb	81 be 00 01 00
	00 10 0e 00 00	 cmp	 DWORD PTR [esi+256], 3600 ; 00000e10H
  000d5	0f 8e e2 00 00
	00		 jle	 $LN31@gObjPkDown

; 5496 : 			{
; 5497 : 				lpObj->m_PK_Time = 0;

  000db	33 c9		 xor	 ecx, ecx

; 5498 : 				lpObj->m_PK_Count -= 1;

  000dd	fe c8		 dec	 al
  000df	89 8e 00 01 00
	00		 mov	 DWORD PTR [esi+256], ecx
  000e5	88 86 fc 00 00
	00		 mov	 BYTE PTR [esi+252], al

; 5499 : 
; 5500 : 				if(lpObj->m_PK_Count <= 0)

  000eb	b3 04		 mov	 bl, 4
  000ed	3a c1		 cmp	 al, cl
  000ef	7f 0b		 jg	 SHORT $LN16@gObjPkDown

; 5501 : 				{
; 5502 : 					lpObj->m_PK_Count = 0;

  000f1	66 c7 86 fc 00
	00 00 00 03	 mov	 WORD PTR [esi+252], 768	; 00000300H

; 5503 : 					lpObj->m_PK_Level = 3;

  000fa	eb 17		 jmp	 SHORT $LN12@gObjPkDown
$LN16@gObjPkDown:

; 5504 : 				}
; 5505 : 				else if(lpObj->m_PK_Count == 2)

  000fc	3c 02		 cmp	 al, 2
  000fe	75 09		 jne	 SHORT $LN14@gObjPkDown

; 5506 : 				{
; 5507 : 					lpObj->m_PK_Level = 5;

  00100	c6 86 fd 00 00
	00 05		 mov	 BYTE PTR [esi+253], 5
  00107	eb 0a		 jmp	 SHORT $LN12@gObjPkDown
$LN14@gObjPkDown:

; 5508 : 				}
; 5509 : 				else if(lpObj->m_PK_Count == 1)

  00109	3c 01		 cmp	 al, 1
  0010b	75 06		 jne	 SHORT $LN12@gObjPkDown

; 5510 : 				{
; 5511 : 					lpObj->m_PK_Level = 4;

  0010d	88 9e fd 00 00
	00		 mov	 BYTE PTR [esi+253], bl
$LN12@gObjPkDown:

; 5512 : 				}
; 5513 : 
; 5514 : 				if(lpObj->m_PK_Level <= 5)

  00113	0f b6 86 fd 00
	00 00		 movzx	 eax, BYTE PTR [esi+253]
  0011a	3c 05		 cmp	 al, 5
  0011c	7f 0c		 jg	 SHORT $LN11@gObjPkDown

; 5515 : 				{
; 5516 : 					GCPkLevelSend(lpObj->m_Index,lpObj->m_PK_Level);

  0011e	8b 0e		 mov	 ecx, DWORD PTR [esi]
  00120	50		 push	 eax
  00121	51		 push	 ecx
  00122	e8 00 00 00 00	 call	 ?GCPkLevelSend@@YAXHE@Z	; GCPkLevelSend
  00127	83 c4 08	 add	 esp, 8
$LN11@gObjPkDown:

; 5517 : 				}
; 5518 : 
; 5519 : 				if(lpObj->m_PK_Level == 4)

  0012a	38 9e fd 00 00
	00		 cmp	 BYTE PTR [esi+253], bl
  00130	0f 85 87 00 00
	00		 jne	 $LN31@gObjPkDown

; 5520 : 				{
; 5521 : 					GCServerMsgStringSend(lMsg.Get(1137),lpObj->m_Index,1);

  00136	8b 16		 mov	 edx, DWORD PTR [esi]
  00138	6a 01		 push	 1
  0013a	52		 push	 edx

; 5522 : 				}
; 5523 : 			}
; 5524 : 		}

  0013b	eb 68		 jmp	 SHORT $LN33@gObjPkDown
$LN18@gObjPkDown:

; 5525 : 		else if(lpObj->m_PK_Time > 10800)

  0013d	81 be 00 01 00
	00 30 2a 00 00	 cmp	 DWORD PTR [esi+256], 10800 ; 00002a30H
  00147	7e 74		 jle	 SHORT $LN31@gObjPkDown

; 5526 : 		{
; 5527 : 			lpObj->m_PK_Time = 0;

  00149	33 c9		 xor	 ecx, ecx

; 5528 : 			lpObj->m_PK_Count -= 1;

  0014b	fe c8		 dec	 al
  0014d	89 8e 00 01 00
	00		 mov	 DWORD PTR [esi+256], ecx
  00153	88 86 fc 00 00
	00		 mov	 BYTE PTR [esi+252], al

; 5529 : 
; 5530 : 			if(lpObj->m_PK_Count <= 0)

  00159	b3 04		 mov	 bl, 4
  0015b	3a c1		 cmp	 al, cl
  0015d	7f 0b		 jg	 SHORT $LN7@gObjPkDown

; 5531 : 			{
; 5532 : 				lpObj->m_PK_Count = 0;

  0015f	66 c7 86 fc 00
	00 00 00 03	 mov	 WORD PTR [esi+252], 768	; 00000300H

; 5533 : 				lpObj->m_PK_Level = 3;

  00168	eb 17		 jmp	 SHORT $LN3@gObjPkDown
$LN7@gObjPkDown:

; 5534 : 			}
; 5535 : 			else if(lpObj->m_PK_Count == 2)

  0016a	3c 02		 cmp	 al, 2
  0016c	75 09		 jne	 SHORT $LN5@gObjPkDown

; 5536 : 			{
; 5537 : 				lpObj->m_PK_Level = 5;

  0016e	c6 86 fd 00 00
	00 05		 mov	 BYTE PTR [esi+253], 5
  00175	eb 0a		 jmp	 SHORT $LN3@gObjPkDown
$LN5@gObjPkDown:

; 5538 : 			}
; 5539 : 			else if(lpObj->m_PK_Count == 1)

  00177	3c 01		 cmp	 al, 1
  00179	75 06		 jne	 SHORT $LN3@gObjPkDown

; 5540 : 			{
; 5541 : 				lpObj->m_PK_Level = 4;

  0017b	88 9e fd 00 00
	00		 mov	 BYTE PTR [esi+253], bl
$LN3@gObjPkDown:

; 5542 : 			}
; 5543 : 
; 5544 : 			if(lpObj->m_PK_Level <= 5)

  00181	0f b6 86 fd 00
	00 00		 movzx	 eax, BYTE PTR [esi+253]
  00188	3c 05		 cmp	 al, 5
  0018a	7f 0c		 jg	 SHORT $LN2@gObjPkDown

; 5545 : 			{
; 5546 : 				GCPkLevelSend(lpObj->m_Index,lpObj->m_PK_Level);

  0018c	50		 push	 eax
  0018d	8b 06		 mov	 eax, DWORD PTR [esi]
  0018f	50		 push	 eax
  00190	e8 00 00 00 00	 call	 ?GCPkLevelSend@@YAXHE@Z	; GCPkLevelSend
  00195	83 c4 08	 add	 esp, 8
$LN2@gObjPkDown:

; 5547 : 			}
; 5548 : 
; 5549 : 			if(lpObj->m_PK_Level == 4)

  00198	38 9e fd 00 00
	00		 cmp	 BYTE PTR [esi+253], bl
  0019e	75 1d		 jne	 SHORT $LN31@gObjPkDown

; 5550 : 			{
; 5551 : 				GCServerMsgStringSend(lMsg.Get(1137),lpObj->m_Index,1);

  001a0	8b 0e		 mov	 ecx, DWORD PTR [esi]
  001a2	6a 01		 push	 1
  001a4	51		 push	 ecx
$LN33@gObjPkDown:
  001a5	68 71 04 00 00	 push	 1137			; 00000471H
  001aa	b9 00 00 00 00	 mov	 ecx, OFFSET ?lMsg@@3VCMsg@@A ; lMsg
  001af	e8 00 00 00 00	 call	 ?Get@CMsg@@QAEPADH@Z	; CMsg::Get
  001b4	50		 push	 eax
  001b5	e8 00 00 00 00	 call	 ?GCServerMsgStringSend@@YAXPADHE@Z ; GCServerMsgStringSend
  001ba	83 c4 0c	 add	 esp, 12			; 0000000cH
$LN31@gObjPkDown:
  001bd	5f		 pop	 edi
  001be	5b		 pop	 ebx
$LN1@gObjPkDown:
  001bf	5e		 pop	 esi

; 5552 : 			}
; 5553 : 		}
; 5554 : 	}
; 5555 : }

  001c0	5d		 pop	 ebp
  001c1	c3		 ret	 0
?gObjPkDownTimeCheck@@YAXPAUOBJECTSTRUCT@@H@Z ENDP	; gObjPkDownTimeCheck
_TEXT	ENDS
PUBLIC	__real@00000000
PUBLIC	?gObjAngelSprite@@YAHPAUOBJECTSTRUCT@@@Z	; gObjAngelSprite
;	COMDAT __real@00000000
CONST	SEGMENT
__real@00000000 DD 000000000r			; 0
; Function compile flags: /Ogtp
CONST	ENDS
;	COMDAT ?gObjAngelSprite@@YAHPAUOBJECTSTRUCT@@@Z
_TEXT	SEGMENT
_lpObj$ = 8						; size = 4
?gObjAngelSprite@@YAHPAUOBJECTSTRUCT@@@Z PROC		; gObjAngelSprite, COMDAT

; 5558 : {

  00000	55		 push	 ebp
  00001	8b ec		 mov	 ebp, esp
  00003	56		 push	 esi

; 5559 : 	if ( lpObj->Type != OBJ_USER )

  00004	8b 75 08	 mov	 esi, DWORD PTR _lpObj$[ebp]
  00007	66 83 7e 60 01	 cmp	 WORD PTR [esi+96], 1

; 5560 : 	{
; 5561 : 		return FALSE;

  0000c	75 40		 jne	 SHORT $LN1@gObjAngelS

; 5562 : 	}
; 5563 : 
; 5564 : 	if ( lpObj->pInventory[8].IsItem() == FALSE )

  0000e	8b 8e 8c 0c 00
	00		 mov	 ecx, DWORD PTR [esi+3212]
  00014	81 c1 40 05 00
	00		 add	 ecx, 1344		; 00000540H
  0001a	e8 00 00 00 00	 call	 ?IsItem@CItem@@QAEHXZ	; CItem::IsItem
  0001f	85 c0		 test	 eax, eax

; 5565 : 	{
; 5566 : 		return FALSE;

  00021	74 2b		 je	 SHORT $LN1@gObjAngelS

; 5567 : 	}
; 5568 : 
; 5569 : 	CItem * Angel = &lpObj->pInventory[8];

  00023	8b 86 8c 0c 00
	00		 mov	 eax, DWORD PTR [esi+3212]

; 5570 : 
; 5571 : 	if ( Angel->m_Type == ITEMGET(13,0) && Angel->m_Durability > 0.0f )

  00029	b9 00 1a 00 00	 mov	 ecx, 6656		; 00001a00H
  0002e	66 39 88 46 05
	00 00		 cmp	 WORD PTR [eax+1350], cx
  00035	75 17		 jne	 SHORT $LN1@gObjAngelS
  00037	d9 ee		 fldz
  00039	d8 98 64 05 00
	00		 fcomp	 DWORD PTR [eax+1380]
  0003f	df e0		 fnstsw	 ax
  00041	f6 c4 05	 test	 ah, 5
  00044	7a 08		 jp	 SHORT $LN1@gObjAngelS

; 5572 : 	{
; 5573 : 		return TRUE;

  00046	b8 01 00 00 00	 mov	 eax, 1
  0004b	5e		 pop	 esi

; 5577 : }

  0004c	5d		 pop	 ebp
  0004d	c3		 ret	 0
$LN1@gObjAngelS:

; 5574 : 	}
; 5575 : 
; 5576 : 	return FALSE;

  0004e	33 c0		 xor	 eax, eax
  00050	5e		 pop	 esi

; 5577 : }

  00051	5d		 pop	 ebp
  00052	c3		 ret	 0
?gObjAngelSprite@@YAHPAUOBJECTSTRUCT@@@Z ENDP		; gObjAngelSprite
_TEXT	ENDS
PUBLIC	?gObjSatanSprite@@YAHPAUOBJECTSTRUCT@@@Z	; gObjSatanSprite
; Function compile flags: /Ogtp
;	COMDAT ?gObjSatanSprite@@YAHPAUOBJECTSTRUCT@@@Z
_TEXT	SEGMENT
_lpObj$ = 8						; size = 4
?gObjSatanSprite@@YAHPAUOBJECTSTRUCT@@@Z PROC		; gObjSatanSprite, COMDAT

; 5585 : {

  00000	55		 push	 ebp
  00001	8b ec		 mov	 ebp, esp
  00003	56		 push	 esi

; 5586 : 	if ( lpObj->Type != OBJ_USER )

  00004	8b 75 08	 mov	 esi, DWORD PTR _lpObj$[ebp]
  00007	66 83 7e 60 01	 cmp	 WORD PTR [esi+96], 1

; 5587 : 	{
; 5588 : 		return FALSE;

  0000c	75 40		 jne	 SHORT $LN1@gObjSatanS

; 5589 : 	}
; 5590 : 
; 5591 : 	if ( lpObj->pInventory[8].IsItem() == FALSE )

  0000e	8b 8e 8c 0c 00
	00		 mov	 ecx, DWORD PTR [esi+3212]
  00014	81 c1 40 05 00
	00		 add	 ecx, 1344		; 00000540H
  0001a	e8 00 00 00 00	 call	 ?IsItem@CItem@@QAEHXZ	; CItem::IsItem
  0001f	85 c0		 test	 eax, eax

; 5592 : 	{
; 5593 : 		return FALSE;

  00021	74 2b		 je	 SHORT $LN1@gObjSatanS

; 5594 : 	}
; 5595 : 
; 5596 : 	CItem * Satan = &lpObj->pInventory[8];

  00023	8b 86 8c 0c 00
	00		 mov	 eax, DWORD PTR [esi+3212]

; 5597 : 
; 5598 : 	if ( Satan->m_Type == ITEMGET(13,1) && Satan->m_Durability > 0.0f )

  00029	b9 01 1a 00 00	 mov	 ecx, 6657		; 00001a01H
  0002e	66 39 88 46 05
	00 00		 cmp	 WORD PTR [eax+1350], cx
  00035	75 17		 jne	 SHORT $LN1@gObjSatanS
  00037	d9 ee		 fldz
  00039	d8 98 64 05 00
	00		 fcomp	 DWORD PTR [eax+1380]
  0003f	df e0		 fnstsw	 ax
  00041	f6 c4 05	 test	 ah, 5
  00044	7a 08		 jp	 SHORT $LN1@gObjSatanS

; 5599 : 	{
; 5600 : 		return TRUE;

  00046	b8 01 00 00 00	 mov	 eax, 1
  0004b	5e		 pop	 esi

; 5604 : }

  0004c	5d		 pop	 ebp
  0004d	c3		 ret	 0
$LN1@gObjSatanS:

; 5601 : 	}
; 5602 : 
; 5603 : 	return FALSE;

  0004e	33 c0		 xor	 eax, eax
  00050	5e		 pop	 esi

; 5604 : }

  00051	5d		 pop	 ebp
  00052	c3		 ret	 0
?gObjSatanSprite@@YAHPAUOBJECTSTRUCT@@@Z ENDP		; gObjSatanSprite
_TEXT	ENDS
PUBLIC	?gObjWingSprite@@YAHPAUOBJECTSTRUCT@@@Z		; gObjWingSprite
; Function compile flags: /Ogtp
;	COMDAT ?gObjWingSprite@@YAHPAUOBJECTSTRUCT@@@Z
_TEXT	SEGMENT
_lpObj$ = 8						; size = 4
?gObjWingSprite@@YAHPAUOBJECTSTRUCT@@@Z PROC		; gObjWingSprite, COMDAT

; 5612 : {

  00000	55		 push	 ebp
  00001	8b ec		 mov	 ebp, esp
  00003	56		 push	 esi

; 5613 : 	if ( lpObj->Type != OBJ_USER )

  00004	8b 75 08	 mov	 esi, DWORD PTR _lpObj$[ebp]
  00007	66 83 7e 60 01	 cmp	 WORD PTR [esi+96], 1

; 5614 : 	{
; 5615 : 		return FALSE;

  0000c	75 76		 jne	 SHORT $LN1@gObjWingSp

; 5616 : 	}
; 5617 : 
; 5618 : 	if ( lpObj->pInventory[7].IsItem() == FALSE )

  0000e	8b 8e 8c 0c 00
	00		 mov	 ecx, DWORD PTR [esi+3212]
  00014	81 c1 98 04 00
	00		 add	 ecx, 1176		; 00000498H
  0001a	e8 00 00 00 00	 call	 ?IsItem@CItem@@QAEHXZ	; CItem::IsItem
  0001f	85 c0		 test	 eax, eax

; 5619 : 	{
; 5620 : 		return FALSE;

  00021	74 61		 je	 SHORT $LN1@gObjWingSp

; 5621 : 	}
; 5622 : 
; 5623 : 	CItem * Wing = &lpObj->pInventory[7];

  00023	8b 86 8c 0c 00
	00		 mov	 eax, DWORD PTR [esi+3212]

; 5624 : 
; 5625 : 	if ( (Wing->m_Type >= ITEMGET(12,0) && Wing->m_Type <= ITEMGET(12,6)) || Wing->m_Type <= ITEMGET(13,30) || NEWWINGS(Wing->m_Type))

  00029	0f b7 88 9e 04
	00 00		 movzx	 ecx, WORD PTR [eax+1182]
  00030	ba 00 18 00 00	 mov	 edx, 6144		; 00001800H
  00035	66 3b ca	 cmp	 cx, dx
  00038	7c 0a		 jl	 SHORT $LN2@gObjWingSp
  0003a	ba 06 18 00 00	 mov	 edx, 6150		; 00001806H
  0003f	66 3b ca	 cmp	 cx, dx
  00042	7e 29		 jle	 SHORT $LN3@gObjWingSp
$LN2@gObjWingSp:
  00044	ba 1e 1a 00 00	 mov	 edx, 6686		; 00001a1eH
  00049	66 3b ca	 cmp	 cx, dx
  0004c	7e 1f		 jle	 SHORT $LN3@gObjWingSp
  0004e	ba 64 18 00 00	 mov	 edx, 6244		; 00001864H
  00053	66 3b ca	 cmp	 cx, dx
  00056	7c 2c		 jl	 SHORT $LN1@gObjWingSp
  00058	53		 push	 ebx
  00059	33 db		 xor	 ebx, ebx
  0005b	ba 7d 18 00 00	 mov	 edx, 6269		; 0000187dH
  00060	66 3b ca	 cmp	 cx, dx
  00063	0f 9e c3	 setle	 bl
  00066	8b cb		 mov	 ecx, ebx
  00068	5b		 pop	 ebx
  00069	85 c9		 test	 ecx, ecx
  0006b	74 17		 je	 SHORT $LN1@gObjWingSp
$LN3@gObjWingSp:

; 5626 : 	{
; 5627 : 		if ( Wing->m_Durability > 0.0f )

  0006d	d9 ee		 fldz
  0006f	d8 98 bc 04 00
	00		 fcomp	 DWORD PTR [eax+1212]
  00075	df e0		 fnstsw	 ax
  00077	f6 c4 05	 test	 ah, 5
  0007a	7a 08		 jp	 SHORT $LN1@gObjWingSp

; 5628 : 		{
; 5629 : 			return TRUE;

  0007c	b8 01 00 00 00	 mov	 eax, 1
  00081	5e		 pop	 esi

; 5634 : }

  00082	5d		 pop	 ebp
  00083	c3		 ret	 0
$LN1@gObjWingSp:

; 5630 : 		}
; 5631 : 	}
; 5632 : 	
; 5633 : 	return FALSE;

  00084	33 c0		 xor	 eax, eax
  00086	5e		 pop	 esi

; 5634 : }

  00087	5d		 pop	 ebp
  00088	c3		 ret	 0
?gObjWingSprite@@YAHPAUOBJECTSTRUCT@@@Z ENDP		; gObjWingSprite
_TEXT	ENDS
PUBLIC	?gObjUniriaSprite@@YAHPAUOBJECTSTRUCT@@@Z	; gObjUniriaSprite
; Function compile flags: /Ogtp
;	COMDAT ?gObjUniriaSprite@@YAHPAUOBJECTSTRUCT@@@Z
_TEXT	SEGMENT
_lpObj$ = 8						; size = 4
?gObjUniriaSprite@@YAHPAUOBJECTSTRUCT@@@Z PROC		; gObjUniriaSprite, COMDAT

; 5637 : {

  00000	55		 push	 ebp
  00001	8b ec		 mov	 ebp, esp
  00003	56		 push	 esi

; 5638 : 	if ( lpObj->pInventory[8].IsItem() == FALSE )

  00004	8b 75 08	 mov	 esi, DWORD PTR _lpObj$[ebp]
  00007	8b 8e 8c 0c 00
	00		 mov	 ecx, DWORD PTR [esi+3212]
  0000d	81 c1 40 05 00
	00		 add	 ecx, 1344		; 00000540H
  00013	e8 00 00 00 00	 call	 ?IsItem@CItem@@QAEHXZ	; CItem::IsItem
  00018	85 c0		 test	 eax, eax

; 5639 : 	{
; 5640 : 		return FALSE;

  0001a	74 2b		 je	 SHORT $LN1@gObjUniria

; 5641 : 	}
; 5642 : 
; 5643 : 	CItem * Uniria = &lpObj->pInventory[8];

  0001c	8b 86 8c 0c 00
	00		 mov	 eax, DWORD PTR [esi+3212]

; 5644 : 
; 5645 : 	if ( Uniria->m_Type == ITEMGET(13,2) && Uniria->m_Durability > 0.0f )

  00022	b9 02 1a 00 00	 mov	 ecx, 6658		; 00001a02H
  00027	66 39 88 46 05
	00 00		 cmp	 WORD PTR [eax+1350], cx
  0002e	75 17		 jne	 SHORT $LN1@gObjUniria
  00030	d9 ee		 fldz
  00032	d8 98 64 05 00
	00		 fcomp	 DWORD PTR [eax+1380]
  00038	df e0		 fnstsw	 ax
  0003a	f6 c4 05	 test	 ah, 5
  0003d	7a 08		 jp	 SHORT $LN1@gObjUniria

; 5646 : 	{
; 5647 : 		return TRUE;

  0003f	b8 01 00 00 00	 mov	 eax, 1
  00044	5e		 pop	 esi

; 5651 : }

  00045	5d		 pop	 ebp
  00046	c3		 ret	 0
$LN1@gObjUniria:

; 5648 : 	}
; 5649 : 
; 5650 : 	return FALSE;

  00047	33 c0		 xor	 eax, eax
  00049	5e		 pop	 esi

; 5651 : }

  0004a	5d		 pop	 ebp
  0004b	c3		 ret	 0
?gObjUniriaSprite@@YAHPAUOBJECTSTRUCT@@@Z ENDP		; gObjUniriaSprite
_TEXT	ENDS
PUBLIC	__real@3f800000
PUBLIC	__real@3f947ae140000000
PUBLIC	?gObjChangeDurProc@@YAXPAUOBJECTSTRUCT@@@Z	; gObjChangeDurProc
EXTRN	?GCInventoryItemDeleteSend@@YAXHEE@Z:PROC	; GCInventoryItemDeleteSend
EXTRN	?SkillChangeUse@CObjUseSkill@@QAEHH@Z:PROC	; CObjUseSkill::SkillChangeUse
EXTRN	?gObjUseSkill@@3VCObjUseSkill@@A:BYTE		; gObjUseSkill
EXTRN	?GCItemDurSend@@YAXHEEE@Z:PROC			; GCItemDurSend
;	COMDAT __real@3f800000
CONST	SEGMENT
__real@3f800000 DD 03f800000r			; 1
CONST	ENDS
;	COMDAT __real@3f947ae140000000
CONST	SEGMENT
__real@3f947ae140000000 DQ 03f947ae140000000r	; 0.02
; Function compile flags: /Ogtp
CONST	ENDS
;	COMDAT ?gObjChangeDurProc@@YAXPAUOBJECTSTRUCT@@@Z
_TEXT	SEGMENT
tv523 = -4						; size = 4
tv521 = -4						; size = 4
tv489 = -4						; size = 4
tv487 = -4						; size = 4
tv455 = -4						; size = 4
tv453 = -4						; size = 4
tv328 = -4						; size = 4
tv70 = -4						; size = 4
_dur$163755 = 8						; size = 1
_dur$163746 = 8						; size = 1
_dur$163728 = 8						; size = 1
_lpObj$ = 8						; size = 4
tv527 = 10						; size = 2
tv492 = 10						; size = 2
tv458 = 10						; size = 2
tv332 = 10						; size = 2
?gObjChangeDurProc@@YAXPAUOBJECTSTRUCT@@@Z PROC		; gObjChangeDurProc, COMDAT

; 5980 : {

  00000	55		 push	 ebp
  00001	8b ec		 mov	 ebp, esp
  00003	51		 push	 ecx
  00004	53		 push	 ebx
  00005	56		 push	 esi

; 5981 : 	if(lpObj->pInventory[10].IsItem() == 1 && lpObj->pInventory[10].m_Type == ITEMGET(13,10))

  00006	8b 75 08	 mov	 esi, DWORD PTR _lpObj$[ebp]
  00009	8b 8e 8c 0c 00
	00		 mov	 ecx, DWORD PTR [esi+3212]
  0000f	57		 push	 edi
  00010	81 c1 90 06 00
	00		 add	 ecx, 1680		; 00000690H
  00016	e8 00 00 00 00	 call	 ?IsItem@CItem@@QAEHXZ	; CItem::IsItem
  0001b	83 f8 01	 cmp	 eax, 1
  0001e	0f 85 26 01 00
	00		 jne	 $LN19@gObjChange
  00024	8b 86 8c 0c 00
	00		 mov	 eax, DWORD PTR [esi+3212]
  0002a	b9 0a 1a 00 00	 mov	 ecx, 6666		; 00001a0aH
  0002f	66 39 88 96 06
	00 00		 cmp	 WORD PTR [eax+1686], cx
  00036	0f 85 0e 01 00
	00		 jne	 $LN19@gObjChange

; 5982 : 	{
; 5983 : 		int m_Durability = lpObj->pInventory[10].m_Durability;

  0003c	8b f8		 mov	 edi, eax
  0003e	d9 87 b4 06 00
	00		 fld	 DWORD PTR [edi+1716]
  00044	e8 00 00 00 00	 call	 __ftol2_sse

; 5984 : 
; 5985 : 		lpObj->pInventory[10].m_Durability -= (float)0.02;

  00049	d9 87 b4 06 00
	00		 fld	 DWORD PTR [edi+1716]
  0004f	dc 25 00 00 00
	00		 fsub	 QWORD PTR __real@3f947ae140000000
  00055	8b d8		 mov	 ebx, eax
  00057	d9 9f b4 06 00
	00		 fstp	 DWORD PTR [edi+1716]

; 5986 : 
; 5987 : 		if(m_Durability > (int)lpObj->pInventory[10].m_Durability)

  0005d	8b 96 8c 0c 00
	00		 mov	 edx, DWORD PTR [esi+3212]
  00063	d9 82 b4 06 00
	00		 fld	 DWORD PTR [edx+1716]
  00069	e8 00 00 00 00	 call	 __ftol2_sse
  0006e	3b d8		 cmp	 ebx, eax
  00070	0f 8e 94 03 00
	00		 jle	 $LN1@gObjChange

; 5988 : 		{
; 5989 : 			if(lpObj->pInventory[10].m_Durability < 1)

  00076	d9 e8		 fld1
  00078	8b 8e 8c 0c 00
	00		 mov	 ecx, DWORD PTR [esi+3212]
  0007e	d8 99 b4 06 00
	00		 fcomp	 DWORD PTR [ecx+1716]
  00084	df e0		 fnstsw	 ax
  00086	f6 c4 41	 test	 ah, 65			; 00000041H
  00089	75 08		 jne	 SHORT $LN17@gObjChange

; 5990 : 			{
; 5991 : 				lpObj->pInventory[10].m_Durability = 0;

  0008b	d9 ee		 fldz
  0008d	d9 99 b4 06 00
	00		 fstp	 DWORD PTR [ecx+1716]
$LN17@gObjChange:

; 5992 : 			}
; 5993 : 
; 5994 : 			BYTE dur = lpObj->pInventory[10].m_Durability;

  00093	8b 86 8c 0c 00
	00		 mov	 eax, DWORD PTR [esi+3212]
  00099	d9 7d 0a	 fnstcw	 WORD PTR tv527[ebp]
  0009c	d9 80 b4 06 00
	00		 fld	 DWORD PTR [eax+1716]

; 5995 : 
; 5996 : 			GCItemDurSend(lpObj->m_Index,10,dur,0);

  000a2	8b 16		 mov	 edx, DWORD PTR [esi]
  000a4	0f b7 45 0a	 movzx	 eax, WORD PTR tv527[ebp]
  000a8	0d 00 0c 00 00	 or	 eax, 3072		; 00000c00H
  000ad	89 45 fc	 mov	 DWORD PTR tv523[ebp], eax
  000b0	6a 00		 push	 0
  000b2	d9 6d fc	 fldcw	 WORD PTR tv523[ebp]
  000b5	db 5d fc	 fistp	 DWORD PTR tv521[ebp]
  000b8	8a 5d fc	 mov	 bl, BYTE PTR tv521[ebp]
  000bb	88 5d 08	 mov	 BYTE PTR _dur$163728[ebp], bl
  000be	8b 4d 08	 mov	 ecx, DWORD PTR _dur$163728[ebp]
  000c1	d9 6d 0a	 fldcw	 WORD PTR tv527[ebp]
  000c4	51		 push	 ecx
  000c5	6a 0a		 push	 10			; 0000000aH
  000c7	52		 push	 edx
  000c8	e8 00 00 00 00	 call	 ?GCItemDurSend@@YAXHEEE@Z ; GCItemDurSend
  000cd	83 c4 10	 add	 esp, 16			; 00000010H

; 5997 : 
; 5998 : 			if(dur == 0)

  000d0	84 db		 test	 bl, bl
  000d2	0f 85 32 03 00
	00		 jne	 $LN1@gObjChange

; 5999 : 			{
; 6000 : 				gObjUseSkill.SkillChangeUse(lpObj->m_Index);

  000d8	8b 06		 mov	 eax, DWORD PTR [esi]
  000da	50		 push	 eax
$LN26@gObjChange:
  000db	b9 00 00 00 00	 mov	 ecx, OFFSET ?gObjUseSkill@@3VCObjUseSkill@@A ; gObjUseSkill
  000e0	e8 00 00 00 00	 call	 ?SkillChangeUse@CObjUseSkill@@QAEHH@Z ; CObjUseSkill::SkillChangeUse

; 6001 : 				LogAdd(LOG_BLACK, lMsg.Get(544),lpObj->AccountID,lpObj->Name,lpObj->pInventory[10].GetName(),lpObj->pInventory[10].m_Level,dur);

  000e5	8b 86 8c 0c 00
	00		 mov	 eax, DWORD PTR [esi+3212]
  000eb	0f bf 88 98 06
	00 00		 movsx	 ecx, WORD PTR [eax+1688]
  000f2	6a 00		 push	 0
  000f4	51		 push	 ecx
  000f5	8d 88 90 06 00
	00		 lea	 ecx, DWORD PTR [eax+1680]
  000fb	e8 00 00 00 00	 call	 ?GetName@CItem@@QAEPADXZ ; CItem::GetName
  00100	50		 push	 eax
  00101	8d 56 6f	 lea	 edx, DWORD PTR [esi+111]
  00104	52		 push	 edx
  00105	8d 46 64	 lea	 eax, DWORD PTR [esi+100]
  00108	50		 push	 eax
  00109	68 20 02 00 00	 push	 544			; 00000220H
  0010e	b9 00 00 00 00	 mov	 ecx, OFFSET ?lMsg@@3VCMsg@@A ; lMsg
  00113	e8 00 00 00 00	 call	 ?Get@CMsg@@QAEPADH@Z	; CMsg::Get
  00118	50		 push	 eax
  00119	6a 00		 push	 0
  0011b	e8 00 00 00 00	 call	 ?LogAdd@@YAXW4eLogColor@@PADZZ ; LogAdd

; 6002 : 				lpObj->pInventory[10].Clear();

  00120	8b 8e 8c 0c 00
	00		 mov	 ecx, DWORD PTR [esi+3212]
  00126	83 c4 1c	 add	 esp, 28			; 0000001cH
  00129	81 c1 90 06 00
	00		 add	 ecx, 1680		; 00000690H
  0012f	e8 00 00 00 00	 call	 ?Clear@CItem@@QAEXXZ	; CItem::Clear

; 6081 : 				GCInventoryItemDeleteSend(lpObj->m_Index,11,0);

  00134	8b 0e		 mov	 ecx, DWORD PTR [esi]
  00136	6a 00		 push	 0
  00138	6a 0a		 push	 10			; 0000000aH
  0013a	51		 push	 ecx
  0013b	e8 00 00 00 00	 call	 ?GCInventoryItemDeleteSend@@YAXHEE@Z ; GCInventoryItemDeleteSend
  00140	83 c4 0c	 add	 esp, 12			; 0000000cH
  00143	5f		 pop	 edi
  00144	5e		 pop	 esi
  00145	5b		 pop	 ebx

; 6082 : 			}
; 6083 : 		}
; 6084 : 	}
; 6085 : }

  00146	8b e5		 mov	 esp, ebp
  00148	5d		 pop	 ebp
  00149	c3		 ret	 0
$LN19@gObjChange:

; 6003 : 				GCInventoryItemDeleteSend(lpObj->m_Index,10,0);
; 6004 : 			}
; 6005 : 		}
; 6006 : 	}
; 6007 : 	else if(lpObj->pInventory[11].IsItem() == 1 && lpObj->pInventory[11].m_Type == ITEMGET(13,10))

  0014a	8b 8e 8c 0c 00
	00		 mov	 ecx, DWORD PTR [esi+3212]
  00150	81 c1 38 07 00
	00		 add	 ecx, 1848		; 00000738H
  00156	e8 00 00 00 00	 call	 ?IsItem@CItem@@QAEHXZ	; CItem::IsItem
  0015b	83 f8 01	 cmp	 eax, 1
  0015e	0f 85 9b 00 00
	00		 jne	 $LN14@gObjChange
  00164	8b 96 8c 0c 00
	00		 mov	 edx, DWORD PTR [esi+3212]
  0016a	b8 0a 1a 00 00	 mov	 eax, 6666		; 00001a0aH
  0016f	66 39 82 3e 07
	00 00		 cmp	 WORD PTR [edx+1854], ax
  00176	0f 85 83 00 00
	00		 jne	 $LN14@gObjChange

; 6008 : 	{
; 6009 : 		int m_Durability = lpObj->pInventory[11].m_Durability;

  0017c	8b fa		 mov	 edi, edx
  0017e	d9 87 5c 07 00
	00		 fld	 DWORD PTR [edi+1884]
  00184	e8 00 00 00 00	 call	 __ftol2_sse

; 6010 : 
; 6011 : 		lpObj->pInventory[11].m_Durability -= (float)0.02;

  00189	d9 87 5c 07 00
	00		 fld	 DWORD PTR [edi+1884]
  0018f	dc 25 00 00 00
	00		 fsub	 QWORD PTR __real@3f947ae140000000
  00195	8b d8		 mov	 ebx, eax
  00197	d9 9f 5c 07 00
	00		 fstp	 DWORD PTR [edi+1884]

; 6012 : 
; 6013 : 		if(m_Durability > (int)lpObj->pInventory[11].m_Durability)

  0019d	8b 8e 8c 0c 00
	00		 mov	 ecx, DWORD PTR [esi+3212]
  001a3	d9 81 5c 07 00
	00		 fld	 DWORD PTR [ecx+1884]
  001a9	e8 00 00 00 00	 call	 __ftol2_sse
  001ae	3b d8		 cmp	 ebx, eax
  001b0	0f 8e 54 02 00
	00		 jle	 $LN1@gObjChange

; 6014 : 		{
; 6015 : 			if(lpObj->pInventory[11].m_Durability < 1)

  001b6	d9 e8		 fld1
  001b8	8b 8e 8c 0c 00
	00		 mov	 ecx, DWORD PTR [esi+3212]
  001be	d8 99 5c 07 00
	00		 fcomp	 DWORD PTR [ecx+1884]
  001c4	df e0		 fnstsw	 ax
  001c6	f6 c4 41	 test	 ah, 65			; 00000041H
  001c9	75 08		 jne	 SHORT $LN12@gObjChange

; 6016 : 			{
; 6017 : 				lpObj->pInventory[11].m_Durability = 0;

  001cb	d9 ee		 fldz
  001cd	d9 99 5c 07 00
	00		 fstp	 DWORD PTR [ecx+1884]
$LN12@gObjChange:

; 6018 : 			}
; 6019 : 
; 6020 : 			BYTE dur = lpObj->pInventory[11].m_Durability;

  001d3	8b 96 8c 0c 00
	00		 mov	 edx, DWORD PTR [esi+3212]
  001d9	d9 7d 0a	 fnstcw	 WORD PTR tv492[ebp]
  001dc	0f b7 45 0a	 movzx	 eax, WORD PTR tv492[ebp]
  001e0	d9 82 5c 07 00
	00		 fld	 DWORD PTR [edx+1884]
  001e6	0d 00 0c 00 00	 or	 eax, 3072		; 00000c00H
  001eb	89 45 fc	 mov	 DWORD PTR tv489[ebp], eax
  001ee	d9 6d fc	 fldcw	 WORD PTR tv489[ebp]
  001f1	db 5d fc	 fistp	 DWORD PTR tv487[ebp]
  001f4	8a 5d fc	 mov	 bl, BYTE PTR tv487[ebp]
  001f7	d9 6d 0a	 fldcw	 WORD PTR tv492[ebp]

; 6021 : 
; 6022 : 			GCItemDurSend(lpObj->m_Index,11,dur,0);
; 6023 : 
; 6024 : 			if(dur == 0)
; 6025 : 			{
; 6026 : 				gObjUseSkill.SkillChangeUse(lpObj->m_Index);
; 6027 : 				LogAdd(LOG_BLACK, lMsg.Get(544),lpObj->AccountID,lpObj->Name,lpObj->pInventory[10].GetName(),lpObj->pInventory[11].m_Level,dur);
; 6028 : 				lpObj->pInventory[11].Clear();
; 6029 : 				GCInventoryItemDeleteSend(lpObj->m_Index,11,0);
; 6030 : 			}
; 6031 : 		}
; 6032 : 	}

  001fa	e9 86 01 00 00	 jmp	 $LN25@gObjChange
$LN14@gObjChange:

; 6033 : 	else if(lpObj->pInventory[10].IsItem() == 1 && lpObj->pInventory[10].m_Type == ITEMGET(13,39))

  001ff	8b 8e 8c 0c 00
	00		 mov	 ecx, DWORD PTR [esi+3212]
  00205	81 c1 90 06 00
	00		 add	 ecx, 1680		; 00000690H
  0020b	e8 00 00 00 00	 call	 ?IsItem@CItem@@QAEHXZ	; CItem::IsItem
  00210	83 f8 01	 cmp	 eax, 1
  00213	0f 85 bc 00 00
	00		 jne	 $LN9@gObjChange
  00219	8b 96 8c 0c 00
	00		 mov	 edx, DWORD PTR [esi+3212]
  0021f	b8 27 1a 00 00	 mov	 eax, 6695		; 00001a27H
  00224	66 39 82 96 06
	00 00		 cmp	 WORD PTR [edx+1686], ax
  0022b	0f 85 a4 00 00
	00		 jne	 $LN9@gObjChange

; 6034 : 	{
; 6035 : 		int m_Durability = lpObj->pInventory[10].m_Durability;

  00231	8b fa		 mov	 edi, edx
  00233	d9 87 b4 06 00
	00		 fld	 DWORD PTR [edi+1716]
  00239	e8 00 00 00 00	 call	 __ftol2_sse

; 6036 : 
; 6037 : 		lpObj->pInventory[10].m_Durability -= (float)0.02;

  0023e	d9 87 b4 06 00
	00		 fld	 DWORD PTR [edi+1716]
  00244	dc 25 00 00 00
	00		 fsub	 QWORD PTR __real@3f947ae140000000
  0024a	8b d8		 mov	 ebx, eax
  0024c	d9 9f b4 06 00
	00		 fstp	 DWORD PTR [edi+1716]

; 6038 : 
; 6039 : 		if(m_Durability > (int)lpObj->pInventory[10].m_Durability)

  00252	8b 8e 8c 0c 00
	00		 mov	 ecx, DWORD PTR [esi+3212]
  00258	d9 81 b4 06 00
	00		 fld	 DWORD PTR [ecx+1716]
  0025e	e8 00 00 00 00	 call	 __ftol2_sse
  00263	3b d8		 cmp	 ebx, eax
  00265	0f 8e 9f 01 00
	00		 jle	 $LN1@gObjChange

; 6040 : 		{
; 6041 : 			if(lpObj->pInventory[10].m_Durability < 1)

  0026b	d9 e8		 fld1
  0026d	8b 8e 8c 0c 00
	00		 mov	 ecx, DWORD PTR [esi+3212]
  00273	d8 99 b4 06 00
	00		 fcomp	 DWORD PTR [ecx+1716]
  00279	df e0		 fnstsw	 ax
  0027b	f6 c4 41	 test	 ah, 65			; 00000041H
  0027e	75 08		 jne	 SHORT $LN7@gObjChange

; 6042 : 			{
; 6043 : 				lpObj->pInventory[10].m_Durability = 0;

  00280	d9 ee		 fldz
  00282	d9 99 b4 06 00
	00		 fstp	 DWORD PTR [ecx+1716]
$LN7@gObjChange:

; 6044 : 			}
; 6045 : 
; 6046 : 			BYTE dur = lpObj->pInventory[10].m_Durability;

  00288	8b 96 8c 0c 00
	00		 mov	 edx, DWORD PTR [esi+3212]
  0028e	d9 7d 0a	 fnstcw	 WORD PTR tv458[ebp]
  00291	0f b7 45 0a	 movzx	 eax, WORD PTR tv458[ebp]
  00295	d9 82 b4 06 00
	00		 fld	 DWORD PTR [edx+1716]

; 6047 : 
; 6048 : 			GCItemDurSend(lpObj->m_Index,10,dur,0);

  0029b	8b 0e		 mov	 ecx, DWORD PTR [esi]
  0029d	0d 00 0c 00 00	 or	 eax, 3072		; 00000c00H
  002a2	89 45 fc	 mov	 DWORD PTR tv455[ebp], eax
  002a5	6a 00		 push	 0
  002a7	d9 6d fc	 fldcw	 WORD PTR tv455[ebp]
  002aa	db 5d fc	 fistp	 DWORD PTR tv453[ebp]
  002ad	8a 5d fc	 mov	 bl, BYTE PTR tv453[ebp]
  002b0	88 5d 08	 mov	 BYTE PTR _dur$163746[ebp], bl
  002b3	8b 45 08	 mov	 eax, DWORD PTR _dur$163746[ebp]
  002b6	d9 6d 0a	 fldcw	 WORD PTR tv458[ebp]
  002b9	50		 push	 eax
  002ba	6a 0a		 push	 10			; 0000000aH
  002bc	51		 push	 ecx
  002bd	e8 00 00 00 00	 call	 ?GCItemDurSend@@YAXHEEE@Z ; GCItemDurSend
  002c2	83 c4 10	 add	 esp, 16			; 00000010H

; 6049 : 
; 6050 : 			if(dur == 0)

  002c5	84 db		 test	 bl, bl
  002c7	0f 85 3d 01 00
	00		 jne	 $LN1@gObjChange

; 6051 : 			{
; 6052 : 				gObjUseSkill.SkillChangeUse(lpObj->m_Index);

  002cd	8b 16		 mov	 edx, DWORD PTR [esi]
  002cf	52		 push	 edx

; 6053 : 				LogAdd(LOG_BLACK, lMsg.Get(544),lpObj->AccountID,lpObj->Name,lpObj->pInventory[10].GetName(),lpObj->pInventory[10].m_Level,dur);
; 6054 : 				lpObj->pInventory[10].Clear();
; 6055 : 				GCInventoryItemDeleteSend(lpObj->m_Index,10,0);
; 6056 : 			}
; 6057 : 		}
; 6058 : 	}

  002d0	e9 06 fe ff ff	 jmp	 $LN26@gObjChange
$LN9@gObjChange:

; 6059 : 	else if(lpObj->pInventory[11].IsItem() == 1 && lpObj->pInventory[11].m_Type == ITEMGET(13,39))

  002d5	8b 8e 8c 0c 00
	00		 mov	 ecx, DWORD PTR [esi+3212]
  002db	81 c1 38 07 00
	00		 add	 ecx, 1848		; 00000738H
  002e1	e8 00 00 00 00	 call	 ?IsItem@CItem@@QAEHXZ	; CItem::IsItem
  002e6	83 f8 01	 cmp	 eax, 1
  002e9	0f 85 1b 01 00
	00		 jne	 $LN1@gObjChange
  002ef	8b 96 8c 0c 00
	00		 mov	 edx, DWORD PTR [esi+3212]
  002f5	b8 27 1a 00 00	 mov	 eax, 6695		; 00001a27H
  002fa	66 39 82 3e 07
	00 00		 cmp	 WORD PTR [edx+1854], ax
  00301	0f 85 03 01 00
	00		 jne	 $LN1@gObjChange

; 6060 : 	{
; 6061 : 		int m_Durability = lpObj->pInventory[11].m_Durability;

  00307	8b fa		 mov	 edi, edx
  00309	d9 87 5c 07 00
	00		 fld	 DWORD PTR [edi+1884]
  0030f	e8 00 00 00 00	 call	 __ftol2_sse

; 6062 : 
; 6063 : 		lpObj->pInventory[11].m_Durability -= (float)0.02;

  00314	d9 87 5c 07 00
	00		 fld	 DWORD PTR [edi+1884]
  0031a	dc 25 00 00 00
	00		 fsub	 QWORD PTR __real@3f947ae140000000
  00320	8b d8		 mov	 ebx, eax
  00322	d9 9f 5c 07 00
	00		 fstp	 DWORD PTR [edi+1884]

; 6064 : 
; 6065 : 		if(m_Durability > (int)lpObj->pInventory[11].m_Durability)

  00328	8b 8e 8c 0c 00
	00		 mov	 ecx, DWORD PTR [esi+3212]
  0032e	d9 81 5c 07 00
	00		 fld	 DWORD PTR [ecx+1884]
  00334	e8 00 00 00 00	 call	 __ftol2_sse
  00339	3b d8		 cmp	 ebx, eax
  0033b	0f 8e c9 00 00
	00		 jle	 $LN1@gObjChange

; 6066 : 		{
; 6067 : 			if(lpObj->pInventory[11].m_Durability < 1)

  00341	d9 e8		 fld1
  00343	8b 8e 8c 0c 00
	00		 mov	 ecx, DWORD PTR [esi+3212]
  00349	d8 99 5c 07 00
	00		 fcomp	 DWORD PTR [ecx+1884]
  0034f	df e0		 fnstsw	 ax
  00351	f6 c4 41	 test	 ah, 65			; 00000041H
  00354	75 08		 jne	 SHORT $LN2@gObjChange

; 6068 : 			{
; 6069 : 				lpObj->pInventory[11].m_Durability = 0;

  00356	d9 ee		 fldz
  00358	d9 99 5c 07 00
	00		 fstp	 DWORD PTR [ecx+1884]
$LN2@gObjChange:

; 6070 : 			}
; 6071 : 
; 6072 : 			BYTE dur = lpObj->pInventory[11].m_Durability;

  0035e	8b 96 8c 0c 00
	00		 mov	 edx, DWORD PTR [esi+3212]
  00364	d9 7d 0a	 fnstcw	 WORD PTR tv332[ebp]
  00367	0f b7 45 0a	 movzx	 eax, WORD PTR tv332[ebp]
  0036b	d9 82 5c 07 00
	00		 fld	 DWORD PTR [edx+1884]
  00371	0d 00 0c 00 00	 or	 eax, 3072		; 00000c00H
  00376	89 45 fc	 mov	 DWORD PTR tv328[ebp], eax
  00379	d9 6d fc	 fldcw	 WORD PTR tv328[ebp]
  0037c	db 5d fc	 fistp	 DWORD PTR tv70[ebp]
  0037f	8a 5d fc	 mov	 bl, BYTE PTR tv70[ebp]
  00382	d9 6d 0a	 fldcw	 WORD PTR tv332[ebp]
$LN25@gObjChange:

; 6073 : 
; 6074 : 			GCItemDurSend(lpObj->m_Index,11,dur,0);

  00385	8b 0e		 mov	 ecx, DWORD PTR [esi]
  00387	88 5d 08	 mov	 BYTE PTR _dur$163755[ebp], bl
  0038a	8b 45 08	 mov	 eax, DWORD PTR _dur$163755[ebp]
  0038d	6a 00		 push	 0
  0038f	50		 push	 eax
  00390	6a 0b		 push	 11			; 0000000bH
  00392	51		 push	 ecx
  00393	e8 00 00 00 00	 call	 ?GCItemDurSend@@YAXHEEE@Z ; GCItemDurSend
  00398	83 c4 10	 add	 esp, 16			; 00000010H

; 6075 : 
; 6076 : 			if(dur == 0)

  0039b	84 db		 test	 bl, bl
  0039d	75 6b		 jne	 SHORT $LN1@gObjChange

; 6077 : 			{
; 6078 : 				gObjUseSkill.SkillChangeUse(lpObj->m_Index);

  0039f	8b 16		 mov	 edx, DWORD PTR [esi]
  003a1	52		 push	 edx
  003a2	b9 00 00 00 00	 mov	 ecx, OFFSET ?gObjUseSkill@@3VCObjUseSkill@@A ; gObjUseSkill
  003a7	e8 00 00 00 00	 call	 ?SkillChangeUse@CObjUseSkill@@QAEHH@Z ; CObjUseSkill::SkillChangeUse

; 6079 : 				LogAdd(LOG_BLACK, lMsg.Get(544),lpObj->AccountID,lpObj->Name,lpObj->pInventory[10].GetName(),lpObj->pInventory[11].m_Level,dur);

  003ac	8b 86 8c 0c 00
	00		 mov	 eax, DWORD PTR [esi+3212]
  003b2	0f bf 88 40 07
	00 00		 movsx	 ecx, WORD PTR [eax+1856]
  003b9	6a 00		 push	 0
  003bb	51		 push	 ecx
  003bc	8d 88 90 06 00
	00		 lea	 ecx, DWORD PTR [eax+1680]
  003c2	e8 00 00 00 00	 call	 ?GetName@CItem@@QAEPADXZ ; CItem::GetName
  003c7	50		 push	 eax
  003c8	8d 56 6f	 lea	 edx, DWORD PTR [esi+111]
  003cb	52		 push	 edx
  003cc	8d 46 64	 lea	 eax, DWORD PTR [esi+100]
  003cf	50		 push	 eax
  003d0	68 20 02 00 00	 push	 544			; 00000220H
  003d5	b9 00 00 00 00	 mov	 ecx, OFFSET ?lMsg@@3VCMsg@@A ; lMsg
  003da	e8 00 00 00 00	 call	 ?Get@CMsg@@QAEPADH@Z	; CMsg::Get
  003df	50		 push	 eax
  003e0	6a 00		 push	 0
  003e2	e8 00 00 00 00	 call	 ?LogAdd@@YAXW4eLogColor@@PADZZ ; LogAdd

; 6080 : 				lpObj->pInventory[11].Clear();

  003e7	8b 8e 8c 0c 00
	00		 mov	 ecx, DWORD PTR [esi+3212]
  003ed	83 c4 1c	 add	 esp, 28			; 0000001cH
  003f0	81 c1 38 07 00
	00		 add	 ecx, 1848		; 00000738H
  003f6	e8 00 00 00 00	 call	 ?Clear@CItem@@QAEXXZ	; CItem::Clear

; 6081 : 				GCInventoryItemDeleteSend(lpObj->m_Index,11,0);

  003fb	8b 0e		 mov	 ecx, DWORD PTR [esi]
  003fd	6a 00		 push	 0
  003ff	6a 0b		 push	 11			; 0000000bH
  00401	51		 push	 ecx
  00402	e8 00 00 00 00	 call	 ?GCInventoryItemDeleteSend@@YAXHEE@Z ; GCInventoryItemDeleteSend
  00407	83 c4 0c	 add	 esp, 12			; 0000000cH
$LN1@gObjChange:
  0040a	5f		 pop	 edi
  0040b	5e		 pop	 esi
  0040c	5b		 pop	 ebx

; 6082 : 			}
; 6083 : 		}
; 6084 : 	}
; 6085 : }

  0040d	8b e5		 mov	 esp, ebp
  0040f	5d		 pop	 ebp
  00410	c3		 ret	 0
?gObjChangeDurProc@@YAXPAUOBJECTSTRUCT@@@Z ENDP		; gObjChangeDurProc
_TEXT	ENDS
PUBLIC	?gObjWingDurProc@@YAXPAUOBJECTSTRUCT@@@Z	; gObjWingDurProc
; Function compile flags: /Ogtp
;	COMDAT ?gObjWingDurProc@@YAXPAUOBJECTSTRUCT@@@Z
_TEXT	SEGMENT
_lpObj$ = 8						; size = 4
?gObjWingDurProc@@YAXPAUOBJECTSTRUCT@@@Z PROC		; gObjWingDurProc, COMDAT

; 6094 : 	BYTE send_dur=0; // HERE GOES A MACRO
; 6095 : 	{
; 6096 : 		int dur;
; 6097 : 	}
; 6098 : }

  00000	c3		 ret	 0
?gObjWingDurProc@@YAXPAUOBJECTSTRUCT@@@Z ENDP		; gObjWingDurProc
_TEXT	ENDS
PUBLIC	__$ArrayPad$
PUBLIC	?gObjPenaltyDurDown@@YAXPAUOBJECTSTRUCT@@0@Z	; gObjPenaltyDurDown
EXTRN	?gObjCalCharacter@@YAXH@Z:PROC			; gObjCalCharacter
EXTRN	?GCItemDurSend2@@YAXHEEE@Z:PROC			; GCItemDurSend2
EXTRN	?DurabilityDown2@CItem@@QAEHHH@Z:PROC		; CItem::DurabilityDown2
; Function compile flags: /Ogtp
;	COMDAT ?gObjPenaltyDurDown@@YAXPAUOBJECTSTRUCT@@0@Z
_TEXT	SEGMENT
_reCalCharacter$ = -52					; size = 4
tv336 = -48						; size = 4
tv306 = -48						; size = 4
tv304 = -48						; size = 4
tv290 = -48						; size = 4
tv293 = -44						; size = 4
_ret$ = -44						; size = 4
tv279 = -40						; size = 4
tv277 = -40						; size = 4
tv265 = -40						; size = 4
tv259 = -40						; size = 4
tv203 = -40						; size = 4
tv71 = -40						; size = 4
tv309 = -34						; size = 2
tv282 = -34						; size = 2
tv268 = -34						; size = 2
tv215 = -34						; size = 2
_item_num$ = -32					; size = 28
__$ArrayPad$ = -4					; size = 4
_lpObj$ = 8						; size = 4
_lpTargetObj$ = 12					; size = 4
?gObjPenaltyDurDown@@YAXPAUOBJECTSTRUCT@@0@Z PROC	; gObjPenaltyDurDown, COMDAT

; 6106 : {

  00000	55		 push	 ebp
  00001	8b ec		 mov	 ebp, esp
  00003	83 ec 34	 sub	 esp, 52			; 00000034H
  00006	a1 00 00 00 00	 mov	 eax, DWORD PTR ___security_cookie
  0000b	33 c5		 xor	 eax, ebp
  0000d	89 45 fc	 mov	 DWORD PTR __$ArrayPad$[ebp], eax
  00010	53		 push	 ebx
  00011	8b 5d 0c	 mov	 ebx, DWORD PTR _lpTargetObj$[ebp]
  00014	56		 push	 esi
  00015	8b 75 08	 mov	 esi, DWORD PTR _lpObj$[ebp]
  00018	57		 push	 edi

; 6107 : 	int ret = 0;
; 6108 : 	int reCalCharacter = 0;

  00019	c7 45 cc 00 00
	00 00		 mov	 DWORD PTR _reCalCharacter$[ebp], 0

; 6109 : 
; 6110 : 	int irand = rand()%2;

  00020	e8 00 00 00 00	 call	 _rand
  00025	8b f8		 mov	 edi, eax
  00027	81 e7 01 00 00
	80		 and	 edi, -2147483647	; 80000001H
  0002d	79 05		 jns	 SHORT $LN35@gObjPenalt
  0002f	4f		 dec	 edi
  00030	83 cf fe	 or	 edi, -2			; fffffffeH
  00033	47		 inc	 edi
$LN35@gObjPenalt:

; 6111 : 
; 6112 : 	CItem * Weapon = &lpObj->pInventory[irand];

  00034	8b c7		 mov	 eax, edi
  00036	69 c0 a8 00 00
	00		 imul	 eax, 168		; 000000a8H
  0003c	89 45 d0	 mov	 DWORD PTR tv290[ebp], eax
  0003f	03 86 8c 0c 00
	00		 add	 eax, DWORD PTR [esi+3212]

; 6113 : 	int decdur = 1;

  00045	b9 01 00 00 00	 mov	 ecx, 1
  0004a	89 45 d4	 mov	 DWORD PTR tv293[ebp], eax

; 6114 : 
; 6115 : 	switch(lpObj->Class)

  0004d	0f b7 86 98 00
	00 00		 movzx	 eax, WORD PTR [esi+152]
  00054	83 f8 04	 cmp	 eax, 4
  00057	77 61		 ja	 SHORT $LN32@gObjPenalt
  00059	ff 24 85 00 00
	00 00		 jmp	 DWORD PTR $LN40@gObjPenalt[eax*4]
$LN24@gObjPenalt:

; 6116 : 	{
; 6117 : 	case 0:
; 6118 : 		decdur = lpObj->Level - (lpTargetObj->Level * 38) / 20;

  00060	0f bf 8b 9c 00
	00 00		 movsx	 ecx, WORD PTR [ebx+156]
  00067	6b c9 26	 imul	 ecx, 38			; 00000026H

; 6119 : 		break;
; 6120 : 	case 1:
; 6121 : 		decdur = lpObj->Level - (lpTargetObj->Level * 37) / 20;
; 6122 : 		break;

  0006a	eb 0e		 jmp	 SHORT $LN36@gObjPenalt
$LN22@gObjPenalt:

; 6123 : 	case 2:
; 6124 : 		decdur = lpObj->Level - (lpTargetObj->Level * 36) / 20;

  0006c	0f bf 8b 9c 00
	00 00		 movsx	 ecx, WORD PTR [ebx+156]
  00073	8d 0c c9	 lea	 ecx, DWORD PTR [ecx+ecx*8]
  00076	03 c9		 add	 ecx, ecx
  00078	03 c9		 add	 ecx, ecx
$LN36@gObjPenalt:
  0007a	b8 67 66 66 66	 mov	 eax, 1717986919		; 66666667H
  0007f	f7 e9		 imul	 ecx
  00081	0f bf 8e 9c 00
	00 00		 movsx	 ecx, WORD PTR [esi+156]
  00088	c1 fa 03	 sar	 edx, 3
  0008b	8b c2		 mov	 eax, edx
  0008d	c1 e8 1f	 shr	 eax, 31			; 0000001fH
  00090	03 c2		 add	 eax, edx
  00092	2b c8		 sub	 ecx, eax

; 6125 : 		break;

  00094	eb 24		 jmp	 SHORT $LN32@gObjPenalt
$LN21@gObjPenalt:

; 6126 : 	case 3:
; 6127 : 	case 4:
; 6128 : 		decdur = lpObj->Level - (lpTargetObj->Level * 37) / 20;

  00096	0f bf 8b 9c 00
	00 00		 movsx	 ecx, WORD PTR [ebx+156]
  0009d	6b c9 25	 imul	 ecx, 37			; 00000025H
  000a0	b8 67 66 66 66	 mov	 eax, 1717986919		; 66666667H
  000a5	f7 e9		 imul	 ecx
  000a7	c1 fa 03	 sar	 edx, 3
  000aa	8b ca		 mov	 ecx, edx
  000ac	c1 e9 1f	 shr	 ecx, 31			; 0000001fH
  000af	03 d1		 add	 edx, ecx
  000b1	0f bf 8e 9c 00
	00 00		 movsx	 ecx, WORD PTR [esi+156]
  000b8	2b ca		 sub	 ecx, edx
$LN32@gObjPenalt:

; 6129 : 		break;
; 6130 : 	default : break;
; 6131 : 	}
; 6132 : 
; 6133 : 	decdur /= 10;

  000ba	b8 67 66 66 66	 mov	 eax, 1717986919		; 66666667H
  000bf	f7 e9		 imul	 ecx

; 6134 : 
; 6135 : 	if(Weapon->m_Type != ITEMGET(4,7) && Weapon->m_Type != ITEMGET(4,15))

  000c1	8b 4d d4	 mov	 ecx, DWORD PTR tv293[ebp]
  000c4	0f b7 41 06	 movzx	 eax, WORD PTR [ecx+6]
  000c8	c1 fa 02	 sar	 edx, 2
  000cb	8b da		 mov	 ebx, edx
  000cd	c1 eb 1f	 shr	 ebx, 31			; 0000001fH
  000d0	03 da		 add	 ebx, edx
  000d2	ba 07 08 00 00	 mov	 edx, 2055		; 00000807H
  000d7	66 3b c2	 cmp	 ax, dx
  000da	0f 84 93 00 00
	00		 je	 $LN30@gObjPenalt
  000e0	ba 0f 08 00 00	 mov	 edx, 2063		; 0000080fH
  000e5	66 3b c2	 cmp	 ax, dx
  000e8	0f 84 85 00 00
	00		 je	 $LN30@gObjPenalt

; 6136 : 	{
; 6137 : 		if(Weapon->m_Type < ITEMGET(6,0) && Weapon->m_Type >= ITEMGET(7,0) )

  000ee	ba 00 0c 00 00	 mov	 edx, 3072		; 00000c00H
  000f3	66 3b c2	 cmp	 ax, dx
  000f6	7d 18		 jge	 SHORT $LN18@gObjPenalt
  000f8	ba 00 0e 00 00	 mov	 edx, 3584		; 00000e00H
  000fd	66 3b c2	 cmp	 ax, dx
  00100	7c 0e		 jl	 SHORT $LN18@gObjPenalt

; 6138 : 		{
; 6139 : 			if ( Weapon->IsItem() )

  00102	e8 00 00 00 00	 call	 ?IsItem@CItem@@QAEHXZ	; CItem::IsItem
  00107	85 c0		 test	 eax, eax
  00109	74 68		 je	 SHORT $LN30@gObjPenalt

; 6140 : 			{
; 6141 : 				ret = Weapon->DurabilityDown2(decdur,lpObj->m_Index);

  0010b	8b 06		 mov	 eax, DWORD PTR [esi]
  0010d	50		 push	 eax

; 6142 : 			}
; 6143 : 		}
; 6144 : 		else

  0010e	eb 0c		 jmp	 SHORT $LN37@gObjPenalt
$LN18@gObjPenalt:

; 6145 : 		{
; 6146 : 			CItem * Weapon = &lpObj->pInventory[irand];
; 6147 : 
; 6148 : 			if(Weapon->IsItem())

  00110	e8 00 00 00 00	 call	 ?IsItem@CItem@@QAEHXZ	; CItem::IsItem
  00115	85 c0		 test	 eax, eax
  00117	74 5a		 je	 SHORT $LN30@gObjPenalt

; 6149 : 			{
; 6150 : 				ret = Weapon->DurabilityDown2(decdur,lpObj->m_Index);

  00119	8b 0e		 mov	 ecx, DWORD PTR [esi]
  0011b	51		 push	 ecx
$LN37@gObjPenalt:
  0011c	8b 4d d4	 mov	 ecx, DWORD PTR tv293[ebp]
  0011f	53		 push	 ebx
  00120	e8 00 00 00 00	 call	 ?DurabilityDown2@CItem@@QAEHHH@Z ; CItem::DurabilityDown2
  00125	89 45 d4	 mov	 DWORD PTR _ret$[ebp], eax

; 6151 : 			}
; 6152 : 		}
; 6153 : 	}
; 6154 : 
; 6155 : 	if(ret != 0)

  00128	85 c0		 test	 eax, eax
  0012a	74 3a		 je	 SHORT $LN14@gObjPenalt

; 6156 : 	{
; 6157 : 		GCItemDurSend2(lpObj->m_Index,irand,lpObj->pInventory[irand].m_Durability,0);

  0012c	8b 45 d0	 mov	 eax, DWORD PTR tv290[ebp]
  0012f	d9 7d de	 fnstcw	 WORD PTR tv309[ebp]
  00132	8b 96 8c 0c 00
	00		 mov	 edx, DWORD PTR [esi+3212]
  00138	d9 44 10 24	 fld	 DWORD PTR [eax+edx+36]
  0013c	0f b7 45 de	 movzx	 eax, WORD PTR tv309[ebp]
  00140	0d 00 0c 00 00	 or	 eax, 3072		; 00000c00H
  00145	89 45 d0	 mov	 DWORD PTR tv306[ebp], eax
  00148	8b 06		 mov	 eax, DWORD PTR [esi]
  0014a	6a 00		 push	 0
  0014c	d9 6d d0	 fldcw	 WORD PTR tv306[ebp]
  0014f	db 5d d0	 fistp	 DWORD PTR tv304[ebp]
  00152	8a 4d d0	 mov	 cl, BYTE PTR tv304[ebp]
  00155	0f b6 d1	 movzx	 edx, cl
  00158	52		 push	 edx
  00159	d9 6d de	 fldcw	 WORD PTR tv309[ebp]
  0015c	57		 push	 edi
  0015d	50		 push	 eax
  0015e	e8 00 00 00 00	 call	 ?GCItemDurSend2@@YAXHEEE@Z ; GCItemDurSend2
  00163	83 c4 10	 add	 esp, 16			; 00000010H
$LN14@gObjPenalt:

; 6158 : 	}
; 6159 : 
; 6160 : 	if(ret == 2)

  00166	83 7d d4 02	 cmp	 DWORD PTR _ret$[ebp], 2
  0016a	75 07		 jne	 SHORT $LN30@gObjPenalt

; 6161 : 	{
; 6162 : 		reCalCharacter = 1;

  0016c	c7 45 cc 01 00
	00 00		 mov	 DWORD PTR _reCalCharacter$[ebp], 1
$LN30@gObjPenalt:

; 6163 : 	}
; 6164 : 
; 6165 : 	int item_num[7] = {0,1,2,3,4,5,6};

  00173	c7 45 e0 00 00
	00 00		 mov	 DWORD PTR _item_num$[ebp], 0
  0017a	c7 45 e4 01 00
	00 00		 mov	 DWORD PTR _item_num$[ebp+4], 1
  00181	c7 45 e8 02 00
	00 00		 mov	 DWORD PTR _item_num$[ebp+8], 2
  00188	c7 45 ec 03 00
	00 00		 mov	 DWORD PTR _item_num$[ebp+12], 3
  0018f	c7 45 f0 04 00
	00 00		 mov	 DWORD PTR _item_num$[ebp+16], 4
  00196	c7 45 f4 05 00
	00 00		 mov	 DWORD PTR _item_num$[ebp+20], 5
  0019d	c7 45 f8 06 00
	00 00		 mov	 DWORD PTR _item_num$[ebp+24], 6

; 6166 : 	int item_pos = rand()%7;

  001a4	e8 00 00 00 00	 call	 _rand
  001a9	99		 cdq
  001aa	b9 07 00 00 00	 mov	 ecx, 7
  001af	f7 f9		 idiv	 ecx

; 6167 : 
; 6168 : 	CItem * DurItem = &lpObj->pInventory[item_num[item_pos]];

  001b1	8b 7c 95 e0	 mov	 edi, DWORD PTR _item_num$[ebp+edx*4]
  001b5	69 ff a8 00 00
	00		 imul	 edi, 168		; 000000a8H
  001bb	03 be 8c 0c 00
	00		 add	 edi, DWORD PTR [esi+3212]

; 6169 : 
; 6170 : 	if(DurItem->m_Type != ITEMGET(4,7) && DurItem->m_Type != ITEMGET(4,15))

  001c1	b9 07 08 00 00	 mov	 ecx, 2055		; 00000807H
  001c6	8d 44 95 e0	 lea	 eax, DWORD PTR _item_num$[ebp+edx*4]
  001ca	89 45 d0	 mov	 DWORD PTR tv336[ebp], eax
  001cd	0f b7 47 06	 movzx	 eax, WORD PTR [edi+6]
  001d1	66 3b c1	 cmp	 ax, cx
  001d4	0f 84 b6 00 00
	00		 je	 $LN5@gObjPenalt
  001da	b9 0f 08 00 00	 mov	 ecx, 2063		; 0000080fH
  001df	66 3b c1	 cmp	 ax, cx
  001e2	0f 84 a8 00 00
	00		 je	 $LN5@gObjPenalt

; 6171 : 	{
; 6172 : 		if(item_pos < 2)

  001e8	83 fa 02	 cmp	 edx, 2
  001eb	7d 4e		 jge	 SHORT $LN11@gObjPenalt

; 6173 : 		{
; 6174 : 			if(DurItem->m_Type >= ITEMGET(6,0) && DurItem->m_Type < ITEMGET(7,0))

  001ed	ba 00 0c 00 00	 mov	 edx, 3072		; 00000c00H
  001f2	66 3b c2	 cmp	 ax, dx
  001f5	0f 8c 95 00 00
	00		 jl	 $LN5@gObjPenalt
  001fb	b9 00 0e 00 00	 mov	 ecx, 3584		; 00000e00H
  00200	66 3b c1	 cmp	 ax, cx
  00203	0f 8d 87 00 00
	00		 jge	 $LN5@gObjPenalt

; 6175 : 			{
; 6176 : 				ret = DurItem->DurabilityDown2(decdur,lpObj->m_Index);

  00209	8b 16		 mov	 edx, DWORD PTR [esi]
  0020b	52		 push	 edx
  0020c	53		 push	 ebx
  0020d	8b cf		 mov	 ecx, edi
  0020f	e8 00 00 00 00	 call	 ?DurabilityDown2@CItem@@QAEHHH@Z ; CItem::DurabilityDown2
  00214	89 45 d4	 mov	 DWORD PTR _ret$[ebp], eax

; 6177 : 	
; 6178 : 				if(ret != 0)

  00217	85 c0		 test	 eax, eax
  00219	74 75		 je	 SHORT $LN5@gObjPenalt

; 6179 : 				{
; 6180 : 					GCItemDurSend2(lpObj->m_Index,item_num[item_pos],DurItem->m_Durability,0);

  0021b	d9 47 24	 fld	 DWORD PTR [edi+36]
  0021e	d9 7d de	 fnstcw	 WORD PTR tv282[ebp]
  00221	0f b7 45 de	 movzx	 eax, WORD PTR tv282[ebp]
  00225	0d 00 0c 00 00	 or	 eax, 3072		; 00000c00H
  0022a	89 45 d8	 mov	 DWORD PTR tv279[ebp], eax
  0022d	d9 6d d8	 fldcw	 WORD PTR tv279[ebp]
  00230	db 5d d8	 fistp	 DWORD PTR tv277[ebp]
  00233	8a 45 d8	 mov	 al, BYTE PTR tv277[ebp]
  00236	d9 6d de	 fldcw	 WORD PTR tv282[ebp]

; 6181 : 	
; 6182 : 					if(ret == 2)
; 6183 : 					{
; 6184 : 						reCalCharacter = 1;
; 6185 : 					}
; 6186 : 				}
; 6187 : 			}
; 6188 : 		}
; 6189 : 		else

  00239	eb 30		 jmp	 SHORT $LN39@gObjPenalt
$LN11@gObjPenalt:

; 6190 : 		{
; 6191 : 			ret = DurItem->DurabilityDown2(decdur,lpObj->m_Index);

  0023b	8b 16		 mov	 edx, DWORD PTR [esi]
  0023d	52		 push	 edx
  0023e	53		 push	 ebx
  0023f	8b cf		 mov	 ecx, edi
  00241	e8 00 00 00 00	 call	 ?DurabilityDown2@CItem@@QAEHHH@Z ; CItem::DurabilityDown2
  00246	89 45 d4	 mov	 DWORD PTR _ret$[ebp], eax

; 6192 : 
; 6193 : 			if(ret != 0)

  00249	85 c0		 test	 eax, eax
  0024b	74 43		 je	 SHORT $LN5@gObjPenalt

; 6194 : 			{
; 6195 : 				GCItemDurSend2(lpObj->m_Index,item_num[item_pos],DurItem->m_Durability,0);

  0024d	d9 47 24	 fld	 DWORD PTR [edi+36]
  00250	d9 7d de	 fnstcw	 WORD PTR tv268[ebp]
  00253	0f b7 45 de	 movzx	 eax, WORD PTR tv268[ebp]
  00257	0d 00 0c 00 00	 or	 eax, 3072		; 00000c00H
  0025c	89 45 d8	 mov	 DWORD PTR tv265[ebp], eax
  0025f	d9 6d d8	 fldcw	 WORD PTR tv265[ebp]
  00262	db 5d d8	 fistp	 DWORD PTR tv259[ebp]
  00265	8a 45 d8	 mov	 al, BYTE PTR tv259[ebp]
  00268	d9 6d de	 fldcw	 WORD PTR tv268[ebp]
$LN39@gObjPenalt:
  0026b	8b 55 d0	 mov	 edx, DWORD PTR tv336[ebp]
  0026e	0f b6 c8	 movzx	 ecx, al
  00271	0f b6 02	 movzx	 eax, BYTE PTR [edx]
  00274	6a 00		 push	 0
  00276	51		 push	 ecx
  00277	8b 0e		 mov	 ecx, DWORD PTR [esi]
  00279	50		 push	 eax
  0027a	51		 push	 ecx
  0027b	e8 00 00 00 00	 call	 ?GCItemDurSend2@@YAXHEEE@Z ; GCItemDurSend2
  00280	83 c4 10	 add	 esp, 16			; 00000010H

; 6196 : 
; 6197 : 				if(ret == 2)

  00283	83 7d d4 02	 cmp	 DWORD PTR _ret$[ebp], 2
  00287	75 07		 jne	 SHORT $LN5@gObjPenalt

; 6198 : 				{
; 6199 : 					reCalCharacter = 1;

  00289	c7 45 cc 01 00
	00 00		 mov	 DWORD PTR _reCalCharacter$[ebp], 1
$LN5@gObjPenalt:

; 6200 : 				}
; 6201 : 			}
; 6202 : 		}
; 6203 : 	}
; 6204 : 
; 6205 : 	CItem * Wing = &lpObj->pInventory[7];

  00290	8b 8e 8c 0c 00
	00		 mov	 ecx, DWORD PTR [esi+3212]
  00296	81 c1 98 04 00
	00		 add	 ecx, 1176		; 00000498H

; 6206 : 
; 6207 : 	if(Wing->IsItem())

  0029c	e8 00 00 00 00	 call	 ?IsItem@CItem@@QAEHXZ	; CItem::IsItem
  002a1	85 c0		 test	 eax, eax
  002a3	74 4c		 je	 SHORT $LN31@gObjPenalt

; 6208 : 	{
; 6209 : 		ret = DurItem->DurabilityDown2(decdur,lpObj->m_Index);

  002a5	8b 16		 mov	 edx, DWORD PTR [esi]
  002a7	52		 push	 edx
  002a8	53		 push	 ebx
  002a9	8b cf		 mov	 ecx, edi
  002ab	e8 00 00 00 00	 call	 ?DurabilityDown2@CItem@@QAEHHH@Z ; CItem::DurabilityDown2
  002b0	8b d8		 mov	 ebx, eax

; 6210 : 
; 6211 : 		if(ret != 0)

  002b2	85 db		 test	 ebx, ebx
  002b4	74 3b		 je	 SHORT $LN31@gObjPenalt

; 6212 : 		{
; 6213 : 			GCItemDurSend2(lpObj->m_Index,item_num[item_pos],DurItem->m_Durability,0);

  002b6	d9 47 24	 fld	 DWORD PTR [edi+36]
  002b9	8b 55 d0	 mov	 edx, DWORD PTR tv336[ebp]
  002bc	d9 7d de	 fnstcw	 WORD PTR tv215[ebp]
  002bf	6a 00		 push	 0
  002c1	0f b7 45 de	 movzx	 eax, WORD PTR tv215[ebp]
  002c5	0d 00 0c 00 00	 or	 eax, 3072		; 00000c00H
  002ca	89 45 d8	 mov	 DWORD PTR tv203[ebp], eax
  002cd	d9 6d d8	 fldcw	 WORD PTR tv203[ebp]
  002d0	db 5d d8	 fistp	 DWORD PTR tv71[ebp]
  002d3	8a 45 d8	 mov	 al, BYTE PTR tv71[ebp]
  002d6	0f b6 c8	 movzx	 ecx, al
  002d9	0f b6 02	 movzx	 eax, BYTE PTR [edx]
  002dc	d9 6d de	 fldcw	 WORD PTR tv215[ebp]
  002df	51		 push	 ecx
  002e0	8b 0e		 mov	 ecx, DWORD PTR [esi]
  002e2	50		 push	 eax
  002e3	51		 push	 ecx
  002e4	e8 00 00 00 00	 call	 ?GCItemDurSend2@@YAXHEEE@Z ; GCItemDurSend2
  002e9	83 c4 10	 add	 esp, 16			; 00000010H

; 6214 : 
; 6215 : 			if(ret == 2)

  002ec	83 fb 02	 cmp	 ebx, 2

; 6216 : 			{
; 6217 : 				reCalCharacter = 1;
; 6218 : 			}
; 6219 : 		}
; 6220 : 	}
; 6221 : 
; 6222 : 	if(reCalCharacter != 0)

  002ef	74 06		 je	 SHORT $LN29@gObjPenalt
$LN31@gObjPenalt:
  002f1	83 7d cc 00	 cmp	 DWORD PTR _reCalCharacter$[ebp], 0
  002f5	74 0b		 je	 SHORT $LN1@gObjPenalt
$LN29@gObjPenalt:

; 6223 : 	{
; 6224 : 		gObjCalCharacter(lpObj->m_Index);

  002f7	8b 16		 mov	 edx, DWORD PTR [esi]
  002f9	52		 push	 edx
  002fa	e8 00 00 00 00	 call	 ?gObjCalCharacter@@YAXH@Z ; gObjCalCharacter
  002ff	83 c4 04	 add	 esp, 4
$LN1@gObjPenalt:

; 6225 : 	}
; 6226 : }

  00302	8b 4d fc	 mov	 ecx, DWORD PTR __$ArrayPad$[ebp]
  00305	5f		 pop	 edi
  00306	5e		 pop	 esi
  00307	33 cd		 xor	 ecx, ebp
  00309	5b		 pop	 ebx
  0030a	e8 00 00 00 00	 call	 @__security_check_cookie@4
  0030f	8b e5		 mov	 esp, ebp
  00311	5d		 pop	 ebp
  00312	c3		 ret	 0
  00313	90		 npad	 1
$LN40@gObjPenalt:
  00314	00 00 00 00	 DD	 $LN24@gObjPenalt
  00318	00 00 00 00	 DD	 $LN21@gObjPenalt
  0031c	00 00 00 00	 DD	 $LN22@gObjPenalt
  00320	00 00 00 00	 DD	 $LN21@gObjPenalt
  00324	00 00 00 00	 DD	 $LN21@gObjPenalt
?gObjPenaltyDurDown@@YAXPAUOBJECTSTRUCT@@0@Z ENDP	; gObjPenaltyDurDown
_TEXT	ENDS
PUBLIC	?gObjWeaponDurDown@@YAXPAUOBJECTSTRUCT@@0H@Z	; gObjWeaponDurDown
EXTRN	?StaffWeaponDurabilityDown@CItem@@QAEHHH@Z:PROC	; CItem::StaffWeaponDurabilityDown
EXTRN	?BowWeaponDurabilityDown@CItem@@QAEHHH@Z:PROC	; CItem::BowWeaponDurabilityDown
EXTRN	?NormalWeaponDurabilityDown@CItem@@QAEHHH@Z:PROC ; CItem::NormalWeaponDurabilityDown
; Function compile flags: /Ogtp
;	COMDAT ?gObjWeaponDurDown@@YAXPAUOBJECTSTRUCT@@0H@Z
_TEXT	SEGMENT
tv364 = -4						; size = 4
tv362 = -4						; size = 4
tv351 = -4						; size = 4
tv348 = -4						; size = 4
tv335 = -4						; size = 4
tv333 = -4						; size = 4
tv320 = -4						; size = 4
tv309 = -4						; size = 4
tv298 = -4						; size = 4
tv296 = -4						; size = 4
tv276 = -4						; size = 4
tv212 = -4						; size = 4
tv153 = -4						; size = 4
tv152 = -4						; size = 4
_Left$ = 8						; size = 4
_lpObj$ = 8						; size = 4
tv367 = 10						; size = 2
tv354 = 10						; size = 2
tv338 = 10						; size = 2
tv324 = 10						; size = 2
tv288 = 10						; size = 2
tv250 = 10						; size = 2
tv159 = 10						; size = 2
_lpTargetObj$ = 12					; size = 4
_type$ = 16						; size = 4
?gObjWeaponDurDown@@YAXPAUOBJECTSTRUCT@@0H@Z PROC	; gObjWeaponDurDown, COMDAT

; 6234 : {

  00000	55		 push	 ebp
  00001	8b ec		 mov	 ebp, esp
  00003	51		 push	 ecx
  00004	56		 push	 esi

; 6235 : 	if(lpObj->Type == OBJ_MONSTER || lpObj->Type == OBJ_NPC)

  00005	8b 75 08	 mov	 esi, DWORD PTR _lpObj$[ebp]
  00008	0f b7 46 60	 movzx	 eax, WORD PTR [esi+96]
  0000c	83 f8 02	 cmp	 eax, 2
  0000f	0f 84 fb 03 00
	00		 je	 $LN36@gObjWeapon
  00015	83 f8 03	 cmp	 eax, 3
  00018	0f 84 f2 03 00
	00		 je	 $LN36@gObjWeapon

; 6236 : 	{
; 6237 : 		return;
; 6238 : 	}
; 6239 : 
; 6240 : 	int itargetdefence = 0;
; 6241 : 	CItem * Right = &lpObj->pInventory[0];
; 6242 : 	CItem * Left = &lpObj->pInventory[1];
; 6243 : 	int ret = 0;
; 6244 : 
; 6245 : 	if(type == 0)

  0001e	83 7d 10 00	 cmp	 DWORD PTR _type$[ebp], 0
  00022	53		 push	 ebx
  00023	57		 push	 edi
  00024	8b be 8c 0c 00
	00		 mov	 edi, DWORD PTR [esi+3212]
  0002a	8d 8f a8 00 00
	00		 lea	 ecx, DWORD PTR [edi+168]
  00030	89 4d 08	 mov	 DWORD PTR _Left$[ebp], ecx
  00033	0f 85 46 03 00
	00		 jne	 $LN35@gObjWeapon

; 6246 : 	{
; 6247 : 
; 6248 : 		itargetdefence = lpTargetObj->m_Defense;
; 6249 : 		itargetdefence += lpTargetObj->m_iSkillNPCDefense;

  00039	8b 45 0c	 mov	 eax, DWORD PTR _lpTargetObj$[ebp]
  0003c	8b 98 28 15 00
	00		 mov	 ebx, DWORD PTR [eax+5416]
  00042	03 98 10 03 00
	00		 add	 ebx, DWORD PTR [eax+784]

