; Listing generated by Microsoft (R) Optimizing Compiler Version 16.00.30319.01 

	TITLE	C:\Users\faelhs\mu-1.1\eMu - GameServer Sapphire S0\GameServer\zzzitem.cpp
	.686P
	.XMM
	include listing.inc
	.model	flat

INCLUDELIB LIBCMT
INCLUDELIB OLDNAMES

PUBLIC	?ItemAttribute@@3PAUITEM_ATTRIBUTE@@A		; ItemAttribute
PUBLIC	?g_MaxItemIndexOfEachItemType@@3PAHA		; g_MaxItemIndexOfEachItemType
_BSS	SEGMENT
?ItemAttribute@@3PAUITEM_ATTRIBUTE@@A DB 0d8000H DUP (?) ; ItemAttribute
?g_MaxItemIndexOfEachItemType@@3PAHA DD 010H DUP (?)	; g_MaxItemIndexOfEachItemType
_BSS	ENDS
PUBLIC	__$ArrayPad$
EXTRN	_isalnum:PROC
EXTRN	_isalpha:PROC
EXTRN	_atof:PROC
EXTRN	_isdigit:PROC
EXTRN	_getc:PROC
EXTRN	_ungetc:PROC
EXTRN	_isspace:PROC
EXTRN	_fgetc:PROC
EXTRN	___security_cookie:DWORD
EXTRN	__fltused:DWORD
EXTRN	@__security_check_cookie@4:PROC
_BSS	SEGMENT
_CurrentToken DD 01H DUP (?)
_TokenNumber DD	01H DUP (?)
_SMDFile DD	01H DUP (?)
_TokenString DB	064H DUP (?)
; Function compile flags: /Ogtp
; File c:\users\faelhs\mu-1.1\emu - gameserver sapphire s0\include\readscript.h
_BSS	ENDS
;	COMDAT ?GetToken@@YA?AW4SMDToken@@XZ
_TEXT	SEGMENT
_TempString$ = -104					; size = 100
__$ArrayPad$ = -4					; size = 4
?GetToken@@YA?AW4SMDToken@@XZ PROC			; GetToken, COMDAT

; 24   : {

  00000	55		 push	 ebp
  00001	8b ec		 mov	 ebp, esp
  00003	83 ec 68	 sub	 esp, 104		; 00000068H
  00006	a1 00 00 00 00	 mov	 eax, DWORD PTR ___security_cookie
  0000b	33 c5		 xor	 eax, ebp
  0000d	89 45 fc	 mov	 DWORD PTR __$ArrayPad$[ebp], eax

; 25   : 	char ch;
; 26   : 	char* p;
; 27   : 	char TempString[100];
; 28   : 
; 29   : 	TokenString[0]=0;

  00010	c6 05 00 00 00
	00 00		 mov	 BYTE PTR _TokenString, 0
  00017	53		 push	 ebx
  00018	eb 06 8d 9b 00
	00 00 00	 npad	 8
$LL31@GetToken:

; 30   : 
; 31   : 	do
; 32   : 	{
; 33   : 		if ((ch=fgetc(SMDFile)) == -1)

  00020	a1 00 00 00 00	 mov	 eax, DWORD PTR _SMDFile
  00025	50		 push	 eax
  00026	e8 00 00 00 00	 call	 _fgetc
  0002b	8a d8		 mov	 bl, al
  0002d	83 c4 04	 add	 esp, 4
  00030	80 fb ff	 cmp	 bl, -1
  00033	74 64		 je	 SHORT $LN39@GetToken

; 36   : 		}
; 37   : 		else
; 38   : 		{	
; 39   : 			if (ch=='/')		// this is /

  00035	80 fb 2f	 cmp	 bl, 47			; 0000002fH
  00038	75 31		 jne	 SHORT $LN30@GetToken

; 40   : 			{
; 41   : 				if((ch=fgetc(SMDFile)) == '/')

  0003a	8b 0d 00 00 00
	00		 mov	 ecx, DWORD PTR _SMDFile
  00040	51		 push	 ecx
  00041	e8 00 00 00 00	 call	 _fgetc
  00046	8a d8		 mov	 bl, al
  00048	83 c4 04	 add	 esp, 4
  0004b	80 fb 2f	 cmp	 bl, 47			; 0000002fH
  0004e	75 1b		 jne	 SHORT $LN30@GetToken
$LL24@GetToken:

; 42   : 				{
; 43   : 					while ((ch != '\n') && (ch != -1))	// End of Line (EOL)

  00050	80 fb ff	 cmp	 bl, -1
  00053	74 44		 je	 SHORT $LN39@GetToken

; 44   : 					{
; 45   : 						ch=fgetc(SMDFile);

  00055	8b 15 00 00 00
	00		 mov	 edx, DWORD PTR _SMDFile
  0005b	52		 push	 edx
  0005c	e8 00 00 00 00	 call	 _fgetc
  00061	8a d8		 mov	 bl, al
  00063	83 c4 04	 add	 esp, 4
  00066	80 fb 0a	 cmp	 bl, 10			; 0000000aH
  00069	75 e5		 jne	 SHORT $LL24@GetToken
$LN30@GetToken:

; 46   : 					}
; 47   : 	
; 48   : 					if (ch == -1)
; 49   : 					{
; 50   : 						return END;	// End of FILE
; 51   : 					}
; 52   : 				}
; 53   : 			}
; 54   : 		}
; 55   : 	}
; 56   : 	while (isspace(ch) != 0);

  0006b	0f be c3	 movsx	 eax, bl
  0006e	50		 push	 eax
  0006f	e8 00 00 00 00	 call	 _isspace
  00074	83 c4 04	 add	 esp, 4
  00077	85 c0		 test	 eax, eax
  00079	75 a5		 jne	 SHORT $LL31@GetToken

; 57   : 
; 58   : 	
; 59   : 	switch(ch)

  0007b	0f be c3	 movsx	 eax, bl
  0007e	8d 48 de	 lea	 ecx, DWORD PTR [eax-34]
  00081	56		 push	 esi
  00082	83 f9 5b	 cmp	 ecx, 91			; 0000005bH
  00085	0f 87 2b 01 00
	00		 ja	 $LN6@GetToken
  0008b	0f b6 89 00 00
	00 00		 movzx	 ecx, BYTE PTR $LN46@GetToken[ecx]
  00092	ff 24 8d 00 00
	00 00		 jmp	 DWORD PTR $LN50@GetToken[ecx*4]
$LN39@GetToken:

; 34   : 		{
; 35   : 			return END;	// End of FILE (EOF)

  00099	b8 02 00 00 00	 mov	 eax, 2
  0009e	5b		 pop	 ebx

; 147  : 		}
; 148  : 		break;
; 149  : 
; 150  : 	}
; 151  : 
; 152  : 	return NAME;
; 153  : }

  0009f	8b 4d fc	 mov	 ecx, DWORD PTR __$ArrayPad$[ebp]
  000a2	33 cd		 xor	 ecx, ebp
  000a4	e8 00 00 00 00	 call	 @__security_check_cookie@4
  000a9	8b e5		 mov	 esp, ebp
  000ab	5d		 pop	 ebp
  000ac	c3		 ret	 0
$LN19@GetToken:

; 60   : 	{
; 61   : 
; 62   : 	case 0x23:	// #
; 63   : 		return CurrentToken=COMMAND;

  000ad	b8 23 00 00 00	 mov	 eax, 35			; 00000023H
  000b2	e9 99 01 00 00	 jmp	 $LN48@GetToken
$LN18@GetToken:

; 64   : 		break;
; 65   : 	
; 66   : 	case 0x3B:	// ;
; 67   : 		return CurrentToken=SEMICOLON;

  000b7	b8 3b 00 00 00	 mov	 eax, 59			; 0000003bH
  000bc	e9 8f 01 00 00	 jmp	 $LN48@GetToken
$LN17@GetToken:

; 68   : 		break;
; 69   : 	
; 70   : 	case 0x2C:	// ,
; 71   : 
; 72   : 		return CurrentToken=COMMA;

  000c1	b8 2c 00 00 00	 mov	 eax, 44			; 0000002cH
  000c6	e9 85 01 00 00	 jmp	 $LN48@GetToken
$LN16@GetToken:

; 73   : 		break;
; 74   : 	
; 75   : 	case 0x7B:	// {
; 76   : 		return CurrentToken = LP;

  000cb	b8 7b 00 00 00	 mov	 eax, 123		; 0000007bH
  000d0	e9 7b 01 00 00	 jmp	 $LN48@GetToken
$LN15@GetToken:

; 77   : 		break;
; 78   : 
; 79   : 	case 0x7D:	// }
; 80   : 		return CurrentToken = RP;

  000d5	b8 7d 00 00 00	 mov	 eax, 125		; 0000007dH
  000da	e9 71 01 00 00	 jmp	 $LN48@GetToken
$LN14@GetToken:

; 81   : 		break;
; 82   : 	// Nice Index Table :)	by Deathway
; 83   : 	// Numbers Case
; 84   : 	case 0x2D:	//-
; 85   : 	case 0x2E:	//.
; 86   : 	case '0':	//0
; 87   : 	case '1':	//1
; 88   : 	case '2':	//2
; 89   : 	case '3':	//3
; 90   : 	case '4':	//4		
; 91   : 	case '5':	//5
; 92   : 	case '6':	//6
; 93   : 	case '7':	//7
; 94   : 	case '8':	//8
; 95   : 	case '9':	//9
; 96   : 		ungetc(ch, SMDFile);

  000df	8b 15 00 00 00
	00		 mov	 edx, DWORD PTR _SMDFile
  000e5	52		 push	 edx
  000e6	50		 push	 eax
  000e7	e8 00 00 00 00	 call	 _ungetc

; 97   : 		p = TempString;
; 98   : 		
; 99   : 		while (((ch=getc(SMDFile)) != -1) && ((ch == 0x2E) || (isdigit(ch) != 0) || (ch == 0x2D)))  // 2e '.'  2D '-'

  000ec	a1 00 00 00 00	 mov	 eax, DWORD PTR _SMDFile
  000f1	50		 push	 eax
  000f2	8d 75 98	 lea	 esi, DWORD PTR _TempString$[ebp]
  000f5	e8 00 00 00 00	 call	 _getc
  000fa	8a d8		 mov	 bl, al
  000fc	83 c4 0c	 add	 esp, 12			; 0000000cH
  000ff	80 fb ff	 cmp	 bl, -1
  00102	74 33		 je	 SHORT $LN12@GetToken
$LL13@GetToken:
  00104	80 fb 2e	 cmp	 bl, 46			; 0000002eH
  00107	74 15		 je	 SHORT $LN11@GetToken
  00109	0f be cb	 movsx	 ecx, bl
  0010c	51		 push	 ecx
  0010d	e8 00 00 00 00	 call	 _isdigit
  00112	83 c4 04	 add	 esp, 4
  00115	85 c0		 test	 eax, eax
  00117	75 05		 jne	 SHORT $LN11@GetToken
  00119	80 fb 2d	 cmp	 bl, 45			; 0000002dH
  0011c	75 19		 jne	 SHORT $LN12@GetToken
$LN11@GetToken:
  0011e	8b 15 00 00 00
	00		 mov	 edx, DWORD PTR _SMDFile

; 100  : 		{
; 101  : 			*p = ch;	// Construct a String

  00124	88 1e		 mov	 BYTE PTR [esi], bl
  00126	52		 push	 edx

; 102  : 			p++;

  00127	46		 inc	 esi
  00128	e8 00 00 00 00	 call	 _getc
  0012d	8a d8		 mov	 bl, al
  0012f	83 c4 04	 add	 esp, 4
  00132	80 fb ff	 cmp	 bl, -1
  00135	75 cd		 jne	 SHORT $LL13@GetToken
$LN12@GetToken:

; 103  : 		}		
; 104  : 		*p = 0;
; 105  : 		TokenNumber = atof( TempString);	// Select the first Byte as Main ID

  00137	8d 45 98	 lea	 eax, DWORD PTR _TempString$[ebp]
  0013a	50		 push	 eax
  0013b	c6 06 00	 mov	 BYTE PTR [esi], 0
  0013e	e8 00 00 00 00	 call	 _atof
  00143	d9 1d 00 00 00
	00		 fstp	 DWORD PTR _TokenNumber
  00149	83 c4 04	 add	 esp, 4
  0014c	5e		 pop	 esi

; 106  : 		return CurrentToken  = NUMBER ;

  0014d	c7 05 00 00 00
	00 01 00 00 00	 mov	 DWORD PTR _CurrentToken, 1
  00157	b8 01 00 00 00	 mov	 eax, 1
  0015c	5b		 pop	 ebx

; 147  : 		}
; 148  : 		break;
; 149  : 
; 150  : 	}
; 151  : 
; 152  : 	return NAME;
; 153  : }

  0015d	8b 4d fc	 mov	 ecx, DWORD PTR __$ArrayPad$[ebp]
  00160	33 cd		 xor	 ecx, ebp
  00162	e8 00 00 00 00	 call	 @__security_check_cookie@4
  00167	8b e5		 mov	 esp, ebp
  00169	5d		 pop	 ebp
  0016a	c3		 ret	 0
$LN10@GetToken:

; 107  : 		break;
; 108  : 
; 109  : 	case '\"':	// "	String Case
; 110  : 		p=&TokenString[0];
; 111  : 		
; 112  : 		while (((ch=getc(SMDFile)) != -1 ) && (ch != 0x22))	// nice

  0016b	8b 0d 00 00 00
	00		 mov	 ecx, DWORD PTR _SMDFile
  00171	51		 push	 ecx
  00172	be 00 00 00 00	 mov	 esi, OFFSET _TokenString
  00177	e8 00 00 00 00	 call	 _getc
  0017c	83 c4 04	 add	 esp, 4
  0017f	3c ff		 cmp	 al, -1
  00181	74 1e		 je	 SHORT $LN8@GetToken
$LL9@GetToken:
  00183	3c 22		 cmp	 al, 34			; 00000022H
  00185	0f 84 a1 00 00
	00		 je	 $LN7@GetToken
  0018b	8b 15 00 00 00
	00		 mov	 edx, DWORD PTR _SMDFile

; 113  : 		{
; 114  : 			*p = ch;

  00191	88 06		 mov	 BYTE PTR [esi], al
  00193	52		 push	 edx

; 115  : 			p++;

  00194	46		 inc	 esi
  00195	e8 00 00 00 00	 call	 _getc
  0019a	83 c4 04	 add	 esp, 4
  0019d	3c ff		 cmp	 al, -1
  0019f	75 e2		 jne	 SHORT $LL9@GetToken
$LN8@GetToken:

; 116  : 		}
; 117  : 		if (ch != 0x22 )

  001a1	3c 22		 cmp	 al, 34			; 00000022H
  001a3	0f 84 83 00 00
	00		 je	 $LN7@GetToken

; 118  : 		{
; 119  : 			ungetc(ch, SMDFile);

  001a9	8b 0d 00 00 00
	00		 mov	 ecx, DWORD PTR _SMDFile
  001af	0f be d0	 movsx	 edx, al
  001b2	51		 push	 ecx
  001b3	52		 push	 edx

; 120  : 		}
; 121  : 		*p = 0;
; 122  : 		return CurrentToken = NAME;

  001b4	eb 6e		 jmp	 SHORT $LN49@GetToken
$LN6@GetToken:

; 123  : 		break;
; 124  : 
; 125  : 	default:	// Others
; 126  : 		if (isalpha(ch))

  001b6	50		 push	 eax
  001b7	e8 00 00 00 00	 call	 _isalpha
  001bc	83 c4 04	 add	 esp, 4
  001bf	85 c0		 test	 eax, eax
  001c1	0f 84 84 00 00
	00		 je	 $LN5@GetToken

; 127  : 		{
; 128  : 			p=&TokenString[0];
; 129  : 			*p=ch;
; 130  : 			p++;
; 131  : 
; 132  : 			while ( ((ch=getc(SMDFile)) != -1) && ( (ch == 0x2E) || (ch == 0x5F) || (isalnum(ch) != 0) ) )

  001c7	a1 00 00 00 00	 mov	 eax, DWORD PTR _SMDFile
  001cc	50		 push	 eax
  001cd	88 1d 00 00 00
	00		 mov	 BYTE PTR _TokenString, bl
  001d3	be 01 00 00 00	 mov	 esi, OFFSET _TokenString+1
  001d8	e8 00 00 00 00	 call	 _getc
  001dd	8a d8		 mov	 bl, al
  001df	83 c4 04	 add	 esp, 4
  001e2	80 fb ff	 cmp	 bl, -1
  001e5	74 33		 je	 SHORT $LN3@GetToken
$LL4@GetToken:
  001e7	80 fb 2e	 cmp	 bl, 46			; 0000002eH
  001ea	74 15		 je	 SHORT $LN2@GetToken
  001ec	80 fb 5f	 cmp	 bl, 95			; 0000005fH
  001ef	74 10		 je	 SHORT $LN2@GetToken
  001f1	0f be cb	 movsx	 ecx, bl
  001f4	51		 push	 ecx
  001f5	e8 00 00 00 00	 call	 _isalnum
  001fa	83 c4 04	 add	 esp, 4
  001fd	85 c0		 test	 eax, eax
  001ff	74 19		 je	 SHORT $LN3@GetToken
$LN2@GetToken:
  00201	8b 15 00 00 00
	00		 mov	 edx, DWORD PTR _SMDFile

; 133  : 			{
; 134  : 				*p=ch;

  00207	88 1e		 mov	 BYTE PTR [esi], bl
  00209	52		 push	 edx

; 135  : 				p++;

  0020a	46		 inc	 esi
  0020b	e8 00 00 00 00	 call	 _getc
  00210	8a d8		 mov	 bl, al
  00212	83 c4 04	 add	 esp, 4
  00215	80 fb ff	 cmp	 bl, -1
  00218	75 cd		 jne	 SHORT $LL4@GetToken
$LN3@GetToken:

; 136  : 				
; 137  : 			}
; 138  : 
; 139  : 			ungetc(ch, SMDFile);

  0021a	a1 00 00 00 00	 mov	 eax, DWORD PTR _SMDFile
  0021f	0f be cb	 movsx	 ecx, bl
  00222	50		 push	 eax
  00223	51		 push	 ecx
$LN49@GetToken:
  00224	e8 00 00 00 00	 call	 _ungetc
  00229	83 c4 08	 add	 esp, 8
$LN7@GetToken:

; 140  : 			*p=0;

  0022c	c6 06 00	 mov	 BYTE PTR [esi], 0
  0022f	5e		 pop	 esi

; 141  : 			CurrentToken=NAME;

  00230	c7 05 00 00 00
	00 00 00 00 00	 mov	 DWORD PTR _CurrentToken, 0

; 142  : 			return CurrentToken;

  0023a	33 c0		 xor	 eax, eax
  0023c	5b		 pop	 ebx

; 147  : 		}
; 148  : 		break;
; 149  : 
; 150  : 	}
; 151  : 
; 152  : 	return NAME;
; 153  : }

  0023d	8b 4d fc	 mov	 ecx, DWORD PTR __$ArrayPad$[ebp]
  00240	33 cd		 xor	 ecx, ebp
  00242	e8 00 00 00 00	 call	 @__security_check_cookie@4
  00247	8b e5		 mov	 esp, ebp
  00249	5d		 pop	 ebp
  0024a	c3		 ret	 0
$LN5@GetToken:

; 143  : 		}
; 144  : 		else
; 145  : 		{
; 146  : 			return CurrentToken = SMD_ERROR; // '<'

  0024b	b8 3c 00 00 00	 mov	 eax, 60			; 0000003cH
$LN48@GetToken:

; 147  : 		}
; 148  : 		break;
; 149  : 
; 150  : 	}
; 151  : 
; 152  : 	return NAME;
; 153  : }

  00250	8b 4d fc	 mov	 ecx, DWORD PTR __$ArrayPad$[ebp]
  00253	5e		 pop	 esi
  00254	33 cd		 xor	 ecx, ebp
  00256	a3 00 00 00 00	 mov	 DWORD PTR _CurrentToken, eax
  0025b	5b		 pop	 ebx
  0025c	e8 00 00 00 00	 call	 @__security_check_cookie@4
  00261	8b e5		 mov	 esp, ebp
  00263	5d		 pop	 ebp
  00264	c3		 ret	 0
  00265	8d 49 00	 npad	 3
$LN50@GetToken:
  00268	00 00 00 00	 DD	 $LN10@GetToken
  0026c	00 00 00 00	 DD	 $LN19@GetToken
  00270	00 00 00 00	 DD	 $LN17@GetToken
  00274	00 00 00 00	 DD	 $LN14@GetToken
  00278	00 00 00 00	 DD	 $LN18@GetToken
  0027c	00 00 00 00	 DD	 $LN16@GetToken
  00280	00 00 00 00	 DD	 $LN15@GetToken
  00284	00 00 00 00	 DD	 $LN6@GetToken
$LN46@GetToken:
  00288	00		 DB	 0
  00289	01		 DB	 1
  0028a	07		 DB	 7
  0028b	07		 DB	 7
  0028c	07		 DB	 7
  0028d	07		 DB	 7
  0028e	07		 DB	 7
  0028f	07		 DB	 7
  00290	07		 DB	 7
  00291	07		 DB	 7
  00292	02		 DB	 2
  00293	03		 DB	 3
  00294	03		 DB	 3
  00295	07		 DB	 7
  00296	03		 DB	 3
  00297	03		 DB	 3
  00298	03		 DB	 3
  00299	03		 DB	 3
  0029a	03		 DB	 3
  0029b	03		 DB	 3
  0029c	03		 DB	 3
  0029d	03		 DB	 3
  0029e	03		 DB	 3
  0029f	03		 DB	 3
  002a0	07		 DB	 7
  002a1	04		 DB	 4
  002a2	07		 DB	 7
  002a3	07		 DB	 7
  002a4	07		 DB	 7
  002a5	07		 DB	 7
  002a6	07		 DB	 7
  002a7	07		 DB	 7
  002a8	07		 DB	 7
  002a9	07		 DB	 7
  002aa	07		 DB	 7
  002ab	07		 DB	 7
  002ac	07		 DB	 7
  002ad	07		 DB	 7
  002ae	07		 DB	 7
  002af	07		 DB	 7
  002b0	07		 DB	 7
  002b1	07		 DB	 7
  002b2	07		 DB	 7
  002b3	07		 DB	 7
  002b4	07		 DB	 7
  002b5	07		 DB	 7
  002b6	07		 DB	 7
  002b7	07		 DB	 7
  002b8	07		 DB	 7
  002b9	07		 DB	 7
  002ba	07		 DB	 7
  002bb	07		 DB	 7
  002bc	07		 DB	 7
  002bd	07		 DB	 7
  002be	07		 DB	 7
  002bf	07		 DB	 7
  002c0	07		 DB	 7
  002c1	07		 DB	 7
  002c2	07		 DB	 7
  002c3	07		 DB	 7
  002c4	07		 DB	 7
  002c5	07		 DB	 7
  002c6	07		 DB	 7
  002c7	07		 DB	 7
  002c8	07		 DB	 7
  002c9	07		 DB	 7
  002ca	07		 DB	 7
  002cb	07		 DB	 7
  002cc	07		 DB	 7
  002cd	07		 DB	 7
  002ce	07		 DB	 7
  002cf	07		 DB	 7
  002d0	07		 DB	 7
  002d1	07		 DB	 7
  002d2	07		 DB	 7
  002d3	07		 DB	 7
  002d4	07		 DB	 7
  002d5	07		 DB	 7
  002d6	07		 DB	 7
  002d7	07		 DB	 7
  002d8	07		 DB	 7
  002d9	07		 DB	 7
  002da	07		 DB	 7
  002db	07		 DB	 7
  002dc	07		 DB	 7
  002dd	07		 DB	 7
  002de	07		 DB	 7
  002df	07		 DB	 7
  002e0	07		 DB	 7
  002e1	05		 DB	 5
  002e2	07		 DB	 7
  002e3	06		 DB	 6
?GetToken@@YA?AW4SMDToken@@XZ ENDP			; GetToken
_TEXT	ENDS
PUBLIC	__real@bf800000
PUBLIC	__real@00000000
PUBLIC	?Clear@CItem@@QAEXXZ				; CItem::Clear
;	COMDAT __real@bf800000
; File c:\users\faelhs\mu-1.1\emu - gameserver sapphire s0\gameserver\zzzitem.cpp
CONST	SEGMENT
__real@bf800000 DD 0bf800000r			; -1
CONST	ENDS
;	COMDAT __real@00000000
CONST	SEGMENT
__real@00000000 DD 000000000r			; 0
; Function compile flags: /Ogtp
CONST	ENDS
;	COMDAT ?Clear@CItem@@QAEXXZ
_TEXT	SEGMENT
?Clear@CItem@@QAEXXZ PROC				; CItem::Clear, COMDAT
; _this$ = ecx

; 22   : 	this->m_Type =-1;
; 23   : 	this->m_Level =0;
; 24   : 	this->m_Part=0;
; 25   : 	this->m_Class=0;
; 26   : 	this->m_TwoHand=0;
; 27   : 	this->m_AttackSpeed=0;
; 28   : 	this->m_DamageMin=0;
; 29   : 	this->m_DamageMax=0;
; 30   : 	this->m_SuccessfulBlocking=0;
; 31   : 	this->m_Defense=0;
; 32   : 	this->m_MagicDefense =0;
; 33   : 	this->m_Durability=0;

  00000	d9 ee		 fldz
  00002	33 d2		 xor	 edx, edx
  00004	d9 59 24	 fstp	 DWORD PTR [ecx+36]
  00007	89 51 08	 mov	 DWORD PTR [ecx+8], edx

; 34   : 	this->m_SpecialNum=0;
; 35   : 	this->m_Value=0;
; 36   : 	this->m_Option1 =0;
; 37   : 	this->m_Option2 =0;
; 38   : 	this->m_Option3 =0;
; 39   : 	this->m_NewOption =0;
; 40   : 	this->m_Number =0;
; 41   : 	this->m_DurabilitySmall =0;
; 42   : 	this->m_iPShopValue=-1;
; 43   : 	this->m_bItemExist=true;
; 44   : 	this->m_CurrentDurabilityState=-1;

  0000a	d9 05 00 00 00
	00		 fld	 DWORD PTR __real@bf800000
  00010	66 89 51 10	 mov	 WORD PTR [ecx+16], dx
  00014	66 89 51 12	 mov	 WORD PTR [ecx+18], dx
  00018	d9 99 8c 00 00
	00		 fstp	 DWORD PTR [ecx+140]
  0001e	66 89 51 16	 mov	 WORD PTR [ecx+22], dx
  00022	66 89 51 18	 mov	 WORD PTR [ecx+24], dx
  00026	66 89 51 28	 mov	 WORD PTR [ecx+40], dx
  0002a	83 c8 ff	 or	 eax, -1
  0002d	66 89 41 06	 mov	 WORD PTR [ecx+6], ax
  00031	33 c0		 xor	 eax, eax
  00033	66 89 41 0c	 mov	 WORD PTR [ecx+12], ax
  00037	88 41 14	 mov	 BYTE PTR [ecx+20], al
  0003a	88 41 30	 mov	 BYTE PTR [ecx+48], al
  0003d	89 41 5c	 mov	 DWORD PTR [ecx+92], eax
  00040	89 41 78	 mov	 DWORD PTR [ecx+120], eax
  00043	89 01		 mov	 DWORD PTR [ecx], eax
  00045	c7 41 68 ff ff
	ff ff		 mov	 DWORD PTR [ecx+104], -1

; 45   : 	this->m_SetOption=0;

  0004c	66 89 81 91 00
	00 00		 mov	 WORD PTR [ecx+145], ax
  00053	ba 01 00 00 00	 mov	 edx, 1
  00058	88 51 6c	 mov	 BYTE PTR [ecx+108], dl

; 46   : 	this->m_QuestItem=false;
; 47   : 
; 48   : 	memset(this->m_Special, 0, sizeof(this->m_Special));

  0005b	89 41 31	 mov	 DWORD PTR [ecx+49], eax
  0005e	89 41 35	 mov	 DWORD PTR [ecx+53], eax

; 49   : 	memset(this->m_SpecialValue, 0, sizeof(this->m_SpecialValue));

  00061	89 41 39	 mov	 DWORD PTR [ecx+57], eax
  00064	89 41 3d	 mov	 DWORD PTR [ecx+61], eax

; 50   : 	memset(this->m_Resistance, 0, sizeof(this->m_Resistance));

  00067	89 41 55	 mov	 DWORD PTR [ecx+85], eax
  0006a	66 89 41 59	 mov	 WORD PTR [ecx+89], ax
  0006e	88 41 5b	 mov	 BYTE PTR [ecx+91], al

; 51   : 
; 52   : 	this->m_IsLoadPetItemInfo=0;

  00071	89 81 9c 00 00
	00		 mov	 DWORD PTR [ecx+156], eax

; 53   : 	this->m_PetItem_Level =1;

  00077	89 91 a0 00 00
	00		 mov	 DWORD PTR [ecx+160], edx

; 54   : 	this->m_PetItem_Exp =0;

  0007d	89 81 a4 00 00
	00		 mov	 DWORD PTR [ecx+164], eax

; 55   : 	this->m_Leadership=0;

  00083	66 89 41 4e	 mov	 WORD PTR [ecx+78], ax

; 56   : }

  00087	c3		 ret	 0
?Clear@CItem@@QAEXXZ ENDP				; CItem::Clear
_TEXT	ENDS
PUBLIC	?IsItem@CItem@@QAEHXZ				; CItem::IsItem
; Function compile flags: /Ogtp
;	COMDAT ?IsItem@CItem@@QAEHXZ
_TEXT	SEGMENT
?IsItem@CItem@@QAEHXZ PROC				; CItem::IsItem, COMDAT
; _this$ = ecx

; 60   : 	if (this->m_Type < 0)

  00000	33 c0		 xor	 eax, eax
  00002	66 39 41 06	 cmp	 WORD PTR [ecx+6], ax
  00006	0f 9d c0	 setge	 al

; 61   : 	{
; 62   : 		return 0;
; 63   : 	}
; 64   : 	else
; 65   : 	{
; 66   : 		return 1;
; 67   : 	}
; 68   : }

  00009	c3		 ret	 0
?IsItem@CItem@@QAEHXZ ENDP				; CItem::IsItem
_TEXT	ENDS
PUBLIC	?IsSetItem@CItem@@QAEHXZ			; CItem::IsSetItem
; Function compile flags: /Ogtp
;	COMDAT ?IsSetItem@CItem@@QAEHXZ
_TEXT	SEGMENT
?IsSetItem@CItem@@QAEHXZ PROC				; CItem::IsSetItem, COMDAT
; _this$ = ecx

; 72   : 	if (this->m_Type < 0)

  00000	66 83 79 06 00	 cmp	 WORD PTR [ecx+6], 0
  00005	7d 03		 jge	 SHORT $LN2@IsSetItem

; 73   : 	{
; 74   : 		return 0;

  00007	33 c0		 xor	 eax, eax

; 79   : 	}
; 80   : }	

  00009	c3		 ret	 0
$LN2@IsSetItem:

; 75   : 	}
; 76   : 	else
; 77   : 	{
; 78   : 		return this->m_SetOption & 3;	// Limit of the SetItem

  0000a	0f b6 81 92 00
	00 00		 movzx	 eax, BYTE PTR [ecx+146]
  00011	83 e0 03	 and	 eax, 3

; 79   : 	}
; 80   : }	

  00014	c3		 ret	 0
?IsSetItem@CItem@@QAEHXZ ENDP				; CItem::IsSetItem
_TEXT	ENDS
PUBLIC	?GetLevel@CItem@@QAEHXZ				; CItem::GetLevel
; Function compile flags: /Ogtp
;	COMDAT ?GetLevel@CItem@@QAEHXZ
_TEXT	SEGMENT
?GetLevel@CItem@@QAEHXZ PROC				; CItem::GetLevel, COMDAT
; _this$ = ecx

; 1174 : 	return ItemAttribute[this->m_Type].Level;

  00000	0f bf 41 06	 movsx	 eax, WORD PTR [ecx+6]
  00004	6b c0 6c	 imul	 eax, 108		; 0000006cH
  00007	0f b6 80 22 00
	00 00		 movzx	 eax, BYTE PTR ?ItemAttribute@@3PAUITEM_ATTRIBUTE@@A[eax+34]

; 1175 : }

  0000e	c3		 ret	 0
?GetLevel@CItem@@QAEHXZ ENDP				; CItem::GetLevel
_TEXT	ENDS
PUBLIC	?GetNumber@CItem@@QAEKXZ			; CItem::GetNumber
; Function compile flags: /Ogtp
;	COMDAT ?GetNumber@CItem@@QAEKXZ
_TEXT	SEGMENT
?GetNumber@CItem@@QAEKXZ PROC				; CItem::GetNumber, COMDAT
; _this$ = ecx

; 1179 : 	return this->m_Number;

  00000	8b 01		 mov	 eax, DWORD PTR [ecx]

; 1180 : }

  00002	c3		 ret	 0
?GetNumber@CItem@@QAEKXZ ENDP				; CItem::GetNumber
_TEXT	ENDS
PUBLIC	?OldValue@CItem@@QAEXXZ				; CItem::OldValue
; Function compile flags: /Ogtp
;	COMDAT ?OldValue@CItem@@QAEXXZ
_TEXT	SEGMENT
?OldValue@CItem@@QAEXXZ PROC				; CItem::OldValue, COMDAT
; _this$ = ecx

; 1866 : 	if ( this->m_Type == -1 )

  00000	0f b7 41 06	 movzx	 eax, WORD PTR [ecx+6]
  00004	66 83 f8 ff	 cmp	 ax, -1
  00008	0f 84 94 00 00
	00		 je	 $LN1@OldValue

; 1867 : 	{
; 1868 : 		return;
; 1869 : 	}
; 1870 : 
; 1871 : 	int Gold = 0;
; 1872 : 
; 1873 : 	if ( this->m_Type == ITEMGET(14,13) ) // Bless

  0000e	ba 0d 1c 00 00	 mov	 edx, 7181		; 00001c0dH
  00013	66 3b c2	 cmp	 ax, dx
  00016	75 07		 jne	 SHORT $LN13@OldValue

; 1874 : 	{
; 1875 : 		Gold = 100000;

  00018	ba a0 86 01 00	 mov	 edx, 100000		; 000186a0H
  0001d	eb 3b		 jmp	 SHORT $LN4@OldValue
$LN13@OldValue:

; 1876 : 	}
; 1877 : 	else if ( this->m_Type == ITEMGET(14,14) ) // Soul

  0001f	ba 0e 1c 00 00	 mov	 edx, 7182		; 00001c0eH
  00024	66 3b c2	 cmp	 ax, dx
  00027	75 07		 jne	 SHORT $LN11@OldValue

; 1878 : 	{
; 1879 : 		Gold = 70000;

  00029	ba 70 11 01 00	 mov	 edx, 70000		; 00011170H
  0002e	eb 2a		 jmp	 SHORT $LN4@OldValue
$LN11@OldValue:

; 1880 : 	}
; 1881 : 	else if ( this->m_Type == ITEMGET(12,15) ) // Chaos

  00030	ba 0f 18 00 00	 mov	 edx, 6159		; 0000180fH
  00035	66 3b c2	 cmp	 ax, dx
  00038	75 07		 jne	 SHORT $LN9@OldValue

; 1882 : 	{
; 1883 : 		Gold = 40000;

  0003a	ba 40 9c 00 00	 mov	 edx, 40000		; 00009c40H
  0003f	eb 19		 jmp	 SHORT $LN4@OldValue
$LN9@OldValue:

; 1884 : 	}
; 1885 : 	else if ( this->m_Type == ITEMGET(14,22) ) // Creation

  00041	ba 16 1c 00 00	 mov	 edx, 7190		; 00001c16H
  00046	66 3b c2	 cmp	 ax, dx

; 1886 : 	{
; 1887 : 		Gold = 450000;

  00049	74 0a		 je	 SHORT $LN17@OldValue

; 1888 : 	}
; 1889 : 	else if ( this->m_Type == ITEMGET(14,16) ) // Life

  0004b	ba 10 1c 00 00	 mov	 edx, 7184		; 00001c10H
  00050	66 3b c2	 cmp	 ax, dx
  00053	75 47		 jne	 SHORT $LN5@OldValue
$LN17@OldValue:

; 1890 : 	{
; 1891 : 		Gold = 450000;

  00055	ba d0 dd 06 00	 mov	 edx, 450000		; 0006ddd0H
$LN4@OldValue:

; 1896 : 		return;
; 1897 : 	}
; 1898 : 
; 1899 : 	this->m_OldBuyMoney = Gold;

  0005a	89 51 74	 mov	 DWORD PTR [ecx+116], edx

; 1900 : 
; 1901 : 	if ( this->m_OldBuyMoney >= 1000 )

  0005d	81 fa e8 03 00
	00		 cmp	 edx, 1000		; 000003e8H
  00063	7c 18		 jl	 SHORT $LN3@OldValue

; 1902 : 	{
; 1903 : 		this->m_OldBuyMoney = this->m_OldBuyMoney /100*100;

  00065	b8 1f 85 eb 51	 mov	 eax, 1374389535		; 51eb851fH
  0006a	f7 ea		 imul	 edx
  0006c	c1 fa 05	 sar	 edx, 5
  0006f	8b c2		 mov	 eax, edx
  00071	c1 e8 1f	 shr	 eax, 31			; 0000001fH
  00074	03 c2		 add	 eax, edx
  00076	6b c0 64	 imul	 eax, 100		; 00000064H
  00079	89 41 74	 mov	 DWORD PTR [ecx+116], eax

; 1908 : 	}
; 1909 : }

  0007c	c3		 ret	 0
$LN3@OldValue:

; 1904 : 	}
; 1905 : 	else if ( this->m_OldBuyMoney >= 100 )

  0007d	83 fa 64	 cmp	 edx, 100		; 00000064H
  00080	7c 20		 jl	 SHORT $LN1@OldValue

; 1906 : 	{
; 1907 : 		this->m_OldBuyMoney = this->m_OldBuyMoney / 10 * 10;

  00082	b8 67 66 66 66	 mov	 eax, 1717986919		; 66666667H
  00087	f7 ea		 imul	 edx
  00089	c1 fa 02	 sar	 edx, 2
  0008c	8b c2		 mov	 eax, edx
  0008e	c1 e8 1f	 shr	 eax, 31			; 0000001fH
  00091	03 c2		 add	 eax, edx
  00093	8d 14 80	 lea	 edx, DWORD PTR [eax+eax*4]
  00096	03 d2		 add	 edx, edx
  00098	89 51 74	 mov	 DWORD PTR [ecx+116], edx

; 1908 : 	}
; 1909 : }

  0009b	c3		 ret	 0
$LN5@OldValue:

; 1892 : 	}
; 1893 : 	else
; 1894 : 	{
; 1895 : 		this->m_OldBuyMoney = this->m_BuyMoney;

  0009c	8b 41 64	 mov	 eax, DWORD PTR [ecx+100]
  0009f	89 41 74	 mov	 DWORD PTR [ecx+116], eax
$LN1@OldValue:

; 1908 : 	}
; 1909 : }

  000a2	c3		 ret	 0
?OldValue@CItem@@QAEXXZ ENDP				; CItem::OldValue
_TEXT	ENDS
PUBLIC	?GetSize@CItem@@QAEHAAH0@Z			; CItem::GetSize
; Function compile flags: /Ogtp
;	COMDAT ?GetSize@CItem@@QAEHAAH0@Z
_TEXT	SEGMENT
_w$ = 8							; size = 4
_h$ = 12						; size = 4
?GetSize@CItem@@QAEHAAH0@Z PROC				; CItem::GetSize, COMDAT
; _this$ = ecx

; 1912 : {

  00000	55		 push	 ebp
  00001	8b ec		 mov	 ebp, esp

; 1913 : 	w=ItemAttribute[this->m_Type].Width  ;

  00003	0f bf 41 06	 movsx	 eax, WORD PTR [ecx+6]
  00007	6b c0 6c	 imul	 eax, 108		; 0000006cH
  0000a	0f b6 90 23 00
	00 00		 movzx	 edx, BYTE PTR ?ItemAttribute@@3PAUITEM_ATTRIBUTE@@A[eax+35]
  00011	8b 45 08	 mov	 eax, DWORD PTR _w$[ebp]
  00014	89 10		 mov	 DWORD PTR [eax], edx

; 1914 : 	h=ItemAttribute[this->m_Type].Height  ;

  00016	0f bf 49 06	 movsx	 ecx, WORD PTR [ecx+6]
  0001a	8b 45 0c	 mov	 eax, DWORD PTR _h$[ebp]
  0001d	6b c9 6c	 imul	 ecx, 108		; 0000006cH
  00020	0f b6 91 24 00
	00 00		 movzx	 edx, BYTE PTR ?ItemAttribute@@3PAUITEM_ATTRIBUTE@@A[ecx+36]
  00027	89 10		 mov	 DWORD PTR [eax], edx

; 1915 : 
; 1916 : 	return 1;

  00029	b8 01 00 00 00	 mov	 eax, 1

; 1917 : }

  0002e	5d		 pop	 ebp
  0002f	c2 08 00	 ret	 8
?GetSize@CItem@@QAEHAAH0@Z ENDP				; CItem::GetSize
_TEXT	ENDS
PUBLIC	??_C@_0BJ@IGGPIOPD@?E?$KM?$LH?$KB?$LN?$LK?5?$LP?$KB?$LH?$KP?5?3?5?$CFd?5?$CI?$CFs?5?$CFd?$CJ?$AA@ ; `string'
PUBLIC	??_C@_0M@COCDEAFO@zzzitem?4cpp?$AA@		; `string'
PUBLIC	?IsClass@CItem@@QAEHDH@Z			; CItem::IsClass
EXTRN	?LogAdd@@YAXW4eLogColor@@PADZZ:PROC		; LogAdd
;	COMDAT ??_C@_0BJ@IGGPIOPD@?E?$KM?$LH?$KB?$LN?$LK?5?$LP?$KB?$LH?$KP?5?3?5?$CFd?5?$CI?$CFs?5?$CFd?$CJ?$AA@
CONST	SEGMENT
??_C@_0BJ@IGGPIOPD@?E?$KM?$LH?$KB?$LN?$LK?5?$LP?$KB?$LH?$KP?5?3?5?$CFd?5?$CI?$CFs?5?$CFd?$CJ?$AA@ DB 0c5H
	DB	0acH, 0b7H, 0a1H, 0bdH, 0baH, ' ', 0bfH, 0a1H, 0b7H, 0afH, ' :'
	DB	' %d (%s %d)', 00H				; `string'
CONST	ENDS
;	COMDAT ??_C@_0M@COCDEAFO@zzzitem?4cpp?$AA@
CONST	SEGMENT
??_C@_0M@COCDEAFO@zzzitem?4cpp?$AA@ DB 'zzzitem.cpp', 00H ; `string'
; Function compile flags: /Ogtp
CONST	ENDS
;	COMDAT ?IsClass@CItem@@QAEHDH@Z
_TEXT	SEGMENT
_aClass$ = 8						; size = 1
_ChangeUP$ = 12						; size = 4
?IsClass@CItem@@QAEHDH@Z PROC				; CItem::IsClass, COMDAT
; _this$ = ecx

; 1964 : {

  00000	55		 push	 ebp
  00001	8b ec		 mov	 ebp, esp

; 1965 : 	if ((aClass < 0) || (aClass >= MAX_TYPE_PLAYER ))

  00003	8a 45 08	 mov	 al, BYTE PTR _aClass$[ebp]
  00006	3c 04		 cmp	 al, 4
  00008	77 22		 ja	 SHORT $LN4@IsClass

; 1969 : 	}
; 1970 : 	
; 1971 : 	int requireclass=this->m_RequireClass[aClass];

  0000a	0f be c0	 movsx	 eax, al
  0000d	0f b6 44 08 50	 movzx	 eax, BYTE PTR [eax+ecx+80]

; 1972 : 	if (requireclass == 0)

  00012	85 c0		 test	 eax, eax

; 1973 : 	{
; 1974 : 		return 0;

  00014	74 33		 je	 SHORT $LN8@IsClass

; 1975 : 	}
; 1976 : 	if (requireclass > 1)

  00016	83 f8 01	 cmp	 eax, 1
  00019	7e 08		 jle	 SHORT $LN1@IsClass

; 1977 : 	{
; 1978 : 		if ( requireclass  != (ChangeUP+1) )

  0001b	8b 4d 0c	 mov	 ecx, DWORD PTR _ChangeUP$[ebp]
  0001e	41		 inc	 ecx
  0001f	3b c1		 cmp	 eax, ecx

; 1979 : 		{
; 1980 : 			return 0;

  00021	75 26		 jne	 SHORT $LN8@IsClass
$LN1@IsClass:

; 1981 : 		}
; 1982 : 	}
; 1983 : 	return 1;

  00023	b8 01 00 00 00	 mov	 eax, 1

; 1984 : }

  00028	5d		 pop	 ebp
  00029	c2 08 00	 ret	 8
$LN4@IsClass:

; 1966 : 	{
; 1967 : 		LogAdd(LOG_BLACK, "클래스 에러 : %d (%s %d)", aClass, __FILE__, __LINE__); // 클래스 에러 : %d (%s %d)

  0002c	68 af 07 00 00	 push	 1967			; 000007afH
  00031	0f be d0	 movsx	 edx, al
  00034	68 00 00 00 00	 push	 OFFSET ??_C@_0M@COCDEAFO@zzzitem?4cpp?$AA@
  00039	52		 push	 edx
  0003a	68 00 00 00 00	 push	 OFFSET ??_C@_0BJ@IGGPIOPD@?E?$KM?$LH?$KB?$LN?$LK?5?$LP?$KB?$LH?$KP?5?3?5?$CFd?5?$CI?$CFs?5?$CFd?$CJ?$AA@
  0003f	6a 00		 push	 0
  00041	e8 00 00 00 00	 call	 ?LogAdd@@YAXW4eLogColor@@PADZZ ; LogAdd
  00046	83 c4 14	 add	 esp, 20			; 00000014H
$LN8@IsClass:

; 1968 : 		return 0;

  00049	33 c0		 xor	 eax, eax

; 1984 : }

  0004b	5d		 pop	 ebp
  0004c	c2 08 00	 ret	 8
?IsClass@CItem@@QAEHDH@Z ENDP				; CItem::IsClass
_TEXT	ENDS
PUBLIC	?GetName@CItem@@QAEPADXZ			; CItem::GetName
; Function compile flags: /Ogtp
;	COMDAT ?GetName@CItem@@QAEPADXZ
_TEXT	SEGMENT
?GetName@CItem@@QAEPADXZ PROC				; CItem::GetName, COMDAT
; _this$ = ecx

; 1988 : 	return &ItemAttribute[this->m_Type].Name[0];

  00000	0f bf 41 06	 movsx	 eax, WORD PTR [ecx+6]
  00004	6b c0 6c	 imul	 eax, 108		; 0000006cH
  00007	05 00 00 00 00	 add	 eax, OFFSET ?ItemAttribute@@3PAUITEM_ATTRIBUTE@@A ; ItemAttribute

; 1989 : }

  0000c	c3		 ret	 0
?GetName@CItem@@QAEPADXZ ENDP				; CItem::GetName
_TEXT	ENDS
PUBLIC	__real@4014000000000000
PUBLIC	?PlusSpecialSetRing@CItem@@QAEXPAE@Z		; CItem::PlusSpecialSetRing
;	COMDAT __real@4014000000000000
CONST	SEGMENT
__real@4014000000000000 DQ 04014000000000000r	; 5
; Function compile flags: /Ogtp
CONST	ENDS
;	COMDAT ?PlusSpecialSetRing@CItem@@QAEXPAE@Z
_TEXT	SEGMENT
tv193 = -4						; size = 4
tv191 = -4						; size = 4
_Value$ = 8						; size = 4
tv196 = 10						; size = 2
?PlusSpecialSetRing@CItem@@QAEXPAE@Z PROC		; CItem::PlusSpecialSetRing, COMDAT
; _this$ = ecx

; 1994 : {

  00000	55		 push	 ebp
  00001	8b ec		 mov	 ebp, esp
  00003	51		 push	 ecx

; 1995 : 	if ( this->m_Type < 0 )

  00004	0f b7 51 06	 movzx	 edx, WORD PTR [ecx+6]
  00008	66 85 d2	 test	 dx, dx
  0000b	78 67		 js	 SHORT $LN6@PlusSpecia

; 1996 : 	{
; 1997 : 		return;
; 1998 : 	}
; 1999 : 
; 2000 : 	if ( this->IsSetItem() == FALSE )

  0000d	e8 00 00 00 00	 call	 ?IsSetItem@CItem@@QAEHXZ ; CItem::IsSetItem
  00012	85 c0		 test	 eax, eax
  00014	74 5e		 je	 SHORT $LN6@PlusSpecia

; 2001 : 	{
; 2002 : 		return;
; 2003 : 	}
; 2004 : 
; 2005 : 	if ( this->m_Durability == 0.0f)

  00016	d9 41 24	 fld	 DWORD PTR [ecx+36]
  00019	d9 ee		 fldz
  0001b	da e9		 fucompp
  0001d	df e0		 fnstsw	 ax
  0001f	f6 c4 44	 test	 ah, 68			; 00000044H
  00022	7b 50		 jnp	 SHORT $LN6@PlusSpecia

; 2006 : 	{
; 2007 : 		return;
; 2008 : 	}
; 2009 : 
; 2010 : 	if ( this->m_IsValidItem == false )

  00024	80 b9 94 00 00
	00 00		 cmp	 BYTE PTR [ecx+148], 0
  0002b	74 47		 je	 SHORT $LN6@PlusSpecia

; 2011 : 	{
; 2012 : 		return;
; 2013 : 	}
; 2014 : 
; 2015 : 	LPITEM_ATTRIBUTE p = &ItemAttribute[this->m_Type];

  0002d	0f bf c2	 movsx	 eax, dx
  00030	6b c0 6c	 imul	 eax, 108		; 0000006cH
  00033	05 00 00 00 00	 add	 eax, OFFSET ?ItemAttribute@@3PAUITEM_ATTRIBUTE@@A ; ItemAttribute

; 2016 : 
; 2017 : 	if ( p->ResistanceType == -1 )

  00038	0f b6 50 5e	 movzx	 edx, BYTE PTR [eax+94]
  0003c	83 fa ff	 cmp	 edx, -1
  0003f	74 33		 je	 SHORT $LN6@PlusSpecia

; 2018 : 	{
; 2019 : 		return;
; 2020 : 	}
; 2021 : 
; 2022 : 	BYTE iValue = 5;
; 2023 : 	Value[p->ResistanceType] += iValue - (BYTE)( iValue * this->m_CurrentDurabilityState);

  00041	d9 81 8c 00 00
	00		 fld	 DWORD PTR [ecx+140]
  00047	56		 push	 esi
  00048	8b 75 08	 mov	 esi, DWORD PTR _Value$[ebp]
  0004b	dc 0d 00 00 00
	00		 fmul	 QWORD PTR __real@4014000000000000
  00051	d9 7d 0a	 fnstcw	 WORD PTR tv196[ebp]
  00054	b1 05		 mov	 cl, 5
  00056	0f b7 45 0a	 movzx	 eax, WORD PTR tv196[ebp]
  0005a	0d 00 0c 00 00	 or	 eax, 3072		; 00000c00H
  0005f	89 45 fc	 mov	 DWORD PTR tv193[ebp], eax
  00062	d9 6d fc	 fldcw	 WORD PTR tv193[ebp]
  00065	db 5d fc	 fistp	 DWORD PTR tv191[ebp]
  00068	8a 45 fc	 mov	 al, BYTE PTR tv191[ebp]
  0006b	2a c8		 sub	 cl, al
  0006d	00 0c 32	 add	 BYTE PTR [edx+esi], cl
  00070	d9 6d 0a	 fldcw	 WORD PTR tv196[ebp]
  00073	5e		 pop	 esi
$LN6@PlusSpecia:

; 2024 : }

  00074	8b e5		 mov	 esp, ebp
  00076	5d		 pop	 ebp
  00077	c2 04 00	 ret	 4
?PlusSpecialSetRing@CItem@@QAEXPAE@Z ENDP		; CItem::PlusSpecialSetRing
_TEXT	ENDS
PUBLIC	?PlusSpecial@CItem@@QAEXPAHH@Z			; CItem::PlusSpecial
EXTRN	__ftol2_sse:PROC
; Function compile flags: /Ogtp
;	COMDAT ?PlusSpecial@CItem@@QAEXPAHH@Z
_TEXT	SEGMENT
_i$154979 = -4						; size = 4
_lc3$154989 = 8						; size = 4
_Value$ = 8						; size = 4
_Special$ = 12						; size = 4
?PlusSpecial@CItem@@QAEXPAHH@Z PROC			; CItem::PlusSpecial, COMDAT
; _this$ = ecx

; 2027 : {

  00000	55		 push	 ebp
  00001	8b ec		 mov	 ebp, esp
  00003	51		 push	 ecx
  00004	57		 push	 edi
  00005	8b f9		 mov	 edi, ecx

; 2028 : 	if ( this->m_Type < 0 )

  00007	66 83 7f 06 00	 cmp	 WORD PTR [edi+6], 0
  0000c	0f 8c bd 00 00
	00		 jl	 $LN11@PlusSpecia@2

; 2029 : 	{
; 2030 : 		return;
; 2031 : 	}
; 2032 : 
; 2033 : 	if ( this->m_Durability == 0.0f)

  00012	d9 47 24	 fld	 DWORD PTR [edi+36]
  00015	d9 ee		 fldz
  00017	da e9		 fucompp
  00019	df e0		 fnstsw	 ax
  0001b	f6 c4 44	 test	 ah, 68			; 00000044H
  0001e	0f 8b ab 00 00
	00		 jnp	 $LN11@PlusSpecia@2

; 2034 : 	{
; 2035 : 		return;
; 2036 : 	}
; 2037 : 
; 2038 : 	if ( this->m_IsValidItem == false )

  00024	80 bf 94 00 00
	00 00		 cmp	 BYTE PTR [edi+148], 0
  0002b	0f 84 9e 00 00
	00		 je	 $LN11@PlusSpecia@2

; 2039 : 	{
; 2040 : 		return;
; 2041 : 	}
; 2042 : 
; 2043 : 	for (int i =0;i<this->m_SpecialNum;i++)

  00031	33 c0		 xor	 eax, eax
  00033	89 45 fc	 mov	 DWORD PTR _i$154979[ebp], eax
  00036	38 47 30	 cmp	 BYTE PTR [edi+48], al
  00039	0f 86 90 00 00
	00		 jbe	 $LN11@PlusSpecia@2
  0003f	53		 push	 ebx
  00040	56		 push	 esi
  00041	8b 75 08	 mov	 esi, DWORD PTR _Value$[ebp]
$LL13@PlusSpecia@2:

; 2044 : 	{
; 2045 : 		if ( this->m_Special[i] == Special )

  00044	0f b6 4c 07 31	 movzx	 ecx, BYTE PTR [edi+eax+49]
  00049	8b 45 0c	 mov	 eax, DWORD PTR _Special$[ebp]
  0004c	3b c8		 cmp	 ecx, eax
  0004e	75 6a		 jne	 SHORT $LN12@PlusSpecia@2

; 2046 : 		{
; 2047 : 			switch ( Special )

  00050	83 c0 b0	 add	 eax, -80		; ffffffb0H
  00053	83 f8 19	 cmp	 eax, 25			; 00000019H
  00056	77 58		 ja	 SHORT $LN1@PlusSpecia@2
  00058	0f b6 90 00 00
	00 00		 movzx	 edx, BYTE PTR $LN21@PlusSpecia@2[eax]
  0005f	ff 24 95 00 00
	00 00		 jmp	 DWORD PTR $LN23@PlusSpecia@2[edx*4]
$LN7@PlusSpecia@2:

; 2048 : 			{
; 2049 : 				case 82:
; 2050 : 					{
; 2051 : 						int lc3 = this->m_Option3*5;

  00066	0f b6 5f 7a	 movzx	 ebx, BYTE PTR [edi+122]
  0006a	8d 1c 9b	 lea	 ebx, DWORD PTR [ebx+ebx*4]
$LN22@PlusSpecia@2:

; 2052 : 						*Value += lc3 - (int)( lc3 * this->m_CurrentDurabilityState );

  0006d	d9 87 8c 00 00
	00		 fld	 DWORD PTR [edi+140]
  00073	89 5d 08	 mov	 DWORD PTR _lc3$154989[ebp], ebx
  00076	da 4d 08	 fimul	 DWORD PTR _lc3$154989[ebp]
  00079	e8 00 00 00 00	 call	 __ftol2_sse
  0007e	2b d8		 sub	 ebx, eax
  00080	01 1e		 add	 DWORD PTR [esi], ebx

; 2053 : 					}
; 2054 : 					break;

  00082	eb 36		 jmp	 SHORT $LN12@PlusSpecia@2
$LN6@PlusSpecia@2:

; 2055 : 
; 2056 : 				case 84:
; 2057 : 					* Value += 4;

  00084	83 06 04	 add	 DWORD PTR [esi], 4

; 2058 : 					break;

  00087	eb 31		 jmp	 SHORT $LN12@PlusSpecia@2
$LN5@PlusSpecia@2:

; 2059 : 
; 2060 : 				case 81:
; 2061 : 				case 80:
; 2062 : 				case 83:
; 2063 : 					{
; 2064 : 						int lc4 = this->m_Option3*4;

  00089	0f b6 5f 7a	 movzx	 ebx, BYTE PTR [edi+122]
  0008d	03 db		 add	 ebx, ebx
  0008f	03 db		 add	 ebx, ebx

; 2065 : 						*Value += lc4 - (int)( lc4 * this->m_CurrentDurabilityState );
; 2066 : 					}
; 2067 : 					break;

  00091	eb da		 jmp	 SHORT $LN22@PlusSpecia@2
$LN4@PlusSpecia@2:

; 2068 : 
; 2069 : 				case 100:
; 2070 : 				case 101:
; 2071 : 					*Value =  *Value + this->m_Level * 5 + 50;

  00093	0f bf 47 08	 movsx	 eax, WORD PTR [edi+8]
  00097	8d 44 80 32	 lea	 eax, DWORD PTR [eax+eax*4+50]
  0009b	01 06		 add	 DWORD PTR [esi], eax

; 2072 : 					break;

  0009d	eb 1b		 jmp	 SHORT $LN12@PlusSpecia@2
$LN3@PlusSpecia@2:

; 2073 : 
; 2074 : 				case 103:
; 2075 : 					*Value += 50;

  0009f	83 06 32	 add	 DWORD PTR [esi], 50	; 00000032H

; 2076 : 					break;

  000a2	eb 16		 jmp	 SHORT $LN12@PlusSpecia@2
$LN2@PlusSpecia@2:

; 2077 : 
; 2078 : 				case 105:
; 2079 : 					*Value =  *Value + this->m_Level * 5 + 10;

  000a4	0f bf 47 08	 movsx	 eax, WORD PTR [edi+8]
  000a8	8d 4c 80 0a	 lea	 ecx, DWORD PTR [eax+eax*4+10]
  000ac	01 0e		 add	 DWORD PTR [esi], ecx

; 2080 : 
; 2081 : 					break;

  000ae	eb 0a		 jmp	 SHORT $LN12@PlusSpecia@2
$LN1@PlusSpecia@2:

; 2082 : 
; 2083 : 				default:
; 2084 : 					*Value = *Value + (this->m_Option3*4);

  000b0	0f b6 57 7a	 movzx	 edx, BYTE PTR [edi+122]
  000b4	03 d2		 add	 edx, edx
  000b6	03 d2		 add	 edx, edx
  000b8	01 16		 add	 DWORD PTR [esi], edx
$LN12@PlusSpecia@2:

; 2039 : 	{
; 2040 : 		return;
; 2041 : 	}
; 2042 : 
; 2043 : 	for (int i =0;i<this->m_SpecialNum;i++)

  000ba	8b 45 fc	 mov	 eax, DWORD PTR _i$154979[ebp]
  000bd	0f b6 4f 30	 movzx	 ecx, BYTE PTR [edi+48]
  000c1	40		 inc	 eax
  000c2	89 45 fc	 mov	 DWORD PTR _i$154979[ebp], eax
  000c5	3b c1		 cmp	 eax, ecx
  000c7	0f 8c 77 ff ff
	ff		 jl	 $LL13@PlusSpecia@2
  000cd	5e		 pop	 esi
  000ce	5b		 pop	 ebx
$LN11@PlusSpecia@2:
  000cf	5f		 pop	 edi

; 2085 : 					break;
; 2086 : 			}
; 2087 : 		}
; 2088 : 	}
; 2089 : }

  000d0	8b e5		 mov	 esp, ebp
  000d2	5d		 pop	 ebp
  000d3	c2 08 00	 ret	 8
  000d6	8b ff		 npad	 2
$LN23@PlusSpecia@2:
  000d8	00 00 00 00	 DD	 $LN5@PlusSpecia@2
  000dc	00 00 00 00	 DD	 $LN7@PlusSpecia@2
  000e0	00 00 00 00	 DD	 $LN6@PlusSpecia@2
  000e4	00 00 00 00	 DD	 $LN4@PlusSpecia@2
  000e8	00 00 00 00	 DD	 $LN3@PlusSpecia@2
  000ec	00 00 00 00	 DD	 $LN2@PlusSpecia@2
  000f0	00 00 00 00	 DD	 $LN1@PlusSpecia@2
$LN21@PlusSpecia@2:
  000f4	00		 DB	 0
  000f5	00		 DB	 0
  000f6	01		 DB	 1
  000f7	00		 DB	 0
  000f8	02		 DB	 2
  000f9	06		 DB	 6
  000fa	06		 DB	 6
  000fb	06		 DB	 6
  000fc	06		 DB	 6
  000fd	06		 DB	 6
  000fe	06		 DB	 6
  000ff	06		 DB	 6
  00100	06		 DB	 6
  00101	06		 DB	 6
  00102	06		 DB	 6
  00103	06		 DB	 6
  00104	06		 DB	 6
  00105	06		 DB	 6
  00106	06		 DB	 6
  00107	06		 DB	 6
  00108	03		 DB	 3
  00109	03		 DB	 3
  0010a	06		 DB	 6
  0010b	04		 DB	 4
  0010c	06		 DB	 6
  0010d	05		 DB	 5
?PlusSpecial@CItem@@QAEXPAHH@Z ENDP			; CItem::PlusSpecial
_TEXT	ENDS
PUBLIC	?PlusSpecialPercent@CItem@@QAEXPAHHG@Z		; CItem::PlusSpecialPercent
; Function compile flags: /Ogtp
;	COMDAT ?PlusSpecialPercent@CItem@@QAEXPAHHG@Z
_TEXT	SEGMENT
_Value$ = 8						; size = 4
_Special$ = 12						; size = 4
_Percent$ = 16						; size = 2
?PlusSpecialPercent@CItem@@QAEXPAHHG@Z PROC		; CItem::PlusSpecialPercent, COMDAT
; _this$ = ecx

; 2092 : {

  00000	55		 push	 ebp
  00001	8b ec		 mov	 ebp, esp

; 2093 : 	if ( this->m_Type < 0 )

  00003	66 83 79 06 00	 cmp	 WORD PTR [ecx+6], 0
  00008	7c 4a		 jl	 SHORT $LN2@PlusSpecia@3

; 2094 : 	{
; 2095 : 		return;
; 2096 : 	}
; 2097 : 
; 2098 : 	for (int i=0;i<this->m_SpecialNum;i++)

  0000a	53		 push	 ebx
  0000b	33 db		 xor	 ebx, ebx
  0000d	38 59 30	 cmp	 BYTE PTR [ecx+48], bl
  00010	76 41		 jbe	 SHORT $LN10@PlusSpecia@3
  00012	56		 push	 esi
  00013	57		 push	 edi
  00014	8b 7d 08	 mov	 edi, DWORD PTR _Value$[ebp]
  00017	eb 07 8d a4 24
	00 00 00 00	 npad	 9
$LL4@PlusSpecia@3:

; 2099 : 	{
; 2100 : 		if ( this->m_Special[i] == Special )

  00020	0f b6 44 19 31	 movzx	 eax, BYTE PTR [ecx+ebx+49]
  00025	3b 45 0c	 cmp	 eax, DWORD PTR _Special$[ebp]
  00028	75 1e		 jne	 SHORT $LN3@PlusSpecia@3

; 2101 : 		{
; 2102 : 			*Value += (*Value * Percent)/ 100;

  0002a	8b 37		 mov	 esi, DWORD PTR [edi]
  0002c	0f b7 55 10	 movzx	 edx, WORD PTR _Percent$[ebp]
  00030	0f af d6	 imul	 edx, esi
  00033	b8 1f 85 eb 51	 mov	 eax, 1374389535		; 51eb851fH
  00038	f7 ea		 imul	 edx
  0003a	c1 fa 05	 sar	 edx, 5
  0003d	8b c2		 mov	 eax, edx
  0003f	c1 e8 1f	 shr	 eax, 31			; 0000001fH
  00042	03 c2		 add	 eax, edx
  00044	03 c6		 add	 eax, esi
  00046	89 07		 mov	 DWORD PTR [edi], eax
$LN3@PlusSpecia@3:

; 2094 : 	{
; 2095 : 		return;
; 2096 : 	}
; 2097 : 
; 2098 : 	for (int i=0;i<this->m_SpecialNum;i++)

  00048	0f b6 51 30	 movzx	 edx, BYTE PTR [ecx+48]
  0004c	43		 inc	 ebx
  0004d	3b da		 cmp	 ebx, edx
  0004f	7c cf		 jl	 SHORT $LL4@PlusSpecia@3
  00051	5f		 pop	 edi
  00052	5e		 pop	 esi
$LN10@PlusSpecia@3:
  00053	5b		 pop	 ebx
$LN2@PlusSpecia@3:

; 2103 : 		}
; 2104 : 	}
; 2105 : }

  00054	5d		 pop	 ebp
  00055	c2 0c 00	 ret	 12			; 0000000cH
?PlusSpecialPercent@CItem@@QAEXPAHHG@Z ENDP		; CItem::PlusSpecialPercent
_TEXT	ENDS
PUBLIC	?PlusSpecialPercentEx@CItem@@QAEXPAHHH@Z	; CItem::PlusSpecialPercentEx
; Function compile flags: /Ogtp
;	COMDAT ?PlusSpecialPercentEx@CItem@@QAEXPAHHH@Z
_TEXT	SEGMENT
_i$155020 = -4						; size = 4
_lc3$155025 = 8						; size = 4
_Value$ = 8						; size = 4
_SourceValue$ = 12					; size = 4
_Special$ = 16						; size = 4
?PlusSpecialPercentEx@CItem@@QAEXPAHHH@Z PROC		; CItem::PlusSpecialPercentEx, COMDAT
; _this$ = ecx

; 2108 : {

  00000	55		 push	 ebp
  00001	8b ec		 mov	 ebp, esp
  00003	51		 push	 ecx
  00004	57		 push	 edi
  00005	8b f9		 mov	 edi, ecx

; 2109 : 	if ( this->m_Type < 0 )

  00007	66 83 7f 06 00	 cmp	 WORD PTR [edi+6], 0
  0000c	7c 6f		 jl	 SHORT $LN2@PlusSpecia@4

; 2110 : 	{
; 2111 : 		return;
; 2112 : 	}
; 2113 : 
; 2114 : 	if ( this->m_Durability == 0.0f )

  0000e	d9 47 24	 fld	 DWORD PTR [edi+36]
  00011	d9 ee		 fldz
  00013	da e9		 fucompp
  00015	df e0		 fnstsw	 ax
  00017	f6 c4 44	 test	 ah, 68			; 00000044H
  0001a	7b 61		 jnp	 SHORT $LN2@PlusSpecia@4

; 2115 : 	{
; 2116 : 		return;
; 2117 : 	}
; 2118 : 
; 2119 : 	if ( this->m_IsValidItem == false  )

  0001c	80 bf 94 00 00
	00 00		 cmp	 BYTE PTR [edi+148], 0
  00023	74 58		 je	 SHORT $LN2@PlusSpecia@4

; 2120 : 	{
; 2121 : 		return;
; 2122 : 	}
; 2123 : 
; 2124 : 	for (int i =0;i<this->m_SpecialNum;i++)

  00025	33 c0		 xor	 eax, eax
  00027	89 45 fc	 mov	 DWORD PTR _i$155020[ebp], eax
  0002a	38 47 30	 cmp	 BYTE PTR [edi+48], al
  0002d	76 4e		 jbe	 SHORT $LN2@PlusSpecia@4
  0002f	53		 push	 ebx
  00030	8b 5d 08	 mov	 ebx, DWORD PTR _Value$[ebp]
  00033	56		 push	 esi
$LL4@PlusSpecia@4:

; 2125 : 	{
; 2126 : 		if ( this->m_Special[i] == Special )

  00034	0f b6 4c 07 31	 movzx	 ecx, BYTE PTR [edi+eax+49]
  00039	3b 4d 10	 cmp	 ecx, DWORD PTR _Special$[ebp]
  0003c	75 31		 jne	 SHORT $LN3@PlusSpecia@4

; 2127 : 		{
; 2128 : 			int lc3 = SourceValue * this->m_Option3/100;

  0003e	0f b6 4f 7a	 movzx	 ecx, BYTE PTR [edi+122]

; 2129 : 			*Value += lc3 - (int)(lc3 * this->m_CurrentDurabilityState );

  00042	d9 87 8c 00 00
	00		 fld	 DWORD PTR [edi+140]
  00048	0f af 4d 0c	 imul	 ecx, DWORD PTR _SourceValue$[ebp]
  0004c	b8 1f 85 eb 51	 mov	 eax, 1374389535		; 51eb851fH
  00051	f7 e9		 imul	 ecx
  00053	c1 fa 05	 sar	 edx, 5
  00056	8b f2		 mov	 esi, edx
  00058	c1 ee 1f	 shr	 esi, 31			; 0000001fH
  0005b	03 f2		 add	 esi, edx
  0005d	89 75 08	 mov	 DWORD PTR _lc3$155025[ebp], esi
  00060	da 4d 08	 fimul	 DWORD PTR _lc3$155025[ebp]
  00063	e8 00 00 00 00	 call	 __ftol2_sse
  00068	2b f0		 sub	 esi, eax
  0006a	01 33		 add	 DWORD PTR [ebx], esi
  0006c	8b 45 fc	 mov	 eax, DWORD PTR _i$155020[ebp]
$LN3@PlusSpecia@4:

; 2120 : 	{
; 2121 : 		return;
; 2122 : 	}
; 2123 : 
; 2124 : 	for (int i =0;i<this->m_SpecialNum;i++)

  0006f	0f b6 57 30	 movzx	 edx, BYTE PTR [edi+48]
  00073	40		 inc	 eax
  00074	89 45 fc	 mov	 DWORD PTR _i$155020[ebp], eax
  00077	3b c2		 cmp	 eax, edx
  00079	7c b9		 jl	 SHORT $LL4@PlusSpecia@4
  0007b	5e		 pop	 esi
  0007c	5b		 pop	 ebx
$LN2@PlusSpecia@4:
  0007d	5f		 pop	 edi

; 2130 : 		}
; 2131 : 	}
; 2132 : }

  0007e	8b e5		 mov	 esp, ebp
  00080	5d		 pop	 ebp
  00081	c2 0c 00	 ret	 12			; 0000000cH
?PlusSpecialPercentEx@CItem@@QAEXPAHHH@Z ENDP		; CItem::PlusSpecialPercentEx
_TEXT	ENDS
PUBLIC	?SetItemPlusSpecialStat@CItem@@QAEXPAFH@Z	; CItem::SetItemPlusSpecialStat
; Function compile flags: /Ogtp
;	COMDAT ?SetItemPlusSpecialStat@CItem@@QAEXPAFH@Z
_TEXT	SEGMENT
_i$155034 = -4						; size = 4
_lc3$155044 = 8						; size = 4
_Value$ = 8						; size = 4
_Special$ = 12						; size = 4
?SetItemPlusSpecialStat@CItem@@QAEXPAFH@Z PROC		; CItem::SetItemPlusSpecialStat, COMDAT
; _this$ = ecx

; 2135 : {

  00000	55		 push	 ebp
  00001	8b ec		 mov	 ebp, esp
  00003	51		 push	 ecx
  00004	56		 push	 esi
  00005	8b f1		 mov	 esi, ecx

; 2136 : 	if ( this->m_Type < 0 )

  00007	66 83 7e 06 00	 cmp	 WORD PTR [esi+6], 0
  0000c	7c 79		 jl	 SHORT $LN6@SetItemPlu

; 2137 : 	{
; 2138 : 		return;
; 2139 : 	}
; 2140 : 
; 2141 : 	if ( this->m_Durability == 0.0f )

  0000e	d9 46 24	 fld	 DWORD PTR [esi+36]
  00011	d9 ee		 fldz
  00013	da e9		 fucompp
  00015	df e0		 fnstsw	 ax
  00017	f6 c4 44	 test	 ah, 68			; 00000044H
  0001a	7b 6b		 jnp	 SHORT $LN6@SetItemPlu

; 2142 : 	{
; 2143 : 		return;
; 2144 : 	}
; 2145 : 
; 2146 : 	for (int i =0;i<this->m_SpecialNum;i++)

  0001c	33 c9		 xor	 ecx, ecx
  0001e	89 4d fc	 mov	 DWORD PTR _i$155034[ebp], ecx
  00021	38 4e 30	 cmp	 BYTE PTR [esi+48], cl
  00024	76 61		 jbe	 SHORT $LN6@SetItemPlu
  00026	53		 push	 ebx
  00027	8b 5d 08	 mov	 ebx, DWORD PTR _Value$[ebp]
  0002a	57		 push	 edi
  0002b	eb 03 8d 49 00	 npad	 5
$LL8@SetItemPlu:

; 2147 : 	{
; 2148 : 		if ( this->m_Special[i] == Special )

  00030	0f b6 54 0e 31	 movzx	 edx, BYTE PTR [esi+ecx+49]
  00035	8b 45 0c	 mov	 eax, DWORD PTR _Special$[ebp]
  00038	3b d0		 cmp	 edx, eax
  0003a	75 3d		 jne	 SHORT $LN7@SetItemPlu

; 2149 : 		{
; 2150 : 			switch ( Special )

  0003c	05 3c ff ff ff	 add	 eax, -196		; ffffff3cH
  00041	83 f8 03	 cmp	 eax, 3
  00044	77 23		 ja	 SHORT $LN1@SetItemPlu

; 2151 : 			{
; 2152 : 				case 0xC4:
; 2153 : 				case 0xC5:
; 2154 : 				case 0xC6:
; 2155 : 				case 0xC7:
; 2156 : 					{
; 2157 : 						int lc3 = this->m_SetAddStat;

  00046	0f b6 be 93 00
	00 00		 movzx	 edi, BYTE PTR [esi+147]

; 2158 : 						*Value += lc3 - (int)(lc3 * this->m_CurrentDurabilityState);

  0004d	d9 86 8c 00 00
	00		 fld	 DWORD PTR [esi+140]
  00053	89 7d 08	 mov	 DWORD PTR _lc3$155044[ebp], edi
  00056	da 4d 08	 fimul	 DWORD PTR _lc3$155044[ebp]
  00059	e8 00 00 00 00	 call	 __ftol2_sse

; 2159 : 					}
; 2160 : 					break;

  0005e	8b 4d fc	 mov	 ecx, DWORD PTR _i$155034[ebp]
  00061	66 2b f8	 sub	 di, ax
  00064	66 01 3b	 add	 WORD PTR [ebx], di
  00067	eb 10		 jmp	 SHORT $LN7@SetItemPlu
$LN1@SetItemPlu:

; 2161 : 
; 2162 : 				default:
; 2163 : 					*Value += this->m_Option3*3;

  00069	0f b6 46 7a	 movzx	 eax, BYTE PTR [esi+122]
  0006d	66 8b d0	 mov	 dx, ax
  00070	66 03 d2	 add	 dx, dx
  00073	66 03 c2	 add	 ax, dx
  00076	66 01 03	 add	 WORD PTR [ebx], ax
$LN7@SetItemPlu:

; 2142 : 	{
; 2143 : 		return;
; 2144 : 	}
; 2145 : 
; 2146 : 	for (int i =0;i<this->m_SpecialNum;i++)

  00079	0f b6 46 30	 movzx	 eax, BYTE PTR [esi+48]
  0007d	41		 inc	 ecx
  0007e	89 4d fc	 mov	 DWORD PTR _i$155034[ebp], ecx
  00081	3b c8		 cmp	 ecx, eax
  00083	7c ab		 jl	 SHORT $LL8@SetItemPlu
  00085	5f		 pop	 edi
  00086	5b		 pop	 ebx
$LN6@SetItemPlu:
  00087	5e		 pop	 esi

; 2164 : 			}
; 2165 : 		}
; 2166 : 	}
; 2167 : }

  00088	8b e5		 mov	 esp, ebp
  0008a	5d		 pop	 ebp
  0008b	c2 08 00	 ret	 8
?SetItemPlusSpecialStat@CItem@@QAEXPAFH@Z ENDP		; CItem::SetItemPlusSpecialStat
_TEXT	ENDS
PUBLIC	?GetAddStatType@CItem@@QAEHXZ			; CItem::GetAddStatType
; Function compile flags: /Ogtp
;	COMDAT ?GetAddStatType@CItem@@QAEHXZ
_TEXT	SEGMENT
?GetAddStatType@CItem@@QAEHXZ PROC			; CItem::GetAddStatType, COMDAT
; _this$ = ecx

; 2171 : 	LPITEM_ATTRIBUTE p;
; 2172 : 	p = &ItemAttribute[this->m_Type];
; 2173 : 	return p->SetAttr;

  00000	0f bf 41 06	 movsx	 eax, WORD PTR [ecx+6]
  00004	6b c0 6c	 imul	 eax, 108		; 0000006cH
  00007	0f b6 80 5d 00
	00 00		 movzx	 eax, BYTE PTR ?ItemAttribute@@3PAUITEM_ATTRIBUTE@@A[eax+93]

; 2174 : }

  0000e	c3		 ret	 0
?GetAddStatType@CItem@@QAEHXZ ENDP			; CItem::GetAddStatType
_TEXT	ENDS
PUBLIC	?GetWeaponType@CItem@@QAEHXZ			; CItem::GetWeaponType
; Function compile flags: /Ogtp
;	COMDAT ?GetWeaponType@CItem@@QAEHXZ
_TEXT	SEGMENT
?GetWeaponType@CItem@@QAEHXZ PROC			; CItem::GetWeaponType, COMDAT
; _this$ = ecx

; 2178 : 	if ( this->m_Type <= ITEMGET(5,0) )

  00000	0f b7 41 06	 movzx	 eax, WORD PTR [ecx+6]
  00004	b9 00 0a 00 00	 mov	 ecx, 2560		; 00000a00H
  00009	66 3b c1	 cmp	 ax, cx
  0000c	7f 06		 jg	 SHORT $LN2@GetWeaponT

; 2179 : 	{
; 2180 : 		return 1;

  0000e	b8 01 00 00 00	 mov	 eax, 1

; 2184 : 	{
; 2185 : 		return 2;
; 2186 : 	}
; 2187 : 	return 0;
; 2188 : }

  00013	c3		 ret	 0
$LN2@GetWeaponT:

; 2181 : 	}
; 2182 : 
; 2183 : 	if ( this->m_Type <= ITEMGET(6,0) )

  00014	33 c9		 xor	 ecx, ecx
  00016	ba 00 0c 00 00	 mov	 edx, 3072		; 00000c00H
  0001b	66 3b c2	 cmp	 ax, dx
  0001e	0f 9f c1	 setg	 cl
  00021	8d 41 ff	 lea	 eax, DWORD PTR [ecx-1]
  00024	83 e0 02	 and	 eax, 2

; 2184 : 	{
; 2185 : 		return 2;
; 2186 : 	}
; 2187 : 	return 0;
; 2188 : }

  00027	c3		 ret	 0
?GetWeaponType@CItem@@QAEHXZ ENDP			; CItem::GetWeaponType
_TEXT	ENDS
PUBLIC	??0CPetItemExp@@QAE@XZ				; CPetItemExp::CPetItemExp
; Function compile flags: /Ogtp
;	COMDAT ??0CPetItemExp@@QAE@XZ
_TEXT	SEGMENT
??0CPetItemExp@@QAE@XZ PROC				; CPetItemExp::CPetItemExp, COMDAT
; _this$ = ecx

; 2443 : {

  00000	8b c1		 mov	 eax, ecx

; 2444 : 	this->m_DarkSpiritExpTable[0] = 0;

  00002	33 c9		 xor	 ecx, ecx
  00004	89 08		 mov	 DWORD PTR [eax], ecx

; 2445 : 	this->m_DarkSpiritExpTable[1] = 0;

  00006	89 48 04	 mov	 DWORD PTR [eax+4], ecx

; 2446 : 
; 2447 : 	for (int i = 2 ; i < MAX_PET_LEVEL+2 ; i++ )

  00009	ba 02 00 00 00	 mov	 edx, 2
  0000e	56		 push	 esi
  0000f	90		 npad	 1
$LL6@CPetItemEx:

; 2448 : 	{
; 2449 : 		this->m_DarkSpiritExpTable[i] = (i+10) * i * i * i * 100;

  00010	8d 72 0a	 lea	 esi, DWORD PTR [edx+10]
  00013	0f af f2	 imul	 esi, edx
  00016	0f af f2	 imul	 esi, edx
  00019	0f af f2	 imul	 esi, edx
  0001c	6b f6 64	 imul	 esi, 100		; 00000064H
  0001f	89 34 90	 mov	 DWORD PTR [eax+edx*4], esi
  00022	42		 inc	 edx
  00023	83 fa 34	 cmp	 edx, 52			; 00000034H
  00026	7c e8		 jl	 SHORT $LL6@CPetItemEx

; 2450 : 	}
; 2451 : 
; 2452 : 	this->m_DarkHorseExpTable[0] = 0;

  00028	89 88 d0 00 00
	00		 mov	 DWORD PTR [eax+208], ecx

; 2453 : 	this->m_DarkHorseExpTable[1] = 0;

  0002e	89 88 d4 00 00
	00		 mov	 DWORD PTR [eax+212], ecx

; 2454 : 
; 2455 : 	for (int i = 2 ; i < MAX_PET_LEVEL+2 ; i++ )

  00034	ba 02 00 00 00	 mov	 edx, 2
  00039	8d 88 d8 00 00
	00		 lea	 ecx, DWORD PTR [eax+216]
  0003f	90		 npad	 1
$LL3@CPetItemEx:

; 2456 : 	{
; 2457 : 		this->m_DarkHorseExpTable[i] = (i+10) * i * i * i * 100;

  00040	8d 72 0a	 lea	 esi, DWORD PTR [edx+10]
  00043	0f af f2	 imul	 esi, edx
  00046	0f af f2	 imul	 esi, edx
  00049	0f af f2	 imul	 esi, edx
  0004c	6b f6 64	 imul	 esi, 100		; 00000064H
  0004f	89 31		 mov	 DWORD PTR [ecx], esi
  00051	42		 inc	 edx
  00052	83 c1 04	 add	 ecx, 4
  00055	83 fa 34	 cmp	 edx, 52			; 00000034H
  00058	7c e6		 jl	 SHORT $LL3@CPetItemEx
  0005a	5e		 pop	 esi

; 2458 : 	}
; 2459 : }

  0005b	c3		 ret	 0
??0CPetItemExp@@QAE@XZ ENDP				; CPetItemExp::CPetItemExp
_TEXT	ENDS
PUBLIC	?PetValue@CItem@@QAEXXZ				; CItem::PetValue
; Function compile flags: /Ogtp
;	COMDAT ?PetValue@CItem@@QAEXXZ
_TEXT	SEGMENT
?PetValue@CItem@@QAEXXZ PROC				; CItem::PetValue, COMDAT
; _this$ = ecx

; 2463 : 	if ( this->m_Type == ITEMGET(13,4) )

  00000	0f b7 41 06	 movzx	 eax, WORD PTR [ecx+6]
  00004	ba 04 1a 00 00	 mov	 edx, 6660		; 00001a04H
  00009	66 3b c2	 cmp	 ax, dx
  0000c	75 0e		 jne	 SHORT $LN9@PetValue

; 2464 : 	{
; 2465 : 		this->m_SellMoney = this->m_PetItem_Level * 2000000;

  0000e	8b 81 a0 00 00
	00		 mov	 eax, DWORD PTR [ecx+160]
  00014	69 c0 80 84 1e
	00		 imul	 eax, 2000000		; 001e8480H
  0001a	eb 16		 jmp	 SHORT $LN12@PetValue
$LN9@PetValue:

; 2466 : 	}
; 2467 : 	else if ( this->m_Type == ITEMGET(13,5) )

  0001c	ba 05 1a 00 00	 mov	 edx, 6661		; 00001a05H
  00021	66 3b c2	 cmp	 ax, dx
  00024	75 0f		 jne	 SHORT $LN7@PetValue

; 2468 : 	{
; 2469 : 		this->m_SellMoney = this->m_PetItem_Level * 1000000;

  00026	8b 81 a0 00 00
	00		 mov	 eax, DWORD PTR [ecx+160]
  0002c	69 c0 40 42 0f
	00		 imul	 eax, 1000000		; 000f4240H
$LN12@PetValue:
  00032	89 41 60	 mov	 DWORD PTR [ecx+96], eax
$LN7@PetValue:

; 2470 : 	}	
; 2471 : 
; 2472 : 	this->m_BuyMoney = this->m_SellMoney;

  00035	8b 51 60	 mov	 edx, DWORD PTR [ecx+96]
  00038	89 51 64	 mov	 DWORD PTR [ecx+100], edx

; 2473 : 	this->m_SellMoney /= 3;

  0003b	b8 ab aa aa aa	 mov	 eax, -1431655765	; aaaaaaabH
  00040	f7 e2		 mul	 edx
  00042	d1 ea		 shr	 edx, 1
  00044	89 51 60	 mov	 DWORD PTR [ecx+96], edx

; 2474 : 
; 2475 : 	if ( this->m_SellMoney >= 1000 )

  00047	81 fa e8 03 00
	00		 cmp	 edx, 1000		; 000003e8H
  0004d	72 0f		 jb	 SHORT $LN6@PetValue

; 2476 : 	{
; 2477 : 		this->m_SellMoney = this->m_SellMoney / 100 * 100;

  0004f	b8 1f 85 eb 51	 mov	 eax, 1374389535		; 51eb851fH
  00054	f7 e2		 mul	 edx
  00056	c1 ea 05	 shr	 edx, 5
  00059	6b d2 64	 imul	 edx, 100		; 00000064H
  0005c	eb 14		 jmp	 SHORT $LN13@PetValue
$LN6@PetValue:

; 2478 : 	}
; 2479 : 	else if ( this->m_SellMoney >= 100 )

  0005e	83 fa 64	 cmp	 edx, 100		; 00000064H
  00061	72 12		 jb	 SHORT $LN4@PetValue

; 2480 : 	{
; 2481 : 		this->m_SellMoney = this->m_SellMoney / 10 * 10;

  00063	b8 cd cc cc cc	 mov	 eax, -858993459		; cccccccdH
  00068	f7 e2		 mul	 edx
  0006a	c1 ea 03	 shr	 edx, 3
  0006d	8d 14 92	 lea	 edx, DWORD PTR [edx+edx*4]
  00070	03 d2		 add	 edx, edx
$LN13@PetValue:
  00072	89 51 60	 mov	 DWORD PTR [ecx+96], edx
$LN4@PetValue:

; 2482 : 	}
; 2483 : 
; 2484 : 	if ( this->m_BuyMoney >= 1000 )

  00075	8b 51 64	 mov	 edx, DWORD PTR [ecx+100]
  00078	81 fa e8 03 00
	00		 cmp	 edx, 1000		; 000003e8H
  0007e	72 11		 jb	 SHORT $LN3@PetValue

; 2485 : 	{
; 2486 : 		this->m_BuyMoney = this->m_BuyMoney / 100 * 100;

  00080	b8 1f 85 eb 51	 mov	 eax, 1374389535		; 51eb851fH
  00085	f7 e2		 mul	 edx
  00087	c1 ea 05	 shr	 edx, 5
  0008a	6b d2 64	 imul	 edx, 100		; 00000064H
  0008d	89 51 64	 mov	 DWORD PTR [ecx+100], edx

; 2491 : 	}
; 2492 : }

  00090	c3		 ret	 0
$LN3@PetValue:

; 2487 : 	}
; 2488 : 	else if ( this->m_BuyMoney >= 100 )

  00091	83 fa 64	 cmp	 edx, 100		; 00000064H
  00094	72 12		 jb	 SHORT $LN1@PetValue

; 2489 : 	{
; 2490 : 		this->m_BuyMoney = this->m_BuyMoney / 10 * 10;

  00096	b8 cd cc cc cc	 mov	 eax, -858993459		; cccccccdH
  0009b	f7 e2		 mul	 edx
  0009d	c1 ea 03	 shr	 edx, 3
  000a0	8d 04 92	 lea	 eax, DWORD PTR [edx+edx*4]
  000a3	03 c0		 add	 eax, eax
  000a5	89 41 64	 mov	 DWORD PTR [ecx+100], eax
$LN1@PetValue:

; 2491 : 	}
; 2492 : }

  000a8	c3		 ret	 0
?PetValue@CItem@@QAEXXZ ENDP				; CItem::PetValue
_TEXT	ENDS
PUBLIC	?IsExtItem@CItem@@QAEHXZ			; CItem::IsExtItem
; Function compile flags: /Ogtp
;	COMDAT ?IsExtItem@CItem@@QAEHXZ
_TEXT	SEGMENT
?IsExtItem@CItem@@QAEHXZ PROC				; CItem::IsExtItem, COMDAT
; _this$ = ecx

; 2496 : 	if ( this->m_Type == ITEMGET(13,37) )

  00000	b8 25 1a 00 00	 mov	 eax, 6693		; 00001a25H
  00005	66 39 41 06	 cmp	 WORD PTR [ecx+6], ax
  00009	75 03		 jne	 SHORT $LN2@IsExtItem

; 2497 : 	{
; 2498 : 		return FALSE;

  0000b	33 c0		 xor	 eax, eax

; 2502 : 	{
; 2503 : 		return TRUE;
; 2504 : 	}
; 2505 : 
; 2506 : 	return FALSE;
; 2507 : }

  0000d	c3		 ret	 0
$LN2@IsExtItem:

; 2499 : 	}
; 2500 : 
; 2501 : 	if ( (this->m_NewOption & 0x7F)!= 0 )

  0000e	f6 41 7b 7f	 test	 BYTE PTR [ecx+123], 127	; 0000007fH
  00012	b8 00 00 00 00	 mov	 eax, 0
  00017	0f 95 c0	 setne	 al

; 2502 : 	{
; 2503 : 		return TRUE;
; 2504 : 	}
; 2505 : 
; 2506 : 	return FALSE;
; 2507 : }

  0001a	c3		 ret	 0
?IsExtItem@CItem@@QAEHXZ ENDP				; CItem::IsExtItem
_TEXT	ENDS
PUBLIC	?IsExtLifeAdd@CItem@@QAEHXZ			; CItem::IsExtLifeAdd
; Function compile flags: /Ogtp
;	COMDAT ?IsExtLifeAdd@CItem@@QAEHXZ
_TEXT	SEGMENT
?IsExtLifeAdd@CItem@@QAEHXZ PROC			; CItem::IsExtLifeAdd, COMDAT
; _this$ = ecx

; 2511 : 	if ( (this->m_NewOption & 0x20) == 32 )

  00000	8a 41 7b	 mov	 al, BYTE PTR [ecx+123]
  00003	24 20		 and	 al, 32			; 00000020H
  00005	33 c9		 xor	 ecx, ecx
  00007	3c 20		 cmp	 al, 32			; 00000020H
  00009	0f 95 c1	 setne	 cl
  0000c	8d 41 ff	 lea	 eax, DWORD PTR [ecx-1]
  0000f	83 e0 04	 and	 eax, 4

; 2512 : 	{
; 2513 : 		return 4;
; 2514 : 	}
; 2515 : 
; 2516 : 	return 0;
; 2517 : }

  00012	c3		 ret	 0
?IsExtLifeAdd@CItem@@QAEHXZ ENDP			; CItem::IsExtLifeAdd
_TEXT	ENDS
PUBLIC	?IsExtManaAdd@CItem@@QAEHXZ			; CItem::IsExtManaAdd
; Function compile flags: /Ogtp
;	COMDAT ?IsExtManaAdd@CItem@@QAEHXZ
_TEXT	SEGMENT
?IsExtManaAdd@CItem@@QAEHXZ PROC			; CItem::IsExtManaAdd, COMDAT
; _this$ = ecx

; 2521 : 	if ( (this->m_NewOption & 0x10) == 16 )

  00000	8a 41 7b	 mov	 al, BYTE PTR [ecx+123]
  00003	24 10		 and	 al, 16			; 00000010H
  00005	33 c9		 xor	 ecx, ecx
  00007	3c 10		 cmp	 al, 16			; 00000010H
  00009	0f 95 c1	 setne	 cl
  0000c	8d 41 ff	 lea	 eax, DWORD PTR [ecx-1]
  0000f	83 e0 04	 and	 eax, 4

; 2522 : 	{
; 2523 : 		return 4;
; 2524 : 	}
; 2525 : 
; 2526 : 	return 0;
; 2527 : }

  00012	c3		 ret	 0
?IsExtManaAdd@CItem@@QAEHXZ ENDP			; CItem::IsExtManaAdd
_TEXT	ENDS
PUBLIC	?IsExtDamageMinus@CItem@@QAEHXZ			; CItem::IsExtDamageMinus
; Function compile flags: /Ogtp
;	COMDAT ?IsExtDamageMinus@CItem@@QAEHXZ
_TEXT	SEGMENT
?IsExtDamageMinus@CItem@@QAEHXZ PROC			; CItem::IsExtDamageMinus, COMDAT
; _this$ = ecx

; 2531 : 	if ( (this->m_NewOption & 8) == 8 )

  00000	8a 41 7b	 mov	 al, BYTE PTR [ecx+123]
  00003	24 08		 and	 al, 8
  00005	33 c9		 xor	 ecx, ecx
  00007	3c 08		 cmp	 al, 8
  00009	0f 95 c1	 setne	 cl
  0000c	8d 41 ff	 lea	 eax, DWORD PTR [ecx-1]
  0000f	83 e0 04	 and	 eax, 4

; 2532 : 	{
; 2533 : 		return 4;
; 2534 : 	}
; 2535 : 
; 2536 : 	return 0;
; 2537 : }

  00012	c3		 ret	 0
?IsExtDamageMinus@CItem@@QAEHXZ ENDP			; CItem::IsExtDamageMinus
_TEXT	ENDS
PUBLIC	?IsExtDamageReflect@CItem@@QAEHXZ		; CItem::IsExtDamageReflect
; Function compile flags: /Ogtp
;	COMDAT ?IsExtDamageReflect@CItem@@QAEHXZ
_TEXT	SEGMENT
?IsExtDamageReflect@CItem@@QAEHXZ PROC			; CItem::IsExtDamageReflect, COMDAT
; _this$ = ecx

; 2541 : 	if ( (this->m_NewOption & 4) == 4 )

  00000	8a 41 7b	 mov	 al, BYTE PTR [ecx+123]
  00003	24 04		 and	 al, 4
  00005	33 c9		 xor	 ecx, ecx
  00007	3c 04		 cmp	 al, 4
  00009	0f 95 c1	 setne	 cl
  0000c	8d 41 ff	 lea	 eax, DWORD PTR [ecx-1]
  0000f	83 e0 05	 and	 eax, 5

; 2542 : 	{
; 2543 : 		return 5;
; 2544 : 	}
; 2545 : 
; 2546 : 	return 0;
; 2547 : }

  00012	c3		 ret	 0
?IsExtDamageReflect@CItem@@QAEHXZ ENDP			; CItem::IsExtDamageReflect
_TEXT	ENDS
PUBLIC	?IsExtDefenseSuccessfull@CItem@@QAEHXZ		; CItem::IsExtDefenseSuccessfull
; Function compile flags: /Ogtp
;	COMDAT ?IsExtDefenseSuccessfull@CItem@@QAEHXZ
_TEXT	SEGMENT
?IsExtDefenseSuccessfull@CItem@@QAEHXZ PROC		; CItem::IsExtDefenseSuccessfull, COMDAT
; _this$ = ecx

; 2552 : 	if ( (this->m_NewOption & 2) == 2 )

  00000	8a 41 7b	 mov	 al, BYTE PTR [ecx+123]
  00003	24 02		 and	 al, 2
  00005	33 c9		 xor	 ecx, ecx
  00007	3c 02		 cmp	 al, 2
  00009	0f 95 c1	 setne	 cl
  0000c	8d 41 ff	 lea	 eax, DWORD PTR [ecx-1]
  0000f	83 e0 0a	 and	 eax, 10			; 0000000aH

; 2553 : 	{
; 2554 : 		return 10;
; 2555 : 	}
; 2556 : 
; 2557 : 	return 0;
; 2558 : }

  00012	c3		 ret	 0
?IsExtDefenseSuccessfull@CItem@@QAEHXZ ENDP		; CItem::IsExtDefenseSuccessfull
_TEXT	ENDS
PUBLIC	?IsExtMonsterMoney@CItem@@QAEHXZ		; CItem::IsExtMonsterMoney
; Function compile flags: /Ogtp
;	COMDAT ?IsExtMonsterMoney@CItem@@QAEHXZ
_TEXT	SEGMENT
?IsExtMonsterMoney@CItem@@QAEHXZ PROC			; CItem::IsExtMonsterMoney, COMDAT
; _this$ = ecx

; 2562 : 	if ( (this->m_NewOption & 1) == 1 )

  00000	8a 41 7b	 mov	 al, BYTE PTR [ecx+123]
  00003	24 01		 and	 al, 1
  00005	fe c8		 dec	 al
  00007	0f b6 c0	 movzx	 eax, al
  0000a	f7 d8		 neg	 eax
  0000c	1b c0		 sbb	 eax, eax
  0000e	83 e0 d8	 and	 eax, -40		; ffffffd8H
  00011	83 c0 28	 add	 eax, 40			; 00000028H

; 2563 : 	{
; 2564 : 		return 40;
; 2565 : 	}
; 2566 : 
; 2567 : 	return 0;
; 2568 : }

  00014	c3		 ret	 0
?IsExtMonsterMoney@CItem@@QAEHXZ ENDP			; CItem::IsExtMonsterMoney
_TEXT	ENDS
PUBLIC	?IsExtExcellentDamage@CItem@@QAEHXZ		; CItem::IsExtExcellentDamage
; Function compile flags: /Ogtp
;	COMDAT ?IsExtExcellentDamage@CItem@@QAEHXZ
_TEXT	SEGMENT
?IsExtExcellentDamage@CItem@@QAEHXZ PROC		; CItem::IsExtExcellentDamage, COMDAT
; _this$ = ecx

; 2572 : 	if ( (this->m_Type >= ITEMGET(6,0) ) && (this->m_Type < ITEMGET(7,0) ) )

  00000	0f b7 41 06	 movzx	 eax, WORD PTR [ecx+6]
  00004	ba 00 0c 00 00	 mov	 edx, 3072		; 00000c00H
  00009	66 3b c2	 cmp	 ax, dx
  0000c	7c 0d		 jl	 SHORT $LN2@IsExtExcel
  0000e	ba 00 0e 00 00	 mov	 edx, 3584		; 00000e00H
  00013	66 3b c2	 cmp	 ax, dx
  00016	7d 03		 jge	 SHORT $LN2@IsExtExcel

; 2573 : 	{
; 2574 : 		return 0;

  00018	33 c0		 xor	 eax, eax

; 2578 : 	{
; 2579 : 		return 10;
; 2580 : 	}
; 2581 : 	return 0;
; 2582 : }

  0001a	c3		 ret	 0
$LN2@IsExtExcel:

; 2575 : 	}
; 2576 : 
; 2577 : 	if ( ( this->m_NewOption & 0x20 ) == 0x20 )

  0001b	8a 41 7b	 mov	 al, BYTE PTR [ecx+123]
  0001e	24 20		 and	 al, 32			; 00000020H
  00020	33 c9		 xor	 ecx, ecx
  00022	3c 20		 cmp	 al, 32			; 00000020H
  00024	0f 95 c1	 setne	 cl
  00027	8d 41 ff	 lea	 eax, DWORD PTR [ecx-1]
  0002a	83 e0 0a	 and	 eax, 10			; 0000000aH

; 2578 : 	{
; 2579 : 		return 10;
; 2580 : 	}
; 2581 : 	return 0;
; 2582 : }

  0002d	c3		 ret	 0
?IsExtExcellentDamage@CItem@@QAEHXZ ENDP		; CItem::IsExtExcellentDamage
_TEXT	ENDS
PUBLIC	?IsExtAttackRate@CItem@@QAEHXZ			; CItem::IsExtAttackRate
; Function compile flags: /Ogtp
;	COMDAT ?IsExtAttackRate@CItem@@QAEHXZ
_TEXT	SEGMENT
?IsExtAttackRate@CItem@@QAEHXZ PROC			; CItem::IsExtAttackRate, COMDAT
; _this$ = ecx

; 2586 : 	if ( (this->m_NewOption & 0x10) == 16 )

  00000	8a 41 7b	 mov	 al, BYTE PTR [ecx+123]
  00003	24 10		 and	 al, 16			; 00000010H
  00005	33 c9		 xor	 ecx, ecx
  00007	3c 10		 cmp	 al, 16			; 00000010H
  00009	0f 94 c1	 sete	 cl
  0000c	8b c1		 mov	 eax, ecx

; 2587 : 	{
; 2588 : 		return 1;
; 2589 : 	}
; 2590 : 
; 2591 : 	return 0;
; 2592 : }

  0000e	c3		 ret	 0
?IsExtAttackRate@CItem@@QAEHXZ ENDP			; CItem::IsExtAttackRate
_TEXT	ENDS
PUBLIC	?IsExtAttackRate2@CItem@@QAEHXZ			; CItem::IsExtAttackRate2
; Function compile flags: /Ogtp
;	COMDAT ?IsExtAttackRate2@CItem@@QAEHXZ
_TEXT	SEGMENT
?IsExtAttackRate2@CItem@@QAEHXZ PROC			; CItem::IsExtAttackRate2, COMDAT
; _this$ = ecx

; 2596 : 	if ( (this->m_NewOption & 8) == 8 )

  00000	8a 41 7b	 mov	 al, BYTE PTR [ecx+123]
  00003	24 08		 and	 al, 8
  00005	33 c9		 xor	 ecx, ecx
  00007	3c 08		 cmp	 al, 8
  00009	0f 95 c1	 setne	 cl
  0000c	8d 41 ff	 lea	 eax, DWORD PTR [ecx-1]
  0000f	83 e0 02	 and	 eax, 2

; 2597 : 	{
; 2598 : 		return 2;
; 2599 : 	}
; 2600 : 
; 2601 : 	return 0;
; 2602 : }

  00012	c3		 ret	 0
?IsExtAttackRate2@CItem@@QAEHXZ ENDP			; CItem::IsExtAttackRate2
_TEXT	ENDS
PUBLIC	?IsExtAttackSpeed@CItem@@QAEHXZ			; CItem::IsExtAttackSpeed
; Function compile flags: /Ogtp
;	COMDAT ?IsExtAttackSpeed@CItem@@QAEHXZ
_TEXT	SEGMENT
?IsExtAttackSpeed@CItem@@QAEHXZ PROC			; CItem::IsExtAttackSpeed, COMDAT
; _this$ = ecx

; 2606 : 	if ( (this->m_NewOption & 4) == 4 )

  00000	8a 41 7b	 mov	 al, BYTE PTR [ecx+123]
  00003	24 04		 and	 al, 4
  00005	33 c9		 xor	 ecx, ecx
  00007	3c 04		 cmp	 al, 4
  00009	0f 95 c1	 setne	 cl
  0000c	8d 41 ff	 lea	 eax, DWORD PTR [ecx-1]
  0000f	83 e0 07	 and	 eax, 7

; 2607 : 	{
; 2608 : 		return 7;
; 2609 : 	}
; 2610 : 
; 2611 : 	return 0;
; 2612 : }

  00012	c3		 ret	 0
?IsExtAttackSpeed@CItem@@QAEHXZ ENDP			; CItem::IsExtAttackSpeed
_TEXT	ENDS
PUBLIC	?IsExtMonsterDieLife@CItem@@QAEHXZ		; CItem::IsExtMonsterDieLife
; Function compile flags: /Ogtp
;	COMDAT ?IsExtMonsterDieLife@CItem@@QAEHXZ
_TEXT	SEGMENT
?IsExtMonsterDieLife@CItem@@QAEHXZ PROC			; CItem::IsExtMonsterDieLife, COMDAT
; _this$ = ecx

; 2617 : 	if ( (this->m_NewOption & 2) == 2 )

  00000	8a 41 7b	 mov	 al, BYTE PTR [ecx+123]
  00003	24 02		 and	 al, 2
  00005	33 c9		 xor	 ecx, ecx
  00007	3c 02		 cmp	 al, 2
  00009	0f 94 c1	 sete	 cl
  0000c	8b c1		 mov	 eax, ecx

; 2618 : 	{
; 2619 : 		return 1;
; 2620 : 	}
; 2621 : 
; 2622 : 	return 0;
; 2623 : }

  0000e	c3		 ret	 0
?IsExtMonsterDieLife@CItem@@QAEHXZ ENDP			; CItem::IsExtMonsterDieLife
_TEXT	ENDS
PUBLIC	?IsExtMonsterDieMana@CItem@@QAEHXZ		; CItem::IsExtMonsterDieMana
; Function compile flags: /Ogtp
;	COMDAT ?IsExtMonsterDieMana@CItem@@QAEHXZ
_TEXT	SEGMENT
?IsExtMonsterDieMana@CItem@@QAEHXZ PROC			; CItem::IsExtMonsterDieMana, COMDAT
; _this$ = ecx

; 2628 : 	if ( this->m_Type >= ITEMGET(6,0) && this->m_Type < ITEMGET(7,0) )

  00000	0f b7 41 06	 movzx	 eax, WORD PTR [ecx+6]
  00004	ba 00 0c 00 00	 mov	 edx, 3072		; 00000c00H
  00009	66 3b c2	 cmp	 ax, dx
  0000c	7c 0d		 jl	 SHORT $LN2@IsExtMonst
  0000e	ba 00 0e 00 00	 mov	 edx, 3584		; 00000e00H
  00013	66 3b c2	 cmp	 ax, dx
  00016	7d 03		 jge	 SHORT $LN2@IsExtMonst

; 2629 : 	{
; 2630 : 		return 0;

  00018	33 c0		 xor	 eax, eax

; 2634 : 	{
; 2635 : 		return 1;
; 2636 : 	}
; 2637 : 	return 0;
; 2638 : }

  0001a	c3		 ret	 0
$LN2@IsExtMonst:

; 2631 : 	}
; 2632 : 
; 2633 : 	if ( (this->m_NewOption & 1) == 1 )

  0001b	8a 41 7b	 mov	 al, BYTE PTR [ecx+123]
  0001e	24 01		 and	 al, 1
  00020	33 c9		 xor	 ecx, ecx
  00022	3c 01		 cmp	 al, 1
  00024	0f 94 c1	 sete	 cl
  00027	8b c1		 mov	 eax, ecx

; 2634 : 	{
; 2635 : 		return 1;
; 2636 : 	}
; 2637 : 	return 0;
; 2638 : }

  00029	c3		 ret	 0
?IsExtMonsterDieMana@CItem@@QAEHXZ ENDP			; CItem::IsExtMonsterDieMana
_TEXT	ENDS
PUBLIC	__real@3f800000
PUBLIC	?IsWingOpGetOnePercentDamage@CItem@@QAEHXZ	; CItem::IsWingOpGetOnePercentDamage
;	COMDAT __real@3f800000
CONST	SEGMENT
__real@3f800000 DD 03f800000r			; 1
; Function compile flags: /Ogtp
CONST	ENDS
;	COMDAT ?IsWingOpGetOnePercentDamage@CItem@@QAEHXZ
_TEXT	SEGMENT
?IsWingOpGetOnePercentDamage@CItem@@QAEHXZ PROC		; CItem::IsWingOpGetOnePercentDamage, COMDAT
; _this$ = ecx

; 2642 : 	if ( this->m_Durability  < 1.0f )

  00000	d9 e8		 fld1
  00002	d8 59 24	 fcomp	 DWORD PTR [ecx+36]
  00005	df e0		 fnstsw	 ax
  00007	f6 c4 41	 test	 ah, 65			; 00000041H
  0000a	75 03		 jne	 SHORT $LN2@IsWingOpGe

; 2643 : 	{
; 2644 : 		return 0;

  0000c	33 c0		 xor	 eax, eax

; 2648 : 	{
; 2649 : 		return 3;
; 2650 : 	}
; 2651 : 	return 0;
; 2652 : }

  0000e	c3		 ret	 0
$LN2@IsWingOpGe:

; 2645 : 	}
; 2646 : 
; 2647 : 	if ( (this->m_NewOption & 4)!= 0 )

  0000f	8a 41 7b	 mov	 al, BYTE PTR [ecx+123]
  00012	24 04		 and	 al, 4
  00014	0f b6 c0	 movzx	 eax, al
  00017	f7 d8		 neg	 eax
  00019	1b c0		 sbb	 eax, eax
  0001b	83 e0 03	 and	 eax, 3

; 2648 : 	{
; 2649 : 		return 3;
; 2650 : 	}
; 2651 : 	return 0;
; 2652 : }

  0001e	c3		 ret	 0
?IsWingOpGetOnePercentDamage@CItem@@QAEHXZ ENDP		; CItem::IsWingOpGetOnePercentDamage
_TEXT	ENDS
PUBLIC	?IsWingOpGetManaToMoster@CItem@@QAEHXZ		; CItem::IsWingOpGetManaToMoster
; Function compile flags: /Ogtp
;	COMDAT ?IsWingOpGetManaToMoster@CItem@@QAEHXZ
_TEXT	SEGMENT
?IsWingOpGetManaToMoster@CItem@@QAEHXZ PROC		; CItem::IsWingOpGetManaToMoster, COMDAT
; _this$ = ecx

; 2656 : 	if ( this->m_Durability < 1.0f )

  00000	d9 e8		 fld1
  00002	d8 59 24	 fcomp	 DWORD PTR [ecx+36]
  00005	df e0		 fnstsw	 ax
  00007	f6 c4 41	 test	 ah, 65			; 00000041H
  0000a	75 03		 jne	 SHORT $LN2@IsWingOpGe@2

; 2657 : 	{
; 2658 : 		return 0;

  0000c	33 c0		 xor	 eax, eax

; 2662 : 	{
; 2663 : 		return 10;
; 2664 : 	}
; 2665 : 	return 0;
; 2666 : }

  0000e	c3		 ret	 0
$LN2@IsWingOpGe@2:

; 2659 : 	}
; 2660 : 
; 2661 : 	if ( (this->m_NewOption & 16 ) == 1 )

  0000f	8a 41 7b	 mov	 al, BYTE PTR [ecx+123]
  00012	24 10		 and	 al, 16			; 00000010H
  00014	fe c8		 dec	 al
  00016	0f b6 c0	 movzx	 eax, al
  00019	f7 d8		 neg	 eax
  0001b	1b c0		 sbb	 eax, eax
  0001d	83 e0 f6	 and	 eax, -10		; fffffff6H
  00020	83 c0 0a	 add	 eax, 10			; 0000000aH

; 2662 : 	{
; 2663 : 		return 10;
; 2664 : 	}
; 2665 : 	return 0;
; 2666 : }

  00023	c3		 ret	 0
?IsWingOpGetManaToMoster@CItem@@QAEHXZ ENDP		; CItem::IsWingOpGetManaToMoster
_TEXT	ENDS
PUBLIC	?IsDinorantReduceAttackDamaege@CItem@@QAEHXZ	; CItem::IsDinorantReduceAttackDamaege
; Function compile flags: /Ogtp
;	COMDAT ?IsDinorantReduceAttackDamaege@CItem@@QAEHXZ
_TEXT	SEGMENT
?IsDinorantReduceAttackDamaege@CItem@@QAEHXZ PROC	; CItem::IsDinorantReduceAttackDamaege, COMDAT
; _this$ = ecx

; 2670 : 	if ( this->m_Durability  < 1.0f )

  00000	d9 e8		 fld1
  00002	d8 59 24	 fcomp	 DWORD PTR [ecx+36]
  00005	df e0		 fnstsw	 ax
  00007	f6 c4 41	 test	 ah, 65			; 00000041H
  0000a	75 03		 jne	 SHORT $LN2@IsDinorant

; 2671 : 	{
; 2672 : 		return 0;

  0000c	33 c0		 xor	 eax, eax

; 2676 : 	{
; 2677 : 		return 5;
; 2678 : 	}
; 2679 : 	return 0;
; 2680 : }

  0000e	c3		 ret	 0
$LN2@IsDinorant:

; 2673 : 	}
; 2674 : 
; 2675 : 	if ( (this->m_NewOption & 1 ) == 1 )

  0000f	8a 41 7b	 mov	 al, BYTE PTR [ecx+123]
  00012	24 01		 and	 al, 1
  00014	fe c8		 dec	 al
  00016	0f b6 c0	 movzx	 eax, al
  00019	f7 d8		 neg	 eax
  0001b	1b c0		 sbb	 eax, eax
  0001d	83 e0 fb	 and	 eax, -5			; fffffffbH
  00020	83 c0 05	 add	 eax, 5

; 2676 : 	{
; 2677 : 		return 5;
; 2678 : 	}
; 2679 : 	return 0;
; 2680 : }

  00023	c3		 ret	 0
?IsDinorantReduceAttackDamaege@CItem@@QAEHXZ ENDP	; CItem::IsDinorantReduceAttackDamaege
_TEXT	ENDS
PUBLIC	?BufferItemtoConvert3@@YAXPAEAAHAAE2222@Z	; BufferItemtoConvert3
; Function compile flags: /Ogtp
;	COMDAT ?BufferItemtoConvert3@@YAXPAEAAHAAE2222@Z
_TEXT	SEGMENT
_buf$ = 8						; size = 4
_type$ = 12						; size = 4
_level$ = 16						; size = 4
_op1$ = 20						; size = 4
_op2$ = 24						; size = 4
_op3$ = 28						; size = 4
_dur$ = 32						; size = 4
?BufferItemtoConvert3@@YAXPAEAAHAAE2222@Z PROC		; BufferItemtoConvert3, COMDAT

; 3021 : {

  00000	55		 push	 ebp
  00001	8b ec		 mov	 ebp, esp

; 3027 : 	dur = buf[2];

  00003	56		 push	 esi

; 3022 : 	type = buf[0] + ((buf[3]&0x80)*2)+((buf[5]&0xF0)<<5);

  00004	8b 45 08	 mov	 eax, DWORD PTR _buf$[ebp]
  00007	0f b6 48 05	 movzx	 ecx, BYTE PTR [eax+5]
  0000b	0f b6 50 03	 movzx	 edx, BYTE PTR [eax+3]
  0000f	81 e1 f0 00 00
	00		 and	 ecx, 240		; 000000f0H
  00015	c1 e1 04	 shl	 ecx, 4
  00018	81 e2 80 00 00
	00		 and	 edx, 128		; 00000080H
  0001e	03 ca		 add	 ecx, edx
  00020	0f b6 10	 movzx	 edx, BYTE PTR [eax]
  00023	8d 0c 4a	 lea	 ecx, DWORD PTR [edx+ecx*2]
  00026	8b 55 0c	 mov	 edx, DWORD PTR _type$[ebp]
  00029	89 0a		 mov	 DWORD PTR [edx], ecx

; 3023 : 	level = (buf[1]>>3) & 15;

  0002b	0f b6 48 01	 movzx	 ecx, BYTE PTR [eax+1]
  0002f	8b 55 10	 mov	 edx, DWORD PTR _level$[ebp]
  00032	c0 e9 03	 shr	 cl, 3
  00035	80 e1 0f	 and	 cl, 15			; 0000000fH
  00038	88 0a		 mov	 BYTE PTR [edx], cl

; 3024 : 	op1 = (buf[1]>>7) & 1;

  0003a	0f b6 48 01	 movzx	 ecx, BYTE PTR [eax+1]
  0003e	8b 55 14	 mov	 edx, DWORD PTR _op1$[ebp]
  00041	c0 e9 07	 shr	 cl, 7
  00044	88 0a		 mov	 BYTE PTR [edx], cl

; 3025 : 	op2 = (buf[1]>>2) & 1;

  00046	0f b6 48 01	 movzx	 ecx, BYTE PTR [eax+1]
  0004a	8b 55 18	 mov	 edx, DWORD PTR _op2$[ebp]
  0004d	c0 e9 02	 shr	 cl, 2
  00050	80 e1 01	 and	 cl, 1
  00053	88 0a		 mov	 BYTE PTR [edx], cl

; 3026 : 	op3 = (buf[1] & 3 );

  00055	0f b6 50 01	 movzx	 edx, BYTE PTR [eax+1]
  00059	8b 4d 1c	 mov	 ecx, DWORD PTR _op3$[ebp]
  0005c	80 e2 03	 and	 dl, 3
  0005f	88 11		 mov	 BYTE PTR [ecx], dl

; 3027 : 	dur = buf[2];

  00061	0f b6 50 02	 movzx	 edx, BYTE PTR [eax+2]
  00065	8b 75 20	 mov	 esi, DWORD PTR _dur$[ebp]
  00068	88 16		 mov	 BYTE PTR [esi], dl

; 3028 : //fix +28
; 3029 : 	//if (type == ITEMGET(13, 3) ) // Dinorant
; 3030 : 	//{
; 3031 : 		op3 |= (buf[3] & 0x40) >> 4;

  0006a	8a 40 03	 mov	 al, BYTE PTR [eax+3]
  0006d	c0 e8 04	 shr	 al, 4
  00070	24 04		 and	 al, 4
  00072	08 01		 or	 BYTE PTR [ecx], al
  00074	5e		 pop	 esi

; 3032 : 	//}
; 3033 : 	//else
; 3034 : 	//{
; 3035 : 	//	if ((buf[3] & 0x40) == 0x40 )
; 3036 : 	//	{
; 3037 : 	//		op3 = 4;
; 3038 : 	//	}
; 3039 : 	//}
; 3040 : }

  00075	5d		 pop	 ebp
  00076	c3		 ret	 0
?BufferItemtoConvert3@@YAXPAEAAHAAE2222@Z ENDP		; BufferItemtoConvert3
_TEXT	ENDS
PUBLIC	?ItemByteConvert7@@YAXPAEQAVCItem@@H@Z		; ItemByteConvert7
; Function compile flags: /Ogtp
;	COMDAT ?ItemByteConvert7@@YAXPAEQAVCItem@@H@Z
_TEXT	SEGMENT
tv591 = -4						; size = 4
tv589 = -4						; size = 4
_buf$ = 8						; size = 4
_item$ = 12						; size = 4
_maxitem$ = 16						; size = 4
tv594 = 18						; size = 2
?ItemByteConvert7@@YAXPAEQAVCItem@@H@Z PROC		; ItemByteConvert7, COMDAT

; 3043 : {

  00000	55		 push	 ebp
  00001	8b ec		 mov	 ebp, esp
  00003	51		 push	 ecx
  00004	57		 push	 edi

; 3045 : 	WORD hiWord;
; 3046 : 	WORD loWord;
; 3047 : 
; 3048 : 	for (int index = 0; index < maxitem ; index++ )

  00005	8b 7d 10	 mov	 edi, DWORD PTR _maxitem$[ebp]
  00008	85 ff		 test	 edi, edi
  0000a	0f 8e 9d 00 00
	00		 jle	 $LN1@ItemByteCo

; 3044 : 	int n = 0;

  00010	8b 4d 08	 mov	 ecx, DWORD PTR _buf$[ebp]
  00013	53		 push	 ebx
  00014	56		 push	 esi
  00015	8b 75 0c	 mov	 esi, DWORD PTR _item$[ebp]
  00018	83 c6 08	 add	 esi, 8
  0001b	eb 03 8d 49 00	 npad	 5
$LL8@ItemByteCo:

; 3049 : 	{
; 3050 : 		buf[n] = item[index].m_Type;

  00020	0f b6 46 fe	 movzx	 eax, BYTE PTR [esi-2]

; 3051 : 		n++;
; 3052 : 		buf[n] = 0;
; 3053 : 		buf[n] |= item[index].m_Level * 8;
; 3054 : 		buf[n] |= item[index].m_Option1 * 128;
; 3055 : 		buf[n] |= item[index].m_Option2 * 4;
; 3056 : 		buf[n] |= item[index].m_Option3;
; 3057 : 		n++;
; 3058 : 		buf[n] = item[index].m_Durability;

  00024	d9 7d 12	 fnstcw	 WORD PTR tv594[ebp]
  00027	88 01		 mov	 BYTE PTR [ecx], al
  00029	c6 41 01 00	 mov	 BYTE PTR [ecx+1], 0
  0002d	8a 16		 mov	 dl, BYTE PTR [esi]
  0002f	02 d2		 add	 dl, dl
  00031	02 d2		 add	 dl, dl
  00033	02 d2		 add	 dl, dl
  00035	88 51 01	 mov	 BYTE PTR [ecx+1], dl
  00038	8a 46 70	 mov	 al, BYTE PTR [esi+112]
  0003b	c0 e0 07	 shl	 al, 7
  0003e	0a c2		 or	 al, dl
  00040	88 41 01	 mov	 BYTE PTR [ecx+1], al
  00043	8a 56 71	 mov	 dl, BYTE PTR [esi+113]
  00046	02 d2		 add	 dl, dl
  00048	02 d2		 add	 dl, dl
  0004a	0a d0		 or	 dl, al
  0004c	88 51 01	 mov	 BYTE PTR [ecx+1], dl
  0004f	0f b6 46 72	 movzx	 eax, BYTE PTR [esi+114]
  00053	0a c2		 or	 al, dl
  00055	88 41 01	 mov	 BYTE PTR [ecx+1], al
  00058	0f b7 45 12	 movzx	 eax, WORD PTR tv594[ebp]
  0005c	d9 46 1c	 fld	 DWORD PTR [esi+28]
  0005f	0d 00 0c 00 00	 or	 eax, 3072		; 00000c00H
  00064	89 45 fc	 mov	 DWORD PTR tv591[ebp], eax

; 3059 : 		n++;
; 3060 : 		hiWord = item[index].m_Number >> 16;
; 3061 : 		loWord = item[index].m_Number & 0xFFFF;
; 3062 : 		buf[n] = SET_NUMBERH(hiWord);
; 3063 : 		n++;
; 3064 : 		buf[n] = SET_NUMBERL(hiWord);
; 3065 : 		n++;
; 3066 : 		buf[n] = SET_NUMBERH(loWord);
; 3067 : 		n++;
; 3068 : 		buf[n] = SET_NUMBERL(loWord);
; 3069 : 		n++;

  00067	83 c1 07	 add	 ecx, 7
  0006a	81 c6 a8 00 00
	00		 add	 esi, 168		; 000000a8H
  00070	d9 6d fc	 fldcw	 WORD PTR tv591[ebp]
  00073	db 5d fc	 fistp	 DWORD PTR tv589[ebp]
  00076	0f b6 55 fc	 movzx	 edx, BYTE PTR tv589[ebp]
  0007a	88 51 fb	 mov	 BYTE PTR [ecx-5], dl
  0007d	0f b7 86 52 ff
	ff ff		 movzx	 eax, WORD PTR [esi-174]
  00084	d9 6d 12	 fldcw	 WORD PTR tv594[ebp]
  00087	0f b7 96 50 ff
	ff ff		 movzx	 edx, WORD PTR [esi-176]
  0008e	8b d8		 mov	 ebx, eax
  00090	c1 eb 08	 shr	 ebx, 8
  00093	88 59 fc	 mov	 BYTE PTR [ecx-4], bl
  00096	88 41 fd	 mov	 BYTE PTR [ecx-3], al
  00099	8b c2		 mov	 eax, edx
  0009b	c1 e8 08	 shr	 eax, 8
  0009e	4f		 dec	 edi
  0009f	88 41 fe	 mov	 BYTE PTR [ecx-2], al
  000a2	88 51 ff	 mov	 BYTE PTR [ecx-1], dl
  000a5	0f 85 75 ff ff
	ff		 jne	 $LL8@ItemByteCo
  000ab	5e		 pop	 esi
  000ac	5b		 pop	 ebx
$LN1@ItemByteCo:
  000ad	5f		 pop	 edi

; 3070 : 	}
; 3071 : }

  000ae	8b e5		 mov	 esp, ebp
  000b0	5d		 pop	 ebp
  000b1	c3		 ret	 0
?ItemByteConvert7@@YAXPAEQAVCItem@@H@Z ENDP		; ItemByteConvert7
_TEXT	ENDS
PUBLIC	?ItemByteConvert10@@YAXPAEQAVCItem@@H@Z		; ItemByteConvert10
; Function compile flags: /Ogtp
;	COMDAT ?ItemByteConvert10@@YAXPAEQAVCItem@@H@Z
_TEXT	SEGMENT
tv918 = -8						; size = 4
tv916 = -8						; size = 4
tv232 = -4						; size = 4
_buf$ = 8						; size = 4
_item$ = 12						; size = 4
_maxitem$ = 16						; size = 4
tv922 = 18						; size = 2
?ItemByteConvert10@@YAXPAEQAVCItem@@H@Z PROC		; ItemByteConvert10, COMDAT

; 3074 : {

  00000	55		 push	 ebp
  00001	8b ec		 mov	 ebp, esp

; 3076 : 	WORD hiWord;
; 3077 : 	WORD loWord;
; 3078 : 	int index;
; 3079 : 
; 3080 : 	for (index = 0; index < maxitem ; index++ )

  00003	8b 45 10	 mov	 eax, DWORD PTR _maxitem$[ebp]
  00006	83 ec 08	 sub	 esp, 8
  00009	33 c9		 xor	 ecx, ecx
  0000b	85 c0		 test	 eax, eax
  0000d	0f 8e 41 01 00
	00		 jle	 $LN7@ItemByteCo@2

; 3075 : 	int n = 0;

  00013	53		 push	 ebx
  00014	56		 push	 esi
  00015	8b 75 08	 mov	 esi, DWORD PTR _buf$[ebp]
  00018	57		 push	 edi
  00019	8b 7d 0c	 mov	 edi, DWORD PTR _item$[ebp]
  0001c	89 45 fc	 mov	 DWORD PTR tv232[ebp], eax
  0001f	83 c7 08	 add	 edi, 8
  00022	b8 ff 00 00 00	 mov	 eax, 255		; 000000ffH
  00027	eb 07 8d a4 24
	00 00 00 00	 npad	 9
$LL9@ItemByteCo@2:

; 3081 : 	{
; 3082 : 		if ( item[index].m_Type == ITEMGET(13,19) )

  00030	0f b7 57 fe	 movzx	 edx, WORD PTR [edi-2]
  00034	bb 13 1a 00 00	 mov	 ebx, 6675		; 00001a13H
  00039	66 3b d3	 cmp	 dx, bx
  0003c	75 35		 jne	 SHORT $LN16@ItemByteCo@2

; 3083 : 		{
; 3084 : 			if ( (item[index].m_Level < 0)? FALSE : ( item[index].m_Level > 2)? FALSE : TRUE  )

  0003e	0f b7 17	 movzx	 edx, WORD PTR [edi]
  00041	66 85 d2	 test	 dx, dx
  00044	78 2d		 js	 SHORT $LN16@ItemByteCo@2
  00046	33 db		 xor	 ebx, ebx
  00048	66 83 fa 02	 cmp	 dx, 2
  0004c	0f 9e c3	 setle	 bl
  0004f	8b d3		 mov	 edx, ebx
  00051	85 d2		 test	 edx, edx
  00053	74 1e		 je	 SHORT $LN16@ItemByteCo@2
$LN18@ItemByteCo@2:

; 3085 : 			{
; 3086 : 				buf[n] = -1;

  00055	c7 04 31 ff ff
	ff ff		 mov	 DWORD PTR [ecx+esi], -1

; 3087 : 				buf[n+1] = -1;
; 3088 : 				buf[n+2] = -1;
; 3089 : 				buf[n+3] = -1;
; 3090 : 				buf[n+4] = -1;

  0005c	c7 44 31 04 ff
	ff ff ff	 mov	 DWORD PTR [ecx+esi+4], -1

; 3091 : 				buf[n+5] = -1;
; 3092 : 				buf[n+6] = -1;
; 3093 : 				buf[n+7] = -1;
; 3094 : 				buf[n+8] = -1;

  00064	66 c7 44 31 08
	ff ff		 mov	 WORD PTR [ecx+esi+8], 65535 ; 0000ffffH

; 3095 : 				buf[n+9] = -1;
; 3096 : 				n += 16;

  0006b	83 c1 10	 add	 ecx, 16			; 00000010H

; 3097 : 				continue;

  0006e	e9 cf 00 00 00	 jmp	 $LN8@ItemByteCo@2
$LN16@ItemByteCo@2:

; 3098 : 			}
; 3099 : 		}
; 3100 : 		
; 3101 : 		if ( item[index].m_Type <  0 )

  00073	0f b7 57 fe	 movzx	 edx, WORD PTR [edi-2]
  00077	66 85 d2	 test	 dx, dx

; 3102 : 		{
; 3103 : 			buf[n] = -1;
; 3104 : 			buf[n+1] = -1;
; 3105 : 			buf[n+2] = -1;
; 3106 : 			buf[n+3] = -1;
; 3107 : 			buf[n+4] = -1;
; 3108 : 			buf[n+5] = -1;
; 3109 : 			buf[n+6] = -1;
; 3110 : 			buf[n+7] = -1;
; 3111 : 			buf[n+8] = -1;
; 3112 : 			buf[n+9] = -1;
; 3113 : 			n += 16;
; 3114 : 		}
; 3115 : 		else

  0007a	78 d9		 js	 SHORT $LN18@ItemByteCo@2

; 3116 : 		{
; 3117 : 			buf[n] = (BYTE)item[index].m_Type % 256 ;

  0007c	0f b6 47 fe	 movzx	 eax, BYTE PTR [edi-2]
  00080	25 ff 00 00 80	 and	 eax, -2147483393	; 800000ffH
  00085	79 07		 jns	 SHORT $LN17@ItemByteCo@2
  00087	48		 dec	 eax
  00088	0d 00 ff ff ff	 or	 eax, -256		; ffffff00H
  0008d	40		 inc	 eax
$LN17@ItemByteCo@2:
  0008e	88 04 31	 mov	 BYTE PTR [ecx+esi], al

; 3118 : 			n++;
; 3119 : 			buf[n] = 0;
; 3120 : 			buf[n] |= item[index].m_Level * 8;
; 3121 : 			buf[n] |= item[index].m_Option1 * 128;
; 3122 : 			buf[n] |= item[index].m_Option2 * 4;
; 3123 : 			buf[n] |= item[index].m_Option3 & 3;
; 3124 : 			n++;
; 3125 : 			buf[n] = item[index].m_Durability;

  00091	d9 7d 12	 fnstcw	 WORD PTR tv922[ebp]
  00094	c6 44 31 01 00	 mov	 BYTE PTR [ecx+esi+1], 0
  00099	8a 17		 mov	 dl, BYTE PTR [edi]
  0009b	02 d2		 add	 dl, dl
  0009d	02 d2		 add	 dl, dl
  0009f	02 d2		 add	 dl, dl
  000a1	88 54 31 01	 mov	 BYTE PTR [ecx+esi+1], dl
  000a5	8a 47 70	 mov	 al, BYTE PTR [edi+112]
  000a8	c0 e0 07	 shl	 al, 7
  000ab	0a c2		 or	 al, dl
  000ad	88 44 31 01	 mov	 BYTE PTR [ecx+esi+1], al
  000b1	8a 57 71	 mov	 dl, BYTE PTR [edi+113]
  000b4	02 d2		 add	 dl, dl
  000b6	02 d2		 add	 dl, dl
  000b8	0a d0		 or	 dl, al
  000ba	88 54 31 01	 mov	 BYTE PTR [ecx+esi+1], dl
  000be	0f b6 47 72	 movzx	 eax, BYTE PTR [edi+114]
  000c2	24 03		 and	 al, 3
  000c4	0a c2		 or	 al, dl
  000c6	88 44 31 01	 mov	 BYTE PTR [ecx+esi+1], al
  000ca	0f b7 45 12	 movzx	 eax, WORD PTR tv922[ebp]
  000ce	d9 47 1c	 fld	 DWORD PTR [edi+28]
  000d1	0d 00 0c 00 00	 or	 eax, 3072		; 00000c00H
  000d6	89 45 f8	 mov	 DWORD PTR tv918[ebp], eax
  000d9	d9 6d f8	 fldcw	 WORD PTR tv918[ebp]
  000dc	db 5d f8	 fistp	 DWORD PTR tv916[ebp]
  000df	0f b6 55 f8	 movzx	 edx, BYTE PTR tv916[ebp]
  000e3	88 54 31 02	 mov	 BYTE PTR [ecx+esi+2], dl

; 3126 : 			n++;
; 3127 : 			hiWord = item[index].m_Number >> 16;

  000e7	0f b7 47 fa	 movzx	 eax, WORD PTR [edi-6]
  000eb	d9 6d 12	 fldcw	 WORD PTR tv922[ebp]

; 3128 : 			loWord = item[index].m_Number  & 0xFFFF;

  000ee	0f b7 57 f8	 movzx	 edx, WORD PTR [edi-8]

; 3129 : 			buf[n] = SET_NUMBERH(hiWord);

  000f2	8b d8		 mov	 ebx, eax
  000f4	c1 eb 08	 shr	 ebx, 8
  000f7	88 5c 31 03	 mov	 BYTE PTR [ecx+esi+3], bl

; 3130 : 			n++;
; 3131 : 			buf[n] = SET_NUMBERL(hiWord);

  000fb	88 44 31 04	 mov	 BYTE PTR [ecx+esi+4], al

; 3132 : 			n++;
; 3133 : 			buf[n] = SET_NUMBERH(loWord);

  000ff	8b c2		 mov	 eax, edx
  00101	c1 e8 08	 shr	 eax, 8
  00104	88 44 31 05	 mov	 BYTE PTR [ecx+esi+5], al

; 3134 : 			n++;
; 3135 : 			buf[n] = SET_NUMBERL(loWord);

  00108	88 54 31 06	 mov	 BYTE PTR [ecx+esi+6], dl

; 3136 : 			n++;
; 3137 : 			buf[n] = 0;
; 3138 : 
; 3139 : 			if ( item[index].m_Type > 255 )

  0010c	b8 ff 00 00 00	 mov	 eax, 255		; 000000ffH
  00111	c6 44 31 07 00	 mov	 BYTE PTR [ecx+esi+7], 0
  00116	66 39 47 fe	 cmp	 WORD PTR [edi-2], ax
  0011a	7e 05		 jle	 SHORT $LN2@ItemByteCo@2

; 3140 : 			{
; 3141 : 				buf[n] = 0x80;	// Second Type of Item

  0011c	c6 44 31 07 80	 mov	 BYTE PTR [ecx+esi+7], 128 ; 00000080H
$LN2@ItemByteCo@2:

; 3142 : 			}
; 3143 : 
; 3144 : 			if ( item[index].m_Option3 > 3 )

  00121	80 7f 72 03	 cmp	 BYTE PTR [edi+114], 3
  00125	76 05		 jbe	 SHORT $LN1@ItemByteCo@2

; 3145 : 			{
; 3146 : 				buf[n] |= 0x40;	// Duration ???

  00127	80 4c 31 07 40	 or	 BYTE PTR [ecx+esi+7], 64 ; 00000040H
$LN1@ItemByteCo@2:

; 3147 : 			}
; 3148 : 
; 3149 : 			buf[n] |= item[index].m_NewOption;

  0012c	0f b6 57 73	 movzx	 edx, BYTE PTR [edi+115]
  00130	08 54 31 07	 or	 BYTE PTR [ecx+esi+7], dl

; 3150 : 			n++;
; 3151 : 			buf[n] = item[index].m_SetOption;

  00134	0f b6 97 8a 00
	00 00		 movzx	 edx, BYTE PTR [edi+138]
  0013b	88 54 31 08	 mov	 BYTE PTR [ecx+esi+8], dl

; 3152 : 			n++;
; 3153 : 			n++;

  0013f	83 c1 0a	 add	 ecx, 10			; 0000000aH
$LN8@ItemByteCo@2:

; 3076 : 	WORD hiWord;
; 3077 : 	WORD loWord;
; 3078 : 	int index;
; 3079 : 
; 3080 : 	for (index = 0; index < maxitem ; index++ )

  00142	81 c7 a8 00 00
	00		 add	 edi, 168		; 000000a8H
  00148	ff 4d fc	 dec	 DWORD PTR tv232[ebp]
  0014b	0f 85 df fe ff
	ff		 jne	 $LL9@ItemByteCo@2
  00151	5f		 pop	 edi
  00152	5e		 pop	 esi
  00153	5b		 pop	 ebx
$LN7@ItemByteCo@2:

; 3154 : 		}
; 3155 : 	}
; 3156 : }

  00154	8b e5		 mov	 esp, ebp
  00156	5d		 pop	 ebp
  00157	c3		 ret	 0
?ItemByteConvert10@@YAXPAEQAVCItem@@H@Z ENDP		; ItemByteConvert10
_TEXT	ENDS
PUBLIC	?ItemByteConvert@@YAXPAEVCItem@@@Z		; ItemByteConvert
; Function compile flags: /Ogtp
;	COMDAT ?ItemByteConvert@@YAXPAEVCItem@@@Z
_TEXT	SEGMENT
tv329 = -4						; size = 4
tv327 = -4						; size = 4
_buf$ = 8						; size = 4
tv332 = 10						; size = 2
_item$ = 12						; size = 168
?ItemByteConvert@@YAXPAEVCItem@@@Z PROC			; ItemByteConvert, COMDAT

; 3159 : {

  00000	55		 push	 ebp
  00001	8b ec		 mov	 ebp, esp
  00003	51		 push	 ecx

; 3160 : 	int n=0;
; 3161 : 
; 3162 : 	memset(buf, 0, 7);

  00004	8b 4d 08	 mov	 ecx, DWORD PTR _buf$[ebp]

; 3163 : 	buf[n] = item.m_Type & 0xFF;
; 3164 : 	n++;
; 3165 : 	buf[n] = 0;
; 3166 : 	buf[n] |= item.m_Level * 8;
; 3167 : 	buf[n] |= item.m_Option1 * 128;
; 3168 : 	buf[n] |= item.m_Option2 * 4;
; 3169 : 	buf[n] |= item.m_Option3 & 3;
; 3170 : 	n++;
; 3171 : 	buf[n] = item.m_Durability;

  00007	d9 45 30	 fld	 DWORD PTR _item$[ebp+36]
  0000a	33 c0		 xor	 eax, eax
  0000c	d9 7d 0a	 fnstcw	 WORD PTR tv332[ebp]
  0000f	89 01		 mov	 DWORD PTR [ecx], eax
  00011	66 89 41 04	 mov	 WORD PTR [ecx+4], ax
  00015	88 41 06	 mov	 BYTE PTR [ecx+6], al
  00018	8a 45 14	 mov	 al, BYTE PTR _item$[ebp+8]
  0001b	8b 55 10	 mov	 edx, DWORD PTR _item$[ebp+4]
  0001e	02 c0		 add	 al, al
  00020	02 c0		 add	 al, al
  00022	53		 push	 ebx
  00023	8a 9d 84 00 00
	00		 mov	 bl, BYTE PTR _item$[ebp+120]
  00029	02 c0		 add	 al, al
  0002b	c0 e3 07	 shl	 bl, 7
  0002e	0a c3		 or	 al, bl
  00030	8a 9d 86 00 00
	00		 mov	 bl, BYTE PTR _item$[ebp+122]
  00036	80 e3 03	 and	 bl, 3
  00039	0a c3		 or	 al, bl
  0003b	8a 9d 85 00 00
	00		 mov	 bl, BYTE PTR _item$[ebp+121]
  00041	02 db		 add	 bl, bl
  00043	02 db		 add	 bl, bl
  00045	0a c3		 or	 al, bl
  00047	c1 ea 10	 shr	 edx, 16			; 00000010H
  0004a	88 11		 mov	 BYTE PTR [ecx], dl
  0004c	88 41 01	 mov	 BYTE PTR [ecx+1], al
  0004f	0f b7 45 0a	 movzx	 eax, WORD PTR tv332[ebp]
  00053	0d 00 0c 00 00	 or	 eax, 3072		; 00000c00H
  00058	89 45 fc	 mov	 DWORD PTR tv329[ebp], eax
  0005b	5b		 pop	 ebx
  0005c	d9 6d fc	 fldcw	 WORD PTR tv329[ebp]
  0005f	db 5d fc	 fistp	 DWORD PTR tv327[ebp]
  00062	0f b6 45 fc	 movzx	 eax, BYTE PTR tv327[ebp]
  00066	88 41 02	 mov	 BYTE PTR [ecx+2], al

; 3172 : 	n++;
; 3173 : 	buf[n] = 0;
; 3174 : 	buf[n] |= ((item.m_Type & 0x100) >> 1);

  00069	8b c2		 mov	 eax, edx
  0006b	d9 6d 0a	 fldcw	 WORD PTR tv332[ebp]
  0006e	d1 f8		 sar	 eax, 1
  00070	24 80		 and	 al, 128			; 00000080H

; 3175 : 
; 3176 : 	if ( item.m_Option3 > 3 )

  00072	80 bd 86 00 00
	00 03		 cmp	 BYTE PTR _item$[ebp+122], 3
  00079	88 41 03	 mov	 BYTE PTR [ecx+3], al
  0007c	76 05		 jbe	 SHORT $LN1@ItemByteCo@3

; 3177 : 	{
; 3178 : 		buf[n] |= 0x40; // item +16 option

  0007e	0c 40		 or	 al, 64			; 00000040H
  00080	88 41 03	 mov	 BYTE PTR [ecx+3], al
$LN1@ItemByteCo@3:

; 3179 : 	}
; 3180 : 
; 3181 : 	buf[n] |= item.m_NewOption;

  00083	8a 85 87 00 00
	00		 mov	 al, BYTE PTR _item$[ebp+123]
  00089	08 41 03	 or	 BYTE PTR [ecx+3], al

; 3182 : 	n++;
; 3183 : 	buf[n] = item.m_SetOption;

  0008c	8a 85 9e 00 00
	00		 mov	 al, BYTE PTR _item$[ebp+146]

; 3184 : 	n++;
; 3185 : 	buf[n] |= (item.m_Type & 0x1E00 ) >> 5;

  00092	c1 fa 05	 sar	 edx, 5
  00095	80 e2 f0	 and	 dl, 240			; 000000f0H
  00098	88 41 04	 mov	 BYTE PTR [ecx+4], al
  0009b	08 51 05	 or	 BYTE PTR [ecx+5], dl

; 3186 : }

  0009e	8b e5		 mov	 esp, ebp
  000a0	5d		 pop	 ebp
  000a1	c3		 ret	 0
?ItemByteConvert@@YAXPAEVCItem@@@Z ENDP			; ItemByteConvert
_TEXT	ENDS
PUBLIC	?ItemByteConvert@@YAXPAEHEEEEEEE@Z		; ItemByteConvert
; Function compile flags: /Ogtp
;	COMDAT ?ItemByteConvert@@YAXPAEHEEEEEEE@Z
_TEXT	SEGMENT
_buf$ = 8						; size = 4
_type$ = 12						; size = 4
_Option1$ = 16						; size = 1
_Option2$ = 20						; size = 1
_Option3$ = 24						; size = 1
_level$ = 28						; size = 1
_dur$ = 32						; size = 1
_Noption$ = 36						; size = 1
_SetOption$ = 40					; size = 1
?ItemByteConvert@@YAXPAEHEEEEEEE@Z PROC			; ItemByteConvert, COMDAT

; 3189 : {

  00000	55		 push	 ebp
  00001	8b ec		 mov	 ebp, esp

; 3190 : 	memset(buf, 0, 7);

  00003	8b 45 08	 mov	 eax, DWORD PTR _buf$[ebp]
  00006	33 c9		 xor	 ecx, ecx
  00008	89 08		 mov	 DWORD PTR [eax], ecx

; 3191 : 	int n = 0;
; 3192 : 
; 3193 : 	buf[n] = type & 0xFF;

  0000a	8b 55 0c	 mov	 edx, DWORD PTR _type$[ebp]
  0000d	66 89 48 04	 mov	 WORD PTR [eax+4], cx
  00011	88 48 06	 mov	 BYTE PTR [eax+6], cl

; 3194 : 	n++;
; 3195 : 	buf[n] = 0;
; 3196 : 	buf[n] |= level * 8;
; 3197 : 	buf[n] |= Option1 * 128;

  00014	8a 4d 10	 mov	 cl, BYTE PTR _Option1$[ebp]
  00017	53		 push	 ebx

; 3198 : 	buf[n] |= Option2 * 4;

  00018	8a 5d 14	 mov	 bl, BYTE PTR _Option2$[ebp]
  0001b	02 db		 add	 bl, bl
  0001d	02 db		 add	 bl, bl
  0001f	c0 e1 07	 shl	 cl, 7

; 3199 : 	buf[n] |= Option3 & 3;

  00022	0a cb		 or	 cl, bl
  00024	8a 5d 18	 mov	 bl, BYTE PTR _Option3$[ebp]
  00027	80 e3 03	 and	 bl, 3
  0002a	0a cb		 or	 cl, bl
  0002c	8a 5d 1c	 mov	 bl, BYTE PTR _level$[ebp]
  0002f	02 db		 add	 bl, bl
  00031	02 db		 add	 bl, bl
  00033	02 db		 add	 bl, bl
  00035	0a cb		 or	 cl, bl
  00037	88 10		 mov	 BYTE PTR [eax], dl
  00039	88 48 01	 mov	 BYTE PTR [eax+1], cl

; 3200 : 	n++;
; 3201 : 	buf[n] = dur;

  0003c	8a 4d 20	 mov	 cl, BYTE PTR _dur$[ebp]
  0003f	88 48 02	 mov	 BYTE PTR [eax+2], cl

; 3202 : 	n++;
; 3203 : 	buf[n] = 0;
; 3204 : 	buf[n] |= ((type& 0x100) >> 1);

  00042	8b ca		 mov	 ecx, edx
  00044	d1 f9		 sar	 ecx, 1
  00046	80 e1 80	 and	 cl, 128			; 00000080H

; 3205 : 
; 3206 : 	if ( Option3 > 3 )

  00049	80 7d 18 03	 cmp	 BYTE PTR _Option3$[ebp], 3
  0004d	88 48 03	 mov	 BYTE PTR [eax+3], cl
  00050	5b		 pop	 ebx
  00051	76 06		 jbe	 SHORT $LN1@ItemByteCo@4

; 3207 : 	{
; 3208 : 		buf[n] |= 0x40;

  00053	80 c9 40	 or	 cl, 64			; 00000040H
  00056	88 48 03	 mov	 BYTE PTR [eax+3], cl
$LN1@ItemByteCo@4:

; 3209 : 	}
; 3210 : 
; 3211 : 	buf[n] |= Noption;

  00059	8a 4d 24	 mov	 cl, BYTE PTR _Noption$[ebp]
  0005c	08 48 03	 or	 BYTE PTR [eax+3], cl

; 3212 : 	n++;
; 3213 : 	buf[n] = SetOption;

  0005f	8a 4d 28	 mov	 cl, BYTE PTR _SetOption$[ebp]

; 3214 : 	n++;
; 3215 : 	buf[n] |= (type & 0x1E00 ) >> 5;

  00062	c1 fa 05	 sar	 edx, 5
  00065	80 e2 f0	 and	 dl, 240			; 000000f0H
  00068	88 48 04	 mov	 BYTE PTR [eax+4], cl
  0006b	08 50 05	 or	 BYTE PTR [eax+5], dl

; 3216 : }

  0006e	5d		 pop	 ebp
  0006f	c3		 ret	 0
?ItemByteConvert@@YAXPAEHEEEEEEE@Z ENDP			; ItemByteConvert
_TEXT	ENDS
PUBLIC	?ItemByteConvert16@@YAXPAEQAVCItem@@H@Z		; ItemByteConvert16
; Function compile flags: /Ogtp
;	COMDAT ?ItemByteConvert16@@YAXPAEQAVCItem@@H@Z
_TEXT	SEGMENT
tv1116 = -8						; size = 4
tv130 = -8						; size = 4
tv90 = -4						; size = 4
_buf$ = 8						; size = 4
_item$ = 12						; size = 4
_maxitem$ = 16						; size = 4
tv1120 = 18						; size = 2
?ItemByteConvert16@@YAXPAEQAVCItem@@H@Z PROC		; ItemByteConvert16, COMDAT

; 3222 : {

  00000	55		 push	 ebp
  00001	8b ec		 mov	 ebp, esp

; 3224 : 	WORD hiWord, loWord;
; 3225 : 
; 3226 : 	for (int index = 0; index < maxitem; index++)

  00003	8b 45 10	 mov	 eax, DWORD PTR _maxitem$[ebp]
  00006	83 ec 08	 sub	 esp, 8
  00009	33 c9		 xor	 ecx, ecx
  0000b	85 c0		 test	 eax, eax
  0000d	0f 8e 7c 01 00
	00		 jle	 $LN6@ItemByteCo@5

; 3223 : 	int n = 0;

  00013	53		 push	 ebx
  00014	56		 push	 esi
  00015	8b 75 08	 mov	 esi, DWORD PTR _buf$[ebp]
  00018	57		 push	 edi
  00019	8b 7d 0c	 mov	 edi, DWORD PTR _item$[ebp]
  0001c	89 45 fc	 mov	 DWORD PTR tv90[ebp], eax
  0001f	83 c7 08	 add	 edi, 8
  00022	b0 ff		 mov	 al, 255			; 000000ffH
$LL8@ItemByteCo@5:

; 3227 : 	{
; 3228 : 		if (item[index].m_Type == ITEMGET(13, 19))

  00024	0f b7 57 fe	 movzx	 edx, WORD PTR [edi-2]
  00028	bb 13 1a 00 00	 mov	 ebx, 6675		; 00001a13H
  0002d	66 3b d3	 cmp	 dx, bx
  00030	75 5b		 jne	 SHORT $LN15@ItemByteCo@5

; 3229 : 		{
; 3230 : 			if (CHECK_LIMIT(item[index].m_Level, 3) != FALSE)

  00032	0f b7 17	 movzx	 edx, WORD PTR [edi]
  00035	66 85 d2	 test	 dx, dx
  00038	78 53		 js	 SHORT $LN15@ItemByteCo@5
  0003a	33 db		 xor	 ebx, ebx
  0003c	66 83 fa 02	 cmp	 dx, 2
  00040	0f 9e c3	 setle	 bl
  00043	8b d3		 mov	 edx, ebx
  00045	85 d2		 test	 edx, edx
  00047	74 44		 je	 SHORT $LN15@ItemByteCo@5
$LN18@ItemByteCo@5:

; 3231 : 			{
; 3232 : 				buf[n + 0] = -1;

  00049	88 04 31	 mov	 BYTE PTR [ecx+esi], al

; 3233 : 				buf[n + 1] = -1;

  0004c	88 44 31 01	 mov	 BYTE PTR [ecx+esi+1], al

; 3234 : 				buf[n + 2] = -1;

  00050	88 44 31 02	 mov	 BYTE PTR [ecx+esi+2], al

; 3235 : 				buf[n + 3] = -1;

  00054	88 44 31 03	 mov	 BYTE PTR [ecx+esi+3], al

; 3236 : 				buf[n + 4] = -1;

  00058	88 44 31 04	 mov	 BYTE PTR [ecx+esi+4], al

; 3237 : 				buf[n + 5] = -1;

  0005c	88 44 31 05	 mov	 BYTE PTR [ecx+esi+5], al

; 3238 : 				buf[n + 6] = -1;

  00060	88 44 31 06	 mov	 BYTE PTR [ecx+esi+6], al

; 3239 : 				buf[n + 7] = -1;

  00064	88 44 31 07	 mov	 BYTE PTR [ecx+esi+7], al

; 3240 : 				buf[n + 8] = -1;

  00068	88 44 31 08	 mov	 BYTE PTR [ecx+esi+8], al

; 3241 : 				buf[n + 9] = -1;

  0006c	88 44 31 09	 mov	 BYTE PTR [ecx+esi+9], al

; 3242 : 				buf[n + 10] = -1;

  00070	88 44 31 0a	 mov	 BYTE PTR [ecx+esi+10], al

; 3243 : 				buf[n + 11] = -1;

  00074	88 44 31 0b	 mov	 BYTE PTR [ecx+esi+11], al

; 3244 : 				buf[n + 12] = -1;

  00078	88 44 31 0c	 mov	 BYTE PTR [ecx+esi+12], al

; 3245 : 				buf[n + 13] = -1;

  0007c	88 44 31 0d	 mov	 BYTE PTR [ecx+esi+13], al

; 3246 : 				buf[n + 14] = -1;

  00080	88 44 31 0e	 mov	 BYTE PTR [ecx+esi+14], al

; 3247 : 				buf[n + 15] = -1;

  00084	88 44 31 0f	 mov	 BYTE PTR [ecx+esi+15], al

; 3248 : 				n += 16;
; 3249 : 
; 3250 : 				continue;

  00088	e9 ed 00 00 00	 jmp	 $LN17@ItemByteCo@5
$LN15@ItemByteCo@5:

; 3251 : 			}
; 3252 : 		}
; 3253 : 
; 3254 : 		if (item[index].m_Type < ITEMGET(0, 0))

  0008d	0f b7 57 fe	 movzx	 edx, WORD PTR [edi-2]
  00091	66 85 d2	 test	 dx, dx

; 3255 : 		{
; 3256 : 			buf[n + 0] = -1;
; 3257 : 			buf[n + 1] = -1;
; 3258 : 			buf[n + 2] = -1;
; 3259 : 			buf[n + 3] = -1;
; 3260 : 			buf[n + 4] = -1;
; 3261 : 			buf[n + 5] = -1;
; 3262 : 			buf[n + 6] = -1;
; 3263 : 			buf[n + 7] = -1;
; 3264 : 			buf[n + 8] = -1;
; 3265 : 			buf[n + 9] = -1;
; 3266 : 			buf[n + 10] = -1;
; 3267 : 			buf[n + 11] = -1;
; 3268 : 			buf[n + 12] = -1;
; 3269 : 			buf[n + 13] = -1;
; 3270 : 			buf[n + 14] = -1;
; 3271 : 			buf[n + 15] = -1;
; 3272 : 			n += 16;
; 3273 : 		}
; 3274 : 		else

  00094	78 b3		 js	 SHORT $LN18@ItemByteCo@5

; 3275 : 		{
; 3276 : 			memset(buf + n, 0, 16);

  00096	33 c0		 xor	 eax, eax
  00098	89 04 31	 mov	 DWORD PTR [ecx+esi], eax
  0009b	89 44 31 04	 mov	 DWORD PTR [ecx+esi+4], eax
  0009f	89 44 31 08	 mov	 DWORD PTR [ecx+esi+8], eax
  000a3	89 44 31 0c	 mov	 DWORD PTR [ecx+esi+12], eax

; 3277 : 
; 3278 : 			buf[n] = (BYTE)item[index].m_Type % 256;

  000a7	0f b6 47 fe	 movzx	 eax, BYTE PTR [edi-2]
  000ab	25 ff 00 00 80	 and	 eax, -2147483393	; 800000ffH
  000b0	79 07		 jns	 SHORT $LN16@ItemByteCo@5
  000b2	48		 dec	 eax
  000b3	0d 00 ff ff ff	 or	 eax, -256		; ffffff00H
  000b8	40		 inc	 eax
$LN16@ItemByteCo@5:
  000b9	88 04 31	 mov	 BYTE PTR [ecx+esi], al

; 3279 : 			n++;
; 3280 : 			buf[n] = 0;
; 3281 : 			buf[n] |= item[index].m_Level * 8;
; 3282 : 			buf[n] |= item[index].m_Option1 * 128;
; 3283 : 			buf[n] |= item[index].m_Option2 * 4;
; 3284 : 			buf[n] |= item[index].m_Option3 & 3;
; 3285 : 			n++;
; 3286 : 			buf[n] = item[index].m_Durability;

  000bc	d9 7d 12	 fnstcw	 WORD PTR tv1120[ebp]
  000bf	c6 44 31 01 00	 mov	 BYTE PTR [ecx+esi+1], 0
  000c4	8a 17		 mov	 dl, BYTE PTR [edi]
  000c6	02 d2		 add	 dl, dl
  000c8	02 d2		 add	 dl, dl
  000ca	02 d2		 add	 dl, dl
  000cc	88 54 31 01	 mov	 BYTE PTR [ecx+esi+1], dl
  000d0	8a 47 70	 mov	 al, BYTE PTR [edi+112]
  000d3	c0 e0 07	 shl	 al, 7
  000d6	0a c2		 or	 al, dl
  000d8	88 44 31 01	 mov	 BYTE PTR [ecx+esi+1], al
  000dc	8a 57 71	 mov	 dl, BYTE PTR [edi+113]
  000df	02 d2		 add	 dl, dl
  000e1	02 d2		 add	 dl, dl
  000e3	0a d0		 or	 dl, al
  000e5	88 54 31 01	 mov	 BYTE PTR [ecx+esi+1], dl
  000e9	0f b6 47 72	 movzx	 eax, BYTE PTR [edi+114]
  000ed	24 03		 and	 al, 3
  000ef	0a c2		 or	 al, dl
  000f1	88 44 31 01	 mov	 BYTE PTR [ecx+esi+1], al
  000f5	0f b7 45 12	 movzx	 eax, WORD PTR tv1120[ebp]
  000f9	d9 47 1c	 fld	 DWORD PTR [edi+28]
  000fc	0d 00 0c 00 00	 or	 eax, 3072		; 00000c00H
  00101	89 45 f8	 mov	 DWORD PTR tv130[ebp], eax
  00104	d9 6d f8	 fldcw	 WORD PTR tv130[ebp]
  00107	db 5d f8	 fistp	 DWORD PTR tv1116[ebp]
  0010a	0f b6 55 f8	 movzx	 edx, BYTE PTR tv1116[ebp]
  0010e	88 54 31 02	 mov	 BYTE PTR [ecx+esi+2], dl

; 3287 : 			n++;
; 3288 : 			hiWord = item[index].m_Number >> 16;

  00112	0f b7 47 fa	 movzx	 eax, WORD PTR [edi-6]
  00116	d9 6d 12	 fldcw	 WORD PTR tv1120[ebp]

; 3289 : 			loWord = item[index].m_Number & 0xFFFF;

  00119	0f b7 57 f8	 movzx	 edx, WORD PTR [edi-8]

; 3290 : 			buf[n] = SET_NUMBERH(hiWord);

  0011d	8b d8		 mov	 ebx, eax
  0011f	c1 eb 08	 shr	 ebx, 8
  00122	88 5c 31 03	 mov	 BYTE PTR [ecx+esi+3], bl

; 3291 : 			n++;
; 3292 : 			buf[n] = SET_NUMBERL(hiWord);

  00126	88 44 31 04	 mov	 BYTE PTR [ecx+esi+4], al

; 3293 : 			n++;
; 3294 : 			buf[n] = SET_NUMBERH(loWord);

  0012a	8b c2		 mov	 eax, edx
  0012c	c1 e8 08	 shr	 eax, 8
  0012f	88 44 31 05	 mov	 BYTE PTR [ecx+esi+5], al

; 3295 : 			n++;
; 3296 : 			buf[n] = SET_NUMBERL(loWord);

  00133	88 54 31 06	 mov	 BYTE PTR [ecx+esi+6], dl

; 3297 : 			n++;
; 3298 : 			buf[n] = 0;

  00137	c6 44 31 07 00	 mov	 BYTE PTR [ecx+esi+7], 0

; 3299 : 			BYTE btItemType = 0;
; 3300 : 			btItemType |= (item[index].m_Type & 0x1E00) >> 5;

  0013c	0f b7 47 fe	 movzx	 eax, WORD PTR [edi-2]
  00140	8b d0		 mov	 edx, eax

; 3301 : 			buf[n] |= ((item[index].m_Type & 0x100) >> 1);

  00142	d1 f8		 sar	 eax, 1
  00144	c1 fa 05	 sar	 edx, 5
  00147	24 80		 and	 al, 128			; 00000080H
  00149	80 e2 f0	 and	 dl, 240			; 000000f0H
  0014c	88 44 31 07	 mov	 BYTE PTR [ecx+esi+7], al

; 3302 : 
; 3303 : 			if (item[index].m_Option3 > 3)

  00150	80 7f 72 03	 cmp	 BYTE PTR [edi+114], 3
  00154	76 06		 jbe	 SHORT $LN1@ItemByteCo@5

; 3304 : 			{
; 3305 : 				buf[n] |= 0x40; // item +16 option

  00156	0c 40		 or	 al, 64			; 00000040H
  00158	88 44 31 07	 mov	 BYTE PTR [ecx+esi+7], al
$LN1@ItemByteCo@5:

; 3306 : 			}
; 3307 : 
; 3308 : 			buf[n] |= item[index].m_NewOption;

  0015c	0f b6 47 73	 movzx	 eax, BYTE PTR [edi+115]
  00160	08 44 31 07	 or	 BYTE PTR [ecx+esi+7], al

; 3309 : 			n++;
; 3310 : 			buf[n] = item[index].m_SetOption;

  00164	0f b6 87 8a 00
	00 00		 movzx	 eax, BYTE PTR [edi+138]
  0016b	88 44 31 08	 mov	 BYTE PTR [ecx+esi+8], al

; 3311 : 			n++;
; 3312 : 			buf[n] = 0;
; 3313 : 			buf[n] |= btItemType;
; 3314 : 
; 3315 : 			buf[n] |= 0; // Check Later here

  0016f	88 54 31 09	 mov	 BYTE PTR [ecx+esi+9], dl

; 3316 : 			n++;
; 3317 : 
; 3318 : 			buf[n] = 0;

  00173	c6 44 31 0a 00	 mov	 BYTE PTR [ecx+esi+10], 0

; 3319 : 			n++;
; 3320 : 			n += 5;

  00178	b0 ff		 mov	 al, 255			; 000000ffH
$LN17@ItemByteCo@5:
  0017a	83 c1 10	 add	 ecx, 16			; 00000010H
  0017d	81 c7 a8 00 00
	00		 add	 edi, 168		; 000000a8H
  00183	ff 4d fc	 dec	 DWORD PTR tv90[ebp]
  00186	0f 85 98 fe ff
	ff		 jne	 $LL8@ItemByteCo@5
  0018c	5f		 pop	 edi
  0018d	5e		 pop	 esi
  0018e	5b		 pop	 ebx
$LN6@ItemByteCo@5:

; 3321 : 		}
; 3322 : 	}
; 3323 : }

  0018f	8b e5		 mov	 esp, ebp
  00191	5d		 pop	 ebp
  00192	c3		 ret	 0
?ItemByteConvert16@@YAXPAEQAVCItem@@H@Z ENDP		; ItemByteConvert16
_TEXT	ENDS
PUBLIC	??_C@_0BN@HOLMGJEE@Error?5?9?$DO?5Wrong?5item?5size?3?5?$CFd?$AA@ ; `string'
PUBLIC	?ItemGetNumberMake@@YAHHH@Z			; ItemGetNumberMake
;	COMDAT ??_C@_0BN@HOLMGJEE@Error?5?9?$DO?5Wrong?5item?5size?3?5?$CFd?$AA@
CONST	SEGMENT
??_C@_0BN@HOLMGJEE@Error?5?9?$DO?5Wrong?5item?5size?3?5?$CFd?$AA@ DB 'Err'
	DB	'or -> Wrong item size: %d', 00H		; `string'
; Function compile flags: /Ogtp
CONST	ENDS
;	COMDAT ?ItemGetNumberMake@@YAHHH@Z
_TEXT	SEGMENT
_type$ = 8						; size = 4
_index$ = 12						; size = 4
?ItemGetNumberMake@@YAHHH@Z PROC			; ItemGetNumberMake, COMDAT

; 3326 : {

  00000	55		 push	 ebp
  00001	8b ec		 mov	 ebp, esp

; 3327 : 	int make;
; 3328 : 
; 3329 : 	make = type*MAX_SUBTYPE_ITEMS + index;

  00003	8b 45 08	 mov	 eax, DWORD PTR _type$[ebp]
  00006	c1 e0 09	 shl	 eax, 9
  00009	03 45 0c	 add	 eax, DWORD PTR _index$[ebp]

; 3330 : 
; 3331 : 	if (ItemAttribute[make].Width < 1 ||  ItemAttribute[make].Height < 1)

  0000c	b2 01		 mov	 dl, 1
  0000e	8b c8		 mov	 ecx, eax
  00010	6b c9 6c	 imul	 ecx, 108		; 0000006cH
  00013	38 91 23 00 00
	00		 cmp	 BYTE PTR ?ItemAttribute@@3PAUITEM_ATTRIBUTE@@A[ecx+35], dl
  00019	72 08		 jb	 SHORT $LN1@ItemGetNum
  0001b	38 91 24 00 00
	00		 cmp	 BYTE PTR ?ItemAttribute@@3PAUITEM_ATTRIBUTE@@A[ecx+36], dl

; 3335 : 	}
; 3336 : 	return make;

  00021	73 13		 jae	 SHORT $LN3@ItemGetNum
$LN1@ItemGetNum:

; 3332 : 	{
; 3333 : 		LogAdd(LOG_BLACK, "Error -> Wrong item size: %d", make);

  00023	50		 push	 eax
  00024	68 00 00 00 00	 push	 OFFSET ??_C@_0BN@HOLMGJEE@Error?5?9?$DO?5Wrong?5item?5size?3?5?$CFd?$AA@
  00029	6a 00		 push	 0
  0002b	e8 00 00 00 00	 call	 ?LogAdd@@YAXW4eLogColor@@PADZZ ; LogAdd
  00030	83 c4 0c	 add	 esp, 12			; 0000000cH

; 3334 : 		return -1;

  00033	83 c8 ff	 or	 eax, -1
$LN3@ItemGetNum:

; 3337 : }

  00036	5d		 pop	 ebp
  00037	c3		 ret	 0
?ItemGetNumberMake@@YAHHH@Z ENDP			; ItemGetNumberMake
_TEXT	ENDS
PUBLIC	?ItemGetSize@@YAXHAAH0@Z			; ItemGetSize
; Function compile flags: /Ogtp
;	COMDAT ?ItemGetSize@@YAXHAAH0@Z
_TEXT	SEGMENT
_index$ = 8						; size = 4
_width$ = 12						; size = 4
_height$ = 16						; size = 4
?ItemGetSize@@YAXHAAH0@Z PROC				; ItemGetSize, COMDAT

; 3340 : {

  00000	55		 push	 ebp
  00001	8b ec		 mov	 ebp, esp

; 3341 : 	width = ItemAttribute[index].Width;

  00003	8b 45 08	 mov	 eax, DWORD PTR _index$[ebp]
  00006	8b 55 0c	 mov	 edx, DWORD PTR _width$[ebp]
  00009	6b c0 6c	 imul	 eax, 108		; 0000006cH
  0000c	0f b6 88 23 00
	00 00		 movzx	 ecx, BYTE PTR ?ItemAttribute@@3PAUITEM_ATTRIBUTE@@A[eax+35]
  00013	89 0a		 mov	 DWORD PTR [edx], ecx

; 3342 : 	height = ItemAttribute[index].Height;

  00015	0f b6 80 24 00
	00 00		 movzx	 eax, BYTE PTR ?ItemAttribute@@3PAUITEM_ATTRIBUTE@@A[eax+36]
  0001c	8b 4d 10	 mov	 ecx, DWORD PTR _height$[ebp]
  0001f	89 01		 mov	 DWORD PTR [ecx], eax

; 3343 : }

  00021	5d		 pop	 ebp
  00022	c3		 ret	 0
?ItemGetSize@@YAXHAAH0@Z ENDP				; ItemGetSize
_TEXT	ENDS
PUBLIC	?HasItemDurability@@YAHH@Z			; HasItemDurability
; Function compile flags: /Ogtp
;	COMDAT ?HasItemDurability@@YAHH@Z
_TEXT	SEGMENT
_index$ = 8						; size = 4
?HasItemDurability@@YAHH@Z PROC				; HasItemDurability, COMDAT

; 3346 : {

  00000	55		 push	 ebp
  00001	8b ec		 mov	 ebp, esp

; 3347 : 	if ( ItemAttribute[index].Durability == 0 && ItemAttribute[index].MagicDurability == 0)

  00003	8b 45 08	 mov	 eax, DWORD PTR _index$[ebp]
  00006	6b c0 6c	 imul	 eax, 108		; 0000006cH
  00009	80 b8 30 00 00
	00 00		 cmp	 BYTE PTR ?ItemAttribute@@3PAUITEM_ATTRIBUTE@@A[eax+48], 0
  00010	75 0d		 jne	 SHORT $LN1@HasItemDur
  00012	80 b8 31 00 00
	00 00		 cmp	 BYTE PTR ?ItemAttribute@@3PAUITEM_ATTRIBUTE@@A[eax+49], 0
  00019	75 04		 jne	 SHORT $LN1@HasItemDur

; 3348 : 	{
; 3349 : 		return FALSE; 

  0001b	33 c0		 xor	 eax, eax

; 3353 : }

  0001d	5d		 pop	 ebp
  0001e	c3		 ret	 0
$LN1@HasItemDur:

; 3350 : 	}
; 3351 : 	
; 3352 : 	return TRUE;

  0001f	b8 01 00 00 00	 mov	 eax, 1

; 3353 : }

  00024	5d		 pop	 ebp
  00025	c3		 ret	 0
?HasItemDurability@@YAHH@Z ENDP				; HasItemDurability
_TEXT	ENDS
PUBLIC	?ItemGetDurability@@YAHHHHH@Z			; ItemGetDurability
; Function compile flags: /Ogtp
;	COMDAT ?ItemGetDurability@@YAHHHHH@Z
_TEXT	SEGMENT
_index$ = 8						; size = 4
_itemLevel$ = 12					; size = 4
_ExcellentItem$ = 16					; size = 4
_SetItem$ = 20						; size = 4
?ItemGetDurability@@YAHHHHH@Z PROC			; ItemGetDurability, COMDAT

; 3356 : {

  00000	55		 push	 ebp
  00001	8b ec		 mov	 ebp, esp

; 3357 : 	if( NEWWINGS(index) )

  00003	8b 4d 08	 mov	 ecx, DWORD PTR _index$[ebp]
  00006	81 f9 64 18 00
	00		 cmp	 ecx, 6244		; 00001864H
  0000c	7c 13		 jl	 SHORT $LN24@ItemGetDur
  0000e	33 c0		 xor	 eax, eax
  00010	81 f9 7d 18 00
	00		 cmp	 ecx, 6269		; 0000187dH
  00016	0f 9e c0	 setle	 al
  00019	85 c0		 test	 eax, eax

; 3358 : 		return 255;

  0001b	0f 85 24 01 00
	00		 jne	 $LN31@ItemGetDur
$LN24@ItemGetDur:

; 3359 : 
; 3360 : 	if ( index == ITEMGET(14,21) && itemLevel == 3 )	// Mark Lord

  00021	8b 55 0c	 mov	 edx, DWORD PTR _itemLevel$[ebp]
  00024	81 f9 15 1c 00
	00		 cmp	 ecx, 7189		; 00001c15H
  0002a	75 1a		 jne	 SHORT $LN23@ItemGetDur
  0002c	83 fa 03	 cmp	 edx, 3
  0002f	75 24		 jne	 SHORT $LN22@ItemGetDur

; 3369 : 	{
; 3370 : 		dur= ItemAttribute[index].Durability + itemLevel;

  00031	8b c1		 mov	 eax, ecx
  00033	6b c0 6c	 imul	 eax, 108		; 0000006cH
  00036	0f b6 80 30 00
	00 00		 movzx	 eax, BYTE PTR ?ItemAttribute@@3PAUITEM_ATTRIBUTE@@A[eax+48]
  0003d	33 d2		 xor	 edx, edx
  0003f	03 c2		 add	 eax, edx
  00041	e9 af 00 00 00	 jmp	 $LN7@ItemGetDur
$LN23@ItemGetDur:

; 3361 : 		itemLevel=0;
; 3362 : 	
; 3363 : 	if ( index == ITEMGET(14,29) )

  00046	81 f9 1d 1c 00
	00		 cmp	 ecx, 7197		; 00001c1dH
  0004c	75 07		 jne	 SHORT $LN22@ItemGetDur

; 3364 : 		return 1;

  0004e	b8 01 00 00 00	 mov	 eax, 1

; 3419 : 
; 3420 : 	return dur;
; 3421 : }

  00053	5d		 pop	 ebp
  00054	c3		 ret	 0
$LN22@ItemGetDur:

; 3365 : 
; 3366 : 	int dur=0;
; 3367 : 
; 3368 : 	if ( itemLevel < 5)

  00055	83 fa 05	 cmp	 edx, 5
  00058	7d 13		 jge	 SHORT $LN29@ItemGetDur

; 3369 : 	{
; 3370 : 		dur= ItemAttribute[index].Durability + itemLevel;

  0005a	8b c1		 mov	 eax, ecx
  0005c	6b c0 6c	 imul	 eax, 108		; 0000006cH
  0005f	0f b6 80 30 00
	00 00		 movzx	 eax, BYTE PTR ?ItemAttribute@@3PAUITEM_ATTRIBUTE@@A[eax+48]
  00066	03 c2		 add	 eax, edx
  00068	e9 88 00 00 00	 jmp	 $LN7@ItemGetDur
$LN29@ItemGetDur:

; 3371 : 	}
; 3372 : 	else if ( itemLevel >= 5 )
; 3373 : 	{
; 3374 : 		if ( itemLevel == 10 )

  0006d	83 fa 0a	 cmp	 edx, 10			; 0000000aH
  00070	75 11		 jne	 SHORT $LN18@ItemGetDur

; 3375 : 		{
; 3376 : 			dur=ItemAttribute[index].Durability + itemLevel*2-3;

  00072	8b d1		 mov	 edx, ecx
  00074	6b d2 6c	 imul	 edx, 108		; 0000006cH
  00077	0f b6 82 30 00
	00 00		 movzx	 eax, BYTE PTR ?ItemAttribute@@3PAUITEM_ATTRIBUTE@@A[edx+48]
  0007e	83 c0 11	 add	 eax, 17			; 00000011H
  00081	eb 72		 jmp	 SHORT $LN7@ItemGetDur
$LN18@ItemGetDur:

; 3377 : 		}
; 3378 : 		else if (itemLevel == 11 )

  00083	83 fa 0b	 cmp	 edx, 11			; 0000000bH
  00086	75 11		 jne	 SHORT $LN16@ItemGetDur

; 3379 : 		{
; 3380 : 			dur=ItemAttribute[index].Durability + itemLevel*2-1;

  00088	8b c1		 mov	 eax, ecx
  0008a	6b c0 6c	 imul	 eax, 108		; 0000006cH
  0008d	0f b6 80 30 00
	00 00		 movzx	 eax, BYTE PTR ?ItemAttribute@@3PAUITEM_ATTRIBUTE@@A[eax+48]
  00094	83 c0 15	 add	 eax, 21			; 00000015H
  00097	eb 5c		 jmp	 SHORT $LN7@ItemGetDur
$LN16@ItemGetDur:

; 3381 : 		}
; 3382 : 		else if (itemLevel == 12 )

  00099	83 fa 0c	 cmp	 edx, 12			; 0000000cH
  0009c	75 11		 jne	 SHORT $LN14@ItemGetDur

; 3383 : 		{
; 3384 : 			dur=ItemAttribute[index].Durability + itemLevel*2+2;

  0009e	8b d1		 mov	 edx, ecx
  000a0	6b d2 6c	 imul	 edx, 108		; 0000006cH
  000a3	0f b6 82 30 00
	00 00		 movzx	 eax, BYTE PTR ?ItemAttribute@@3PAUITEM_ATTRIBUTE@@A[edx+48]
  000aa	83 c0 1a	 add	 eax, 26			; 0000001aH
  000ad	eb 46		 jmp	 SHORT $LN7@ItemGetDur
$LN14@ItemGetDur:

; 3385 : 		}
; 3386 : 		else if (itemLevel == 13 )

  000af	83 fa 0d	 cmp	 edx, 13			; 0000000dH
  000b2	75 11		 jne	 SHORT $LN12@ItemGetDur

; 3387 : 		{
; 3388 : 			dur=ItemAttribute[index].Durability + itemLevel*2+6;

  000b4	8b c1		 mov	 eax, ecx
  000b6	6b c0 6c	 imul	 eax, 108		; 0000006cH
  000b9	0f b6 80 30 00
	00 00		 movzx	 eax, BYTE PTR ?ItemAttribute@@3PAUITEM_ATTRIBUTE@@A[eax+48]
  000c0	83 c0 20	 add	 eax, 32			; 00000020H
  000c3	eb 30		 jmp	 SHORT $LN7@ItemGetDur
$LN12@ItemGetDur:

; 3389 : 		}
; 3390 : 		else if (itemLevel == 14 )

  000c5	83 fa 0e	 cmp	 edx, 14			; 0000000eH
  000c8	75 11		 jne	 SHORT $LN10@ItemGetDur

; 3391 : 		{
; 3392 : 			dur=ItemAttribute[index].Durability + itemLevel*2+7;

  000ca	8b d1		 mov	 edx, ecx
  000cc	6b d2 6c	 imul	 edx, 108		; 0000006cH
  000cf	0f b6 82 30 00
	00 00		 movzx	 eax, BYTE PTR ?ItemAttribute@@3PAUITEM_ATTRIBUTE@@A[edx+48]
  000d6	83 c0 23	 add	 eax, 35			; 00000023H
  000d9	eb 1a		 jmp	 SHORT $LN7@ItemGetDur
$LN10@ItemGetDur:

; 3393 : 		}
; 3394 : 		else if (itemLevel == 15 )
; 3395 : 		{
; 3396 : 			dur=ItemAttribute[index].Durability + itemLevel*2+8;

  000db	8b c1		 mov	 eax, ecx
  000dd	6b c0 6c	 imul	 eax, 108		; 0000006cH
  000e0	0f b6 80 30 00
	00 00		 movzx	 eax, BYTE PTR ?ItemAttribute@@3PAUITEM_ATTRIBUTE@@A[eax+48]
  000e7	83 fa 0f	 cmp	 edx, 15			; 0000000fH
  000ea	75 05		 jne	 SHORT $LN8@ItemGetDur
  000ec	83 c0 26	 add	 eax, 38			; 00000026H

; 3397 : 		}
; 3398 : 		else

  000ef	eb 04		 jmp	 SHORT $LN7@ItemGetDur
$LN8@ItemGetDur:

; 3399 : 		{
; 3400 : 			dur=ItemAttribute[index].Durability + itemLevel*2-4;

  000f1	8d 44 50 fc	 lea	 eax, DWORD PTR [eax+edx*2-4]
$LN7@ItemGetDur:

; 3401 : 		}
; 3402 : 	}
; 3403 : 	
; 3404 : 	if ( (index < ITEMGET(12,3) || index > ITEMGET(12,6) ) &&
; 3405 : 		  index != ITEMGET(0,19) &&
; 3406 : 		  index != ITEMGET(4,18) &&
; 3407 : 		  index != ITEMGET(5,10) &&
; 3408 : 		  index != ITEMGET(2,13) &&
; 3409 : 		  index != ITEMGET(13,30) )

  000f5	81 f9 03 18 00
	00		 cmp	 ecx, 6147		; 00001803H
  000fb	7c 08		 jl	 SHORT $LN5@ItemGetDur
  000fd	81 f9 06 18 00
	00		 cmp	 ecx, 6150		; 00001806H
  00103	7e 39		 jle	 SHORT $LN2@ItemGetDur
$LN5@ItemGetDur:
  00105	83 f9 13	 cmp	 ecx, 19			; 00000013H
  00108	74 34		 je	 SHORT $LN2@ItemGetDur
  0010a	81 f9 12 08 00
	00		 cmp	 ecx, 2066		; 00000812H
  00110	74 2c		 je	 SHORT $LN2@ItemGetDur
  00112	81 f9 0a 0a 00
	00		 cmp	 ecx, 2570		; 00000a0aH
  00118	74 24		 je	 SHORT $LN2@ItemGetDur
  0011a	81 f9 0d 04 00
	00		 cmp	 ecx, 1037		; 0000040dH
  00120	74 1c		 je	 SHORT $LN2@ItemGetDur
  00122	81 f9 1e 1a 00
	00		 cmp	 ecx, 6686		; 00001a1eH
  00128	74 14		 je	 SHORT $LN2@ItemGetDur

; 3410 : 	{
; 3411 : 		if ( SetItem != 0 )

  0012a	83 7d 14 00	 cmp	 DWORD PTR _SetItem$[ebp], 0
  0012e	74 05		 je	 SHORT $LN4@ItemGetDur

; 3412 : 			dur +=20;

  00130	83 c0 14	 add	 eax, 20			; 00000014H
  00133	eb 09		 jmp	 SHORT $LN2@ItemGetDur
$LN4@ItemGetDur:

; 3413 : 		else if ( ExcellentItem != 0 ) // Prevent duple if items

  00135	83 7d 10 00	 cmp	 DWORD PTR _ExcellentItem$[ebp], 0
  00139	74 03		 je	 SHORT $LN2@ItemGetDur

; 3414 : 			dur +=15;

  0013b	83 c0 0f	 add	 eax, 15			; 0000000fH
$LN2@ItemGetDur:

; 3415 : 	}
; 3416 : 
; 3417 : 	if ( dur > 255 )

  0013e	3d ff 00 00 00	 cmp	 eax, 255		; 000000ffH
  00143	7e 05		 jle	 SHORT $LN25@ItemGetDur
$LN31@ItemGetDur:

; 3418 : 		dur = 255;

  00145	b8 ff 00 00 00	 mov	 eax, 255		; 000000ffH
$LN25@ItemGetDur:

; 3419 : 
; 3420 : 	return dur;
; 3421 : }

  0014a	5d		 pop	 ebp
  0014b	c3		 ret	 0
?ItemGetDurability@@YAHHHHH@Z ENDP			; ItemGetDurability
_TEXT	ENDS
PUBLIC	?ItemGetAttackDurability@@YAHH@Z		; ItemGetAttackDurability
; Function compile flags: /Ogtp
;	COMDAT ?ItemGetAttackDurability@@YAHH@Z
_TEXT	SEGMENT
_index$ = 8						; size = 4
?ItemGetAttackDurability@@YAHH@Z PROC			; ItemGetAttackDurability, COMDAT

; 3424 : {

  00000	55		 push	 ebp
  00001	8b ec		 mov	 ebp, esp

; 3425 : 	return ItemAttribute[index].AttackDur;

  00003	8b 45 08	 mov	 eax, DWORD PTR _index$[ebp]
  00006	6b c0 6c	 imul	 eax, 108		; 0000006cH
  00009	0f b6 80 32 00
	00 00		 movzx	 eax, BYTE PTR ?ItemAttribute@@3PAUITEM_ATTRIBUTE@@A[eax+50]

; 3426 : }

  00010	5d		 pop	 ebp
  00011	c3		 ret	 0
?ItemGetAttackDurability@@YAHH@Z ENDP			; ItemGetAttackDurability
_TEXT	ENDS
PUBLIC	?ItemGetDefenseDurability@@YAHH@Z		; ItemGetDefenseDurability
; Function compile flags: /Ogtp
;	COMDAT ?ItemGetDefenseDurability@@YAHH@Z
_TEXT	SEGMENT
_index$ = 8						; size = 4
?ItemGetDefenseDurability@@YAHH@Z PROC			; ItemGetDefenseDurability, COMDAT

; 3429 : {

  00000	55		 push	 ebp
  00001	8b ec		 mov	 ebp, esp

; 3430 : 	return ItemAttribute[index].DefenceDur;

  00003	8b 45 08	 mov	 eax, DWORD PTR _index$[ebp]
  00006	6b c0 6c	 imul	 eax, 108		; 0000006cH
  00009	0f b6 80 33 00
	00 00		 movzx	 eax, BYTE PTR ?ItemAttribute@@3PAUITEM_ATTRIBUTE@@A[eax+51]

; 3431 : }

  00010	5d		 pop	 ebp
  00011	c3		 ret	 0
?ItemGetDefenseDurability@@YAHH@Z ENDP			; ItemGetDefenseDurability
_TEXT	ENDS
PUBLIC	?GetRepairItemRate@@YAMH@Z			; GetRepairItemRate
; Function compile flags: /Ogtp
;	COMDAT ?GetRepairItemRate@@YAMH@Z
_TEXT	SEGMENT
_index$ = 8						; size = 4
?GetRepairItemRate@@YAMH@Z PROC				; GetRepairItemRate, COMDAT

; 3434 : {

  00000	55		 push	 ebp
  00001	8b ec		 mov	 ebp, esp

; 3435 : 	return ItemAttribute[index].RepaireMoneyRate;

  00003	8b 45 08	 mov	 eax, DWORD PTR _index$[ebp]
  00006	6b c0 6c	 imul	 eax, 108		; 0000006cH
  00009	d9 80 54 00 00
	00		 fld	 DWORD PTR ?ItemAttribute@@3PAUITEM_ATTRIBUTE@@A[eax+84]

; 3436 : }

  0000f	5d		 pop	 ebp
  00010	c3		 ret	 0
?GetRepairItemRate@@YAMH@Z ENDP				; GetRepairItemRate
_TEXT	ENDS
PUBLIC	?GetAllRepairItemRate@@YAMH@Z			; GetAllRepairItemRate
; Function compile flags: /Ogtp
;	COMDAT ?GetAllRepairItemRate@@YAMH@Z
_TEXT	SEGMENT
_index$ = 8						; size = 4
?GetAllRepairItemRate@@YAMH@Z PROC			; GetAllRepairItemRate, COMDAT

; 3440 : {

  00000	55		 push	 ebp
  00001	8b ec		 mov	 ebp, esp

; 3441 : 	return ItemAttribute[index].AllRepaireMoneyRate;

  00003	8b 45 08	 mov	 eax, DWORD PTR _index$[ebp]
  00006	6b c0 6c	 imul	 eax, 108		; 0000006cH
  00009	d9 80 58 00 00
	00		 fld	 DWORD PTR ?ItemAttribute@@3PAUITEM_ATTRIBUTE@@A[eax+88]

; 3442 : }

  0000f	5d		 pop	 ebp
  00010	c3		 ret	 0
?GetAllRepairItemRate@@YAMH@Z ENDP			; GetAllRepairItemRate
_TEXT	ENDS
PUBLIC	__real@3ecccccd
PUBLIC	__real@3dcccccd
PUBLIC	?CalRepairRate@@YAXHHPAUITEM_ATTRIBUTE@@@Z	; CalRepairRate
;	COMDAT __real@3ecccccd
CONST	SEGMENT
__real@3ecccccd DD 03ecccccdr			; 0.4
CONST	ENDS
;	COMDAT __real@3dcccccd
CONST	SEGMENT
__real@3dcccccd DD 03dcccccdr			; 0.1
; Function compile flags: /Ogtp
CONST	ENDS
;	COMDAT ?CalRepairRate@@YAXHHPAUITEM_ATTRIBUTE@@@Z
_TEXT	SEGMENT
_itemtype$ = 8						; size = 4
_itemsubtype$ = 12					; size = 4
_p$ = 16						; size = 4
?CalRepairRate@@YAXHHPAUITEM_ATTRIBUTE@@@Z PROC		; CalRepairRate, COMDAT

; 3445 : {

  00000	55		 push	 ebp
  00001	8b ec		 mov	 ebp, esp

; 3446 : 	p->RepaireMoneyRate = (float)0.1;

  00003	8b 45 10	 mov	 eax, DWORD PTR _p$[ebp]
  00006	d9 05 00 00 00
	00		 fld	 DWORD PTR __real@3dcccccd
  0000c	d9 58 54	 fstp	 DWORD PTR [eax+84]

; 3447 : 	p->AllRepaireMoneyRate = (float)0.4;

  0000f	d9 05 00 00 00
	00		 fld	 DWORD PTR __real@3ecccccd
  00015	d9 58 58	 fstp	 DWORD PTR [eax+88]

; 3448 : }

  00018	5d		 pop	 ebp
  00019	c3		 ret	 0
?CalRepairRate@@YAXHHPAUITEM_ATTRIBUTE@@@Z ENDP		; CalRepairRate
_TEXT	ENDS
PUBLIC	??_C@_0DN@NLHNDLLL@Error?5?3?5Item?5Data?5fail?4?5?$CILoopCou@ ; `string'
PUBLIC	??_C@_03JBJLGPFL@end?$AA@			; `string'
PUBLIC	??_C@_01KDCPPGHE@r?$AA@				; `string'
PUBLIC	?OpenItemScript@@YAHPAD@Z			; OpenItemScript
EXTRN	_fclose:PROC
EXTRN	?MsgBox@@YAXPADZZ:PROC				; MsgBox
EXTRN	_fopen:PROC
EXTRN	_memset:PROC
;	COMDAT ??_C@_0DN@NLHNDLLL@Error?5?3?5Item?5Data?5fail?4?5?$CILoopCou@
CONST	SEGMENT
??_C@_0DN@NLHNDLLL@Error?5?3?5Item?5Data?5fail?4?5?$CILoopCou@ DB 'Error '
	DB	': Item Data fail. (LoopCount:%d) Item Type:%d Index %d', 00H ; `string'
CONST	ENDS
;	COMDAT ??_C@_03JBJLGPFL@end?$AA@
CONST	SEGMENT
??_C@_03JBJLGPFL@end?$AA@ DB 'end', 00H			; `string'
CONST	ENDS
;	COMDAT ??_C@_01KDCPPGHE@r?$AA@
CONST	SEGMENT
??_C@_01KDCPPGHE@r?$AA@ DB 'r', 00H			; `string'
; Function compile flags: /Ogtp
CONST	ENDS
;	COMDAT ?OpenItemScript@@YAHPAD@Z
_TEXT	SEGMENT
tv958 = -12						; size = 4
tv956 = -12						; size = 4
tv950 = -12						; size = 4
tv948 = -12						; size = 4
tv942 = -12						; size = 4
tv940 = -12						; size = 4
tv934 = -12						; size = 4
tv926 = -12						; size = 4
tv734 = -12						; size = 4
tv732 = -12						; size = 4
tv726 = -12						; size = 4
tv724 = -12						; size = 4
tv713 = -12						; size = 4
tv711 = -12						; size = 4
tv705 = -12						; size = 4
tv703 = -12						; size = 4
tv696 = -12						; size = 4
tv694 = -12						; size = 4
tv688 = -12						; size = 4
tv686 = -12						; size = 4
tv680 = -12						; size = 4
tv678 = -12						; size = 4
tv672 = -12						; size = 4
tv670 = -12						; size = 4
tv664 = -12						; size = 4
tv662 = -12						; size = 4
tv656 = -12						; size = 4
tv654 = -12						; size = 4
tv643 = -12						; size = 4
tv641 = -12						; size = 4
tv634 = -12						; size = 4
tv632 = -12						; size = 4
tv625 = -12						; size = 4
tv623 = -12						; size = 4
tv617 = -12						; size = 4
tv615 = -12						; size = 4
tv608 = -12						; size = 4
tv606 = -12						; size = 4
tv594 = -12						; size = 4
tv592 = -12						; size = 4
tv586 = -12						; size = 4
tv584 = -12						; size = 4
tv578 = -12						; size = 4
tv576 = -12						; size = 4
tv568 = -12						; size = 4
tv566 = -12						; size = 4
tv559 = -12						; size = 4
tv557 = -12						; size = 4
tv550 = -12						; size = 4
tv548 = -12						; size = 4
tv541 = -12						; size = 4
tv539 = -12						; size = 4
tv532 = -12						; size = 4
tv530 = -12						; size = 4
tv523 = -12						; size = 4
tv521 = -12						; size = 4
tv515 = -12						; size = 4
tv513 = -12						; size = 4
tv495 = -12						; size = 4
tv493 = -12						; size = 4
tv487 = -12						; size = 4
tv485 = -12						; size = 4
tv479 = -12						; size = 4
tv477 = -12						; size = 4
tv471 = -12						; size = 4
tv469 = -12						; size = 4
tv407 = -12						; size = 4
tv404 = -12						; size = 4
tv390 = -12						; size = 4
tv385 = -12						; size = 4
tv378 = -12						; size = 4
tv376 = -12						; size = 4
tv369 = -12						; size = 4
tv367 = -12						; size = 4
tv361 = -12						; size = 4
tv359 = -12						; size = 4
tv352 = -12						; size = 4
tv350 = -12						; size = 4
tv344 = -12						; size = 4
tv342 = -12						; size = 4
tv336 = -12						; size = 4
tv334 = -12						; size = 4
tv327 = -12						; size = 4
tv325 = -12						; size = 4
tv318 = -12						; size = 4
tv313 = -12						; size = 4
tv306 = -12						; size = 4
tv303 = -12						; size = 4
tv295 = -12						; size = 4
tv293 = -12						; size = 4
tv285 = -12						; size = 4
tv282 = -12						; size = 4
tv275 = -12						; size = 4
tv273 = -12						; size = 4
tv267 = -12						; size = 4
tv265 = -12						; size = 4
tv259 = -12						; size = 4
tv257 = -12						; size = 4
tv251 = -12						; size = 4
tv249 = -12						; size = 4
tv242 = -12						; size = 4
tv239 = -12						; size = 4
tv232 = -12						; size = 4
tv230 = -12						; size = 4
tv208 = -12						; size = 4
tv206 = -12						; size = 4
tv200 = -12						; size = 4
tv198 = -12						; size = 4
tv192 = -12						; size = 4
tv190 = -12						; size = 4
tv163 = -12						; size = 4
tv157 = -12						; size = 4
tv139 = -12						; size = 4
tv91 = -12						; size = 4
_loop_count$ = -8					; size = 4
tv953 = -2						; size = 2
tv945 = -2						; size = 2
tv937 = -2						; size = 2
tv737 = -2						; size = 2
tv729 = -2						; size = 2
tv716 = -2						; size = 2
tv708 = -2						; size = 2
tv699 = -2						; size = 2
tv691 = -2						; size = 2
tv683 = -2						; size = 2
tv675 = -2						; size = 2
tv667 = -2						; size = 2
tv659 = -2						; size = 2
tv646 = -2						; size = 2
tv638 = -2						; size = 2
tv629 = -2						; size = 2
tv620 = -2						; size = 2
tv611 = -2						; size = 2
tv597 = -2						; size = 2
tv589 = -2						; size = 2
tv581 = -2						; size = 2
tv573 = -2						; size = 2
tv563 = -2						; size = 2
tv553 = -2						; size = 2
tv544 = -2						; size = 2
tv536 = -2						; size = 2
tv526 = -2						; size = 2
tv518 = -2						; size = 2
tv499 = -2						; size = 2
tv490 = -2						; size = 2
tv482 = -2						; size = 2
tv474 = -2						; size = 2
tv461 = -2						; size = 2
tv444 = -2						; size = 2
tv394 = -2						; size = 2
tv382 = -2						; size = 2
tv372 = -2						; size = 2
tv364 = -2						; size = 2
tv355 = -2						; size = 2
tv347 = -2						; size = 2
tv339 = -2						; size = 2
tv331 = -2						; size = 2
tv321 = -2						; size = 2
tv310 = -2						; size = 2
tv299 = -2						; size = 2
tv289 = -2						; size = 2
tv279 = -2						; size = 2
tv270 = -2						; size = 2
tv262 = -2						; size = 2
tv254 = -2						; size = 2
tv245 = -2						; size = 2
tv236 = -2						; size = 2
tv213 = -2						; size = 2
tv203 = -2						; size = 2
tv195 = -2						; size = 2
tv170 = -2						; size = 2
tv148 = -2						; size = 2
_FileName$ = 8						; size = 4
?OpenItemScript@@YAHPAD@Z PROC				; OpenItemScript, COMDAT

; 3452 : {

  00000	55		 push	 ebp
  00001	8b ec		 mov	 ebp, esp

; 3453 : 	int loop_count;
; 3454 : 	int n;
; 3455 : 	int Token;
; 3456 : 
; 3457 : 	SMDFile = fopen(FileName, "r");

  00003	8b 45 08	 mov	 eax, DWORD PTR _FileName$[ebp]
  00006	83 ec 0c	 sub	 esp, 12			; 0000000cH
  00009	68 00 00 00 00	 push	 OFFSET ??_C@_01KDCPPGHE@r?$AA@
  0000e	50		 push	 eax
  0000f	e8 00 00 00 00	 call	 _fopen
  00014	83 c4 08	 add	 esp, 8
  00017	a3 00 00 00 00	 mov	 DWORD PTR _SMDFile, eax

; 3458 : 
; 3459 : 	if ( SMDFile == 0 )

  0001c	85 c0		 test	 eax, eax
  0001e	75 04		 jne	 SHORT $LN38@OpenItemSc

; 3802 : }

  00020	8b e5		 mov	 esp, ebp
  00022	5d		 pop	 ebp
  00023	c3		 ret	 0
$LN38@OpenItemSc:

; 3460 : 	{
; 3461 : 		return FALSE;
; 3462 : 	}
; 3463 : 
; 3464 : 	memset ( ItemAttribute, 0, sizeof(ItemAttribute) );

  00024	68 00 80 0d 00	 push	 884736			; 000d8000H
  00029	6a 00		 push	 0
  0002b	68 00 00 00 00	 push	 OFFSET ?ItemAttribute@@3PAUITEM_ATTRIBUTE@@A
  00030	e8 00 00 00 00	 call	 _memset
  00035	d9 ee		 fldz
  00037	83 c4 0c	 add	 esp, 12			; 0000000cH
  0003a	b8 54 00 00 00	 mov	 eax, OFFSET ?ItemAttribute@@3PAUITEM_ATTRIBUTE@@A+84
$LN37@OpenItemSc:

; 3465 : 	
; 3466 : 	for (n = 0; n < MAX_ITEMS; n++)
; 3467 : 	{
; 3468 : 		ItemAttribute[n].Level = -1;
; 3469 : 		ItemAttribute[n].RepaireMoneyRate  = 0;

  0003f	d9 10		 fst	 DWORD PTR [eax]
  00041	c6 40 ce ff	 mov	 BYTE PTR [eax-50], 255	; 000000ffH

; 3470 : 		ItemAttribute[n].AllRepaireMoneyRate  = 0;

  00045	d9 50 04	 fst	 DWORD PTR [eax+4]
  00048	83 c0 6c	 add	 eax, 108		; 0000006cH
  0004b	3d 54 80 0d 00	 cmp	 eax, OFFSET ?ItemAttribute@@3PAUITEM_ATTRIBUTE@@A+884820
  00050	7c ed		 jl	 SHORT $LN37@OpenItemSc

; 3471 : 	}
; 3472 : 
; 3473 : 	
; 3474 : 	while ( true )
; 3475 : 	{
; 3476 : 		Token = GetToken();

  00052	dd d8		 fstp	 ST(0)
  00054	e8 00 00 00 00	 call	 ?GetToken@@YA?AW4SMDToken@@XZ ; GetToken

; 3477 : 
; 3478 : 		if ( Token == 2 )

  00059	83 f8 02	 cmp	 eax, 2
  0005c	0f 84 c4 0b 00
	00		 je	 $LN62@OpenItemSc
  00062	53		 push	 ebx
  00063	56		 push	 esi
  00064	57		 push	 edi
$LL34@OpenItemSc:

; 3479 : 		{
; 3480 : 			break;
; 3481 : 		}
; 3482 : 		if ( Token == 1 )

  00065	83 f8 01	 cmp	 eax, 1
  00068	0f 85 a7 0b 00
	00		 jne	 $LN1@OpenItemSc

; 3483 : 		{
; 3484 : 			int ItemType;
; 3485 : 
; 3486 : 			ItemType = TokenNumber;

  0006e	d9 05 00 00 00
	00		 fld	 DWORD PTR _TokenNumber
  00074	e8 00 00 00 00	 call	 __ftol2_sse
  00079	8b f8		 mov	 edi, eax

; 3487 : 			loop_count = 0;

  0007b	c7 45 f8 00 00
	00 00		 mov	 DWORD PTR _loop_count$[ebp], 0
$LL30@OpenItemSc:

; 3488 : 			while ( true )
; 3489 : 			{
; 3490 : 				int ItemSubType;
; 3491 : 				LPITEM_ATTRIBUTE p;
; 3492 : 				
; 3493 : 				Token = GetToken();

  00082	e8 00 00 00 00	 call	 ?GetToken@@YA?AW4SMDToken@@XZ ; GetToken

; 3494 : 				ItemSubType = TokenNumber;

  00087	d9 05 00 00 00
	00		 fld	 DWORD PTR _TokenNumber
  0008d	8b f0		 mov	 esi, eax
  0008f	e8 00 00 00 00	 call	 __ftol2_sse
  00094	8b d8		 mov	 ebx, eax

; 3495 : 
; 3496 : 				if ( ItemType >= 0 && ItemType < MAX_TYPE_ITEMS )

  00096	83 ff 0f	 cmp	 edi, 15			; 0000000fH
  00099	77 10		 ja	 SHORT $LN27@OpenItemSc

; 3497 : 				{
; 3498 : 					if ( g_MaxItemIndexOfEachItemType[ItemType] <= ItemSubType )

  0009b	39 1c bd 00 00
	00 00		 cmp	 DWORD PTR ?g_MaxItemIndexOfEachItemType@@3PAHA[edi*4], ebx
  000a2	7f 07		 jg	 SHORT $LN27@OpenItemSc

; 3499 : 					{
; 3500 : 						g_MaxItemIndexOfEachItemType[ItemType] = ItemSubType;

  000a4	89 1c bd 00 00
	00 00		 mov	 DWORD PTR ?g_MaxItemIndexOfEachItemType@@3PAHA[edi*4], ebx
$LN27@OpenItemSc:

; 3501 : 					}
; 3502 : 				}
; 3503 : 
; 3504 : 				if (Token == 0 )

  000ab	85 f6		 test	 esi, esi
  000ad	75 3e		 jne	 SHORT $LN25@OpenItemSc

; 3505 : 				{
; 3506 : 					if ( strcmp("end", TokenString ) == 0 )

  000af	b9 00 00 00 00	 mov	 ecx, OFFSET _TokenString
  000b4	b8 00 00 00 00	 mov	 eax, OFFSET ??_C@_03JBJLGPFL@end?$AA@
  000b9	8d a4 24 00 00
	00 00		 npad	 7
$LL55@OpenItemSc:
  000c0	8a 10		 mov	 dl, BYTE PTR [eax]
  000c2	3a 11		 cmp	 dl, BYTE PTR [ecx]
  000c4	75 1a		 jne	 SHORT $LN56@OpenItemSc
  000c6	84 d2		 test	 dl, dl
  000c8	74 12		 je	 SHORT $LN57@OpenItemSc
  000ca	8a 50 01	 mov	 dl, BYTE PTR [eax+1]
  000cd	3a 51 01	 cmp	 dl, BYTE PTR [ecx+1]
  000d0	75 0e		 jne	 SHORT $LN56@OpenItemSc
  000d2	83 c0 02	 add	 eax, 2
  000d5	83 c1 02	 add	 ecx, 2
  000d8	84 d2		 test	 dl, dl
  000da	75 e4		 jne	 SHORT $LL55@OpenItemSc
$LN57@OpenItemSc:
  000dc	33 c0		 xor	 eax, eax
  000de	eb 05		 jmp	 SHORT $LN58@OpenItemSc
$LN56@OpenItemSc:
  000e0	1b c0		 sbb	 eax, eax
  000e2	83 d8 ff	 sbb	 eax, -1
$LN58@OpenItemSc:
  000e5	85 c0		 test	 eax, eax
  000e7	0f 84 1f 0b 00
	00		 je	 $LN61@OpenItemSc
$LN25@OpenItemSc:

; 3507 : 					{
; 3508 : 						break;
; 3509 : 					}
; 3510 : 				}
; 3511 : 					
; 3512 : 				p = &ItemAttribute[ItemType*MAX_SUBTYPE_ITEMS + ItemSubType];

  000ed	8b f7		 mov	 esi, edi
  000ef	c1 e6 09	 shl	 esi, 9
  000f2	03 f3		 add	 esi, ebx
  000f4	6b f6 6c	 imul	 esi, 108		; 0000006cH
  000f7	81 c6 00 00 00
	00		 add	 esi, OFFSET ?ItemAttribute@@3PAUITEM_ATTRIBUTE@@A

; 3513 : 
; 3514 : 				Token = GetToken();

  000fd	e8 00 00 00 00	 call	 ?GetToken@@YA?AW4SMDToken@@XZ ; GetToken

; 3515 : 				p->ItemSlot = TokenNumber;

  00102	d9 05 00 00 00
	00		 fld	 DWORD PTR _TokenNumber
  00108	e8 00 00 00 00	 call	 __ftol2_sse
  0010d	89 46 60	 mov	 DWORD PTR [esi+96], eax

; 3516 : 
; 3517 : 				Token = GetToken();

  00110	e8 00 00 00 00	 call	 ?GetToken@@YA?AW4SMDToken@@XZ ; GetToken

; 3518 : 				p->SkillType = TokenNumber;

  00115	d9 05 00 00 00
	00		 fld	 DWORD PTR _TokenNumber
  0011b	e8 00 00 00 00	 call	 __ftol2_sse
  00120	89 46 64	 mov	 DWORD PTR [esi+100], eax

; 3519 : 
; 3520 : 				Token = GetToken();

  00123	e8 00 00 00 00	 call	 ?GetToken@@YA?AW4SMDToken@@XZ ; GetToken

; 3521 : 				p->Width  = TokenNumber;

  00128	d9 05 00 00 00
	00		 fld	 DWORD PTR _TokenNumber
  0012e	d9 7d fe	 fnstcw	 WORD PTR tv737[ebp]
  00131	0f b7 45 fe	 movzx	 eax, WORD PTR tv737[ebp]
  00135	0d 00 0c 00 00	 or	 eax, 3072		; 00000c00H
  0013a	89 45 f4	 mov	 DWORD PTR tv734[ebp], eax
  0013d	d9 6d f4	 fldcw	 WORD PTR tv734[ebp]
  00140	db 5d f4	 fistp	 DWORD PTR tv732[ebp]
  00143	0f b6 4d f4	 movzx	 ecx, BYTE PTR tv732[ebp]
  00147	88 4e 23	 mov	 BYTE PTR [esi+35], cl
  0014a	d9 6d fe	 fldcw	 WORD PTR tv737[ebp]

; 3522 : 
; 3523 : 				Token = GetToken();

  0014d	e8 00 00 00 00	 call	 ?GetToken@@YA?AW4SMDToken@@XZ ; GetToken

; 3524 : 				p->Height  = TokenNumber;

  00152	d9 05 00 00 00
	00		 fld	 DWORD PTR _TokenNumber
  00158	d9 7d fe	 fnstcw	 WORD PTR tv729[ebp]
  0015b	0f b7 45 fe	 movzx	 eax, WORD PTR tv729[ebp]
  0015f	0d 00 0c 00 00	 or	 eax, 3072		; 00000c00H
  00164	89 45 f4	 mov	 DWORD PTR tv726[ebp], eax
  00167	d9 6d f4	 fldcw	 WORD PTR tv726[ebp]
  0016a	db 5d f4	 fistp	 DWORD PTR tv724[ebp]
  0016d	8a 55 f4	 mov	 dl, BYTE PTR tv724[ebp]
  00170	88 56 24	 mov	 BYTE PTR [esi+36], dl
  00173	d9 6d fe	 fldcw	 WORD PTR tv729[ebp]

; 3525 : 
; 3526 : 				Token = GetToken();

  00176	e8 00 00 00 00	 call	 ?GetToken@@YA?AW4SMDToken@@XZ ; GetToken

; 3527 : 				p->Serial = TokenNumber;

  0017b	d9 05 00 00 00
	00		 fld	 DWORD PTR _TokenNumber
  00181	e8 00 00 00 00	 call	 __ftol2_sse
  00186	88 46 25	 mov	 BYTE PTR [esi+37], al

; 3528 : 
; 3529 : 				Token = GetToken();

  00189	e8 00 00 00 00	 call	 ?GetToken@@YA?AW4SMDToken@@XZ ; GetToken

; 3530 : 				p->OptionFlag = TokenNumber;

  0018e	d9 05 00 00 00
	00		 fld	 DWORD PTR _TokenNumber
  00194	d9 7d fe	 fnstcw	 WORD PTR tv716[ebp]
  00197	0f b7 45 fe	 movzx	 eax, WORD PTR tv716[ebp]
  0019b	0d 00 0c 00 00	 or	 eax, 3072		; 00000c00H
  001a0	89 45 f4	 mov	 DWORD PTR tv713[ebp], eax
  001a3	d9 6d f4	 fldcw	 WORD PTR tv713[ebp]
  001a6	db 5d f4	 fistp	 DWORD PTR tv711[ebp]
  001a9	8a 45 f4	 mov	 al, BYTE PTR tv711[ebp]
  001ac	88 46 26	 mov	 BYTE PTR [esi+38], al
  001af	d9 6d fe	 fldcw	 WORD PTR tv716[ebp]

; 3531 : 
; 3532 : 				Token = GetToken();

  001b2	e8 00 00 00 00	 call	 ?GetToken@@YA?AW4SMDToken@@XZ ; GetToken

; 3533 : 				p->MondownFlag = TokenNumber;

  001b7	d9 05 00 00 00
	00		 fld	 DWORD PTR _TokenNumber
  001bd	d9 7d fe	 fnstcw	 WORD PTR tv708[ebp]
  001c0	0f b7 45 fe	 movzx	 eax, WORD PTR tv708[ebp]
  001c4	0d 00 0c 00 00	 or	 eax, 3072		; 00000c00H
  001c9	89 45 f4	 mov	 DWORD PTR tv705[ebp], eax
  001cc	d9 6d f4	 fldcw	 WORD PTR tv705[ebp]
  001cf	db 5d f4	 fistp	 DWORD PTR tv703[ebp]
  001d2	0f b6 4d f4	 movzx	 ecx, BYTE PTR tv703[ebp]
  001d6	88 4e 27	 mov	 BYTE PTR [esi+39], cl
  001d9	d9 6d fe	 fldcw	 WORD PTR tv708[ebp]

; 3534 : 
; 3535 : 				Token = GetToken();

  001dc	e8 00 00 00 00	 call	 ?GetToken@@YA?AW4SMDToken@@XZ ; GetToken

; 3536 : 				strcpy(&p->Name[0], TokenString );

  001e1	b8 00 00 00 00	 mov	 eax, OFFSET _TokenString
  001e6	8b d6		 mov	 edx, esi
  001e8	2b d0		 sub	 edx, eax
  001ea	8d 9b 00 00 00
	00		 npad	 6
$LL41@OpenItemSc:
  001f0	8a 08		 mov	 cl, BYTE PTR [eax]
  001f2	88 0c 02	 mov	 BYTE PTR [edx+eax], cl
  001f5	40		 inc	 eax
  001f6	84 c9		 test	 cl, cl
  001f8	75 f6		 jne	 SHORT $LL41@OpenItemSc

; 3537 : 
; 3538 : 				if ( ItemType >= 0 && ItemType <= 5 )

  001fa	83 ff 05	 cmp	 edi, 5
  001fd	0f 87 09 02 00
	00		 ja	 $LN59@OpenItemSc

; 3539 : 				{
; 3540 : 					Token = GetToken();

  00203	e8 00 00 00 00	 call	 ?GetToken@@YA?AW4SMDToken@@XZ ; GetToken

; 3541 : 					p->Level = TokenNumber;

  00208	d9 05 00 00 00
	00		 fld	 DWORD PTR _TokenNumber
  0020e	d9 7d fe	 fnstcw	 WORD PTR tv699[ebp]
  00211	0f b7 45 fe	 movzx	 eax, WORD PTR tv699[ebp]
  00215	0d 00 0c 00 00	 or	 eax, 3072		; 00000c00H
  0021a	89 45 f4	 mov	 DWORD PTR tv696[ebp], eax
  0021d	d9 6d f4	 fldcw	 WORD PTR tv696[ebp]
  00220	db 5d f4	 fistp	 DWORD PTR tv694[ebp]
  00223	0f b6 55 f4	 movzx	 edx, BYTE PTR tv694[ebp]
  00227	88 56 22	 mov	 BYTE PTR [esi+34], dl
  0022a	d9 6d fe	 fldcw	 WORD PTR tv699[ebp]

; 3542 : 
; 3543 : 					Token = GetToken();

  0022d	e8 00 00 00 00	 call	 ?GetToken@@YA?AW4SMDToken@@XZ ; GetToken

; 3544 : 					p->DamageMin = TokenNumber;

  00232	d9 05 00 00 00
	00		 fld	 DWORD PTR _TokenNumber
  00238	d9 7d fe	 fnstcw	 WORD PTR tv691[ebp]
  0023b	0f b7 45 fe	 movzx	 eax, WORD PTR tv691[ebp]
  0023f	0d 00 0c 00 00	 or	 eax, 3072		; 00000c00H
  00244	89 45 f4	 mov	 DWORD PTR tv688[ebp], eax
  00247	d9 6d f4	 fldcw	 WORD PTR tv688[ebp]
  0024a	db 5d f4	 fistp	 DWORD PTR tv686[ebp]
  0024d	0f b6 45 f4	 movzx	 eax, BYTE PTR tv686[ebp]
  00251	88 46 2a	 mov	 BYTE PTR [esi+42], al
  00254	d9 6d fe	 fldcw	 WORD PTR tv691[ebp]

; 3545 : 
; 3546 : 					Token = GetToken();

  00257	e8 00 00 00 00	 call	 ?GetToken@@YA?AW4SMDToken@@XZ ; GetToken

; 3547 : 					p->DamageMax = TokenNumber;

  0025c	d9 05 00 00 00
	00		 fld	 DWORD PTR _TokenNumber
  00262	d9 7d fe	 fnstcw	 WORD PTR tv683[ebp]
  00265	0f b7 45 fe	 movzx	 eax, WORD PTR tv683[ebp]
  00269	0d 00 0c 00 00	 or	 eax, 3072		; 00000c00H
  0026e	89 45 f4	 mov	 DWORD PTR tv680[ebp], eax
  00271	d9 6d f4	 fldcw	 WORD PTR tv680[ebp]
  00274	db 5d f4	 fistp	 DWORD PTR tv678[ebp]
  00277	0f b6 4d f4	 movzx	 ecx, BYTE PTR tv678[ebp]
  0027b	88 4e 2b	 mov	 BYTE PTR [esi+43], cl
  0027e	d9 6d fe	 fldcw	 WORD PTR tv683[ebp]

; 3548 : 
; 3549 : 					Token = GetToken();

  00281	e8 00 00 00 00	 call	 ?GetToken@@YA?AW4SMDToken@@XZ ; GetToken

; 3550 : 					p->AttackSpeed = TokenNumber;

  00286	d9 05 00 00 00
	00		 fld	 DWORD PTR _TokenNumber
  0028c	d9 7d fe	 fnstcw	 WORD PTR tv675[ebp]
  0028f	0f b7 45 fe	 movzx	 eax, WORD PTR tv675[ebp]
  00293	0d 00 0c 00 00	 or	 eax, 3072		; 00000c00H
  00298	89 45 f4	 mov	 DWORD PTR tv672[ebp], eax
  0029b	d9 6d f4	 fldcw	 WORD PTR tv672[ebp]
  0029e	db 5d f4	 fistp	 DWORD PTR tv670[ebp]
  002a1	0f b6 55 f4	 movzx	 edx, BYTE PTR tv670[ebp]
  002a5	88 56 28	 mov	 BYTE PTR [esi+40], dl
  002a8	d9 6d fe	 fldcw	 WORD PTR tv675[ebp]

; 3551 : 
; 3552 : 					Token = GetToken();

  002ab	e8 00 00 00 00	 call	 ?GetToken@@YA?AW4SMDToken@@XZ ; GetToken

; 3553 : 					p->Durability = TokenNumber;

  002b0	d9 05 00 00 00
	00		 fld	 DWORD PTR _TokenNumber
  002b6	d9 7d fe	 fnstcw	 WORD PTR tv667[ebp]
  002b9	0f b7 45 fe	 movzx	 eax, WORD PTR tv667[ebp]
  002bd	0d 00 0c 00 00	 or	 eax, 3072		; 00000c00H
  002c2	89 45 f4	 mov	 DWORD PTR tv664[ebp], eax
  002c5	d9 6d f4	 fldcw	 WORD PTR tv664[ebp]
  002c8	db 5d f4	 fistp	 DWORD PTR tv662[ebp]
  002cb	0f b6 45 f4	 movzx	 eax, BYTE PTR tv662[ebp]
  002cf	88 46 30	 mov	 BYTE PTR [esi+48], al
  002d2	d9 6d fe	 fldcw	 WORD PTR tv667[ebp]

; 3554 : 
; 3555 : 					Token = GetToken();

  002d5	e8 00 00 00 00	 call	 ?GetToken@@YA?AW4SMDToken@@XZ ; GetToken

; 3556 : 					p->MagicDurability = TokenNumber;

  002da	d9 05 00 00 00
	00		 fld	 DWORD PTR _TokenNumber
  002e0	d9 7d fe	 fnstcw	 WORD PTR tv659[ebp]
  002e3	0f b7 45 fe	 movzx	 eax, WORD PTR tv659[ebp]
  002e7	0d 00 0c 00 00	 or	 eax, 3072		; 00000c00H
  002ec	89 45 f4	 mov	 DWORD PTR tv656[ebp], eax
  002ef	d9 6d f4	 fldcw	 WORD PTR tv656[ebp]
  002f2	db 5d f4	 fistp	 DWORD PTR tv654[ebp]
  002f5	0f b6 4d f4	 movzx	 ecx, BYTE PTR tv654[ebp]
  002f9	88 4e 31	 mov	 BYTE PTR [esi+49], cl
  002fc	d9 6d fe	 fldcw	 WORD PTR tv659[ebp]

; 3557 : 
; 3558 : 					Token = GetToken();

  002ff	e8 00 00 00 00	 call	 ?GetToken@@YA?AW4SMDToken@@XZ ; GetToken

; 3559 : 					p->MagicPW = TokenNumber;

  00304	d9 05 00 00 00
	00		 fld	 DWORD PTR _TokenNumber
  0030a	e8 00 00 00 00	 call	 __ftol2_sse
  0030f	89 46 50	 mov	 DWORD PTR [esi+80], eax

; 3560 : 
; 3561 : 					Token = GetToken();

  00312	e8 00 00 00 00	 call	 ?GetToken@@YA?AW4SMDToken@@XZ ; GetToken

; 3562 : 					p->RequireLevel = TokenNumber;

  00317	d9 05 00 00 00
	00		 fld	 DWORD PTR _TokenNumber
  0031d	d9 7d fe	 fnstcw	 WORD PTR tv646[ebp]
  00320	0f b7 45 fe	 movzx	 eax, WORD PTR tv646[ebp]
  00324	0d 00 0c 00 00	 or	 eax, 3072		; 00000c00H
  00329	89 45 f4	 mov	 DWORD PTR tv643[ebp], eax
  0032c	d9 6d f4	 fldcw	 WORD PTR tv643[ebp]
  0032f	db 5d f4	 fistp	 DWORD PTR tv641[ebp]
  00332	0f b7 55 f4	 movzx	 edx, WORD PTR tv641[ebp]
  00336	66 89 56 3a	 mov	 WORD PTR [esi+58], dx
  0033a	d9 6d fe	 fldcw	 WORD PTR tv646[ebp]

; 3563 : 
; 3564 : 					Token = GetToken();

  0033d	e8 00 00 00 00	 call	 ?GetToken@@YA?AW4SMDToken@@XZ ; GetToken

; 3565 : 					p->RequireStrength = TokenNumber;

  00342	d9 05 00 00 00
	00		 fld	 DWORD PTR _TokenNumber
  00348	d9 7d fe	 fnstcw	 WORD PTR tv638[ebp]
  0034b	0f b7 45 fe	 movzx	 eax, WORD PTR tv638[ebp]
  0034f	0d 00 0c 00 00	 or	 eax, 3072		; 00000c00H
  00354	89 45 f4	 mov	 DWORD PTR tv634[ebp], eax
  00357	d9 6d f4	 fldcw	 WORD PTR tv634[ebp]
  0035a	db 5d f4	 fistp	 DWORD PTR tv632[ebp]
  0035d	0f b7 45 f4	 movzx	 eax, WORD PTR tv632[ebp]
  00361	66 89 46 34	 mov	 WORD PTR [esi+52], ax
  00365	d9 6d fe	 fldcw	 WORD PTR tv638[ebp]

; 3566 : 
; 3567 : 					Token = GetToken();

  00368	e8 00 00 00 00	 call	 ?GetToken@@YA?AW4SMDToken@@XZ ; GetToken

; 3568 : 					p->RequireDexterity = TokenNumber;

  0036d	d9 05 00 00 00
	00		 fld	 DWORD PTR _TokenNumber
  00373	d9 7d fe	 fnstcw	 WORD PTR tv629[ebp]
  00376	0f b7 45 fe	 movzx	 eax, WORD PTR tv629[ebp]
  0037a	0d 00 0c 00 00	 or	 eax, 3072		; 00000c00H
  0037f	89 45 f4	 mov	 DWORD PTR tv625[ebp], eax
  00382	d9 6d f4	 fldcw	 WORD PTR tv625[ebp]
  00385	db 5d f4	 fistp	 DWORD PTR tv623[ebp]
  00388	66 8b 4d f4	 mov	 cx, WORD PTR tv623[ebp]
  0038c	66 89 4e 36	 mov	 WORD PTR [esi+54], cx
  00390	d9 6d fe	 fldcw	 WORD PTR tv629[ebp]

; 3569 : 
; 3570 : 					Token = GetToken();

  00393	e8 00 00 00 00	 call	 ?GetToken@@YA?AW4SMDToken@@XZ ; GetToken

; 3571 : 					p->RequireEnergy = TokenNumber;

  00398	d9 05 00 00 00
	00		 fld	 DWORD PTR _TokenNumber
  0039e	d9 7d fe	 fnstcw	 WORD PTR tv620[ebp]
  003a1	0f b7 45 fe	 movzx	 eax, WORD PTR tv620[ebp]
  003a5	0d 00 0c 00 00	 or	 eax, 3072		; 00000c00H
  003aa	89 45 f4	 mov	 DWORD PTR tv617[ebp], eax
  003ad	d9 6d f4	 fldcw	 WORD PTR tv617[ebp]
  003b0	db 5d f4	 fistp	 DWORD PTR tv615[ebp]
  003b3	0f b7 55 f4	 movzx	 edx, WORD PTR tv615[ebp]
  003b7	66 89 56 38	 mov	 WORD PTR [esi+56], dx
  003bb	d9 6d fe	 fldcw	 WORD PTR tv620[ebp]

; 3572 : 
; 3573 : 					Token = GetToken();

  003be	e8 00 00 00 00	 call	 ?GetToken@@YA?AW4SMDToken@@XZ ; GetToken

; 3574 : 					p->RequireVitality = TokenNumber;

  003c3	d9 05 00 00 00
	00		 fld	 DWORD PTR _TokenNumber
  003c9	d9 7d fe	 fnstcw	 WORD PTR tv611[ebp]
  003cc	0f b7 45 fe	 movzx	 eax, WORD PTR tv611[ebp]
  003d0	0d 00 0c 00 00	 or	 eax, 3072		; 00000c00H
  003d5	89 45 f4	 mov	 DWORD PTR tv608[ebp], eax
  003d8	d9 6d f4	 fldcw	 WORD PTR tv608[ebp]
  003db	db 5d f4	 fistp	 DWORD PTR tv606[ebp]
  003de	0f b7 45 f4	 movzx	 eax, WORD PTR tv606[ebp]
  003e2	66 89 46 4a	 mov	 WORD PTR [esi+74], ax
  003e6	d9 6d fe	 fldcw	 WORD PTR tv611[ebp]

; 3575 : 
; 3576 : 					Token = GetToken();

  003e9	e8 00 00 00 00	 call	 ?GetToken@@YA?AW4SMDToken@@XZ ; GetToken

; 3577 : 					p->RequireLeadership = TokenNumber;

  003ee	d9 05 00 00 00
	00		 fld	 DWORD PTR _TokenNumber
  003f4	e8 00 00 00 00	 call	 __ftol2_sse

; 3578 : 
; 3579 : 					if ( p->Width  >= 2)

  003f9	80 7e 23 02	 cmp	 BYTE PTR [esi+35], 2
  003fd	89 46 68	 mov	 DWORD PTR [esi+104], eax
  00400	72 04		 jb	 SHORT $LN23@OpenItemSc

; 3580 : 					{
; 3581 : 						p->TwoHand = TRUE; // Review this later

  00402	c6 46 21 01	 mov	 BYTE PTR [esi+33], 1
$LN23@OpenItemSc:

; 3582 : 					}
; 3583 : 
; 3584 : 					(BYTE)p->Durability += (BYTE)p->MagicDurability;

  00406	8a 4e 31	 mov	 cl, BYTE PTR [esi+49]
  00409	00 4e 30	 add	 BYTE PTR [esi+48], cl
$LN59@OpenItemSc:

; 3585 : 				}
; 3586 : 
; 3587 : 				if ( ItemType >= 6 && ItemType <= 11 )

  0040c	8d 57 fa	 lea	 edx, DWORD PTR [edi-6]
  0040f	83 fa 05	 cmp	 edx, 5
  00412	0f 87 a7 02 00
	00		 ja	 $LN22@OpenItemSc

; 3588 : 				{
; 3589 : 					Token = GetToken();

  00418	e8 00 00 00 00	 call	 ?GetToken@@YA?AW4SMDToken@@XZ ; GetToken

; 3590 : 					p->Level = TokenNumber;

  0041d	d9 05 00 00 00
	00		 fld	 DWORD PTR _TokenNumber
  00423	d9 7d fe	 fnstcw	 WORD PTR tv597[ebp]
  00426	0f b7 45 fe	 movzx	 eax, WORD PTR tv597[ebp]
  0042a	0d 00 0c 00 00	 or	 eax, 3072		; 00000c00H
  0042f	89 45 f4	 mov	 DWORD PTR tv594[ebp], eax
  00432	d9 6d f4	 fldcw	 WORD PTR tv594[ebp]
  00435	db 5d f4	 fistp	 DWORD PTR tv592[ebp]
  00438	8a 45 f4	 mov	 al, BYTE PTR tv592[ebp]
  0043b	88 46 22	 mov	 BYTE PTR [esi+34], al
  0043e	d9 6d fe	 fldcw	 WORD PTR tv597[ebp]

; 3591 : 					
; 3592 : 					if ( ItemType == 6 )

  00441	83 ff 06	 cmp	 edi, 6
  00444	75 57		 jne	 SHORT $LN21@OpenItemSc

; 3593 : 					{
; 3594 : 
; 3595 : 						Token = GetToken();

  00446	e8 00 00 00 00	 call	 ?GetToken@@YA?AW4SMDToken@@XZ ; GetToken

; 3596 : 						p->Defense = TokenNumber;

  0044b	d9 05 00 00 00
	00		 fld	 DWORD PTR _TokenNumber
  00451	d9 7d fe	 fnstcw	 WORD PTR tv589[ebp]
  00454	0f b7 45 fe	 movzx	 eax, WORD PTR tv589[ebp]
  00458	0d 00 0c 00 00	 or	 eax, 3072		; 00000c00H
  0045d	89 45 f4	 mov	 DWORD PTR tv586[ebp], eax
  00460	d9 6d f4	 fldcw	 WORD PTR tv586[ebp]
  00463	db 5d f4	 fistp	 DWORD PTR tv584[ebp]
  00466	8a 4d f4	 mov	 cl, BYTE PTR tv584[ebp]
  00469	88 4e 2d	 mov	 BYTE PTR [esi+45], cl
  0046c	d9 6d fe	 fldcw	 WORD PTR tv589[ebp]

; 3597 : 
; 3598 : 						Token = GetToken();

  0046f	e8 00 00 00 00	 call	 ?GetToken@@YA?AW4SMDToken@@XZ ; GetToken

; 3599 : 						p->SuccessfulBlocking  = TokenNumber;

  00474	d9 05 00 00 00
	00		 fld	 DWORD PTR _TokenNumber
  0047a	d9 7d fe	 fnstcw	 WORD PTR tv581[ebp]
  0047d	0f b7 45 fe	 movzx	 eax, WORD PTR tv581[ebp]
  00481	0d 00 0c 00 00	 or	 eax, 3072		; 00000c00H
  00486	89 45 f4	 mov	 DWORD PTR tv578[ebp], eax
  00489	d9 6d f4	 fldcw	 WORD PTR tv578[ebp]
  0048c	db 5d f4	 fistp	 DWORD PTR tv576[ebp]
  0048f	8a 55 f4	 mov	 dl, BYTE PTR tv576[ebp]
  00492	88 56 2c	 mov	 BYTE PTR [esi+44], dl
  00495	d9 6d fe	 fldcw	 WORD PTR tv581[ebp]
  00498	e9 0f 01 00 00	 jmp	 $LN15@OpenItemSc
$LN21@OpenItemSc:

; 3600 : 
; 3601 : 					}
; 3602 : 					else if ( ItemType >= 7 && ItemType <= 9 )

  0049d	8d 47 f9	 lea	 eax, DWORD PTR [edi-7]
  004a0	83 f8 02	 cmp	 eax, 2
  004a3	77 57		 ja	 SHORT $LN19@OpenItemSc

; 3603 : 					{
; 3604 : 
; 3605 : 						Token = GetToken();

  004a5	e8 00 00 00 00	 call	 ?GetToken@@YA?AW4SMDToken@@XZ ; GetToken

; 3606 : 						p->Defense  = TokenNumber;

  004aa	d9 05 00 00 00
	00		 fld	 DWORD PTR _TokenNumber
  004b0	d9 7d fe	 fnstcw	 WORD PTR tv573[ebp]
  004b3	0f b7 45 fe	 movzx	 eax, WORD PTR tv573[ebp]
  004b7	0d 00 0c 00 00	 or	 eax, 3072		; 00000c00H
  004bc	89 45 f4	 mov	 DWORD PTR tv568[ebp], eax
  004bf	d9 6d f4	 fldcw	 WORD PTR tv568[ebp]
  004c2	db 5d f4	 fistp	 DWORD PTR tv566[ebp]
  004c5	8a 4d f4	 mov	 cl, BYTE PTR tv566[ebp]
  004c8	88 4e 2d	 mov	 BYTE PTR [esi+45], cl
  004cb	d9 6d fe	 fldcw	 WORD PTR tv573[ebp]

; 3607 : 
; 3608 : 						Token = GetToken();

  004ce	e8 00 00 00 00	 call	 ?GetToken@@YA?AW4SMDToken@@XZ ; GetToken

; 3609 : 						p->MagicDefense = TokenNumber;

  004d3	d9 05 00 00 00
	00		 fld	 DWORD PTR _TokenNumber
  004d9	d9 7d fe	 fnstcw	 WORD PTR tv563[ebp]
  004dc	0f b7 45 fe	 movzx	 eax, WORD PTR tv563[ebp]
  004e0	0d 00 0c 00 00	 or	 eax, 3072		; 00000c00H
  004e5	89 45 f4	 mov	 DWORD PTR tv559[ebp], eax
  004e8	d9 6d f4	 fldcw	 WORD PTR tv559[ebp]
  004eb	db 5d f4	 fistp	 DWORD PTR tv557[ebp]
  004ee	8a 55 f4	 mov	 dl, BYTE PTR tv557[ebp]
  004f1	88 56 2e	 mov	 BYTE PTR [esi+46], dl
  004f4	d9 6d fe	 fldcw	 WORD PTR tv563[ebp]
  004f7	e9 b0 00 00 00	 jmp	 $LN15@OpenItemSc
$LN19@OpenItemSc:

; 3610 : 					}
; 3611 : 					else if ( ItemType == 10 )

  004fc	83 ff 0a	 cmp	 edi, 10			; 0000000aH
  004ff	75 54		 jne	 SHORT $LN17@OpenItemSc

; 3612 : 					{
; 3613 : 						Token = GetToken();

  00501	e8 00 00 00 00	 call	 ?GetToken@@YA?AW4SMDToken@@XZ ; GetToken

; 3614 : 						p->Defense = TokenNumber;

  00506	d9 05 00 00 00
	00		 fld	 DWORD PTR _TokenNumber
  0050c	d9 7d fe	 fnstcw	 WORD PTR tv553[ebp]
  0050f	0f b7 45 fe	 movzx	 eax, WORD PTR tv553[ebp]
  00513	0d 00 0c 00 00	 or	 eax, 3072		; 00000c00H
  00518	89 45 f4	 mov	 DWORD PTR tv550[ebp], eax
  0051b	d9 6d f4	 fldcw	 WORD PTR tv550[ebp]
  0051e	db 5d f4	 fistp	 DWORD PTR tv548[ebp]
  00521	8a 45 f4	 mov	 al, BYTE PTR tv548[ebp]
  00524	88 46 2d	 mov	 BYTE PTR [esi+45], al
  00527	d9 6d fe	 fldcw	 WORD PTR tv553[ebp]

; 3615 : 
; 3616 : 						Token = GetToken();

  0052a	e8 00 00 00 00	 call	 ?GetToken@@YA?AW4SMDToken@@XZ ; GetToken

; 3617 : 						p->AttackSpeed = TokenNumber;

  0052f	d9 05 00 00 00
	00		 fld	 DWORD PTR _TokenNumber
  00535	d9 7d fe	 fnstcw	 WORD PTR tv544[ebp]
  00538	0f b7 45 fe	 movzx	 eax, WORD PTR tv544[ebp]
  0053c	0d 00 0c 00 00	 or	 eax, 3072		; 00000c00H
  00541	89 45 f4	 mov	 DWORD PTR tv541[ebp], eax
  00544	d9 6d f4	 fldcw	 WORD PTR tv541[ebp]
  00547	db 5d f4	 fistp	 DWORD PTR tv539[ebp]
  0054a	8a 4d f4	 mov	 cl, BYTE PTR tv539[ebp]
  0054d	88 4e 28	 mov	 BYTE PTR [esi+40], cl
  00550	d9 6d fe	 fldcw	 WORD PTR tv544[ebp]
  00553	eb 57		 jmp	 SHORT $LN15@OpenItemSc
$LN17@OpenItemSc:

; 3618 : 					}
; 3619 : 					else if ( ItemType == 11 )

  00555	83 ff 0b	 cmp	 edi, 11			; 0000000bH
  00558	75 52		 jne	 SHORT $LN15@OpenItemSc

; 3620 : 					{
; 3621 : 						Token = GetToken();

  0055a	e8 00 00 00 00	 call	 ?GetToken@@YA?AW4SMDToken@@XZ ; GetToken

; 3622 : 						p->Defense  = TokenNumber;

  0055f	d9 05 00 00 00
	00		 fld	 DWORD PTR _TokenNumber
  00565	d9 7d fe	 fnstcw	 WORD PTR tv536[ebp]
  00568	0f b7 45 fe	 movzx	 eax, WORD PTR tv536[ebp]
  0056c	0d 00 0c 00 00	 or	 eax, 3072		; 00000c00H
  00571	89 45 f4	 mov	 DWORD PTR tv532[ebp], eax
  00574	d9 6d f4	 fldcw	 WORD PTR tv532[ebp]
  00577	db 5d f4	 fistp	 DWORD PTR tv530[ebp]
  0057a	8a 55 f4	 mov	 dl, BYTE PTR tv530[ebp]
  0057d	88 56 2d	 mov	 BYTE PTR [esi+45], dl
  00580	d9 6d fe	 fldcw	 WORD PTR tv536[ebp]

; 3623 : 
; 3624 : 						Token = GetToken();

  00583	e8 00 00 00 00	 call	 ?GetToken@@YA?AW4SMDToken@@XZ ; GetToken

; 3625 : 						p->WalkSpeed = TokenNumber;

  00588	d9 05 00 00 00
	00		 fld	 DWORD PTR _TokenNumber
  0058e	d9 7d fe	 fnstcw	 WORD PTR tv526[ebp]
  00591	0f b7 45 fe	 movzx	 eax, WORD PTR tv526[ebp]
  00595	0d 00 0c 00 00	 or	 eax, 3072		; 00000c00H
  0059a	89 45 f4	 mov	 DWORD PTR tv523[ebp], eax
  0059d	d9 6d f4	 fldcw	 WORD PTR tv523[ebp]
  005a0	db 5d f4	 fistp	 DWORD PTR tv521[ebp]
  005a3	8a 45 f4	 mov	 al, BYTE PTR tv521[ebp]
  005a6	88 46 29	 mov	 BYTE PTR [esi+41], al
  005a9	d9 6d fe	 fldcw	 WORD PTR tv526[ebp]
$LN15@OpenItemSc:

; 3626 : 					}
; 3627 : 					
; 3628 : 					Token = GetToken();

  005ac	e8 00 00 00 00	 call	 ?GetToken@@YA?AW4SMDToken@@XZ ; GetToken

; 3629 : 					p->Durability = TokenNumber;

  005b1	d9 05 00 00 00
	00		 fld	 DWORD PTR _TokenNumber
  005b7	d9 7d fe	 fnstcw	 WORD PTR tv518[ebp]
  005ba	0f b7 45 fe	 movzx	 eax, WORD PTR tv518[ebp]
  005be	0d 00 0c 00 00	 or	 eax, 3072		; 00000c00H
  005c3	89 45 f4	 mov	 DWORD PTR tv515[ebp], eax
  005c6	d9 6d f4	 fldcw	 WORD PTR tv515[ebp]
  005c9	db 5d f4	 fistp	 DWORD PTR tv513[ebp]
  005cc	8a 4d f4	 mov	 cl, BYTE PTR tv513[ebp]
  005cf	88 4e 30	 mov	 BYTE PTR [esi+48], cl
  005d2	d9 6d fe	 fldcw	 WORD PTR tv518[ebp]

; 3630 : 
; 3631 : 					Token = GetToken();

  005d5	e8 00 00 00 00	 call	 ?GetToken@@YA?AW4SMDToken@@XZ ; GetToken

; 3632 : 					p->RequireLevel = TokenNumber;

  005da	d9 05 00 00 00
	00		 fld	 DWORD PTR _TokenNumber
  005e0	d9 7d fe	 fnstcw	 WORD PTR tv499[ebp]
  005e3	0f b7 45 fe	 movzx	 eax, WORD PTR tv499[ebp]
  005e7	0d 00 0c 00 00	 or	 eax, 3072		; 00000c00H
  005ec	89 45 f4	 mov	 DWORD PTR tv495[ebp], eax
  005ef	d9 6d f4	 fldcw	 WORD PTR tv495[ebp]
  005f2	db 5d f4	 fistp	 DWORD PTR tv493[ebp]
  005f5	0f b7 55 f4	 movzx	 edx, WORD PTR tv493[ebp]
  005f9	66 89 56 3a	 mov	 WORD PTR [esi+58], dx
  005fd	d9 6d fe	 fldcw	 WORD PTR tv499[ebp]

; 3633 : 
; 3634 : 					Token = GetToken();

  00600	e8 00 00 00 00	 call	 ?GetToken@@YA?AW4SMDToken@@XZ ; GetToken

; 3635 : 					p->RequireStrength = TokenNumber;

  00605	d9 05 00 00 00
	00		 fld	 DWORD PTR _TokenNumber
  0060b	d9 7d fe	 fnstcw	 WORD PTR tv490[ebp]
  0060e	0f b7 45 fe	 movzx	 eax, WORD PTR tv490[ebp]
  00612	0d 00 0c 00 00	 or	 eax, 3072		; 00000c00H
  00617	89 45 f4	 mov	 DWORD PTR tv487[ebp], eax
  0061a	d9 6d f4	 fldcw	 WORD PTR tv487[ebp]
  0061d	db 5d f4	 fistp	 DWORD PTR tv485[ebp]
  00620	0f b7 45 f4	 movzx	 eax, WORD PTR tv485[ebp]
  00624	66 89 46 34	 mov	 WORD PTR [esi+52], ax
  00628	d9 6d fe	 fldcw	 WORD PTR tv490[ebp]

; 3636 : 
; 3637 : 					Token = GetToken();

  0062b	e8 00 00 00 00	 call	 ?GetToken@@YA?AW4SMDToken@@XZ ; GetToken

; 3638 : 					p->RequireDexterity = TokenNumber;

  00630	d9 05 00 00 00
	00		 fld	 DWORD PTR _TokenNumber
  00636	d9 7d fe	 fnstcw	 WORD PTR tv482[ebp]
  00639	0f b7 45 fe	 movzx	 eax, WORD PTR tv482[ebp]
  0063d	0d 00 0c 00 00	 or	 eax, 3072		; 00000c00H
  00642	89 45 f4	 mov	 DWORD PTR tv479[ebp], eax
  00645	d9 6d f4	 fldcw	 WORD PTR tv479[ebp]
  00648	db 5d f4	 fistp	 DWORD PTR tv477[ebp]
  0064b	66 8b 4d f4	 mov	 cx, WORD PTR tv477[ebp]
  0064f	66 89 4e 36	 mov	 WORD PTR [esi+54], cx
  00653	d9 6d fe	 fldcw	 WORD PTR tv482[ebp]

; 3639 : 
; 3640 : 					Token = GetToken();

  00656	e8 00 00 00 00	 call	 ?GetToken@@YA?AW4SMDToken@@XZ ; GetToken

; 3641 : 					p->RequireEnergy = TokenNumber;

  0065b	d9 05 00 00 00
	00		 fld	 DWORD PTR _TokenNumber
  00661	d9 7d fe	 fnstcw	 WORD PTR tv474[ebp]
  00664	0f b7 45 fe	 movzx	 eax, WORD PTR tv474[ebp]
  00668	0d 00 0c 00 00	 or	 eax, 3072		; 00000c00H
  0066d	89 45 f4	 mov	 DWORD PTR tv471[ebp], eax
  00670	d9 6d f4	 fldcw	 WORD PTR tv471[ebp]
  00673	db 5d f4	 fistp	 DWORD PTR tv469[ebp]
  00676	0f b7 55 f4	 movzx	 edx, WORD PTR tv469[ebp]
  0067a	66 89 56 38	 mov	 WORD PTR [esi+56], dx
  0067e	d9 6d fe	 fldcw	 WORD PTR tv474[ebp]

; 3642 : 
; 3643 : 					Token = GetToken();

  00681	e8 00 00 00 00	 call	 ?GetToken@@YA?AW4SMDToken@@XZ ; GetToken

; 3644 : 					p->RequireVitality = TokenNumber;

  00686	d9 05 00 00 00
	00		 fld	 DWORD PTR _TokenNumber
  0068c	d9 7d fe	 fnstcw	 WORD PTR tv444[ebp]
  0068f	0f b7 45 fe	 movzx	 eax, WORD PTR tv444[ebp]
  00693	0d 00 0c 00 00	 or	 eax, 3072		; 00000c00H
  00698	89 45 f4	 mov	 DWORD PTR tv407[ebp], eax
  0069b	d9 6d f4	 fldcw	 WORD PTR tv407[ebp]
  0069e	db 5d f4	 fistp	 DWORD PTR tv404[ebp]
  006a1	0f b7 45 f4	 movzx	 eax, WORD PTR tv404[ebp]
  006a5	66 89 46 4a	 mov	 WORD PTR [esi+74], ax
  006a9	d9 6d fe	 fldcw	 WORD PTR tv444[ebp]

; 3645 : 
; 3646 : 					Token = GetToken();

  006ac	e8 00 00 00 00	 call	 ?GetToken@@YA?AW4SMDToken@@XZ ; GetToken

; 3647 : 					p->RequireLeadership = TokenNumber;

  006b1	d9 05 00 00 00
	00		 fld	 DWORD PTR _TokenNumber
  006b7	e8 00 00 00 00	 call	 __ftol2_sse
  006bc	89 46 68	 mov	 DWORD PTR [esi+104], eax
$LN22@OpenItemSc:

; 3648 : 				}
; 3649 : 
; 3650 : 				if ( ItemType == 13 )

  006bf	83 ff 0d	 cmp	 edi, 13			; 0000000dH
  006c2	0f 85 9d 01 00
	00		 jne	 $LN14@OpenItemSc

; 3651 : 				{
; 3652 : 					Token = GetToken();

  006c8	e8 00 00 00 00	 call	 ?GetToken@@YA?AW4SMDToken@@XZ ; GetToken

; 3653 : 					p->Level = TokenNumber;

  006cd	d9 05 00 00 00
	00		 fld	 DWORD PTR _TokenNumber
  006d3	d9 7d fe	 fnstcw	 WORD PTR tv394[ebp]
  006d6	0f b7 45 fe	 movzx	 eax, WORD PTR tv394[ebp]
  006da	0d 00 0c 00 00	 or	 eax, 3072		; 00000c00H
  006df	89 45 f4	 mov	 DWORD PTR tv390[ebp], eax
  006e2	d9 6d f4	 fldcw	 WORD PTR tv390[ebp]
  006e5	db 5d f4	 fistp	 DWORD PTR tv385[ebp]
  006e8	0f b6 4d f4	 movzx	 ecx, BYTE PTR tv385[ebp]
  006ec	88 4e 22	 mov	 BYTE PTR [esi+34], cl
  006ef	d9 6d fe	 fldcw	 WORD PTR tv394[ebp]

; 3654 : 
; 3655 : 					Token = GetToken();

  006f2	e8 00 00 00 00	 call	 ?GetToken@@YA?AW4SMDToken@@XZ ; GetToken

; 3656 : 					p->Durability = TokenNumber;

  006f7	d9 05 00 00 00
	00		 fld	 DWORD PTR _TokenNumber
  006fd	d9 7d fe	 fnstcw	 WORD PTR tv382[ebp]
  00700	0f b7 45 fe	 movzx	 eax, WORD PTR tv382[ebp]
  00704	0d 00 0c 00 00	 or	 eax, 3072		; 00000c00H
  00709	89 45 f4	 mov	 DWORD PTR tv378[ebp], eax
  0070c	d9 6d f4	 fldcw	 WORD PTR tv378[ebp]
  0070f	db 5d f4	 fistp	 DWORD PTR tv376[ebp]
  00712	0f b6 55 f4	 movzx	 edx, BYTE PTR tv376[ebp]
  00716	88 56 30	 mov	 BYTE PTR [esi+48], dl
  00719	d9 6d fe	 fldcw	 WORD PTR tv382[ebp]

; 3657 : 
; 3658 : 					Token = GetToken();

  0071c	e8 00 00 00 00	 call	 ?GetToken@@YA?AW4SMDToken@@XZ ; GetToken

; 3659 : 					p->Resistance[0] = TokenNumber;

  00721	d9 05 00 00 00
	00		 fld	 DWORD PTR _TokenNumber
  00727	d9 7d fe	 fnstcw	 WORD PTR tv372[ebp]
  0072a	0f b7 45 fe	 movzx	 eax, WORD PTR tv372[ebp]
  0072e	0d 00 0c 00 00	 or	 eax, 3072		; 00000c00H
  00733	89 45 f4	 mov	 DWORD PTR tv369[ebp], eax
  00736	d9 6d f4	 fldcw	 WORD PTR tv369[ebp]
  00739	db 5d f4	 fistp	 DWORD PTR tv367[ebp]
  0073c	0f b6 45 f4	 movzx	 eax, BYTE PTR tv367[ebp]
  00740	88 46 43	 mov	 BYTE PTR [esi+67], al
  00743	d9 6d fe	 fldcw	 WORD PTR tv372[ebp]

; 3660 : 
; 3661 : 					Token = GetToken();

  00746	e8 00 00 00 00	 call	 ?GetToken@@YA?AW4SMDToken@@XZ ; GetToken

; 3662 : 					p->Resistance[1] = TokenNumber;

  0074b	d9 05 00 00 00
	00		 fld	 DWORD PTR _TokenNumber
  00751	d9 7d fe	 fnstcw	 WORD PTR tv364[ebp]
  00754	0f b7 45 fe	 movzx	 eax, WORD PTR tv364[ebp]
  00758	0d 00 0c 00 00	 or	 eax, 3072		; 00000c00H
  0075d	89 45 f4	 mov	 DWORD PTR tv361[ebp], eax
  00760	d9 6d f4	 fldcw	 WORD PTR tv361[ebp]
  00763	db 5d f4	 fistp	 DWORD PTR tv359[ebp]
  00766	0f b6 4d f4	 movzx	 ecx, BYTE PTR tv359[ebp]
  0076a	88 4e 44	 mov	 BYTE PTR [esi+68], cl
  0076d	d9 6d fe	 fldcw	 WORD PTR tv364[ebp]

; 3663 : 
; 3664 : 					Token = GetToken();

  00770	e8 00 00 00 00	 call	 ?GetToken@@YA?AW4SMDToken@@XZ ; GetToken

; 3665 : 					p->Resistance[2] = TokenNumber;

  00775	d9 05 00 00 00
	00		 fld	 DWORD PTR _TokenNumber
  0077b	d9 7d fe	 fnstcw	 WORD PTR tv355[ebp]
  0077e	0f b7 45 fe	 movzx	 eax, WORD PTR tv355[ebp]
  00782	0d 00 0c 00 00	 or	 eax, 3072		; 00000c00H
  00787	89 45 f4	 mov	 DWORD PTR tv352[ebp], eax
  0078a	d9 6d f4	 fldcw	 WORD PTR tv352[ebp]
  0078d	db 5d f4	 fistp	 DWORD PTR tv350[ebp]
  00790	0f b6 55 f4	 movzx	 edx, BYTE PTR tv350[ebp]
  00794	88 56 45	 mov	 BYTE PTR [esi+69], dl
  00797	d9 6d fe	 fldcw	 WORD PTR tv355[ebp]

; 3666 : 
; 3667 : 					Token = GetToken();

  0079a	e8 00 00 00 00	 call	 ?GetToken@@YA?AW4SMDToken@@XZ ; GetToken

; 3668 : 					p->Resistance[3] = TokenNumber;

  0079f	d9 05 00 00 00
	00		 fld	 DWORD PTR _TokenNumber
  007a5	d9 7d fe	 fnstcw	 WORD PTR tv347[ebp]
  007a8	0f b7 45 fe	 movzx	 eax, WORD PTR tv347[ebp]
  007ac	0d 00 0c 00 00	 or	 eax, 3072		; 00000c00H
  007b1	89 45 f4	 mov	 DWORD PTR tv344[ebp], eax
  007b4	d9 6d f4	 fldcw	 WORD PTR tv344[ebp]
  007b7	db 5d f4	 fistp	 DWORD PTR tv342[ebp]
  007ba	0f b6 45 f4	 movzx	 eax, BYTE PTR tv342[ebp]
  007be	88 46 46	 mov	 BYTE PTR [esi+70], al
  007c1	d9 6d fe	 fldcw	 WORD PTR tv347[ebp]

; 3669 : 
; 3670 : 					Token = GetToken();

  007c4	e8 00 00 00 00	 call	 ?GetToken@@YA?AW4SMDToken@@XZ ; GetToken

; 3671 : 					p->Resistance[4] = TokenNumber;

  007c9	d9 05 00 00 00
	00		 fld	 DWORD PTR _TokenNumber
  007cf	d9 7d fe	 fnstcw	 WORD PTR tv339[ebp]
  007d2	0f b7 45 fe	 movzx	 eax, WORD PTR tv339[ebp]
  007d6	0d 00 0c 00 00	 or	 eax, 3072		; 00000c00H
  007db	89 45 f4	 mov	 DWORD PTR tv336[ebp], eax
  007de	d9 6d f4	 fldcw	 WORD PTR tv336[ebp]
  007e1	db 5d f4	 fistp	 DWORD PTR tv334[ebp]
  007e4	0f b6 4d f4	 movzx	 ecx, BYTE PTR tv334[ebp]
  007e8	88 4e 47	 mov	 BYTE PTR [esi+71], cl
  007eb	d9 6d fe	 fldcw	 WORD PTR tv339[ebp]

; 3672 : 
; 3673 : 					Token = GetToken();

  007ee	e8 00 00 00 00	 call	 ?GetToken@@YA?AW4SMDToken@@XZ ; GetToken

; 3674 : 					p->Resistance[5] = TokenNumber;

  007f3	d9 05 00 00 00
	00		 fld	 DWORD PTR _TokenNumber
  007f9	d9 7d fe	 fnstcw	 WORD PTR tv331[ebp]
  007fc	0f b7 45 fe	 movzx	 eax, WORD PTR tv331[ebp]
  00800	0d 00 0c 00 00	 or	 eax, 3072		; 00000c00H
  00805	89 45 f4	 mov	 DWORD PTR tv327[ebp], eax
  00808	d9 6d f4	 fldcw	 WORD PTR tv327[ebp]
  0080b	db 5d f4	 fistp	 DWORD PTR tv325[ebp]
  0080e	0f b6 55 f4	 movzx	 edx, BYTE PTR tv325[ebp]
  00812	88 56 48	 mov	 BYTE PTR [esi+72], dl
  00815	d9 6d fe	 fldcw	 WORD PTR tv331[ebp]

; 3675 : 
; 3676 : 					Token = GetToken();

  00818	e8 00 00 00 00	 call	 ?GetToken@@YA?AW4SMDToken@@XZ ; GetToken

; 3677 : 					p->Resistance[6] = TokenNumber;
; 3678 : 
; 3679 : 					p->ResistanceType = -1;

  0081d	c6 46 5e ff	 mov	 BYTE PTR [esi+94], 255	; 000000ffH
  00821	d9 05 00 00 00
	00		 fld	 DWORD PTR _TokenNumber
  00827	d9 7d fe	 fnstcw	 WORD PTR tv321[ebp]
  0082a	0f b7 45 fe	 movzx	 eax, WORD PTR tv321[ebp]
  0082e	0d 00 0c 00 00	 or	 eax, 3072		; 00000c00H
  00833	89 45 f4	 mov	 DWORD PTR tv318[ebp], eax
  00836	d9 6d f4	 fldcw	 WORD PTR tv318[ebp]
  00839	db 5d f4	 fistp	 DWORD PTR tv313[ebp]
  0083c	0f b6 45 f4	 movzx	 eax, BYTE PTR tv313[ebp]
  00840	88 46 49	 mov	 BYTE PTR [esi+73], al

; 3680 : 					
; 3681 : 					int n;
; 3682 : 
; 3683 : 					for (n=0;n<MAX_ITEM_SPECIAL_ATTRIBUTE-1;n++)

  00843	33 c0		 xor	 eax, eax
  00845	d9 6d fe	 fldcw	 WORD PTR tv321[ebp]
$LL13@OpenItemSc:

; 3684 : 					{
; 3685 : 						if ( (p->Resistance[n]) != 0 )

  00848	80 7c 06 43 00	 cmp	 BYTE PTR [esi+eax+67], 0
  0084d	74 03		 je	 SHORT $LN12@OpenItemSc

; 3686 : 						{
; 3687 : 							p->ResistanceType=n;

  0084f	88 46 5e	 mov	 BYTE PTR [esi+94], al
$LN12@OpenItemSc:

; 3680 : 					
; 3681 : 					int n;
; 3682 : 
; 3683 : 					for (n=0;n<MAX_ITEM_SPECIAL_ATTRIBUTE-1;n++)

  00852	40		 inc	 eax
  00853	83 f8 06	 cmp	 eax, 6
  00856	7c f0		 jl	 SHORT $LL13@OpenItemSc

; 3688 : 						}
; 3689 : 					}
; 3690 : 
; 3691 : 					p->RequireLevel = p->Level ;

  00858	0f b6 4e 22	 movzx	 ecx, BYTE PTR [esi+34]
  0085c	66 89 4e 3a	 mov	 WORD PTR [esi+58], cx

; 3692 : 					
; 3693 : 				}
; 3694 : 
; 3695 : 				if ( ItemType == 14 )

  00860	e9 6e 02 00 00	 jmp	 $LN5@OpenItemSc
$LN14@OpenItemSc:
  00865	83 ff 0e	 cmp	 edi, 14			; 0000000eH
  00868	75 5d		 jne	 SHORT $LN9@OpenItemSc

; 3696 : 				{
; 3697 : 					Token = GetToken();

  0086a	e8 00 00 00 00	 call	 ?GetToken@@YA?AW4SMDToken@@XZ ; GetToken

; 3698 : 					p->Value = TokenNumber;

  0086f	d9 05 00 00 00
	00		 fld	 DWORD PTR _TokenNumber
  00875	d9 7d fe	 fnstcw	 WORD PTR tv310[ebp]
  00878	0f b7 45 fe	 movzx	 eax, WORD PTR tv310[ebp]
  0087c	0d 00 0c 00 00	 or	 eax, 3072		; 00000c00H
  00881	89 45 f4	 mov	 DWORD PTR tv306[ebp], eax
  00884	d9 6d f4	 fldcw	 WORD PTR tv306[ebp]
  00887	db 5d f4	 fistp	 DWORD PTR tv303[ebp]
  0088a	66 8b 55 f4	 mov	 dx, WORD PTR tv303[ebp]
  0088e	66 89 56 3c	 mov	 WORD PTR [esi+60], dx
  00892	d9 6d fe	 fldcw	 WORD PTR tv310[ebp]

; 3699 : 
; 3700 : 					Token = GetToken();

  00895	e8 00 00 00 00	 call	 ?GetToken@@YA?AW4SMDToken@@XZ ; GetToken

; 3701 : 					p->Level = TokenNumber;
; 3702 : 
; 3703 : 					p->Durability = 1;

  0089a	c6 46 30 01	 mov	 BYTE PTR [esi+48], 1
  0089e	d9 05 00 00 00
	00		 fld	 DWORD PTR _TokenNumber
  008a4	d9 7d fe	 fnstcw	 WORD PTR tv299[ebp]
  008a7	0f b7 45 fe	 movzx	 eax, WORD PTR tv299[ebp]
  008ab	0d 00 0c 00 00	 or	 eax, 3072		; 00000c00H
  008b0	89 45 f4	 mov	 DWORD PTR tv295[ebp], eax
  008b3	d9 6d f4	 fldcw	 WORD PTR tv295[ebp]
  008b6	db 5d f4	 fistp	 DWORD PTR tv293[ebp]
  008b9	8a 45 f4	 mov	 al, BYTE PTR tv293[ebp]
  008bc	88 46 22	 mov	 BYTE PTR [esi+34], al
  008bf	d9 6d fe	 fldcw	 WORD PTR tv299[ebp]

; 3704 : 				}
; 3705 : 
; 3706 : 				if ( ItemType == 12 )

  008c2	e9 11 02 00 00	 jmp	 $LN60@OpenItemSc
$LN9@OpenItemSc:
  008c7	83 ff 0c	 cmp	 edi, 12			; 0000000cH
  008ca	0f 85 52 01 00
	00		 jne	 $LN8@OpenItemSc

; 3707 : 				{
; 3708 : 					Token = GetToken();

  008d0	e8 00 00 00 00	 call	 ?GetToken@@YA?AW4SMDToken@@XZ ; GetToken

; 3709 : 					p->Level = TokenNumber;

  008d5	d9 05 00 00 00
	00		 fld	 DWORD PTR _TokenNumber
  008db	d9 7d fe	 fnstcw	 WORD PTR tv289[ebp]
  008de	0f b7 45 fe	 movzx	 eax, WORD PTR tv289[ebp]
  008e2	0d 00 0c 00 00	 or	 eax, 3072		; 00000c00H
  008e7	89 45 f4	 mov	 DWORD PTR tv285[ebp], eax
  008ea	d9 6d f4	 fldcw	 WORD PTR tv285[ebp]
  008ed	db 5d f4	 fistp	 DWORD PTR tv282[ebp]
  008f0	8a 4d f4	 mov	 cl, BYTE PTR tv282[ebp]
  008f3	88 4e 22	 mov	 BYTE PTR [esi+34], cl
  008f6	d9 6d fe	 fldcw	 WORD PTR tv289[ebp]

; 3710 : 
; 3711 : 					Token = GetToken();

  008f9	e8 00 00 00 00	 call	 ?GetToken@@YA?AW4SMDToken@@XZ ; GetToken

; 3712 : 					p->Defense = TokenNumber;

  008fe	d9 05 00 00 00
	00		 fld	 DWORD PTR _TokenNumber
  00904	d9 7d fe	 fnstcw	 WORD PTR tv279[ebp]
  00907	0f b7 45 fe	 movzx	 eax, WORD PTR tv279[ebp]
  0090b	0d 00 0c 00 00	 or	 eax, 3072		; 00000c00H
  00910	89 45 f4	 mov	 DWORD PTR tv275[ebp], eax
  00913	d9 6d f4	 fldcw	 WORD PTR tv275[ebp]
  00916	db 5d f4	 fistp	 DWORD PTR tv273[ebp]
  00919	8a 55 f4	 mov	 dl, BYTE PTR tv273[ebp]
  0091c	88 56 2d	 mov	 BYTE PTR [esi+45], dl
  0091f	d9 6d fe	 fldcw	 WORD PTR tv279[ebp]

; 3713 : 
; 3714 : 					Token = GetToken();

  00922	e8 00 00 00 00	 call	 ?GetToken@@YA?AW4SMDToken@@XZ ; GetToken

; 3715 : 					p->Durability = TokenNumber;

  00927	d9 05 00 00 00
	00		 fld	 DWORD PTR _TokenNumber
  0092d	d9 7d fe	 fnstcw	 WORD PTR tv270[ebp]
  00930	0f b7 45 fe	 movzx	 eax, WORD PTR tv270[ebp]
  00934	0d 00 0c 00 00	 or	 eax, 3072		; 00000c00H
  00939	89 45 f4	 mov	 DWORD PTR tv267[ebp], eax
  0093c	d9 6d f4	 fldcw	 WORD PTR tv267[ebp]
  0093f	db 5d f4	 fistp	 DWORD PTR tv265[ebp]
  00942	8a 45 f4	 mov	 al, BYTE PTR tv265[ebp]
  00945	88 46 30	 mov	 BYTE PTR [esi+48], al
  00948	d9 6d fe	 fldcw	 WORD PTR tv270[ebp]

; 3716 : 
; 3717 : 					Token = GetToken();

  0094b	e8 00 00 00 00	 call	 ?GetToken@@YA?AW4SMDToken@@XZ ; GetToken

; 3718 : 					p->RequireLevel = TokenNumber;

  00950	d9 05 00 00 00
	00		 fld	 DWORD PTR _TokenNumber
  00956	d9 7d fe	 fnstcw	 WORD PTR tv262[ebp]
  00959	0f b7 45 fe	 movzx	 eax, WORD PTR tv262[ebp]
  0095d	0d 00 0c 00 00	 or	 eax, 3072		; 00000c00H
  00962	89 45 f4	 mov	 DWORD PTR tv259[ebp], eax
  00965	d9 6d f4	 fldcw	 WORD PTR tv259[ebp]
  00968	db 5d f4	 fistp	 DWORD PTR tv257[ebp]
  0096b	0f b7 4d f4	 movzx	 ecx, WORD PTR tv257[ebp]
  0096f	66 89 4e 3a	 mov	 WORD PTR [esi+58], cx
  00973	d9 6d fe	 fldcw	 WORD PTR tv262[ebp]

; 3719 : 
; 3720 : 					Token = GetToken();

  00976	e8 00 00 00 00	 call	 ?GetToken@@YA?AW4SMDToken@@XZ ; GetToken

; 3721 : 					p->RequireEnergy = TokenNumber;

  0097b	d9 05 00 00 00
	00		 fld	 DWORD PTR _TokenNumber
  00981	d9 7d fe	 fnstcw	 WORD PTR tv254[ebp]
  00984	0f b7 45 fe	 movzx	 eax, WORD PTR tv254[ebp]
  00988	0d 00 0c 00 00	 or	 eax, 3072		; 00000c00H
  0098d	89 45 f4	 mov	 DWORD PTR tv251[ebp], eax
  00990	d9 6d f4	 fldcw	 WORD PTR tv251[ebp]
  00993	db 5d f4	 fistp	 DWORD PTR tv249[ebp]
  00996	66 8b 55 f4	 mov	 dx, WORD PTR tv249[ebp]
  0099a	66 89 56 38	 mov	 WORD PTR [esi+56], dx
  0099e	d9 6d fe	 fldcw	 WORD PTR tv254[ebp]

; 3722 : 
; 3723 : 					Token = GetToken();

  009a1	e8 00 00 00 00	 call	 ?GetToken@@YA?AW4SMDToken@@XZ ; GetToken

; 3724 : 					p->RequireStrength = TokenNumber;

  009a6	d9 05 00 00 00
	00		 fld	 DWORD PTR _TokenNumber
  009ac	d9 7d fe	 fnstcw	 WORD PTR tv245[ebp]
  009af	0f b7 45 fe	 movzx	 eax, WORD PTR tv245[ebp]
  009b3	0d 00 0c 00 00	 or	 eax, 3072		; 00000c00H
  009b8	89 45 f4	 mov	 DWORD PTR tv242[ebp], eax
  009bb	d9 6d f4	 fldcw	 WORD PTR tv242[ebp]
  009be	db 5d f4	 fistp	 DWORD PTR tv239[ebp]
  009c1	66 8b 45 f4	 mov	 ax, WORD PTR tv239[ebp]
  009c5	66 89 46 34	 mov	 WORD PTR [esi+52], ax
  009c9	d9 6d fe	 fldcw	 WORD PTR tv245[ebp]

; 3725 : 
; 3726 : 					Token = GetToken();

  009cc	e8 00 00 00 00	 call	 ?GetToken@@YA?AW4SMDToken@@XZ ; GetToken

; 3727 : 					p->RequireDexterity = TokenNumber;

  009d1	d9 05 00 00 00
	00		 fld	 DWORD PTR _TokenNumber
  009d7	d9 7d fe	 fnstcw	 WORD PTR tv236[ebp]
  009da	0f b7 45 fe	 movzx	 eax, WORD PTR tv236[ebp]
  009de	0d 00 0c 00 00	 or	 eax, 3072		; 00000c00H
  009e3	89 45 f4	 mov	 DWORD PTR tv232[ebp], eax
  009e6	d9 6d f4	 fldcw	 WORD PTR tv232[ebp]
  009e9	db 5d f4	 fistp	 DWORD PTR tv230[ebp]
  009ec	0f b7 4d f4	 movzx	 ecx, WORD PTR tv230[ebp]
  009f0	66 89 4e 36	 mov	 WORD PTR [esi+54], cx
  009f4	d9 6d fe	 fldcw	 WORD PTR tv236[ebp]

; 3728 : 
; 3729 : 					Token = GetToken();

  009f7	e8 00 00 00 00	 call	 ?GetToken@@YA?AW4SMDToken@@XZ ; GetToken

; 3730 : 					p->RequireLeadership = TokenNumber;

  009fc	d9 05 00 00 00
	00		 fld	 DWORD PTR _TokenNumber
  00a02	e8 00 00 00 00	 call	 __ftol2_sse
  00a07	89 46 68	 mov	 DWORD PTR [esi+104], eax

; 3731 : 
; 3732 : 					Token = GetToken();

  00a0a	e8 00 00 00 00	 call	 ?GetToken@@YA?AW4SMDToken@@XZ ; GetToken

; 3733 : 					p->BuyMoney = TokenNumber;

  00a0f	d9 05 00 00 00
	00		 fld	 DWORD PTR _TokenNumber
  00a15	e8 00 00 00 00	 call	 __ftol2_sse
  00a1a	89 46 4c	 mov	 DWORD PTR [esi+76], eax

; 3734 : 
; 3735 : 				}
; 3736 : 				
; 3737 : 				if ( ItemType == 15 )

  00a1d	e9 b6 00 00 00	 jmp	 $LN60@OpenItemSc
$LN8@OpenItemSc:
  00a22	83 ff 0f	 cmp	 edi, 15			; 0000000fH
  00a25	0f 85 a3 00 00
	00		 jne	 $LN7@OpenItemSc

; 3738 : 				{
; 3739 : 					Token = GetToken();

  00a2b	e8 00 00 00 00	 call	 ?GetToken@@YA?AW4SMDToken@@XZ ; GetToken

; 3740 : 					p->Level = TokenNumber;

  00a30	d9 05 00 00 00
	00		 fld	 DWORD PTR _TokenNumber
  00a36	d9 7d fe	 fnstcw	 WORD PTR tv213[ebp]
  00a39	0f b7 45 fe	 movzx	 eax, WORD PTR tv213[ebp]
  00a3d	0d 00 0c 00 00	 or	 eax, 3072		; 00000c00H
  00a42	89 45 f4	 mov	 DWORD PTR tv208[ebp], eax
  00a45	d9 6d f4	 fldcw	 WORD PTR tv208[ebp]
  00a48	db 5d f4	 fistp	 DWORD PTR tv206[ebp]
  00a4b	8a 55 f4	 mov	 dl, BYTE PTR tv206[ebp]
  00a4e	88 56 22	 mov	 BYTE PTR [esi+34], dl
  00a51	d9 6d fe	 fldcw	 WORD PTR tv213[ebp]

; 3741 : 
; 3742 : 					Token = GetToken();

  00a54	e8 00 00 00 00	 call	 ?GetToken@@YA?AW4SMDToken@@XZ ; GetToken

; 3743 : 					p->RequireLevel  = TokenNumber;

  00a59	d9 05 00 00 00
	00		 fld	 DWORD PTR _TokenNumber
  00a5f	d9 7d fe	 fnstcw	 WORD PTR tv203[ebp]
  00a62	0f b7 45 fe	 movzx	 eax, WORD PTR tv203[ebp]
  00a66	0d 00 0c 00 00	 or	 eax, 3072		; 00000c00H
  00a6b	89 45 f4	 mov	 DWORD PTR tv200[ebp], eax
  00a6e	d9 6d f4	 fldcw	 WORD PTR tv200[ebp]
  00a71	db 5d f4	 fistp	 DWORD PTR tv198[ebp]
  00a74	66 8b 45 f4	 mov	 ax, WORD PTR tv198[ebp]
  00a78	66 89 46 3a	 mov	 WORD PTR [esi+58], ax
  00a7c	d9 6d fe	 fldcw	 WORD PTR tv203[ebp]

; 3744 : 
; 3745 : 					Token = GetToken();

  00a7f	e8 00 00 00 00	 call	 ?GetToken@@YA?AW4SMDToken@@XZ ; GetToken

; 3746 : 					p->RequireEnergy  = TokenNumber;

  00a84	d9 05 00 00 00
	00		 fld	 DWORD PTR _TokenNumber
  00a8a	d9 7d fe	 fnstcw	 WORD PTR tv195[ebp]
  00a8d	0f b7 45 fe	 movzx	 eax, WORD PTR tv195[ebp]
  00a91	0d 00 0c 00 00	 or	 eax, 3072		; 00000c00H
  00a96	89 45 f4	 mov	 DWORD PTR tv192[ebp], eax
  00a99	d9 6d f4	 fldcw	 WORD PTR tv192[ebp]
  00a9c	db 5d f4	 fistp	 DWORD PTR tv190[ebp]
  00a9f	66 8b 4d f4	 mov	 cx, WORD PTR tv190[ebp]
  00aa3	66 89 4e 38	 mov	 WORD PTR [esi+56], cx
  00aa7	d9 6d fe	 fldcw	 WORD PTR tv195[ebp]

; 3747 : 
; 3748 : 					Token = GetToken();

  00aaa	e8 00 00 00 00	 call	 ?GetToken@@YA?AW4SMDToken@@XZ ; GetToken

; 3749 : 					p->BuyMoney  = TokenNumber;

  00aaf	d9 05 00 00 00
	00		 fld	 DWORD PTR _TokenNumber
  00ab5	e8 00 00 00 00	 call	 __ftol2_sse
  00aba	89 46 4c	 mov	 DWORD PTR [esi+76], eax

; 3750 : 
; 3751 : 					p->DamageMin = p->Level;

  00abd	8a 46 22	 mov	 al, BYTE PTR [esi+34]

; 3752 : 					p->DamageMax = p->Level + p->Level/2; 

  00ac0	8a d0		 mov	 dl, al
  00ac2	d0 ea		 shr	 dl, 1
  00ac4	02 d0		 add	 dl, al
  00ac6	88 46 2a	 mov	 BYTE PTR [esi+42], al
  00ac9	88 56 2b	 mov	 BYTE PTR [esi+43], dl

; 3753 : 				}
; 3754 : 
; 3755 : 				if ( ItemType <= 11 || ItemType == 13)

  00acc	eb 0a		 jmp	 SHORT $LN60@OpenItemSc
$LN7@OpenItemSc:
  00ace	83 ff 0b	 cmp	 edi, 11			; 0000000bH
  00ad1	7f 05		 jg	 SHORT $LN60@OpenItemSc
$LN5@OpenItemSc:

; 3756 : 				{
; 3757 : 					Token = GetToken();

  00ad3	e8 00 00 00 00	 call	 ?GetToken@@YA?AW4SMDToken@@XZ ; GetToken
$LN60@OpenItemSc:

; 3758 : 				}
; 3759 : 
; 3760 : 				p->SetAttr = TokenNumber;

  00ad8	d9 05 00 00 00
	00		 fld	 DWORD PTR _TokenNumber
  00ade	d9 7d fe	 fnstcw	 WORD PTR tv170[ebp]
  00ae1	0f b7 45 fe	 movzx	 eax, WORD PTR tv170[ebp]
  00ae5	0d 00 0c 00 00	 or	 eax, 3072		; 00000c00H
  00aea	89 45 f4	 mov	 DWORD PTR tv163[ebp], eax
  00aed	d9 6d f4	 fldcw	 WORD PTR tv163[ebp]
  00af0	db 5d f4	 fistp	 DWORD PTR tv157[ebp]
  00af3	8a 45 f4	 mov	 al, BYTE PTR tv157[ebp]
  00af6	88 46 5d	 mov	 BYTE PTR [esi+93], al
  00af9	d9 6d fe	 fldcw	 WORD PTR tv170[ebp]

; 3761 : 
; 3762 : 				if ( ItemType <= 13 || ItemType == 15 )

  00afc	83 ff 0d	 cmp	 edi, 13			; 0000000dH
  00aff	7e 09		 jle	 SHORT $LN3@OpenItemSc
  00b01	83 ff 0f	 cmp	 edi, 15			; 0000000fH
  00b04	0f 85 d1 00 00
	00		 jne	 $LN4@OpenItemSc
$LN3@OpenItemSc:

; 3763 : 				{
; 3764 : 
; 3765 : 					Token = GetToken();

  00b0a	e8 00 00 00 00	 call	 ?GetToken@@YA?AW4SMDToken@@XZ ; GetToken

; 3766 : 					p->RequireClass[0]  = TokenNumber;

  00b0f	d9 05 00 00 00
	00		 fld	 DWORD PTR _TokenNumber
  00b15	d9 7d fe	 fnstcw	 WORD PTR tv148[ebp]
  00b18	0f b7 45 fe	 movzx	 eax, WORD PTR tv148[ebp]
  00b1c	0d 00 0c 00 00	 or	 eax, 3072		; 00000c00H
  00b21	89 45 f4	 mov	 DWORD PTR tv139[ebp], eax
  00b24	d9 6d f4	 fldcw	 WORD PTR tv139[ebp]
  00b27	db 5d f4	 fistp	 DWORD PTR tv91[ebp]
  00b2a	0f b6 4d f4	 movzx	 ecx, BYTE PTR tv91[ebp]
  00b2e	88 4e 3e	 mov	 BYTE PTR [esi+62], cl
  00b31	d9 6d fe	 fldcw	 WORD PTR tv148[ebp]

; 3767 : 
; 3768 : 					Token = GetToken();

  00b34	e8 00 00 00 00	 call	 ?GetToken@@YA?AW4SMDToken@@XZ ; GetToken

; 3769 : 					p->RequireClass[1]  = TokenNumber;

  00b39	d9 05 00 00 00
	00		 fld	 DWORD PTR _TokenNumber
  00b3f	d9 7d fe	 fnstcw	 WORD PTR tv461[ebp]
  00b42	0f b7 45 fe	 movzx	 eax, WORD PTR tv461[ebp]
  00b46	0d 00 0c 00 00	 or	 eax, 3072		; 00000c00H
  00b4b	89 45 f4	 mov	 DWORD PTR tv926[ebp], eax
  00b4e	d9 6d f4	 fldcw	 WORD PTR tv926[ebp]
  00b51	db 5d f4	 fistp	 DWORD PTR tv934[ebp]
  00b54	0f b6 55 f4	 movzx	 edx, BYTE PTR tv934[ebp]
  00b58	88 56 3f	 mov	 BYTE PTR [esi+63], dl
  00b5b	d9 6d fe	 fldcw	 WORD PTR tv461[ebp]

; 3770 : 
; 3771 : 					Token = GetToken();

  00b5e	e8 00 00 00 00	 call	 ?GetToken@@YA?AW4SMDToken@@XZ ; GetToken

; 3772 : 					p->RequireClass[2]  = TokenNumber;

  00b63	d9 05 00 00 00
	00		 fld	 DWORD PTR _TokenNumber
  00b69	d9 7d fe	 fnstcw	 WORD PTR tv937[ebp]
  00b6c	0f b7 45 fe	 movzx	 eax, WORD PTR tv937[ebp]
  00b70	0d 00 0c 00 00	 or	 eax, 3072		; 00000c00H
  00b75	89 45 f4	 mov	 DWORD PTR tv940[ebp], eax
  00b78	d9 6d f4	 fldcw	 WORD PTR tv940[ebp]
  00b7b	db 5d f4	 fistp	 DWORD PTR tv942[ebp]
  00b7e	8a 45 f4	 mov	 al, BYTE PTR tv942[ebp]
  00b81	88 46 40	 mov	 BYTE PTR [esi+64], al
  00b84	d9 6d fe	 fldcw	 WORD PTR tv937[ebp]

; 3773 : 
; 3774 : 					Token = GetToken();

  00b87	e8 00 00 00 00	 call	 ?GetToken@@YA?AW4SMDToken@@XZ ; GetToken

; 3775 : 					p->RequireClass[3]  = TokenNumber;

  00b8c	d9 05 00 00 00
	00		 fld	 DWORD PTR _TokenNumber
  00b92	d9 7d fe	 fnstcw	 WORD PTR tv945[ebp]
  00b95	0f b7 45 fe	 movzx	 eax, WORD PTR tv945[ebp]
  00b99	0d 00 0c 00 00	 or	 eax, 3072		; 00000c00H
  00b9e	89 45 f4	 mov	 DWORD PTR tv948[ebp], eax
  00ba1	d9 6d f4	 fldcw	 WORD PTR tv948[ebp]
  00ba4	db 5d f4	 fistp	 DWORD PTR tv950[ebp]
  00ba7	0f b6 4d f4	 movzx	 ecx, BYTE PTR tv950[ebp]
  00bab	88 4e 41	 mov	 BYTE PTR [esi+65], cl
  00bae	d9 6d fe	 fldcw	 WORD PTR tv945[ebp]

; 3776 : 
; 3777 : 					Token = GetToken();

  00bb1	e8 00 00 00 00	 call	 ?GetToken@@YA?AW4SMDToken@@XZ ; GetToken

; 3778 : 					p->RequireClass[4]  = TokenNumber;

  00bb6	d9 05 00 00 00
	00		 fld	 DWORD PTR _TokenNumber
  00bbc	d9 7d fe	 fnstcw	 WORD PTR tv953[ebp]
  00bbf	0f b7 45 fe	 movzx	 eax, WORD PTR tv953[ebp]
  00bc3	0d 00 0c 00 00	 or	 eax, 3072		; 00000c00H
  00bc8	89 45 f4	 mov	 DWORD PTR tv956[ebp], eax
  00bcb	d9 6d f4	 fldcw	 WORD PTR tv956[ebp]
  00bce	db 5d f4	 fistp	 DWORD PTR tv958[ebp]
  00bd1	0f b6 55 f4	 movzx	 edx, BYTE PTR tv958[ebp]
  00bd5	88 56 42	 mov	 BYTE PTR [esi+66], dl
  00bd8	d9 6d fe	 fldcw	 WORD PTR tv953[ebp]
$LN4@OpenItemSc:

; 3779 : 				}
; 3780 : 
; 3781 : 				CalRepairRate(ItemType, ItemSubType, p);

  00bdb	56		 push	 esi
  00bdc	53		 push	 ebx
  00bdd	57		 push	 edi
  00bde	e8 00 00 00 00	 call	 ?CalRepairRate@@YAXHHPAUITEM_ATTRIBUTE@@@Z ; CalRepairRate

; 3782 : 
; 3783 : 				p->HaveItemInfo = TRUE;
; 3784 : 
; 3785 : 				loop_count++;

  00be3	8b 45 f8	 mov	 eax, DWORD PTR _loop_count$[ebp]
  00be6	40		 inc	 eax
  00be7	83 c4 0c	 add	 esp, 12			; 0000000cH
  00bea	c6 46 20 01	 mov	 BYTE PTR [esi+32], 1
  00bee	89 45 f8	 mov	 DWORD PTR _loop_count$[ebp], eax

; 3786 : 
; 3787 : 				if ( loop_count > MAX_SUBTYPE_ITEMS )

  00bf1	3d 00 02 00 00	 cmp	 eax, 512		; 00000200H

; 3790 : 					break;
; 3791 : 				}
; 3792 : 			}

  00bf6	0f 8e 86 f4 ff
	ff		 jle	 $LL30@OpenItemSc

; 3788 : 				{
; 3789 : 					MsgBox("Error : Item Data fail. (LoopCount:%d) Item Type:%d Index %d", loop_count, ItemType, ItemSubType);

  00bfc	53		 push	 ebx
  00bfd	57		 push	 edi
  00bfe	50		 push	 eax
  00bff	68 00 00 00 00	 push	 OFFSET ??_C@_0DN@NLHNDLLL@Error?5?3?5Item?5Data?5fail?4?5?$CILoopCou@
  00c04	e8 00 00 00 00	 call	 ?MsgBox@@YAXPADZZ	; MsgBox
  00c09	83 c4 10	 add	 esp, 16			; 00000010H
$LN61@OpenItemSc:

; 3793 : 
; 3794 : 			if ( loop_count > MAX_SUBTYPE_ITEMS )

  00c0c	81 7d f8 00 02
	00 00		 cmp	 DWORD PTR _loop_count$[ebp], 512 ; 00000200H
  00c13	7f 0e		 jg	 SHORT $LN64@OpenItemSc
$LN1@OpenItemSc:

; 3471 : 	}
; 3472 : 
; 3473 : 	
; 3474 : 	while ( true )
; 3475 : 	{
; 3476 : 		Token = GetToken();

  00c15	e8 00 00 00 00	 call	 ?GetToken@@YA?AW4SMDToken@@XZ ; GetToken

; 3477 : 
; 3478 : 		if ( Token == 2 )

  00c1a	83 f8 02	 cmp	 eax, 2
  00c1d	0f 85 42 f4 ff
	ff		 jne	 $LL34@OpenItemSc
$LN64@OpenItemSc:
  00c23	5f		 pop	 edi
  00c24	5e		 pop	 esi
  00c25	5b		 pop	 ebx
$LN62@OpenItemSc:

; 3795 : 			{
; 3796 : 				break;
; 3797 : 			}		
; 3798 : 		}
; 3799 : 	}
; 3800 : 	fclose(SMDFile);

  00c26	8b 0d 00 00 00
	00		 mov	 ecx, DWORD PTR _SMDFile
  00c2c	51		 push	 ecx
  00c2d	e8 00 00 00 00	 call	 _fclose
  00c32	83 c4 04	 add	 esp, 4

; 3801 : 	return TRUE;

  00c35	b8 01 00 00 00	 mov	 eax, 1

; 3802 : }

  00c3a	8b e5		 mov	 esp, ebp
  00c3c	5d		 pop	 ebp
  00c3d	c3		 ret	 0
?OpenItemScript@@YAHPAD@Z ENDP				; OpenItemScript
_TEXT	ENDS
PUBLIC	?zzzItemLevel@@YAHHHH@Z				; zzzItemLevel
; Function compile flags: /Ogtp
;	COMDAT ?zzzItemLevel@@YAHHHH@Z
_TEXT	SEGMENT
_type$ = 8						; size = 4
_index$ = 12						; size = 4
_level$ = 16						; size = 4
?zzzItemLevel@@YAHHHH@Z PROC				; zzzItemLevel, COMDAT

; 3805 : {

  00000	55		 push	 ebp
  00001	8b ec		 mov	 ebp, esp

; 3806 : 	int item_num = (type*MAX_SUBTYPE_ITEMS)+index ;

  00003	8b 45 08	 mov	 eax, DWORD PTR _type$[ebp]

; 3807 : 
; 3808 : 	if (level < 0 )

  00006	8b 4d 10	 mov	 ecx, DWORD PTR _level$[ebp]
  00009	c1 e0 09	 shl	 eax, 9
  0000c	03 45 0c	 add	 eax, DWORD PTR _index$[ebp]
  0000f	85 c9		 test	 ecx, ecx
  00011	79 02		 jns	 SHORT $LN4@zzzItemLev

; 3809 : 	{
; 3810 : 		level = 0;

  00013	33 c9		 xor	 ecx, ecx
$LN4@zzzItemLev:

; 3811 : 	}
; 3812 : 	
; 3813 : 	if ( ItemAttribute[item_num].Level == (BYTE)-1 )

  00015	6b c0 6c	 imul	 eax, 108		; 0000006cH
  00018	8a 80 22 00 00
	00		 mov	 al, BYTE PTR ?ItemAttribute@@3PAUITEM_ATTRIBUTE@@A[eax+34]
  0001e	3c ff		 cmp	 al, 255			; 000000ffH
  00020	75 04		 jne	 SHORT $LN3@zzzItemLev
$LN7@zzzItemLev:

; 3814 : 	{
; 3815 : 		return 0;

  00022	33 c0		 xor	 eax, eax

; 3824 : 	{
; 3825 : 		return 1;
; 3826 : 	}
; 3827 : 
; 3828 : 	return 0;
; 3829 : }

  00024	5d		 pop	 ebp
  00025	c3		 ret	 0
$LN3@zzzItemLev:

; 3816 : 	}
; 3817 : 
; 3818 : 	if ( ItemAttribute[item_num].Level == 0 )

  00026	84 c0		 test	 al, al

; 3819 : 	{
; 3820 : 		return 0;

  00028	74 f8		 je	 SHORT $LN7@zzzItemLev

; 3821 : 	}
; 3822 : 
; 3823 : 	if ( ItemAttribute[item_num].Level < level )

  0002a	0f b6 c0	 movzx	 eax, al
  0002d	33 d2		 xor	 edx, edx
  0002f	3b c1		 cmp	 eax, ecx
  00031	0f 9c c2	 setl	 dl
  00034	8b c2		 mov	 eax, edx

; 3824 : 	{
; 3825 : 		return 1;
; 3826 : 	}
; 3827 : 
; 3828 : 	return 0;
; 3829 : }

  00036	5d		 pop	 ebp
  00037	c3		 ret	 0
?zzzItemLevel@@YAHHHH@Z ENDP				; zzzItemLevel
_TEXT	ENDS
PUBLIC	?GetLevelItem@@YAHHHH@Z				; GetLevelItem
EXTRN	_rand:PROC
; Function compile flags: /Ogtp
;	COMDAT ?GetLevelItem@@YAHHHH@Z
_TEXT	SEGMENT
_type$ = 8						; size = 4
_index$ = 12						; size = 4
_level$ = 16						; size = 4
?GetLevelItem@@YAHHHH@Z PROC				; GetLevelItem, COMDAT

; 3832 : {

  00000	55		 push	 ebp
  00001	8b ec		 mov	 ebp, esp
  00003	56		 push	 esi

; 3833 : 	int item_num;
; 3834 : 	int itemlevel;
; 3835 : 
; 3836 : 	if ( level < 0 )

  00004	8b 75 10	 mov	 esi, DWORD PTR _level$[ebp]
  00007	57		 push	 edi
  00008	85 f6		 test	 esi, esi
  0000a	79 02		 jns	 SHORT $LN24@GetLevelIt

; 3837 : 	{
; 3838 : 		level = 0;

  0000c	33 f6		 xor	 esi, esi
$LN24@GetLevelIt:

; 3839 : 	}
; 3840 : 
; 3841 : 	item_num = (type * MAX_SUBTYPE_ITEMS) + index;

  0000e	8b 7d 08	 mov	 edi, DWORD PTR _type$[ebp]
  00011	8b 4d 0c	 mov	 ecx, DWORD PTR _index$[ebp]
  00014	8b c7		 mov	 eax, edi
  00016	c1 e0 09	 shl	 eax, 9
  00019	03 c1		 add	 eax, ecx

; 3842 : 
; 3843 : 	if (ItemAttribute[item_num].MondownFlag  == 0)

  0001b	6b c0 6c	 imul	 eax, 108		; 0000006cH
  0001e	80 b8 27 00 00
	00 00		 cmp	 BYTE PTR ?ItemAttribute@@3PAUITEM_ATTRIBUTE@@A[eax+39], 0

; 3844 : 	{
; 3845 : 		return -1;

  00025	0f 84 58 01 00
	00		 je	 $LN6@GetLevelIt

; 3846 : 	}
; 3847 : 
; 3848 : 	if ( ItemAttribute[item_num].Level == 0xFF )

  0002b	8a 80 22 00 00
	00		 mov	 al, BYTE PTR ?ItemAttribute@@3PAUITEM_ATTRIBUTE@@A[eax+34]
  00031	3c ff		 cmp	 al, 255			; 000000ffH

; 3849 : 	{
; 3850 : 		return -1;

  00033	0f 84 4a 01 00
	00		 je	 $LN6@GetLevelIt

; 3851 : 	}
; 3852 : 
; 3853 : 	if ( ItemAttribute[item_num].Level == 0 )

  00039	84 c0		 test	 al, al

; 3854 : 	{
; 3855 : 		return -1;

  0003b	0f 84 42 01 00
	00		 je	 $LN6@GetLevelIt

; 3856 : 	}
; 3857 : 
; 3858 : 	if ( type == 14 )

  00041	83 ff 0e	 cmp	 edi, 14			; 0000000eH
  00044	75 25		 jne	 SHORT $LN20@GetLevelIt

; 3859 : 	{
; 3860 : 		itemlevel = ItemAttribute[item_num].Level;

  00046	0f b6 c0	 movzx	 eax, al

; 3861 : 
; 3862 : 		if ( index == 15 )

  00049	83 f9 0f	 cmp	 ecx, 15			; 0000000fH

; 3863 : 		{
; 3864 : 			return -1;

  0004c	0f 84 31 01 00
	00		 je	 $LN6@GetLevelIt

; 3865 : 		}
; 3866 : 
; 3867 : 		if ( itemlevel >= (level-8) )

  00052	8d 4e f8	 lea	 ecx, DWORD PTR [esi-8]
  00055	3b c1		 cmp	 eax, ecx
  00057	0f 8c 26 01 00
	00		 jl	 $LN6@GetLevelIt

; 3868 : 		{
; 3869 : 			if ( itemlevel <= level )

  0005d	3b c6		 cmp	 eax, esi
  0005f	0f 8f 1e 01 00
	00		 jg	 $LN6@GetLevelIt
$LN27@GetLevelIt:
  00065	5f		 pop	 edi

; 3870 : 			{
; 3871 : 				return 0;

  00066	33 c0		 xor	 eax, eax
  00068	5e		 pop	 esi

; 3964 : }

  00069	5d		 pop	 ebp
  0006a	c3		 ret	 0
$LN20@GetLevelIt:

; 3872 : 			}
; 3873 : 		}
; 3874 : 
; 3875 : 		return -1;
; 3876 : 	}
; 3877 : 
; 3878 : 	if ( type == 13 && index == 10  )

  0006b	83 ff 0d	 cmp	 edi, 13			; 0000000dH
  0006e	75 4c		 jne	 SHORT $LN16@GetLevelIt
  00070	83 f9 0a	 cmp	 ecx, 10			; 0000000aH
  00073	0f 85 90 00 00
	00		 jne	 $LN11@GetLevelIt

; 3879 : 	{
; 3880 : 		int ilevel;
; 3881 : 
; 3882 : 		if ( (rand()%10) == 0 )

  00079	e8 00 00 00 00	 call	 _rand
  0007e	99		 cdq
  0007f	b9 0a 00 00 00	 mov	 ecx, 10			; 0000000aH
  00084	f7 f9		 idiv	 ecx
  00086	85 d2		 test	 edx, edx
  00088	0f 85 f5 00 00
	00		 jne	 $LN6@GetLevelIt

; 3883 : 		{
; 3884 : 			ilevel = 0;
; 3885 : 
; 3886 : 			if ( level < 0 )

  0008e	85 f6		 test	 esi, esi
  00090	79 02		 jns	 SHORT $LN14@GetLevelIt

; 3887 : 			{
; 3888 : 				level = 0;

  00092	33 f6		 xor	 esi, esi
$LN14@GetLevelIt:

; 3889 : 			}
; 3890 : 
; 3891 : 			ilevel= level/10;

  00094	b8 67 66 66 66	 mov	 eax, 1717986919		; 66666667H
  00099	f7 ee		 imul	 esi
  0009b	c1 fa 02	 sar	 edx, 2
  0009e	8b c2		 mov	 eax, edx
  000a0	c1 e8 1f	 shr	 eax, 31			; 0000001fH
  000a3	03 c2		 add	 eax, edx

; 3892 : 
; 3893 : 			if ( ilevel > 0 )

  000a5	85 c0		 test	 eax, eax
  000a7	7e 01		 jle	 SHORT $LN13@GetLevelIt

; 3894 : 			{
; 3895 : 				ilevel--;

  000a9	48		 dec	 eax
$LN13@GetLevelIt:

; 3896 : 			}
; 3897 : 
; 3898 : 			if ( ilevel > 5)

  000aa	83 f8 05	 cmp	 eax, 5
  000ad	0f 8e d3 00 00
	00		 jle	 $LN25@GetLevelIt

; 3899 : 			{
; 3900 : 				ilevel = 5;

  000b3	5f		 pop	 edi
  000b4	b8 05 00 00 00	 mov	 eax, 5
  000b9	5e		 pop	 esi

; 3964 : }

  000ba	5d		 pop	 ebp
  000bb	c3		 ret	 0
$LN16@GetLevelIt:

; 3901 : 			}
; 3902 : 
; 3903 : 			return ilevel;
; 3904 : 		}
; 3905 : 
; 3906 : 		return -1;
; 3907 : 	}
; 3908 : 
; 3909 : 	if ( type == 12 && index ==  11 )

  000bc	83 ff 0c	 cmp	 edi, 12			; 0000000cH
  000bf	75 48		 jne	 SHORT $LN11@GetLevelIt
  000c1	83 f9 0b	 cmp	 ecx, 11			; 0000000bH
  000c4	75 43		 jne	 SHORT $LN11@GetLevelIt

; 3910 : 	{
; 3911 : 		int ilevel;
; 3912 : 
; 3913 : 		if ( (rand()%10) == 0 )

  000c6	e8 00 00 00 00	 call	 _rand
  000cb	99		 cdq
  000cc	b9 0a 00 00 00	 mov	 ecx, 10			; 0000000aH
  000d1	f7 f9		 idiv	 ecx
  000d3	85 d2		 test	 edx, edx
  000d5	0f 85 a8 00 00
	00		 jne	 $LN6@GetLevelIt

; 3914 : 		{
; 3915 : 			ilevel = 0;
; 3916 : 
; 3917 : 			if ( level < 0 )

  000db	85 f6		 test	 esi, esi
  000dd	79 02		 jns	 SHORT $LN9@GetLevelIt

; 3918 : 			{
; 3919 : 				level = 0;

  000df	33 f6		 xor	 esi, esi
$LN9@GetLevelIt:

; 3920 : 			}
; 3921 : 
; 3922 : 			ilevel= level/10;

  000e1	b8 67 66 66 66	 mov	 eax, 1717986919		; 66666667H
  000e6	f7 ee		 imul	 esi
  000e8	c1 fa 02	 sar	 edx, 2
  000eb	8b c2		 mov	 eax, edx
  000ed	c1 e8 1f	 shr	 eax, 31			; 0000001fH
  000f0	03 c2		 add	 eax, edx

; 3923 : 
; 3924 : 			if ( ilevel > 0 )

  000f2	85 c0		 test	 eax, eax
  000f4	7e 01		 jle	 SHORT $LN8@GetLevelIt

; 3925 : 			{
; 3926 : 				ilevel--;

  000f6	48		 dec	 eax
$LN8@GetLevelIt:

; 3927 : 			}
; 3928 : 
; 3929 : 			if ( ilevel > 6)

  000f7	83 f8 06	 cmp	 eax, 6
  000fa	0f 8e 86 00 00
	00		 jle	 $LN25@GetLevelIt

; 3930 : 			{
; 3931 : 				ilevel = 6;

  00100	5f		 pop	 edi
  00101	b8 06 00 00 00	 mov	 eax, 6
  00106	5e		 pop	 esi

; 3964 : }

  00107	5d		 pop	 ebp
  00108	c3		 ret	 0
$LN11@GetLevelIt:

; 3932 : 			}
; 3933 : 
; 3934 : 			return ilevel;
; 3935 : 		}
; 3936 : 
; 3937 : 		return -1;
; 3938 : 	}	
; 3939 : 
; 3940 : 	itemlevel = ItemAttribute[item_num].Level;

  00109	0f b6 c0	 movzx	 eax, al

; 3941 : 	
; 3942 : 	if ( itemlevel >= level - 18 && itemlevel <= level)

  0010c	8d 56 ee	 lea	 edx, DWORD PTR [esi-18]
  0010f	3b c2		 cmp	 eax, edx
  00111	7c 70		 jl	 SHORT $LN6@GetLevelIt
  00113	3b c6		 cmp	 eax, esi
  00115	7f 6c		 jg	 SHORT $LN6@GetLevelIt

; 3943 : 	{
; 3944 : 		if ( type == 15 )

  00117	83 ff 0f	 cmp	 edi, 15			; 0000000fH

; 3945 : 		{
; 3946 : 			return 0;

  0011a	0f 84 45 ff ff
	ff		 je	 $LN27@GetLevelIt

; 3947 : 		}
; 3948 : 
; 3949 : 		itemlevel = (level - itemlevel)/3;

  00120	2b f0		 sub	 esi, eax
  00122	b8 56 55 55 55	 mov	 eax, 1431655766		; 55555556H
  00127	f7 ee		 imul	 esi
  00129	8b c2		 mov	 eax, edx
  0012b	c1 e8 1f	 shr	 eax, 31			; 0000001fH
  0012e	03 c2		 add	 eax, edx

; 3950 : 
; 3951 : 		if ( type == 13 )

  00130	83 ff 0d	 cmp	 edi, 13			; 0000000dH
  00133	75 51		 jne	 SHORT $LN25@GetLevelIt

; 3952 : 		{
; 3953 : 			if ( index == 8 || index == 9 || index == 12 || index == 13 || index == 20 || index == 21 || index == 22 || index == 23 || index == 24 || index == 25 || index == 26 || index == 27 || index == 28 )

  00135	83 f9 08	 cmp	 ecx, 8
  00138	74 3b		 je	 SHORT $LN2@GetLevelIt
  0013a	83 f9 09	 cmp	 ecx, 9
  0013d	74 36		 je	 SHORT $LN2@GetLevelIt
  0013f	83 f9 0c	 cmp	 ecx, 12			; 0000000cH
  00142	74 31		 je	 SHORT $LN2@GetLevelIt
  00144	3b cf		 cmp	 ecx, edi
  00146	74 2d		 je	 SHORT $LN2@GetLevelIt
  00148	83 f9 14	 cmp	 ecx, 20			; 00000014H
  0014b	74 28		 je	 SHORT $LN2@GetLevelIt
  0014d	83 f9 15	 cmp	 ecx, 21			; 00000015H
  00150	74 23		 je	 SHORT $LN2@GetLevelIt
  00152	83 f9 16	 cmp	 ecx, 22			; 00000016H
  00155	74 1e		 je	 SHORT $LN2@GetLevelIt
  00157	83 f9 17	 cmp	 ecx, 23			; 00000017H
  0015a	74 19		 je	 SHORT $LN2@GetLevelIt
  0015c	83 f9 18	 cmp	 ecx, 24			; 00000018H
  0015f	74 14		 je	 SHORT $LN2@GetLevelIt
  00161	83 f9 19	 cmp	 ecx, 25			; 00000019H
  00164	74 0f		 je	 SHORT $LN2@GetLevelIt
  00166	83 f9 1a	 cmp	 ecx, 26			; 0000001aH
  00169	74 0a		 je	 SHORT $LN2@GetLevelIt
  0016b	83 f9 1b	 cmp	 ecx, 27			; 0000001bH
  0016e	74 05		 je	 SHORT $LN2@GetLevelIt
  00170	83 f9 1c	 cmp	 ecx, 28			; 0000001cH
  00173	75 11		 jne	 SHORT $LN25@GetLevelIt
$LN2@GetLevelIt:

; 3954 : 			{
; 3955 : 				if ( itemlevel > 4 )

  00175	83 f8 04	 cmp	 eax, 4
  00178	7e 0c		 jle	 SHORT $LN25@GetLevelIt

; 3956 : 				{
; 3957 : 					itemlevel=4;

  0017a	5f		 pop	 edi
  0017b	b8 04 00 00 00	 mov	 eax, 4
  00180	5e		 pop	 esi

; 3964 : }

  00181	5d		 pop	 ebp
  00182	c3		 ret	 0
$LN6@GetLevelIt:

; 3958 : 				}
; 3959 : 			}
; 3960 : 		}
; 3961 : 		return itemlevel;		
; 3962 : 	}
; 3963 : 	return -1;

  00183	83 c8 ff	 or	 eax, -1
$LN25@GetLevelIt:
  00186	5f		 pop	 edi
  00187	5e		 pop	 esi

; 3964 : }

  00188	5d		 pop	 ebp
  00189	c3		 ret	 0
?GetLevelItem@@YAHHHH@Z ENDP				; GetLevelItem
_TEXT	ENDS
PUBLIC	?GetSerialItem@@YAHH@Z				; GetSerialItem
; Function compile flags: /Ogtp
;	COMDAT ?GetSerialItem@@YAHH@Z
_TEXT	SEGMENT
_type$ = 8						; size = 4
?GetSerialItem@@YAHH@Z PROC				; GetSerialItem, COMDAT

; 3967 : {

  00000	55		 push	 ebp
  00001	8b ec		 mov	 ebp, esp

; 3968 : 	int item_num = type;
; 3969 : 
; 3970 : 	if (ItemAttribute[item_num].Level == 0xFF )

  00003	8b 45 08	 mov	 eax, DWORD PTR _type$[ebp]
  00006	6b c0 6c	 imul	 eax, 108		; 0000006cH
  00009	80 b8 22 00 00
	00 ff		 cmp	 BYTE PTR ?ItemAttribute@@3PAUITEM_ATTRIBUTE@@A[eax+34], 255 ; 000000ffH
  00010	75 05		 jne	 SHORT $LN2@GetSerialI

; 3971 : 	{
; 3972 : 		return -1;

  00012	83 c8 ff	 or	 eax, -1

; 3975 : 	{
; 3976 : 		return 0;
; 3977 : 	}
; 3978 : 	return 1;
; 3979 : }

  00015	5d		 pop	 ebp
  00016	c3		 ret	 0
$LN2@GetSerialI:

; 3973 : 	}
; 3974 : 	if (ItemAttribute[item_num].Serial  == 0 )

  00017	33 c9		 xor	 ecx, ecx
  00019	38 88 25 00 00
	00		 cmp	 BYTE PTR ?ItemAttribute@@3PAUITEM_ATTRIBUTE@@A[eax+37], cl
  0001f	0f 95 c1	 setne	 cl
  00022	8b c1		 mov	 eax, ecx

; 3975 : 	{
; 3976 : 		return 0;
; 3977 : 	}
; 3978 : 	return 1;
; 3979 : }

  00024	5d		 pop	 ebp
  00025	c3		 ret	 0
?GetSerialItem@@YAHH@Z ENDP				; GetSerialItem
_TEXT	ENDS
PUBLIC	?IsItem@@YAHH@Z					; IsItem
; Function compile flags: /Ogtp
;	COMDAT ?IsItem@@YAHH@Z
_TEXT	SEGMENT
_item_num$ = 8						; size = 4
?IsItem@@YAHH@Z PROC					; IsItem, COMDAT

; 3982 : {

  00000	55		 push	 ebp
  00001	8b ec		 mov	 ebp, esp

; 3983 : 	if ( item_num < 0 || item_num >= MAX_ITEMS )

  00003	8b 45 08	 mov	 eax, DWORD PTR _item_num$[ebp]
  00006	3d ff 1f 00 00	 cmp	 eax, 8191		; 00001fffH
  0000b	77 0c		 ja	 SHORT $LN1@IsItem

; 3986 : 	}
; 3987 : 
; 3988 : 	return ItemAttribute[item_num].HaveItemInfo;

  0000d	6b c0 6c	 imul	 eax, 108		; 0000006cH
  00010	0f b6 80 20 00
	00 00		 movzx	 eax, BYTE PTR ?ItemAttribute@@3PAUITEM_ATTRIBUTE@@A[eax+32]

; 3989 : }

  00017	5d		 pop	 ebp
  00018	c3		 ret	 0
$LN1@IsItem:

; 3984 : 	{
; 3985 : 		return 0;

  00019	33 c0		 xor	 eax, eax

; 3989 : }

  0001b	5d		 pop	 ebp
  0001c	c3		 ret	 0
?IsItem@@YAHH@Z ENDP					; IsItem
_TEXT	ENDS
PUBLIC	?GetItemAttr@@YAPAUITEM_ATTRIBUTE@@H@Z		; GetItemAttr
; Function compile flags: /Ogtp
;	COMDAT ?GetItemAttr@@YAPAUITEM_ATTRIBUTE@@H@Z
_TEXT	SEGMENT
_item_num$ = 8						; size = 4
?GetItemAttr@@YAPAUITEM_ATTRIBUTE@@H@Z PROC		; GetItemAttr, COMDAT

; 3992 : {

  00000	55		 push	 ebp
  00001	8b ec		 mov	 ebp, esp

; 3993 : 	if ( item_num < 0 || item_num >= MAX_ITEMS )

  00003	8b 45 08	 mov	 eax, DWORD PTR _item_num$[ebp]
  00006	3d ff 1f 00 00	 cmp	 eax, 8191		; 00001fffH
  0000b	77 0a		 ja	 SHORT $LN1@GetItemAtt

; 3996 : 	}
; 3997 : 
; 3998 : 	return &ItemAttribute[item_num];

  0000d	6b c0 6c	 imul	 eax, 108		; 0000006cH
  00010	05 00 00 00 00	 add	 eax, OFFSET ?ItemAttribute@@3PAUITEM_ATTRIBUTE@@A ; ItemAttribute

; 3999 : }

  00015	5d		 pop	 ebp
  00016	c3		 ret	 0
$LN1@GetItemAtt:

; 3994 : 	{
; 3995 : 		return NULL;

  00017	33 c0		 xor	 eax, eax

; 3999 : }

  00019	5d		 pop	 ebp
  0001a	c3		 ret	 0
?GetItemAttr@@YAPAUITEM_ATTRIBUTE@@H@Z ENDP		; GetItemAttr
_TEXT	ENDS
PUBLIC	__real@3ff0000000000000
PUBLIC	??$_Pow_int@M@@YAMMH@Z				; _Pow_int<float>
;	COMDAT __real@3ff0000000000000
; File c:\program files (x86)\microsoft visual studio 10.0\vc\include\math.h
CONST	SEGMENT
__real@3ff0000000000000 DQ 03ff0000000000000r	; 1
; Function compile flags: /Ogtp
CONST	ENDS
;	COMDAT ??$_Pow_int@M@@YAMMH@Z
_TEXT	SEGMENT
__X$ = 8						; size = 4
tv137 = 12						; size = 4
__Z$150832 = 12						; size = 4
__Y$ = 12						; size = 4
??$_Pow_int@M@@YAMMH@Z PROC				; _Pow_int<float>, COMDAT

; 484  :         {unsigned int _N;

  00000	55		 push	 ebp
  00001	8b ec		 mov	 ebp, esp

; 485  :         if (_Y >= 0)

  00003	8b 4d 0c	 mov	 ecx, DWORD PTR __Y$[ebp]

; 486  :                 _N = (unsigned int)_Y;

  00006	8b c1		 mov	 eax, ecx
  00008	85 c9		 test	 ecx, ecx

; 487  :         else

  0000a	79 02		 jns	 SHORT $LN6@Pow_int

; 488  :                 _N = (unsigned int)(-_Y);

  0000c	f7 d8		 neg	 eax
$LN6@Pow_int:

; 489  :         for (_Ty _Z = _Ty(1); ; _X *= _X)

  0000e	d9 e8		 fld1
  00010	d9 5d 0c	 fstp	 DWORD PTR __Z$150832[ebp]
$LL5@Pow_int:

; 490  :                 {if ((_N & 1) != 0)

  00013	d9 45 08	 fld	 DWORD PTR __X$[ebp]
  00016	a8 01		 test	 al, 1
  00018	74 08		 je	 SHORT $LN2@Pow_int

; 491  :                         _Z *= _X;

  0001a	d9 45 0c	 fld	 DWORD PTR __Z$150832[ebp]
  0001d	d8 c9		 fmul	 ST(0), ST(1)
  0001f	d9 5d 0c	 fstp	 DWORD PTR __Z$150832[ebp]
$LN2@Pow_int:

; 492  :                 if ((_N >>= 1) == 0)

  00022	d1 e8		 shr	 eax, 1
  00024	74 07		 je	 SHORT $LN19@Pow_int

; 489  :         for (_Ty _Z = _Ty(1); ; _X *= _X)

  00026	dc c8		 fmul	 ST(0), ST(0)
  00028	d9 5d 08	 fstp	 DWORD PTR __X$[ebp]
  0002b	eb e6		 jmp	 SHORT $LL5@Pow_int
$LN19@Pow_int:

; 492  :                 if ((_N >>= 1) == 0)

  0002d	dd d8		 fstp	 ST(0)

; 493  :                         return (_Y < 0 ? _Ty(1) / _Z : _Z); }}

  0002f	d9 45 0c	 fld	 DWORD PTR __Z$150832[ebp]
  00032	85 c9		 test	 ecx, ecx
  00034	79 04		 jns	 SHORT $LN11@Pow_int
  00036	d9 e8		 fld1
  00038	de f1		 fdivrp	 ST(1), ST(0)
$LN11@Pow_int:
  0003a	d9 5d 0c	 fstp	 DWORD PTR tv137[ebp]
  0003d	d9 45 0c	 fld	 DWORD PTR tv137[ebp]
  00040	5d		 pop	 ebp
  00041	c3		 ret	 0
??$_Pow_int@M@@YAMMH@Z ENDP				; _Pow_int<float>
_TEXT	ENDS
PUBLIC	??0CItem@@QAE@XZ				; CItem::CItem
; Function compile flags: /Ogtp
; File c:\users\faelhs\mu-1.1\emu - gameserver sapphire s0\gameserver\zzzitem.cpp
;	COMDAT ??0CItem@@QAE@XZ
_TEXT	SEGMENT
??0CItem@@QAE@XZ PROC					; CItem::CItem, COMDAT
; _this$ = ecx

; 17   : 	this->Clear();

  00000	e8 00 00 00 00	 call	 ?Clear@CItem@@QAEXXZ	; CItem::Clear

; 18   : }

  00005	8b c1		 mov	 eax, ecx
  00007	c3		 ret	 0
??0CItem@@QAE@XZ ENDP					; CItem::CItem
_TEXT	ENDS
PUBLIC	?ItemDamageMin@CItem@@QAEHXZ			; CItem::ItemDamageMin
; Function compile flags: /Ogtp
;	COMDAT ?ItemDamageMin@CItem@@QAEHXZ
_TEXT	SEGMENT
_damagemin$ = -4					; size = 4
?ItemDamageMin@CItem@@QAEHXZ PROC			; CItem::ItemDamageMin, COMDAT
; _this$ = ecx

; 1920 : {

  00000	55		 push	 ebp
  00001	8b ec		 mov	 ebp, esp
  00003	51		 push	 ecx

; 1921 : 	int damagemin;
; 1922 : 	
; 1923 : 	if (this->m_Type < 0)

  00004	66 83 79 06 00	 cmp	 WORD PTR [ecx+6], 0
  00009	7d 06		 jge	 SHORT $LN2@ItemDamage

; 1924 : 	{
; 1925 : 		return 0;

  0000b	33 c0		 xor	 eax, eax

; 1932 : 	}
; 1933 : }

  0000d	8b e5		 mov	 esp, ebp
  0000f	5d		 pop	 ebp
  00010	c3		 ret	 0
$LN2@ItemDamage:

; 1926 : 	}
; 1927 : 	else
; 1928 : 	{
; 1929 : 		damagemin=this->m_DamageMinOrigin;

  00011	0f b7 41 1c	 movzx	 eax, WORD PTR [ecx+28]

; 1930 : 		this->PlusSpecial(&damagemin, 80);

  00015	6a 50		 push	 80			; 00000050H
  00017	8d 55 fc	 lea	 edx, DWORD PTR _damagemin$[ebp]
  0001a	52		 push	 edx
  0001b	89 45 fc	 mov	 DWORD PTR _damagemin$[ebp], eax
  0001e	e8 00 00 00 00	 call	 ?PlusSpecial@CItem@@QAEXPAHH@Z ; CItem::PlusSpecial

; 1931 : 		return damagemin;

  00023	8b 45 fc	 mov	 eax, DWORD PTR _damagemin$[ebp]

; 1932 : 	}
; 1933 : }

  00026	8b e5		 mov	 esp, ebp
  00028	5d		 pop	 ebp
  00029	c3		 ret	 0
?ItemDamageMin@CItem@@QAEHXZ ENDP			; CItem::ItemDamageMin
_TEXT	ENDS
PUBLIC	?ItemDefense@CItem@@QAEHXZ			; CItem::ItemDefense
; Function compile flags: /Ogtp
;	COMDAT ?ItemDefense@CItem@@QAEHXZ
_TEXT	SEGMENT
_Defense$ = -4						; size = 4
?ItemDefense@CItem@@QAEHXZ PROC				; CItem::ItemDefense, COMDAT
; _this$ = ecx

; 1936 : {

  00000	55		 push	 ebp
  00001	8b ec		 mov	 ebp, esp
  00003	51		 push	 ecx

; 1937 : 	int Defense;
; 1938 : 	
; 1939 : 	if (this->m_Type < 0)

  00004	66 83 79 06 00	 cmp	 WORD PTR [ecx+6], 0
  00009	7d 06		 jge	 SHORT $LN4@ItemDefens
$LN7@ItemDefens:

; 1940 : 	{
; 1941 : 		return 0;

  0000b	33 c0		 xor	 eax, eax

; 1954 : 		}
; 1955 : 	}
; 1956 : }

  0000d	8b e5		 mov	 esp, ebp
  0000f	5d		 pop	 ebp
  00010	c3		 ret	 0
$LN4@ItemDefens:

; 1942 : 	}
; 1943 : 	else
; 1944 : 	{
; 1945 : 		if (this->m_IsValidItem == false)

  00011	80 b9 94 00 00
	00 00		 cmp	 BYTE PTR [ecx+148], 0

; 1946 : 		{
; 1947 : 			return 0;

  00018	74 f1		 je	 SHORT $LN7@ItemDefens

; 1948 : 		}
; 1949 : 		else
; 1950 : 		{
; 1951 : 			Defense=this->m_Defense;

  0001a	0f b7 41 16	 movzx	 eax, WORD PTR [ecx+22]

; 1952 : 			this->PlusSpecial(&Defense, 83);

  0001e	6a 53		 push	 83			; 00000053H
  00020	8d 55 fc	 lea	 edx, DWORD PTR _Defense$[ebp]
  00023	52		 push	 edx
  00024	89 45 fc	 mov	 DWORD PTR _Defense$[ebp], eax
  00027	e8 00 00 00 00	 call	 ?PlusSpecial@CItem@@QAEXPAHH@Z ; CItem::PlusSpecial

; 1953 : 			return Defense;

  0002c	8b 45 fc	 mov	 eax, DWORD PTR _Defense$[ebp]

; 1954 : 		}
; 1955 : 	}
; 1956 : }

  0002f	8b e5		 mov	 esp, ebp
  00031	5d		 pop	 ebp
  00032	c3		 ret	 0
?ItemDefense@CItem@@QAEHXZ ENDP				; CItem::ItemDefense
_TEXT	ENDS
PUBLIC	?pow@@YAMMH@Z					; pow
; Function compile flags: /Ogtp
; File c:\program files (x86)\microsoft visual studio 10.0\vc\include\math.h
;	COMDAT ?pow@@YAMMH@Z
_TEXT	SEGMENT
__X$ = 8						; size = 4
__Y$ = 12						; size = 4
?pow@@YAMMH@Z PROC					; pow, COMDAT

; 536  :         {return (_Pow_int(_X, _Y)); }

  00000	55		 push	 ebp
  00001	8b ec		 mov	 ebp, esp
  00003	8b 45 0c	 mov	 eax, DWORD PTR __Y$[ebp]
  00006	d9 45 08	 fld	 DWORD PTR __X$[ebp]
  00009	50		 push	 eax
  0000a	51		 push	 ecx
  0000b	d9 1c 24	 fstp	 DWORD PTR [esp]
  0000e	e8 00 00 00 00	 call	 ??$_Pow_int@M@@YAMMH@Z	; _Pow_int<float>
  00013	83 c4 08	 add	 esp, 8
  00016	5d		 pop	 ebp
  00017	c3		 ret	 0
?pow@@YAMMH@Z ENDP					; pow
_TEXT	ENDS
PUBLIC	__real@4049000000000000
PUBLIC	__real@4059000000000000
PUBLIC	__real@3ff8000000000000
PUBLIC	__real@4039000000000000
PUBLIC	__real@404c000000000000
PUBLIC	__real@403c000000000000
PUBLIC	__real@402c000000000000
PUBLIC	__real@4024000000000000
PUBLIC	__real@4018000000000000
PUBLIC	__real@40000000
PUBLIC	__real@3fe3333333333333
PUBLIC	__real@41f0000000000000
PUBLIC	__real@4008000000000000
PUBLIC	__real@40c3880000000000
PUBLIC	?Value@CItem@@QAEXXZ				; CItem::Value
EXTRN	__alldiv:PROC
EXTRN	__allmul:PROC
EXTRN	__ftol2:PROC
EXTRN	__CIsqrt:PROC
;	COMDAT __real@4049000000000000
CONST	SEGMENT
__real@4049000000000000 DQ 04049000000000000r	; 50
CONST	ENDS
;	COMDAT __real@4059000000000000
CONST	SEGMENT
__real@4059000000000000 DQ 04059000000000000r	; 100
CONST	ENDS
;	COMDAT __real@3ff8000000000000
CONST	SEGMENT
__real@3ff8000000000000 DQ 03ff8000000000000r	; 1.5
CONST	ENDS
;	COMDAT __real@4039000000000000
CONST	SEGMENT
__real@4039000000000000 DQ 04039000000000000r	; 25
CONST	ENDS
;	COMDAT __real@404c000000000000
CONST	SEGMENT
__real@404c000000000000 DQ 0404c000000000000r	; 56
CONST	ENDS
;	COMDAT __real@403c000000000000
CONST	SEGMENT
__real@403c000000000000 DQ 0403c000000000000r	; 28
CONST	ENDS
;	COMDAT __real@402c000000000000
CONST	SEGMENT
__real@402c000000000000 DQ 0402c000000000000r	; 14
CONST	ENDS
;	COMDAT __real@4024000000000000
CONST	SEGMENT
__real@4024000000000000 DQ 04024000000000000r	; 10
CONST	ENDS
;	COMDAT __real@4018000000000000
CONST	SEGMENT
__real@4018000000000000 DQ 04018000000000000r	; 6
CONST	ENDS
;	COMDAT __real@40000000
CONST	SEGMENT
__real@40000000 DD 040000000r			; 2
CONST	ENDS
;	COMDAT __real@3fe3333333333333
CONST	SEGMENT
__real@3fe3333333333333 DQ 03fe3333333333333r	; 0.6
CONST	ENDS
;	COMDAT __real@41f0000000000000
CONST	SEGMENT
__real@41f0000000000000 DQ 041f0000000000000r	; 4.29497e+009
CONST	ENDS
;	COMDAT __real@4008000000000000
CONST	SEGMENT
__real@4008000000000000 DQ 04008000000000000r	; 3
CONST	ENDS
;	COMDAT __real@40c3880000000000
CONST	SEGMENT
__real@40c3880000000000 DQ 040c3880000000000r	; 10000
; Function compile flags: /Ogtp
; File c:\users\faelhs\mu-1.1\emu - gameserver sapphire s0\gameserver\zzzitem.cpp
CONST	ENDS
;	COMDAT ?Value@CItem@@QAEXXZ
_TEXT	SEGMENT
tv1056 = -24						; size = 8
_Gold$ = -24						; size = 8
tv1066 = -16						; size = 4
tv1062 = -16						; size = 4
tv1058 = -16						; size = 4
tv1025 = -16						; size = 4
_Level$ = -16						; size = 4
tv1608 = -12						; size = 4
tv1595 = -12						; size = 4
tv1027 = -12						; size = 4
_g$154852 = -12						; size = 4
_u$154825 = -12						; size = 4
_Type$ = -12						; size = 4
_p$ = -8						; size = 4
tv1185 = -4						; size = 4
_lc11$154618 = -4					; size = 4
_lc10$154611 = -4					; size = 4
tv1061 = -2						; size = 2
?Value@CItem@@QAEXXZ PROC				; CItem::Value, COMDAT
; _this$ = ecx

; 1183 : {

  00000	55		 push	 ebp
  00001	8b ec		 mov	 ebp, esp
  00003	83 ec 18	 sub	 esp, 24			; 00000018H
  00006	53		 push	 ebx
  00007	8b d9		 mov	 ebx, ecx

; 1184 : 	if ( this->m_Type == -1 )

  00009	0f b7 43 06	 movzx	 eax, WORD PTR [ebx+6]
  0000d	66 83 f8 ff	 cmp	 ax, -1
  00011	0f 84 0e 0d 00
	00		 je	 $LN1@Value

; 1185 : 	{
; 1186 : 		return;
; 1187 : 	}
; 1188 : 
; 1189 : 	LPITEM_ATTRIBUTE p = &ItemAttribute[this->m_Type];

  00017	57		 push	 edi
  00018	0f bf f8	 movsx	 edi, ax
  0001b	8b c7		 mov	 eax, edi
  0001d	6b c0 6c	 imul	 eax, 108		; 0000006cH
  00020	05 00 00 00 00	 add	 eax, OFFSET ?ItemAttribute@@3PAUITEM_ATTRIBUTE@@A ; ItemAttribute

; 1190 : 
; 1191 : 	if ( p->BuyMoney != 0 )

  00025	8b 48 4c	 mov	 ecx, DWORD PTR [eax+76]
  00028	89 45 f8	 mov	 DWORD PTR _p$[ebp], eax
  0002b	85 c9		 test	 ecx, ecx
  0002d	0f 84 88 00 00
	00		 je	 $LN248@Value

; 1192 : 	{
; 1193 : 		this->m_SellMoney = p->BuyMoney;

  00033	89 4b 60	 mov	 DWORD PTR [ebx+96], ecx

; 1194 : 		this->m_BuyMoney = p->BuyMoney;

  00036	8b 40 4c	 mov	 eax, DWORD PTR [eax+76]
  00039	89 43 64	 mov	 DWORD PTR [ebx+100], eax

; 1195 : 		this->m_SellMoney /= 3;

  0003c	b8 ab aa aa aa	 mov	 eax, -1431655765	; aaaaaaabH
  00041	f7 e1		 mul	 ecx
  00043	d1 ea		 shr	 edx, 1
  00045	89 53 60	 mov	 DWORD PTR [ebx+96], edx

; 1196 : 		
; 1197 : 		if ( this->m_SellMoney >= 1000 )

  00048	81 fa e8 03 00
	00		 cmp	 edx, 1000		; 000003e8H
  0004e	72 12		 jb	 SHORT $LN247@Value

; 1198 : 		{
; 1199 : 			this->m_SellMoney = this->m_SellMoney/100*100;

  00050	b8 1f 85 eb 51	 mov	 eax, 1374389535		; 51eb851fH
  00055	f7 e2		 mul	 edx
  00057	c1 ea 05	 shr	 edx, 5
  0005a	6b d2 64	 imul	 edx, 100		; 00000064H
  0005d	89 53 60	 mov	 DWORD PTR [ebx+96], edx
  00060	eb 17		 jmp	 SHORT $LN245@Value
$LN247@Value:

; 1200 : 		}
; 1201 : 		else if ( this->m_SellMoney >= 100 )

  00062	83 fa 64	 cmp	 edx, 100		; 00000064H
  00065	72 12		 jb	 SHORT $LN245@Value

; 1202 : 		{
; 1203 : 			this->m_SellMoney = this->m_SellMoney/10*10;

  00067	b8 cd cc cc cc	 mov	 eax, -858993459		; cccccccdH
  0006c	f7 e2		 mul	 edx
  0006e	c1 ea 03	 shr	 edx, 3
  00071	8d 0c 92	 lea	 ecx, DWORD PTR [edx+edx*4]
  00074	03 c9		 add	 ecx, ecx
  00076	89 4b 60	 mov	 DWORD PTR [ebx+96], ecx
$LN245@Value:

; 1204 : 		}
; 1205 : 
; 1206 : 		if ( this->m_BuyMoney >= 1000 )

  00079	8b 4b 64	 mov	 ecx, DWORD PTR [ebx+100]
  0007c	81 f9 e8 03 00
	00		 cmp	 ecx, 1000		; 000003e8H
  00082	72 16		 jb	 SHORT $LN244@Value

; 1207 : 		{
; 1208 : 			this->m_BuyMoney = this->m_BuyMoney/100*100;

  00084	b8 1f 85 eb 51	 mov	 eax, 1374389535		; 51eb851fH
  00089	f7 e1		 mul	 ecx
  0008b	c1 ea 05	 shr	 edx, 5
  0008e	6b d2 64	 imul	 edx, 100		; 00000064H
  00091	5f		 pop	 edi
  00092	89 53 64	 mov	 DWORD PTR [ebx+100], edx
  00095	5b		 pop	 ebx

; 1861 : 	}
; 1862 : }

  00096	8b e5		 mov	 esp, ebp
  00098	5d		 pop	 ebp
  00099	c3		 ret	 0
$LN244@Value:

; 1209 : 		}
; 1210 : 		else if ( this->m_BuyMoney >= 100 )

  0009a	83 f9 64	 cmp	 ecx, 100		; 00000064H
  0009d	0f 82 81 0c 00
	00		 jb	 $LN278@Value

; 1211 : 		{
; 1212 : 			this->m_BuyMoney = this->m_BuyMoney/10*10;

  000a3	b8 cd cc cc cc	 mov	 eax, -858993459		; cccccccdH
  000a8	f7 e1		 mul	 ecx
  000aa	c1 ea 03	 shr	 edx, 3
  000ad	8d 14 92	 lea	 edx, DWORD PTR [edx+edx*4]
  000b0	03 d2		 add	 edx, edx
  000b2	5f		 pop	 edi
  000b3	89 53 64	 mov	 DWORD PTR [ebx+100], edx
  000b6	5b		 pop	 ebx

; 1861 : 	}
; 1862 : }

  000b7	8b e5		 mov	 esp, ebp
  000b9	5d		 pop	 ebp
  000ba	c3		 ret	 0
$LN248@Value:

; 1213 : 		}
; 1214 : 
; 1215 : 		return;
; 1216 : 	}
; 1217 : 
; 1218 : 	int Level = (int)sqrt((double)m_Level);

  000bb	0f b7 43 08	 movzx	 eax, WORD PTR [ebx+8]
  000bf	98		 cwde
  000c0	89 45 fc	 mov	 DWORD PTR tv1185[ebp], eax
  000c3	56		 push	 esi
  000c4	db 45 fc	 fild	 DWORD PTR tv1185[ebp]
  000c7	e8 00 00 00 00	 call	 __CIsqrt
  000cc	e8 00 00 00 00	 call	 __ftol2_sse

; 1219 : 	__int64 Gold = 0;
; 1220 : 	int Type = (this->m_Type)/MAX_SUBTYPE_ITEMS;
; 1221 : 	int Level2 = p->Level + this->m_Level*3;

  000d1	8b 4d f8	 mov	 ecx, DWORD PTR _p$[ebp]
  000d4	0f b6 49 22	 movzx	 ecx, BYTE PTR [ecx+34]
  000d8	89 45 f0	 mov	 DWORD PTR _Level$[ebp], eax
  000db	8b c7		 mov	 eax, edi
  000dd	99		 cdq
  000de	81 e2 ff 01 00
	00		 and	 edx, 511		; 000001ffH
  000e4	03 c2		 add	 eax, edx
  000e6	c1 f8 09	 sar	 eax, 9
  000e9	89 45 f4	 mov	 DWORD PTR _Type$[ebp], eax
  000ec	8b 45 fc	 mov	 eax, DWORD PTR tv1185[ebp]
  000ef	8d 14 40	 lea	 edx, DWORD PTR [eax+eax*2]

; 1222 : 	int excellent = 0;
; 1223 : 
; 1224 : 	for (int i=0;i<this->m_SpecialNum;i++)

  000f2	0f b6 43 30	 movzx	 eax, BYTE PTR [ebx+48]
  000f6	03 ca		 add	 ecx, edx
  000f8	33 f6		 xor	 esi, esi
  000fa	33 ff		 xor	 edi, edi
  000fc	33 d2		 xor	 edx, edx
  000fe	89 75 ec	 mov	 DWORD PTR _Gold$[ebp+4], esi
  00101	85 c0		 test	 eax, eax
  00103	7e 1f		 jle	 SHORT $LN274@Value
$LL241@Value:

; 1225 : 	{
; 1226 : 		switch ( this->m_Special[i] )

  00105	8a 44 13 31	 mov	 al, BYTE PTR [ebx+edx+49]
  00109	2c 56		 sub	 al, 86			; 00000056H
  0010b	3c 0d		 cmp	 al, 13			; 0000000dH
  0010d	77 05		 ja	 SHORT $LN240@Value

; 1227 : 		{
; 1228 : 			case 0x56:	// 86.
; 1229 : 			case 0x57:
; 1230 : 			case 0x58:
; 1231 : 			case 0x59:
; 1232 : 			case 0x5A:
; 1233 : 			case 0x5B:
; 1234 : 			case 0x5C:
; 1235 : 			case 0x5D:
; 1236 : 			case 0x5E:
; 1237 : 			case 0x5F:
; 1238 : 			case 0x60:
; 1239 : 			case 0x61:
; 1240 : 			case 0x62:
; 1241 : 			case 0x63:	// 99.
; 1242 : 				excellent = 1;

  0010f	bf 01 00 00 00	 mov	 edi, 1
$LN240@Value:

; 1222 : 	int excellent = 0;
; 1223 : 
; 1224 : 	for (int i=0;i<this->m_SpecialNum;i++)

  00114	0f b6 43 30	 movzx	 eax, BYTE PTR [ebx+48]
  00118	42		 inc	 edx
  00119	3b d0		 cmp	 edx, eax
  0011b	7c e8		 jl	 SHORT $LL241@Value

; 1243 : 		}
; 1244 : 	}
; 1245 : 
; 1246 : 	if ( excellent != 0 )

  0011d	85 ff		 test	 edi, edi
  0011f	74 03		 je	 SHORT $LN274@Value

; 1247 : 	{
; 1248 : 		Level2 += 25;

  00121	83 c1 19	 add	 ecx, 25			; 00000019H
$LN274@Value:

; 1249 : 	}
; 1250 : 
; 1251 : 	if ( this->m_Type == ITEMGET(4,15) ) // Arrow

  00124	0f b7 43 06	 movzx	 eax, WORD PTR [ebx+6]
  00128	ba 0f 08 00 00	 mov	 edx, 2063		; 0000080fH
  0012d	66 3b c2	 cmp	 ax, dx
  00130	75 51		 jne	 SHORT $LN234@Value

; 1252 : 	{
; 1253 : 		int lc10 = 70;
; 1254 : 
; 1255 : 		if ( this->m_Level == 1 )

  00132	0f b7 43 08	 movzx	 eax, WORD PTR [ebx+8]
  00136	c7 45 fc 46 00
	00 00		 mov	 DWORD PTR _lc10$154611[ebp], 70 ; 00000046H
  0013d	66 83 f8 01	 cmp	 ax, 1
  00141	75 09		 jne	 SHORT $LN233@Value

; 1256 : 		{
; 1257 : 			lc10 = 1200;

  00143	c7 45 fc b0 04
	00 00		 mov	 DWORD PTR _lc10$154611[ebp], 1200 ; 000004b0H
  0014a	eb 0d		 jmp	 SHORT $LN231@Value
$LN233@Value:

; 1258 : 		}
; 1259 : 		else if ( this->m_Level == 2 )

  0014c	66 83 f8 02	 cmp	 ax, 2
  00150	75 07		 jne	 SHORT $LN231@Value

; 1260 : 		{
; 1261 : 			lc10 = 2000;

  00152	c7 45 fc d0 07
	00 00		 mov	 DWORD PTR _lc10$154611[ebp], 2000 ; 000007d0H
$LN231@Value:

; 1262 : 		}
; 1263 : 
; 1264 : 		if ( this->m_Durability > 0.0f )

  00159	d9 ee		 fldz
  0015b	d8 5b 24	 fcomp	 DWORD PTR [ebx+36]
  0015e	df e0		 fnstsw	 ax
  00160	f6 c4 05	 test	 ah, 5
  00163	0f 8a f4 05 00
	00		 jp	 $LN9@Value

; 1265 : 		{
; 1266 : 			Gold = lc10 * this->m_Durability/p->Durability;

  00169	8b 45 f8	 mov	 eax, DWORD PTR _p$[ebp]
  0016c	db 45 fc	 fild	 DWORD PTR _lc10$154611[ebp]
  0016f	0f b6 48 30	 movzx	 ecx, BYTE PTR [eax+48]
  00173	89 4d f4	 mov	 DWORD PTR tv1608[ebp], ecx
  00176	d8 4b 24	 fmul	 DWORD PTR [ebx+36]
  00179	db 45 f4	 fild	 DWORD PTR tv1608[ebp]
  0017c	de f9		 fdivp	 ST(1), ST(0)

; 1267 : 		}
; 1268 : 	}

  0017e	e9 b7 05 00 00	 jmp	 $LN311@Value
$LN234@Value:

; 1269 : 	else if ( this->m_Type == ITEMGET(4,7) ) // Arrow of Crossbow

  00183	ba 07 08 00 00	 mov	 edx, 2055		; 00000807H
  00188	66 3b c2	 cmp	 ax, dx
  0018b	75 51		 jne	 SHORT $LN228@Value

; 1270 : 	{
; 1271 : 		int lc11;
; 1272 : 
; 1273 : 		if ( this->m_Durability > 0.0f )

  0018d	d9 ee		 fldz
  0018f	d8 5b 24	 fcomp	 DWORD PTR [ebx+36]
  00192	df e0		 fnstsw	 ax
  00194	f6 c4 05	 test	 ah, 5
  00197	0f 8a c0 05 00
	00		 jp	 $LN9@Value

; 1274 : 		{
; 1275 : 			lc11 = 100;
; 1276 : 
; 1277 : 			if ( this->m_Level == 1 )

  0019d	0f b7 43 08	 movzx	 eax, WORD PTR [ebx+8]
  001a1	c7 45 fc 64 00
	00 00		 mov	 DWORD PTR _lc11$154618[ebp], 100 ; 00000064H
  001a8	66 83 f8 01	 cmp	 ax, 1
  001ac	75 09		 jne	 SHORT $LN226@Value

; 1278 : 			{
; 1279 : 				lc11 = 1400;

  001ae	c7 45 fc 78 05
	00 00		 mov	 DWORD PTR _lc11$154618[ebp], 1400 ; 00000578H
  001b5	eb 0d		 jmp	 SHORT $LN224@Value
$LN226@Value:

; 1280 : 			}
; 1281 : 			else if ( this->m_Level == 2 )

  001b7	66 83 f8 02	 cmp	 ax, 2
  001bb	75 07		 jne	 SHORT $LN224@Value

; 1282 : 			{
; 1283 : 				lc11 = 2200;

  001bd	c7 45 fc 98 08
	00 00		 mov	 DWORD PTR _lc11$154618[ebp], 2200 ; 00000898H
$LN224@Value:

; 1284 : 			}
; 1285 : 		
; 1286 : 			Gold = lc11 * this->m_Durability/p->Durability;

  001c4	8b 45 f8	 mov	 eax, DWORD PTR _p$[ebp]
  001c7	db 45 fc	 fild	 DWORD PTR _lc11$154618[ebp]
  001ca	0f b6 48 30	 movzx	 ecx, BYTE PTR [eax+48]
  001ce	89 4d f4	 mov	 DWORD PTR tv1595[ebp], ecx
  001d1	d8 4b 24	 fmul	 DWORD PTR [ebx+36]
  001d4	db 45 f4	 fild	 DWORD PTR tv1595[ebp]
  001d7	de f9		 fdivp	 ST(1), ST(0)

; 1287 : 		}
; 1288 : 	}

  001d9	e9 5c 05 00 00	 jmp	 $LN311@Value
$LN228@Value:

; 1289 : 	else if ( this->m_Type == ITEMGET(14,13) ) // Bless

  001de	ba 0d 1c 00 00	 mov	 edx, 7181		; 00001c0dH
  001e3	66 3b c2	 cmp	 ax, dx
  001e6	75 0a		 jne	 SHORT $LN222@Value

; 1290 : 	{
; 1291 : 		Gold = 9000000;

  001e8	be 40 54 89 00	 mov	 esi, 9000000		; 00895440H
  001ed	e9 64 05 00 00	 jmp	 $LN305@Value
$LN222@Value:

; 1292 : 	}
; 1293 : 	else if ( this->m_Type == ITEMGET(14,14) ) // soul

  001f2	ba 0e 1c 00 00	 mov	 edx, 7182		; 00001c0eH
  001f7	66 3b c2	 cmp	 ax, dx
  001fa	75 0a		 jne	 SHORT $LN220@Value

; 1294 : 	{
; 1295 : 		Gold = 6000000;

  001fc	be 80 8d 5b 00	 mov	 esi, 6000000		; 005b8d80H
  00201	e9 50 05 00 00	 jmp	 $LN305@Value
$LN220@Value:

; 1296 : 	}
; 1297 : 	else if ( this->m_Type == ITEMGET(12,15) ) // chaos

  00206	ba 0f 18 00 00	 mov	 edx, 6159		; 0000180fH
  0020b	66 3b c2	 cmp	 ax, dx
  0020e	75 0a		 jne	 SHORT $LN218@Value

; 1298 : 	{
; 1299 : 		Gold = 810000;

  00210	be 10 5c 0c 00	 mov	 esi, 810000		; 000c5c10H
  00215	e9 3c 05 00 00	 jmp	 $LN305@Value
$LN218@Value:

; 1300 : 	}
; 1301 : 	else if ( this->m_Type == ITEMGET(14,16) ) // Life

  0021a	ba 10 1c 00 00	 mov	 edx, 7184		; 00001c10H
  0021f	66 3b c2	 cmp	 ax, dx
  00222	75 0a		 jne	 SHORT $LN216@Value

; 1302 : 	{
; 1303 : 		Gold = 45000000;

  00224	be 40 a5 ae 02	 mov	 esi, 45000000		; 02aea540H
  00229	e9 28 05 00 00	 jmp	 $LN305@Value
$LN216@Value:

; 1304 : 	}
; 1305 : 	else if ( this->m_Type == ITEMGET(14,22) ) // Creation

  0022e	ba 16 1c 00 00	 mov	 edx, 7190		; 00001c16H
  00233	66 3b c2	 cmp	 ax, dx
  00236	75 0a		 jne	 SHORT $LN214@Value

; 1306 : 	{
; 1307 : 		Gold = 36000000;

  00238	be 00 51 25 02	 mov	 esi, 36000000		; 02255100H
  0023d	e9 14 05 00 00	 jmp	 $LN305@Value
$LN214@Value:

; 1308 : 	}
; 1309 : 	else if ( this->m_Type == ITEMGET(12,30) ) //Pack Of Bless

  00242	ba 1e 18 00 00	 mov	 edx, 6174		; 0000181eH
  00247	66 3b c2	 cmp	 ax, dx
  0024a	75 10		 jne	 SHORT $LN212@Value

; 1310 : 	{
; 1311 : 		Gold = (this->m_Level+1)*9000000*10;

  0024c	8b 45 fc	 mov	 eax, DWORD PTR tv1185[ebp]
  0024f	40		 inc	 eax
  00250	69 c0 80 4a 5d
	05		 imul	 eax, 90000000		; 055d4a80H
  00256	99		 cdq
  00257	e9 e3 04 00 00	 jmp	 $LN312@Value
$LN212@Value:

; 1312 : 	}
; 1313 : 	else if ( this->m_Type == ITEMGET(12,31) ) //Pack Of Soul

  0025c	ba 1f 18 00 00	 mov	 edx, 6175		; 0000181fH
  00261	66 3b c2	 cmp	 ax, dx
  00264	75 10		 jne	 SHORT $LN210@Value

; 1314 : 	{
; 1315 : 		Gold = (this->m_Level+1)*6000000*10;

  00266	8b 45 fc	 mov	 eax, DWORD PTR tv1185[ebp]
  00269	40		 inc	 eax
  0026a	69 c0 00 87 93
	03		 imul	 eax, 60000000		; 03938700H
  00270	99		 cdq
  00271	e9 c9 04 00 00	 jmp	 $LN312@Value
$LN210@Value:

; 1316 : 	}
; 1317 : 	else if ( this->m_Type == ITEMGET(13,15) ) //Fruits

  00276	ba 0f 1a 00 00	 mov	 edx, 6671		; 00001a0fH
  0027b	66 3b c2	 cmp	 ax, dx
  0027e	75 0a		 jne	 SHORT $LN208@Value

; 1318 : 	{
; 1319 : 		Gold = 33000000;

  00280	be 40 8a f7 01	 mov	 esi, 33000000		; 01f78a40H
  00285	e9 cc 04 00 00	 jmp	 $LN305@Value
$LN208@Value:

; 1320 : 	}
; 1321 : 	else if ( this->m_Type == ITEMGET(13,14) ) //Loch Feather

  0028a	ba 0e 1a 00 00	 mov	 edx, 6670		; 00001a0eH
  0028f	66 3b c2	 cmp	 ax, dx
  00292	75 22		 jne	 SHORT $LN206@Value

; 1322 : 	{
; 1323 : 		if ( this->m_Level == 1 )

  00294	66 83 7b 08 01	 cmp	 WORD PTR [ebx+8], 1

; 1324 : 		{
; 1325 : 			Gold = 7500000;	// Crest ofMonarch

  00299	c7 45 ec 00 00
	00 00		 mov	 DWORD PTR _Gold$[ebp+4], 0
  002a0	75 0a		 jne	 SHORT $LN205@Value
  002a2	be e0 70 72 00	 mov	 esi, 7500000		; 007270e0H

; 1326 : 		}
; 1327 : 		else

  002a7	e9 b1 04 00 00	 jmp	 $LN9@Value
$LN205@Value:

; 1328 : 		{
; 1329 : 			Gold = 180000;	// Blue Feather

  002ac	be 20 bf 02 00	 mov	 esi, 180000		; 0002bf20H

; 1330 : 		}

  002b1	e9 a7 04 00 00	 jmp	 $LN9@Value
$LN206@Value:

; 1331 : 	}
; 1332 : 	else if ( this->m_Type == ITEMGET(14,31) ) // Jewel of Guardian

  002b6	ba 1f 1c 00 00	 mov	 edx, 7199		; 00001c1fH
  002bb	66 3b c2	 cmp	 ax, dx
  002be	75 0a		 jne	 SHORT $LN202@Value

; 1333 : 	{
; 1334 : 		Gold = 60000000;

  002c0	be 00 87 93 03	 mov	 esi, 60000000		; 03938700H
  002c5	e9 8c 04 00 00	 jmp	 $LN305@Value
$LN202@Value:

; 1335 : 	}
; 1336 : 	else if ( this->m_Type == ITEMGET(14,7) ) // Siege Potion

  002ca	ba 07 1c 00 00	 mov	 edx, 7175		; 00001c07H
  002cf	66 3b c2	 cmp	 ax, dx
  002d2	75 3b		 jne	 SHORT $LN200@Value

; 1337 : 	{
; 1338 : 		if ( this->m_Level == 0 )

  002d4	0f b7 43 08	 movzx	 eax, WORD PTR [ebx+8]
  002d8	66 85 c0	 test	 ax, ax
  002db	75 14		 jne	 SHORT $LN199@Value

; 1339 : 		{
; 1340 : 			Gold = (int)(this->m_Durability) * 900000;

  002dd	d9 43 24	 fld	 DWORD PTR [ebx+36]
  002e0	e8 00 00 00 00	 call	 __ftol2_sse
  002e5	69 c0 a0 bb 0d
	00		 imul	 eax, 900000		; 000dbba0H
  002eb	99		 cdq
  002ec	e9 4e 04 00 00	 jmp	 $LN312@Value
$LN199@Value:

; 1341 : 		}
; 1342 : 		else if ( this->m_Level == 1 )

  002f1	66 83 f8 01	 cmp	 ax, 1
  002f5	0f 85 62 04 00
	00		 jne	 $LN9@Value

; 1343 : 		{
; 1344 : 			Gold = (int)(this->m_Durability) * 450000;

  002fb	d9 43 24	 fld	 DWORD PTR [ebx+36]
  002fe	e8 00 00 00 00	 call	 __ftol2_sse
  00303	69 c0 d0 dd 06
	00		 imul	 eax, 450000		; 0006ddd0H
  00309	99		 cdq

; 1345 : 		}
; 1346 : 	}

  0030a	e9 30 04 00 00	 jmp	 $LN312@Value
$LN200@Value:

; 1347 : 	else if ( this->m_Type == ITEMGET(13,11) ) // Order(Guardian/Life Stone)

  0030f	ba 0b 1a 00 00	 mov	 edx, 6667		; 00001a0bH
  00314	66 3b c2	 cmp	 ax, dx
  00317	75 15		 jne	 SHORT $LN195@Value

; 1348 : 	{
; 1349 : 		if ( this->m_Level == 1 )

  00319	66 83 7b 08 01	 cmp	 WORD PTR [ebx+8], 1
  0031e	0f 85 39 04 00
	00		 jne	 $LN9@Value

; 1350 : 		{
; 1351 : 			Gold = 2400000;

  00324	be 00 9f 24 00	 mov	 esi, 2400000		; 00249f00H

; 1352 : 		}
; 1353 : 	}

  00329	e9 28 04 00 00	 jmp	 $LN305@Value
$LN195@Value:

; 1354 : 	else if ( this->m_Type == ITEMGET(13,7) ) // Contract(Summon)

  0032e	ba 07 1a 00 00	 mov	 edx, 6663		; 00001a07H
  00333	66 3b c2	 cmp	 ax, dx
  00336	75 2f		 jne	 SHORT $LN192@Value

; 1355 : 	{
; 1356 : 		if ( this->m_Level == 0 )

  00338	0f b7 43 08	 movzx	 eax, WORD PTR [ebx+8]
  0033c	33 c9		 xor	 ecx, ecx
  0033e	66 3b c1	 cmp	 ax, cx
  00341	75 0d		 jne	 SHORT $LN191@Value

; 1357 : 		{
; 1358 : 			Gold = 1500000;

  00343	be 60 e3 16 00	 mov	 esi, 1500000		; 0016e360H
  00348	89 4d ec	 mov	 DWORD PTR _Gold$[ebp+4], ecx
  0034b	e9 0d 04 00 00	 jmp	 $LN9@Value
$LN191@Value:

; 1359 : 		}
; 1360 : 		else if ( this->m_Level == 1 )

  00350	66 83 f8 01	 cmp	 ax, 1
  00354	0f 85 03 04 00
	00		 jne	 $LN9@Value

; 1361 : 		{
; 1362 : 			Gold = 1200000;

  0035a	be 80 4f 12 00	 mov	 esi, 1200000		; 00124f80H
  0035f	89 4d ec	 mov	 DWORD PTR _Gold$[ebp+4], ecx

; 1363 : 		}
; 1364 : 	}

  00362	e9 f6 03 00 00	 jmp	 $LN9@Value
$LN192@Value:

; 1365 : 	else if ( this->m_Type == ITEMGET(13,32) ) 

  00367	ba 20 1a 00 00	 mov	 edx, 6688		; 00001a20H
  0036c	66 3b c2	 cmp	 ax, dx
  0036f	75 14		 jne	 SHORT $LN187@Value

; 1366 : 	{
; 1367 : 		Gold = (int)this->m_Durability * 150;

  00371	d9 43 24	 fld	 DWORD PTR [ebx+36]
  00374	e8 00 00 00 00	 call	 __ftol2_sse
  00379	69 c0 96 00 00
	00		 imul	 eax, 150		; 00000096H
  0037f	99		 cdq
  00380	e9 ba 03 00 00	 jmp	 $LN312@Value
$LN187@Value:

; 1368 : 	}
; 1369 : 	else if ( this->m_Type == ITEMGET(13,33) ) 

  00385	ba 21 1a 00 00	 mov	 edx, 6689		; 00001a21H
  0038a	66 3b c2	 cmp	 ax, dx
  0038d	75 14		 jne	 SHORT $LN185@Value

; 1370 : 	{
; 1371 : 		Gold = (int)this->m_Durability * 300;

  0038f	d9 43 24	 fld	 DWORD PTR [ebx+36]
  00392	e8 00 00 00 00	 call	 __ftol2_sse
  00397	69 c0 2c 01 00
	00		 imul	 eax, 300		; 0000012cH
  0039d	99		 cdq
  0039e	e9 9c 03 00 00	 jmp	 $LN312@Value
$LN185@Value:

; 1372 : 	}
; 1373 : 	else if ( this->m_Type == ITEMGET(13,34) ) 

  003a3	ba 22 1a 00 00	 mov	 edx, 6690		; 00001a22H
  003a8	66 3b c2	 cmp	 ax, dx
  003ab	75 14		 jne	 SHORT $LN183@Value

; 1374 : 	{
; 1375 : 		Gold = (int)this->m_Durability * 3000;

  003ad	d9 43 24	 fld	 DWORD PTR [ebx+36]
  003b0	e8 00 00 00 00	 call	 __ftol2_sse
  003b5	69 c0 b8 0b 00
	00		 imul	 eax, 3000		; 00000bb8H
  003bb	99		 cdq
  003bc	e9 7e 03 00 00	 jmp	 $LN312@Value
$LN183@Value:

; 1376 : 	}
; 1377 : 	else if ( this->m_Type == ITEMGET(13,35) ) 

  003c1	ba 23 1a 00 00	 mov	 edx, 6691		; 00001a23H
  003c6	66 3b c2	 cmp	 ax, dx
  003c9	75 0a		 jne	 SHORT $LN181@Value
$LN152@Value:

; 1378 : 	{
; 1379 : 		Gold = 30000;

  003cb	be 30 75 00 00	 mov	 esi, 30000		; 00007530H
  003d0	e9 81 03 00 00	 jmp	 $LN305@Value
$LN181@Value:

; 1380 : 	}
; 1381 : 	else if ( this->m_Type == ITEMGET(13,36) ) 

  003d5	ba 24 1a 00 00	 mov	 edx, 6692		; 00001a24H
  003da	66 3b c2	 cmp	 ax, dx
  003dd	75 0a		 jne	 SHORT $LN179@Value

; 1382 : 	{
; 1383 : 		Gold = 90000;

  003df	be 90 5f 01 00	 mov	 esi, 90000		; 00015f90H
  003e4	e9 6d 03 00 00	 jmp	 $LN305@Value
$LN179@Value:

; 1384 : 	}
; 1385 : 	else if ( this->m_Type == ITEMGET(13,37) ) 

  003e9	ba 25 1a 00 00	 mov	 edx, 6693		; 00001a25H
  003ee	66 3b c2	 cmp	 ax, dx
  003f1	75 0a		 jne	 SHORT $LN177@Value
$LN109@Value:

; 1386 : 	{
; 1387 : 		Gold = 150000;

  003f3	be f0 49 02 00	 mov	 esi, 150000		; 000249f0H
  003f8	e9 59 03 00 00	 jmp	 $LN305@Value
$LN177@Value:

; 1388 : 	}
; 1389 : 	else if ( this->m_Type == ITEMGET(14,35) ) 

  003fd	ba 23 1c 00 00	 mov	 edx, 7203		; 00001c23H
  00402	66 3b c2	 cmp	 ax, dx
  00405	75 14		 jne	 SHORT $LN175@Value

; 1390 : 	{
; 1391 : 		Gold = (int)this->m_Durability * 2000;

  00407	d9 43 24	 fld	 DWORD PTR [ebx+36]
  0040a	e8 00 00 00 00	 call	 __ftol2_sse
  0040f	69 c0 d0 07 00
	00		 imul	 eax, 2000		; 000007d0H
  00415	99		 cdq
  00416	e9 24 03 00 00	 jmp	 $LN312@Value
$LN175@Value:

; 1392 : 	}
; 1393 : 	else if ( this->m_Type == ITEMGET(14,36) ) 

  0041b	ba 24 1c 00 00	 mov	 edx, 7204		; 00001c24H
  00420	66 3b c2	 cmp	 ax, dx
  00423	75 14		 jne	 SHORT $LN173@Value

; 1394 : 	{
; 1395 : 		Gold = (int)this->m_Durability * 4000;

  00425	d9 43 24	 fld	 DWORD PTR [ebx+36]
  00428	e8 00 00 00 00	 call	 __ftol2_sse
  0042d	69 c0 a0 0f 00
	00		 imul	 eax, 4000		; 00000fa0H
  00433	99		 cdq
  00434	e9 06 03 00 00	 jmp	 $LN312@Value
$LN173@Value:

; 1396 : 	}
; 1397 : 	else if ( this->m_Type == ITEMGET(14,37) ) 

  00439	ba 25 1c 00 00	 mov	 edx, 7205		; 00001c25H
  0043e	66 3b c2	 cmp	 ax, dx
  00441	75 14		 jne	 SHORT $LN171@Value

; 1398 : 	{
; 1399 : 		Gold = (int)this->m_Durability * 6000;

  00443	d9 43 24	 fld	 DWORD PTR [ebx+36]
  00446	e8 00 00 00 00	 call	 __ftol2_sse
  0044b	69 c0 70 17 00
	00		 imul	 eax, 6000		; 00001770H
  00451	99		 cdq
  00452	e9 e8 02 00 00	 jmp	 $LN312@Value
$LN171@Value:

; 1400 : 	}
; 1401 : 	else if ( this->m_Type == ITEMGET(14,38) ) 

  00457	ba 26 1c 00 00	 mov	 edx, 7206		; 00001c26H
  0045c	66 3b c2	 cmp	 ax, dx
  0045f	75 14		 jne	 SHORT $LN169@Value

; 1402 : 	{
; 1403 : 		Gold = (int)this->m_Durability * 2500;

  00461	d9 43 24	 fld	 DWORD PTR [ebx+36]
  00464	e8 00 00 00 00	 call	 __ftol2_sse
  00469	69 c0 c4 09 00
	00		 imul	 eax, 2500		; 000009c4H
  0046f	99		 cdq
  00470	e9 ca 02 00 00	 jmp	 $LN312@Value
$LN169@Value:

; 1404 : 	}
; 1405 : 	else if ( this->m_Type == ITEMGET(14,39) ) 

  00475	ba 27 1c 00 00	 mov	 edx, 7207		; 00001c27H
  0047a	66 3b c2	 cmp	 ax, dx
  0047d	75 14		 jne	 SHORT $LN167@Value

; 1406 : 	{
; 1407 : 		Gold = (int)this->m_Durability * 5000;

  0047f	d9 43 24	 fld	 DWORD PTR [ebx+36]
  00482	e8 00 00 00 00	 call	 __ftol2_sse
  00487	69 c0 88 13 00
	00		 imul	 eax, 5000		; 00001388H
  0048d	99		 cdq
  0048e	e9 ac 02 00 00	 jmp	 $LN312@Value
$LN167@Value:

; 1408 : 	}
; 1409 : 	else if ( this->m_Type == ITEMGET(14,40) ) 

  00493	ba 28 1c 00 00	 mov	 edx, 7208		; 00001c28H
  00498	66 3b c2	 cmp	 ax, dx
  0049b	75 14		 jne	 SHORT $LN165@Value

; 1410 : 	{
; 1411 : 		Gold = (int)this->m_Durability * 7500;

  0049d	d9 43 24	 fld	 DWORD PTR [ebx+36]
  004a0	e8 00 00 00 00	 call	 __ftol2_sse
  004a5	69 c0 4c 1d 00
	00		 imul	 eax, 7500		; 00001d4cH
  004ab	99		 cdq
  004ac	e9 8e 02 00 00	 jmp	 $LN312@Value
$LN165@Value:

; 1412 : 	}
; 1413 : 	else if ( this->m_Type == ITEMGET(13,3) ) // Dinorant

  004b1	ba 03 1a 00 00	 mov	 edx, 6659		; 00001a03H
  004b6	66 3b c2	 cmp	 ax, dx
  004b9	75 37		 jne	 SHORT $LN163@Value

; 1414 : 	{
; 1415 : 		Gold = 960000;
; 1416 : 
; 1417 : 		for (int k=0;k<3;k++)
; 1418 : 		{
; 1419 : 			if ( (this->m_Option3 & (1<<k)) != 0 )

  004bb	0f b6 43 7a	 movzx	 eax, BYTE PTR [ebx+122]
  004bf	33 ff		 xor	 edi, edi
  004c1	be 00 a6 0e 00	 mov	 esi, 960000		; 000ea600H
  004c6	a8 01		 test	 al, 1
  004c8	74 05		 je	 SHORT $LN161@Value

; 1420 : 			{
; 1421 : 				Gold += 300000;

  004ca	be e0 39 13 00	 mov	 esi, 1260000		; 001339e0H
$LN161@Value:

; 1414 : 	{
; 1415 : 		Gold = 960000;
; 1416 : 
; 1417 : 		for (int k=0;k<3;k++)
; 1418 : 		{
; 1419 : 			if ( (this->m_Option3 & (1<<k)) != 0 )

  004cf	a8 02		 test	 al, 2
  004d1	74 09		 je	 SHORT $LN266@Value

; 1420 : 			{
; 1421 : 				Gold += 300000;

  004d3	81 c6 e0 93 04
	00		 add	 esi, 300000		; 000493e0H
  004d9	83 d7 00	 adc	 edi, 0
$LN266@Value:

; 1414 : 	{
; 1415 : 		Gold = 960000;
; 1416 : 
; 1417 : 		for (int k=0;k<3;k++)
; 1418 : 		{
; 1419 : 			if ( (this->m_Option3 & (1<<k)) != 0 )

  004dc	a8 04		 test	 al, 4
  004de	0f 84 5f 02 00
	00		 je	 $LN97@Value

; 1420 : 			{
; 1421 : 				Gold += 300000;

  004e4	81 c6 e0 93 04
	00		 add	 esi, 300000		; 000493e0H
  004ea	83 d7 00	 adc	 edi, 0

; 1422 : 			}
; 1423 : 		}
; 1424 : 	}
; 1425 : 	else if ( this->m_Type == ITEMGET(14,17) ) // Devil Eye

  004ed	e9 51 02 00 00	 jmp	 $LN97@Value
$LN163@Value:
  004f2	ba 11 1c 00 00	 mov	 edx, 7185		; 00001c11H
  004f7	66 3b c2	 cmp	 ax, dx
  004fa	75 32		 jne	 SHORT $LN157@Value

; 1426 : 	{
; 1427 : 		switch ( this->m_Level )

  004fc	8b 45 fc	 mov	 eax, DWORD PTR tv1185[ebp]
  004ff	48		 dec	 eax
  00500	83 f8 05	 cmp	 eax, 5
  00503	0f 87 c2 fe ff
	ff		 ja	 $LN152@Value
  00509	ff 24 85 00 00
	00 00		 jmp	 DWORD PTR $LN313@Value[eax*4]
$LN154@Value:

; 1428 : 		{
; 1429 : 			case 1:
; 1430 : 				Gold = 15000;

  00510	be 98 3a 00 00	 mov	 esi, 15000		; 00003a98H

; 1431 : 				break;

  00515	e9 3c 02 00 00	 jmp	 $LN305@Value
$LN151@Value:

; 1432 : 			case 2:
; 1433 : 				Gold = 21000;
; 1434 : 				break;
; 1435 : 			case 3:
; 1436 : 				Gold = 30000;
; 1437 : 				break;
; 1438 : 			case 4:
; 1439 : 				Gold = 45000;

  0051a	be c8 af 00 00	 mov	 esi, 45000		; 0000afc8H

; 1440 : 				break;

  0051f	e9 32 02 00 00	 jmp	 $LN305@Value
$LN149@Value:

; 1441 : 			case 5:
; 1442 : 				Gold = 60000;
; 1443 : 				break;
; 1444 : 			case 6:
; 1445 : 				Gold = 75000;

  00524	be f8 24 01 00	 mov	 esi, 75000		; 000124f8H

; 1446 : 				break;

  00529	e9 28 02 00 00	 jmp	 $LN305@Value
$LN157@Value:

; 1447 : 			default:
; 1448 : 				Gold = 30000;
; 1449 : 				break;
; 1450 : 		}
; 1451 : 	}
; 1452 : 	else if ( this->m_Type == ITEMGET(14,18) ) // Devil Key

  0052e	ba 12 1c 00 00	 mov	 edx, 7186		; 00001c12H
  00533	66 3b c2	 cmp	 ax, dx
  00536	75 1e		 jne	 SHORT $LN146@Value

; 1453 : 	{
; 1454 : 		switch ( this->m_Level )

  00538	8b 45 fc	 mov	 eax, DWORD PTR tv1185[ebp]
  0053b	48		 dec	 eax
  0053c	83 f8 05	 cmp	 eax, 5
  0053f	0f 87 86 fe ff
	ff		 ja	 $LN152@Value
  00545	ff 24 85 00 00
	00 00		 jmp	 DWORD PTR $LN314@Value[eax*4]
$LN142@Value:

; 1455 : 		{
; 1456 : 			case 1:
; 1457 : 				Gold = 15000;
; 1458 : 				break;
; 1459 : 			case 2:
; 1460 : 				Gold = 21000;

  0054c	be 08 52 00 00	 mov	 esi, 21000		; 00005208H

; 1461 : 				break;

  00551	e9 00 02 00 00	 jmp	 $LN305@Value
$LN146@Value:

; 1462 : 			case 3:
; 1463 : 				Gold = 30000;
; 1464 : 				break;
; 1465 : 			case 4:
; 1466 : 				Gold = 45000;
; 1467 : 				break;
; 1468 : 			case 5:
; 1469 : 				Gold = 60000;
; 1470 : 				break;
; 1471 : 			case 6:
; 1472 : 				Gold = 75000;
; 1473 : 				break;
; 1474 : 			default:
; 1475 : 				Gold = 30000;
; 1476 : 				break;
; 1477 : 		}
; 1478 : 	}
; 1479 : 	else if ( this->m_Type == ITEMGET(14,19) ) // Devil's Invitation

  00556	ba 13 1c 00 00	 mov	 edx, 7187		; 00001c13H
  0055b	66 3b c2	 cmp	 ax, dx
  0055e	75 4c		 jne	 SHORT $LN135@Value

; 1480 : 	{
; 1481 : 		switch ( this->m_Level )

  00560	8b 45 fc	 mov	 eax, DWORD PTR tv1185[ebp]
  00563	48		 dec	 eax
  00564	83 f8 05	 cmp	 eax, 5
  00567	77 1b		 ja	 SHORT $LN130@Value
  00569	ff 24 85 00 00
	00 00		 jmp	 DWORD PTR $LN315@Value[eax*4]
$LN132@Value:

; 1482 : 		{
; 1483 : 			case 1:
; 1484 : 				Gold = 60000;

  00570	be 60 ea 00 00	 mov	 esi, 60000		; 0000ea60H

; 1485 : 				break;

  00575	e9 dc 01 00 00	 jmp	 $LN305@Value
$LN131@Value:

; 1486 : 			case 2:
; 1487 : 				Gold = 84000;

  0057a	be 20 48 01 00	 mov	 esi, 84000		; 00014820H

; 1488 : 				break;

  0057f	e9 d2 01 00 00	 jmp	 $LN305@Value
$LN130@Value:

; 1489 : 			case 3:
; 1490 : 				Gold = 120000;

  00584	be c0 d4 01 00	 mov	 esi, 120000		; 0001d4c0H

; 1491 : 				break;

  00589	e9 c8 01 00 00	 jmp	 $LN305@Value
$LN129@Value:

; 1492 : 			case 4:
; 1493 : 				Gold = 180000;

  0058e	be 20 bf 02 00	 mov	 esi, 180000		; 0002bf20H

; 1494 : 				break;

  00593	e9 be 01 00 00	 jmp	 $LN305@Value
$LN128@Value:

; 1495 : 			case 5:
; 1496 : 				Gold = 240000;

  00598	be 80 a9 03 00	 mov	 esi, 240000		; 0003a980H

; 1497 : 				break;

  0059d	e9 b4 01 00 00	 jmp	 $LN305@Value
$LN127@Value:

; 1498 : 			case 6:
; 1499 : 				Gold = 300000;

  005a2	be e0 93 04 00	 mov	 esi, 300000		; 000493e0H

; 1500 : 				break;

  005a7	e9 aa 01 00 00	 jmp	 $LN305@Value
$LN135@Value:

; 1501 : 			default:
; 1502 : 				Gold = 120000;
; 1503 : 				break;
; 1504 : 		}
; 1505 : 	}
; 1506 : 	else if ( this->m_Type == ITEMGET(14,20) ) // Remedy Of Love

  005ac	ba 14 1c 00 00	 mov	 edx, 7188		; 00001c14H
  005b1	66 3b c2	 cmp	 ax, dx
  005b4	75 0a		 jne	 SHORT $LN124@Value

; 1507 : 	{
; 1508 : 		Gold = 900;

  005b6	be 84 03 00 00	 mov	 esi, 900		; 00000384H
  005bb	e9 96 01 00 00	 jmp	 $LN305@Value
$LN124@Value:

; 1509 : 	}
; 1510 : 	else if ( this->m_Type == ITEMGET(14,21) ) // Rena

  005c0	ba 15 1c 00 00	 mov	 edx, 7189		; 00001c15H
  005c5	66 3b c2	 cmp	 ax, dx
  005c8	75 51		 jne	 SHORT $LN122@Value

; 1511 : 	{
; 1512 : 		switch ( this->m_Level )

  005ca	8b 45 fc	 mov	 eax, DWORD PTR tv1185[ebp]
  005cd	33 c9		 xor	 ecx, ecx
  005cf	2b c1		 sub	 eax, ecx
  005d1	74 2f		 je	 SHORT $LN119@Value
  005d3	48		 dec	 eax
  005d4	74 32		 je	 SHORT $LN118@Value
  005d6	83 e8 02	 sub	 eax, 2
  005d9	74 13		 je	 SHORT $LN117@Value

; 1524 : 			default:
; 1525 : 				Gold = 9000;
; 1526 : 				this->m_Durability = this->m_BaseDurability;

  005db	d9 43 2c	 fld	 DWORD PTR [ebx+44]
  005de	be 28 23 00 00	 mov	 esi, 9000		; 00002328H
  005e3	d9 5b 24	 fstp	 DWORD PTR [ebx+36]
  005e6	89 4d ec	 mov	 DWORD PTR _Gold$[ebp+4], ecx
  005e9	e9 6f 01 00 00	 jmp	 $LN9@Value
$LN117@Value:

; 1520 : 				break;
; 1521 : 			case 3:	// Mark of Lord
; 1522 : 				Gold = (int)(this->m_Durability) * 3900;

  005ee	d9 43 24	 fld	 DWORD PTR [ebx+36]
  005f1	e8 00 00 00 00	 call	 __ftol2_sse
  005f6	69 c0 3c 0f 00
	00		 imul	 eax, 3900		; 00000f3cH
  005fc	99		 cdq

; 1523 : 				break;

  005fd	e9 3d 01 00 00	 jmp	 $LN312@Value
$LN119@Value:

; 1513 : 		{
; 1514 : 			case 0:	// Rena
; 1515 : 				Gold = 9000;
; 1516 : 				this->m_Durability = this->m_BaseDurability;

  00602	d9 43 2c	 fld	 DWORD PTR [ebx+44]
  00605	d9 5b 24	 fstp	 DWORD PTR [ebx+36]
$LN118@Value:

; 1517 : 			case 1:	// Stone
; 1518 : 				Gold = 9000;
; 1519 : 				this->m_Durability = this->m_BaseDurability;

  00608	d9 43 2c	 fld	 DWORD PTR [ebx+44]
  0060b	be 28 23 00 00	 mov	 esi, 9000		; 00002328H
  00610	d9 5b 24	 fstp	 DWORD PTR [ebx+36]
  00613	89 4d ec	 mov	 DWORD PTR _Gold$[ebp+4], ecx

; 1527 : 		}
; 1528 : 	}
; 1529 : 	else if ( this->m_Type == ITEMGET(14,9) && this->m_Level == 1) // Ale

  00616	e9 42 01 00 00	 jmp	 $LN9@Value
$LN122@Value:
  0061b	ba 09 1c 00 00	 mov	 edx, 7177		; 00001c09H
  00620	66 3b c2	 cmp	 ax, dx
  00623	75 11		 jne	 SHORT $LN276@Value
  00625	66 83 7b 08 01	 cmp	 WORD PTR [ebx+8], 1
  0062a	75 0a		 jne	 SHORT $LN276@Value

; 1530 : 	{
; 1531 : 		Gold = 1000;

  0062c	be e8 03 00 00	 mov	 esi, 1000		; 000003e8H
  00631	e9 20 01 00 00	 jmp	 $LN305@Value
$LN276@Value:

; 1532 : 	}
; 1533 : 	else if ( this->m_Type == ITEMGET(13,18) ) // Invisibility Cloak

  00636	ba 12 1a 00 00	 mov	 edx, 6674		; 00001a12H
  0063b	66 3b c2	 cmp	 ax, dx
  0063e	75 50		 jne	 SHORT $LN112@Value

; 1534 : 	{
; 1535 : 		switch ( this->m_Level )

  00640	8b 45 fc	 mov	 eax, DWORD PTR tv1185[ebp]
  00643	48		 dec	 eax
  00644	83 f8 06	 cmp	 eax, 6
  00647	0f 87 c9 00 00
	00		 ja	 $LN102@Value
  0064d	ff 24 85 00 00
	00 00		 jmp	 DWORD PTR $LN316@Value[eax*4]
$LN108@Value:

; 1536 : 		{
; 1537 : 			case 1:
; 1538 : 				Gold = 150000;
; 1539 : 				break;
; 1540 : 			case 2:
; 1541 : 				Gold = 660000;

  00654	be 20 12 0a 00	 mov	 esi, 660000		; 000a1220H

; 1542 : 				break;

  00659	e9 f8 00 00 00	 jmp	 $LN305@Value
$LN107@Value:

; 1543 : 			case 3:
; 1544 : 				Gold = 720000;

  0065e	be 80 fc 0a 00	 mov	 esi, 720000		; 000afc80H

; 1545 : 				break;

  00663	e9 ee 00 00 00	 jmp	 $LN305@Value
$LN106@Value:

; 1546 : 			case 4:
; 1547 : 				Gold = 780000;

  00668	be e0 e6 0b 00	 mov	 esi, 780000		; 000be6e0H

; 1548 : 				break;

  0066d	e9 e4 00 00 00	 jmp	 $LN305@Value
$LN105@Value:

; 1549 : 			case 5:
; 1550 : 				Gold = 840000;

  00672	be 40 d1 0c 00	 mov	 esi, 840000		; 000cd140H

; 1551 : 				break;

  00677	e9 da 00 00 00	 jmp	 $LN305@Value
$LN104@Value:

; 1552 : 			case 6:
; 1553 : 				Gold = 900000;

  0067c	be a0 bb 0d 00	 mov	 esi, 900000		; 000dbba0H

; 1554 : 				break;

  00681	e9 d0 00 00 00	 jmp	 $LN305@Value
$LN103@Value:

; 1555 : 			case 7:
; 1556 : 				Gold = 960000;

  00686	be 00 a6 0e 00	 mov	 esi, 960000		; 000ea600H

; 1557 : 				break;

  0068b	e9 c6 00 00 00	 jmp	 $LN305@Value
$LN112@Value:

; 1558 : 			default:
; 1559 : 				Gold = 600000;
; 1560 : 				break;
; 1561 : 		}
; 1562 : 	}
; 1563 : 	else if ( this->m_Type == ITEMGET(13,16) || this->m_Type == ITEMGET(13,17) ) // Blood and Paper of BloodCastle

  00690	ba 10 1a 00 00	 mov	 edx, 6672		; 00001a10H
  00695	66 3b c2	 cmp	 ax, dx
  00698	0f 84 10 06 00
	00		 je	 $LN99@Value
  0069e	ba 11 1a 00 00	 mov	 edx, 6673		; 00001a11H
  006a3	66 3b c2	 cmp	 ax, dx
  006a6	0f 84 02 06 00
	00		 je	 $LN99@Value

; 1582 : 			case 6:
; 1583 : 				Gold = 60000;
; 1584 : 				break;
; 1585 : 			case 7:
; 1586 : 				Gold = 75000;
; 1587 : 				break;
; 1588 : 			default:
; 1589 : 				Gold = 15000;
; 1590 : 				break;
; 1591 : 		}
; 1592 : 	}
; 1593 : 	else if ( this->m_Type == ITEMGET(13,29) ) // Armor of Guardman

  006ac	ba 1d 1a 00 00	 mov	 edx, 6685		; 00001a1dH
  006b1	66 3b c2	 cmp	 ax, dx
  006b4	75 0a		 jne	 SHORT $LN87@Value

; 1594 : 	{
; 1595 : 		Gold = 5000;

  006b6	be 88 13 00 00	 mov	 esi, 5000		; 00001388H
  006bb	e9 96 00 00 00	 jmp	 $LN305@Value
$LN87@Value:

; 1596 : 	}
; 1597 : 	else if ( this->m_Type == ITEMGET(13,20) ) // Wizards Ring

  006c0	ba 14 1a 00 00	 mov	 edx, 6676		; 00001a14H
  006c5	66 3b c2	 cmp	 ax, dx
  006c8	75 18		 jne	 SHORT $LN85@Value

; 1598 : 	{
; 1599 : 		switch ( this->m_Level )

  006ca	33 c0		 xor	 eax, eax

; 1603 : 				break;
; 1604 : 
; 1605 : 			default:
; 1606 : 				Gold = 0;

  006cc	89 45 ec	 mov	 DWORD PTR _Gold$[ebp+4], eax
  006cf	39 45 fc	 cmp	 DWORD PTR tv1185[ebp], eax
  006d2	74 07		 je	 SHORT $LN82@Value
  006d4	33 f6		 xor	 esi, esi
  006d6	e9 82 00 00 00	 jmp	 $LN9@Value
$LN82@Value:

; 1600 : 		{
; 1601 : 			case 0:
; 1602 : 				Gold =30000;

  006db	be 30 75 00 00	 mov	 esi, 30000		; 00007530H

; 1607 : 		}
; 1608 : 	}
; 1609 : 	else if ( this->m_Type == ITEMGET(13,31) ) // Spirit

  006e0	eb 7b		 jmp	 SHORT $LN9@Value
$LN85@Value:
  006e2	ba 1f 1a 00 00	 mov	 edx, 6687		; 00001a1fH
  006e7	66 3b c2	 cmp	 ax, dx
  006ea	75 20		 jne	 SHORT $LN79@Value

; 1610 : 	{
; 1611 : 		switch ( this->m_Level )

  006ec	8b 45 fc	 mov	 eax, DWORD PTR tv1185[ebp]
  006ef	33 c9		 xor	 ecx, ecx
  006f1	2b c1		 sub	 eax, ecx
  006f3	74 0d		 je	 SHORT $LN76@Value
  006f5	48		 dec	 eax
  006f6	75 65		 jne	 SHORT $LN9@Value

; 1615 : 				break;
; 1616 : 
; 1617 : 			case 1:
; 1618 : 				Gold = 15000000;

  006f8	be c0 e1 e4 00	 mov	 esi, 15000000		; 00e4e1c0H
  006fd	89 4d ec	 mov	 DWORD PTR _Gold$[ebp+4], ecx
  00700	eb 5b		 jmp	 SHORT $LN9@Value
$LN76@Value:

; 1612 : 		{
; 1613 : 			case 0:
; 1614 : 				Gold = 30000000;

  00702	be 80 c3 c9 01	 mov	 esi, 30000000		; 01c9c380H
  00707	89 4d ec	 mov	 DWORD PTR _Gold$[ebp+4], ecx

; 1619 : 		}
; 1620 : 	}
; 1621 : 	else if ( this->m_Type == ITEMGET(14,28) ) // Lost Map

  0070a	eb 51		 jmp	 SHORT $LN9@Value
$LN79@Value:
  0070c	ba 1c 1c 00 00	 mov	 edx, 7196		; 00001c1cH
  00711	66 3b c2	 cmp	 ax, dx
  00714	75 07		 jne	 SHORT $LN73@Value
$LN102@Value:

; 1622 : 	{
; 1623 : 		Gold = 600000;

  00716	be c0 27 09 00	 mov	 esi, 600000		; 000927c0H
  0071b	eb 39		 jmp	 SHORT $LN305@Value
$LN73@Value:

; 1624 : 	}
; 1625 : 	else if ( this->m_Type == ITEMGET(14,29) ) // Symbol of Kundun

  0071d	ba 1d 1c 00 00	 mov	 edx, 7197		; 00001c1dH
  00722	66 3b c2	 cmp	 ax, dx
  00725	0f 85 e8 01 00
	00		 jne	 $LN71@Value

; 1626 : 	{
; 1627 : 		Gold = ((10000.0f) * this->m_Durability) * 3.0f;

  0072b	d9 43 24	 fld	 DWORD PTR [ebx+36]
  0072e	dc 0d 00 00 00
	00		 fmul	 QWORD PTR __real@40c3880000000000
$LN309@Value:
  00734	dc 0d 00 00 00
	00		 fmul	 QWORD PTR __real@4008000000000000
$LN311@Value:
  0073a	e8 00 00 00 00	 call	 __ftol2
$LN312@Value:
  0073f	8b f0		 mov	 esi, eax
  00741	8b fa		 mov	 edi, edx
$LN97@Value:

; 1800 : 					break;
; 1801 : 
; 1802 : 			}
; 1803 : 		}
; 1804 : 	}
; 1805 : 
; 1806 : 	if ( Gold > 3000000000 )

  00743	85 ff		 test	 edi, edi
  00745	7c 16		 jl	 SHORT $LN9@Value
  00747	7f 08		 jg	 SHORT $LN273@Value
  00749	81 fe 00 5e d0
	b2		 cmp	 esi, -1294967296	; b2d05e00H
  0074f	76 0c		 jbe	 SHORT $LN9@Value
$LN273@Value:

; 1807 : 	{
; 1808 : 		Gold = 3000000000;

  00751	be 00 5e d0 b2	 mov	 esi, -1294967296	; b2d05e00H
$LN305@Value:
  00756	c7 45 ec 00 00
	00 00		 mov	 DWORD PTR _Gold$[ebp+4], 0
$LN9@Value:

; 1809 : 	}
; 1810 : 
; 1811 : 	this->m_BuyMoney = (DWORD)Gold;
; 1812 : 	this->m_SellMoney = (DWORD)Gold;
; 1813 : 	
; 1814 : 	this->m_SellMoney = this->m_SellMoney/3;

  0075d	b8 ab aa aa aa	 mov	 eax, -1431655765	; aaaaaaabH
  00762	f7 e6		 mul	 esi

; 1815 : 
; 1816 : 	if ( (this->m_Type < ITEMGET(14,0) || this->m_Type >  ITEMGET(14,8)) &&
; 1817 : 		  this->m_Type != ITEMGET(13,20) &&
; 1818 : 		  this->m_Type != ITEMGET(14,28) &&
; 1819 : 		  this->m_Type != ITEMGET(14,29) &&
; 1820 : 		  this->m_Type != ITEMGET(14,21) &&
; 1821 : 		  this->m_Type != ITEMGET(13,15) &&
; 1822 : 		  this->m_Type != ITEMGET(13,16) &&
; 1823 : 		  this->m_Type != ITEMGET(13,17) &&
; 1824 : 		  this->m_Type != ITEMGET(13,18) &&
; 1825 : 		  this->m_Type != ITEMGET(13,11) &&
; 1826 : 		  this->m_Type != ITEMGET(13,7)  &&
; 1827 : 		  this->m_Type != ITEMGET(13,32) &&
; 1828 : 		  this->m_Type != ITEMGET(13,33) &&
; 1829 : 		  this->m_Type != ITEMGET(13,34) &&
; 1830 : 		  this->m_Type != ITEMGET(13,35) &&
; 1831 : 		  this->m_Type != ITEMGET(13,36) &&
; 1832 : 		  this->m_Type != ITEMGET(13,37) &&
; 1833 : 		  this->m_Type != ITEMGET(14,45) &&
; 1834 : 		  this->m_Type != ITEMGET(14,46) &&
; 1835 : 		  this->m_Type != ITEMGET(14,47) &&
; 1836 : 		  this->m_Type != ITEMGET(14,48) &&
; 1837 : 		  this->m_Type != ITEMGET(14,49) &&
; 1838 : 		  this->m_Type != ITEMGET(14,50) )

  00764	0f b7 43 06	 movzx	 eax, WORD PTR [ebx+6]
  00768	d1 ea		 shr	 edx, 1
  0076a	b9 00 1c 00 00	 mov	 ecx, 7168		; 00001c00H
  0076f	89 73 64	 mov	 DWORD PTR [ebx+100], esi
  00772	89 53 60	 mov	 DWORD PTR [ebx+96], edx
  00775	66 3b c1	 cmp	 ax, cx
  00778	7c 0e		 jl	 SHORT $LN7@Value
  0077a	b9 08 1c 00 00	 mov	 ecx, 7176		; 00001c08H
  0077f	66 3b c1	 cmp	 ax, cx
  00782	0f 8e 6a 01 00
	00		 jle	 $LN8@Value
$LN7@Value:
  00788	b9 14 1a 00 00	 mov	 ecx, 6676		; 00001a14H
  0078d	66 3b c1	 cmp	 ax, cx
  00790	0f 84 5c 01 00
	00		 je	 $LN8@Value
  00796	b9 1c 1c 00 00	 mov	 ecx, 7196		; 00001c1cH
  0079b	66 3b c1	 cmp	 ax, cx
  0079e	0f 84 4e 01 00
	00		 je	 $LN8@Value
  007a4	b9 1d 1c 00 00	 mov	 ecx, 7197		; 00001c1dH
  007a9	66 3b c1	 cmp	 ax, cx
  007ac	0f 84 40 01 00
	00		 je	 $LN8@Value
  007b2	b9 15 1c 00 00	 mov	 ecx, 7189		; 00001c15H
  007b7	66 3b c1	 cmp	 ax, cx
  007ba	0f 84 32 01 00
	00		 je	 $LN8@Value
  007c0	b9 0f 1a 00 00	 mov	 ecx, 6671		; 00001a0fH
  007c5	66 3b c1	 cmp	 ax, cx
  007c8	0f 84 24 01 00
	00		 je	 $LN8@Value
  007ce	b9 10 1a 00 00	 mov	 ecx, 6672		; 00001a10H
  007d3	66 3b c1	 cmp	 ax, cx
  007d6	0f 84 16 01 00
	00		 je	 $LN8@Value
  007dc	b9 11 1a 00 00	 mov	 ecx, 6673		; 00001a11H
  007e1	66 3b c1	 cmp	 ax, cx
  007e4	0f 84 08 01 00
	00		 je	 $LN8@Value
  007ea	b9 12 1a 00 00	 mov	 ecx, 6674		; 00001a12H
  007ef	66 3b c1	 cmp	 ax, cx
  007f2	0f 84 fa 00 00
	00		 je	 $LN8@Value
  007f8	b9 0b 1a 00 00	 mov	 ecx, 6667		; 00001a0bH
  007fd	66 3b c1	 cmp	 ax, cx
  00800	0f 84 ec 00 00
	00		 je	 $LN8@Value
  00806	b9 07 1a 00 00	 mov	 ecx, 6663		; 00001a07H
  0080b	66 3b c1	 cmp	 ax, cx
  0080e	0f 84 de 00 00
	00		 je	 $LN8@Value
  00814	b9 20 1a 00 00	 mov	 ecx, 6688		; 00001a20H
  00819	66 3b c1	 cmp	 ax, cx
  0081c	0f 84 d0 00 00
	00		 je	 $LN8@Value
  00822	b9 21 1a 00 00	 mov	 ecx, 6689		; 00001a21H
  00827	66 3b c1	 cmp	 ax, cx
  0082a	0f 84 c2 00 00
	00		 je	 $LN8@Value
  00830	b9 22 1a 00 00	 mov	 ecx, 6690		; 00001a22H
  00835	66 3b c1	 cmp	 ax, cx
  00838	0f 84 b4 00 00
	00		 je	 $LN8@Value
  0083e	b9 23 1a 00 00	 mov	 ecx, 6691		; 00001a23H
  00843	66 3b c1	 cmp	 ax, cx
  00846	0f 84 a6 00 00
	00		 je	 $LN8@Value
  0084c	b9 24 1a 00 00	 mov	 ecx, 6692		; 00001a24H
  00851	66 3b c1	 cmp	 ax, cx
  00854	0f 84 98 00 00
	00		 je	 $LN8@Value
  0085a	b9 25 1a 00 00	 mov	 ecx, 6693		; 00001a25H
  0085f	66 3b c1	 cmp	 ax, cx
  00862	0f 84 8a 00 00
	00		 je	 $LN8@Value
  00868	b9 2d 1c 00 00	 mov	 ecx, 7213		; 00001c2dH
  0086d	66 3b c1	 cmp	 ax, cx
  00870	0f 84 7c 00 00
	00		 je	 $LN8@Value
  00876	b9 2e 1c 00 00	 mov	 ecx, 7214		; 00001c2eH
  0087b	66 3b c1	 cmp	 ax, cx
  0087e	74 72		 je	 SHORT $LN8@Value
  00880	b9 2f 1c 00 00	 mov	 ecx, 7215		; 00001c2fH
  00885	66 3b c1	 cmp	 ax, cx
  00888	74 68		 je	 SHORT $LN8@Value
  0088a	b9 30 1c 00 00	 mov	 ecx, 7216		; 00001c30H
  0088f	66 3b c1	 cmp	 ax, cx
  00892	74 5e		 je	 SHORT $LN8@Value
  00894	b9 31 1c 00 00	 mov	 ecx, 7217		; 00001c31H
  00899	66 3b c1	 cmp	 ax, cx
  0089c	74 54		 je	 SHORT $LN8@Value
  0089e	b9 32 1c 00 00	 mov	 ecx, 7218		; 00001c32H
  008a3	66 3b c1	 cmp	 ax, cx
  008a6	74 4a		 je	 SHORT $LN8@Value

; 1842 : 		this->m_SellMoney -= lc16;

  008a8	d9 43 24	 fld	 DWORD PTR [ebx+36]
  008ab	8b c2		 mov	 eax, edx
  008ad	d8 73 2c	 fdiv	 DWORD PTR [ebx+44]
  008b0	d9 e8		 fld1
  008b2	de e1		 fsubrp	 ST(1), ST(0)
  008b4	d9 5d f0	 fstp	 DWORD PTR tv1066[ebp]
  008b7	d9 45 f0	 fld	 DWORD PTR tv1066[ebp]
  008ba	89 45 f0	 mov	 DWORD PTR tv1062[ebp], eax
  008bd	db 45 f0	 fild	 DWORD PTR tv1062[ebp]
  008c0	85 c0		 test	 eax, eax
  008c2	79 06		 jns	 SHORT $LN304@Value
  008c4	dc 05 00 00 00
	00		 fadd	 QWORD PTR __real@41f0000000000000
$LN304@Value:

; 1839 : 	{
; 1840 : 		float lc15 = 1.0f-(this->m_Durability / this->m_BaseDurability);
; 1841 : 		int lc16 = this->m_SellMoney*0.6*lc15;

  008ca	dc 0d 00 00 00
	00		 fmul	 QWORD PTR __real@3fe3333333333333

; 1842 : 		this->m_SellMoney -= lc16;

  008d0	d9 7d fe	 fnstcw	 WORD PTR tv1061[ebp]
  008d3	0f b7 45 fe	 movzx	 eax, WORD PTR tv1061[ebp]
  008d7	de c9		 fmulp	 ST(1), ST(0)
  008d9	0d 00 0c 00 00	 or	 eax, 3072		; 00000c00H
  008de	89 45 f0	 mov	 DWORD PTR tv1058[ebp], eax
  008e1	d9 6d f0	 fldcw	 WORD PTR tv1058[ebp]
  008e4	df 7d e8	 fistp	 QWORD PTR tv1056[ebp]
  008e7	8b 4d e8	 mov	 ecx, DWORD PTR tv1056[ebp]
  008ea	2b d1		 sub	 edx, ecx
  008ec	89 53 60	 mov	 DWORD PTR [ebx+96], edx
  008ef	d9 6d fe	 fldcw	 WORD PTR tv1061[ebp]
$LN8@Value:

; 1843 : 	}
; 1844 : 
; 1845 : 	if ( this->m_SellMoney >= 1000 )

  008f2	8b 4b 60	 mov	 ecx, DWORD PTR [ebx+96]
  008f5	81 f9 e8 03 00
	00		 cmp	 ecx, 1000		; 000003e8H
  008fb	0f 82 d5 03 00
	00		 jb	 $LN6@Value

; 1846 : 	{
; 1847 : 		this->m_SellMoney = this->m_SellMoney/100*100;

  00901	b8 1f 85 eb 51	 mov	 eax, 1374389535		; 51eb851fH
  00906	f7 e1		 mul	 ecx
  00908	c1 ea 05	 shr	 edx, 5
  0090b	6b d2 64	 imul	 edx, 100		; 00000064H
  0090e	e9 d7 03 00 00	 jmp	 $LN310@Value
$LN71@Value:

; 1628 : 	}
; 1629 : 	else if ( this->m_Type == ITEMGET(14,45) ||
; 1630 : 		      this->m_Type == ITEMGET(14,46) ||
; 1631 : 			  this->m_Type == ITEMGET(14,47) ||
; 1632 : 			  this->m_Type == ITEMGET(14,48) ||
; 1633 : 			  this->m_Type == ITEMGET(14,49) ||
; 1634 : 			  this->m_Type == ITEMGET(14,50) )

  00913	ba 2d 1c 00 00	 mov	 edx, 7213		; 00001c2dH
  00918	66 3b c2	 cmp	 ax, dx
  0091b	0f 84 7f 03 00
	00		 je	 $LN68@Value
  00921	ba 2e 1c 00 00	 mov	 edx, 7214		; 00001c2eH
  00926	66 3b c2	 cmp	 ax, dx
  00929	0f 84 71 03 00
	00		 je	 $LN68@Value
  0092f	ba 2f 1c 00 00	 mov	 edx, 7215		; 00001c2fH
  00934	66 3b c2	 cmp	 ax, dx
  00937	0f 84 63 03 00
	00		 je	 $LN68@Value
  0093d	ba 30 1c 00 00	 mov	 edx, 7216		; 00001c30H
  00942	66 3b c2	 cmp	 ax, dx
  00945	0f 84 55 03 00
	00		 je	 $LN68@Value
  0094b	ba 31 1c 00 00	 mov	 edx, 7217		; 00001c31H
  00950	66 3b c2	 cmp	 ax, dx
  00953	0f 84 47 03 00
	00		 je	 $LN68@Value
  00959	ba 32 1c 00 00	 mov	 edx, 7218		; 00001c32H
  0095e	66 3b c2	 cmp	 ax, dx
  00961	0f 84 39 03 00
	00		 je	 $LN68@Value

; 1637 : 	}
; 1638 : 	else if ( this->m_Type == ITEMGET(12,26) )

  00967	ba 1a 18 00 00	 mov	 edx, 6170		; 0000181aH
  0096c	66 3b c2	 cmp	 ax, dx
  0096f	75 13		 jne	 SHORT $LN66@Value

; 1639 : 	{
; 1640 : 		switch ( this->m_Level )

  00971	39 75 fc	 cmp	 DWORD PTR tv1185[ebp], esi
  00974	0f 85 e3 fd ff
	ff		 jne	 $LN9@Value

; 1641 : 		{
; 1642 : 			case 0:
; 1643 : 				Gold = 60000;

  0097a	be 60 ea 00 00	 mov	 esi, 60000		; 0000ea60H

; 1644 : 				break;
; 1645 : 		}
; 1646 : 	}
; 1647 : 	else if ( p->Value > 0 )

  0097f	e9 d2 fd ff ff	 jmp	 $LN305@Value
$LN66@Value:
  00984	8b 55 f8	 mov	 edx, DWORD PTR _p$[ebp]
  00987	0f b7 52 3c	 movzx	 edx, WORD PTR [edx+60]
  0098b	66 85 d2	 test	 dx, dx
  0098e	0f 84 dd 00 00
	00		 je	 $LN61@Value

; 1648 : 	{
; 1649 : 		Gold += (p->Value * p->Value * 10)/12;

  00994	8b c2		 mov	 eax, edx
  00996	0f af c0	 imul	 eax, eax
  00999	8d 0c 80	 lea	 ecx, DWORD PTR [eax+eax*4]
  0099c	03 c9		 add	 ecx, ecx
  0099e	b8 ab aa aa 2a	 mov	 eax, 715827883		; 2aaaaaabH
  009a3	f7 e9		 imul	 ecx
  009a5	d1 fa		 sar	 edx, 1
  009a7	8b c2		 mov	 eax, edx
  009a9	c1 e8 1f	 shr	 eax, 31			; 0000001fH
  009ac	03 c2		 add	 eax, edx
  009ae	99		 cdq
  009af	8b f0		 mov	 esi, eax

; 1650 : 
; 1651 : 		if ( this->m_Type >= ITEMGET(14,0) && this->m_Type <= ITEMGET(14,8) )	// Potions + Antidote

  009b1	0f b7 43 06	 movzx	 eax, WORD PTR [ebx+6]
  009b5	b9 00 1c 00 00	 mov	 ecx, 7168		; 00001c00H
  009ba	8b fa		 mov	 edi, edx
  009bc	66 3b c1	 cmp	 ax, cx
  009bf	0f 8c 7e fd ff
	ff		 jl	 $LN97@Value
  009c5	0f b7 43 06	 movzx	 eax, WORD PTR [ebx+6]
  009c9	ba 08 1c 00 00	 mov	 edx, 7176		; 00001c08H
  009ce	66 3b c2	 cmp	 ax, dx
  009d1	0f 8f 6c fd ff
	ff		 jg	 $LN97@Value

; 1652 : 		{
; 1653 : 			if ( this->m_Level > 0 )

  009d7	0f b7 43 08	 movzx	 eax, WORD PTR [ebx+8]
  009db	66 85 c0	 test	 ax, ax
  009de	7e 28		 jle	 SHORT $LN59@Value

; 1654 : 			{
; 1655 : 				Gold *= (__int64)(pow(2.0f, Level)) ;

  009e0	8b 45 f0	 mov	 eax, DWORD PTR _Level$[ebp]
  009e3	d9 05 00 00 00
	00		 fld	 DWORD PTR __real@40000000
  009e9	50		 push	 eax
  009ea	51		 push	 ecx
  009eb	d9 1c 24	 fstp	 DWORD PTR [esp]
  009ee	e8 00 00 00 00	 call	 ??$_Pow_int@M@@YAMMH@Z	; _Pow_int<float>
  009f3	83 c4 08	 add	 esp, 8
  009f6	e8 00 00 00 00	 call	 __ftol2
  009fb	57		 push	 edi
  009fc	56		 push	 esi
  009fd	52		 push	 edx
  009fe	50		 push	 eax
  009ff	e8 00 00 00 00	 call	 __allmul
  00a04	8b f0		 mov	 esi, eax
  00a06	8b fa		 mov	 edi, edx
$LN59@Value:

; 1656 : 			}
; 1657 : 
; 1658 : 			Gold = Gold/10*10;
; 1659 : 			Gold *= (__int64)this->m_Durability;

  00a08	d9 43 24	 fld	 DWORD PTR [ebx+36]
  00a0b	e8 00 00 00 00	 call	 __ftol2
  00a10	6a 00		 push	 0
  00a12	6a 0a		 push	 10			; 0000000aH
  00a14	57		 push	 edi
  00a15	56		 push	 esi
  00a16	89 55 f0	 mov	 DWORD PTR tv1025[ebp], edx
  00a19	89 45 f4	 mov	 DWORD PTR tv1027[ebp], eax
  00a1c	e8 00 00 00 00	 call	 __alldiv
  00a21	52		 push	 edx
  00a22	50		 push	 eax
  00a23	8b 45 f0	 mov	 eax, DWORD PTR tv1025[ebp]
  00a26	50		 push	 eax
  00a27	8b 45 f4	 mov	 eax, DWORD PTR tv1027[ebp]
  00a2a	50		 push	 eax
  00a2b	e8 00 00 00 00	 call	 __allmul
  00a30	8b c8		 mov	 ecx, eax
  00a32	8b f2		 mov	 esi, edx
  00a34	0f a4 c2 02	 shld	 edx, eax, 2
  00a38	03 c0		 add	 eax, eax
  00a3a	03 c0		 add	 eax, eax
  00a3c	03 c1		 add	 eax, ecx
  00a3e	13 f2		 adc	 esi, edx
  00a40	8b ce		 mov	 ecx, esi
  00a42	0f a4 c1 01	 shld	 ecx, eax, 1

; 1660 : 			this->m_BuyMoney = Gold;
; 1661 : 			this->m_SellMoney = Gold/3;

  00a46	6a 00		 push	 0
  00a48	6a 03		 push	 3
  00a4a	03 c0		 add	 eax, eax
  00a4c	51		 push	 ecx
  00a4d	50		 push	 eax
  00a4e	89 43 64	 mov	 DWORD PTR [ebx+100], eax
  00a51	e8 00 00 00 00	 call	 __alldiv

; 1662 : 			this->m_SellMoney = this->m_SellMoney/10*10;

  00a56	8b c8		 mov	 ecx, eax
  00a58	b8 cd cc cc cc	 mov	 eax, -858993459		; cccccccdH
  00a5d	f7 e1		 mul	 ecx
  00a5f	c1 ea 03	 shr	 edx, 3
  00a62	8d 14 92	 lea	 edx, DWORD PTR [edx+edx*4]
  00a65	5e		 pop	 esi
  00a66	03 d2		 add	 edx, edx
  00a68	5f		 pop	 edi
  00a69	89 53 60	 mov	 DWORD PTR [ebx+96], edx
  00a6c	5b		 pop	 ebx

; 1861 : 	}
; 1862 : }

  00a6d	8b e5		 mov	 esp, ebp
  00a6f	5d		 pop	 ebp
  00a70	c3		 ret	 0
$LN61@Value:

; 1663 : 			return;
; 1664 : 		}
; 1665 : 	}
; 1666 : 	else if ( (Type == 12 && this->m_Type > ITEMGET(12,6)) || Type == 13 || Type == 15 )

  00a71	8b 75 f4	 mov	 esi, DWORD PTR _Type$[ebp]
  00a74	83 fe 0c	 cmp	 esi, 12			; 0000000cH
  00a77	75 6a		 jne	 SHORT $LN55@Value
  00a79	ba 06 18 00 00	 mov	 edx, 6150		; 00001806H
  00a7e	66 3b c2	 cmp	 ax, dx
  00a81	7e 6a		 jle	 SHORT $LN270@Value
$LN56@Value:

; 1667 : 	{
; 1668 : 		Gold = Level2*Level2*Level2+100;

  00a83	8b c1		 mov	 eax, ecx
  00a85	0f af c1	 imul	 eax, ecx
  00a88	0f af c1	 imul	 eax, ecx
  00a8b	83 c0 64	 add	 eax, 100		; 00000064H
  00a8e	99		 cdq
  00a8f	8b f0		 mov	 esi, eax

; 1669 : 
; 1670 : 		for (int u=0;u<this->m_SpecialNum;u++)

  00a91	0f b6 43 30	 movzx	 eax, BYTE PTR [ebx+48]
  00a95	8b fa		 mov	 edi, edx
  00a97	c7 45 f4 00 00
	00 00		 mov	 DWORD PTR _u$154825[ebp], 0
  00a9e	85 c0		 test	 eax, eax
  00aa0	0f 8e 9d fc ff
	ff		 jle	 $LN97@Value
  00aa6	8b 45 f4	 mov	 eax, DWORD PTR _u$154825[ebp]
  00aa9	8d a4 24 00 00
	00 00		 npad	 7
$LL54@Value:

; 1671 : 		{
; 1672 : 			switch ( this->m_Special[u] )

  00ab0	80 7c 03 31 55	 cmp	 BYTE PTR [ebx+eax+49], 85 ; 00000055H
  00ab5	75 1b		 jne	 SHORT $LN53@Value

; 1673 : 			{
; 1674 : 				case 0x55:
; 1675 : 					Gold += Gold*this->m_Option3;

  00ab7	0f b6 43 7a	 movzx	 eax, BYTE PTR [ebx+122]
  00abb	99		 cdq
  00abc	57		 push	 edi
  00abd	83 c0 01	 add	 eax, 1
  00ac0	56		 push	 esi
  00ac1	83 d2 00	 adc	 edx, 0
  00ac4	52		 push	 edx
  00ac5	50		 push	 eax
  00ac6	e8 00 00 00 00	 call	 __allmul
  00acb	8b f0		 mov	 esi, eax
  00acd	8b 45 f4	 mov	 eax, DWORD PTR _u$154825[ebp]
  00ad0	8b fa		 mov	 edi, edx
$LN53@Value:

; 1669 : 
; 1670 : 		for (int u=0;u<this->m_SpecialNum;u++)

  00ad2	0f b6 4b 30	 movzx	 ecx, BYTE PTR [ebx+48]
  00ad6	40		 inc	 eax
  00ad7	89 45 f4	 mov	 DWORD PTR _u$154825[ebp], eax
  00ada	3b c1		 cmp	 eax, ecx
  00adc	7c d2		 jl	 SHORT $LL54@Value

; 1676 : 			}
; 1677 : 		}
; 1678 : 	}
; 1679 : 	else

  00ade	e9 60 fc ff ff	 jmp	 $LN97@Value
$LN55@Value:

; 1663 : 			return;
; 1664 : 		}
; 1665 : 	}
; 1666 : 	else if ( (Type == 12 && this->m_Type > ITEMGET(12,6)) || Type == 13 || Type == 15 )

  00ae3	83 fe 0d	 cmp	 esi, 13			; 0000000dH
  00ae6	74 9b		 je	 SHORT $LN56@Value
  00ae8	83 fe 0f	 cmp	 esi, 15			; 0000000fH
  00aeb	74 96		 je	 SHORT $LN56@Value
$LN270@Value:

; 1680 : 	{
; 1681 : 		switch ( this->m_Level )

  00aed	8b 55 fc	 mov	 edx, DWORD PTR tv1185[ebp]
  00af0	83 c2 fb	 add	 edx, -5			; fffffffbH
  00af3	83 fa 08	 cmp	 edx, 8
  00af6	77 3b		 ja	 SHORT $LN46@Value
  00af8	ff 24 95 00 00
	00 00		 jmp	 DWORD PTR $LN317@Value[edx*4]
$LN45@Value:

; 1682 : 		{
; 1683 : 			case  5:	Level2 +=   4;	break;

  00aff	83 c1 04	 add	 ecx, 4
  00b02	eb 2f		 jmp	 SHORT $LN46@Value
$LN44@Value:

; 1684 : 			case  6:	Level2 +=  10;	break;

  00b04	83 c1 0a	 add	 ecx, 10			; 0000000aH
  00b07	eb 2a		 jmp	 SHORT $LN46@Value
$LN43@Value:

; 1685 : 			case  7:	Level2 +=  25;	break;

  00b09	83 c1 19	 add	 ecx, 25			; 00000019H
  00b0c	eb 25		 jmp	 SHORT $LN46@Value
$LN42@Value:

; 1686 : 			case  8:	Level2 +=  45;	break;

  00b0e	83 c1 2d	 add	 ecx, 45			; 0000002dH
  00b11	eb 20		 jmp	 SHORT $LN46@Value
$LN41@Value:

; 1687 : 			case  9:	Level2 +=  65;	break;

  00b13	83 c1 41	 add	 ecx, 65			; 00000041H
  00b16	eb 1b		 jmp	 SHORT $LN46@Value
$LN40@Value:

; 1688 : 			case 10:	Level2 +=  95;	break;

  00b18	83 c1 5f	 add	 ecx, 95			; 0000005fH
  00b1b	eb 16		 jmp	 SHORT $LN46@Value
$LN39@Value:

; 1689 : 			case 11:	Level2 += 135;	break;

  00b1d	81 c1 87 00 00
	00		 add	 ecx, 135		; 00000087H
  00b23	eb 0e		 jmp	 SHORT $LN46@Value
$LN38@Value:

; 1690 : 			case 12:	Level2 += 185;	break;

  00b25	81 c1 b9 00 00
	00		 add	 ecx, 185		; 000000b9H
  00b2b	eb 06		 jmp	 SHORT $LN46@Value
$LN37@Value:

; 1691 : 			case 13:	Level2 += 245;	break;

  00b2d	81 c1 f5 00 00
	00		 add	 ecx, 245		; 000000f5H
$LN46@Value:

; 1692 : 		}
; 1693 : 
; 1694 : 		if ( Type == 12 && this->m_Type <= ITEMGET(12,6) )	// Wings

  00b33	83 fe 0c	 cmp	 esi, 12			; 0000000cH
  00b36	75 1e		 jne	 SHORT $LN36@Value
  00b38	ba 06 18 00 00	 mov	 edx, 6150		; 00001806H
  00b3d	66 3b c2	 cmp	 ax, dx
  00b40	7f 14		 jg	 SHORT $LN36@Value

; 1695 : 		{
; 1696 : 			Gold = (Level2+40)*Level2*Level2*11+40000000;

  00b42	8d 41 28	 lea	 eax, DWORD PTR [ecx+40]
  00b45	0f af c1	 imul	 eax, ecx
  00b48	0f af c1	 imul	 eax, ecx
  00b4b	6b c0 0b	 imul	 eax, 11			; 0000000bH
  00b4e	05 00 5a 62 02	 add	 eax, 40000000		; 02625a00H
  00b53	99		 cdq

; 1697 : 		}
; 1698 : 		else

  00b54	eb 55		 jmp	 SHORT $LN306@Value
$LN36@Value:

; 1699 : 		{
; 1700 : 			Gold = (Level2+40)*Level2*Level2/8+100;

  00b56	8d 41 28	 lea	 eax, DWORD PTR [ecx+40]
  00b59	0f af c1	 imul	 eax, ecx
  00b5c	0f af c1	 imul	 eax, ecx
  00b5f	99		 cdq
  00b60	83 e2 07	 and	 edx, 7
  00b63	03 c2		 add	 eax, edx
  00b65	c1 f8 03	 sar	 eax, 3
  00b68	83 c0 64	 add	 eax, 100		; 00000064H

; 1701 : 		}
; 1702 : 
; 1703 : 		if ( Type >= 0 && Type <=  6 )

  00b6b	83 7d f4 00	 cmp	 DWORD PTR _Type$[ebp], 0
  00b6f	99		 cdq
  00b70	8b f0		 mov	 esi, eax
  00b72	8b fa		 mov	 edi, edx
  00b74	89 75 e8	 mov	 DWORD PTR _Gold$[ebp], esi
  00b77	89 7d ec	 mov	 DWORD PTR _Gold$[ebp+4], edi
  00b7a	7c 39		 jl	 SHORT $LN33@Value
  00b7c	83 7d f4 06	 cmp	 DWORD PTR _Type$[ebp], 6
  00b80	7f 33		 jg	 SHORT $LN33@Value

; 1704 : 		{
; 1705 : 			if ( p->TwoHand == 0 )

  00b82	8b 45 f8	 mov	 eax, DWORD PTR _p$[ebp]
  00b85	80 78 21 00	 cmp	 BYTE PTR [eax+33], 0
  00b89	75 2a		 jne	 SHORT $LN33@Value

; 1706 : 			{
; 1707 : 				Gold = Gold*80/100;

  00b8b	0f a4 f7 02	 shld	 edi, esi, 2
  00b8f	8b ce		 mov	 ecx, esi
  00b91	03 f6		 add	 esi, esi
  00b93	03 f6		 add	 esi, esi
  00b95	03 ce		 add	 ecx, esi
  00b97	13 d7		 adc	 edx, edi
  00b99	0f a4 ca 04	 shld	 edx, ecx, 4
  00b9d	6a 00		 push	 0
  00b9f	6a 64		 push	 100			; 00000064H
  00ba1	c1 e1 04	 shl	 ecx, 4
  00ba4	52		 push	 edx
  00ba5	51		 push	 ecx
  00ba6	e8 00 00 00 00	 call	 __alldiv
$LN306@Value:
  00bab	8b fa		 mov	 edi, edx
  00bad	8b f0		 mov	 esi, eax
  00baf	89 7d ec	 mov	 DWORD PTR _Gold$[ebp+4], edi
  00bb2	89 75 e8	 mov	 DWORD PTR _Gold$[ebp], esi
$LN33@Value:

; 1708 : 			}
; 1709 : 		}
; 1710 : 
; 1711 : 		for (int g=0;g<this->m_SpecialNum;g++)

  00bb5	0f b6 43 30	 movzx	 eax, BYTE PTR [ebx+48]
  00bb9	33 c9		 xor	 ecx, ecx
  00bbb	89 4d f4	 mov	 DWORD PTR _g$154852[ebp], ecx
  00bbe	85 c0		 test	 eax, eax
  00bc0	0f 8e 7d fb ff
	ff		 jle	 $LN97@Value
  00bc6	dd 05 00 00 00
	00		 fld	 QWORD PTR __real@4018000000000000
  00bcc	dd 05 00 00 00
	00		 fld	 QWORD PTR __real@4024000000000000
  00bd2	dd 05 00 00 00
	00		 fld	 QWORD PTR __real@402c000000000000
  00bd8	dd 05 00 00 00
	00		 fld	 QWORD PTR __real@403c000000000000
  00bde	dd 05 00 00 00
	00		 fld	 QWORD PTR __real@404c000000000000
  00be4	dd 05 00 00 00
	00		 fld	 QWORD PTR __real@4039000000000000
$LN277@Value:

; 1712 : 		{
; 1713 : 			switch ( this->m_Special[g] )

  00bea	0f b6 44 0b 31	 movzx	 eax, BYTE PTR [ebx+ecx+49]
  00bef	83 c0 ee	 add	 eax, -18		; ffffffeeH
  00bf2	83 f8 56	 cmp	 eax, 86			; 00000056H
  00bf5	0f 87 81 00 00
	00		 ja	 $LN31@Value
  00bfb	0f b6 80 00 00
	00 00		 movzx	 eax, BYTE PTR $LN272@Value[eax]
  00c02	ff 24 85 00 00
	00 00		 jmp	 DWORD PTR $LN318@Value[eax*4]
$LN27@Value:

; 1714 : 			{
; 1715 : 				case 18:
; 1716 : 				case 19:
; 1717 : 				case 20:
; 1718 : 				case 21:
; 1719 : 				case 22:
; 1720 : 				case 23:
; 1721 : 				case 24:
; 1722 : 				case 56:
; 1723 : 					Gold += (__int64)(Gold * 1.5);

  00c09	df 6d e8	 fild	 QWORD PTR _Gold$[ebp]
  00c0c	dc 0d 00 00 00
	00		 fmul	 QWORD PTR __real@3ff8000000000000

; 1724 : 					break;

  00c12	eb 59		 jmp	 SHORT $LN307@Value
$LN26@Value:

; 1725 : 
; 1726 : 				case 80:
; 1727 : 				case 81:
; 1728 : 				case 83:
; 1729 : 				case 85:
; 1730 : 
; 1731 : 					switch ( this->m_Option3 )

  00c14	0f b6 43 7a	 movzx	 eax, BYTE PTR [ebx+122]
  00c18	48		 dec	 eax
  00c19	83 f8 03	 cmp	 eax, 3
  00c1c	77 5e		 ja	 SHORT $LN31@Value
  00c1e	ff 24 85 00 00
	00 00		 jmp	 DWORD PTR $LN319@Value[eax*4]
$LN23@Value:

; 1732 : 					{
; 1733 : 						case 1:
; 1734 : 							Gold += (__int64)(Gold * 6.0 / 10.0);

  00c25	df 6d e8	 fild	 QWORD PTR _Gold$[ebp]
  00c28	d8 ce		 fmul	 ST(0), ST(6)
  00c2a	d8 f5		 fdiv	 ST(0), ST(5)

; 1735 : 							break;

  00c2c	eb 3f		 jmp	 SHORT $LN307@Value
$LN21@Value:

; 1736 : 
; 1737 : 						case 2:
; 1738 : 							Gold += (__int64)(Gold * 14.0 / 10.0);
; 1739 : 							break;
; 1740 : 
; 1741 : 						case 3:
; 1742 : 							Gold += (__int64)(Gold * 28.0 / 10.0);

  00c2e	df 6d e8	 fild	 QWORD PTR _Gold$[ebp]
  00c31	d8 cb		 fmul	 ST(0), ST(3)
  00c33	d8 f5		 fdiv	 ST(0), ST(5)

; 1743 : 							break;

  00c35	eb 36		 jmp	 SHORT $LN307@Value
$LN20@Value:

; 1744 : 
; 1745 : 						case 4:
; 1746 : 							Gold += (__int64)(Gold * 56.0 / 10.0);

  00c37	df 6d e8	 fild	 QWORD PTR _Gold$[ebp]
  00c3a	d8 ca		 fmul	 ST(0), ST(2)
  00c3c	d8 f5		 fdiv	 ST(0), ST(5)

; 1747 : 							break;
; 1748 : 					}
; 1749 : 					break;

  00c3e	eb 2d		 jmp	 SHORT $LN307@Value
$LN19@Value:

; 1750 : 
; 1751 : 				case 82:
; 1752 : 
; 1753 : 					switch ( this->m_Option3 )

  00c40	0f b6 43 7a	 movzx	 eax, BYTE PTR [ebx+122]
  00c44	48		 dec	 eax
  00c45	83 f8 03	 cmp	 eax, 3
  00c48	77 32		 ja	 SHORT $LN31@Value
  00c4a	ff 24 85 00 00
	00 00		 jmp	 DWORD PTR $LN320@Value[eax*4]
$LN15@Value:

; 1754 : 					{
; 1755 : 					case 1:
; 1756 : 							Gold += (__int64)(Gold * 6.0 / 10.0);
; 1757 : 							break;
; 1758 : 
; 1759 : 						case 2:
; 1760 : 							Gold += (__int64)(Gold * 14.0 / 10.0);

  00c51	df 6d e8	 fild	 QWORD PTR _Gold$[ebp]
  00c54	d8 cc		 fmul	 ST(0), ST(4)
  00c56	d8 f5		 fdiv	 ST(0), ST(5)

; 1761 : 							break;

  00c58	eb 13		 jmp	 SHORT $LN307@Value
$LN11@Value:

; 1762 : 
; 1763 : 						case 3:
; 1764 : 							Gold += (__int64)(Gold * 28.0 / 10.0);
; 1765 : 							break;
; 1766 : 
; 1767 : 						case 4:
; 1768 : 							Gold += (__int64)(Gold * 56.0 / 10.0);
; 1769 : 							break;
; 1770 : 					}
; 1771 : 					break;
; 1772 : 
; 1773 : 				case 84:
; 1774 : 					Gold += (__int64)(Gold * 25.0 / 100.0);
; 1775 : 					break;
; 1776 : 
; 1777 : 				case 86:
; 1778 : 				case 87:
; 1779 : 				case 88:
; 1780 : 				case 89:
; 1781 : 				case 90:
; 1782 : 				case 91:
; 1783 : 				case 92:
; 1784 : 				case 93:
; 1785 : 				case 94:
; 1786 : 				case 95:
; 1787 : 				case 96:
; 1788 : 				case 97:
; 1789 : 				case 98:
; 1790 : 				case 99:
; 1791 : 					Gold += Gold;

  00c5a	0f a4 f7 01	 shld	 edi, esi, 1
  00c5e	03 f6		 add	 esi, esi

; 1792 : 					break;

  00c60	eb 14		 jmp	 SHORT $LN308@Value
$LN10@Value:

; 1793 : 
; 1794 : 				case 100:
; 1795 : 				case 101:
; 1796 : 				case 102:
; 1797 : 				case 103:
; 1798 : 				case 104:
; 1799 : 					Gold += (__int64)(Gold * 25.0 / 100.0);

  00c62	df 6d e8	 fild	 QWORD PTR _Gold$[ebp]
  00c65	d8 c9		 fmul	 ST(0), ST(1)
  00c67	dc 35 00 00 00
	00		 fdiv	 QWORD PTR __real@4059000000000000
$LN307@Value:
  00c6d	e8 00 00 00 00	 call	 __ftol2
  00c72	03 f0		 add	 esi, eax
  00c74	13 fa		 adc	 edi, edx
$LN308@Value:
  00c76	89 7d ec	 mov	 DWORD PTR _Gold$[ebp+4], edi
  00c79	89 75 e8	 mov	 DWORD PTR _Gold$[ebp], esi
$LN31@Value:

; 1708 : 			}
; 1709 : 		}
; 1710 : 
; 1711 : 		for (int g=0;g<this->m_SpecialNum;g++)

  00c7c	8b 4d f4	 mov	 ecx, DWORD PTR _g$154852[ebp]
  00c7f	0f b6 43 30	 movzx	 eax, BYTE PTR [ebx+48]
  00c83	41		 inc	 ecx
  00c84	89 4d f4	 mov	 DWORD PTR _g$154852[ebp], ecx
  00c87	3b c8		 cmp	 ecx, eax
  00c89	0f 8c 5b ff ff
	ff		 jl	 $LN277@Value
  00c8f	dd dc		 fstp	 ST(4)
  00c91	dd dc		 fstp	 ST(4)
  00c93	dd d9		 fstp	 ST(1)
  00c95	dd d8		 fstp	 ST(0)
  00c97	dd d9		 fstp	 ST(1)
  00c99	dd d8		 fstp	 ST(0)
  00c9b	e9 a3 fa ff ff	 jmp	 $LN97@Value
$LN68@Value:

; 1635 : 	{
; 1636 : 		Gold = ((50.0f) * this->m_Durability) * 3.0f;

  00ca0	d9 43 24	 fld	 DWORD PTR [ebx+36]
  00ca3	dc 0d 00 00 00
	00		 fmul	 QWORD PTR __real@4049000000000000
  00ca9	e9 86 fa ff ff	 jmp	 $LN309@Value
$LN99@Value:

; 1564 : 	{
; 1565 : 		switch ( this->m_Level )

  00cae	8b 45 fc	 mov	 eax, DWORD PTR tv1185[ebp]
  00cb1	48		 dec	 eax
  00cb2	83 f8 06	 cmp	 eax, 6
  00cb5	0f 87 55 f8 ff
	ff		 ja	 $LN154@Value
  00cbb	ff 24 85 00 00
	00 00		 jmp	 DWORD PTR $LN321@Value[eax*4]
$LN93@Value:

; 1566 : 		{
; 1567 : 			case 1:
; 1568 : 				Gold = 15000;
; 1569 : 				break;
; 1570 : 			case 2:
; 1571 : 				Gold = 21000;
; 1572 : 				break;
; 1573 : 			case 3:
; 1574 : 				Gold = 30000;
; 1575 : 				break;
; 1576 : 			case 4:
; 1577 : 				Gold = 39000;

  00cc2	be 58 98 00 00	 mov	 esi, 39000		; 00009858H

; 1578 : 				break;

  00cc7	e9 8a fa ff ff	 jmp	 $LN305@Value
$LN92@Value:

; 1579 : 			case 5:
; 1580 : 				Gold = 48000;

  00ccc	be 80 bb 00 00	 mov	 esi, 48000		; 0000bb80H

; 1581 : 				break;

  00cd1	e9 80 fa ff ff	 jmp	 $LN305@Value
$LN6@Value:

; 1848 : 	}
; 1849 : 	else if ( this->m_SellMoney >= 100 )

  00cd6	83 f9 64	 cmp	 ecx, 100		; 00000064H
  00cd9	72 12		 jb	 SHORT $LN4@Value

; 1850 : 	{
; 1851 : 		this->m_SellMoney = this->m_SellMoney/10*10;

  00cdb	b8 cd cc cc cc	 mov	 eax, -858993459		; cccccccdH
  00ce0	f7 e1		 mul	 ecx
  00ce2	c1 ea 03	 shr	 edx, 3
  00ce5	8d 14 92	 lea	 edx, DWORD PTR [edx+edx*4]
  00ce8	03 d2		 add	 edx, edx
$LN310@Value:
  00cea	89 53 60	 mov	 DWORD PTR [ebx+96], edx
$LN4@Value:

; 1852 : 	}
; 1853 : 
; 1854 : 	if ( this->m_BuyMoney >= 1000 )

  00ced	81 fe e8 03 00
	00		 cmp	 esi, 1000		; 000003e8H
  00cf3	72 17		 jb	 SHORT $LN3@Value

; 1855 : 	{
; 1856 : 		this->m_BuyMoney = this->m_BuyMoney/100*100;

  00cf5	b8 1f 85 eb 51	 mov	 eax, 1374389535		; 51eb851fH
  00cfa	f7 e6		 mul	 esi
  00cfc	c1 ea 05	 shr	 edx, 5
  00cff	6b d2 64	 imul	 edx, 100		; 00000064H
  00d02	5e		 pop	 esi
  00d03	5f		 pop	 edi
  00d04	89 53 64	 mov	 DWORD PTR [ebx+100], edx
  00d07	5b		 pop	 ebx

; 1861 : 	}
; 1862 : }

  00d08	8b e5		 mov	 esp, ebp
  00d0a	5d		 pop	 ebp
  00d0b	c3		 ret	 0
$LN3@Value:

; 1857 : 	}
; 1858 : 	else if ( this->m_BuyMoney >= 100 )

  00d0c	83 fe 64	 cmp	 esi, 100		; 00000064H
  00d0f	72 12		 jb	 SHORT $LN279@Value

; 1859 : 	{
; 1860 : 		this->m_BuyMoney = this->m_BuyMoney/10*10;

  00d11	b8 cd cc cc cc	 mov	 eax, -858993459		; cccccccdH
  00d16	f7 e6		 mul	 esi
  00d18	c1 ea 03	 shr	 edx, 3
  00d1b	8d 04 92	 lea	 eax, DWORD PTR [edx+edx*4]
  00d1e	03 c0		 add	 eax, eax
  00d20	89 43 64	 mov	 DWORD PTR [ebx+100], eax
$LN279@Value:
  00d23	5e		 pop	 esi
$LN278@Value:
  00d24	5f		 pop	 edi
$LN1@Value:
  00d25	5b		 pop	 ebx

; 1861 : 	}
; 1862 : }

  00d26	8b e5		 mov	 esp, ebp
  00d28	5d		 pop	 ebp
  00d29	c3		 ret	 0
  00d2a	8b ff		 npad	 2
$LN313@Value:
  00d2c	00 00 00 00	 DD	 $LN154@Value
  00d30	00 00 00 00	 DD	 $LN142@Value
  00d34	00 00 00 00	 DD	 $LN152@Value
  00d38	00 00 00 00	 DD	 $LN151@Value
  00d3c	00 00 00 00	 DD	 $LN132@Value
  00d40	00 00 00 00	 DD	 $LN149@Value
$LN314@Value:
  00d44	00 00 00 00	 DD	 $LN154@Value
  00d48	00 00 00 00	 DD	 $LN142@Value
  00d4c	00 00 00 00	 DD	 $LN152@Value
  00d50	00 00 00 00	 DD	 $LN151@Value
  00d54	00 00 00 00	 DD	 $LN132@Value
  00d58	00 00 00 00	 DD	 $LN149@Value
$LN315@Value:
  00d5c	00 00 00 00	 DD	 $LN132@Value
  00d60	00 00 00 00	 DD	 $LN131@Value
  00d64	00 00 00 00	 DD	 $LN130@Value
  00d68	00 00 00 00	 DD	 $LN129@Value
  00d6c	00 00 00 00	 DD	 $LN128@Value
  00d70	00 00 00 00	 DD	 $LN127@Value
$LN316@Value:
  00d74	00 00 00 00	 DD	 $LN109@Value
  00d78	00 00 00 00	 DD	 $LN108@Value
  00d7c	00 00 00 00	 DD	 $LN107@Value
  00d80	00 00 00 00	 DD	 $LN106@Value
  00d84	00 00 00 00	 DD	 $LN105@Value
  00d88	00 00 00 00	 DD	 $LN104@Value
  00d8c	00 00 00 00	 DD	 $LN103@Value
$LN317@Value:
  00d90	00 00 00 00	 DD	 $LN45@Value
  00d94	00 00 00 00	 DD	 $LN44@Value
  00d98	00 00 00 00	 DD	 $LN43@Value
  00d9c	00 00 00 00	 DD	 $LN42@Value
  00da0	00 00 00 00	 DD	 $LN41@Value
  00da4	00 00 00 00	 DD	 $LN40@Value
  00da8	00 00 00 00	 DD	 $LN39@Value
  00dac	00 00 00 00	 DD	 $LN38@Value
  00db0	00 00 00 00	 DD	 $LN37@Value
$LN318@Value:
  00db4	00 00 00 00	 DD	 $LN27@Value
  00db8	00 00 00 00	 DD	 $LN26@Value
  00dbc	00 00 00 00	 DD	 $LN19@Value
  00dc0	00 00 00 00	 DD	 $LN10@Value
  00dc4	00 00 00 00	 DD	 $LN11@Value
  00dc8	00 00 00 00	 DD	 $LN31@Value
$LN272@Value:
  00dcc	00		 DB	 0
  00dcd	00		 DB	 0
  00dce	00		 DB	 0
  00dcf	00		 DB	 0
  00dd0	00		 DB	 0
  00dd1	00		 DB	 0
  00dd2	00		 DB	 0
  00dd3	05		 DB	 5
  00dd4	05		 DB	 5
  00dd5	05		 DB	 5
  00dd6	05		 DB	 5
  00dd7	05		 DB	 5
  00dd8	05		 DB	 5
  00dd9	05		 DB	 5
  00dda	05		 DB	 5
  00ddb	05		 DB	 5
  00ddc	05		 DB	 5
  00ddd	05		 DB	 5
  00dde	05		 DB	 5
  00ddf	05		 DB	 5
  00de0	05		 DB	 5
  00de1	05		 DB	 5
  00de2	05		 DB	 5
  00de3	05		 DB	 5
  00de4	05		 DB	 5
  00de5	05		 DB	 5
  00de6	05		 DB	 5
  00de7	05		 DB	 5
  00de8	05		 DB	 5
  00de9	05		 DB	 5
  00dea	05		 DB	 5
  00deb	05		 DB	 5
  00dec	05		 DB	 5
  00ded	05		 DB	 5
  00dee	05		 DB	 5
  00def	05		 DB	 5
  00df0	05		 DB	 5
  00df1	05		 DB	 5
  00df2	00		 DB	 0
  00df3	05		 DB	 5
  00df4	05		 DB	 5
  00df5	05		 DB	 5
  00df6	05		 DB	 5
  00df7	05		 DB	 5
  00df8	05		 DB	 5
  00df9	05		 DB	 5
  00dfa	05		 DB	 5
  00dfb	05		 DB	 5
  00dfc	05		 DB	 5
  00dfd	05		 DB	 5
  00dfe	05		 DB	 5
  00dff	05		 DB	 5
  00e00	05		 DB	 5
  00e01	05		 DB	 5
  00e02	05		 DB	 5
  00e03	05		 DB	 5
  00e04	05		 DB	 5
  00e05	05		 DB	 5
  00e06	05		 DB	 5
  00e07	05		 DB	 5
  00e08	05		 DB	 5
  00e09	05		 DB	 5
  00e0a	01		 DB	 1
  00e0b	01		 DB	 1
  00e0c	02		 DB	 2
  00e0d	01		 DB	 1
  00e0e	03		 DB	 3
  00e0f	01		 DB	 1
  00e10	04		 DB	 4
  00e11	04		 DB	 4
  00e12	04		 DB	 4
  00e13	04		 DB	 4
  00e14	04		 DB	 4
  00e15	04		 DB	 4
  00e16	04		 DB	 4
  00e17	04		 DB	 4
  00e18	04		 DB	 4
  00e19	04		 DB	 4
  00e1a	04		 DB	 4
  00e1b	04		 DB	 4
  00e1c	04		 DB	 4
  00e1d	04		 DB	 4
  00e1e	03		 DB	 3
  00e1f	03		 DB	 3
  00e20	03		 DB	 3
  00e21	03		 DB	 3
  00e22	03		 DB	 3
  00e23	90		 npad	 1
$LN319@Value:
  00e24	00 00 00 00	 DD	 $LN23@Value
  00e28	00 00 00 00	 DD	 $LN15@Value
  00e2c	00 00 00 00	 DD	 $LN21@Value
  00e30	00 00 00 00	 DD	 $LN20@Value
$LN320@Value:
  00e34	00 00 00 00	 DD	 $LN23@Value
  00e38	00 00 00 00	 DD	 $LN15@Value
  00e3c	00 00 00 00	 DD	 $LN21@Value
  00e40	00 00 00 00	 DD	 $LN20@Value
$LN321@Value:
  00e44	00 00 00 00	 DD	 $LN154@Value
  00e48	00 00 00 00	 DD	 $LN142@Value
  00e4c	00 00 00 00	 DD	 $LN152@Value
  00e50	00 00 00 00	 DD	 $LN93@Value
  00e54	00 00 00 00	 DD	 $LN92@Value
  00e58	00 00 00 00	 DD	 $LN132@Value
  00e5c	00 00 00 00	 DD	 $LN149@Value
?Value@CItem@@QAEXXZ ENDP				; CItem::Value
_TEXT	ENDS
PUBLIC	__real@3e4ccccd
PUBLIC	__real@3e99999a
PUBLIC	__real@3f000000
PUBLIC	__real@3fc99999a0000000
PUBLIC	__real@3fd3333340000000
PUBLIC	__real@3fe0000000000000
PUBLIC	??_C@_0BO@NENAGJKH@error?9L1?5?3?5ItemIndex?5error?5?$CFd?$AA@ ; `string'
PUBLIC	?Convert@CItem@@QAEXHEEEEEEE@Z			; CItem::Convert
EXTRN	?gServerInfo@@3VCServerInfo@@A:BYTE		; gServerInfo
EXTRN	?IsSetItem@CSetItemOption@@QAEHH@Z:PROC		; CSetItemOption::IsSetItem
EXTRN	?gSetItemOption@@3VCSetItemOption@@A:BYTE	; gSetItemOption
;	COMDAT __real@3e4ccccd
CONST	SEGMENT
__real@3e4ccccd DD 03e4ccccdr			; 0.2
CONST	ENDS
;	COMDAT __real@3e99999a
CONST	SEGMENT
__real@3e99999a DD 03e99999ar			; 0.3
CONST	ENDS
;	COMDAT __real@3f000000
CONST	SEGMENT
__real@3f000000 DD 03f000000r			; 0.5
CONST	ENDS
;	COMDAT __real@3fc99999a0000000
CONST	SEGMENT
__real@3fc99999a0000000 DQ 03fc99999a0000000r	; 0.2
CONST	ENDS
;	COMDAT __real@3fd3333340000000
CONST	SEGMENT
__real@3fd3333340000000 DQ 03fd3333340000000r	; 0.3
CONST	ENDS
;	COMDAT __real@3fe0000000000000
CONST	SEGMENT
__real@3fe0000000000000 DQ 03fe0000000000000r	; 0.5
CONST	ENDS
;	COMDAT ??_C@_0BO@NENAGJKH@error?9L1?5?3?5ItemIndex?5error?5?$CFd?$AA@
CONST	SEGMENT
??_C@_0BO@NENAGJKH@error?9L1?5?3?5ItemIndex?5error?5?$CFd?$AA@ DB 'error-'
	DB	'L1 : ItemIndex error %d', 00H		; `string'
; Function compile flags: /Ogtp
CONST	ENDS
;	COMDAT ?Convert@CItem@@QAEXHEEEEEEE@Z
_TEXT	SEGMENT
tv3364 = -4						; size = 4
tv3124 = -4						; size = 4
tv3120 = -4						; size = 4
tv3116 = -4						; size = 4
__type$ = 8						; size = 4
_type$ = 8						; size = 4
_Option1$ = 12						; size = 1
_Option2$ = 16						; size = 1
_Option3$ = 20						; size = 1
tv3138 = 24						; size = 4
tv3128 = 24						; size = 4
tv3117 = 24						; size = 4
tv3103 = 24						; size = 4
tv3061 = 24						; size = 4
_Attribute2$ = 24					; size = 1
tv3137 = 26						; size = 2
tv3127 = 26						; size = 2
tv3115 = 26						; size = 2
tv3102 = 26						; size = 2
tv3263 = 27						; size = 1
_iChaosItem$ = 28					; size = 4
_SetOption$ = 28					; size = 1
_ItemEffectEx$ = 32					; size = 1
tv3133 = 36						; size = 4
tv3131 = 36						; size = 4
tv3123 = 36						; size = 4
tv3121 = 36						; size = 4
tv3112 = 36						; size = 4
tv3109 = 36						; size = 4
tv3098 = 36						; size = 4
tv3096 = 36						; size = 4
tv3051 = 36						; size = 4
_DbVersion$ = 36					; size = 1
?Convert@CItem@@QAEXHEEEEEEE@Z PROC			; CItem::Convert, COMDAT
; _this$ = ecx

; 83   : {

  00000	55		 push	 ebp
  00001	8b ec		 mov	 ebp, esp
  00003	51		 push	 ecx
  00004	53		 push	 ebx
  00005	56		 push	 esi
  00006	57		 push	 edi

; 84   : 	int _type;
; 85   : 	int ItemLevel;
; 86   : 	LPITEM_ATTRIBUTE p;
; 87   : 	int SOption;
; 88   : 	int SOptionStatValue;
; 89   : 	int iChaosItem;
; 90   : 	int i;
; 91   : 	
; 92   : 	_type = type;

  00007	8b 7d 08	 mov	 edi, DWORD PTR _type$[ebp]
  0000a	8b f1		 mov	 esi, ecx

; 93   : 
; 94   : 	if ( (DbVersion ) == 0)

  0000c	8a 4d 24	 mov	 cl, BYTE PTR _DbVersion$[ebp]
  0000f	8b df		 mov	 ebx, edi
  00011	89 5d 08	 mov	 DWORD PTR __type$[ebp], ebx
  00014	84 c9		 test	 cl, cl
  00016	75 21		 jne	 SHORT $LN268@Convert

; 95   : 	{
; 96   : 		_type=(type/MAX_TYPE_ITEMS*MAX_SUBTYPE_ITEMS)+(type % MAX_TYPE_ITEMS);

  00018	8b c7		 mov	 eax, edi
  0001a	99		 cdq
  0001b	83 e2 0f	 and	 edx, 15			; 0000000fH
  0001e	8d 1c 02	 lea	 ebx, DWORD PTR [edx+eax]
  00021	c1 fb 04	 sar	 ebx, 4
  00024	8b c7		 mov	 eax, edi
  00026	c1 e3 09	 shl	 ebx, 9
  00029	25 0f 00 00 80	 and	 eax, -2147483633	; 8000000fH
  0002e	79 05		 jns	 SHORT $LN352@Convert
  00030	48		 dec	 eax
  00031	83 c8 f0	 or	 eax, -16		; fffffff0H
  00034	40		 inc	 eax
$LN352@Convert:
  00035	03 d8		 add	 ebx, eax
  00037	eb 25		 jmp	 SHORT $LN354@Convert
$LN268@Convert:

; 97   : 
; 98   : 	}
; 99   : 	else if ( DbVersion <= 2 )

  00039	80 f9 02	 cmp	 cl, 2
  0003c	77 23		 ja	 SHORT $LN266@Convert

; 100  : 	{
; 101  : 		_type = (type/32*MAX_SUBTYPE_ITEMS) + (type % 32 );

  0003e	8b c7		 mov	 eax, edi
  00040	99		 cdq
  00041	83 e2 1f	 and	 edx, 31			; 0000001fH
  00044	8d 1c 02	 lea	 ebx, DWORD PTR [edx+eax]
  00047	c1 fb 05	 sar	 ebx, 5
  0004a	8b d7		 mov	 edx, edi
  0004c	c1 e3 09	 shl	 ebx, 9
  0004f	81 e2 1f 00 00
	80		 and	 edx, -2147483617	; 8000001fH
  00055	79 05		 jns	 SHORT $LN353@Convert
  00057	4a		 dec	 edx
  00058	83 ca e0	 or	 edx, -32		; ffffffe0H
  0005b	42		 inc	 edx
$LN353@Convert:
  0005c	03 da		 add	 ebx, edx
$LN354@Convert:
  0005e	89 5d 08	 mov	 DWORD PTR __type$[ebp], ebx
$LN266@Convert:

; 102  : 	}
; 103  : 	
; 104  : 	if ( _type >MAX_ITEMS-1)

  00061	81 fb ff 1f 00
	00		 cmp	 ebx, 8191		; 00001fffH
  00067	7e 13		 jle	 SHORT $LN265@Convert

; 105  : 	{
; 106  : 		LogAdd(LOG_RED,  "error-L1 : ItemIndex error %d", _type);

  00069	53		 push	 ebx
  0006a	68 00 00 00 00	 push	 OFFSET ??_C@_0BO@NENAGJKH@error?9L1?5?3?5ItemIndex?5error?5?$CFd?$AA@
  0006f	6a 01		 push	 1
  00071	e8 00 00 00 00	 call	 ?LogAdd@@YAXW4eLogColor@@PADZZ ; LogAdd
  00076	8a 4d 24	 mov	 cl, BYTE PTR _DbVersion$[ebp]
  00079	83 c4 0c	 add	 esp, 12			; 0000000cH
$LN265@Convert:

; 107  : 	}
; 108  : 	
; 109  : 	p=&ItemAttribute[_type];

  0007c	8b c3		 mov	 eax, ebx
  0007e	6b c0 6c	 imul	 eax, 108		; 0000006cH

; 110  : 	this->m_serial=ItemAttribute[_type].Serial ;

  00081	8a 90 25 00 00
	00		 mov	 dl, BYTE PTR ?ItemAttribute@@3PAUITEM_ATTRIBUTE@@A[eax+37]
  00087	89 45 24	 mov	 DWORD PTR tv3051[ebp], eax
  0008a	88 56 04	 mov	 BYTE PTR [esi+4], dl

; 111  : 	this->m_Type=type;

  0008d	66 89 7e 06	 mov	 WORD PTR [esi+6], di

; 112  : 	
; 113  : 	if ( (DbVersion ) <= 2)

  00091	80 f9 02	 cmp	 cl, 2
  00094	77 04		 ja	 SHORT $LN264@Convert

; 114  : 	{
; 115  : 		this->m_Type=_type;

  00096	66 89 5e 06	 mov	 WORD PTR [esi+6], bx
$LN264@Convert:

; 116  : 	}
; 117  : 
; 118  : 	this->m_NewOption =Attribute2;

  0009a	8a 4d 18	 mov	 cl, BYTE PTR _Attribute2$[ebp]
  0009d	88 4e 7b	 mov	 BYTE PTR [esi+123], cl

; 119  : 	
; 120  : 	if (p->OptionFlag  == 0)

  000a0	80 b8 26 00 00
	00 00		 cmp	 BYTE PTR ?ItemAttribute@@3PAUITEM_ATTRIBUTE@@A[eax+38], 0
  000a7	75 04		 jne	 SHORT $LN263@Convert

; 121  : 	{
; 122  : 		this->m_NewOption=0;

  000a9	c6 46 7b 00	 mov	 BYTE PTR [esi+123], 0
$LN263@Convert:

; 123  : 	}
; 124  : 
; 125  : 	if(((_type >= ITEMGET(12,0) ) && (_type <= ITEMGET(12,6) ) ) || (_type == ITEMGET(13,30)) || NEWWINGS(_type))

  000ad	81 fb 00 18 00
	00		 cmp	 ebx, 6144		; 00001800H
  000b3	7c 08		 jl	 SHORT $LN260@Convert
  000b5	81 fb 06 18 00
	00		 cmp	 ebx, 6150		; 00001806H
  000bb	7e 1f		 jle	 SHORT $LN261@Convert
$LN260@Convert:
  000bd	81 fb 1e 1a 00
	00		 cmp	 ebx, 6686		; 00001a1eH
  000c3	74 17		 je	 SHORT $LN261@Convert
  000c5	81 fb 64 18 00
	00		 cmp	 ebx, 6244		; 00001864H
  000cb	7c 13		 jl	 SHORT $LN262@Convert
  000cd	33 c0		 xor	 eax, eax
  000cf	81 fb 7d 18 00
	00		 cmp	 ebx, 6269		; 0000187dH
  000d5	0f 9e c0	 setle	 al
  000d8	85 c0		 test	 eax, eax
  000da	74 04		 je	 SHORT $LN262@Convert
$LN261@Convert:

; 126  : 	{
; 127  : 		Attribute2=0;

  000dc	c6 45 18 00	 mov	 BYTE PTR _Attribute2$[ebp], 0
$LN262@Convert:

; 128  : 	}
; 129  : 
; 130  : 	if ( _type == ITEMGET(13,37) )

  000e0	81 fb 25 1a 00
	00		 cmp	 ebx, 6693		; 00001a25H
  000e6	75 04		 jne	 SHORT $LN259@Convert

; 131  : 		Attribute2 = 0;

  000e8	c6 45 18 00	 mov	 BYTE PTR _Attribute2$[ebp], 0
$LN259@Convert:

; 132  : 
; 133  : 	SetOption = SetOption & 15;

  000ec	8a 5d 1c	 mov	 bl, BYTE PTR _SetOption$[ebp]
  000ef	80 e3 0f	 and	 bl, 15			; 0000000fH

; 134  : 		
; 135  : 	SOption=SetOption & 3;

  000f2	0f b6 fb	 movzx	 edi, bl
  000f5	83 e7 03	 and	 edi, 3

; 136  : 	SOptionStatValue=0;
; 137  : 
; 138  : 	if (SOption != 1 && SOption != 2)

  000f8	83 ff 01	 cmp	 edi, 1
  000fb	74 07		 je	 SHORT $LN299@Convert
  000fd	83 ff 02	 cmp	 edi, 2
  00100	74 02		 je	 SHORT $LN299@Convert

; 139  : 	{
; 140  : 		SOption=0;

  00102	33 ff		 xor	 edi, edi
$LN299@Convert:

; 141  : 	}
; 142  : 
; 143  : 	if ( (( (SetOption>>2) & 3) != 1) && ( ((SetOption>>2) & 3) != 2) )

  00104	8a c3		 mov	 al, bl
  00106	c0 e8 02	 shr	 al, 2
  00109	24 03		 and	 al, 3
  0010b	3c 01		 cmp	 al, 1
  0010d	74 06		 je	 SHORT $LN257@Convert
  0010f	3c 02		 cmp	 al, 2
  00111	74 02		 je	 SHORT $LN257@Convert

; 144  : 	{
; 145  : 		SOption=0;

  00113	33 ff		 xor	 edi, edi
$LN257@Convert:

; 146  : 	}
; 147  : 
; 148  : 	if ( gSetItemOption.IsSetItem(_type) != 0 && SetOption != 255 && SOption != 0)

  00115	8b 55 08	 mov	 edx, DWORD PTR __type$[ebp]
  00118	52		 push	 edx
  00119	b9 00 00 00 00	 mov	 ecx, OFFSET ?gSetItemOption@@3VCSetItemOption@@A ; gSetItemOption
  0011e	e8 00 00 00 00	 call	 ?IsSetItem@CSetItemOption@@QAEHH@Z ; CSetItemOption::IsSetItem
  00123	85 c0		 test	 eax, eax
  00125	74 26		 je	 SHORT $LN300@Convert
  00127	80 fb ff	 cmp	 bl, 255			; 000000ffH
  0012a	74 21		 je	 SHORT $LN300@Convert
  0012c	85 ff		 test	 edi, edi
  0012e	74 1d		 je	 SHORT $LN300@Convert

; 149  : 	{
; 150  : 		this->m_SetOption = SetOption;

  00130	88 9e 92 00 00
	00		 mov	 BYTE PTR [esi+146], bl

; 151  : 		// ---
; 152  : 		if(this->m_SetOption != 0 && gServerInfo.m_Data.iAncientAndExcellent == 0)

  00136	84 db		 test	 bl, bl
  00138	74 1a		 je	 SHORT $LN301@Convert
  0013a	83 3d 7c 00 00
	00 00		 cmp	 DWORD PTR ?gServerInfo@@3VCServerInfo@@A+124, 0
  00141	75 11		 jne	 SHORT $LN301@Convert

; 153  : 		{
; 154  : 			this->m_NewOption = 0;

  00143	c6 46 7b 00	 mov	 BYTE PTR [esi+123], 0

; 155  : 			Attribute2 = 0;

  00147	c6 45 18 00	 mov	 BYTE PTR _Attribute2$[ebp], 0

; 156  : 		}
; 157  : 	}
; 158  : 	else

  0014b	eb 07		 jmp	 SHORT $LN301@Convert
$LN300@Convert:

; 159  : 	{
; 160  : 		this->m_SetOption = 0;

  0014d	c6 86 92 00 00
	00 00		 mov	 BYTE PTR [esi+146], 0
$LN301@Convert:

; 161  : 	}
; 162  : 	
; 163  : 	memset( this->m_SkillResistance , 0, sizeof(this->m_SkillResistance) );

  00154	33 c0		 xor	 eax, eax
  00156	89 86 95 00 00
	00		 mov	 DWORD PTR [esi+149], eax
  0015c	66 89 86 99 00
	00 00		 mov	 WORD PTR [esi+153], ax
  00163	88 86 9b 00 00
	00		 mov	 BYTE PTR [esi+155], al

; 164  : 	
; 165  : 	if ( _type == ITEMGET(0,19) || _type == ITEMGET(4,18) || _type == ITEMGET(5,10) || _type == ITEMGET(2,13))

  00169	8b 45 08	 mov	 eax, DWORD PTR __type$[ebp]
  0016c	83 f8 13	 cmp	 eax, 19			; 00000013H
  0016f	74 15		 je	 SHORT $LN252@Convert
  00171	3d 12 08 00 00	 cmp	 eax, 2066		; 00000812H
  00176	74 0e		 je	 SHORT $LN252@Convert
  00178	3d 0a 0a 00 00	 cmp	 eax, 2570		; 00000a0aH
  0017d	74 07		 je	 SHORT $LN252@Convert
  0017f	3d 0d 04 00 00	 cmp	 eax, 1037		; 0000040dH
  00184	75 04		 jne	 SHORT $LN253@Convert
$LN252@Convert:

; 166  : 	{
; 167  : 		Attribute2=0;

  00186	c6 45 18 00	 mov	 BYTE PTR _Attribute2$[ebp], 0
$LN253@Convert:

; 168  : 	}
; 169  : 
; 170  : 	iChaosItem = 0;
; 171  : 
; 172  : 	if ( this->m_Type == ITEMGET(2,6) )

  0018a	0f b7 46 06	 movzx	 eax, WORD PTR [esi+6]
  0018e	b9 06 04 00 00	 mov	 ecx, 1030		; 00000406H
  00193	c7 45 1c 00 00
	00 00		 mov	 DWORD PTR _iChaosItem$[ebp], 0
  0019a	66 3b c1	 cmp	 ax, cx
  0019d	75 09		 jne	 SHORT $LN251@Convert

; 173  : 	{
; 174  : 		iChaosItem = 15;

  0019f	c7 45 1c 0f 00
	00 00		 mov	 DWORD PTR _iChaosItem$[ebp], 15 ; 0000000fH
  001a6	eb 24		 jmp	 SHORT $LN247@Convert
$LN251@Convert:

; 175  : 	}
; 176  : 	else if ( this->m_Type == ITEMGET(5,7) )

  001a8	ba 07 0a 00 00	 mov	 edx, 2567		; 00000a07H
  001ad	66 3b c2	 cmp	 ax, dx
  001b0	75 09		 jne	 SHORT $LN249@Convert

; 177  : 	{
; 178  : 		iChaosItem = 25;

  001b2	c7 45 1c 19 00
	00 00		 mov	 DWORD PTR _iChaosItem$[ebp], 25 ; 00000019H
  001b9	eb 11		 jmp	 SHORT $LN247@Convert
$LN249@Convert:

; 179  : 	}
; 180  : 	else if ( this->m_Type == ITEMGET(4,6) )

  001bb	b9 06 08 00 00	 mov	 ecx, 2054		; 00000806H
  001c0	66 3b c1	 cmp	 ax, cx
  001c3	75 07		 jne	 SHORT $LN247@Convert

; 181  : 	{
; 182  : 		iChaosItem = 30;

  001c5	c7 45 1c 1e 00
	00 00		 mov	 DWORD PTR _iChaosItem$[ebp], 30 ; 0000001eH
$LN247@Convert:

; 183  : 	}
; 184  : 
; 185  : 	if ( ItemGetDurability(this->m_Type, 0, 0, 0) != 0 )

  001cc	6a 00		 push	 0
  001ce	0f bf f8	 movsx	 edi, ax
  001d1	6a 00		 push	 0
  001d3	6a 00		 push	 0
  001d5	57		 push	 edi
  001d6	e8 00 00 00 00	 call	 ?ItemGetDurability@@YAHHHHH@Z ; ItemGetDurability
  001db	83 c4 10	 add	 esp, 16			; 00000010H
  001de	d9 ee		 fldz
  001e0	85 c0		 test	 eax, eax
  001e2	74 29		 je	 SHORT $LN246@Convert

; 186  : 	{
; 187  : 		this->m_BaseDurability = (float)ItemGetDurability(this->m_Type, this->m_Level, Attribute2 & 0x7F, this->m_SetOption );

  001e4	0f b6 96 92 00
	00 00		 movzx	 edx, BYTE PTR [esi+146]
  001eb	0f b6 45 18	 movzx	 eax, BYTE PTR _Attribute2$[ebp]
  001ef	0f bf 4e 08	 movsx	 ecx, WORD PTR [esi+8]
  001f3	52		 push	 edx
  001f4	83 e0 7f	 and	 eax, 127		; 0000007fH
  001f7	50		 push	 eax
  001f8	51		 push	 ecx
  001f9	57		 push	 edi
  001fa	e8 00 00 00 00	 call	 ?ItemGetDurability@@YAHHHHH@Z ; ItemGetDurability
  001ff	89 45 fc	 mov	 DWORD PTR tv3364[ebp], eax
  00202	83 c4 10	 add	 esp, 16			; 00000010H
  00205	db 45 fc	 fild	 DWORD PTR tv3364[ebp]
  00208	d9 5e 2c	 fstp	 DWORD PTR [esi+44]

; 188  : 	}
; 189  : 	else

  0020b	eb 03		 jmp	 SHORT $LN245@Convert
$LN246@Convert:

; 190  : 	{
; 191  : 		this->m_BaseDurability = 0;

  0020d	d9 56 2c	 fst	 DWORD PTR [esi+44]
$LN245@Convert:

; 192  : 	}
; 193  : 
; 194  : 	this->m_DurabilityState[0] = this->m_BaseDurability * 0.5f;

  00210	d9 46 2c	 fld	 DWORD PTR [esi+44]

; 195  : 	this->m_DurabilityState[1] = this->m_BaseDurability * 0.3f;
; 196  : 	this->m_DurabilityState[2] = this->m_BaseDurability * 0.2f;
; 197  : 	this->m_Value = p->Value;

  00213	8b 5d 24	 mov	 ebx, DWORD PTR tv3051[ebp]
  00216	dc 0d 00 00 00
	00		 fmul	 QWORD PTR __real@3fe0000000000000
  0021c	d9 5d fc	 fstp	 DWORD PTR tv3116[ebp]
  0021f	d9 45 fc	 fld	 DWORD PTR tv3116[ebp]
  00222	d9 56 7c	 fst	 DWORD PTR [esi+124]
  00225	d9 46 2c	 fld	 DWORD PTR [esi+44]
  00228	dc 0d 00 00 00
	00		 fmul	 QWORD PTR __real@3fd3333340000000
  0022e	d9 5d fc	 fstp	 DWORD PTR tv3120[ebp]
  00231	d9 45 fc	 fld	 DWORD PTR tv3120[ebp]
  00234	d9 96 80 00 00
	00		 fst	 DWORD PTR [esi+128]
  0023a	d9 46 2c	 fld	 DWORD PTR [esi+44]
  0023d	dc 0d 00 00 00
	00		 fmul	 QWORD PTR __real@3fc99999a0000000
  00243	d9 5d fc	 fstp	 DWORD PTR tv3124[ebp]
  00246	d9 45 fc	 fld	 DWORD PTR tv3124[ebp]
  00249	d9 96 84 00 00
	00		 fst	 DWORD PTR [esi+132]
  0024f	0f b7 93 3c 00
	00 00		 movzx	 edx, WORD PTR ?ItemAttribute@@3PAUITEM_ATTRIBUTE@@A[ebx+60]
  00256	89 56 5c	 mov	 DWORD PTR [esi+92], edx

; 198  : 	this->m_AttackSpeed = p->AttackSpeed;
; 199  : 	this->m_TwoHand = p->TwoHand;
; 200  : 	this->m_DamageMin = p->DamageMin;
; 201  : 	this->m_DamageMax = p->DamageMax;
; 202  : 	this->m_SuccessfulBlocking = p->SuccessfulBlocking;
; 203  : 	this->m_Defense = p->Defense;
; 204  : 	this->m_MagicDefense = p->MagicDefense;
; 205  : 	this->m_WalkSpeed = p->WalkSpeed;
; 206  : 	this->m_Magic = p->MagicPW;
; 207  : 	this->m_serial = p->Serial;
; 208  : 	this->m_QuestItem = (bool)p->QuestItem;
; 209  : 	this->m_RequireLeaderShip = 0;
; 210  : 
; 211  : 	if ( this->m_Durability == 0 )

  00259	d9 46 24	 fld	 DWORD PTR [esi+36]
  0025c	0f b6 83 28 00
	00 00		 movzx	 eax, BYTE PTR ?ItemAttribute@@3PAUITEM_ATTRIBUTE@@A[ebx+40]
  00263	d9 c4		 fld	 ST(4)
  00265	da e9		 fucompp
  00267	88 46 0d	 mov	 BYTE PTR [esi+13], al
  0026a	0f b6 8b 21 00
	00 00		 movzx	 ecx, BYTE PTR ?ItemAttribute@@3PAUITEM_ATTRIBUTE@@A[ebx+33]
  00271	88 4e 0c	 mov	 BYTE PTR [esi+12], cl
  00274	0f b6 93 2a 00
	00 00		 movzx	 edx, BYTE PTR ?ItemAttribute@@3PAUITEM_ATTRIBUTE@@A[ebx+42]
  0027b	66 89 56 10	 mov	 WORD PTR [esi+16], dx
  0027f	0f b6 83 2b 00
	00 00		 movzx	 eax, BYTE PTR ?ItemAttribute@@3PAUITEM_ATTRIBUTE@@A[ebx+43]
  00286	66 89 46 12	 mov	 WORD PTR [esi+18], ax
  0028a	0f b6 8b 2c 00
	00 00		 movzx	 ecx, BYTE PTR ?ItemAttribute@@3PAUITEM_ATTRIBUTE@@A[ebx+44]
  00291	88 4e 14	 mov	 BYTE PTR [esi+20], cl
  00294	0f b6 93 2d 00
	00 00		 movzx	 edx, BYTE PTR ?ItemAttribute@@3PAUITEM_ATTRIBUTE@@A[ebx+45]
  0029b	66 89 56 16	 mov	 WORD PTR [esi+22], dx
  0029f	0f b6 83 2e 00
	00 00		 movzx	 eax, BYTE PTR ?ItemAttribute@@3PAUITEM_ATTRIBUTE@@A[ebx+46]
  002a6	66 89 46 18	 mov	 WORD PTR [esi+24], ax
  002aa	0f b6 8b 29 00
	00 00		 movzx	 ecx, BYTE PTR ?ItemAttribute@@3PAUITEM_ATTRIBUTE@@A[ebx+41]
  002b1	88 4e 0e	 mov	 BYTE PTR [esi+14], cl
  002b4	0f b7 93 50 00
	00 00		 movzx	 edx, WORD PTR ?ItemAttribute@@3PAUITEM_ATTRIBUTE@@A[ebx+80]
  002bb	66 89 56 20	 mov	 WORD PTR [esi+32], dx
  002bf	0f b6 83 25 00
	00 00		 movzx	 eax, BYTE PTR ?ItemAttribute@@3PAUITEM_ATTRIBUTE@@A[ebx+37]
  002c6	88 46 04	 mov	 BYTE PTR [esi+4], al
  002c9	0f b6 8b 5c 00
	00 00		 movzx	 ecx, BYTE PTR ?ItemAttribute@@3PAUITEM_ATTRIBUTE@@A[ebx+92]
  002d0	df e0		 fnstsw	 ax
  002d2	33 d2		 xor	 edx, edx
  002d4	88 8e 91 00 00
	00		 mov	 BYTE PTR [esi+145], cl
  002da	66 89 56 4c	 mov	 WORD PTR [esi+76], dx
  002de	f6 c4 44	 test	 ah, 68			; 00000044H
  002e1	7a 0c		 jp	 SHORT $LN244@Convert
  002e3	dd d8		 fstp	 ST(0)
  002e5	dd d8		 fstp	 ST(0)
  002e7	dd d9		 fstp	 ST(1)
  002e9	dd d8		 fstp	 ST(0)

; 212  : 	{
; 213  : 		this->m_CurrentDurabilityState = 1;

  002eb	d9 e8		 fld1
  002ed	eb 46		 jmp	 SHORT $LN238@Convert
$LN244@Convert:

; 214  : 	}
; 215  : 	else if ( this->m_Durability < this->m_DurabilityState[2] )

  002ef	d9 46 24	 fld	 DWORD PTR [esi+36]
  002f2	de d9		 fcompp
  002f4	df e0		 fnstsw	 ax
  002f6	f6 c4 05	 test	 ah, 5
  002f9	7a 0e		 jp	 SHORT $LN242@Convert
  002fb	dd d8		 fstp	 ST(0)
  002fd	dd d9		 fstp	 ST(1)
  002ff	dd d8		 fstp	 ST(0)

; 216  : 	{
; 217  : 		this->m_CurrentDurabilityState = (float)0.5;

  00301	d9 05 00 00 00
	00		 fld	 DWORD PTR __real@3f000000
  00307	eb 2c		 jmp	 SHORT $LN238@Convert
$LN242@Convert:

; 218  : 	}
; 219  : 	else if ( this->m_Durability < this->m_DurabilityState[1] )

  00309	d9 46 24	 fld	 DWORD PTR [esi+36]
  0030c	de d9		 fcompp
  0030e	df e0		 fnstsw	 ax
  00310	f6 c4 05	 test	 ah, 5
  00313	7a 0c		 jp	 SHORT $LN240@Convert
  00315	dd d9		 fstp	 ST(1)
  00317	dd d8		 fstp	 ST(0)

; 220  : 	{
; 221  : 		this->m_CurrentDurabilityState = (float)0.3;

  00319	d9 05 00 00 00
	00		 fld	 DWORD PTR __real@3e99999a
  0031f	eb 14		 jmp	 SHORT $LN238@Convert
$LN240@Convert:

; 222  : 	}
; 223  : 	else if ( this->m_Durability < this->m_DurabilityState[0] )

  00321	d9 46 24	 fld	 DWORD PTR [esi+36]
  00324	de d9		 fcompp
  00326	df e0		 fnstsw	 ax
  00328	f6 c4 05	 test	 ah, 5
  0032b	7a 08		 jp	 SHORT $LN238@Convert
  0032d	dd d8		 fstp	 ST(0)

; 224  : 	{
; 225  : 		this->m_CurrentDurabilityState = (float)0.2;

  0032f	d9 05 00 00 00
	00		 fld	 DWORD PTR __real@3e4ccccd
$LN238@Convert:

; 226  : 	}
; 227  : 	else
; 228  : 	{
; 229  : 		this->m_CurrentDurabilityState = 0.0;

  00335	d9 9e 8c 00 00
	00		 fstp	 DWORD PTR [esi+140]

; 230  : 	}
; 231  : 
; 232  : 	memcpy(this->m_RequireClass, p->RequireClass , sizeof(this->m_RequireClass));

  0033b	8b 83 3e 00 00
	00		 mov	 eax, DWORD PTR ?ItemAttribute@@3PAUITEM_ATTRIBUTE@@A[ebx+62]
  00341	89 46 50	 mov	 DWORD PTR [esi+80], eax
  00344	8a 8b 42 00 00
	00		 mov	 cl, BYTE PTR ?ItemAttribute@@3PAUITEM_ATTRIBUTE@@A[ebx+66]
  0034a	88 4e 54	 mov	 BYTE PTR [esi+84], cl

; 233  : 
; 234  : 	for (int i = 0; i<MAX_ITEM_SPECIAL_ATTRIBUTE ; i++ )
; 235  : 	{
; 236  : 		this->m_Resistance[i] = p->Resistance[i] * this->m_Level;

  0034d	0f b6 83 43 00
	00 00		 movzx	 eax, BYTE PTR ?ItemAttribute@@3PAUITEM_ATTRIBUTE@@A[ebx+67]
  00354	f6 6e 08	 imul	 BYTE PTR [esi+8]
  00357	88 46 55	 mov	 BYTE PTR [esi+85], al
  0035a	0f b6 83 44 00
	00 00		 movzx	 eax, BYTE PTR ?ItemAttribute@@3PAUITEM_ATTRIBUTE@@A[ebx+68]
  00361	f6 6e 08	 imul	 BYTE PTR [esi+8]
  00364	88 46 56	 mov	 BYTE PTR [esi+86], al
  00367	0f b6 83 45 00
	00 00		 movzx	 eax, BYTE PTR ?ItemAttribute@@3PAUITEM_ATTRIBUTE@@A[ebx+69]
  0036e	f6 6e 08	 imul	 BYTE PTR [esi+8]
  00371	88 46 57	 mov	 BYTE PTR [esi+87], al
  00374	0f b6 83 46 00
	00 00		 movzx	 eax, BYTE PTR ?ItemAttribute@@3PAUITEM_ATTRIBUTE@@A[ebx+70]
  0037b	f6 6e 08	 imul	 BYTE PTR [esi+8]
  0037e	88 46 58	 mov	 BYTE PTR [esi+88], al
  00381	0f b6 83 47 00
	00 00		 movzx	 eax, BYTE PTR ?ItemAttribute@@3PAUITEM_ATTRIBUTE@@A[ebx+71]
  00388	f6 6e 08	 imul	 BYTE PTR [esi+8]
  0038b	88 46 59	 mov	 BYTE PTR [esi+89], al
  0038e	0f b6 83 48 00
	00 00		 movzx	 eax, BYTE PTR ?ItemAttribute@@3PAUITEM_ATTRIBUTE@@A[ebx+72]
  00395	f6 6e 08	 imul	 BYTE PTR [esi+8]
  00398	88 46 5a	 mov	 BYTE PTR [esi+90], al
  0039b	0f b6 83 49 00
	00 00		 movzx	 eax, BYTE PTR ?ItemAttribute@@3PAUITEM_ATTRIBUTE@@A[ebx+73]
  003a2	f6 6e 08	 imul	 BYTE PTR [esi+8]
  003a5	88 46 5b	 mov	 BYTE PTR [esi+91], al

; 237  : 	}
; 238  : 
; 239  : 	ItemLevel = p->Level;
; 240  : 
; 241  : 	if ( ( Attribute2 & 0x3F) > 0 )

  003a8	8a 45 18	 mov	 al, BYTE PTR _Attribute2$[ebp]
  003ab	0f b6 bb 22 00
	00 00		 movzx	 edi, BYTE PTR ?ItemAttribute@@3PAUITEM_ATTRIBUTE@@A[ebx+34]
  003b2	24 3f		 and	 al, 63			; 0000003fH
  003b4	88 45 1b	 mov	 BYTE PTR tv3263[ebp], al

; 242  : 	{
; 243  : 		ItemLevel = p->Level + 25;
; 244  : 	}
; 245  : 	else

  003b7	77 08		 ja	 SHORT $LN355@Convert

; 246  : 	{
; 247  : 		if (this->m_SetOption != 0 )

  003b9	38 96 92 00 00
	00		 cmp	 BYTE PTR [esi+146], dl
  003bf	74 03		 je	 SHORT $LN231@Convert
$LN355@Convert:

; 248  : 		{
; 249  : 			ItemLevel = p->Level + 25;

  003c1	83 c7 19	 add	 edi, 25			; 00000019H
$LN231@Convert:

; 250  : 		}
; 251  : 	}
; 252  : 
; 253  : 	if ( p->RequireStrength != 0 )

  003c4	0f b7 93 34 00
	00 00		 movzx	 edx, WORD PTR ?ItemAttribute@@3PAUITEM_ATTRIBUTE@@A[ebx+52]
  003cb	66 85 d2	 test	 dx, dx
  003ce	74 28		 je	 SHORT $LN230@Convert

; 254  : 	{
; 255  : 		this->m_RequireStrength = ((p->RequireStrength * (ItemLevel + this->m_Level * 3 ) ) * 3) / 100 + 20;

  003d0	0f bf 4e 08	 movsx	 ecx, WORD PTR [esi+8]
  003d4	8d 04 4f	 lea	 eax, DWORD PTR [edi+ecx*2]
  003d7	03 c1		 add	 eax, ecx
  003d9	0f af c2	 imul	 eax, edx
  003dc	8d 0c 40	 lea	 ecx, DWORD PTR [eax+eax*2]
  003df	b8 1f 85 eb 51	 mov	 eax, 1374389535		; 51eb851fH
  003e4	f7 e9		 imul	 ecx
  003e6	c1 fa 05	 sar	 edx, 5
  003e9	8b c2		 mov	 eax, edx
  003eb	c1 e8 1f	 shr	 eax, 31			; 0000001fH
  003ee	8d 4c 02 14	 lea	 ecx, DWORD PTR [edx+eax+20]
  003f2	66 89 4e 42	 mov	 WORD PTR [esi+66], cx

; 256  : 	}
; 257  : 	else

  003f6	eb 06		 jmp	 SHORT $LN229@Convert
$LN230@Convert:

; 258  : 	{
; 259  : 		this->m_RequireStrength = 0;

  003f8	33 d2		 xor	 edx, edx
  003fa	66 89 56 42	 mov	 WORD PTR [esi+66], dx
$LN229@Convert:

; 260  : 	}
; 261  : 
; 262  : 
; 263  : 	if ( p->RequireDexterity != 0 )

  003fe	0f b7 93 36 00
	00 00		 movzx	 edx, WORD PTR ?ItemAttribute@@3PAUITEM_ATTRIBUTE@@A[ebx+54]
  00405	66 85 d2	 test	 dx, dx
  00408	74 28		 je	 SHORT $LN228@Convert

; 264  : 	{
; 265  : 		this->m_RequireDexterity = ((p->RequireDexterity * (ItemLevel + this->m_Level * 3 ) ) * 3) / 100 + 20;

  0040a	0f bf 4e 08	 movsx	 ecx, WORD PTR [esi+8]
  0040e	8d 04 4f	 lea	 eax, DWORD PTR [edi+ecx*2]
  00411	03 c1		 add	 eax, ecx
  00413	0f af c2	 imul	 eax, edx
  00416	8d 0c 40	 lea	 ecx, DWORD PTR [eax+eax*2]
  00419	b8 1f 85 eb 51	 mov	 eax, 1374389535		; 51eb851fH
  0041e	f7 e9		 imul	 ecx
  00420	c1 fa 05	 sar	 edx, 5
  00423	8b c2		 mov	 eax, edx
  00425	c1 e8 1f	 shr	 eax, 31			; 0000001fH
  00428	8d 4c 02 14	 lea	 ecx, DWORD PTR [edx+eax+20]
  0042c	66 89 4e 44	 mov	 WORD PTR [esi+68], cx

; 266  : 	}
; 267  : 	else

  00430	eb 06		 jmp	 SHORT $LN227@Convert
$LN228@Convert:

; 268  : 	{
; 269  : 		this->m_RequireDexterity  = 0;

  00432	33 d2		 xor	 edx, edx
  00434	66 89 56 44	 mov	 WORD PTR [esi+68], dx
$LN227@Convert:

; 270  : 	}
; 271  : 
; 272  : 	if ( p->RequireEnergy != 0 )

  00438	0f b7 93 38 00
	00 00		 movzx	 edx, WORD PTR ?ItemAttribute@@3PAUITEM_ATTRIBUTE@@A[ebx+56]
  0043f	66 85 d2	 test	 dx, dx
  00442	74 29		 je	 SHORT $LN226@Convert

; 273  : 	{
; 274  : 		this->m_RequireEnergy = ((p->RequireEnergy * (ItemLevel + this->m_Level * 3 ) ) * 4) / 100 + 20;

  00444	0f bf 46 08	 movsx	 eax, WORD PTR [esi+8]
  00448	8d 0c 47	 lea	 ecx, DWORD PTR [edi+eax*2]
  0044b	03 c8		 add	 ecx, eax
  0044d	0f af ca	 imul	 ecx, edx
  00450	03 c9		 add	 ecx, ecx
  00452	03 c9		 add	 ecx, ecx
  00454	b8 1f 85 eb 51	 mov	 eax, 1374389535		; 51eb851fH
  00459	f7 e9		 imul	 ecx
  0045b	c1 fa 05	 sar	 edx, 5
  0045e	8b ca		 mov	 ecx, edx
  00460	c1 e9 1f	 shr	 ecx, 31			; 0000001fH
  00463	8d 54 0a 14	 lea	 edx, DWORD PTR [edx+ecx+20]
  00467	66 89 56 46	 mov	 WORD PTR [esi+70], dx

; 275  : 	}
; 276  : 	else

  0046b	eb 06		 jmp	 SHORT $LN225@Convert
$LN226@Convert:

; 277  : 	{
; 278  : 		this->m_RequireEnergy = 0;

  0046d	33 c0		 xor	 eax, eax
  0046f	66 89 46 46	 mov	 WORD PTR [esi+70], ax
$LN225@Convert:

; 279  : 	}
; 280  : 
; 281  : 	if ( _type >= ITEMGET(0,0) && _type < ITEMGET(12,0) )

  00473	81 7d 08 ff 17
	00 00		 cmp	 DWORD PTR __type$[ebp], 6143 ; 000017ffH
  0047a	77 78		 ja	 SHORT $LN220@Convert

; 282  : 	{
; 283  : 		if ( p->RequireVitality != 0 )

  0047c	0f b7 93 4a 00
	00 00		 movzx	 edx, WORD PTR ?ItemAttribute@@3PAUITEM_ATTRIBUTE@@A[ebx+74]
  00483	66 85 d2	 test	 dx, dx
  00486	74 28		 je	 SHORT $LN223@Convert

; 284  : 		{
; 285  : 			this->m_RequireVitality = ((p->RequireVitality * (ItemLevel + this->m_Level * 3 ) ) * 3) / 100 + 20;

  00488	0f bf 4e 08	 movsx	 ecx, WORD PTR [esi+8]
  0048c	8d 04 4f	 lea	 eax, DWORD PTR [edi+ecx*2]
  0048f	03 c1		 add	 eax, ecx
  00491	0f af c2	 imul	 eax, edx
  00494	8d 0c 40	 lea	 ecx, DWORD PTR [eax+eax*2]
  00497	b8 1f 85 eb 51	 mov	 eax, 1374389535		; 51eb851fH
  0049c	f7 e9		 imul	 ecx
  0049e	c1 fa 05	 sar	 edx, 5
  004a1	8b c2		 mov	 eax, edx
  004a3	c1 e8 1f	 shr	 eax, 31			; 0000001fH
  004a6	8d 4c 02 14	 lea	 ecx, DWORD PTR [edx+eax+20]
  004aa	66 89 4e 4a	 mov	 WORD PTR [esi+74], cx

; 286  : 		}
; 287  : 		else

  004ae	eb 06		 jmp	 SHORT $LN222@Convert
$LN223@Convert:

; 288  : 		{
; 289  : 			this->m_RequireVitality = 0;

  004b0	33 d2		 xor	 edx, edx
  004b2	66 89 56 4a	 mov	 WORD PTR [esi+74], dx
$LN222@Convert:

; 290  : 		}
; 291  : 
; 292  : 		if ( p->RequireLeadership != 0 )

  004b6	83 bb 68 00 00
	00 00		 cmp	 DWORD PTR ?ItemAttribute@@3PAUITEM_ATTRIBUTE@@A[ebx+104], 0
  004bd	74 2f		 je	 SHORT $LN221@Convert

; 293  : 		{
; 294  : 			this->m_RequireLeaderShip = ((p->RequireVitality * (ItemLevel + this->m_Level * 3 ) ) * 3) / 100 + 20;

  004bf	0f bf 4e 08	 movsx	 ecx, WORD PTR [esi+8]
  004c3	8d 04 4f	 lea	 eax, DWORD PTR [edi+ecx*2]
  004c6	03 c1		 add	 eax, ecx
  004c8	0f b7 8b 4a 00
	00 00		 movzx	 ecx, WORD PTR ?ItemAttribute@@3PAUITEM_ATTRIBUTE@@A[ebx+74]
  004cf	0f af c1	 imul	 eax, ecx
  004d2	8d 0c 40	 lea	 ecx, DWORD PTR [eax+eax*2]
  004d5	b8 1f 85 eb 51	 mov	 eax, 1374389535		; 51eb851fH
  004da	f7 e9		 imul	 ecx
  004dc	c1 fa 05	 sar	 edx, 5
  004df	8b c2		 mov	 eax, edx
  004e1	c1 e8 1f	 shr	 eax, 31			; 0000001fH
  004e4	8d 4c 02 14	 lea	 ecx, DWORD PTR [edx+eax+20]
  004e8	66 89 4e 4c	 mov	 WORD PTR [esi+76], cx

; 295  : 		}
; 296  : 		else

  004ec	eb 06		 jmp	 SHORT $LN220@Convert
$LN221@Convert:

; 297  : 		{
; 298  : 			this->m_RequireLeaderShip = 0;

  004ee	33 d2		 xor	 edx, edx
  004f0	66 89 56 4c	 mov	 WORD PTR [esi+76], dx
$LN220@Convert:

; 299  : 		}
; 300  : 	}
; 301  : 
; 302  : 	if ( _type == ITEMGET(13,5) )

  004f4	81 7d 08 05 1a
	00 00		 cmp	 DWORD PTR __type$[ebp], 6661 ; 00001a05H
  004fb	75 1d		 jne	 SHORT $LN219@Convert

; 303  : 		this->m_RequireLeaderShip = this->m_PetItem_Level * 15 + 185;

  004fd	66 8b 86 a0 00
	00 00		 mov	 ax, WORD PTR [esi+160]
  00504	66 8b c8	 mov	 cx, ax
  00507	66 c1 e1 04	 shl	 cx, 4
  0050b	66 2b c8	 sub	 cx, ax
  0050e	ba b9 00 00 00	 mov	 edx, 185		; 000000b9H
  00513	66 03 ca	 add	 cx, dx
  00516	66 89 4e 4c	 mov	 WORD PTR [esi+76], cx
$LN219@Convert:

; 304  : 
; 305  : 	if ( p->RequireLevel != 0 )

  0051a	0f b7 8b 3a 00
	00 00		 movzx	 ecx, WORD PTR ?ItemAttribute@@3PAUITEM_ATTRIBUTE@@A[ebx+58]

; 306  : 	{
; 307  : 		if ( _type == ITEMGET(13,4) )	// DarkHorse

  00521	8b 55 08	 mov	 edx, DWORD PTR __type$[ebp]
  00524	66 85 c9	 test	 cx, cx
  00527	0f 84 80 00 00
	00		 je	 $LN218@Convert
  0052d	81 fa 04 1a 00
	00		 cmp	 edx, 6660		; 00001a04H
  00533	75 14		 jne	 SHORT $LN217@Convert

; 308  : 		{
; 309  : 			this->m_RequireLevel = this->m_PetItem_Level * 2 + 218;

  00535	66 8b 86 a0 00
	00 00		 mov	 ax, WORD PTR [esi+160]
  0053c	66 83 c0 6d	 add	 ax, 109			; 0000006dH
  00540	66 03 c0	 add	 ax, ax
  00543	66 89 46 48	 mov	 WORD PTR [esi+72], ax
  00547	eb 6a		 jmp	 SHORT $LN206@Convert
$LN217@Convert:

; 310  : 		}
; 311  : 		else if ( _type >= ITEMGET(12,3) && _type <= ITEMGET(12,6) )

  00549	8d 82 fd e7 ff
	ff		 lea	 eax, DWORD PTR [edx-6147]
  0054f	83 f8 03	 cmp	 eax, 3
  00552	77 1c		 ja	 SHORT $LN215@Convert

; 312  : 		{
; 313  : 			this->m_RequireLevel = p->RequireLevel + (this->m_Level * 5);

  00554	66 8b 46 08	 mov	 ax, WORD PTR [esi+8]
  00558	66 8b d0	 mov	 dx, ax
  0055b	66 03 d2	 add	 dx, dx
  0055e	66 03 d2	 add	 dx, dx
  00561	66 03 c2	 add	 ax, dx
  00564	8b 55 08	 mov	 edx, DWORD PTR __type$[ebp]
  00567	66 03 c1	 add	 ax, cx
  0056a	66 89 46 48	 mov	 WORD PTR [esi+72], ax
  0056e	eb 43		 jmp	 SHORT $LN206@Convert
$LN215@Convert:

; 314  : 		}
; 315  : 		else if(NEWWINGS(_type))

  00570	81 fa 64 18 00
	00		 cmp	 edx, 6244		; 00001864H
  00576	7c 0f		 jl	 SHORT $LN302@Convert
  00578	33 c0		 xor	 eax, eax
  0057a	81 fa 7d 18 00
	00		 cmp	 edx, 6269		; 0000187dH
  00580	0f 9e c0	 setle	 al
  00583	85 c0		 test	 eax, eax

; 316  : 		{
; 317  : 			this->m_RequireLevel = p->RequireLevel;

  00585	75 28		 jne	 SHORT $LN356@Convert
$LN302@Convert:

; 318  : 		}
; 319  : 		else if ( _type >= ITEMGET(12,7) && _type <= ITEMGET(12,24) )

  00587	8d 82 f9 e7 ff
	ff		 lea	 eax, DWORD PTR [edx-6151]
  0058d	83 f8 11	 cmp	 eax, 17			; 00000011H

; 320  : 		{
; 321  : 			this->m_RequireLevel = p->RequireLevel;

  00590	76 1d		 jbe	 SHORT $LN356@Convert

; 322  : 		}
; 323  : 		else if ( _type >= ITEMGET(0,0) && _type < ITEMGET(12,0) )

  00592	81 fa ff 17 00
	00		 cmp	 edx, 6143		; 000017ffH

; 324  : 		{
; 325  : 			if ( p->RequireLevel )
; 326  : 				this->m_RequireLevel = p->RequireLevel;
; 327  : 		}
; 328  : 		else

  00598	76 15		 jbe	 SHORT $LN356@Convert

; 329  : 		{
; 330  : 			this->m_RequireLevel = p->RequireLevel + this->m_Level * 4;

  0059a	66 8b 46 08	 mov	 ax, WORD PTR [esi+8]
  0059e	66 03 c0	 add	 ax, ax
  005a1	66 03 c0	 add	 ax, ax
  005a4	66 03 c1	 add	 ax, cx
  005a7	66 89 46 48	 mov	 WORD PTR [esi+72], ax

; 331  : 		}
; 332  : 	}
; 333  : 	else

  005ab	eb 06		 jmp	 SHORT $LN206@Convert
$LN218@Convert:

; 334  : 	{
; 335  : 		this->m_RequireLevel = 0;

  005ad	33 c9		 xor	 ecx, ecx
$LN356@Convert:
  005af	66 89 4e 48	 mov	 WORD PTR [esi+72], cx
$LN206@Convert:

; 336  : 	}
; 337  : 
; 338  : 	/*if ( _type == ITEMGET(13,5) )	// Dark Speiryt
; 339  : 	{
; 340  : 		this->m_RequireLeaderShip = this->m_PetItem_Level  * 15 + 185;
; 341  : 	}
; 342  : 	else
; 343  : 	{
; 344  : 		this->m_RequireLeaderShip = 0;
; 345  : 	}*/
; 346  : 
; 347  : 
; 348  : 	if ( this->m_Type == ITEMGET(13,10) )

  005b3	0f b7 46 06	 movzx	 eax, WORD PTR [esi+6]
  005b7	b9 0a 1a 00 00	 mov	 ecx, 6666		; 00001a0aH
  005bc	66 3b c1	 cmp	 ax, cx
  005bf	75 19		 jne	 SHORT $LN203@Convert

; 349  : 	{
; 350  : 		if ( ItemLevel <= 2 )

  005c1	83 ff 02	 cmp	 edi, 2
  005c4	7f 0b		 jg	 SHORT $LN204@Convert

; 351  : 		{
; 352  : 			this->m_RequireLevel = 20;

  005c6	b8 14 00 00 00	 mov	 eax, 20			; 00000014H
  005cb	66 89 46 48	 mov	 WORD PTR [esi+72], ax

; 353  : 		}
; 354  : 		else

  005cf	eb 09		 jmp	 SHORT $LN203@Convert
$LN204@Convert:

; 355  : 		{
; 356  : 			this->m_RequireLevel = 50;

  005d1	b9 32 00 00 00	 mov	 ecx, 50			; 00000032H
  005d6	66 89 4e 48	 mov	 WORD PTR [esi+72], cx
$LN203@Convert:

; 357  : 		}
; 358  : 	}
; 359  : 
; 360  : 	if ( (Attribute2 & 0x3F) > 0 )

  005da	80 7d 1b 00	 cmp	 BYTE PTR tv3263[ebp], 0
  005de	76 1c		 jbe	 SHORT $LN326@Convert

; 361  : 	{
; 362  : 		if ( this->m_RequireLevel > 0 )

  005e0	0f b7 46 48	 movzx	 eax, WORD PTR [esi+72]
  005e4	66 85 c0	 test	 ax, ax
  005e7	74 13		 je	 SHORT $LN326@Convert

; 363  : 		{
; 364  : 			if ( _type < ITEMGET(0,0) || _type >= ITEMGET(12,0) )

  005e9	85 d2		 test	 edx, edx
  005eb	78 08		 js	 SHORT $LN303@Convert
  005ed	81 fa 00 18 00
	00		 cmp	 edx, 6144		; 00001800H
  005f3	7c 07		 jl	 SHORT $LN326@Convert
$LN303@Convert:

; 365  : 				this->m_RequireLevel += 20;

  005f5	83 c0 14	 add	 eax, 20			; 00000014H
  005f8	66 89 46 48	 mov	 WORD PTR [esi+72], ax
$LN326@Convert:

; 366  : 		}
; 367  : 	}
; 368  : 
; 369  : 	if ( this->m_SetOption != 0 )

  005fc	8a 86 92 00 00
	00		 mov	 al, BYTE PTR [esi+146]
  00602	84 c0		 test	 al, al
  00604	74 0a		 je	 SHORT $LN198@Convert

; 370  : 	{
; 371  : 		ItemLevel = p->Level + 30;

  00606	0f b6 bb 22 00
	00 00		 movzx	 edi, BYTE PTR ?ItemAttribute@@3PAUITEM_ATTRIBUTE@@A[ebx+34]
  0060d	83 c7 1e	 add	 edi, 30			; 0000001eH
$LN198@Convert:

; 372  : 	}
; 373  : 	
; 374  : 	this->m_Leadership = 0;
; 375  : 
; 376  : 	if ( this->m_DamageMax > 0 )

  00610	0f b7 4e 12	 movzx	 ecx, WORD PTR [esi+18]
  00614	33 d2		 xor	 edx, edx
  00616	66 89 56 4e	 mov	 WORD PTR [esi+78], dx
  0061a	66 85 c9	 test	 cx, cx
  0061d	0f 84 9b 00 00
	00		 je	 $LN306@Convert

; 377  : 	{
; 378  : 		if ( this->m_SetOption != 0 && ItemLevel != 0 )

  00623	84 c0		 test	 al, al
  00625	74 33		 je	 SHORT $LN196@Convert
  00627	85 ff		 test	 edi, edi
  00629	74 2f		 je	 SHORT $LN196@Convert

; 379  : 		{
; 380  : 			this->m_DamageMax += (this->m_DamageMin * 25) / p->Level + 5;
; 381  : 			this->m_DamageMax += ItemLevel / 40 + 5;

  0062b	0f b7 46 10	 movzx	 eax, WORD PTR [esi+16]
  0062f	0f b6 9b 22 00
	00 00		 movzx	 ebx, BYTE PTR ?ItemAttribute@@3PAUITEM_ATTRIBUTE@@A[ebx+34]
  00636	6b c0 19	 imul	 eax, 25			; 00000019H
  00639	99		 cdq
  0063a	f7 fb		 idiv	 ebx
  0063c	8d 1c 01	 lea	 ebx, DWORD PTR [ecx+eax]
  0063f	b8 67 66 66 66	 mov	 eax, 1717986919		; 66666667H
  00644	f7 ef		 imul	 edi
  00646	c1 fa 04	 sar	 edx, 4
  00649	8b c2		 mov	 eax, edx
  0064b	c1 e8 1f	 shr	 eax, 31			; 0000001fH
  0064e	03 c2		 add	 eax, edx
  00650	8d 4c 18 0a	 lea	 ecx, DWORD PTR [eax+ebx+10]
  00654	66 89 4e 12	 mov	 WORD PTR [esi+18], cx

; 382  : 		}
; 383  : 		else

  00658	eb 33		 jmp	 SHORT $LN357@Convert
$LN196@Convert:

; 384  : 		{
; 385  : 			if ( (Attribute2 & 0x3F)  > 0 )

  0065a	38 55 1b	 cmp	 BYTE PTR tv3263[ebp], dl
  0065d	76 31		 jbe	 SHORT $LN320@Convert

; 386  : 			{
; 387  : 				if ( iChaosItem != 0 )

  0065f	8b 45 1c	 mov	 eax, DWORD PTR _iChaosItem$[ebp]
  00662	85 c0		 test	 eax, eax
  00664	74 08		 je	 SHORT $LN193@Convert

; 388  : 				{
; 389  : 					this->m_DamageMax += iChaosItem;

  00666	03 c8		 add	 ecx, eax
  00668	66 89 4e 12	 mov	 WORD PTR [esi+18], cx
  0066c	eb 22		 jmp	 SHORT $LN320@Convert
$LN193@Convert:

; 390  : 				}
; 391  : 				else if ( p->Level != 0 )

  0066e	8a 93 22 00 00
	00		 mov	 dl, BYTE PTR ?ItemAttribute@@3PAUITEM_ATTRIBUTE@@A[ebx+34]
  00674	84 d2		 test	 dl, dl
  00676	74 18		 je	 SHORT $LN320@Convert

; 392  : 				{
; 393  : 					this->m_DamageMax += (this->m_DamageMin * 25) / p->Level + 5;

  00678	0f b7 46 10	 movzx	 eax, WORD PTR [esi+16]
  0067c	6b c0 19	 imul	 eax, 25			; 00000019H
  0067f	0f b6 da	 movzx	 ebx, dl
  00682	99		 cdq
  00683	f7 fb		 idiv	 ebx
  00685	8d 54 08 05	 lea	 edx, DWORD PTR [eax+ecx+5]
  00689	66 89 56 12	 mov	 WORD PTR [esi+18], dx
$LN357@Convert:
  0068d	8b 5d 24	 mov	 ebx, DWORD PTR tv3051[ebp]
$LN320@Convert:

; 394  : 				}
; 395  : 			}
; 396  : 		}
; 397  : 
; 398  : 		this->m_DamageMax += this->m_Level * 3;

  00690	0f b7 46 08	 movzx	 eax, WORD PTR [esi+8]
  00694	8d 0c 40	 lea	 ecx, DWORD PTR [eax+eax*2]
  00697	66 01 4e 12	 add	 WORD PTR [esi+18], cx

; 399  : 
; 400  : 		if ( this->m_Level >= 10 )

  0069b	66 83 f8 0a	 cmp	 ax, 10			; 0000000aH
  0069f	7c 1d		 jl	 SHORT $LN306@Convert

; 401  : 		{
; 402  : 			this->m_DamageMax += (this->m_Level - 9) * (this->m_Level - 8) / 2;

  006a1	0f bf c8	 movsx	 ecx, ax
  006a4	8d 41 f7	 lea	 eax, DWORD PTR [ecx-9]
  006a7	83 c1 f8	 add	 ecx, -8			; fffffff8H
  006aa	0f af c1	 imul	 eax, ecx
  006ad	99		 cdq
  006ae	2b c2		 sub	 eax, edx
  006b0	8b d0		 mov	 edx, eax
  006b2	0f b7 46 12	 movzx	 eax, WORD PTR [esi+18]
  006b6	d1 fa		 sar	 edx, 1
  006b8	03 d0		 add	 edx, eax
  006ba	66 89 56 12	 mov	 WORD PTR [esi+18], dx
$LN306@Convert:

; 403  : 		}
; 404  : 	}
; 405  : 
; 406  : 	if ( this->m_DamageMin > 0 )	

  006be	0f b7 4e 10	 movzx	 ecx, WORD PTR [esi+16]
  006c2	66 85 c9	 test	 cx, cx
  006c5	0f 84 9d 00 00
	00		 je	 $LN322@Convert

; 407  : 	{
; 408  : 		if ( this->m_SetOption != 0 && ItemLevel != 0 )

  006cb	80 be 92 00 00
	00 00		 cmp	 BYTE PTR [esi+146], 0
  006d2	74 31		 je	 SHORT $LN188@Convert
  006d4	85 ff		 test	 edi, edi
  006d6	74 2d		 je	 SHORT $LN188@Convert

; 409  : 		{
; 410  : 			this->m_DamageMin += (this->m_DamageMin * 25) / p->Level + 5;
; 411  : 			this->m_DamageMin += ItemLevel / 40 + 5;

  006d8	0f b6 9b 22 00
	00 00		 movzx	 ebx, BYTE PTR ?ItemAttribute@@3PAUITEM_ATTRIBUTE@@A[ebx+34]
  006df	8b c1		 mov	 eax, ecx
  006e1	6b c0 19	 imul	 eax, 25			; 00000019H
  006e4	99		 cdq
  006e5	f7 fb		 idiv	 ebx
  006e7	8d 1c 01	 lea	 ebx, DWORD PTR [ecx+eax]
  006ea	b8 67 66 66 66	 mov	 eax, 1717986919		; 66666667H
  006ef	f7 ef		 imul	 edi
  006f1	c1 fa 04	 sar	 edx, 4
  006f4	8b c2		 mov	 eax, edx
  006f6	c1 e8 1f	 shr	 eax, 31			; 0000001fH
  006f9	03 c2		 add	 eax, edx
  006fb	8d 4c 18 0a	 lea	 ecx, DWORD PTR [eax+ebx+10]
  006ff	66 89 4e 10	 mov	 WORD PTR [esi+16], cx

; 412  : 		}
; 413  : 		else

  00703	eb 32		 jmp	 SHORT $LN358@Convert
$LN188@Convert:

; 414  : 		{
; 415  : 			if ( (Attribute2 & 0x3F)  > 0 )

  00705	80 7d 1b 00	 cmp	 BYTE PTR tv3263[ebp], 0
  00709	76 2f		 jbe	 SHORT $LN325@Convert

; 416  : 			{
; 417  : 				if ( iChaosItem != 0 )

  0070b	8b 45 1c	 mov	 eax, DWORD PTR _iChaosItem$[ebp]
  0070e	85 c0		 test	 eax, eax
  00710	74 08		 je	 SHORT $LN185@Convert

; 418  : 				{
; 419  : 					this->m_DamageMin += iChaosItem;

  00712	03 c8		 add	 ecx, eax
  00714	66 89 4e 10	 mov	 WORD PTR [esi+16], cx
  00718	eb 20		 jmp	 SHORT $LN325@Convert
$LN185@Convert:

; 420  : 				}
; 421  : 				else if ( p->Level != 0 )

  0071a	8a 93 22 00 00
	00		 mov	 dl, BYTE PTR ?ItemAttribute@@3PAUITEM_ATTRIBUTE@@A[ebx+34]
  00720	84 d2		 test	 dl, dl
  00722	74 16		 je	 SHORT $LN325@Convert

; 422  : 				{
; 423  : 					this->m_DamageMin += (this->m_DamageMin * 25) / p->Level + 5;

  00724	8b c1		 mov	 eax, ecx
  00726	6b c0 19	 imul	 eax, 25			; 00000019H
  00729	0f b6 da	 movzx	 ebx, dl
  0072c	99		 cdq
  0072d	f7 fb		 idiv	 ebx
  0072f	8d 54 08 05	 lea	 edx, DWORD PTR [eax+ecx+5]
  00733	66 89 56 10	 mov	 WORD PTR [esi+16], dx
$LN358@Convert:
  00737	8b 5d 24	 mov	 ebx, DWORD PTR tv3051[ebp]
$LN325@Convert:

; 424  : 				}
; 425  : 			}
; 426  : 		}
; 427  : 
; 428  : 		this->m_DamageMin += this->m_Level * 3;

  0073a	0f b7 46 08	 movzx	 eax, WORD PTR [esi+8]
  0073e	8d 0c 40	 lea	 ecx, DWORD PTR [eax+eax*2]
  00741	66 01 4e 10	 add	 WORD PTR [esi+16], cx

; 429  : 
; 430  : 		if ( this->m_Level >= 10 )

  00745	66 83 f8 0a	 cmp	 ax, 10			; 0000000aH
  00749	7c 1d		 jl	 SHORT $LN322@Convert

; 431  : 		{
; 432  : 			this->m_DamageMin += (this->m_Level - 9) * (this->m_Level - 8) / 2;

  0074b	0f bf c8	 movsx	 ecx, ax
  0074e	8d 41 f7	 lea	 eax, DWORD PTR [ecx-9]
  00751	83 c1 f8	 add	 ecx, -8			; fffffff8H
  00754	0f af c1	 imul	 eax, ecx
  00757	99		 cdq
  00758	2b c2		 sub	 eax, edx
  0075a	8b d0		 mov	 edx, eax
  0075c	0f b7 46 10	 movzx	 eax, WORD PTR [esi+16]
  00760	d1 fa		 sar	 edx, 1
  00762	03 d0		 add	 edx, eax
  00764	66 89 56 10	 mov	 WORD PTR [esi+16], dx
$LN322@Convert:

; 433  : 		}
; 434  : 	}
; 435  : 
; 436  : 	if ( this->m_Magic > 0 )	

  00768	0f b7 4e 20	 movzx	 ecx, WORD PTR [esi+32]
  0076c	66 85 c9	 test	 cx, cx
  0076f	0f 84 9f 00 00
	00		 je	 $LN323@Convert

; 437  : 	{
; 438  : 		if ( this->m_SetOption != 0 && ItemLevel != 0 )

  00775	80 be 92 00 00
	00 00		 cmp	 BYTE PTR [esi+146], 0
  0077c	74 33		 je	 SHORT $LN180@Convert
  0077e	85 ff		 test	 edi, edi
  00780	74 2f		 je	 SHORT $LN180@Convert

; 439  : 		{
; 440  : 			this->m_Magic += (this->m_Magic * 25) / p->Level + 5;
; 441  : 			this->m_Magic += ItemLevel / 60 + 2;

  00782	0f b6 9b 22 00
	00 00		 movzx	 ebx, BYTE PTR ?ItemAttribute@@3PAUITEM_ATTRIBUTE@@A[ebx+34]
  00789	8b c1		 mov	 eax, ecx
  0078b	6b c0 19	 imul	 eax, 25			; 00000019H
  0078e	99		 cdq
  0078f	f7 fb		 idiv	 ebx
  00791	8d 1c 01	 lea	 ebx, DWORD PTR [ecx+eax]
  00794	b8 89 88 88 88	 mov	 eax, -2004318071	; 88888889H
  00799	f7 ef		 imul	 edi
  0079b	03 d7		 add	 edx, edi
  0079d	c1 fa 05	 sar	 edx, 5
  007a0	8b c2		 mov	 eax, edx
  007a2	c1 e8 1f	 shr	 eax, 31			; 0000001fH
  007a5	03 c2		 add	 eax, edx
  007a7	8d 4c 18 07	 lea	 ecx, DWORD PTR [eax+ebx+7]
  007ab	66 89 4e 20	 mov	 WORD PTR [esi+32], cx

; 442  : 		}
; 443  : 		else

  007af	eb 32		 jmp	 SHORT $LN359@Convert
$LN180@Convert:

; 444  : 		{
; 445  : 			if ( (Attribute2 & 0x3F)  > 0 )

  007b1	80 7d 1b 00	 cmp	 BYTE PTR tv3263[ebp], 0
  007b5	76 2f		 jbe	 SHORT $LN324@Convert

; 446  : 			{
; 447  : 				if ( iChaosItem != 0 )

  007b7	8b 45 1c	 mov	 eax, DWORD PTR _iChaosItem$[ebp]
  007ba	85 c0		 test	 eax, eax
  007bc	74 08		 je	 SHORT $LN177@Convert

; 448  : 				{
; 449  : 					this->m_Magic += iChaosItem;

  007be	03 c8		 add	 ecx, eax
  007c0	66 89 4e 20	 mov	 WORD PTR [esi+32], cx
  007c4	eb 20		 jmp	 SHORT $LN324@Convert
$LN177@Convert:

; 450  : 				}
; 451  : 				else if ( p->Level != 0 )

  007c6	8a 93 22 00 00
	00		 mov	 dl, BYTE PTR ?ItemAttribute@@3PAUITEM_ATTRIBUTE@@A[ebx+34]
  007cc	84 d2		 test	 dl, dl
  007ce	74 16		 je	 SHORT $LN324@Convert

; 452  : 				{
; 453  : 					this->m_Magic += (this->m_Magic * 25) / p->Level + 5;

  007d0	8b c1		 mov	 eax, ecx
  007d2	6b c0 19	 imul	 eax, 25			; 00000019H
  007d5	0f b6 da	 movzx	 ebx, dl
  007d8	99		 cdq
  007d9	f7 fb		 idiv	 ebx
  007db	8d 54 08 05	 lea	 edx, DWORD PTR [eax+ecx+5]
  007df	66 89 56 20	 mov	 WORD PTR [esi+32], dx
$LN359@Convert:
  007e3	8b 5d 24	 mov	 ebx, DWORD PTR tv3051[ebp]
$LN324@Convert:

; 454  : 				}
; 455  : 			}
; 456  : 		}
; 457  : 
; 458  : 		this->m_Magic += this->m_Level * 3;

  007e6	0f b7 46 08	 movzx	 eax, WORD PTR [esi+8]
  007ea	8d 0c 40	 lea	 ecx, DWORD PTR [eax+eax*2]
  007ed	66 01 4e 20	 add	 WORD PTR [esi+32], cx

; 459  : 
; 460  : 		if ( this->m_Level >= 10 )

  007f1	66 83 f8 0a	 cmp	 ax, 10			; 0000000aH
  007f5	7c 1d		 jl	 SHORT $LN323@Convert

; 461  : 		{
; 462  : 			this->m_Magic += (this->m_Level - 9) * (this->m_Level - 8) / 2;

  007f7	0f bf c8	 movsx	 ecx, ax
  007fa	8d 41 f7	 lea	 eax, DWORD PTR [ecx-9]
  007fd	83 c1 f8	 add	 ecx, -8			; fffffff8H
  00800	0f af c1	 imul	 eax, ecx
  00803	99		 cdq
  00804	2b c2		 sub	 eax, edx
  00806	8b d0		 mov	 edx, eax
  00808	0f b7 46 20	 movzx	 eax, WORD PTR [esi+32]
  0080c	d1 fa		 sar	 edx, 1
  0080e	03 d0		 add	 edx, eax
  00810	66 89 56 20	 mov	 WORD PTR [esi+32], dx
$LN323@Convert:

; 463  : 		}
; 464  : 	}
; 465  : 
; 466  : 	if ( p->SuccessfulBlocking > 0 )	

  00814	80 bb 2c 00 00
	00 00		 cmp	 BYTE PTR ?ItemAttribute@@3PAUITEM_ATTRIBUTE@@A[ebx+44], 0
  0081b	0f 86 9a 00 00
	00		 jbe	 $LN307@Convert

; 467  : 	{
; 468  : 		if ( this->m_SetOption != 0 && ItemLevel != 0 )

  00821	80 be 92 00 00
	00 00		 cmp	 BYTE PTR [esi+146], 0
  00828	74 39		 je	 SHORT $LN172@Convert
  0082a	85 ff		 test	 edi, edi
  0082c	74 35		 je	 SHORT $LN172@Convert

; 469  : 		{
; 470  : 			this->m_SuccessfulBlocking += (this->m_SuccessfulBlocking * 25) / p->Level + 5;

  0082e	8a 4e 14	 mov	 cl, BYTE PTR [esi+20]

; 471  : 			this->m_SuccessfulBlocking += ItemLevel / 40 + 5;

  00831	8b 55 24	 mov	 edx, DWORD PTR tv3051[ebp]
  00834	0f b6 9a 22 00
	00 00		 movzx	 ebx, BYTE PTR ?ItemAttribute@@3PAUITEM_ATTRIBUTE@@A[edx+34]
  0083b	0f b6 c1	 movzx	 eax, cl
  0083e	6b c0 19	 imul	 eax, 25			; 00000019H
  00841	99		 cdq
  00842	f7 fb		 idiv	 ebx
  00844	8b d8		 mov	 ebx, eax
  00846	b8 67 66 66 66	 mov	 eax, 1717986919		; 66666667H
  0084b	f7 ef		 imul	 edi
  0084d	c1 fa 04	 sar	 edx, 4
  00850	8b c2		 mov	 eax, edx
  00852	c1 e8 1f	 shr	 eax, 31			; 0000001fH
  00855	03 c2		 add	 eax, edx
  00857	02 d8		 add	 bl, al
  00859	02 d9		 add	 bl, cl
  0085b	80 c3 0a	 add	 bl, 10			; 0000000aH
  0085e	88 5e 14	 mov	 BYTE PTR [esi+20], bl

; 472  : 		}
; 473  : 		else

  00861	eb 29		 jmp	 SHORT $LN169@Convert
$LN172@Convert:

; 474  : 		{
; 475  : 			if ( (Attribute2 & 0x3F)  > 0 )

  00863	80 7d 1b 00	 cmp	 BYTE PTR tv3263[ebp], 0
  00867	76 23		 jbe	 SHORT $LN169@Convert

; 476  : 			{
; 477  : 				if ( p->Level != 0 )

  00869	8b 4d 24	 mov	 ecx, DWORD PTR tv3051[ebp]
  0086c	8a 91 22 00 00
	00		 mov	 dl, BYTE PTR ?ItemAttribute@@3PAUITEM_ATTRIBUTE@@A[ecx+34]
  00872	84 d2		 test	 dl, dl
  00874	74 16		 je	 SHORT $LN169@Convert

; 478  : 				{
; 479  : 					this->m_SuccessfulBlocking += (this->m_SuccessfulBlocking * 25) / p->Level + 5;

  00876	8a 4e 14	 mov	 cl, BYTE PTR [esi+20]
  00879	0f b6 c1	 movzx	 eax, cl
  0087c	6b c0 19	 imul	 eax, 25			; 00000019H
  0087f	0f b6 da	 movzx	 ebx, dl
  00882	99		 cdq
  00883	f7 fb		 idiv	 ebx
  00885	02 c1		 add	 al, cl
  00887	04 05		 add	 al, 5
  00889	88 46 14	 mov	 BYTE PTR [esi+20], al
$LN169@Convert:

; 480  : 				}
; 481  : 			}
; 482  : 		}
; 483  : 
; 484  : 		this->m_SuccessfulBlocking += this->m_Level * 3;

  0088c	8a 46 08	 mov	 al, BYTE PTR [esi+8]
  0088f	8a d0		 mov	 dl, al
  00891	02 d2		 add	 dl, dl
  00893	02 c2		 add	 al, dl
  00895	00 46 14	 add	 BYTE PTR [esi+20], al

; 485  : 
; 486  : 		if ( this->m_Level >= 10 )

  00898	0f b7 46 08	 movzx	 eax, WORD PTR [esi+8]
  0089c	8a 5e 14	 mov	 bl, BYTE PTR [esi+20]
  0089f	66 83 f8 0a	 cmp	 ax, 10			; 0000000aH
  008a3	7c 16		 jl	 SHORT $LN307@Convert

; 487  : 		{
; 488  : 			this->m_SuccessfulBlocking += (this->m_Level - 9) * (this->m_Level - 8) / 2;

  008a5	0f bf c8	 movsx	 ecx, ax
  008a8	8d 41 f7	 lea	 eax, DWORD PTR [ecx-9]
  008ab	83 c1 f8	 add	 ecx, -8			; fffffff8H
  008ae	0f af c1	 imul	 eax, ecx
  008b1	99		 cdq
  008b2	2b c2		 sub	 eax, edx
  008b4	d1 f8		 sar	 eax, 1
  008b6	02 c3		 add	 al, bl
  008b8	88 46 14	 mov	 BYTE PTR [esi+20], al
$LN307@Convert:

; 489  : 		}
; 490  : 	}
; 491  : 
; 492  : 	if ( p->Defense > 0 )	

  008bb	8b 4d 24	 mov	 ecx, DWORD PTR tv3051[ebp]
  008be	80 b9 2d 00 00
	00 00		 cmp	 BYTE PTR ?ItemAttribute@@3PAUITEM_ATTRIBUTE@@A[ecx+45], 0
  008c5	0f 86 4b 01 00
	00		 jbe	 $LN313@Convert

; 493  : 	{
; 494  : 		if ( this->m_Type >= ITEMGET(6,0) && this->m_Type < ITEMGET(7,0) )

  008cb	0f b7 46 06	 movzx	 eax, WORD PTR [esi+6]
  008cf	ba 00 0c 00 00	 mov	 edx, 3072		; 00000c00H
  008d4	66 3b c2	 cmp	 ax, dx
  008d7	7c 45		 jl	 SHORT $LN166@Convert
  008d9	ba 00 0e 00 00	 mov	 edx, 3584		; 00000e00H
  008de	66 3b c2	 cmp	 ax, dx
  008e1	7d 3b		 jge	 SHORT $LN166@Convert

; 495  : 		{
; 496  : 			this->m_Defense += this->m_Level;

  008e3	66 8b 46 08	 mov	 ax, WORD PTR [esi+8]
  008e7	66 01 46 16	 add	 WORD PTR [esi+22], ax

; 497  : 
; 498  : 			if ( this->m_SetOption != 0 && ItemLevel != 0 )

  008eb	80 be 92 00 00
	00 00		 cmp	 BYTE PTR [esi+146], 0
  008f2	66 8b 4e 16	 mov	 cx, WORD PTR [esi+22]
  008f6	0f 84 1a 01 00
	00		 je	 $LN313@Convert
  008fc	85 ff		 test	 edi, edi
  008fe	0f 84 12 01 00
	00		 je	 $LN313@Convert

; 499  : 			{
; 500  : 				this->m_Defense += (this->m_Defense * 20) / ItemLevel + 2;

  00904	0f b7 c1	 movzx	 eax, cx
  00907	8d 04 80	 lea	 eax, DWORD PTR [eax+eax*4]
  0090a	03 c0		 add	 eax, eax
  0090c	03 c0		 add	 eax, eax
  0090e	99		 cdq
  0090f	f7 ff		 idiv	 edi
  00911	8d 4c 08 02	 lea	 ecx, DWORD PTR [eax+ecx+2]
  00915	66 89 4e 16	 mov	 WORD PTR [esi+22], cx

; 501  : 			}
; 502  : 		}
; 503  : 		else 

  00919	e9 f8 00 00 00	 jmp	 $LN313@Convert
$LN166@Convert:

; 504  : 		{
; 505  : 			if ( this->m_SetOption != 0 && ItemLevel != 0 )

  0091e	80 be 92 00 00
	00 00		 cmp	 BYTE PTR [esi+146], 0
  00925	74 5f		 je	 SHORT $LN308@Convert
  00927	85 ff		 test	 edi, edi
  00929	74 5b		 je	 SHORT $LN308@Convert

; 506  : 			{
; 507  : 				this->m_Defense += (this->m_Defense * 12) / p->Level + (p->Level / 5 ) + 4;

  0092b	0f b7 4e 16	 movzx	 ecx, WORD PTR [esi+22]
  0092f	8b 55 24	 mov	 edx, DWORD PTR tv3051[ebp]
  00932	0f b6 9a 22 00
	00 00		 movzx	 ebx, BYTE PTR ?ItemAttribute@@3PAUITEM_ATTRIBUTE@@A[edx+34]
  00939	8b c1		 mov	 eax, ecx
  0093b	8d 04 40	 lea	 eax, DWORD PTR [eax+eax*2]
  0093e	03 c0		 add	 eax, eax
  00940	03 c0		 add	 eax, eax
  00942	99		 cdq
  00943	f7 fb		 idiv	 ebx
  00945	89 45 18	 mov	 DWORD PTR tv3061[ebp], eax
  00948	b8 67 66 66 66	 mov	 eax, 1717986919		; 66666667H
  0094d	f7 eb		 imul	 ebx
  0094f	d1 fa		 sar	 edx, 1
  00951	8b c2		 mov	 eax, edx
  00953	c1 e8 1f	 shr	 eax, 31			; 0000001fH
  00956	03 c2		 add	 eax, edx
  00958	8b 55 18	 mov	 edx, DWORD PTR tv3061[ebp]
  0095b	03 d1		 add	 edx, ecx
  0095d	8d 4c 10 04	 lea	 ecx, DWORD PTR [eax+edx+4]

; 508  : 				this->m_Defense += (this->m_Defense * 3) / ItemLevel  + ( ItemLevel / 30 ) + 2;

  00961	0f b7 c1	 movzx	 eax, cx
  00964	8d 04 40	 lea	 eax, DWORD PTR [eax+eax*2]
  00967	99		 cdq
  00968	f7 ff		 idiv	 edi
  0096a	8d 1c 01	 lea	 ebx, DWORD PTR [ecx+eax]
  0096d	b8 89 88 88 88	 mov	 eax, -2004318071	; 88888889H
  00972	f7 ef		 imul	 edi
  00974	03 d7		 add	 edx, edi
  00976	c1 fa 04	 sar	 edx, 4
  00979	8b c2		 mov	 eax, edx
  0097b	c1 e8 1f	 shr	 eax, 31			; 0000001fH
  0097e	03 c2		 add	 eax, edx
  00980	8d 4c 18 02	 lea	 ecx, DWORD PTR [eax+ebx+2]
  00984	eb 3a		 jmp	 SHORT $LN360@Convert
$LN308@Convert:

; 509  : 			}
; 510  : 			else if ( (Attribute2 & 0x3F) > 0 )

  00986	80 7d 1b 00	 cmp	 BYTE PTR tv3263[ebp], 0
  0098a	76 38		 jbe	 SHORT $LN160@Convert

; 511  : 			{
; 512  : 				if ( p->Level != 0 )

  0098c	8a 81 22 00 00
	00		 mov	 al, BYTE PTR ?ItemAttribute@@3PAUITEM_ATTRIBUTE@@A[ecx+34]
  00992	84 c0		 test	 al, al
  00994	74 2e		 je	 SHORT $LN160@Convert

; 513  : 				{
; 514  : 					this->m_Defense += (this->m_Defense * 12) / p->Level + (p->Level / 5 ) + 4;

  00996	0f b7 4e 16	 movzx	 ecx, WORD PTR [esi+22]
  0099a	0f b6 f8	 movzx	 edi, al
  0099d	8b c1		 mov	 eax, ecx
  0099f	8d 04 40	 lea	 eax, DWORD PTR [eax+eax*2]
  009a2	03 c0		 add	 eax, eax
  009a4	03 c0		 add	 eax, eax
  009a6	99		 cdq
  009a7	f7 ff		 idiv	 edi
  009a9	8d 1c 01	 lea	 ebx, DWORD PTR [ecx+eax]
  009ac	b8 67 66 66 66	 mov	 eax, 1717986919		; 66666667H
  009b1	f7 ef		 imul	 edi
  009b3	d1 fa		 sar	 edx, 1
  009b5	8b c2		 mov	 eax, edx
  009b7	c1 e8 1f	 shr	 eax, 31			; 0000001fH
  009ba	03 c2		 add	 eax, edx
  009bc	8d 4c 18 04	 lea	 ecx, DWORD PTR [eax+ebx+4]
$LN360@Convert:
  009c0	66 89 4e 16	 mov	 WORD PTR [esi+22], cx
$LN160@Convert:

; 515  : 				}
; 516  : 			}
; 517  : 			
; 518  : 			if ( ( _type >= ITEMGET(12,3) && _type <= ITEMGET(12,6)) || _type == ITEMGET(13,30) || _type == ITEMGET(13,4) )

  009c4	8b 55 08	 mov	 edx, DWORD PTR __type$[ebp]
  009c7	81 fa 03 18 00
	00		 cmp	 edx, 6147		; 00001803H
  009cd	7c 08		 jl	 SHORT $LN309@Convert
  009cf	81 fa 06 18 00
	00		 cmp	 edx, 6150		; 00001806H
  009d5	7e 19		 jle	 SHORT $LN310@Convert
$LN309@Convert:
  009d7	81 fa 1e 1a 00
	00		 cmp	 edx, 6686		; 00001a1eH
  009dd	74 11		 je	 SHORT $LN310@Convert
  009df	81 fa 04 1a 00
	00		 cmp	 edx, 6660		; 00001a04H
  009e5	74 09		 je	 SHORT $LN310@Convert

; 521  : 			}
; 522  : 			else
; 523  : 			{
; 524  : 				this->m_Defense += this->m_Level * 3;

  009e7	0f b7 46 08	 movzx	 eax, WORD PTR [esi+8]
  009eb	8d 0c 40	 lea	 ecx, DWORD PTR [eax+eax*2]
  009ee	eb 07		 jmp	 SHORT $LN361@Convert
$LN310@Convert:

; 519  : 			{
; 520  : 				this->m_Defense += this->m_Level * 2;

  009f0	0f b7 46 08	 movzx	 eax, WORD PTR [esi+8]
  009f4	8d 0c 00	 lea	 ecx, DWORD PTR [eax+eax]
$LN361@Convert:
  009f7	66 01 4e 16	 add	 WORD PTR [esi+22], cx

; 525  : 			}
; 526  : 
; 527  : 			if ( this->m_Level >= 10 )

  009fb	66 83 f8 0a	 cmp	 ax, 10			; 0000000aH
  009ff	7c 18		 jl	 SHORT $LN155@Convert

; 528  : 			{
; 529  : 				this->m_Defense += (this->m_Level - 9) * (this->m_Level - 8) / 2;

  00a01	0f bf c8	 movsx	 ecx, ax
  00a04	8d 41 f7	 lea	 eax, DWORD PTR [ecx-9]
  00a07	83 c1 f8	 add	 ecx, -8			; fffffff8H
  00a0a	0f af c1	 imul	 eax, ecx
  00a0d	99		 cdq
  00a0e	2b c2		 sub	 eax, edx
  00a10	d1 f8		 sar	 eax, 1
  00a12	66 01 46 16	 add	 WORD PTR [esi+22], ax
$LN313@Convert:

; 501  : 			}
; 502  : 		}
; 503  : 		else 

  00a16	8b 55 08	 mov	 edx, DWORD PTR __type$[ebp]
$LN155@Convert:

; 530  : 			}
; 531  : 		}
; 532  : 	}
; 533  : 
; 534  : 	if ( _type == ITEMGET(13,30) )

  00a19	81 fa 1e 1a 00
	00		 cmp	 edx, 6686		; 00001a1eH
  00a1f	75 2e		 jne	 SHORT $LN153@Convert

; 535  : 	{
; 536  : 		this->m_Defense = this->m_Level*2 + 15;

  00a21	0f b7 46 08	 movzx	 eax, WORD PTR [esi+8]
  00a25	8d 7c 00 0f	 lea	 edi, DWORD PTR [eax+eax+15]
  00a29	66 89 7e 16	 mov	 WORD PTR [esi+22], di

; 537  : 
; 538  : 		if ( this->m_Level >= 10 )

  00a2d	66 83 f8 0a	 cmp	 ax, 10			; 0000000aH
  00a31	7c 24		 jl	 SHORT $LN314@Convert

; 539  : 		{
; 540  : 			this->m_Defense += (this->m_Level - 9) * (this->m_Level - 8) / 2;

  00a33	0f bf c8	 movsx	 ecx, ax
  00a36	8d 41 f7	 lea	 eax, DWORD PTR [ecx-9]
  00a39	83 c1 f8	 add	 ecx, -8			; fffffff8H
  00a3c	0f af c1	 imul	 eax, ecx
  00a3f	99		 cdq
  00a40	2b c2		 sub	 eax, edx

; 541  : 		}
; 542  : 	}
; 543  : 
; 544  : 	if( NEWWINGS(_type) )

  00a42	8b 55 08	 mov	 edx, DWORD PTR __type$[ebp]
  00a45	d1 f8		 sar	 eax, 1
  00a47	03 c7		 add	 eax, edi
  00a49	66 89 46 16	 mov	 WORD PTR [esi+22], ax
  00a4d	eb 08		 jmp	 SHORT $LN314@Convert
$LN153@Convert:
  00a4f	81 fa 64 18 00
	00		 cmp	 edx, 6244		; 00001864H
  00a55	7c 2e		 jl	 SHORT $LN315@Convert
$LN314@Convert:
  00a57	33 c0		 xor	 eax, eax
  00a59	81 fa 7d 18 00
	00		 cmp	 edx, 6269		; 0000187dH
  00a5f	0f 9e c0	 setle	 al
  00a62	85 c0		 test	 eax, eax
  00a64	74 1f		 je	 SHORT $LN315@Convert

; 545  : 	{
; 546  : 		this->m_Defense += this->m_Level * 6;

  00a66	0f b7 46 08	 movzx	 eax, WORD PTR [esi+8]
  00a6a	8d 0c 40	 lea	 ecx, DWORD PTR [eax+eax*2]
  00a6d	03 c9		 add	 ecx, ecx
  00a6f	66 01 4e 16	 add	 WORD PTR [esi+22], cx
  00a73	0f b7 4e 16	 movzx	 ecx, WORD PTR [esi+22]

; 547  : 
; 548  : 		if ( this->m_Level >= 10 )

  00a77	66 83 f8 0a	 cmp	 ax, 10			; 0000000aH
  00a7b	7c 08		 jl	 SHORT $LN315@Convert

; 549  : 		{
; 550  : 			this->m_Defense += (this->m_Level - 9);

  00a7d	8d 44 01 f7	 lea	 eax, DWORD PTR [ecx+eax-9]
  00a81	66 89 46 16	 mov	 WORD PTR [esi+22], ax
$LN315@Convert:

; 551  : 		}
; 552  : 	}
; 553  : 
; 554  : 	if ( p->MagicDefense > 0 )

  00a85	8b 4d 24	 mov	 ecx, DWORD PTR tv3051[ebp]
  00a88	80 b9 2e 00 00
	00 00		 cmp	 BYTE PTR ?ItemAttribute@@3PAUITEM_ATTRIBUTE@@A[ecx+46], 0
  00a8f	76 2f		 jbe	 SHORT $LN149@Convert

; 555  : 	{
; 556  : 		this->m_MagicDefense += this->m_Level * 3;

  00a91	0f b7 46 08	 movzx	 eax, WORD PTR [esi+8]
  00a95	8d 0c 40	 lea	 ecx, DWORD PTR [eax+eax*2]
  00a98	66 01 4e 18	 add	 WORD PTR [esi+24], cx
  00a9c	66 8b 7e 18	 mov	 di, WORD PTR [esi+24]

; 557  : 
; 558  : 		if ( this->m_Level >= 10 )

  00aa0	66 83 f8 0a	 cmp	 ax, 10			; 0000000aH
  00aa4	7c 1a		 jl	 SHORT $LN149@Convert

; 559  : 		{
; 560  : 			this->m_MagicDefense += (this->m_Level - 9) * (this->m_Level - 8) / 2;

  00aa6	0f bf c8	 movsx	 ecx, ax
  00aa9	8d 41 f7	 lea	 eax, DWORD PTR [ecx-9]
  00aac	83 c1 f8	 add	 ecx, -8			; fffffff8H
  00aaf	0f af c1	 imul	 eax, ecx
  00ab2	99		 cdq
  00ab3	2b c2		 sub	 eax, edx
  00ab5	8b 55 08	 mov	 edx, DWORD PTR __type$[ebp]
  00ab8	d1 f8		 sar	 eax, 1
  00aba	03 c7		 add	 eax, edi
  00abc	66 89 46 18	 mov	 WORD PTR [esi+24], ax
$LN149@Convert:

; 561  : 		}
; 562  : 	}
; 563  : 
; 564  : 	this->m_Level &= 15;

  00ac0	66 83 66 08 0f	 and	 WORD PTR [esi+8], 15	; 0000000fH

; 565  : 
; 566  : 	memset(this->m_Special, 0, sizeof(this->m_Special));

  00ac5	33 c0		 xor	 eax, eax
  00ac7	89 46 31	 mov	 DWORD PTR [esi+49], eax
  00aca	89 46 35	 mov	 DWORD PTR [esi+53], eax

; 567  : 	memset(this->m_SpecialValue, 0, sizeof(this->m_SpecialValue));

  00acd	89 46 39	 mov	 DWORD PTR [esi+57], eax
  00ad0	89 46 3d	 mov	 DWORD PTR [esi+61], eax

; 568  : 	this->m_SpecialNum = 0;

  00ad3	88 46 30	 mov	 BYTE PTR [esi+48], al

; 569  : 	this->m_Option1 = 0;

  00ad6	66 89 46 78	 mov	 WORD PTR [esi+120], ax

; 570  : 	this->m_Option2 = 0;
; 571  : 	this->m_Option3 = 0;

  00ada	88 46 7a	 mov	 BYTE PTR [esi+122], al

; 572  : 	this->m_SkillChange = FALSE;

  00add	88 86 90 00 00
	00		 mov	 BYTE PTR [esi+144], al

; 573  : 
; 574  : 	if ( Option1	!= 0 )

  00ae3	38 45 0c	 cmp	 BYTE PTR _Option1$[ebp], al
  00ae6	74 26		 je	 SHORT $LN145@Convert

; 575  : 	{
; 576  : 		if ( p->SkillType != 0 )

  00ae8	8b 4d 24	 mov	 ecx, DWORD PTR tv3051[ebp]
  00aeb	8b 81 64 00 00
	00		 mov	 eax, DWORD PTR ?ItemAttribute@@3PAUITEM_ATTRIBUTE@@A[ecx+100]
  00af1	85 c0		 test	 eax, eax
  00af3	74 19		 je	 SHORT $LN145@Convert

; 577  : 		{
; 578  : 			if ( p->SkillType == 66 )

  00af5	83 f8 42	 cmp	 eax, 66			; 00000042H
  00af8	75 0d		 jne	 SHORT $LN146@Convert

; 579  : 			{
; 580  : 				this->m_SkillChange = TRUE;

  00afa	c6 86 90 00 00
	00 01		 mov	 BYTE PTR [esi+144], 1

; 581  : 				this->m_Special[this->m_SpecialNum] = 0;

  00b01	c6 46 31 00	 mov	 BYTE PTR [esi+49], 0

; 582  : 				this->m_Option1 = 1;
; 583  : 			}
; 584  : 			else

  00b05	eb 03		 jmp	 SHORT $LN362@Convert
$LN146@Convert:

; 585  : 			{
; 586  : 				this->m_Special[this->m_SpecialNum] = p->SkillType;

  00b07	88 46 31	 mov	 BYTE PTR [esi+49], al
$LN362@Convert:

; 587  : 				this->m_Option1 = 1;

  00b0a	c6 46 78 01	 mov	 BYTE PTR [esi+120], 1
$LN145@Convert:

; 588  : 			}
; 589  : 		}
; 590  : 	}
; 591  : 
; 592  : 	if ( this->m_Type == ITEMGET(13,3) )	// Dinorant

  00b0e	b9 03 1a 00 00	 mov	 ecx, 6659		; 00001a03H
  00b13	66 39 4e 06	 cmp	 WORD PTR [esi+6], cx
  00b17	75 0d		 jne	 SHORT $LN144@Convert

; 593  : 	{
; 594  : 		this->m_Option1 = TRUE;
; 595  : 		this->m_Special[this->m_SpecialNum] = 49;

  00b19	0f b6 46 30	 movzx	 eax, BYTE PTR [esi+48]
  00b1d	c6 46 78 01	 mov	 BYTE PTR [esi+120], 1
  00b21	c6 44 30 31 31	 mov	 BYTE PTR [eax+esi+49], 49 ; 00000031H
$LN144@Convert:

; 596  : 	}
; 597  : 
; 598  : 	if ( this->m_Type == ITEMGET(13,4) )	//Dark Horse

  00b26	b9 04 1a 00 00	 mov	 ecx, 6660		; 00001a04H
  00b2b	66 39 4e 06	 cmp	 WORD PTR [esi+6], cx
  00b2f	75 0d		 jne	 SHORT $LN143@Convert

; 599  : 	{
; 600  : 		this->m_Option1 = TRUE;
; 601  : 		this->m_Special[this->m_SpecialNum] = 62;

  00b31	0f b6 46 30	 movzx	 eax, BYTE PTR [esi+48]
  00b35	c6 46 78 01	 mov	 BYTE PTR [esi+120], 1
  00b39	c6 44 30 31 3e	 mov	 BYTE PTR [eax+esi+49], 62 ; 0000003eH
$LN143@Convert:

; 602  : 	}
; 603  : 
; 604  : 	if ( this->m_Type == ITEMGET(13,37) )

  00b3e	b9 25 1a 00 00	 mov	 ecx, 6693		; 00001a25H
  00b43	66 39 4e 06	 cmp	 WORD PTR [esi+6], cx
  00b47	75 0d		 jne	 SHORT $LN142@Convert

; 605  : 	{
; 606  : 		this->m_Option1 = TRUE;
; 607  : 		this->m_Special[this->m_SpecialNum] = 76;

  00b49	0f b6 46 30	 movzx	 eax, BYTE PTR [esi+48]
  00b4d	c6 46 78 01	 mov	 BYTE PTR [esi+120], 1
  00b51	c6 44 30 31 4c	 mov	 BYTE PTR [eax+esi+49], 76 ; 0000004cH
$LN142@Convert:

; 608  : 	}
; 609  : 
; 610  : 	this->m_SpecialNum++;

  00b56	fe 46 30	 inc	 BYTE PTR [esi+48]

; 611  : 
; 612  : 	if ( Option2 != 0 )

  00b59	80 7d 10 00	 cmp	 BYTE PTR _Option2$[ebp], 0
  00b5d	8a 46 30	 mov	 al, BYTE PTR [esi+48]
  00b60	74 6e		 je	 SHORT $LN137@Convert

; 613  : 	{
; 614  : 		if ( _type >= ITEMGET(0,0) && _type < ITEMGET(12,0) )

  00b62	b1 54		 mov	 cl, 84			; 00000054H
  00b64	85 d2		 test	 edx, edx
  00b66	78 13		 js	 SHORT $LN316@Convert
  00b68	81 fa 00 18 00
	00		 cmp	 edx, 6144		; 00001800H
  00b6e	7d 13		 jge	 SHORT $LN294@Convert

; 615  : 		{
; 616  : 			this->m_Special[this->m_SpecialNum] = 84;

  00b70	0f b6 c0	 movzx	 eax, al
  00b73	88 4c 30 31	 mov	 BYTE PTR [eax+esi+49], cl

; 617  : 			this->m_Option2 = 1;

  00b77	c6 46 79 01	 mov	 BYTE PTR [esi+121], 1
$LN316@Convert:

; 618  : 		}
; 619  : 
; 620  : 		if ( _type >= ITEMGET(12,0) && _type <= ITEMGET(12,6) )	// Wings

  00b7b	81 fa 00 18 00
	00		 cmp	 edx, 6144		; 00001800H
  00b81	7c 14		 jl	 SHORT $LN139@Convert
$LN294@Convert:
  00b83	81 fa 06 18 00
	00		 cmp	 edx, 6150		; 00001806H
  00b89	7f 0c		 jg	 SHORT $LN139@Convert

; 621  : 		{
; 622  : 			this->m_Special[this->m_SpecialNum] = 84;

  00b8b	0f b6 46 30	 movzx	 eax, BYTE PTR [esi+48]
  00b8f	88 4c 30 31	 mov	 BYTE PTR [eax+esi+49], cl

; 623  : 			this->m_Option2 = 1;

  00b93	c6 46 79 01	 mov	 BYTE PTR [esi+121], 1
$LN139@Convert:

; 624  : 		}
; 625  : 
; 626  : 		if ( _type == ITEMGET(13,30) )	// Cape of Lord

  00b97	81 fa 1e 1a 00
	00		 cmp	 edx, 6686		; 00001a1eH
  00b9d	75 0e		 jne	 SHORT $LN138@Convert

; 627  : 		{
; 628  : 			this->m_Special[this->m_SpecialNum] = 84;

  00b9f	0f b6 46 30	 movzx	 eax, BYTE PTR [esi+48]
  00ba3	88 4c 30 31	 mov	 BYTE PTR [eax+esi+49], cl

; 629  : 			this->m_Option2 = 1;

  00ba7	c6 46 79 01	 mov	 BYTE PTR [esi+121], 1

; 630  : 		}
; 631  : 
; 632  : 		if( NEWWINGS(_type) )

  00bab	eb 08		 jmp	 SHORT $LN277@Convert
$LN138@Convert:
  00bad	81 fa 64 18 00
	00		 cmp	 edx, 6244		; 00001864H
  00bb3	7c 1b		 jl	 SHORT $LN137@Convert
$LN277@Convert:
  00bb5	33 c0		 xor	 eax, eax
  00bb7	81 fa 7d 18 00
	00		 cmp	 edx, 6269		; 0000187dH
  00bbd	0f 9e c0	 setle	 al
  00bc0	85 c0		 test	 eax, eax
  00bc2	74 0c		 je	 SHORT $LN137@Convert

; 633  : 		{
; 634  : 			this->m_Special[this->m_SpecialNum] = 84;

  00bc4	0f b6 56 30	 movzx	 edx, BYTE PTR [esi+48]
  00bc8	88 4c 32 31	 mov	 BYTE PTR [edx+esi+49], cl

; 635  : 			this->m_Option2 = 1;

  00bcc	c6 46 79 01	 mov	 BYTE PTR [esi+121], 1
$LN137@Convert:

; 636  : 		}
; 637  : 	}
; 638  : 
; 639  : 	this->m_SpecialNum++;

  00bd0	fe 46 30	 inc	 BYTE PTR [esi+48]

; 640  : 
; 641  : 	if ( Option3 != 0 )

  00bd3	8a 45 14	 mov	 al, BYTE PTR _Option3$[ebp]
  00bd6	8a 4e 30	 mov	 cl, BYTE PTR [esi+48]
  00bd9	84 c0		 test	 al, al
  00bdb	0f 84 6c 04 00
	00		 je	 $LN43@Convert

; 642  : 	{
; 643  : 		if ( _type >= ITEMGET(0,0) && _type < ITEMGET(5,0) )

  00be1	8b 55 08	 mov	 edx, DWORD PTR __type$[ebp]
  00be4	b3 50		 mov	 bl, 80			; 00000050H
  00be6	85 d2		 test	 edx, edx
  00be8	78 1f		 js	 SHORT $LN328@Convert
  00bea	81 fa 00 0a 00
	00		 cmp	 edx, 2560		; 00000a00H
  00bf0	7d 1f		 jge	 SHORT $LN293@Convert

; 644  : 		{
; 645  : 			this->m_Special[this->m_SpecialNum] = 80;

  00bf2	0f b6 c9	 movzx	 ecx, cl
  00bf5	88 5c 31 31	 mov	 BYTE PTR [ecx+esi+49], bl

; 646  : 			this->m_Option3 = Option3;
; 647  : 			this->m_RequireStrength +=  Option3 * 4;

  00bf9	0f b6 c8	 movzx	 ecx, al
  00bfc	66 03 c9	 add	 cx, cx
  00bff	66 03 c9	 add	 cx, cx
  00c02	66 01 4e 42	 add	 WORD PTR [esi+66], cx
  00c06	88 46 7a	 mov	 BYTE PTR [esi+122], al
$LN328@Convert:

; 648  : 		}
; 649  : 
; 650  : 		if ( _type >= ITEMGET(5,0) && _type < ITEMGET(6,0) )

  00c09	81 fa 00 0a 00
	00		 cmp	 edx, 2560		; 00000a00H
  00c0f	7c 21		 jl	 SHORT $LN329@Convert
$LN293@Convert:
  00c11	81 fa 00 0c 00
	00		 cmp	 edx, 3072		; 00000c00H
  00c17	7d 21		 jge	 SHORT $LN292@Convert

; 651  : 		{
; 652  : 			this->m_Special[this->m_SpecialNum] = 81;

  00c19	0f b6 4e 30	 movzx	 ecx, BYTE PTR [esi+48]
  00c1d	c6 44 31 31 51	 mov	 BYTE PTR [ecx+esi+49], 81 ; 00000051H

; 653  : 			this->m_Option3 = Option3;
; 654  : 			this->m_RequireStrength +=  Option3 * 4;

  00c22	0f b6 c8	 movzx	 ecx, al
  00c25	66 03 c9	 add	 cx, cx
  00c28	66 03 c9	 add	 cx, cx
  00c2b	66 01 4e 42	 add	 WORD PTR [esi+66], cx
  00c2f	88 46 7a	 mov	 BYTE PTR [esi+122], al
$LN329@Convert:

; 655  : 		}
; 656  : 		
; 657  : 		if ( _type >= ITEMGET(6,0) && _type < ITEMGET(7,0) )

  00c32	81 fa 00 0c 00
	00		 cmp	 edx, 3072		; 00000c00H
  00c38	7c 21		 jl	 SHORT $LN330@Convert
$LN292@Convert:
  00c3a	81 fa 00 0e 00
	00		 cmp	 edx, 3584		; 00000e00H
  00c40	7d 21		 jge	 SHORT $LN291@Convert

; 658  : 		{
; 659  : 			this->m_Special[this->m_SpecialNum] = 82;

  00c42	0f b6 4e 30	 movzx	 ecx, BYTE PTR [esi+48]
  00c46	c6 44 31 31 52	 mov	 BYTE PTR [ecx+esi+49], 82 ; 00000052H

; 660  : 			this->m_Option3 = Option3;
; 661  : 			this->m_RequireStrength +=  Option3 * 4;

  00c4b	0f b6 c8	 movzx	 ecx, al
  00c4e	66 03 c9	 add	 cx, cx
  00c51	66 03 c9	 add	 cx, cx
  00c54	66 01 4e 42	 add	 WORD PTR [esi+66], cx
  00c58	88 46 7a	 mov	 BYTE PTR [esi+122], al
$LN330@Convert:

; 662  : 		}
; 663  : 
; 664  : 		if ( _type >= ITEMGET(7,0) && _type < ITEMGET(12,0) )

  00c5b	81 fa 00 0e 00
	00		 cmp	 edx, 3584		; 00000e00H
  00c61	7c 21		 jl	 SHORT $LN132@Convert
$LN291@Convert:
  00c63	81 fa 00 18 00
	00		 cmp	 edx, 6144		; 00001800H
  00c69	7d 19		 jge	 SHORT $LN132@Convert

; 665  : 		{
; 666  : 			this->m_Special[this->m_SpecialNum] = 83;

  00c6b	0f b6 56 30	 movzx	 edx, BYTE PTR [esi+48]

; 667  : 			this->m_Option3 = Option3;
; 668  : 			this->m_RequireStrength +=  Option3 * 4;

  00c6f	0f b6 c8	 movzx	 ecx, al
  00c72	66 03 c9	 add	 cx, cx
  00c75	c6 44 32 31 53	 mov	 BYTE PTR [edx+esi+49], 83 ; 00000053H
  00c7a	66 03 c9	 add	 cx, cx
  00c7d	66 01 4e 42	 add	 WORD PTR [esi+66], cx
  00c81	88 46 7a	 mov	 BYTE PTR [esi+122], al
$LN132@Convert:

; 669  : 		}
; 670  : 
; 671  : 		if ( (_type >= ITEMGET(13,8) && _type < ITEMGET(13,14)) || (_type >= ITEMGET(13,20) && _type <= ITEMGET(13,28)) )

  00c84	8b 7d 08	 mov	 edi, DWORD PTR __type$[ebp]
  00c87	b2 55		 mov	 dl, 85			; 00000055H
  00c89	81 ff 08 1a 00
	00		 cmp	 edi, 6664		; 00001a08H
  00c8f	7c 08		 jl	 SHORT $LN129@Convert
  00c91	81 ff 0e 1a 00
	00		 cmp	 edi, 6670		; 00001a0eH
  00c97	7c 0b		 jl	 SHORT $LN130@Convert
$LN129@Convert:
  00c99	8d 8f ec e5 ff
	ff		 lea	 ecx, DWORD PTR [edi-6676]
  00c9f	83 f9 08	 cmp	 ecx, 8
  00ca2	77 39		 ja	 SHORT $LN125@Convert
$LN130@Convert:

; 672  : 		{
; 673  : 			if ( _type == ITEMGET(13,24) ) // Ring of MAgic

  00ca4	81 ff 18 1a 00
	00		 cmp	 edi, 6680		; 00001a18H
  00caa	75 11		 jne	 SHORT $LN128@Convert

; 674  : 			{
; 675  : 				this->m_Special[this->m_SpecialNum] = 172;

  00cac	0f b6 56 30	 movzx	 edx, BYTE PTR [esi+48]
  00cb0	c6 44 32 31 ac	 mov	 BYTE PTR [edx+esi+49], 172 ; 000000acH

; 676  : 				this->m_Option3 = Option3;

  00cb5	88 46 7a	 mov	 BYTE PTR [esi+122], al
  00cb8	e9 90 03 00 00	 jmp	 $LN43@Convert
$LN128@Convert:

; 677  : 			}
; 678  : 			else if ( _type == ITEMGET(13,28) ) // Pendant of abilit
; 679  : 			{
; 680  : 				this->m_Special[this->m_SpecialNum] = 173;

  00cbd	0f b6 4e 30	 movzx	 ecx, BYTE PTR [esi+48]
  00cc1	81 ff 1c 1a 00
	00		 cmp	 edi, 6684		; 00001a1cH
  00cc7	75 0d		 jne	 SHORT $LN126@Convert
  00cc9	c6 44 31 31 ad	 mov	 BYTE PTR [ecx+esi+49], 173 ; 000000adH

; 681  : 				this->m_Option3 = Option3;

  00cce	88 46 7a	 mov	 BYTE PTR [esi+122], al

; 682  : 			}
; 683  : 			else  

  00cd1	e9 77 03 00 00	 jmp	 $LN43@Convert
$LN126@Convert:

; 684  : 			{
; 685  : 				this->m_Special[this->m_SpecialNum] = 85;

  00cd6	88 54 31 31	 mov	 BYTE PTR [ecx+esi+49], dl

; 686  : 				this->m_Option3 = Option3;

  00cda	88 46 7a	 mov	 BYTE PTR [esi+122], al
$LN125@Convert:

; 687  : 			}
; 688  : 		}
; 689  : 		
; 690  : 		if ( _type == ITEMGET(13,30) ) // Cape of lord 

  00cdd	81 ff 1e 1a 00
	00		 cmp	 edi, 6686		; 00001a1eH
  00ce3	75 32		 jne	 SHORT $LN124@Convert

; 691  : 		{
; 692  : 			this->m_Special[this->m_SpecialNum] = 80;

  00ce5	0f b6 56 30	 movzx	 edx, BYTE PTR [esi+48]

; 693  : 			this->m_Option3 = Option3;
; 694  : 			this->m_RequireStrength +=  Option3 * 4;

  00ce9	0f b6 c8	 movzx	 ecx, al
  00cec	88 5c 32 31	 mov	 BYTE PTR [edx+esi+49], bl
  00cf0	66 03 c9	 add	 cx, cx
  00cf3	66 03 c9	 add	 cx, cx
  00cf6	66 01 4e 42	 add	 WORD PTR [esi+66], cx
  00cfa	66 8b 56 42	 mov	 dx, WORD PTR [esi+66]
  00cfe	88 46 7a	 mov	 BYTE PTR [esi+122], al

; 799  : 		{
; 800  : 			this->m_Option3 = Option3;

  00d01	88 46 7a	 mov	 BYTE PTR [esi+122], al

; 801  : 			this->m_RequireStrength +=  Option3 * 4;

  00d04	03 d1		 add	 edx, ecx

; 802  : 			this->m_Special[this->m_SpecialNum] = 0x50;

  00d06	0f b6 4e 30	 movzx	 ecx, BYTE PTR [esi+48]
  00d0a	66 89 56 42	 mov	 WORD PTR [esi+66], dx
  00d0e	88 5c 31 31	 mov	 BYTE PTR [ecx+esi+49], bl

; 803  : 		}
; 804  : 
; 805  : 		if( _type == ITEMGET(12, 100) )

  00d12	e9 36 03 00 00	 jmp	 $LN43@Convert
$LN124@Convert:

; 695  : 		}
; 696  : 
; 697  : 		if ( _type == ITEMGET(12,0) )	// Wing elf

  00d17	81 ff 00 18 00
	00		 cmp	 edi, 6144		; 00001800H
  00d1d	75 10		 jne	 SHORT $LN123@Convert

; 698  : 		{
; 699  : 			this->m_Special[this->m_SpecialNum] = 85;

  00d1f	0f b6 4e 30	 movzx	 ecx, BYTE PTR [esi+48]
  00d23	88 54 31 31	 mov	 BYTE PTR [ecx+esi+49], dl

; 700  : 			this->m_Option3 = Option3;

  00d27	88 46 7a	 mov	 BYTE PTR [esi+122], al
  00d2a	e9 1e 03 00 00	 jmp	 $LN43@Convert
$LN123@Convert:

; 701  : 		}
; 702  : 		else if ( _type == ITEMGET(12,1) ) // winf Heaven

  00d2f	81 ff 01 18 00
	00		 cmp	 edi, 6145		; 00001801H
  00d35	75 1e		 jne	 SHORT $LN121@Convert

; 703  : 		{
; 704  : 			this->m_Special[this->m_SpecialNum] = 81;

  00d37	0f b6 56 30	 movzx	 edx, BYTE PTR [esi+48]
  00d3b	c6 44 32 31 51	 mov	 BYTE PTR [edx+esi+49], 81 ; 00000051H

; 705  : 			this->m_Option3 = Option3;

  00d40	88 46 7a	 mov	 BYTE PTR [esi+122], al

; 706  : 			this->m_RequireStrength +=  Option3 * 4;

  00d43	0f b6 c0	 movzx	 eax, al
  00d46	66 03 c0	 add	 ax, ax
  00d49	66 03 c0	 add	 ax, ax
  00d4c	66 01 46 42	 add	 WORD PTR [esi+66], ax
  00d50	e9 f8 02 00 00	 jmp	 $LN43@Convert
$LN121@Convert:

; 707  : 		}
; 708  : 		else if ( _type == ITEMGET(12,2) ) // wing devil

  00d55	81 ff 02 18 00
	00		 cmp	 edi, 6146		; 00001802H
  00d5b	75 1d		 jne	 SHORT $LN119@Convert

; 709  : 		{
; 710  : 			this->m_Special[this->m_SpecialNum] = 80;

  00d5d	0f b6 4e 30	 movzx	 ecx, BYTE PTR [esi+48]

; 711  : 			this->m_Option3 = Option3;
; 712  : 			this->m_RequireStrength +=  Option3 * 4;

  00d61	0f b6 d0	 movzx	 edx, al
  00d64	66 03 d2	 add	 dx, dx
  00d67	88 5c 31 31	 mov	 BYTE PTR [ecx+esi+49], bl
  00d6b	66 03 d2	 add	 dx, dx
  00d6e	66 01 56 42	 add	 WORD PTR [esi+66], dx
  00d72	88 46 7a	 mov	 BYTE PTR [esi+122], al
  00d75	e9 d3 02 00 00	 jmp	 $LN43@Convert
$LN119@Convert:

; 713  : 		}
; 714  : 		else if ( _type == ITEMGET(12,3) ) // wing spitits

  00d7a	81 ff 03 18 00
	00		 cmp	 edi, 6147		; 00001803H
  00d80	75 2b		 jne	 SHORT $LN117@Convert

; 715  : 		{
; 716  : 			this->m_Special[this->m_SpecialNum] = 80;

  00d82	0f b6 4e 30	 movzx	 ecx, BYTE PTR [esi+48]
  00d86	88 5c 31 31	 mov	 BYTE PTR [ecx+esi+49], bl

; 717  : 			this->m_Option3 = Option3;

  00d8a	88 46 7a	 mov	 BYTE PTR [esi+122], al

; 718  : 			this->m_RequireStrength +=  Option3 * 4;

  00d8d	0f b6 c0	 movzx	 eax, al
  00d90	66 03 c0	 add	 ax, ax
  00d93	66 03 c0	 add	 ax, ax
  00d96	66 01 46 42	 add	 WORD PTR [esi+66], ax

; 719  : 
; 720  : 			if ( (this->m_NewOption&0x20) != 0 )

  00d9a	f6 46 7b 20	 test	 BYTE PTR [esi+123], 32	; 00000020H
  00d9e	74 64		 je	 SHORT $LN116@Convert

; 721  : 			{
; 722  : 				this->m_Special[this->m_SpecialNum] = 85;

  00da0	0f b6 4e 30	 movzx	 ecx, BYTE PTR [esi+48]
  00da4	88 54 31 31	 mov	 BYTE PTR [ecx+esi+49], dl

; 723  : 			}
; 724  : 			else

  00da8	e9 a0 02 00 00	 jmp	 $LN43@Convert
$LN117@Convert:

; 725  : 			{
; 726  : 				this->m_Special[this->m_SpecialNum] = 80;
; 727  : 			}
; 728  : 
; 729  : 		}
; 730  : 		else if ( _type == ITEMGET(12,4) ) // wing soul

  00dad	81 ff 04 18 00
	00		 cmp	 edi, 6148		; 00001804H
  00db3	75 31		 jne	 SHORT $LN113@Convert

; 731  : 		{
; 732  : 			this->m_Option3 = Option3;

  00db5	88 46 7a	 mov	 BYTE PTR [esi+122], al

; 733  : 			this->m_RequireStrength +=  Option3 * 4;

  00db8	0f b6 c0	 movzx	 eax, al
  00dbb	66 03 c0	 add	 ax, ax
  00dbe	66 03 c0	 add	 ax, ax
  00dc1	66 01 46 42	 add	 WORD PTR [esi+66], ax

; 734  : 
; 735  : 			if ( (this->m_NewOption&0x20) != 0 )

  00dc5	f6 46 7b 20	 test	 BYTE PTR [esi+123], 32	; 00000020H
  00dc9	74 0e		 je	 SHORT $LN112@Convert

; 736  : 			{
; 737  : 				this->m_Special[this->m_SpecialNum] = 81;

  00dcb	0f b6 4e 30	 movzx	 ecx, BYTE PTR [esi+48]
  00dcf	c6 44 31 31 51	 mov	 BYTE PTR [ecx+esi+49], 81 ; 00000051H

; 738  : 			}
; 739  : 			else

  00dd4	e9 74 02 00 00	 jmp	 $LN43@Convert
$LN112@Convert:

; 740  : 			{
; 741  : 				this->m_Special[this->m_SpecialNum] = 85;

  00dd9	0f b6 46 30	 movzx	 eax, BYTE PTR [esi+48]
  00ddd	88 54 30 31	 mov	 BYTE PTR [eax+esi+49], dl

; 742  : 			}

  00de1	e9 67 02 00 00	 jmp	 $LN43@Convert
$LN113@Convert:

; 743  : 
; 744  : 		}
; 745  : 		else if ( _type == ITEMGET(12,5) ) // wing dragon

  00de6	81 ff 05 18 00
	00		 cmp	 edi, 6149		; 00001805H
  00dec	75 23		 jne	 SHORT $LN109@Convert

; 746  : 		{
; 747  : 			this->m_Option3 = Option3;
; 748  : 			this->m_RequireStrength +=  Option3 * 4;

  00dee	0f b6 c8	 movzx	 ecx, al
  00df1	66 03 c9	 add	 cx, cx
  00df4	66 03 c9	 add	 cx, cx
  00df7	66 01 4e 42	 add	 WORD PTR [esi+66], cx

; 749  : 
; 750  : 			if ( (this->m_NewOption&0x20) != 0 )

  00dfb	f6 46 7b 20	 test	 BYTE PTR [esi+123], 32	; 00000020H
  00dff	88 46 7a	 mov	 BYTE PTR [esi+122], al
  00e02	74 d5		 je	 SHORT $LN112@Convert
$LN116@Convert:

; 751  : 			{
; 752  : 				this->m_Special[this->m_SpecialNum] = 80;

  00e04	0f b6 56 30	 movzx	 edx, BYTE PTR [esi+48]
  00e08	88 5c 32 31	 mov	 BYTE PTR [edx+esi+49], bl

; 753  : 			}
; 754  : 			else

  00e0c	e9 3c 02 00 00	 jmp	 $LN43@Convert
$LN109@Convert:

; 755  : 			{
; 756  : 				this->m_Special[this->m_SpecialNum] = 85;
; 757  : 			}
; 758  : 
; 759  : 		}			
; 760  : 		else if ( _type == ITEMGET(12,6) ) // wing darkness

  00e11	81 ff 06 18 00
	00		 cmp	 edi, 6150		; 00001806H
  00e17	75 31		 jne	 SHORT $LN105@Convert

; 761  : 		{
; 762  : 			this->m_Option3 = Option3;
; 763  : 			this->m_RequireStrength +=  Option3 * 4;

  00e19	0f b6 c8	 movzx	 ecx, al
  00e1c	66 03 c9	 add	 cx, cx
  00e1f	66 03 c9	 add	 cx, cx
  00e22	66 01 4e 42	 add	 WORD PTR [esi+66], cx

; 764  : 
; 765  : 			if ( (this->m_NewOption&0x20) != 0 )

  00e26	f6 46 7b 20	 test	 BYTE PTR [esi+123], 32	; 00000020H
  00e2a	88 46 7a	 mov	 BYTE PTR [esi+122], al
  00e2d	74 0d		 je	 SHORT $LN104@Convert

; 766  : 			{
; 767  : 				this->m_Special[this->m_SpecialNum] = 80;

  00e2f	0f b6 56 30	 movzx	 edx, BYTE PTR [esi+48]
  00e33	88 5c 32 31	 mov	 BYTE PTR [edx+esi+49], bl

; 768  : 			}
; 769  : 			else

  00e37	e9 11 02 00 00	 jmp	 $LN43@Convert
$LN104@Convert:

; 770  : 			{
; 771  : 				this->m_Special[this->m_SpecialNum] = 81;

  00e3c	0f b6 46 30	 movzx	 eax, BYTE PTR [esi+48]
  00e40	c6 44 30 31 51	 mov	 BYTE PTR [eax+esi+49], 81 ; 00000051H

; 772  : 			}

  00e45	e9 03 02 00 00	 jmp	 $LN43@Convert
$LN105@Convert:

; 773  : 
; 774  : 		}
; 775  : 		else if ( _type == ITEMGET(13,3) ) // dinorant

  00e4a	81 ff 03 1a 00
	00		 cmp	 edi, 6659		; 00001a03H
  00e50	75 41		 jne	 SHORT $LN97@Convert

; 776  : 		{
; 777  : 			this->m_Option3 = Option3;

  00e52	88 46 7a	 mov	 BYTE PTR [esi+122], al

; 778  : 	
; 779  : 			if ( (this->m_Option3&0x02) != 0 )

  00e55	a8 02		 test	 al, 2
  00e57	74 0c		 je	 SHORT $LN100@Convert

; 780  : 			{
; 781  : 				this->m_Special[this->m_SpecialNum] = 0x67;

  00e59	0f b6 4e 30	 movzx	 ecx, BYTE PTR [esi+48]
  00e5d	c6 44 31 31 67	 mov	 BYTE PTR [ecx+esi+49], 103 ; 00000067H

; 782  : 				this->m_SpecialNum++;

  00e62	fe 46 30	 inc	 BYTE PTR [esi+48]
$LN100@Convert:

; 783  : 			}
; 784  : 		
; 785  : 			if ( (this->m_Option3&0x04) != 0 )

  00e65	f6 46 7a 04	 test	 BYTE PTR [esi+122], 4
  00e69	74 10		 je	 SHORT $LN99@Convert

; 786  : 			{
; 787  : 				this->m_Special[this->m_SpecialNum] = 0x61;

  00e6b	0f b6 56 30	 movzx	 edx, BYTE PTR [esi+48]
  00e6f	c6 44 32 31 61	 mov	 BYTE PTR [edx+esi+49], 97 ; 00000061H

; 788  : 				this->m_SpecialNum++;

  00e74	fe 46 30	 inc	 BYTE PTR [esi+48]

; 789  : 				this->m_AttackSpeed+=5;

  00e77	80 46 0d 05	 add	 BYTE PTR [esi+13], 5
$LN99@Convert:

; 790  : 			}
; 791  : 		
; 792  : 			if ( (this->m_Option3&0x01) != 0 )

  00e7b	f6 46 7a 01	 test	 BYTE PTR [esi+122], 1
  00e7f	0f 84 c8 01 00
	00		 je	 $LN43@Convert

; 793  : 			{
; 794  : 				this->m_Special[this->m_SpecialNum] = 0x68;

  00e85	0f b6 46 30	 movzx	 eax, BYTE PTR [esi+48]
  00e89	c6 44 30 31 68	 mov	 BYTE PTR [eax+esi+49], 104 ; 00000068H

; 795  : 			}
; 796  : 		}
; 797  : 
; 798  : 		if ( _type == ITEMGET(13,30) ) // Cape ofLord

  00e8e	e9 ba 01 00 00	 jmp	 $LN43@Convert
$LN97@Convert:

; 803  : 		}
; 804  : 
; 805  : 		if( _type == ITEMGET(12, 100) )

  00e93	81 ff 64 18 00
	00		 cmp	 edi, 6244		; 00001864H
  00e99	75 36		 jne	 SHORT $LN93@Convert
$LN369@Convert:

; 806  : 		{
; 807  : 			this->m_Option3 = Option3;

  00e9b	88 46 7a	 mov	 BYTE PTR [esi+122], al

; 808  : 			this->m_Special[this->m_SpecialNum] = 85;

  00e9e	0f b6 46 30	 movzx	 eax, BYTE PTR [esi+48]
  00ea2	88 54 30 31	 mov	 BYTE PTR [eax+esi+49], dl

; 809  : 			
; 810  : 			if( (this->m_NewOption & 0x10) != FALSE )

  00ea6	8a 46 7b	 mov	 al, BYTE PTR [esi+123]
  00ea9	a8 10		 test	 al, 16			; 00000010H
  00eab	74 0e		 je	 SHORT $LN95@Convert

; 811  : 			{
; 812  : 				this->m_Special[this->m_SpecialNum] = 81;

  00ead	0f b6 4e 30	 movzx	 ecx, BYTE PTR [esi+48]
  00eb1	c6 44 31 31 51	 mov	 BYTE PTR [ecx+esi+49], 81 ; 00000051H
  00eb6	e9 92 01 00 00	 jmp	 $LN43@Convert
$LN95@Convert:

; 813  : 			}
; 814  : 			else if( (this->m_NewOption & 0x20) != FALSE )

  00ebb	a8 20		 test	 al, 32			; 00000020H
  00ebd	0f 84 8a 01 00
	00		 je	 $LN43@Convert

; 815  : 			{
; 816  : 				this->m_Special[this->m_SpecialNum] = 83;

  00ec3	0f b6 56 30	 movzx	 edx, BYTE PTR [esi+48]
  00ec7	c6 44 32 31 53	 mov	 BYTE PTR [edx+esi+49], 83 ; 00000053H

; 817  : 			}
; 818  : 		}
; 819  : 		
; 820  : 		if ( _type == ITEMGET(12, 101) )

  00ecc	e9 7c 01 00 00	 jmp	 $LN43@Convert
$LN93@Convert:
  00ed1	81 ff 65 18 00
	00		 cmp	 edi, 6245		; 00001865H
  00ed7	75 1f		 jne	 SHORT $LN89@Convert
$LN367@Convert:

; 821  : 		{
; 822  : 			this->m_Option3 = Option3;

  00ed9	88 46 7a	 mov	 BYTE PTR [esi+122], al

; 823  : 			this->m_Special[this->m_SpecialNum] = 85;

  00edc	0f b6 46 30	 movzx	 eax, BYTE PTR [esi+48]
  00ee0	88 54 30 31	 mov	 BYTE PTR [eax+esi+49], dl

; 824  : 			
; 825  : 			if( (this->m_NewOption & 0x10) != FALSE )

  00ee4	8a 46 7b	 mov	 al, BYTE PTR [esi+123]
  00ee7	a8 10		 test	 al, 16			; 00000010H
  00ee9	74 d0		 je	 SHORT $LN95@Convert

; 826  : 			{
; 827  : 				this->m_Special[this->m_SpecialNum] = 80;

  00eeb	0f b6 4e 30	 movzx	 ecx, BYTE PTR [esi+48]
  00eef	88 5c 31 31	 mov	 BYTE PTR [ecx+esi+49], bl
  00ef3	e9 55 01 00 00	 jmp	 $LN43@Convert
$LN89@Convert:

; 828  : 			}
; 829  : 			else if( (this->m_NewOption & 0x20) != FALSE )
; 830  : 			{
; 831  : 				this->m_Special[this->m_SpecialNum] = 83;
; 832  : 			}
; 833  : 		}
; 834  : 		
; 835  : 		if ( _type == ITEMGET(12, 102) )

  00ef8	81 ff 66 18 00
	00		 cmp	 edi, 6246		; 00001866H

; 836  : 		{
; 837  : 			this->m_Option3 = Option3;
; 838  : 			this->m_Special[this->m_SpecialNum] = 85;
; 839  : 			
; 840  : 			if( (this->m_NewOption & 0x10) != FALSE )
; 841  : 			{
; 842  : 				this->m_Special[this->m_SpecialNum] = 81;

  00efe	74 9b		 je	 SHORT $LN369@Convert

; 843  : 			}
; 844  : 			else if( (this->m_NewOption & 0x20) != FALSE )
; 845  : 			{
; 846  : 				this->m_Special[this->m_SpecialNum] = 83;
; 847  : 			}
; 848  : 		}
; 849  : 		
; 850  : 		if ( _type == ITEMGET(12, 103) )

  00f00	81 ff 67 18 00
	00		 cmp	 edi, 6247		; 00001867H
  00f06	75 35		 jne	 SHORT $LN81@Convert

; 851  : 		{
; 852  : 			this->m_Option3 = Option3;

  00f08	88 46 7a	 mov	 BYTE PTR [esi+122], al

; 853  : 			this->m_Special[this->m_SpecialNum] = 85;

  00f0b	0f b6 46 30	 movzx	 eax, BYTE PTR [esi+48]
  00f0f	88 54 30 31	 mov	 BYTE PTR [eax+esi+49], dl

; 854  : 			
; 855  : 			if( (this->m_NewOption & 0x10) != FALSE )

  00f13	8a 46 7b	 mov	 al, BYTE PTR [esi+123]
  00f16	a8 10		 test	 al, 16			; 00000010H
  00f18	74 0d		 je	 SHORT $LN83@Convert

; 856  : 			{
; 857  : 				this->m_Special[this->m_SpecialNum] = 80;

  00f1a	0f b6 4e 30	 movzx	 ecx, BYTE PTR [esi+48]
  00f1e	88 5c 31 31	 mov	 BYTE PTR [ecx+esi+49], bl
  00f22	e9 26 01 00 00	 jmp	 $LN43@Convert
$LN83@Convert:

; 858  : 			}
; 859  : 			else if( (this->m_NewOption & 0x20) != FALSE )

  00f27	a8 20		 test	 al, 32			; 00000020H
  00f29	0f 84 1e 01 00
	00		 je	 $LN43@Convert

; 860  : 			{
; 861  : 				this->m_Special[this->m_SpecialNum] = 81;

  00f2f	0f b6 56 30	 movzx	 edx, BYTE PTR [esi+48]
  00f33	c6 44 32 31 51	 mov	 BYTE PTR [edx+esi+49], 81 ; 00000051H

; 862  : 			}
; 863  : 		}
; 864  : 		
; 865  : 		if ( _type == ITEMGET(12, 104) || _type == ITEMGET(12, 106) )

  00f38	e9 10 01 00 00	 jmp	 $LN43@Convert
$LN81@Convert:
  00f3d	81 ff 68 18 00
	00		 cmp	 edi, 6248		; 00001868H
  00f43	74 08		 je	 SHORT $LN79@Convert
  00f45	81 ff 6a 18 00
	00		 cmp	 edi, 6250		; 0000186aH
  00f4b	75 2b		 jne	 SHORT $LN76@Convert
$LN79@Convert:

; 866  : 		{
; 867  : 			this->m_Option3 = Option3;
; 868  : 			this->m_Special[this->m_SpecialNum] = 85;

  00f4d	0f b6 4e 30	 movzx	 ecx, BYTE PTR [esi+48]
  00f51	88 46 7a	 mov	 BYTE PTR [esi+122], al
  00f54	88 54 31 31	 mov	 BYTE PTR [ecx+esi+49], dl

; 869  : 			
; 870  : 			if( (this->m_NewOption & 0x10) != FALSE )

  00f58	8a 4e 7b	 mov	 cl, BYTE PTR [esi+123]
  00f5b	f6 c1 10	 test	 cl, 16			; 00000010H
  00f5e	74 0a		 je	 SHORT $LN78@Convert

; 871  : 			{
; 872  : 				this->m_Special[this->m_SpecialNum] = 80;

  00f60	0f b6 4e 30	 movzx	 ecx, BYTE PTR [esi+48]
  00f64	88 5c 31 31	 mov	 BYTE PTR [ecx+esi+49], bl
  00f68	eb 0e		 jmp	 SHORT $LN76@Convert
$LN78@Convert:

; 873  : 			}
; 874  : 			else if( (this->m_NewOption & 0x20) != FALSE )

  00f6a	f6 c1 20	 test	 cl, 32			; 00000020H
  00f6d	74 09		 je	 SHORT $LN76@Convert

; 875  : 			{
; 876  : 				this->m_Special[this->m_SpecialNum] = 83;

  00f6f	0f b6 4e 30	 movzx	 ecx, BYTE PTR [esi+48]
  00f73	c6 44 31 31 53	 mov	 BYTE PTR [ecx+esi+49], 83 ; 00000053H
$LN76@Convert:

; 877  : 			}
; 878  : 		}
; 879  : 		
; 880  : 		if ( _type == ITEMGET(12, 105) )

  00f78	81 ff 69 18 00
	00		 cmp	 edi, 6249		; 00001869H

; 881  : 		{
; 882  : 			this->m_Option3 = Option3;
; 883  : 			this->m_Special[this->m_SpecialNum] = 85;
; 884  : 			
; 885  : 			if( (this->m_NewOption & 0x10) != FALSE )
; 886  : 			{
; 887  : 				this->m_Special[this->m_SpecialNum] = 81;
; 888  : 			}
; 889  : 			else if( (this->m_NewOption & 0x20) != FALSE )
; 890  : 			{
; 891  : 				this->m_Special[this->m_SpecialNum] = 113;
; 892  : 			}
; 893  : 		}
; 894  : 
; 895  : 		if( _type == ITEMGET(12, 107) )

  00f7e	0f 84 9f 00 00
	00		 je	 $LN366@Convert
  00f84	81 ff 6b 18 00
	00		 cmp	 edi, 6251		; 0000186bH

; 896  : 		{
; 897  : 			this->m_Option3 = Option3;
; 898  : 			this->m_Special[this->m_SpecialNum] = 85;
; 899  : 			
; 900  : 			if( (this->m_NewOption & 0x10) != FALSE )
; 901  : 			{
; 902  : 				this->m_Special[this->m_SpecialNum] = 81;

  00f8a	0f 84 0b ff ff
	ff		 je	 $LN369@Convert

; 903  : 			}
; 904  : 			else if( (this->m_NewOption & 0x20) != FALSE )
; 905  : 			{
; 906  : 				this->m_Special[this->m_SpecialNum] = 83;
; 907  : 			}
; 908  : 		}
; 909  : 		
; 910  : 		if ( _type == ITEMGET(12, 108) )

  00f90	81 ff 6c 18 00
	00		 cmp	 edi, 6252		; 0000186cH

; 911  : 		{
; 912  : 			this->m_Option3 = Option3;
; 913  : 			this->m_Special[this->m_SpecialNum] = 85;
; 914  : 			
; 915  : 			if( (this->m_NewOption & 0x10) != FALSE )
; 916  : 			{
; 917  : 				this->m_Special[this->m_SpecialNum] = 80;

  00f96	0f 84 3d ff ff
	ff		 je	 $LN367@Convert

; 918  : 			}
; 919  : 			else if( (this->m_NewOption & 0x20) != FALSE )
; 920  : 			{
; 921  : 				this->m_Special[this->m_SpecialNum] = 83;
; 922  : 			}
; 923  : 		}
; 924  : 		
; 925  : 		if ( _type == ITEMGET(12, 109) )

  00f9c	81 ff 6d 18 00
	00		 cmp	 edi, 6253		; 0000186dH

; 926  : 		{
; 927  : 			this->m_Option3 = Option3;
; 928  : 			this->m_Special[this->m_SpecialNum] = 85;
; 929  : 			
; 930  : 			if( (this->m_NewOption & 0x10) != FALSE )
; 931  : 			{
; 932  : 				this->m_Special[this->m_SpecialNum] = 81;

  00fa2	0f 84 f3 fe ff
	ff		 je	 $LN369@Convert

; 933  : 			}
; 934  : 			else if( (this->m_NewOption & 0x20) != FALSE )
; 935  : 			{
; 936  : 				this->m_Special[this->m_SpecialNum] = 83;
; 937  : 			}
; 938  : 		}
; 939  : 		
; 940  : 		if ( _type == ITEMGET(12, 110) )

  00fa8	81 ff 6e 18 00
	00		 cmp	 edi, 6254		; 0000186eH
  00fae	75 20		 jne	 SHORT $LN56@Convert

; 941  : 		{
; 942  : 			this->m_Option3 = Option3;

  00fb0	88 46 7a	 mov	 BYTE PTR [esi+122], al

; 943  : 			this->m_Special[this->m_SpecialNum] = 85;

  00fb3	0f b6 46 30	 movzx	 eax, BYTE PTR [esi+48]
  00fb7	88 54 30 31	 mov	 BYTE PTR [eax+esi+49], dl

; 944  : 			
; 945  : 			if( (this->m_NewOption & 0x10) != FALSE )

  00fbb	8a 46 7b	 mov	 al, BYTE PTR [esi+123]
  00fbe	a8 10		 test	 al, 16			; 00000010H
  00fc0	0f 84 61 ff ff
	ff		 je	 $LN83@Convert

; 826  : 			{
; 827  : 				this->m_Special[this->m_SpecialNum] = 80;

  00fc6	0f b6 4e 30	 movzx	 ecx, BYTE PTR [esi+48]
  00fca	88 5c 31 31	 mov	 BYTE PTR [ecx+esi+49], bl
  00fce	eb 7d		 jmp	 SHORT $LN43@Convert
$LN56@Convert:

; 946  : 			{
; 947  : 				this->m_Special[this->m_SpecialNum] = 80;
; 948  : 			}
; 949  : 			else if( (this->m_NewOption & 0x20) != FALSE )
; 950  : 			{
; 951  : 				this->m_Special[this->m_SpecialNum] = 81;
; 952  : 			}
; 953  : 		}
; 954  : 		
; 955  : 		if ( _type == ITEMGET(12, 111) || _type == ITEMGET(12, 113) )

  00fd0	81 ff 6f 18 00
	00		 cmp	 edi, 6255		; 0000186fH
  00fd6	74 08		 je	 SHORT $LN54@Convert
  00fd8	81 ff 71 18 00
	00		 cmp	 edi, 6257		; 00001871H
  00fde	75 2b		 jne	 SHORT $LN51@Convert
$LN54@Convert:

; 956  : 		{
; 957  : 			this->m_Option3 = Option3;
; 958  : 			this->m_Special[this->m_SpecialNum] = 85;

  00fe0	0f b6 4e 30	 movzx	 ecx, BYTE PTR [esi+48]
  00fe4	88 46 7a	 mov	 BYTE PTR [esi+122], al
  00fe7	88 54 31 31	 mov	 BYTE PTR [ecx+esi+49], dl

; 959  : 			
; 960  : 			if( (this->m_NewOption & 0x10) != FALSE )

  00feb	8a 4e 7b	 mov	 cl, BYTE PTR [esi+123]
  00fee	f6 c1 10	 test	 cl, 16			; 00000010H
  00ff1	74 0a		 je	 SHORT $LN53@Convert

; 961  : 			{
; 962  : 				this->m_Special[this->m_SpecialNum] = 80;

  00ff3	0f b6 4e 30	 movzx	 ecx, BYTE PTR [esi+48]
  00ff7	88 5c 31 31	 mov	 BYTE PTR [ecx+esi+49], bl
  00ffb	eb 0e		 jmp	 SHORT $LN51@Convert
$LN53@Convert:

; 963  : 			}
; 964  : 			else if( (this->m_NewOption & 0x20) != FALSE )

  00ffd	f6 c1 20	 test	 cl, 32			; 00000020H
  01000	74 09		 je	 SHORT $LN51@Convert

; 965  : 			{
; 966  : 				this->m_Special[this->m_SpecialNum] = 83;

  01002	0f b6 4e 30	 movzx	 ecx, BYTE PTR [esi+48]
  01006	c6 44 31 31 53	 mov	 BYTE PTR [ecx+esi+49], 83 ; 00000053H
$LN51@Convert:

; 967  : 			}
; 968  : 		}
; 969  : 		
; 970  : 		if ( _type == ITEMGET(12, 112) )

  0100b	81 ff 70 18 00
	00		 cmp	 edi, 6256		; 00001870H

; 971  : 		{
; 972  : 			this->m_Option3 = Option3;
; 973  : 			this->m_Special[this->m_SpecialNum] = 85;
; 974  : 			
; 975  : 			if( (this->m_NewOption & 0x10) != FALSE )
; 976  : 			{
; 977  : 				this->m_Special[this->m_SpecialNum] = 81;
; 978  : 			}
; 979  : 			else if( (this->m_NewOption & 0x20) != FALSE )
; 980  : 			{
; 981  : 				this->m_Special[this->m_SpecialNum] = 113;
; 982  : 			}
; 983  : 		}
; 984  : 
; 985  : 		if((_type >= ITEMGET(12,114)) && (_type <= ITEMGET(12,130)))

  01011	74 10		 je	 SHORT $LN366@Convert
  01013	81 ff 72 18 00
	00		 cmp	 edi, 6258		; 00001872H
  01019	7c 32		 jl	 SHORT $LN43@Convert
  0101b	81 ff 82 18 00
	00		 cmp	 edi, 6274		; 00001882H
  01021	7f 2a		 jg	 SHORT $LN43@Convert
$LN366@Convert:

; 986  : 		{
; 987  : 			this->m_Option3 = Option3;

  01023	88 46 7a	 mov	 BYTE PTR [esi+122], al

; 988  : 			this->m_Special[this->m_SpecialNum] = 85;

  01026	0f b6 46 30	 movzx	 eax, BYTE PTR [esi+48]
  0102a	88 54 30 31	 mov	 BYTE PTR [eax+esi+49], dl

; 989  : 			
; 990  : 			if( (this->m_NewOption & 0x10) != FALSE )

  0102e	8a 46 7b	 mov	 al, BYTE PTR [esi+123]
  01031	a8 10		 test	 al, 16			; 00000010H
  01033	74 0b		 je	 SHORT $LN45@Convert

; 991  : 			{
; 992  : 				this->m_Special[this->m_SpecialNum] = 81;

  01035	0f b6 4e 30	 movzx	 ecx, BYTE PTR [esi+48]
  01039	c6 44 31 31 51	 mov	 BYTE PTR [ecx+esi+49], 81 ; 00000051H
  0103e	eb 0d		 jmp	 SHORT $LN43@Convert
$LN45@Convert:

; 993  : 			}
; 994  : 			else if( (this->m_NewOption & 0x20) != FALSE )

  01040	a8 20		 test	 al, 32			; 00000020H
  01042	74 09		 je	 SHORT $LN43@Convert

; 995  : 			{
; 996  : 				this->m_Special[this->m_SpecialNum] = 113;

  01044	0f b6 56 30	 movzx	 edx, BYTE PTR [esi+48]
  01048	c6 44 32 31 71	 mov	 BYTE PTR [edx+esi+49], 113 ; 00000071H
$LN43@Convert:

; 997  : 			}
; 998  : 		}
; 999  : 
; 1000 : 	}
; 1001 : 
; 1002 : 	this->m_SpecialNum++;

  0104d	fe 46 30	 inc	 BYTE PTR [esi+48]

; 1003 : 
; 1004 : 	if ( (_type >=ITEMGET(6,0) && _type <ITEMGET(12,0) ) || ( _type >=ITEMGET(13,8) && _type <= ITEMGET(13,9)) || (_type>=ITEMGET(13,21) && _type <= ITEMGET(13,24) ) )

  01050	8b 55 08	 mov	 edx, DWORD PTR __type$[ebp]
  01053	8a 46 30	 mov	 al, BYTE PTR [esi+48]
  01056	81 fa 00 0c 00
	00		 cmp	 edx, 3072		; 00000c00H
  0105c	7c 08		 jl	 SHORT $LN317@Convert
  0105e	81 fa 00 18 00
	00		 cmp	 edx, 6144		; 00001800H
  01064	7c 1b		 jl	 SHORT $LN332@Convert
$LN317@Convert:
  01066	81 fa 08 1a 00
	00		 cmp	 edx, 6664		; 00001a08H
  0106c	7c 08		 jl	 SHORT $LN39@Convert
  0106e	81 fa 09 1a 00
	00		 cmp	 edx, 6665		; 00001a09H
  01074	7e 0b		 jle	 SHORT $LN332@Convert
$LN39@Convert:
  01076	8d 8a eb e5 ff
	ff		 lea	 ecx, DWORD PTR [edx-6677]
  0107c	83 f9 03	 cmp	 ecx, 3
  0107f	77 78		 ja	 SHORT $LN334@Convert
$LN332@Convert:

; 1005 : 	{
; 1006 : 		if ( ((this->m_NewOption>>5)&1) != 0 )

  01081	f6 46 7b 20	 test	 BYTE PTR [esi+123], 32	; 00000020H
  01085	74 0e		 je	 SHORT $LN38@Convert

; 1007 : 		{
; 1008 : 			this->m_Special[this->m_SpecialNum] = 0x56;

  01087	0f b6 c0	 movzx	 eax, al
  0108a	c6 44 30 31 56	 mov	 BYTE PTR [eax+esi+49], 86 ; 00000056H

; 1009 : 			this->m_SpecialNum++;

  0108f	fe 46 30	 inc	 BYTE PTR [esi+48]
  01092	8a 46 30	 mov	 al, BYTE PTR [esi+48]
$LN38@Convert:

; 1010 : 		}
; 1011 : 
; 1012 : 		if ( ((this->m_NewOption>>4)&1) != 0 )

  01095	f6 46 7b 10	 test	 BYTE PTR [esi+123], 16	; 00000010H
  01099	74 0e		 je	 SHORT $LN37@Convert

; 1013 : 		{
; 1014 : 			this->m_Special[this->m_SpecialNum] = 0x57;

  0109b	0f b6 c8	 movzx	 ecx, al
  0109e	c6 44 31 31 57	 mov	 BYTE PTR [ecx+esi+49], 87 ; 00000057H

; 1015 : 			this->m_SpecialNum++;

  010a3	fe 46 30	 inc	 BYTE PTR [esi+48]
  010a6	8a 46 30	 mov	 al, BYTE PTR [esi+48]
$LN37@Convert:

; 1016 : 		}
; 1017 : 
; 1018 : 		if ( ((this->m_NewOption>>3)&1) != 0 )

  010a9	f6 46 7b 08	 test	 BYTE PTR [esi+123], 8
  010ad	74 0e		 je	 SHORT $LN36@Convert

; 1019 : 		{
; 1020 : 			this->m_Special[this->m_SpecialNum] = 0x58;

  010af	0f b6 c0	 movzx	 eax, al
  010b2	c6 44 30 31 58	 mov	 BYTE PTR [eax+esi+49], 88 ; 00000058H

; 1021 : 			this->m_SpecialNum++;

  010b7	fe 46 30	 inc	 BYTE PTR [esi+48]
  010ba	8a 46 30	 mov	 al, BYTE PTR [esi+48]
$LN36@Convert:

; 1022 : 		}
; 1023 : 
; 1024 : 		if ( ((this->m_NewOption>>2)&1) != 0 )

  010bd	f6 46 7b 04	 test	 BYTE PTR [esi+123], 4
  010c1	74 0e		 je	 SHORT $LN35@Convert

; 1025 : 		{
; 1026 : 			this->m_Special[this->m_SpecialNum] = 0x59;

  010c3	0f b6 c8	 movzx	 ecx, al
  010c6	c6 44 31 31 59	 mov	 BYTE PTR [ecx+esi+49], 89 ; 00000059H

; 1027 : 			this->m_SpecialNum++;

  010cb	fe 46 30	 inc	 BYTE PTR [esi+48]
  010ce	8a 46 30	 mov	 al, BYTE PTR [esi+48]
$LN35@Convert:

; 1028 : 		}
; 1029 : 
; 1030 : 		if ( ((this->m_NewOption>>1)&1) != 0 )

  010d1	f6 46 7b 02	 test	 BYTE PTR [esi+123], 2
  010d5	74 0e		 je	 SHORT $LN34@Convert

; 1031 : 		{
; 1032 : 			this->m_Special[this->m_SpecialNum] = 0x5A;

  010d7	0f b6 c0	 movzx	 eax, al
  010da	c6 44 30 31 5a	 mov	 BYTE PTR [eax+esi+49], 90 ; 0000005aH

; 1033 : 			this->m_SpecialNum++;

  010df	fe 46 30	 inc	 BYTE PTR [esi+48]
  010e2	8a 46 30	 mov	 al, BYTE PTR [esi+48]
$LN34@Convert:

; 1034 : 		}
; 1035 : 
; 1036 : 		if ( ((this->m_NewOption)&1) != 0 )

  010e5	f6 46 7b 01	 test	 BYTE PTR [esi+123], 1
  010e9	74 0e		 je	 SHORT $LN334@Convert

; 1037 : 		{
; 1038 : 			this->m_Special[this->m_SpecialNum] = 0x5B;

  010eb	0f b6 c8	 movzx	 ecx, al
  010ee	c6 44 31 31 5b	 mov	 BYTE PTR [ecx+esi+49], 91 ; 0000005bH

; 1039 : 			this->m_SpecialNum++;

  010f3	fe 46 30	 inc	 BYTE PTR [esi+48]
  010f6	8a 46 30	 mov	 al, BYTE PTR [esi+48]
$LN334@Convert:

; 1040 : 		}
; 1041 : 	}
; 1042 : 
; 1043 : 	if ( (_type >=ITEMGET(0,0) && _type <ITEMGET(6,0) ) || ( _type >=ITEMGET(13,12) && _type <= ITEMGET(13,13)) || (_type>=ITEMGET(13,25) && _type <= ITEMGET(13,28) ) )

  010f9	85 d2		 test	 edx, edx
  010fb	78 08		 js	 SHORT $LN30@Convert
  010fd	81 fa 00 0c 00
	00		 cmp	 edx, 3072		; 00000c00H
  01103	7c 1f		 jl	 SHORT $LN31@Convert
$LN30@Convert:
  01105	81 fa 0c 1a 00
	00		 cmp	 edx, 6668		; 00001a0cH
  0110b	7c 08		 jl	 SHORT $LN29@Convert
  0110d	81 fa 0d 1a 00
	00		 cmp	 edx, 6669		; 00001a0dH
  01113	7e 0f		 jle	 SHORT $LN31@Convert
$LN29@Convert:
  01115	8d 8a e7 e5 ff
	ff		 lea	 ecx, DWORD PTR [edx-6681]
  0111b	83 f9 03	 cmp	 ecx, 3
  0111e	0f 87 c8 00 00
	00		 ja	 $LN17@Convert
$LN31@Convert:

; 1044 : 	{
; 1045 : 		if ( ((this->m_NewOption>>5)&1) != 0 )

  01124	f6 46 7b 20	 test	 BYTE PTR [esi+123], 32	; 00000020H
  01128	74 0e		 je	 SHORT $LN28@Convert

; 1046 : 		{
; 1047 : 			this->m_Special[this->m_SpecialNum] = 0x5C;

  0112a	0f b6 c0	 movzx	 eax, al
  0112d	c6 44 30 31 5c	 mov	 BYTE PTR [eax+esi+49], 92 ; 0000005cH

; 1048 : 			this->m_SpecialNum++;

  01132	fe 46 30	 inc	 BYTE PTR [esi+48]
  01135	8a 46 30	 mov	 al, BYTE PTR [esi+48]
$LN28@Convert:

; 1049 : 		}
; 1050 : 
; 1051 : 		if ( (_type >=ITEMGET(5,0) && _type <ITEMGET(6,0) ) || (_type ==ITEMGET(13,12) ) || (_type == ITEMGET(13,25)) || (_type == ITEMGET(13,27) ) )

  01138	81 fa 00 0a 00
	00		 cmp	 edx, 2560		; 00000a00H
  0113e	7c 08		 jl	 SHORT $LN25@Convert
  01140	81 fa 00 0c 00
	00		 cmp	 edx, 3072		; 00000c00H
  01146	7c 3c		 jl	 SHORT $LN26@Convert
$LN25@Convert:
  01148	81 fa 0c 1a 00
	00		 cmp	 edx, 6668		; 00001a0cH
  0114e	74 34		 je	 SHORT $LN26@Convert
  01150	81 fa 19 1a 00
	00		 cmp	 edx, 6681		; 00001a19H
  01156	74 2c		 je	 SHORT $LN26@Convert
  01158	81 fa 1b 1a 00
	00		 cmp	 edx, 6683		; 00001a1bH
  0115e	74 24		 je	 SHORT $LN26@Convert

; 1062 : 			}
; 1063 : 		}
; 1064 : 		else
; 1065 : 		{
; 1066 : 			if ( ((this->m_NewOption>>4)&1) != 0 )

  01160	f6 46 7b 10	 test	 BYTE PTR [esi+123], 16	; 00000010H
  01164	74 0e		 je	 SHORT $LN21@Convert

; 1067 : 			{
; 1068 : 				this->m_Special[this->m_SpecialNum] = 0x5D;

  01166	0f b6 c8	 movzx	 ecx, al
  01169	c6 44 31 31 5d	 mov	 BYTE PTR [ecx+esi+49], 93 ; 0000005dH

; 1069 : 				this->m_SpecialNum++;

  0116e	fe 46 30	 inc	 BYTE PTR [esi+48]
  01171	8a 46 30	 mov	 al, BYTE PTR [esi+48]
$LN21@Convert:

; 1070 : 			}
; 1071 : 			if ( ((this->m_NewOption>>3)&1) != 0 )

  01174	f6 46 7b 08	 test	 BYTE PTR [esi+123], 8
  01178	74 32		 je	 SHORT $LN23@Convert

; 1072 : 			{
; 1073 : 				this->m_Special[this->m_SpecialNum] = 0x5E;

  0117a	0f b6 c0	 movzx	 eax, al
  0117d	c6 44 30 31 5e	 mov	 BYTE PTR [eax+esi+49], 94 ; 0000005eH

; 1074 : 				this->m_SpecialNum++;

  01182	eb 22		 jmp	 SHORT $LN370@Convert
$LN26@Convert:

; 1052 : 		{
; 1053 : 			if ( ((this->m_NewOption>>4)&1) != 0 )

  01184	f6 46 7b 10	 test	 BYTE PTR [esi+123], 16	; 00000010H
  01188	74 0e		 je	 SHORT $LN24@Convert

; 1054 : 			{
; 1055 : 				this->m_Special[this->m_SpecialNum] = 0x5F;

  0118a	0f b6 c8	 movzx	 ecx, al
  0118d	c6 44 31 31 5f	 mov	 BYTE PTR [ecx+esi+49], 95 ; 0000005fH

; 1056 : 				this->m_SpecialNum++;

  01192	fe 46 30	 inc	 BYTE PTR [esi+48]
  01195	8a 46 30	 mov	 al, BYTE PTR [esi+48]
$LN24@Convert:

; 1057 : 			}
; 1058 : 			if ( ((this->m_NewOption>>3)&1) != 0 )

  01198	f6 46 7b 08	 test	 BYTE PTR [esi+123], 8
  0119c	74 0e		 je	 SHORT $LN23@Convert

; 1059 : 			{
; 1060 : 				this->m_Special[this->m_SpecialNum] = 0x60;

  0119e	0f b6 c0	 movzx	 eax, al
  011a1	c6 44 30 31 60	 mov	 BYTE PTR [eax+esi+49], 96 ; 00000060H
$LN370@Convert:

; 1061 : 				this->m_SpecialNum++;

  011a6	fe 46 30	 inc	 BYTE PTR [esi+48]
  011a9	8a 46 30	 mov	 al, BYTE PTR [esi+48]
$LN23@Convert:

; 1075 : 			}
; 1076 : 		}
; 1077 : 
; 1078 : 		if ( ((this->m_NewOption>>2)&1) != 0 )

  011ac	f6 46 7b 04	 test	 BYTE PTR [esi+123], 4
  011b0	74 12		 je	 SHORT $LN19@Convert

; 1079 : 		{
; 1080 : 			this->m_Special[this->m_SpecialNum] = 0x61;

  011b2	0f b6 c8	 movzx	 ecx, al
  011b5	c6 44 31 31 61	 mov	 BYTE PTR [ecx+esi+49], 97 ; 00000061H

; 1081 : 			this->m_SpecialNum++;

  011ba	fe 46 30	 inc	 BYTE PTR [esi+48]
  011bd	8a 46 30	 mov	 al, BYTE PTR [esi+48]

; 1082 : 			this->m_AttackSpeed += 7;

  011c0	80 46 0d 07	 add	 BYTE PTR [esi+13], 7
$LN19@Convert:

; 1083 : 		}
; 1084 : 
; 1085 : 		if ( ((this->m_NewOption>>1)&1) != 0 )

  011c4	f6 46 7b 02	 test	 BYTE PTR [esi+123], 2
  011c8	74 0e		 je	 SHORT $LN18@Convert

; 1086 : 		{
; 1087 : 			this->m_Special[this->m_SpecialNum] = 0x62;

  011ca	0f b6 c0	 movzx	 eax, al
  011cd	c6 44 30 31 62	 mov	 BYTE PTR [eax+esi+49], 98 ; 00000062H

; 1088 : 			this->m_SpecialNum++;

  011d2	fe 46 30	 inc	 BYTE PTR [esi+48]
  011d5	8a 46 30	 mov	 al, BYTE PTR [esi+48]
$LN18@Convert:

; 1089 : 		}
; 1090 : 
; 1091 : 		if ( ((this->m_NewOption)&1) != 0 )

  011d8	f6 46 7b 01	 test	 BYTE PTR [esi+123], 1
  011dc	74 0e		 je	 SHORT $LN17@Convert

; 1092 : 		{
; 1093 : 			this->m_Special[this->m_SpecialNum] = 0x63;

  011de	0f b6 c8	 movzx	 ecx, al
  011e1	c6 44 31 31 63	 mov	 BYTE PTR [ecx+esi+49], 99 ; 00000063H

; 1094 : 			this->m_SpecialNum++;

  011e6	fe 46 30	 inc	 BYTE PTR [esi+48]
  011e9	8a 46 30	 mov	 al, BYTE PTR [esi+48]
$LN17@Convert:

; 1095 : 		}
; 1096 : 	}
; 1097 : 
; 1098 : 	if ( ((_type >= ITEMGET(12,0)) && (_type <= ITEMGET(12,6))) || (_type ==ITEMGET(13,30)) || NEWWINGS(_type))

  011ec	81 fa 00 18 00
	00		 cmp	 edx, 6144		; 00001800H
  011f2	7c 08		 jl	 SHORT $LN14@Convert
  011f4	81 fa 06 18 00
	00		 cmp	 edx, 6150		; 00001806H
  011fa	7e 1f		 jle	 SHORT $LN15@Convert
$LN14@Convert:
  011fc	81 fa 1e 1a 00
	00		 cmp	 edx, 6686		; 00001a1eH
  01202	74 17		 je	 SHORT $LN15@Convert
  01204	81 fa 64 18 00
	00		 cmp	 edx, 6244		; 00001864H
  0120a	7c 5f		 jl	 SHORT $LN10@Convert
  0120c	33 c9		 xor	 ecx, ecx
  0120e	81 fa 7d 18 00
	00		 cmp	 edx, 6269		; 0000187dH
  01214	0f 9e c1	 setle	 cl
  01217	85 c9		 test	 ecx, ecx
  01219	74 50		 je	 SHORT $LN10@Convert
$LN15@Convert:

; 1099 : 	{
; 1100 : 		if ( ((this->m_NewOption)&1) != 0 )

  0121b	f6 46 7b 01	 test	 BYTE PTR [esi+123], 1
  0121f	74 0e		 je	 SHORT $LN13@Convert

; 1101 : 		{
; 1102 : 			this->m_Special[this->m_SpecialNum] = 0x64;

  01221	0f b6 c0	 movzx	 eax, al
  01224	c6 44 30 31 64	 mov	 BYTE PTR [eax+esi+49], 100 ; 00000064H

; 1103 : 			this->m_SpecialNum++;

  01229	fe 46 30	 inc	 BYTE PTR [esi+48]
  0122c	8a 46 30	 mov	 al, BYTE PTR [esi+48]
$LN13@Convert:

; 1104 : 		}
; 1105 : 
; 1106 : 		if ( ((this->m_NewOption)&2) != 0 )

  0122f	f6 46 7b 02	 test	 BYTE PTR [esi+123], 2
  01233	74 0e		 je	 SHORT $LN12@Convert

; 1107 : 		{
; 1108 : 			this->m_Special[this->m_SpecialNum] = 0x65;

  01235	0f b6 c8	 movzx	 ecx, al
  01238	c6 44 31 31 65	 mov	 BYTE PTR [ecx+esi+49], 101 ; 00000065H

; 1109 : 			this->m_SpecialNum++;

  0123d	fe 46 30	 inc	 BYTE PTR [esi+48]
  01240	8a 46 30	 mov	 al, BYTE PTR [esi+48]
$LN12@Convert:

; 1110 : 		}
; 1111 : 
; 1112 : 		if ( ((this->m_NewOption)&4) != 0 )

  01243	f6 46 7b 04	 test	 BYTE PTR [esi+123], 4
  01247	74 0e		 je	 SHORT $LN11@Convert

; 1113 : 		{
; 1114 : 			this->m_Special[this->m_SpecialNum] = 0x66;

  01249	0f b6 c0	 movzx	 eax, al
  0124c	c6 44 30 31 66	 mov	 BYTE PTR [eax+esi+49], 102 ; 00000066H

; 1115 : 			this->m_SpecialNum++;

  01251	fe 46 30	 inc	 BYTE PTR [esi+48]
  01254	8a 46 30	 mov	 al, BYTE PTR [esi+48]
$LN11@Convert:

; 1116 : 		}
; 1117 : 
; 1118 : 		if ( ((this->m_NewOption)&8) != 0 )

  01257	f6 46 7b 08	 test	 BYTE PTR [esi+123], 8
  0125b	74 0e		 je	 SHORT $LN10@Convert

; 1119 : 		{
; 1120 : 			this->m_Special[this->m_SpecialNum] = 0x69;

  0125d	0f b6 c8	 movzx	 ecx, al
  01260	c6 44 31 31 69	 mov	 BYTE PTR [ecx+esi+49], 105 ; 00000069H

; 1121 : 			this->m_SpecialNum++;

  01265	fe 46 30	 inc	 BYTE PTR [esi+48]
  01268	8a 46 30	 mov	 al, BYTE PTR [esi+48]
$LN10@Convert:

; 1122 : 		}
; 1123 : 	}
; 1124 : 
; 1125 : 	if ( _type == ITEMGET(13,37) )

  0126b	81 fa 25 1a 00
	00		 cmp	 edx, 6693		; 00001a25H
  01271	75 22		 jne	 SHORT $LN4@Convert

; 1126 : 	{
; 1127 : 		if ( (this->m_NewOption &1) )

  01273	8a 4e 7b	 mov	 cl, BYTE PTR [esi+123]
  01276	f6 c1 01	 test	 cl, 1
  01279	74 0a		 je	 SHORT $LN8@Convert

; 1128 : 		{
; 1129 : 			this->m_Special[this->m_SpecialNum] = 0x6A;

  0127b	0f b6 d0	 movzx	 edx, al
  0127e	c6 44 32 31 6a	 mov	 BYTE PTR [edx+esi+49], 106 ; 0000006aH

; 1130 : 			this->m_SpecialNum++;

  01283	eb 0d		 jmp	 SHORT $LN371@Convert
$LN8@Convert:

; 1131 : 		}
; 1132 : 		else if ( (this->m_NewOption &2) )

  01285	f6 c1 02	 test	 cl, 2
  01288	74 0b		 je	 SHORT $LN4@Convert

; 1133 : 		{
; 1134 : 			this->m_Special[this->m_SpecialNum] = 0x6B;

  0128a	0f b6 c0	 movzx	 eax, al
  0128d	c6 44 30 31 6b	 mov	 BYTE PTR [eax+esi+49], 107 ; 0000006bH
$LN371@Convert:

; 1135 : 			this->m_SpecialNum++;

  01292	fe 46 30	 inc	 BYTE PTR [esi+48]
$LN4@Convert:

; 1136 : 		}
; 1137 : 	}
; 1138 : 
; 1139 : 	if ( SOptionStatValue != 0 )
; 1140 : 	{
; 1141 : 		if (p->SetAttr != 0 )
; 1142 : 		{
; 1143 : 			this->m_Special[this->m_SpecialNum] = p->SetAttr + 0xC3;
; 1144 : 			this->m_SetAddStat = SOptionStatValue * 5;
; 1145 : 			this->m_SpecialNum++;
; 1146 : 		}
; 1147 : 	}
; 1148 : 
; 1149 : 	this->m_Part = p->ItemSlot;

  01295	8b 4d 24	 mov	 ecx, DWORD PTR tv3051[ebp]
  01298	8a 91 60 00 00
	00		 mov	 dl, BYTE PTR ?ItemAttribute@@3PAUITEM_ATTRIBUTE@@A[ecx+96]

; 1150 : 	this->Value();

  0129e	8b ce		 mov	 ecx, esi
  012a0	88 56 0a	 mov	 BYTE PTR [esi+10], dl
  012a3	e8 00 00 00 00	 call	 ?Value@CItem@@QAEXXZ	; CItem::Value

; 1151 : 
; 1152 : 	if ( this->m_Type != ITEMGET(4,7) && this->m_Type != ITEMGET(4,15) ) // arrow and bolts

  012a8	0f b7 46 06	 movzx	 eax, WORD PTR [esi+6]
  012ac	b9 07 08 00 00	 mov	 ecx, 2055		; 00000807H
  012b1	66 3b c1	 cmp	 ax, cx
  012b4	0f 84 f9 00 00
	00		 je	 $LN2@Convert
  012ba	ba 0f 08 00 00	 mov	 edx, 2063		; 0000080fH
  012bf	66 3b c2	 cmp	 ax, dx
  012c2	0f 84 eb 00 00
	00		 je	 $LN2@Convert

; 1153 : 	{
; 1154 : 		this->m_DamageMinOrigin = this->m_DamageMin;
; 1155 : 		this->m_DefenseOrigin = this->m_Defense;

  012c8	66 8b 4e 16	 mov	 cx, WORD PTR [esi+22]
  012cc	0f b7 46 10	 movzx	 eax, WORD PTR [esi+16]
  012d0	66 89 4e 1e	 mov	 WORD PTR [esi+30], cx

; 1156 : 		this->m_DamageMin -= (int)(this->m_DamageMin * this->m_CurrentDurabilityState);

  012d4	0f b7 4e 10	 movzx	 ecx, WORD PTR [esi+16]
  012d8	89 4d 18	 mov	 DWORD PTR tv3138[ebp], ecx
  012db	66 89 46 1c	 mov	 WORD PTR [esi+28], ax
  012df	db 45 18	 fild	 DWORD PTR tv3138[ebp]
  012e2	d9 7d 1a	 fnstcw	 WORD PTR tv3137[ebp]
  012e5	0f b7 45 1a	 movzx	 eax, WORD PTR tv3137[ebp]
  012e9	d8 8e 8c 00 00
	00		 fmul	 DWORD PTR [esi+140]
  012ef	0d 00 0c 00 00	 or	 eax, 3072		; 00000c00H
  012f4	89 45 24	 mov	 DWORD PTR tv3133[ebp], eax
  012f7	d9 6d 24	 fldcw	 WORD PTR tv3133[ebp]
  012fa	db 5d 24	 fistp	 DWORD PTR tv3131[ebp]
  012fd	0f b7 45 24	 movzx	 eax, WORD PTR tv3131[ebp]
  01301	66 2b c8	 sub	 cx, ax
  01304	66 89 4e 10	 mov	 WORD PTR [esi+16], cx
  01308	d9 6d 1a	 fldcw	 WORD PTR tv3137[ebp]

; 1157 : 		this->m_DamageMax -= (int)(this->m_DamageMax * this->m_CurrentDurabilityState);

  0130b	0f b7 4e 12	 movzx	 ecx, WORD PTR [esi+18]
  0130f	89 4d 18	 mov	 DWORD PTR tv3128[ebp], ecx
  01312	db 45 18	 fild	 DWORD PTR tv3128[ebp]
  01315	d9 7d 1a	 fnstcw	 WORD PTR tv3127[ebp]
  01318	d8 8e 8c 00 00
	00		 fmul	 DWORD PTR [esi+140]
  0131e	0f b7 45 1a	 movzx	 eax, WORD PTR tv3127[ebp]
  01322	0d 00 0c 00 00	 or	 eax, 3072		; 00000c00H
  01327	89 45 24	 mov	 DWORD PTR tv3123[ebp], eax
  0132a	d9 6d 24	 fldcw	 WORD PTR tv3123[ebp]
  0132d	db 5d 24	 fistp	 DWORD PTR tv3121[ebp]
  01330	0f b7 45 24	 movzx	 eax, WORD PTR tv3121[ebp]
  01334	66 2b c8	 sub	 cx, ax
  01337	66 89 4e 12	 mov	 WORD PTR [esi+18], cx
  0133b	d9 6d 1a	 fldcw	 WORD PTR tv3127[ebp]

; 1158 : 		this->m_Defense -= (int)(this->m_Defense * this->m_CurrentDurabilityState);

  0133e	0f b7 4e 16	 movzx	 ecx, WORD PTR [esi+22]
  01342	89 4d 18	 mov	 DWORD PTR tv3117[ebp], ecx
  01345	db 45 18	 fild	 DWORD PTR tv3117[ebp]
  01348	d9 7d 1a	 fnstcw	 WORD PTR tv3115[ebp]
  0134b	d8 8e 8c 00 00
	00		 fmul	 DWORD PTR [esi+140]
  01351	0f b7 45 1a	 movzx	 eax, WORD PTR tv3115[ebp]
  01355	0d 00 0c 00 00	 or	 eax, 3072		; 00000c00H
  0135a	89 45 24	 mov	 DWORD PTR tv3112[ebp], eax
  0135d	d9 6d 24	 fldcw	 WORD PTR tv3112[ebp]
  01360	db 5d 24	 fistp	 DWORD PTR tv3109[ebp]
  01363	0f b7 45 24	 movzx	 eax, WORD PTR tv3109[ebp]
  01367	66 2b c8	 sub	 cx, ax
  0136a	66 89 4e 16	 mov	 WORD PTR [esi+22], cx
  0136e	d9 6d 1a	 fldcw	 WORD PTR tv3115[ebp]

; 1159 : 		this->m_SuccessfulBlocking -= (int)(this->m_SuccessfulBlocking * this->m_CurrentDurabilityState);

  01371	8a 4e 14	 mov	 cl, BYTE PTR [esi+20]
  01374	0f b6 d1	 movzx	 edx, cl
  01377	89 55 18	 mov	 DWORD PTR tv3103[ebp], edx
  0137a	db 45 18	 fild	 DWORD PTR tv3103[ebp]
  0137d	d9 7d 1a	 fnstcw	 WORD PTR tv3102[ebp]
  01380	d8 8e 8c 00 00
	00		 fmul	 DWORD PTR [esi+140]
  01386	0f b7 45 1a	 movzx	 eax, WORD PTR tv3102[ebp]
  0138a	0d 00 0c 00 00	 or	 eax, 3072		; 00000c00H
  0138f	89 45 24	 mov	 DWORD PTR tv3098[ebp], eax
  01392	d9 6d 24	 fldcw	 WORD PTR tv3098[ebp]
  01395	db 5d 24	 fistp	 DWORD PTR tv3096[ebp]
  01398	8a 45 24	 mov	 al, BYTE PTR tv3096[ebp]
  0139b	2a c8		 sub	 cl, al
  0139d	88 4e 14	 mov	 BYTE PTR [esi+20], cl
  013a0	d9 6d 1a	 fldcw	 WORD PTR tv3102[ebp]

; 1160 : 
; 1161 : 		if ( this->m_Durability < 1.0f )

  013a3	d9 e8		 fld1
  013a5	d8 5e 24	 fcomp	 DWORD PTR [esi+36]
  013a8	df e0		 fnstsw	 ax
  013aa	f6 c4 41	 test	 ah, 65			; 00000041H
  013ad	75 04		 jne	 SHORT $LN2@Convert

; 1162 : 		{
; 1163 : 			this->m_AttackSpeed = 0;

  013af	c6 46 0d 00	 mov	 BYTE PTR [esi+13], 0
$LN2@Convert:

; 1164 : 		}
; 1165 : 	}
; 1166 : 	
; 1167 : 	if ( this->m_Durability == 0.0f )

  013b3	d9 46 24	 fld	 DWORD PTR [esi+36]
  013b6	d9 ee		 fldz
  013b8	da e9		 fucompp
  013ba	df e0		 fnstsw	 ax
  013bc	f6 c4 44	 test	 ah, 68			; 00000044H
  013bf	7a 0c		 jp	 SHORT $LN1@Convert

; 1168 : 	{
; 1169 : 		memset(this->m_Resistance , 0, sizeof(this->m_Resistance));

  013c1	33 c0		 xor	 eax, eax
  013c3	89 46 55	 mov	 DWORD PTR [esi+85], eax
  013c6	66 89 46 59	 mov	 WORD PTR [esi+89], ax
  013ca	88 46 5b	 mov	 BYTE PTR [esi+91], al
$LN1@Convert:
  013cd	5f		 pop	 edi
  013ce	5e		 pop	 esi
  013cf	5b		 pop	 ebx

; 1170 : 	}
; 1171 : }

  013d0	8b e5		 mov	 esp, ebp
  013d2	5d		 pop	 ebp
  013d3	c2 20 00	 ret	 32			; 00000020H
?Convert@CItem@@QAEXHEEEEEEE@Z ENDP			; CItem::Convert
_TEXT	ENDS
PUBLIC	?SetPetItemInfo@CItem@@QAEXHH@Z			; CItem::SetPetItemInfo
; Function compile flags: /Ogtp
;	COMDAT ?SetPetItemInfo@CItem@@QAEXHH@Z
_TEXT	SEGMENT
_petlevel$ = 8						; size = 4
_petexp$ = 12						; size = 4
?SetPetItemInfo@CItem@@QAEXHH@Z PROC			; CItem::SetPetItemInfo, COMDAT
; _this$ = ecx

; 2191 : {

  00000	55		 push	 ebp
  00001	8b ec		 mov	 ebp, esp
  00003	56		 push	 esi
  00004	8b f1		 mov	 esi, ecx

; 2192 : 	if ( this->m_Type == ITEMGET(13,4) )

  00006	0f b7 46 06	 movzx	 eax, WORD PTR [esi+6]
  0000a	b9 04 1a 00 00	 mov	 ecx, 6660		; 00001a04H
  0000f	66 3b c1	 cmp	 ax, cx
  00012	75 53		 jne	 SHORT $LN7@SetPetItem

; 2193 : 	{
; 2194 : 		this->m_PetItem_Level = petlevel;

  00014	8b 45 08	 mov	 eax, DWORD PTR _petlevel$[ebp]

; 2195 : 		this->m_PetItem_Exp = petexp;

  00017	8b 4d 0c	 mov	 ecx, DWORD PTR _petexp$[ebp]
  0001a	89 86 a0 00 00
	00		 mov	 DWORD PTR [esi+160], eax
  00020	89 8e a4 00 00
	00		 mov	 DWORD PTR [esi+164], ecx

; 2196 : 
; 2197 : 		if ( this->m_PetItem_Exp < gPetItemExp.m_DarkHorseExpTable[this->m_PetItem_Level] || this->m_PetItem_Exp >= gPetItemExp.m_DarkHorseExpTable[1+this->m_PetItem_Level] )

  00026	8b 14 85 d0 00
	00 00		 mov	 edx, DWORD PTR ?gPetItemExp@@3VCPetItemExp@@A[eax*4+208]
  0002d	3b ca		 cmp	 ecx, edx
  0002f	7c 09		 jl	 SHORT $LN5@SetPetItem
  00031	3b 0c 85 d4 00
	00 00		 cmp	 ecx, DWORD PTR ?gPetItemExp@@3VCPetItemExp@@A[eax*4+212]
  00038	7c 06		 jl	 SHORT $LN6@SetPetItem
$LN5@SetPetItem:

; 2198 : 		{
; 2199 : 			this->m_PetItem_Exp = gPetItemExp.m_DarkHorseExpTable[this->m_PetItem_Level];

  0003a	89 96 a4 00 00
	00		 mov	 DWORD PTR [esi+164], edx
$LN6@SetPetItem:

; 2200 : 		}
; 2201 : 
; 2202 : 		this->Convert(this->m_Type, this->m_Option1, this->m_Option2,
; 2203 : 			this->m_Option3, this->m_NewOption, this->m_SetOption, 0, CURRENT_DB_VERSION);

  00040	0f b6 96 92 00
	00 00		 movzx	 edx, BYTE PTR [esi+146]
  00047	0f b6 46 7b	 movzx	 eax, BYTE PTR [esi+123]
  0004b	0f b6 4e 7a	 movzx	 ecx, BYTE PTR [esi+122]
  0004f	6a 03		 push	 3
  00051	6a 00		 push	 0
  00053	52		 push	 edx
  00054	0f b6 56 79	 movzx	 edx, BYTE PTR [esi+121]
  00058	50		 push	 eax
  00059	0f b6 46 78	 movzx	 eax, BYTE PTR [esi+120]
  0005d	51		 push	 ecx
  0005e	52		 push	 edx
  0005f	50		 push	 eax
  00060	68 04 1a 00 00	 push	 6660			; 00001a04H

; 2204 : 
; 2205 : 		this->PetValue();
; 2206 : 		this->m_IsLoadPetItemInfo = 1;

  00065	eb 5b		 jmp	 SHORT $LN10@SetPetItem
$LN7@SetPetItem:

; 2207 : 	}
; 2208 : 	else if ( this->m_Type == ITEMGET(13,5) )

  00067	b9 05 1a 00 00	 mov	 ecx, 6661		; 00001a05H
  0006c	66 3b c1	 cmp	 ax, cx
  0006f	75 69		 jne	 SHORT $LN3@SetPetItem

; 2209 : 	{
; 2210 : 		this->m_PetItem_Level = petlevel;

  00071	8b 45 08	 mov	 eax, DWORD PTR _petlevel$[ebp]

; 2211 : 		this->m_PetItem_Exp = petexp;

  00074	8b 4d 0c	 mov	 ecx, DWORD PTR _petexp$[ebp]
  00077	89 86 a0 00 00
	00		 mov	 DWORD PTR [esi+160], eax
  0007d	89 8e a4 00 00
	00		 mov	 DWORD PTR [esi+164], ecx

; 2212 : 
; 2213 : 		if ( this->m_PetItem_Exp < gPetItemExp.m_DarkSpiritExpTable[this->m_PetItem_Level] || this->m_PetItem_Exp >= gPetItemExp.m_DarkSpiritExpTable[1+this->m_PetItem_Level] )

  00083	8b 14 85 00 00
	00 00		 mov	 edx, DWORD PTR ?gPetItemExp@@3VCPetItemExp@@A[eax*4]
  0008a	3b ca		 cmp	 ecx, edx
  0008c	7c 09		 jl	 SHORT $LN1@SetPetItem
  0008e	3b 0c 85 04 00
	00 00		 cmp	 ecx, DWORD PTR ?gPetItemExp@@3VCPetItemExp@@A[eax*4+4]
  00095	7c 06		 jl	 SHORT $LN2@SetPetItem
$LN1@SetPetItem:

; 2214 : 		{
; 2215 : 			this->m_PetItem_Exp = gPetItemExp.m_DarkSpiritExpTable[this->m_PetItem_Level];

  00097	89 96 a4 00 00
	00		 mov	 DWORD PTR [esi+164], edx
$LN2@SetPetItem:

; 2216 : 		}
; 2217 : 
; 2218 : 		this->Convert(this->m_Type, this->m_Option1, this->m_Option2,
; 2219 : 			this->m_Option3, this->m_NewOption, this->m_SetOption, 0, CURRENT_DB_VERSION);

  0009d	0f b6 96 92 00
	00 00		 movzx	 edx, BYTE PTR [esi+146]
  000a4	0f b6 46 7b	 movzx	 eax, BYTE PTR [esi+123]
  000a8	0f b6 4e 7a	 movzx	 ecx, BYTE PTR [esi+122]
  000ac	6a 03		 push	 3
  000ae	6a 00		 push	 0
  000b0	52		 push	 edx
  000b1	0f b6 56 79	 movzx	 edx, BYTE PTR [esi+121]
  000b5	50		 push	 eax
  000b6	0f b6 46 78	 movzx	 eax, BYTE PTR [esi+120]
  000ba	51		 push	 ecx
  000bb	52		 push	 edx
  000bc	50		 push	 eax
  000bd	68 05 1a 00 00	 push	 6661			; 00001a05H
$LN10@SetPetItem:
  000c2	8b ce		 mov	 ecx, esi
  000c4	e8 00 00 00 00	 call	 ?Convert@CItem@@QAEXHEEEEEEE@Z ; CItem::Convert

; 2220 : 
; 2221 : 		this->PetValue();

  000c9	8b ce		 mov	 ecx, esi
  000cb	e8 00 00 00 00	 call	 ?PetValue@CItem@@QAEXXZ	; CItem::PetValue

; 2222 : 		this->m_IsLoadPetItemInfo = 1;

  000d0	c7 86 9c 00 00
	00 01 00 00 00	 mov	 DWORD PTR [esi+156], 1
$LN3@SetPetItem:
  000da	5e		 pop	 esi

; 2223 : 	}
; 2224 : }

  000db	5d		 pop	 ebp
  000dc	c2 08 00	 ret	 8
?SetPetItemInfo@CItem@@QAEXHH@Z ENDP			; CItem::SetPetItemInfo
_TEXT	ENDS
PUBLIC	?AddPetItemExp@CItem@@QAEHH@Z			; CItem::AddPetItemExp
; Function compile flags: /Ogtp
;	COMDAT ?AddPetItemExp@CItem@@QAEHH@Z
_TEXT	SEGMENT
_petexp$ = 8						; size = 4
?AddPetItemExp@CItem@@QAEHH@Z PROC			; CItem::AddPetItemExp, COMDAT
; _this$ = ecx

; 2227 : {

  00000	55		 push	 ebp
  00001	8b ec		 mov	 ebp, esp

; 2228 : 	if ( this->m_Durability <= 0.0f )

  00003	d9 ee		 fldz
  00005	56		 push	 esi
  00006	8b f1		 mov	 esi, ecx
  00008	d8 5e 24	 fcomp	 DWORD PTR [esi+36]
  0000b	df e0		 fnstsw	 ax
  0000d	f6 c4 01	 test	 ah, 1

; 2229 : 	{
; 2230 : 		return FALSE;

  00010	74 5b		 je	 SHORT $LN1@AddPetItem

; 2231 : 	}
; 2232 : 
; 2233 : 	if ( this->m_IsLoadPetItemInfo == 0 )

  00012	83 be 9c 00 00
	00 00		 cmp	 DWORD PTR [esi+156], 0

; 2234 : 	{
; 2235 : 		return FALSE;

  00019	74 52		 je	 SHORT $LN1@AddPetItem

; 2236 : 	}
; 2237 : 
; 2238 : 	if ( this->m_PetItem_Level < 1 )

  0001b	8b 86 a0 00 00
	00		 mov	 eax, DWORD PTR [esi+160]
  00021	83 f8 01	 cmp	 eax, 1
  00024	7d 4e		 jge	 SHORT $LN12@AddPetItem

; 2239 : 	{
; 2240 : 		this->m_PetItem_Level = 1;
; 2241 : 		this->m_PetItem_Exp = 0;
; 2242 : 		this->Convert(this->m_Type, this->m_Option1, this->m_Option2,
; 2243 : 			this->m_Option3, this->m_NewOption, this->m_SetOption, 0, CURRENT_DB_VERSION);

  00026	0f b6 86 92 00
	00 00		 movzx	 eax, BYTE PTR [esi+146]
  0002d	0f b6 4e 7b	 movzx	 ecx, BYTE PTR [esi+123]
  00031	0f b6 56 7a	 movzx	 edx, BYTE PTR [esi+122]
  00035	6a 03		 push	 3
  00037	6a 00		 push	 0
  00039	50		 push	 eax
  0003a	0f b6 46 79	 movzx	 eax, BYTE PTR [esi+121]
  0003e	51		 push	 ecx
  0003f	0f b6 4e 78	 movzx	 ecx, BYTE PTR [esi+120]
  00043	52		 push	 edx
  00044	0f bf 56 06	 movsx	 edx, WORD PTR [esi+6]
  00048	50		 push	 eax
  00049	51		 push	 ecx
  0004a	52		 push	 edx
  0004b	8b ce		 mov	 ecx, esi
  0004d	c7 86 a0 00 00
	00 01 00 00 00	 mov	 DWORD PTR [esi+160], 1
  00057	c7 86 a4 00 00
	00 00 00 00 00	 mov	 DWORD PTR [esi+164], 0
  00061	e8 00 00 00 00	 call	 ?Convert@CItem@@QAEXHEEEEEEE@Z ; CItem::Convert

; 2244 : 		this->PetValue();

  00066	8b ce		 mov	 ecx, esi
  00068	e8 00 00 00 00	 call	 ?PetValue@CItem@@QAEXXZ	; CItem::PetValue
$LN1@AddPetItem:

; 2301 : 		}
; 2302 : 	}
; 2303 : 
; 2304 : 	return FALSE;

  0006d	33 c0		 xor	 eax, eax
  0006f	5e		 pop	 esi

; 2305 : }

  00070	5d		 pop	 ebp
  00071	c2 04 00	 ret	 4
$LN12@AddPetItem:

; 2245 : 
; 2246 : 		return FALSE;
; 2247 : 	}
; 2248 : 
; 2249 : 	if ( this->m_Type == ITEMGET(13,4) )

  00074	0f b7 4e 06	 movzx	 ecx, WORD PTR [esi+6]
  00078	ba 04 1a 00 00	 mov	 edx, 6660		; 00001a04H
  0007d	66 3b ca	 cmp	 cx, dx
  00080	75 71		 jne	 SHORT $LN11@AddPetItem

; 2250 : 	{
; 2251 : 		if ( this->m_PetItem_Level >= MAX_PET_LEVEL )

  00082	83 f8 32	 cmp	 eax, 50			; 00000032H

; 2252 : 		{
; 2253 : 			return FALSE;

  00085	7d e6		 jge	 SHORT $LN1@AddPetItem

; 2254 : 		}
; 2255 : 
; 2256 : 		BOOL ret = FALSE;
; 2257 : 		int maxexp = gPetItemExp.m_DarkHorseExpTable[1+this->m_PetItem_Level];

  00087	8b 0c 85 d4 00
	00 00		 mov	 ecx, DWORD PTR ?gPetItemExp@@3VCPetItemExp@@A[eax*4+212]

; 2258 : 		this->m_PetItem_Exp += petexp;

  0008e	8b 55 08	 mov	 edx, DWORD PTR _petexp$[ebp]
  00091	01 96 a4 00 00
	00		 add	 DWORD PTR [esi+164], edx

; 2259 : 
; 2260 : 		while ( this->m_PetItem_Exp >= maxexp )

  00097	39 8e a4 00 00
	00		 cmp	 DWORD PTR [esi+164], ecx
  0009d	7c ce		 jl	 SHORT $LN1@AddPetItem
  0009f	90		 npad	 1
$LL9@AddPetItem:

; 2261 : 		{
; 2262 : 			this->m_PetItem_Level++;

  000a0	40		 inc	 eax
  000a1	89 86 a0 00 00
	00		 mov	 DWORD PTR [esi+160], eax
  000a7	8b 8e a4 00 00
	00		 mov	 ecx, DWORD PTR [esi+164]
  000ad	3b 0c 85 d4 00
	00 00		 cmp	 ecx, DWORD PTR ?gPetItemExp@@3VCPetItemExp@@A[eax*4+212]
  000b4	7d ea		 jge	 SHORT $LL9@AddPetItem

; 2263 : 			maxexp = gPetItemExp.m_DarkHorseExpTable[1+this->m_PetItem_Level];
; 2264 : 			ret = TRUE;
; 2265 : 		}
; 2266 : 
; 2267 : 		if ( ret != FALSE )
; 2268 : 		{
; 2269 : 		this->Convert(this->m_Type, this->m_Option1, this->m_Option2,
; 2270 : 			this->m_Option3, this->m_NewOption, this->m_SetOption, 0, CURRENT_DB_VERSION);

  000b6	0f b6 96 92 00
	00 00		 movzx	 edx, BYTE PTR [esi+146]
  000bd	0f b6 46 7b	 movzx	 eax, BYTE PTR [esi+123]
  000c1	0f b6 4e 7a	 movzx	 ecx, BYTE PTR [esi+122]
  000c5	6a 03		 push	 3
  000c7	6a 00		 push	 0
  000c9	52		 push	 edx
  000ca	0f b6 56 79	 movzx	 edx, BYTE PTR [esi+121]
  000ce	50		 push	 eax
  000cf	0f b6 46 78	 movzx	 eax, BYTE PTR [esi+120]
  000d3	51		 push	 ecx
  000d4	52		 push	 edx
  000d5	50		 push	 eax
  000d6	68 04 1a 00 00	 push	 6660			; 00001a04H
$LN23@AddPetItem:
  000db	8b ce		 mov	 ecx, esi
  000dd	e8 00 00 00 00	 call	 ?Convert@CItem@@QAEXHEEEEEEE@Z ; CItem::Convert

; 2271 : 		this->PetValue();

  000e2	8b ce		 mov	 ecx, esi
  000e4	e8 00 00 00 00	 call	 ?PetValue@CItem@@QAEXXZ	; CItem::PetValue

; 2272 : 
; 2273 : 		return TRUE;

  000e9	b8 01 00 00 00	 mov	 eax, 1
  000ee	5e		 pop	 esi

; 2305 : }

  000ef	5d		 pop	 ebp
  000f0	c2 04 00	 ret	 4
$LN11@AddPetItem:

; 2274 : 		}
; 2275 : 	}
; 2276 : 	else if ( this->m_Type == ITEMGET(13,5) )

  000f3	ba 05 1a 00 00	 mov	 edx, 6661		; 00001a05H
  000f8	66 3b ca	 cmp	 cx, dx
  000fb	0f 85 6c ff ff
	ff		 jne	 $LN1@AddPetItem

; 2277 : 	{
; 2278 : 		if ( this->m_PetItem_Level >= MAX_PET_LEVEL )

  00101	83 f8 32	 cmp	 eax, 50			; 00000032H

; 2279 : 		{
; 2280 : 			return FALSE;

  00104	0f 8d 63 ff ff
	ff		 jge	 $LN1@AddPetItem

; 2281 : 		}
; 2282 : 
; 2283 : 		BOOL ret = FALSE;
; 2284 : 		int maxexp = gPetItemExp.m_DarkSpiritExpTable[1+this->m_PetItem_Level];

  0010a	8b 0c 85 04 00
	00 00		 mov	 ecx, DWORD PTR ?gPetItemExp@@3VCPetItemExp@@A[eax*4+4]

; 2285 : 		this->m_PetItem_Exp += petexp;

  00111	8b 55 08	 mov	 edx, DWORD PTR _petexp$[ebp]
  00114	01 96 a4 00 00
	00		 add	 DWORD PTR [esi+164], edx

; 2286 : 
; 2287 : 		while ( this->m_PetItem_Exp >= maxexp )

  0011a	39 8e a4 00 00
	00		 cmp	 DWORD PTR [esi+164], ecx
  00120	0f 8c 47 ff ff
	ff		 jl	 $LN1@AddPetItem
  00126	eb 08 8d a4 24
	00 00 00 00 90	 npad	 10
$LL3@AddPetItem:

; 2288 : 		{
; 2289 : 			this->m_PetItem_Level++;

  00130	40		 inc	 eax
  00131	89 86 a0 00 00
	00		 mov	 DWORD PTR [esi+160], eax
  00137	8b 8e a4 00 00
	00		 mov	 ecx, DWORD PTR [esi+164]
  0013d	3b 0c 85 04 00
	00 00		 cmp	 ecx, DWORD PTR ?gPetItemExp@@3VCPetItemExp@@A[eax*4+4]
  00144	7d ea		 jge	 SHORT $LL3@AddPetItem

; 2290 : 			maxexp = gPetItemExp.m_DarkSpiritExpTable[1+this->m_PetItem_Level];
; 2291 : 			ret = TRUE;
; 2292 : 		}
; 2293 : 
; 2294 : 		if ( ret != FALSE )
; 2295 : 		{
; 2296 : 		this->Convert(this->m_Type, this->m_Option1, this->m_Option2,
; 2297 : 			this->m_Option3, this->m_NewOption, this->m_SetOption, 0, CURRENT_DB_VERSION);

  00146	0f b6 96 92 00
	00 00		 movzx	 edx, BYTE PTR [esi+146]
  0014d	0f b6 46 7b	 movzx	 eax, BYTE PTR [esi+123]
  00151	0f b6 4e 7a	 movzx	 ecx, BYTE PTR [esi+122]
  00155	6a 03		 push	 3
  00157	6a 00		 push	 0
  00159	52		 push	 edx
  0015a	0f b6 56 79	 movzx	 edx, BYTE PTR [esi+121]
  0015e	50		 push	 eax
  0015f	0f b6 46 78	 movzx	 eax, BYTE PTR [esi+120]
  00163	51		 push	 ecx
  00164	52		 push	 edx
  00165	50		 push	 eax
  00166	68 05 1a 00 00	 push	 6661			; 00001a05H

; 2298 : 		this->PetValue();
; 2299 : 
; 2300 : 		return TRUE;

  0016b	e9 6b ff ff ff	 jmp	 $LN23@AddPetItem
?AddPetItemExp@CItem@@QAEHH@Z ENDP			; CItem::AddPetItemExp
_TEXT	ENDS
PUBLIC	?DecPetItemExp@CItem@@QAEHH@Z			; CItem::DecPetItemExp
; Function compile flags: /Ogtp
;	COMDAT ?DecPetItemExp@CItem@@QAEHH@Z
_TEXT	SEGMENT
_percent$ = 8						; size = 4
?DecPetItemExp@CItem@@QAEHH@Z PROC			; CItem::DecPetItemExp, COMDAT
; _this$ = ecx

; 2308 : {

  00000	55		 push	 ebp
  00001	8b ec		 mov	 ebp, esp
  00003	56		 push	 esi
  00004	8b f1		 mov	 esi, ecx

; 2309 : 	if ( this->m_IsLoadPetItemInfo == 0 )

  00006	83 be 9c 00 00
	00 00		 cmp	 DWORD PTR [esi+156], 0
  0000d	75 07		 jne	 SHORT $LN11@DecPetItem

; 2310 : 	{
; 2311 : 		return FALSE;

  0000f	33 c0		 xor	 eax, eax
  00011	5e		 pop	 esi

; 2375 : }

  00012	5d		 pop	 ebp
  00013	c2 04 00	 ret	 4
$LN11@DecPetItem:
  00016	57		 push	 edi

; 2312 : 	}
; 2313 : 
; 2314 : 	if ( this->m_PetItem_Level < 1 )

  00017	8b be a0 00 00
	00		 mov	 edi, DWORD PTR [esi+160]
  0001d	83 ff 01	 cmp	 edi, 1
  00020	7d 4f		 jge	 SHORT $LN10@DecPetItem

; 2315 : 	{
; 2316 : 		this->m_PetItem_Level = 1;
; 2317 : 		this->m_PetItem_Exp = 0;
; 2318 : 		this->Convert(this->m_Type, this->m_Option1, this->m_Option2,
; 2319 : 			this->m_Option3, this->m_NewOption, this->m_SetOption, 0, CURRENT_DB_VERSION);

  00022	0f b6 86 92 00
	00 00		 movzx	 eax, BYTE PTR [esi+146]
  00029	0f b6 4e 7b	 movzx	 ecx, BYTE PTR [esi+123]
  0002d	0f b6 56 7a	 movzx	 edx, BYTE PTR [esi+122]
  00031	6a 03		 push	 3
  00033	6a 00		 push	 0
  00035	50		 push	 eax
  00036	0f b6 46 79	 movzx	 eax, BYTE PTR [esi+121]
  0003a	51		 push	 ecx
  0003b	0f b6 4e 78	 movzx	 ecx, BYTE PTR [esi+120]
  0003f	52		 push	 edx
  00040	0f bf 56 06	 movsx	 edx, WORD PTR [esi+6]
  00044	50		 push	 eax
  00045	51		 push	 ecx
  00046	c7 86 a0 00 00
	00 01 00 00 00	 mov	 DWORD PTR [esi+160], 1
  00050	c7 86 a4 00 00
	00 00 00 00 00	 mov	 DWORD PTR [esi+164], 0
  0005a	52		 push	 edx
$LN15@DecPetItem:

; 2332 : 		{
; 2333 : 			this->m_PetItem_Level = 1;
; 2334 : 			this->m_PetItem_Exp = 0;
; 2335 : 			this->Convert(this->m_Type, this->m_Option1, this->m_Option2,
; 2336 : 				this->m_Option3, this->m_NewOption, this->m_SetOption, 0, CURRENT_DB_VERSION);

  0005b	8b ce		 mov	 ecx, esi
  0005d	e8 00 00 00 00	 call	 ?Convert@CItem@@QAEXHEEEEEEE@Z ; CItem::Convert

; 2337 : 			this->PetValue();

  00062	8b ce		 mov	 ecx, esi
  00064	e8 00 00 00 00	 call	 ?PetValue@CItem@@QAEXXZ	; CItem::PetValue
$LN1@DecPetItem:

; 2371 : 		}
; 2372 : 	}
; 2373 : 
; 2374 : 	return FALSE;

  00069	5f		 pop	 edi
  0006a	33 c0		 xor	 eax, eax
  0006c	5e		 pop	 esi

; 2375 : }

  0006d	5d		 pop	 ebp
  0006e	c2 04 00	 ret	 4
$LN10@DecPetItem:

; 2320 : 		this->PetValue();
; 2321 : 
; 2322 : 		return FALSE;
; 2323 : 	}
; 2324 : 
; 2325 : 	if ( this->m_Type == ITEMGET(13,4) )

  00071	0f b7 46 06	 movzx	 eax, WORD PTR [esi+6]
  00075	b9 04 1a 00 00	 mov	 ecx, 6660		; 00001a04H
  0007a	66 3b c1	 cmp	 ax, cx
  0007d	0f 85 a6 00 00
	00		 jne	 $LN9@DecPetItem

; 2326 : 	{
; 2327 : 		int exp = gPetItemExp.m_DarkHorseExpTable[1+this->m_PetItem_Level] - gPetItemExp.m_DarkHorseExpTable[this->m_PetItem_Level];

  00083	8b 0c bd d4 00
	00 00		 mov	 ecx, DWORD PTR ?gPetItemExp@@3VCPetItemExp@@A[edi*4+212]
  0008a	2b 0c bd d0 00
	00 00		 sub	 ecx, DWORD PTR ?gPetItemExp@@3VCPetItemExp@@A[edi*4+208]

; 2328 : 		exp = exp * percent/100;

  00091	b8 e1 7a 14 ae	 mov	 eax, -1374389535	; ae147ae1H
  00096	0f af 4d 08	 imul	 ecx, DWORD PTR _percent$[ebp]
  0009a	f7 e9		 imul	 ecx
  0009c	c1 fa 05	 sar	 edx, 5
  0009f	8b c2		 mov	 eax, edx
  000a1	c1 e8 1f	 shr	 eax, 31			; 0000001fH
  000a4	03 c2		 add	 eax, edx

; 2329 : 		this->m_PetItem_Exp -= exp;

  000a6	01 86 a4 00 00
	00		 add	 DWORD PTR [esi+164], eax
  000ac	8b 86 a4 00 00
	00		 mov	 eax, DWORD PTR [esi+164]

; 2330 : 
; 2331 : 		if ( this->m_PetItem_Exp < 0 )

  000b2	79 3e		 jns	 SHORT $LN8@DecPetItem

; 2332 : 		{
; 2333 : 			this->m_PetItem_Level = 1;
; 2334 : 			this->m_PetItem_Exp = 0;
; 2335 : 			this->Convert(this->m_Type, this->m_Option1, this->m_Option2,
; 2336 : 				this->m_Option3, this->m_NewOption, this->m_SetOption, 0, CURRENT_DB_VERSION);

  000b4	0f b6 8e 92 00
	00 00		 movzx	 ecx, BYTE PTR [esi+146]
  000bb	0f b6 56 7b	 movzx	 edx, BYTE PTR [esi+123]
  000bf	0f b6 46 7a	 movzx	 eax, BYTE PTR [esi+122]
  000c3	6a 03		 push	 3
  000c5	6a 00		 push	 0
  000c7	51		 push	 ecx
  000c8	0f b6 4e 79	 movzx	 ecx, BYTE PTR [esi+121]
  000cc	52		 push	 edx
  000cd	0f b6 56 78	 movzx	 edx, BYTE PTR [esi+120]
  000d1	50		 push	 eax
  000d2	51		 push	 ecx
  000d3	52		 push	 edx
  000d4	c7 86 a0 00 00
	00 01 00 00 00	 mov	 DWORD PTR [esi+160], 1
  000de	c7 86 a4 00 00
	00 00 00 00 00	 mov	 DWORD PTR [esi+164], 0
  000e8	68 04 1a 00 00	 push	 6660			; 00001a04H

; 2337 : 			this->PetValue();

  000ed	e9 69 ff ff ff	 jmp	 $LN15@DecPetItem
$LN8@DecPetItem:

; 2338 : 		}
; 2339 : 		else if ( this->m_PetItem_Exp < gPetItemExp.m_DarkHorseExpTable[this->m_PetItem_Level] )

  000f2	3b 04 bd d0 00
	00 00		 cmp	 eax, DWORD PTR ?gPetItemExp@@3VCPetItemExp@@A[edi*4+208]
  000f9	0f 8d 6a ff ff
	ff		 jge	 $LN1@DecPetItem

; 2340 : 		{
; 2341 : 			this->m_PetItem_Level--;
; 2342 : 			this->Convert(this->m_Type, this->m_Option1, this->m_Option2,
; 2343 : 				this->m_Option3, this->m_NewOption, this->m_SetOption, 0, CURRENT_DB_VERSION);

  000ff	0f b6 86 92 00
	00 00		 movzx	 eax, BYTE PTR [esi+146]
  00106	0f b6 4e 7b	 movzx	 ecx, BYTE PTR [esi+123]
  0010a	0f b6 56 7a	 movzx	 edx, BYTE PTR [esi+122]
  0010e	6a 03		 push	 3
  00110	6a 00		 push	 0
  00112	50		 push	 eax
  00113	0f b6 46 79	 movzx	 eax, BYTE PTR [esi+121]
  00117	51		 push	 ecx
  00118	0f b6 4e 78	 movzx	 ecx, BYTE PTR [esi+120]
  0011c	52		 push	 edx
  0011d	50		 push	 eax
  0011e	51		 push	 ecx
  0011f	68 04 1a 00 00	 push	 6660			; 00001a04H

; 2344 : 			this->PetValue();
; 2345 : 			
; 2346 : 			return TRUE;

  00124	e9 af 00 00 00	 jmp	 $LN17@DecPetItem
$LN9@DecPetItem:

; 2347 : 		}
; 2348 : 	}
; 2349 : 	else if ( this->m_Type == ITEMGET(13,5) )

  00129	ba 05 1a 00 00	 mov	 edx, 6661		; 00001a05H
  0012e	66 3b c2	 cmp	 ax, dx
  00131	0f 85 32 ff ff
	ff		 jne	 $LN1@DecPetItem

; 2350 : 	{
; 2351 : 		int exp = gPetItemExp.m_DarkSpiritExpTable[1+this->m_PetItem_Level] - gPetItemExp.m_DarkSpiritExpTable[this->m_PetItem_Level];

  00137	8b 0c bd 04 00
	00 00		 mov	 ecx, DWORD PTR ?gPetItemExp@@3VCPetItemExp@@A[edi*4+4]
  0013e	2b 0c bd 00 00
	00 00		 sub	 ecx, DWORD PTR ?gPetItemExp@@3VCPetItemExp@@A[edi*4]

; 2352 : 		exp = exp * percent/100;

  00145	b8 e1 7a 14 ae	 mov	 eax, -1374389535	; ae147ae1H
  0014a	0f af 4d 08	 imul	 ecx, DWORD PTR _percent$[ebp]
  0014e	f7 e9		 imul	 ecx
  00150	c1 fa 05	 sar	 edx, 5
  00153	8b c2		 mov	 eax, edx
  00155	c1 e8 1f	 shr	 eax, 31			; 0000001fH
  00158	03 c2		 add	 eax, edx

; 2353 : 		this->m_PetItem_Exp -= exp;

  0015a	01 86 a4 00 00
	00		 add	 DWORD PTR [esi+164], eax
  00160	8b 86 a4 00 00
	00		 mov	 eax, DWORD PTR [esi+164]

; 2354 : 
; 2355 : 		if ( this->m_PetItem_Exp < 0 )

  00166	79 3e		 jns	 SHORT $LN3@DecPetItem

; 2356 : 		{
; 2357 : 			this->m_PetItem_Level = 1;
; 2358 : 			this->m_PetItem_Exp = 0;
; 2359 : 			this->Convert(this->m_Type, this->m_Option1, this->m_Option2,
; 2360 : 				this->m_Option3, this->m_NewOption, this->m_SetOption, 0, CURRENT_DB_VERSION);

  00168	0f b6 8e 92 00
	00 00		 movzx	 ecx, BYTE PTR [esi+146]
  0016f	0f b6 56 7b	 movzx	 edx, BYTE PTR [esi+123]
  00173	0f b6 46 7a	 movzx	 eax, BYTE PTR [esi+122]
  00177	6a 03		 push	 3
  00179	6a 00		 push	 0
  0017b	51		 push	 ecx
  0017c	0f b6 4e 79	 movzx	 ecx, BYTE PTR [esi+121]
  00180	52		 push	 edx
  00181	0f b6 56 78	 movzx	 edx, BYTE PTR [esi+120]
  00185	50		 push	 eax
  00186	51		 push	 ecx
  00187	52		 push	 edx
  00188	c7 86 a0 00 00
	00 01 00 00 00	 mov	 DWORD PTR [esi+160], 1
  00192	c7 86 a4 00 00
	00 00 00 00 00	 mov	 DWORD PTR [esi+164], 0
  0019c	68 05 1a 00 00	 push	 6661			; 00001a05H

; 2361 : 			this->PetValue();

  001a1	e9 b5 fe ff ff	 jmp	 $LN15@DecPetItem
$LN3@DecPetItem:

; 2362 : 		}
; 2363 : 		else if ( this->m_PetItem_Exp < gPetItemExp.m_DarkSpiritExpTable[this->m_PetItem_Level] )

  001a6	3b 04 bd 00 00
	00 00		 cmp	 eax, DWORD PTR ?gPetItemExp@@3VCPetItemExp@@A[edi*4]
  001ad	0f 8d b6 fe ff
	ff		 jge	 $LN1@DecPetItem

; 2364 : 		{
; 2365 : 			this->m_PetItem_Level--;
; 2366 : 			this->Convert(this->m_Type, this->m_Option1, this->m_Option2,
; 2367 : 				this->m_Option3, this->m_NewOption, this->m_SetOption, 0, CURRENT_DB_VERSION);

  001b3	0f b6 86 92 00
	00 00		 movzx	 eax, BYTE PTR [esi+146]
  001ba	0f b6 4e 7b	 movzx	 ecx, BYTE PTR [esi+123]
  001be	0f b6 56 7a	 movzx	 edx, BYTE PTR [esi+122]
  001c2	6a 03		 push	 3
  001c4	6a 00		 push	 0
  001c6	50		 push	 eax
  001c7	0f b6 46 79	 movzx	 eax, BYTE PTR [esi+121]
  001cb	51		 push	 ecx
  001cc	0f b6 4e 78	 movzx	 ecx, BYTE PTR [esi+120]
  001d0	52		 push	 edx
  001d1	50		 push	 eax
  001d2	51		 push	 ecx
  001d3	68 05 1a 00 00	 push	 6661			; 00001a05H
$LN17@DecPetItem:
  001d8	4f		 dec	 edi
  001d9	8b ce		 mov	 ecx, esi
  001db	89 be a0 00 00
	00		 mov	 DWORD PTR [esi+160], edi
  001e1	e8 00 00 00 00	 call	 ?Convert@CItem@@QAEXHEEEEEEE@Z ; CItem::Convert

; 2368 : 			this->PetValue();

  001e6	8b ce		 mov	 ecx, esi
  001e8	e8 00 00 00 00	 call	 ?PetValue@CItem@@QAEXXZ	; CItem::PetValue
  001ed	5f		 pop	 edi

; 2369 : 			
; 2370 : 			return TRUE;

  001ee	b8 01 00 00 00	 mov	 eax, 1
  001f3	5e		 pop	 esi

; 2375 : }

  001f4	5d		 pop	 ebp
  001f5	c2 04 00	 ret	 4
?DecPetItemExp@CItem@@QAEHH@Z ENDP			; CItem::DecPetItemExp
_TEXT	ENDS
PUBLIC	?PetItemLevelDown@CItem@@QAEHH@Z		; CItem::PetItemLevelDown
; Function compile flags: /Ogtp
;	COMDAT ?PetItemLevelDown@CItem@@QAEHH@Z
_TEXT	SEGMENT
_exp$ = 8						; size = 4
?PetItemLevelDown@CItem@@QAEHH@Z PROC			; CItem::PetItemLevelDown, COMDAT
; _this$ = ecx

; 2378 : {

  00000	55		 push	 ebp
  00001	8b ec		 mov	 ebp, esp
  00003	56		 push	 esi
  00004	8b f1		 mov	 esi, ecx

; 2379 : 	if ( this->m_IsLoadPetItemInfo == FALSE )

  00006	83 be 9c 00 00
	00 00		 cmp	 DWORD PTR [esi+156], 0
  0000d	75 07		 jne	 SHORT $LN11@PetItemLev
$LN20@PetItemLev:

; 2380 : 	{
; 2381 : 		return FALSE;

  0000f	33 c0		 xor	 eax, eax
  00011	5e		 pop	 esi

; 2434 : }

  00012	5d		 pop	 ebp
  00013	c2 04 00	 ret	 4
$LN11@PetItemLev:

; 2382 : 	}
; 2383 : 
; 2384 : 	if ( this->m_PetItem_Level < 2 )

  00016	8b 86 a0 00 00
	00		 mov	 eax, DWORD PTR [esi+160]
  0001c	83 f8 02	 cmp	 eax, 2

; 2385 : 	{
; 2386 : 		return FALSE;

  0001f	7c ee		 jl	 SHORT $LN20@PetItemLev

; 2387 : 	}
; 2388 : 
; 2389 : 	this->m_PetItem_Exp -= exp;

  00021	8b 4d 08	 mov	 ecx, DWORD PTR _exp$[ebp]

; 2390 : 	this->m_PetItem_Level--;
; 2391 : 
; 2392 : 	if ( this->m_Type == ITEMGET(13,4) )

  00024	0f b7 56 06	 movzx	 edx, WORD PTR [esi+6]
  00028	29 8e a4 00 00
	00		 sub	 DWORD PTR [esi+164], ecx
  0002e	8b 8e a4 00 00
	00		 mov	 ecx, DWORD PTR [esi+164]
  00034	57		 push	 edi
  00035	48		 dec	 eax
  00036	bf 04 1a 00 00	 mov	 edi, 6660		; 00001a04H
  0003b	89 86 a0 00 00
	00		 mov	 DWORD PTR [esi+160], eax
  00041	66 3b d7	 cmp	 dx, di
  00044	75 21		 jne	 SHORT $LN9@PetItemLev

; 2393 : 	{
; 2394 : 		int petlevel = this->m_PetItem_Level;
; 2395 : 		int petexp = gPetItemExp.m_DarkHorseExpTable[petlevel];
; 2396 : 
; 2397 : 		while ( this->m_PetItem_Exp <= petexp )

  00046	3b 0c 85 d0 00
	00 00		 cmp	 ecx, DWORD PTR ?gPetItemExp@@3VCPetItemExp@@A[eax*4+208]
  0004d	7f 46		 jg	 SHORT $LN17@PetItemLev
  0004f	90		 npad	 1
$LL8@PetItemLev:

; 2398 : 		{
; 2399 : 			if ( petlevel <= 1 )

  00050	83 f8 01	 cmp	 eax, 1
  00053	7e 40		 jle	 SHORT $LN17@PetItemLev

; 2400 : 			{
; 2401 : 				break;
; 2402 : 			}
; 2403 : 
; 2404 : 			petlevel--;

  00055	8b 8e a4 00 00
	00		 mov	 ecx, DWORD PTR [esi+164]
  0005b	48		 dec	 eax
  0005c	3b 0c 85 d0 00
	00 00		 cmp	 ecx, DWORD PTR ?gPetItemExp@@3VCPetItemExp@@A[eax*4+208]
  00063	7e eb		 jle	 SHORT $LL8@PetItemLev

; 2405 : 			petexp = gPetItemExp.m_DarkHorseExpTable[petlevel];
; 2406 : 		}
; 2407 : 
; 2408 : 		this->m_PetItem_Level = petlevel;

  00065	eb 2e		 jmp	 SHORT $LN17@PetItemLev
$LN9@PetItemLev:

; 2409 : 	}
; 2410 : 	else if ( this->m_Type == ITEMGET(13,5) )

  00067	bf 05 1a 00 00	 mov	 edi, 6661		; 00001a05H
  0006c	66 3b d7	 cmp	 dx, di
  0006f	75 2a		 jne	 SHORT $LN4@PetItemLev

; 2411 : 	{
; 2412 : 		int petlevel = this->m_PetItem_Level;
; 2413 : 		int petexp = gPetItemExp.m_DarkSpiritExpTable[petlevel];
; 2414 : 
; 2415 : 		while ( this->m_PetItem_Exp <= petexp )

  00071	3b 0c 85 00 00
	00 00		 cmp	 ecx, DWORD PTR ?gPetItemExp@@3VCPetItemExp@@A[eax*4]
  00078	7f 1b		 jg	 SHORT $LN17@PetItemLev
  0007a	8d 9b 00 00 00
	00		 npad	 6
$LL3@PetItemLev:

; 2416 : 		{
; 2417 : 			if ( petlevel <= 1 )

  00080	83 f8 01	 cmp	 eax, 1
  00083	7e 10		 jle	 SHORT $LN17@PetItemLev

; 2418 : 			{
; 2419 : 				break;
; 2420 : 			}
; 2421 : 
; 2422 : 			petlevel--;

  00085	8b 8e a4 00 00
	00		 mov	 ecx, DWORD PTR [esi+164]
  0008b	48		 dec	 eax
  0008c	3b 0c 85 00 00
	00 00		 cmp	 ecx, DWORD PTR ?gPetItemExp@@3VCPetItemExp@@A[eax*4]
  00093	7e eb		 jle	 SHORT $LL3@PetItemLev
$LN17@PetItemLev:

; 2423 : 			petexp = gPetItemExp.m_DarkSpiritExpTable[petlevel];
; 2424 : 		}
; 2425 : 
; 2426 : 		this->m_PetItem_Level = petlevel;

  00095	89 86 a0 00 00
	00		 mov	 DWORD PTR [esi+160], eax
$LN4@PetItemLev:

; 2427 : 	}
; 2428 : 
; 2429 : 	this->Convert(this->m_Type, this->m_Option1, this->m_Option2,
; 2430 : 		this->m_Option3, this->m_NewOption, this->m_SetOption, 0, CURRENT_DB_VERSION);

  0009b	0f b6 86 92 00
	00 00		 movzx	 eax, BYTE PTR [esi+146]
  000a2	0f b6 4e 7b	 movzx	 ecx, BYTE PTR [esi+123]
  000a6	6a 03		 push	 3
  000a8	6a 00		 push	 0
  000aa	50		 push	 eax
  000ab	0f b6 46 7a	 movzx	 eax, BYTE PTR [esi+122]
  000af	51		 push	 ecx
  000b0	0f b6 4e 79	 movzx	 ecx, BYTE PTR [esi+121]
  000b4	50		 push	 eax
  000b5	0f b6 46 78	 movzx	 eax, BYTE PTR [esi+120]
  000b9	51		 push	 ecx
  000ba	0f bf ca	 movsx	 ecx, dx
  000bd	50		 push	 eax
  000be	51		 push	 ecx
  000bf	8b ce		 mov	 ecx, esi
  000c1	e8 00 00 00 00	 call	 ?Convert@CItem@@QAEXHEEEEEEE@Z ; CItem::Convert

; 2431 : 	this->PetValue();

  000c6	8b ce		 mov	 ecx, esi
  000c8	e8 00 00 00 00	 call	 ?PetValue@CItem@@QAEXXZ	; CItem::PetValue
  000cd	5f		 pop	 edi

; 2432 : 
; 2433 : 	return TRUE;

  000ce	b8 01 00 00 00	 mov	 eax, 1
  000d3	5e		 pop	 esi

; 2434 : }

  000d4	5d		 pop	 ebp
  000d5	c2 04 00	 ret	 4
?PetItemLevelDown@CItem@@QAEHH@Z ENDP			; CItem::PetItemLevelDown
_TEXT	ENDS
PUBLIC	?CheckDurabilityState@CItem@@QAEHXZ		; CItem::CheckDurabilityState
; Function compile flags: /Ogtp
;	COMDAT ?CheckDurabilityState@CItem@@QAEHXZ
_TEXT	SEGMENT
?CheckDurabilityState@CItem@@QAEHXZ PROC		; CItem::CheckDurabilityState, COMDAT
; _this$ = ecx

; 2966 : 	if ( this->m_Durability == 0.0f )

  00000	d9 41 24	 fld	 DWORD PTR [ecx+36]
  00003	d9 ee		 fldz
  00005	d9 c0		 fld	 ST(0)
  00007	dd ea		 fucomp	 ST(2)
  00009	df e0		 fnstsw	 ax
  0000b	dd d9		 fstp	 ST(1)
  0000d	f6 c4 44	 test	 ah, 68			; 00000044H
  00010	7a 51		 jp	 SHORT $LN13@CheckDurab
  00012	dd d8		 fstp	 ST(0)

; 2967 : 	{
; 2968 : 		if ( this->m_CurrentDurabilityState != 1.0f )

  00014	d9 81 8c 00 00
	00		 fld	 DWORD PTR [ecx+140]
  0001a	d9 e8		 fld1
$LN40@CheckDurab:
  0001c	d9 c0		 fld	 ST(0)
  0001e	dd ea		 fucomp	 ST(2)
  00020	df e0		 fnstsw	 ax
  00022	dd d9		 fstp	 ST(1)
$LN42@CheckDurab:
  00024	f6 c4 44	 test	 ah, 68			; 00000044H
  00027	0f 8b bf 00 00
	00		 jnp	 $LN38@CheckDurab
$LN41@CheckDurab:

; 2969 : 		{
; 2970 : 			this->m_CurrentDurabilityState = 1.0f;
; 2971 : 			this->Convert(this->m_Type, this->m_Option1, this->m_Option2, this->m_Option3, this->m_NewOption,
; 2972 : 				this->m_SetOption, 0, CURRENT_DB_VERSION);

  0002d	0f b6 81 92 00
	00 00		 movzx	 eax, BYTE PTR [ecx+146]
  00034	d9 99 8c 00 00
	00		 fstp	 DWORD PTR [ecx+140]
  0003a	0f b6 51 7b	 movzx	 edx, BYTE PTR [ecx+123]
  0003e	6a 03		 push	 3
  00040	6a 00		 push	 0
  00042	50		 push	 eax
  00043	0f b6 41 7a	 movzx	 eax, BYTE PTR [ecx+122]
  00047	52		 push	 edx
  00048	0f b6 51 79	 movzx	 edx, BYTE PTR [ecx+121]
  0004c	50		 push	 eax
  0004d	0f b6 41 78	 movzx	 eax, BYTE PTR [ecx+120]
  00051	52		 push	 edx
  00052	0f bf 51 06	 movsx	 edx, WORD PTR [ecx+6]
  00056	50		 push	 eax
  00057	52		 push	 edx
  00058	e8 00 00 00 00	 call	 ?Convert@CItem@@QAEXHEEEEEEE@Z ; CItem::Convert

; 2973 : 			return true;

  0005d	b8 01 00 00 00	 mov	 eax, 1

; 3015 : }

  00062	c3		 ret	 0
$LN13@CheckDurab:

; 2974 : 		}
; 2975 : 	}
; 2976 : 	else if ( this->m_Durability < this->m_DurabilityState[2] )

  00063	d9 41 24	 fld	 DWORD PTR [ecx+36]
  00066	d9 81 84 00 00
	00		 fld	 DWORD PTR [ecx+132]
  0006c	de d9		 fcompp
  0006e	df e0		 fnstsw	 ax
  00070	f6 c4 41	 test	 ah, 65			; 00000041H
  00073	75 10		 jne	 SHORT $LN10@CheckDurab
  00075	dd d8		 fstp	 ST(0)

; 2977 : 	{
; 2978 : 		if ( this->m_CurrentDurabilityState != 0.5f )

  00077	d9 81 8c 00 00
	00		 fld	 DWORD PTR [ecx+140]
  0007d	d9 05 00 00 00
	00		 fld	 DWORD PTR __real@3f000000

; 2979 : 		{
; 2980 : 			this->m_CurrentDurabilityState = 0.5f;
; 2981 : 			this->Convert(this->m_Type, this->m_Option1, this->m_Option2, this->m_Option3, this->m_NewOption,
; 2982 : 				this->m_SetOption, 0, CURRENT_DB_VERSION);
; 2983 : 			return true;

  00083	eb 97		 jmp	 SHORT $LN40@CheckDurab
$LN10@CheckDurab:

; 2984 : 		}
; 2985 : 	}
; 2986 : 	else if ( this->m_Durability < this->m_DurabilityState[1] )

  00085	d9 41 24	 fld	 DWORD PTR [ecx+36]
  00088	d9 81 80 00 00
	00		 fld	 DWORD PTR [ecx+128]
  0008e	de d9		 fcompp
  00090	df e0		 fnstsw	 ax
  00092	f6 c4 41	 test	 ah, 65			; 00000041H
  00095	75 13		 jne	 SHORT $LN7@CheckDurab
  00097	dd d8		 fstp	 ST(0)

; 2987 : 	{
; 2988 : 		if ( this->m_CurrentDurabilityState != 0.3f )

  00099	d9 81 8c 00 00
	00		 fld	 DWORD PTR [ecx+140]
  0009f	d9 05 00 00 00
	00		 fld	 DWORD PTR __real@3e99999a

; 2989 : 		{
; 2990 : 			this->m_CurrentDurabilityState = 0.3f;
; 2991 : 			this->Convert(this->m_Type, this->m_Option1, this->m_Option2, this->m_Option3, this->m_NewOption,
; 2992 : 				this->m_SetOption, 0, CURRENT_DB_VERSION);
; 2993 : 			return true;

  000a5	e9 72 ff ff ff	 jmp	 $LN40@CheckDurab
$LN7@CheckDurab:

; 2994 : 		}
; 2995 : 	}
; 2996 : 	else if ( this->m_Durability < this->m_DurabilityState[0] )

  000aa	d9 41 24	 fld	 DWORD PTR [ecx+36]
  000ad	d9 41 7c	 fld	 DWORD PTR [ecx+124]
  000b0	de d9		 fcompp
  000b2	df e0		 fnstsw	 ax
  000b4	f6 c4 41	 test	 ah, 65			; 00000041H
  000b7	75 22		 jne	 SHORT $LN4@CheckDurab
  000b9	dd d8		 fstp	 ST(0)

; 2997 : 	{
; 2998 : 		if ( this->m_CurrentDurabilityState != 0.2f )

  000bb	d9 81 8c 00 00
	00		 fld	 DWORD PTR [ecx+140]
  000c1	dd 05 00 00 00
	00		 fld	 QWORD PTR __real@3fc99999a0000000
  000c7	da e9		 fucompp
  000c9	df e0		 fnstsw	 ax
  000cb	f6 c4 44	 test	 ah, 68			; 00000044H
  000ce	7b 1e		 jnp	 SHORT $LN1@CheckDurab

; 2999 : 		{
; 3000 : 			this->m_CurrentDurabilityState = 0.2f;

  000d0	d9 05 00 00 00
	00		 fld	 DWORD PTR __real@3e4ccccd

; 3001 : 			this->Convert(this->m_Type, this->m_Option1, this->m_Option2, this->m_Option3, this->m_NewOption,
; 3002 : 				this->m_SetOption, 0, CURRENT_DB_VERSION);
; 3003 : 			return true;

  000d6	e9 52 ff ff ff	 jmp	 $LN41@CheckDurab
$LN4@CheckDurab:

; 3004 : 		}
; 3005 : 	}
; 3006 : 	else if ( this->m_CurrentDurabilityState != 0.0f )

  000db	d9 81 8c 00 00
	00		 fld	 DWORD PTR [ecx+140]
  000e1	d9 c1		 fld	 ST(1)
  000e3	da e9		 fucompp
  000e5	df e0		 fnstsw	 ax

; 3007 : 	{
; 3008 : 		this->m_CurrentDurabilityState = 0;
; 3009 : 		this->Convert(this->m_Type, this->m_Option1, this->m_Option2, this->m_Option3, this->m_NewOption,
; 3010 : 			this->m_SetOption, 0, CURRENT_DB_VERSION);
; 3011 : 		return true;

  000e7	e9 38 ff ff ff	 jmp	 $LN42@CheckDurab
$LN38@CheckDurab:

; 2987 : 	{
; 2988 : 		if ( this->m_CurrentDurabilityState != 0.3f )

  000ec	dd d8		 fstp	 ST(0)
$LN1@CheckDurab:

; 3012 : 	}
; 3013 : 
; 3014 : 	return false;

  000ee	33 c0		 xor	 eax, eax

; 3015 : }

  000f0	c3		 ret	 0
?CheckDurabilityState@CItem@@QAEHXZ ENDP		; CItem::CheckDurabilityState
_TEXT	ENDS
PUBLIC	?SimpleDurabilityDown@CItem@@QAEHH@Z		; CItem::SimpleDurabilityDown
; Function compile flags: /Ogtp
;	COMDAT ?SimpleDurabilityDown@CItem@@QAEHH@Z
_TEXT	SEGMENT
tv133 = -4						; size = 4
_iDecValue$ = 8						; size = 4
?SimpleDurabilityDown@CItem@@QAEHH@Z PROC		; CItem::SimpleDurabilityDown, COMDAT
; _this$ = ecx

; 2683 : {

  00000	55		 push	 ebp
  00001	8b ec		 mov	 ebp, esp
  00003	51		 push	 ecx

; 2684 : 	this->m_Durability -= 1.0f ;

  00004	d9 41 24	 fld	 DWORD PTR [ecx+36]
  00007	56		 push	 esi
  00008	dc 25 00 00 00
	00		 fsub	 QWORD PTR __real@3ff0000000000000
  0000e	8d 71 24	 lea	 esi, DWORD PTR [ecx+36]
  00011	d9 5d fc	 fstp	 DWORD PTR tv133[ebp]
  00014	d9 45 fc	 fld	 DWORD PTR tv133[ebp]
  00017	d9 16		 fst	 DWORD PTR [esi]

; 2685 : 
; 2686 : 	if ( this->m_Durability < 0 )

  00019	d9 ee		 fldz
  0001b	d8 d1		 fcom	 ST(1)
  0001d	df e0		 fnstsw	 ax
  0001f	dd d9		 fstp	 ST(1)
  00021	f6 c4 41	 test	 ah, 65			; 00000041H
  00024	75 0b		 jne	 SHORT $LN6@SimpleDura

; 2687 : 	{
; 2688 : 		this->m_Durability = 0.0f;

  00026	d9 1e		 fstp	 DWORD PTR [esi]

; 2689 : 		return 0;

  00028	33 c0		 xor	 eax, eax
  0002a	5e		 pop	 esi

; 2698 : }

  0002b	8b e5		 mov	 esp, ebp
  0002d	5d		 pop	 ebp
  0002e	c2 04 00	 ret	 4
$LN6@SimpleDura:

; 2685 : 
; 2686 : 	if ( this->m_Durability < 0 )

  00031	dd d8		 fstp	 ST(0)

; 2690 : 	}
; 2691 : 
; 2692 : 	if ( this->CheckDurabilityState() != 0 )

  00033	e8 00 00 00 00	 call	 ?CheckDurabilityState@CItem@@QAEHXZ ; CItem::CheckDurabilityState
  00038	85 c0		 test	 eax, eax
  0003a	74 0c		 je	 SHORT $LN1@SimpleDura

; 2693 : 	{
; 2694 : 		return 2;

  0003c	b8 02 00 00 00	 mov	 eax, 2
  00041	5e		 pop	 esi

; 2698 : }

  00042	8b e5		 mov	 esp, ebp
  00044	5d		 pop	 ebp
  00045	c2 04 00	 ret	 4
$LN1@SimpleDura:

; 2695 : 	}
; 2696 : 
; 2697 : 	return this->m_Durability;

  00048	d9 06		 fld	 DWORD PTR [esi]
  0004a	e8 00 00 00 00	 call	 __ftol2_sse
  0004f	5e		 pop	 esi

; 2698 : }

  00050	8b e5		 mov	 esp, ebp
  00052	5d		 pop	 ebp
  00053	c2 04 00	 ret	 4
?SimpleDurabilityDown@CItem@@QAEHH@Z ENDP		; CItem::SimpleDurabilityDown
_TEXT	ENDS
PUBLIC	?DurabilityDown@CItem@@QAEHHH@Z			; CItem::DurabilityDown
; Function compile flags: /Ogtp
;	COMDAT ?DurabilityDown@CItem@@QAEHHH@Z
_TEXT	SEGMENT
tv139 = 8						; size = 4
_dur$ = 8						; size = 4
_iDecValue$ = 12					; size = 4
?DurabilityDown@CItem@@QAEHHH@Z PROC			; CItem::DurabilityDown, COMDAT
; _this$ = ecx

; 2701 : {

  00000	55		 push	 ebp
  00001	8b ec		 mov	 ebp, esp

; 2702 : 	if ( this->m_Durability <= 0 )

  00003	d9 ee		 fldz
  00005	d8 51 24	 fcom	 DWORD PTR [ecx+36]
  00008	df e0		 fnstsw	 ax
  0000a	f6 c4 01	 test	 ah, 1
  0000d	75 08		 jne	 SHORT $LN4@Durability@2
  0000f	dd d8		 fstp	 ST(0)

; 2703 : 	{
; 2704 : 		return 0;

  00011	33 c0		 xor	 eax, eax

; 2727 : }

  00013	5d		 pop	 ebp
  00014	c2 08 00	 ret	 8
$LN4@Durability@2:

; 2705 : 	}
; 2706 : 
; 2707 : 	this->m_DurabilitySmall += dur;

  00017	66 8b 45 08	 mov	 ax, WORD PTR _dur$[ebp]
  0001b	66 01 41 28	 add	 WORD PTR [ecx+40], ax
  0001f	56		 push	 esi

; 2708 : 	
; 2709 : 	if ( this->m_DurabilitySmall > 564 )

  00020	be 34 02 00 00	 mov	 esi, 564		; 00000234H
  00025	66 39 71 28	 cmp	 WORD PTR [ecx+40], si
  00029	5e		 pop	 esi
  0002a	76 46		 jbe	 SHORT $LN11@Durability@2

; 2710 : 	{
; 2711 : 		this->m_DurabilitySmall = 0;
; 2712 : 		this->m_Durability -= 1.0f;

  0002c	d9 41 24	 fld	 DWORD PTR [ecx+36]
  0002f	33 c0		 xor	 eax, eax
  00031	dc 25 00 00 00
	00		 fsub	 QWORD PTR __real@3ff0000000000000
  00037	66 89 41 28	 mov	 WORD PTR [ecx+40], ax
  0003b	d9 5d 08	 fstp	 DWORD PTR tv139[ebp]
  0003e	d9 45 08	 fld	 DWORD PTR tv139[ebp]
  00041	d9 51 24	 fst	 DWORD PTR [ecx+36]

; 2713 : 
; 2714 : 		if ( this ->m_Durability < 0.0f )

  00044	d8 d9		 fcomp	 ST(1)
  00046	df e0		 fnstsw	 ax
  00048	f6 c4 05	 test	 ah, 5
  0004b	7a 13		 jp	 SHORT $LN14@Durability@2

; 2715 : 		{
; 2716 : 			this->m_Durability = 0;

  0004d	d9 59 24	 fstp	 DWORD PTR [ecx+36]

; 2717 : 		}
; 2718 : 
; 2719 : 		if ( this->CheckDurabilityState() != FALSE )

  00050	e8 00 00 00 00	 call	 ?CheckDurabilityState@CItem@@QAEHXZ ; CItem::CheckDurabilityState
  00055	f7 d8		 neg	 eax
  00057	1b c0		 sbb	 eax, eax
  00059	f7 d8		 neg	 eax
  0005b	40		 inc	 eax

; 2727 : }

  0005c	5d		 pop	 ebp
  0005d	c2 08 00	 ret	 8
$LN14@Durability@2:

; 2715 : 		{
; 2716 : 			this->m_Durability = 0;

  00060	dd d8		 fstp	 ST(0)

; 2717 : 		}
; 2718 : 
; 2719 : 		if ( this->CheckDurabilityState() != FALSE )

  00062	e8 00 00 00 00	 call	 ?CheckDurabilityState@CItem@@QAEHXZ ; CItem::CheckDurabilityState
  00067	f7 d8		 neg	 eax
  00069	1b c0		 sbb	 eax, eax
  0006b	f7 d8		 neg	 eax
  0006d	40		 inc	 eax

; 2727 : }

  0006e	5d		 pop	 ebp
  0006f	c2 08 00	 ret	 8
$LN11@Durability@2:

; 2708 : 	
; 2709 : 	if ( this->m_DurabilitySmall > 564 )

  00072	dd d8		 fstp	 ST(0)

; 2720 : 		{
; 2721 : 			return 2;
; 2722 : 		}
; 2723 : 		return 1;
; 2724 : 	}
; 2725 : 	
; 2726 : 	return this->m_Durability;

  00074	d9 41 24	 fld	 DWORD PTR [ecx+36]
  00077	e8 00 00 00 00	 call	 __ftol2_sse

; 2727 : }

  0007c	5d		 pop	 ebp
  0007d	c2 08 00	 ret	 8
?DurabilityDown@CItem@@QAEHHH@Z ENDP			; CItem::DurabilityDown
_TEXT	ENDS
PUBLIC	?DurabilityDown2@CItem@@QAEHHH@Z		; CItem::DurabilityDown2
; Function compile flags: /Ogtp
;	COMDAT ?DurabilityDown2@CItem@@QAEHHH@Z
_TEXT	SEGMENT
tv139 = 8						; size = 4
_dur$ = 8						; size = 4
_iDecValue$ = 12					; size = 4
?DurabilityDown2@CItem@@QAEHHH@Z PROC			; CItem::DurabilityDown2, COMDAT
; _this$ = ecx

; 2730 : {

  00000	55		 push	 ebp
  00001	8b ec		 mov	 ebp, esp

; 2731 : 	if ( this->m_Durability <= 0 )

  00003	d9 ee		 fldz
  00005	d8 51 24	 fcom	 DWORD PTR [ecx+36]
  00008	df e0		 fnstsw	 ax
  0000a	f6 c4 01	 test	 ah, 1

; 2732 : 	{
; 2733 : 		return 0;

  0000d	74 59		 je	 SHORT $LN11@Durability@3

; 2734 : 	}
; 2735 : 
; 2736 : 	this->m_DurabilitySmall += dur;

  0000f	66 8b 45 08	 mov	 ax, WORD PTR _dur$[ebp]
  00013	66 01 41 28	 add	 WORD PTR [ecx+40], ax

; 2737 : 	
; 2738 : 	if ( this->m_DurabilitySmall > 1000 )

  00017	ba e8 03 00 00	 mov	 edx, 1000		; 000003e8H
  0001c	66 39 51 28	 cmp	 WORD PTR [ecx+40], dx
  00020	76 46		 jbe	 SHORT $LN11@Durability@3

; 2739 : 	{
; 2740 : 		this->m_DurabilitySmall = 0;
; 2741 : 		this->m_Durability -= 1.0f;

  00022	d9 41 24	 fld	 DWORD PTR [ecx+36]
  00025	33 c0		 xor	 eax, eax
  00027	dc 25 00 00 00
	00		 fsub	 QWORD PTR __real@3ff0000000000000
  0002d	66 89 41 28	 mov	 WORD PTR [ecx+40], ax
  00031	d9 5d 08	 fstp	 DWORD PTR tv139[ebp]
  00034	d9 45 08	 fld	 DWORD PTR tv139[ebp]
  00037	d9 51 24	 fst	 DWORD PTR [ecx+36]

; 2742 : 
; 2743 : 		if ( this->m_Durability < 0.0f )

  0003a	d8 d9		 fcomp	 ST(1)
  0003c	df e0		 fnstsw	 ax
  0003e	f6 c4 05	 test	 ah, 5
  00041	7a 13		 jp	 SHORT $LN14@Durability@3

; 2744 : 		{
; 2745 : 			this->m_Durability = 0;

  00043	d9 59 24	 fstp	 DWORD PTR [ecx+36]

; 2746 : 		}
; 2747 : 
; 2748 : 		if ( this->CheckDurabilityState() != FALSE )

  00046	e8 00 00 00 00	 call	 ?CheckDurabilityState@CItem@@QAEHXZ ; CItem::CheckDurabilityState
  0004b	f7 d8		 neg	 eax
  0004d	1b c0		 sbb	 eax, eax
  0004f	f7 d8		 neg	 eax
  00051	40		 inc	 eax

; 2756 : }

  00052	5d		 pop	 ebp
  00053	c2 08 00	 ret	 8
$LN14@Durability@3:

; 2744 : 		{
; 2745 : 			this->m_Durability = 0;

  00056	dd d8		 fstp	 ST(0)

; 2746 : 		}
; 2747 : 
; 2748 : 		if ( this->CheckDurabilityState() != FALSE )

  00058	e8 00 00 00 00	 call	 ?CheckDurabilityState@CItem@@QAEHXZ ; CItem::CheckDurabilityState
  0005d	f7 d8		 neg	 eax
  0005f	1b c0		 sbb	 eax, eax
  00061	f7 d8		 neg	 eax
  00063	40		 inc	 eax

; 2756 : }

  00064	5d		 pop	 ebp
  00065	c2 08 00	 ret	 8
$LN11@Durability@3:

; 2749 : 		{
; 2750 : 			return 2;
; 2751 : 		}
; 2752 : 		return 1;
; 2753 : 	}
; 2754 : 	
; 2755 : 	return 0;

  00068	33 c0		 xor	 eax, eax

; 2737 : 	
; 2738 : 	if ( this->m_DurabilitySmall > 1000 )

  0006a	dd d8		 fstp	 ST(0)

; 2756 : }

  0006c	5d		 pop	 ebp
  0006d	c2 08 00	 ret	 8
?DurabilityDown2@CItem@@QAEHHH@Z ENDP			; CItem::DurabilityDown2
_TEXT	ENDS
PUBLIC	??_C@_0BC@PKKGKBLO@damagemin?$MA?L?50?$MA?L?$LE?Y?$AA@ ; `string'
PUBLIC	?NormalWeaponDurabilityDown@CItem@@QAEHHH@Z	; CItem::NormalWeaponDurabilityDown
;	COMDAT ??_C@_0BC@PKKGKBLO@damagemin?$MA?L?50?$MA?L?$LE?Y?$AA@
CONST	SEGMENT
??_C@_0BC@PKKGKBLO@damagemin?$MA?L?50?$MA?L?$LE?Y?$AA@ DB 'damagemin', 0c0H
	DB	0ccH, ' 0', 0c0H, 0ccH, 0b4H, 0d9H, 00H	; `string'
; Function compile flags: /Ogtp
CONST	ENDS
;	COMDAT ?NormalWeaponDurabilityDown@CItem@@QAEHHH@Z
_TEXT	SEGMENT
_plusdamage$ = -4					; size = 4
tv182 = 8						; size = 4
_defense$ = 8						; size = 4
_aIndex$ = 12						; size = 4
?NormalWeaponDurabilityDown@CItem@@QAEHHH@Z PROC	; CItem::NormalWeaponDurabilityDown, COMDAT
; _this$ = ecx

; 2759 : {

  00000	55		 push	 ebp
  00001	8b ec		 mov	 ebp, esp
  00003	51		 push	 ecx

; 2760 : 	if ( this->m_Durability <= 0 )

  00004	d9 ee		 fldz
  00006	56		 push	 esi
  00007	8b f1		 mov	 esi, ecx
  00009	d8 5e 24	 fcomp	 DWORD PTR [esi+36]
  0000c	df e0		 fnstsw	 ax
  0000e	f6 c4 01	 test	 ah, 1
  00011	75 09		 jne	 SHORT $LN6@NormalWeap

; 2761 : 	{
; 2762 : 		return 0;

  00013	33 c0		 xor	 eax, eax
  00015	5e		 pop	 esi

; 2804 : }

  00016	8b e5		 mov	 esp, ebp
  00018	5d		 pop	 ebp
  00019	c2 08 00	 ret	 8
$LN6@NormalWeap:
  0001c	57		 push	 edi

; 2763 : 	}
; 2764 : 
; 2765 : 	int damagemin = this->m_DamageMinOrigin;

  0001d	0f b7 7e 1c	 movzx	 edi, WORD PTR [esi+28]

; 2766 : 	int plusdamage = 0;
; 2767 : 	this->PlusSpecial(&plusdamage, 80);

  00021	6a 50		 push	 80			; 00000050H
  00023	8d 45 fc	 lea	 eax, DWORD PTR _plusdamage$[ebp]
  00026	50		 push	 eax
  00027	c7 45 fc 00 00
	00 00		 mov	 DWORD PTR _plusdamage$[ebp], 0
  0002e	e8 00 00 00 00	 call	 ?PlusSpecial@CItem@@QAEXPAHH@Z ; CItem::PlusSpecial

; 2768 : 
; 2769 : 	if ( damagemin == 0 )

  00033	85 ff		 test	 edi, edi
  00035	75 18		 jne	 SHORT $LN5@NormalWeap

; 2770 : 	{
; 2771 : 		LogAdd(LOG_BLACK, "damagemin이 0이다");

  00037	68 00 00 00 00	 push	 OFFSET ??_C@_0BC@PKKGKBLO@damagemin?$MA?L?50?$MA?L?$LE?Y?$AA@
  0003c	57		 push	 edi
  0003d	e8 00 00 00 00	 call	 ?LogAdd@@YAXW4eLogColor@@PADZZ ; LogAdd
  00042	83 c4 08	 add	 esp, 8
$LN3@NormalWeap:

; 2796 : 		{
; 2797 : 			return 2;
; 2798 : 		}
; 2799 : 		
; 2800 : 		return 1;
; 2801 : 		
; 2802 : 	}
; 2803 : 	return 0;

  00045	5f		 pop	 edi
  00046	33 c0		 xor	 eax, eax
  00048	5e		 pop	 esi

; 2804 : }

  00049	8b e5		 mov	 esp, ebp
  0004b	5d		 pop	 ebp
  0004c	c2 08 00	 ret	 8
$LN5@NormalWeap:

; 2772 : 		return 0;
; 2773 : 	}
; 2774 : 
; 2775 : 	int div = damagemin + damagemin/2 + plusdamage;

  0004f	8b c7		 mov	 eax, edi
  00051	99		 cdq
  00052	2b c2		 sub	 eax, edx
  00054	8b c8		 mov	 ecx, eax
  00056	d1 f9		 sar	 ecx, 1
  00058	03 4d fc	 add	 ecx, DWORD PTR _plusdamage$[ebp]
  0005b	03 cf		 add	 ecx, edi

; 2776 : 
; 2777 : 	if ( div == 0 )
; 2778 : 	{
; 2779 : 		return 0;

  0005d	74 e6		 je	 SHORT $LN3@NormalWeap

; 2780 : 	}
; 2781 : 
; 2782 : 	int DecreaseDur = (defense*2)/div;

  0005f	8b 45 08	 mov	 eax, DWORD PTR _defense$[ebp]
  00062	03 c0		 add	 eax, eax
  00064	99		 cdq
  00065	f7 f9		 idiv	 ecx

; 2783 : 	this->m_DurabilitySmall += DecreaseDur;
; 2784 : 
; 2785 : 	if ( this->m_DurabilitySmall > 564 )

  00067	b9 34 02 00 00	 mov	 ecx, 564		; 00000234H
  0006c	66 01 46 28	 add	 WORD PTR [esi+40], ax
  00070	66 39 4e 28	 cmp	 WORD PTR [esi+40], cx
  00074	76 cf		 jbe	 SHORT $LN3@NormalWeap

; 2786 : 	{
; 2787 : 		this->m_DurabilitySmall = 0;
; 2788 : 		this->m_Durability -= 1.0f;

  00076	d9 46 24	 fld	 DWORD PTR [esi+36]
  00079	33 d2		 xor	 edx, edx
  0007b	dc 25 00 00 00
	00		 fsub	 QWORD PTR __real@3ff0000000000000
  00081	66 89 56 28	 mov	 WORD PTR [esi+40], dx
  00085	d9 5d 08	 fstp	 DWORD PTR tv182[ebp]
  00088	d9 45 08	 fld	 DWORD PTR tv182[ebp]
  0008b	d9 56 24	 fst	 DWORD PTR [esi+36]

; 2789 : 
; 2790 : 		if ( this->m_Durability < 0.0f )

  0008e	d9 ee		 fldz
  00090	d8 d1		 fcom	 ST(1)
  00092	df e0		 fnstsw	 ax
  00094	dd d9		 fstp	 ST(1)
  00096	f6 c4 41	 test	 ah, 65			; 00000041H
  00099	75 19		 jne	 SHORT $LN11@NormalWeap

; 2791 : 		{
; 2792 : 			this->m_Durability = 0;
; 2793 : 		}
; 2794 : 
; 2795 : 		if ( this->CheckDurabilityState() != 0 )

  0009b	8b ce		 mov	 ecx, esi
  0009d	d9 5e 24	 fstp	 DWORD PTR [esi+36]
  000a0	e8 00 00 00 00	 call	 ?CheckDurabilityState@CItem@@QAEHXZ ; CItem::CheckDurabilityState
  000a5	f7 d8		 neg	 eax
  000a7	1b c0		 sbb	 eax, eax
  000a9	f7 d8		 neg	 eax
  000ab	5f		 pop	 edi
  000ac	40		 inc	 eax
  000ad	5e		 pop	 esi

; 2804 : }

  000ae	8b e5		 mov	 esp, ebp
  000b0	5d		 pop	 ebp
  000b1	c2 08 00	 ret	 8
$LN11@NormalWeap:

; 2791 : 		{
; 2792 : 			this->m_Durability = 0;
; 2793 : 		}
; 2794 : 
; 2795 : 		if ( this->CheckDurabilityState() != 0 )

  000b4	8b ce		 mov	 ecx, esi
  000b6	dd d8		 fstp	 ST(0)
  000b8	e8 00 00 00 00	 call	 ?CheckDurabilityState@CItem@@QAEHXZ ; CItem::CheckDurabilityState
  000bd	f7 d8		 neg	 eax
  000bf	1b c0		 sbb	 eax, eax
  000c1	f7 d8		 neg	 eax
  000c3	5f		 pop	 edi
  000c4	40		 inc	 eax
  000c5	5e		 pop	 esi

; 2804 : }

  000c6	8b e5		 mov	 esp, ebp
  000c8	5d		 pop	 ebp
  000c9	c2 08 00	 ret	 8
?NormalWeaponDurabilityDown@CItem@@QAEHHH@Z ENDP	; CItem::NormalWeaponDurabilityDown
_TEXT	ENDS
PUBLIC	?BowWeaponDurabilityDown@CItem@@QAEHHH@Z	; CItem::BowWeaponDurabilityDown
; Function compile flags: /Ogtp
;	COMDAT ?BowWeaponDurabilityDown@CItem@@QAEHHH@Z
_TEXT	SEGMENT
_plusdamage$ = -4					; size = 4
tv181 = 8						; size = 4
_defense$ = 8						; size = 4
_aIndex$ = 12						; size = 4
?BowWeaponDurabilityDown@CItem@@QAEHHH@Z PROC		; CItem::BowWeaponDurabilityDown, COMDAT
; _this$ = ecx

; 2807 : {

  00000	55		 push	 ebp
  00001	8b ec		 mov	 ebp, esp
  00003	51		 push	 ecx

; 2808 : 	if ( this->m_Durability <= 0 )

  00004	d9 ee		 fldz
  00006	56		 push	 esi
  00007	8b f1		 mov	 esi, ecx
  00009	d8 5e 24	 fcomp	 DWORD PTR [esi+36]
  0000c	df e0		 fnstsw	 ax
  0000e	f6 c4 01	 test	 ah, 1

; 2809 : 	{
; 2810 : 		return 0;

  00011	0f 84 93 00 00
	00		 je	 $LN3@BowWeaponD

; 2811 : 	}
; 2812 : 
; 2813 : 	int damagemin = this->m_DamageMinOrigin;

  00017	57		 push	 edi
  00018	0f b7 7e 1c	 movzx	 edi, WORD PTR [esi+28]

; 2814 : 	int plusdamage = 0;
; 2815 : 	this->PlusSpecial(&plusdamage, 80);

  0001c	6a 50		 push	 80			; 00000050H
  0001e	8d 45 fc	 lea	 eax, DWORD PTR _plusdamage$[ebp]
  00021	50		 push	 eax
  00022	c7 45 fc 00 00
	00 00		 mov	 DWORD PTR _plusdamage$[ebp], 0
  00029	e8 00 00 00 00	 call	 ?PlusSpecial@CItem@@QAEXPAHH@Z ; CItem::PlusSpecial

; 2816 : 	
; 2817 : 	int div = damagemin + damagemin/2 + plusdamage;

  0002e	8b c7		 mov	 eax, edi
  00030	99		 cdq
  00031	2b c2		 sub	 eax, edx
  00033	8b c8		 mov	 ecx, eax
  00035	d1 f9		 sar	 ecx, 1
  00037	03 4d fc	 add	 ecx, DWORD PTR _plusdamage$[ebp]
  0003a	03 cf		 add	 ecx, edi
  0003c	5f		 pop	 edi

; 2818 : 
; 2819 : 	if ( div == 0 )
; 2820 : 	{
; 2821 : 		return 0;

  0003d	74 6b		 je	 SHORT $LN3@BowWeaponD

; 2822 : 	}
; 2823 : 
; 2824 : 	int DecreaseDur = (defense*2)/div;

  0003f	8b 45 08	 mov	 eax, DWORD PTR _defense$[ebp]
  00042	03 c0		 add	 eax, eax
  00044	99		 cdq
  00045	f7 f9		 idiv	 ecx

; 2825 : 	this->m_DurabilitySmall += DecreaseDur;
; 2826 : 
; 2827 : 	if ( this->m_DurabilitySmall > 780 )

  00047	b9 0c 03 00 00	 mov	 ecx, 780		; 0000030cH
  0004c	66 01 46 28	 add	 WORD PTR [esi+40], ax
  00050	66 39 4e 28	 cmp	 WORD PTR [esi+40], cx
  00054	76 54		 jbe	 SHORT $LN3@BowWeaponD

; 2828 : 	{
; 2829 : 		this->m_DurabilitySmall = 0;
; 2830 : 		this->m_Durability -= 1.0f;

  00056	d9 46 24	 fld	 DWORD PTR [esi+36]
  00059	33 d2		 xor	 edx, edx
  0005b	dc 25 00 00 00
	00		 fsub	 QWORD PTR __real@3ff0000000000000
  00061	66 89 56 28	 mov	 WORD PTR [esi+40], dx
  00065	d9 5d 08	 fstp	 DWORD PTR tv181[ebp]
  00068	d9 45 08	 fld	 DWORD PTR tv181[ebp]
  0006b	d9 56 24	 fst	 DWORD PTR [esi+36]

; 2831 : 
; 2832 : 		if ( this->m_Durability < 0.0f )

  0006e	d9 ee		 fldz
  00070	d8 d1		 fcom	 ST(1)
  00072	df e0		 fnstsw	 ax
  00074	dd d9		 fstp	 ST(1)
  00076	f6 c4 41	 test	 ah, 65			; 00000041H
  00079	75 18		 jne	 SHORT $LN9@BowWeaponD

; 2833 : 		{
; 2834 : 			this->m_Durability = 0;
; 2835 : 		}
; 2836 : 		
; 2837 : 		if ( this->CheckDurabilityState() != 0 )

  0007b	8b ce		 mov	 ecx, esi
  0007d	d9 5e 24	 fstp	 DWORD PTR [esi+36]
  00080	e8 00 00 00 00	 call	 ?CheckDurabilityState@CItem@@QAEHXZ ; CItem::CheckDurabilityState
  00085	f7 d8		 neg	 eax
  00087	1b c0		 sbb	 eax, eax
  00089	f7 d8		 neg	 eax
  0008b	40		 inc	 eax
  0008c	5e		 pop	 esi

; 2846 : }

  0008d	8b e5		 mov	 esp, ebp
  0008f	5d		 pop	 ebp
  00090	c2 08 00	 ret	 8
$LN9@BowWeaponD:

; 2833 : 		{
; 2834 : 			this->m_Durability = 0;
; 2835 : 		}
; 2836 : 		
; 2837 : 		if ( this->CheckDurabilityState() != 0 )

  00093	8b ce		 mov	 ecx, esi
  00095	dd d8		 fstp	 ST(0)
  00097	e8 00 00 00 00	 call	 ?CheckDurabilityState@CItem@@QAEHXZ ; CItem::CheckDurabilityState
  0009c	f7 d8		 neg	 eax
  0009e	1b c0		 sbb	 eax, eax
  000a0	f7 d8		 neg	 eax
  000a2	40		 inc	 eax
  000a3	5e		 pop	 esi

; 2846 : }

  000a4	8b e5		 mov	 esp, ebp
  000a6	5d		 pop	 ebp
  000a7	c2 08 00	 ret	 8
$LN3@BowWeaponD:

; 2838 : 		{
; 2839 : 			return 2;
; 2840 : 		}
; 2841 : 		
; 2842 : 		return 1;
; 2843 : 		
; 2844 : 	}
; 2845 : 	return 0;

  000aa	33 c0		 xor	 eax, eax
  000ac	5e		 pop	 esi

; 2846 : }

  000ad	8b e5		 mov	 esp, ebp
  000af	5d		 pop	 ebp
  000b0	c2 08 00	 ret	 8
?BowWeaponDurabilityDown@CItem@@QAEHHH@Z ENDP		; CItem::BowWeaponDurabilityDown
_TEXT	ENDS
PUBLIC	?StaffWeaponDurabilityDown@CItem@@QAEHHH@Z	; CItem::StaffWeaponDurabilityDown
; Function compile flags: /Ogtp
;	COMDAT ?StaffWeaponDurabilityDown@CItem@@QAEHHH@Z
_TEXT	SEGMENT
_plusmagic$ = -4					; size = 4
tv187 = 8						; size = 4
_defence$ = 8						; size = 4
_aIndex$ = 12						; size = 4
?StaffWeaponDurabilityDown@CItem@@QAEHHH@Z PROC		; CItem::StaffWeaponDurabilityDown, COMDAT
; _this$ = ecx

; 2849 : {

  00000	55		 push	 ebp
  00001	8b ec		 mov	 ebp, esp
  00003	51		 push	 ecx

; 2850 : 	if ( this->m_Durability <= 0 )

  00004	d9 ee		 fldz
  00006	56		 push	 esi
  00007	8b f1		 mov	 esi, ecx
  00009	d8 5e 24	 fcomp	 DWORD PTR [esi+36]
  0000c	df e0		 fnstsw	 ax
  0000e	f6 c4 01	 test	 ah, 1

; 2851 : 	{
; 2852 : 		return 0;

  00011	0f 84 a1 00 00
	00		 je	 $LN3@StaffWeapo

; 2853 : 	}
; 2854 : 
; 2855 : 	int magic = this->m_Magic/2 + this->m_Level*2;

  00017	0f b7 46 20	 movzx	 eax, WORD PTR [esi+32]
  0001b	0f bf 4e 08	 movsx	 ecx, WORD PTR [esi+8]
  0001f	57		 push	 edi
  00020	d1 e8		 shr	 eax, 1

; 2856 : 	int plusmagic = 0;
; 2857 : 	this->PlusSpecial(&plusmagic, 81);

  00022	6a 51		 push	 81			; 00000051H
  00024	8d 55 fc	 lea	 edx, DWORD PTR _plusmagic$[ebp]
  00027	8d 3c 48	 lea	 edi, DWORD PTR [eax+ecx*2]
  0002a	52		 push	 edx
  0002b	8b ce		 mov	 ecx, esi
  0002d	c7 45 fc 00 00
	00 00		 mov	 DWORD PTR _plusmagic$[ebp], 0
  00034	e8 00 00 00 00	 call	 ?PlusSpecial@CItem@@QAEXPAHH@Z ; CItem::PlusSpecial

; 2858 : 	int div = magic + magic/3 + plusmagic;

  00039	b8 56 55 55 55	 mov	 eax, 1431655766		; 55555556H
  0003e	f7 ef		 imul	 edi
  00040	8b ca		 mov	 ecx, edx
  00042	c1 e9 1f	 shr	 ecx, 31			; 0000001fH
  00045	03 ca		 add	 ecx, edx
  00047	03 4d fc	 add	 ecx, DWORD PTR _plusmagic$[ebp]
  0004a	03 cf		 add	 ecx, edi
  0004c	5f		 pop	 edi

; 2859 : 
; 2860 : 	if ( div == 0 )
; 2861 : 	{
; 2862 : 		return 0;

  0004d	74 69		 je	 SHORT $LN3@StaffWeapo

; 2863 : 	}
; 2864 : 
; 2865 : 	int DecreaseDur = defence/div;

  0004f	8b 45 08	 mov	 eax, DWORD PTR _defence$[ebp]
  00052	99		 cdq
  00053	f7 f9		 idiv	 ecx

; 2866 : 	this->m_DurabilitySmall += DecreaseDur;
; 2867 : 
; 2868 : 	if ( this->m_DurabilitySmall > 1050 )

  00055	b9 1a 04 00 00	 mov	 ecx, 1050		; 0000041aH
  0005a	66 01 46 28	 add	 WORD PTR [esi+40], ax
  0005e	66 39 4e 28	 cmp	 WORD PTR [esi+40], cx
  00062	76 54		 jbe	 SHORT $LN3@StaffWeapo

; 2869 : 	{
; 2870 : 		this->m_DurabilitySmall = 0;
; 2871 : 		this->m_Durability -= 1.0f;

  00064	d9 46 24	 fld	 DWORD PTR [esi+36]
  00067	33 d2		 xor	 edx, edx
  00069	dc 25 00 00 00
	00		 fsub	 QWORD PTR __real@3ff0000000000000
  0006f	66 89 56 28	 mov	 WORD PTR [esi+40], dx
  00073	d9 5d 08	 fstp	 DWORD PTR tv187[ebp]
  00076	d9 45 08	 fld	 DWORD PTR tv187[ebp]
  00079	d9 56 24	 fst	 DWORD PTR [esi+36]

; 2872 : 
; 2873 : 		if ( this->m_Durability < 0.0f )

  0007c	d9 ee		 fldz
  0007e	d8 d1		 fcom	 ST(1)
  00080	df e0		 fnstsw	 ax
  00082	dd d9		 fstp	 ST(1)
  00084	f6 c4 41	 test	 ah, 65			; 00000041H
  00087	75 18		 jne	 SHORT $LN9@StaffWeapo

; 2874 : 		{
; 2875 : 			this->m_Durability = 0;
; 2876 : 		}
; 2877 : 		
; 2878 : 		if ( this->CheckDurabilityState() != 0 )

  00089	8b ce		 mov	 ecx, esi
  0008b	d9 5e 24	 fstp	 DWORD PTR [esi+36]
  0008e	e8 00 00 00 00	 call	 ?CheckDurabilityState@CItem@@QAEHXZ ; CItem::CheckDurabilityState
  00093	f7 d8		 neg	 eax
  00095	1b c0		 sbb	 eax, eax
  00097	f7 d8		 neg	 eax
  00099	40		 inc	 eax
  0009a	5e		 pop	 esi

; 2886 : }

  0009b	8b e5		 mov	 esp, ebp
  0009d	5d		 pop	 ebp
  0009e	c2 08 00	 ret	 8
$LN9@StaffWeapo:

; 2874 : 		{
; 2875 : 			this->m_Durability = 0;
; 2876 : 		}
; 2877 : 		
; 2878 : 		if ( this->CheckDurabilityState() != 0 )

  000a1	8b ce		 mov	 ecx, esi
  000a3	dd d8		 fstp	 ST(0)
  000a5	e8 00 00 00 00	 call	 ?CheckDurabilityState@CItem@@QAEHXZ ; CItem::CheckDurabilityState
  000aa	f7 d8		 neg	 eax
  000ac	1b c0		 sbb	 eax, eax
  000ae	f7 d8		 neg	 eax
  000b0	40		 inc	 eax
  000b1	5e		 pop	 esi

; 2886 : }

  000b2	8b e5		 mov	 esp, ebp
  000b4	5d		 pop	 ebp
  000b5	c2 08 00	 ret	 8
$LN3@StaffWeapo:

; 2879 : 		{
; 2880 : 			return 2;
; 2881 : 		}
; 2882 : 		return 1;
; 2883 : 		
; 2884 : 	}
; 2885 : 	return 0;

  000b8	33 c0		 xor	 eax, eax
  000ba	5e		 pop	 esi

; 2886 : }

  000bb	8b e5		 mov	 esp, ebp
  000bd	5d		 pop	 ebp
  000be	c2 08 00	 ret	 8
?StaffWeaponDurabilityDown@CItem@@QAEHHH@Z ENDP		; CItem::StaffWeaponDurabilityDown
_TEXT	ENDS
PUBLIC	??_C@_0M@ELCONOFE@def?$MA?L?50?$MA?L?$LE?Y?$AA@	; `string'
PUBLIC	?ArmorDurabilityDown@CItem@@QAEHHH@Z		; CItem::ArmorDurabilityDown
;	COMDAT ??_C@_0M@ELCONOFE@def?$MA?L?50?$MA?L?$LE?Y?$AA@
CONST	SEGMENT
??_C@_0M@ELCONOFE@def?$MA?L?50?$MA?L?$LE?Y?$AA@ DB 'def', 0c0H, 0ccH, ' 0'
	DB	0c0H, 0ccH, 0b4H, 0d9H, 00H			; `string'
; Function compile flags: /Ogtp
CONST	ENDS
;	COMDAT ?ArmorDurabilityDown@CItem@@QAEHHH@Z
_TEXT	SEGMENT
_plusdef$ = -4						; size = 4
tv281 = 8						; size = 4
_DecreaseDur$ = 8					; size = 4
_damagemin$ = 8						; size = 4
_aIndex$ = 12						; size = 4
?ArmorDurabilityDown@CItem@@QAEHHH@Z PROC		; CItem::ArmorDurabilityDown, COMDAT
; _this$ = ecx

; 2889 : {

  00000	55		 push	 ebp
  00001	8b ec		 mov	 ebp, esp
  00003	51		 push	 ecx

; 2890 : 	if ( this->m_Durability <= 0 )

  00004	d9 ee		 fldz
  00006	56		 push	 esi
  00007	8b f1		 mov	 esi, ecx
  00009	d8 5e 24	 fcomp	 DWORD PTR [esi+36]
  0000c	df e0		 fnstsw	 ax
  0000e	f6 c4 01	 test	 ah, 1
  00011	75 09		 jne	 SHORT $LN17@ArmorDurab
$LN28@ArmorDurab:

; 2891 : 	{
; 2892 : 		return 0;

  00013	33 c0		 xor	 eax, eax
  00015	5e		 pop	 esi

; 2962 : }

  00016	8b e5		 mov	 esp, ebp
  00018	5d		 pop	 ebp
  00019	c2 08 00	 ret	 8
$LN17@ArmorDurab:

; 2893 : 	}
; 2894 : 
; 2895 : 	if ( this->m_Type == -1 )

  0001c	0f b7 46 06	 movzx	 eax, WORD PTR [esi+6]
  00020	66 83 f8 ff	 cmp	 ax, -1

; 2896 : 	{
; 2897 : 		return 0;

  00024	74 ed		 je	 SHORT $LN28@ArmorDurab

; 2898 : 	}
; 2899 : 
; 2900 : 	int def = this->m_DefenseOrigin;

  00026	57		 push	 edi
  00027	0f b7 7e 1e	 movzx	 edi, WORD PTR [esi+30]

; 2901 : 	int plusdef = 0;

  0002b	c7 45 fc 00 00
	00 00		 mov	 DWORD PTR _plusdef$[ebp], 0

; 2902 : 	int DecreaseDur;
; 2903 : 
; 2904 : 	if ( def == 0 )

  00032	85 ff		 test	 edi, edi
  00034	75 18		 jne	 SHORT $LN15@ArmorDurab

; 2905 : 	{
; 2906 : 		LogAdd(LOG_BLACK, "def이 0이다");

  00036	68 00 00 00 00	 push	 OFFSET ??_C@_0M@ELCONOFE@def?$MA?L?50?$MA?L?$LE?Y?$AA@
  0003b	57		 push	 edi
  0003c	e8 00 00 00 00	 call	 ?LogAdd@@YAXW4eLogColor@@PADZZ ; LogAdd
  00041	83 c4 08	 add	 esp, 8
$LN3@ArmorDurab:

; 2954 : 		{
; 2955 : 			return 2;
; 2956 : 		}
; 2957 : 		
; 2958 : 		return 1;
; 2959 : 		
; 2960 : 	}
; 2961 : 	return 0;

  00044	5f		 pop	 edi
  00045	33 c0		 xor	 eax, eax
  00047	5e		 pop	 esi

; 2962 : }

  00048	8b e5		 mov	 esp, ebp
  0004a	5d		 pop	 ebp
  0004b	c2 08 00	 ret	 8
$LN15@ArmorDurab:

; 2907 : 		return 0;
; 2908 : 	}
; 2909 : 
; 2910 : 	if ( this->m_Type >= ITEMGET(6,0) && this->m_Type < ITEMGET(7,0) )

  0004e	b9 00 0c 00 00	 mov	 ecx, 3072		; 00000c00H
  00053	66 3b c1	 cmp	 ax, cx
  00056	7c 2a		 jl	 SHORT $LN14@ArmorDurab
  00058	ba 00 0e 00 00	 mov	 edx, 3584		; 00000e00H
  0005d	66 3b c2	 cmp	 ax, dx
  00060	7d 20		 jge	 SHORT $LN14@ArmorDurab

; 2911 : 	{
; 2912 : 		this->PlusSpecial(&plusdef, 82);

  00062	6a 52		 push	 82			; 00000052H
  00064	8d 45 fc	 lea	 eax, DWORD PTR _plusdef$[ebp]
  00067	50		 push	 eax
  00068	8b ce		 mov	 ecx, esi
  0006a	e8 00 00 00 00	 call	 ?PlusSpecial@CItem@@QAEXPAHH@Z ; CItem::PlusSpecial

; 2913 : 		DecreaseDur = damagemin/(def * 5+ plusdef);

  0006f	8b 4d fc	 mov	 ecx, DWORD PTR _plusdef$[ebp]

; 2923 : 		DecreaseDur = damagemin/(def * 3 + plusdef);

  00072	8b 45 08	 mov	 eax, DWORD PTR _damagemin$[ebp]
  00075	8d 0c b9	 lea	 ecx, DWORD PTR [ecx+edi*4]
  00078	99		 cdq
  00079	03 cf		 add	 ecx, edi
  0007b	f7 f9		 idiv	 ecx
  0007d	e9 98 00 00 00	 jmp	 $LN4@ArmorDurab
$LN14@ArmorDurab:

; 2914 : 	}
; 2915 : 	else if ( this->m_RequireClass[0] != 0 )	// Dark Wize

  00082	80 7e 50 00	 cmp	 BYTE PTR [esi+80], 0

; 2916 : 	{
; 2917 : 		this->PlusSpecial(&plusdef, 83);
; 2918 : 		DecreaseDur = damagemin/(def * 3 + plusdef);

  00086	75 06		 jne	 SHORT $LN25@ArmorDurab

; 2919 : 	}
; 2920 : 	else if ( this->m_RequireClass[1] != 0 )	// Dark Knight

  00088	80 7e 51 00	 cmp	 BYTE PTR [esi+81], 0
  0008c	74 1d		 je	 SHORT $LN10@ArmorDurab
$LN25@ArmorDurab:

; 2921 : 	{
; 2922 : 		this->PlusSpecial(&plusdef, 83);

  0008e	6a 53		 push	 83			; 00000053H
  00090	8d 55 fc	 lea	 edx, DWORD PTR _plusdef$[ebp]
  00093	52		 push	 edx
  00094	8b ce		 mov	 ecx, esi
  00096	e8 00 00 00 00	 call	 ?PlusSpecial@CItem@@QAEXPAHH@Z ; CItem::PlusSpecial

; 2923 : 		DecreaseDur = damagemin/(def * 3 + plusdef);

  0009b	8b 45 fc	 mov	 eax, DWORD PTR _plusdef$[ebp]
  0009e	8d 0c 78	 lea	 ecx, DWORD PTR [eax+edi*2]
  000a1	8b 45 08	 mov	 eax, DWORD PTR _damagemin$[ebp]
  000a4	99		 cdq
  000a5	03 cf		 add	 ecx, edi
  000a7	f7 f9		 idiv	 ecx
  000a9	eb 6f		 jmp	 SHORT $LN4@ArmorDurab
$LN10@ArmorDurab:

; 2924 : 	}
; 2925 : 	else if ( this->m_RequireClass[2] != 0 )	// Elf

  000ab	80 7e 52 00	 cmp	 BYTE PTR [esi+82], 0
  000af	74 1b		 je	 SHORT $LN8@ArmorDurab

; 2926 : 	{
; 2927 : 		this->PlusSpecial(&plusdef, 83);

  000b1	6a 53		 push	 83			; 00000053H
  000b3	8d 55 fc	 lea	 edx, DWORD PTR _plusdef$[ebp]
  000b6	52		 push	 edx
  000b7	8b ce		 mov	 ecx, esi
  000b9	e8 00 00 00 00	 call	 ?PlusSpecial@CItem@@QAEXPAHH@Z ; CItem::PlusSpecial

; 2928 : 		DecreaseDur = damagemin/(def * 2 + plusdef);

  000be	8b 45 fc	 mov	 eax, DWORD PTR _plusdef$[ebp]
  000c1	8d 0c 78	 lea	 ecx, DWORD PTR [eax+edi*2]
  000c4	8b 45 08	 mov	 eax, DWORD PTR _damagemin$[ebp]
  000c7	99		 cdq
  000c8	f7 f9		 idiv	 ecx
  000ca	eb 4e		 jmp	 SHORT $LN4@ArmorDurab
$LN8@ArmorDurab:

; 2929 : 	}
; 2930 : 	else if ( this->m_RequireClass[3] != 0 )	// MAgic Gladiator ( aka Magunsa )

  000cc	80 7e 53 00	 cmp	 BYTE PTR [esi+83], 0
  000d0	74 21		 je	 SHORT $LN6@ArmorDurab

; 2931 : 	{
; 2932 : 		this->PlusSpecial(&plusdef, 83);

  000d2	6a 53		 push	 83			; 00000053H
  000d4	8d 55 fc	 lea	 edx, DWORD PTR _plusdef$[ebp]
  000d7	52		 push	 edx
  000d8	8b ce		 mov	 ecx, esi
  000da	e8 00 00 00 00	 call	 ?PlusSpecial@CItem@@QAEXPAHH@Z ; CItem::PlusSpecial

; 2933 : 		DecreaseDur = damagemin/(def * 7 + plusdef);

  000df	8b 45 08	 mov	 eax, DWORD PTR _damagemin$[ebp]
  000e2	8d 0c fd 00 00
	00 00		 lea	 ecx, DWORD PTR [edi*8]
  000e9	2b cf		 sub	 ecx, edi
  000eb	03 4d fc	 add	 ecx, DWORD PTR _plusdef$[ebp]
  000ee	99		 cdq
  000ef	f7 f9		 idiv	 ecx
  000f1	eb 27		 jmp	 SHORT $LN4@ArmorDurab
$LN6@ArmorDurab:

; 2934 : 	}
; 2935 : 	else if ( this->m_RequireClass[4] != 0 )	// Dark Lord

  000f3	80 7e 54 00	 cmp	 BYTE PTR [esi+84], 0
  000f7	74 1e		 je	 SHORT $LN20@ArmorDurab

; 2936 : 	{
; 2937 : 		this->PlusSpecial(&plusdef, 83);

  000f9	6a 53		 push	 83			; 00000053H
  000fb	8d 55 fc	 lea	 edx, DWORD PTR _plusdef$[ebp]
  000fe	52		 push	 edx
  000ff	8b ce		 mov	 ecx, esi
  00101	e8 00 00 00 00	 call	 ?PlusSpecial@CItem@@QAEXPAHH@Z ; CItem::PlusSpecial

; 2938 : 		DecreaseDur = damagemin/(def * 6 + plusdef);

  00106	8b 4d fc	 mov	 ecx, DWORD PTR _plusdef$[ebp]
  00109	8d 04 7f	 lea	 eax, DWORD PTR [edi+edi*2]
  0010c	8d 0c 41	 lea	 ecx, DWORD PTR [ecx+eax*2]
  0010f	8b 45 08	 mov	 eax, DWORD PTR _damagemin$[ebp]
  00112	99		 cdq
  00113	f7 f9		 idiv	 ecx
  00115	eb 03		 jmp	 SHORT $LN4@ArmorDurab
$LN20@ArmorDurab:
  00117	8b 45 08	 mov	 eax, DWORD PTR _DecreaseDur$[ebp]
$LN4@ArmorDurab:

; 2939 : 	}		
; 2940 : 
; 2941 : 	this->m_DurabilitySmall += DecreaseDur;

  0011a	66 01 46 28	 add	 WORD PTR [esi+40], ax

; 2942 : 
; 2943 : 	if ( this->m_DurabilitySmall > 69 )

  0011e	66 83 7e 28 45	 cmp	 WORD PTR [esi+40], 69	; 00000045H
  00123	0f 86 1b ff ff
	ff		 jbe	 $LN3@ArmorDurab

; 2944 : 	{
; 2945 : 		this->m_DurabilitySmall = 0;
; 2946 : 		this->m_Durability -= 1.0f;

  00129	d9 46 24	 fld	 DWORD PTR [esi+36]
  0012c	33 d2		 xor	 edx, edx
  0012e	dc 25 00 00 00
	00		 fsub	 QWORD PTR __real@3ff0000000000000
  00134	66 89 56 28	 mov	 WORD PTR [esi+40], dx
  00138	d9 5d 08	 fstp	 DWORD PTR tv281[ebp]
  0013b	d9 45 08	 fld	 DWORD PTR tv281[ebp]
  0013e	d9 56 24	 fst	 DWORD PTR [esi+36]

; 2947 : 
; 2948 : 		if ( this->m_Durability < 0.0f )

  00141	d9 ee		 fldz
  00143	d8 d1		 fcom	 ST(1)
  00145	df e0		 fnstsw	 ax
  00147	dd d9		 fstp	 ST(1)
  00149	f6 c4 41	 test	 ah, 65			; 00000041H
  0014c	75 19		 jne	 SHORT $LN23@ArmorDurab

; 2949 : 		{
; 2950 : 			this->m_Durability = 0;
; 2951 : 		}
; 2952 : 		
; 2953 : 		if ( this->CheckDurabilityState() != 0 )

  0014e	8b ce		 mov	 ecx, esi
  00150	d9 5e 24	 fstp	 DWORD PTR [esi+36]
  00153	e8 00 00 00 00	 call	 ?CheckDurabilityState@CItem@@QAEHXZ ; CItem::CheckDurabilityState
  00158	f7 d8		 neg	 eax
  0015a	1b c0		 sbb	 eax, eax
  0015c	f7 d8		 neg	 eax
  0015e	5f		 pop	 edi
  0015f	40		 inc	 eax
  00160	5e		 pop	 esi

; 2962 : }

  00161	8b e5		 mov	 esp, ebp
  00163	5d		 pop	 ebp
  00164	c2 08 00	 ret	 8
$LN23@ArmorDurab:

; 2949 : 		{
; 2950 : 			this->m_Durability = 0;
; 2951 : 		}
; 2952 : 		
; 2953 : 		if ( this->CheckDurabilityState() != 0 )

  00167	8b ce		 mov	 ecx, esi
  00169	dd d8		 fstp	 ST(0)
  0016b	e8 00 00 00 00	 call	 ?CheckDurabilityState@CItem@@QAEHXZ ; CItem::CheckDurabilityState
  00170	f7 d8		 neg	 eax
  00172	1b c0		 sbb	 eax, eax
  00174	f7 d8		 neg	 eax
  00176	5f		 pop	 edi
  00177	40		 inc	 eax
  00178	5e		 pop	 esi

; 2962 : }

  00179	8b e5		 mov	 esp, ebp
  0017b	5d		 pop	 ebp
  0017c	c2 08 00	 ret	 8
?ArmorDurabilityDown@CItem@@QAEHHH@Z ENDP		; CItem::ArmorDurabilityDown
; Function compile flags: /Ogtp
_TEXT	ENDS
;	COMDAT ??__EgPetItemExp@@YAXXZ
text$yc	SEGMENT
??__EgPetItemExp@@YAXXZ PROC				; `dynamic initializer for 'gPetItemExp'', COMDAT

; 12   : CPetItemExp gPetItemExp;

  00000	b9 00 00 00 00	 mov	 ecx, OFFSET ?gPetItemExp@@3VCPetItemExp@@A ; gPetItemExp
  00005	e9 00 00 00 00	 jmp	 ??0CPetItemExp@@QAE@XZ	; CPetItemExp::CPetItemExp
??__EgPetItemExp@@YAXXZ ENDP				; `dynamic initializer for 'gPetItemExp''
text$yc	ENDS
PUBLIC	?gPetItemExp@@3VCPetItemExp@@A			; gPetItemExp
_BSS	SEGMENT
?gPetItemExp@@3VCPetItemExp@@A DB 01a0H DUP (?)		; gPetItemExp
_BSS	ENDS
CRT$XCU	SEGMENT
_gPetItemExp$initializer$ DD FLAT:??__EgPetItemExp@@YAXXZ
CRT$XCU	ENDS
END
